
build/ch.elf:     file format elf32-littlearm


Disassembly of section .text:

00000410 <Reset_Handler>:
     410:	b672      	cpsid	i
     412:	4820      	ldr	r0, [pc, #128]	; (494 <endfiniloop+0x4>)
     414:	f380 8809 	msr	PSP, r0
     418:	2002      	movs	r0, #2
     41a:	f380 8814 	msr	CONTROL, r0
     41e:	f3bf 8f6f 	isb	sy
     422:	f000 fde3 	bl	fec <__early_init>
     426:	481c      	ldr	r0, [pc, #112]	; (498 <endfiniloop+0x8>)
     428:	491c      	ldr	r1, [pc, #112]	; (49c <endfiniloop+0xc>)
     42a:	4a1d      	ldr	r2, [pc, #116]	; (4a0 <endfiniloop+0x10>)

0000042c <msloop>:
     42c:	4291      	cmp	r1, r2
     42e:	da02      	bge.n	436 <endmsloop>
     430:	6008      	str	r0, [r1, #0]
     432:	3104      	adds	r1, #4
     434:	e7fa      	b.n	42c <msloop>

00000436 <endmsloop>:
     436:	491b      	ldr	r1, [pc, #108]	; (4a4 <endfiniloop+0x14>)
     438:	4a16      	ldr	r2, [pc, #88]	; (494 <endfiniloop+0x4>)

0000043a <psloop>:
     43a:	4291      	cmp	r1, r2
     43c:	da02      	bge.n	444 <endpsloop>
     43e:	6008      	str	r0, [r1, #0]
     440:	3104      	adds	r1, #4
     442:	e7fa      	b.n	43a <psloop>

00000444 <endpsloop>:
     444:	4918      	ldr	r1, [pc, #96]	; (4a8 <endfiniloop+0x18>)
     446:	4a19      	ldr	r2, [pc, #100]	; (4ac <endfiniloop+0x1c>)
     448:	4b19      	ldr	r3, [pc, #100]	; (4b0 <endfiniloop+0x20>)

0000044a <dloop>:
     44a:	429a      	cmp	r2, r3
     44c:	da04      	bge.n	458 <enddloop>
     44e:	6808      	ldr	r0, [r1, #0]
     450:	6010      	str	r0, [r2, #0]
     452:	3104      	adds	r1, #4
     454:	3204      	adds	r2, #4
     456:	e7f8      	b.n	44a <dloop>

00000458 <enddloop>:
     458:	2000      	movs	r0, #0
     45a:	4916      	ldr	r1, [pc, #88]	; (4b4 <endfiniloop+0x24>)
     45c:	4a16      	ldr	r2, [pc, #88]	; (4b8 <endfiniloop+0x28>)

0000045e <bloop>:
     45e:	4291      	cmp	r1, r2
     460:	da02      	bge.n	468 <endbloop>
     462:	6008      	str	r0, [r1, #0]
     464:	3104      	adds	r1, #4
     466:	e7fa      	b.n	45e <bloop>

00000468 <endbloop>:
     468:	f000 fe70 	bl	114c <__late_init>
     46c:	4c13      	ldr	r4, [pc, #76]	; (4bc <endfiniloop+0x2c>)
     46e:	4d14      	ldr	r5, [pc, #80]	; (4c0 <endfiniloop+0x30>)

00000470 <initloop>:
     470:	42ac      	cmp	r4, r5
     472:	da03      	bge.n	47c <endinitloop>
     474:	6821      	ldr	r1, [r4, #0]
     476:	4788      	blx	r1
     478:	3404      	adds	r4, #4
     47a:	e7f9      	b.n	470 <initloop>

0000047c <endinitloop>:
     47c:	f000 fb94 	bl	ba8 <main>
     480:	4c10      	ldr	r4, [pc, #64]	; (4c4 <endfiniloop+0x34>)
     482:	4d11      	ldr	r5, [pc, #68]	; (4c8 <endfiniloop+0x38>)

00000484 <finiloop>:
     484:	42ac      	cmp	r4, r5
     486:	da03      	bge.n	490 <endfiniloop>
     488:	6821      	ldr	r1, [r4, #0]
     48a:	4788      	blx	r1
     48c:	3404      	adds	r4, #4
     48e:	e7f9      	b.n	484 <finiloop>

00000490 <endfiniloop>:
     490:	490e      	ldr	r1, [pc, #56]	; (4cc <endfiniloop+0x3c>)
     492:	4708      	bx	r1
     494:	1ffff600 	.word	0x1ffff600
     498:	55555555 	.word	0x55555555
     49c:	1ffff000 	.word	0x1ffff000
     4a0:	1ffff400 	.word	0x1ffff400
     4a4:	1ffff400 	.word	0x1ffff400
     4a8:	000012e8 	.word	0x000012e8
     4ac:	1ffff600 	.word	0x1ffff600
     4b0:	1ffff600 	.word	0x1ffff600
     4b4:	1ffff600 	.word	0x1ffff600
     4b8:	1ffff818 	.word	0x1ffff818
     4bc:	00000410 	.word	0x00000410
     4c0:	00000410 	.word	0x00000410
     4c4:	00000410 	.word	0x00000410
     4c8:	00000410 	.word	0x00000410
     4cc:	00001149 	.word	0x00001149

000004d0 <_port_switch>:
     4d0:	b5f0      	push	{r4, r5, r6, r7, lr}
     4d2:	4644      	mov	r4, r8
     4d4:	464d      	mov	r5, r9
     4d6:	4656      	mov	r6, sl
     4d8:	465f      	mov	r7, fp
     4da:	b4f0      	push	{r4, r5, r6, r7}
     4dc:	466b      	mov	r3, sp
     4de:	60cb      	str	r3, [r1, #12]
     4e0:	68c3      	ldr	r3, [r0, #12]
     4e2:	469d      	mov	sp, r3
     4e4:	bcf0      	pop	{r4, r5, r6, r7}
     4e6:	46a0      	mov	r8, r4
     4e8:	46a9      	mov	r9, r5
     4ea:	46b2      	mov	sl, r6
     4ec:	46bb      	mov	fp, r7
     4ee:	bdf0      	pop	{r4, r5, r6, r7, pc}

000004f0 <_port_thread_start>:
     4f0:	b662      	cpsie	i
     4f2:	1c28      	adds	r0, r5, #0
     4f4:	47a0      	blx	r4
     4f6:	2000      	movs	r0, #0
     4f8:	f000 fdde 	bl	10b8 <chThdExit>

000004fc <_port_switch_from_isr>:
     4fc:	f000 fdfc 	bl	10f8 <chSchDoReschedule>

00000500 <_port_exit_from_isr>:
     500:	4a01      	ldr	r2, [pc, #4]	; (508 <_port_exit_from_isr+0x8>)
     502:	4b02      	ldr	r3, [pc, #8]	; (50c <_port_exit_from_isr+0xc>)
     504:	6013      	str	r3, [r2, #0]
     506:	e7fe      	b.n	506 <_port_exit_from_isr+0x6>
     508:	e000ed04 	.word	0xe000ed04
     50c:	80000000 	.word	0x80000000

00000510 <_idle_thread>:
     510:	e7fe      	b.n	510 <_idle_thread>
     512:	46c0      	nop			; (mov r8, r8)

00000514 <chCoreAlloc>:
     514:	b672      	cpsid	i
     516:	2207      	movs	r2, #7
     518:	1dc3      	adds	r3, r0, #7
     51a:	4393      	bics	r3, r2
     51c:	4906      	ldr	r1, [pc, #24]	; (538 <chCoreAlloc+0x24>)
     51e:	4a07      	ldr	r2, [pc, #28]	; (53c <chCoreAlloc+0x28>)
     520:	6808      	ldr	r0, [r1, #0]
     522:	6812      	ldr	r2, [r2, #0]
     524:	1a12      	subs	r2, r2, r0
     526:	4293      	cmp	r3, r2
     528:	d803      	bhi.n	532 <chCoreAlloc+0x1e>
     52a:	18c3      	adds	r3, r0, r3
     52c:	600b      	str	r3, [r1, #0]
     52e:	b662      	cpsie	i
     530:	4770      	bx	lr
     532:	2000      	movs	r0, #0
     534:	e7fb      	b.n	52e <chCoreAlloc+0x1a>
     536:	46c0      	nop			; (mov r8, r8)
     538:	1ffff7f4 	.word	0x1ffff7f4
     53c:	1ffff7f0 	.word	0x1ffff7f0

00000540 <extcb1>:
     540:	2102      	movs	r1, #2
     542:	4a02      	ldr	r2, [pc, #8]	; (54c <extcb1+0xc>)
     544:	68d3      	ldr	r3, [r2, #12]
     546:	430b      	orrs	r3, r1
     548:	60d3      	str	r3, [r2, #12]
     54a:	4770      	bx	lr
     54c:	400ff0c0 	.word	0x400ff0c0

00000550 <_port_irq_epilogue.part.0>:
     550:	b590      	push	{r4, r7, lr}
     552:	af00      	add	r7, sp, #0
     554:	b672      	cpsid	i
     556:	f3ef 8209 	mrs	r2, PSP
     55a:	3a20      	subs	r2, #32
     55c:	f382 8809 	msr	PSP, r2
     560:	2380      	movs	r3, #128	; 0x80
     562:	490d      	ldr	r1, [pc, #52]	; (598 <_port_irq_epilogue.part.0+0x48>)
     564:	045b      	lsls	r3, r3, #17
     566:	61d3      	str	r3, [r2, #28]
     568:	680b      	ldr	r3, [r1, #0]
     56a:	6989      	ldr	r1, [r1, #24]
     56c:	689c      	ldr	r4, [r3, #8]
     56e:	7fcb      	ldrb	r3, [r1, #31]
     570:	6888      	ldr	r0, [r1, #8]
     572:	2b00      	cmp	r3, #0
     574:	d108      	bne.n	588 <_port_irq_epilogue.part.0+0x38>
     576:	4284      	cmp	r4, r0
     578:	415b      	adcs	r3, r3
     57a:	b2db      	uxtb	r3, r3
     57c:	2b00      	cmp	r3, #0
     57e:	d108      	bne.n	592 <_port_irq_epilogue.part.0+0x42>
     580:	4b06      	ldr	r3, [pc, #24]	; (59c <_port_irq_epilogue.part.0+0x4c>)
     582:	6193      	str	r3, [r2, #24]
     584:	46bd      	mov	sp, r7
     586:	bd90      	pop	{r4, r7, pc}
     588:	42a0      	cmp	r0, r4
     58a:	419b      	sbcs	r3, r3
     58c:	425b      	negs	r3, r3
     58e:	2b00      	cmp	r3, #0
     590:	d0f6      	beq.n	580 <_port_irq_epilogue.part.0+0x30>
     592:	4b03      	ldr	r3, [pc, #12]	; (5a0 <_port_irq_epilogue.part.0+0x50>)
     594:	6193      	str	r3, [r2, #24]
     596:	e7f5      	b.n	584 <_port_irq_epilogue.part.0+0x34>
     598:	1ffff680 	.word	0x1ffff680
     59c:	00000500 	.word	0x00000500
     5a0:	000004fd 	.word	0x000004fd

000005a4 <NMI_Handler>:
     5a4:	b580      	push	{r7, lr}
     5a6:	af00      	add	r7, sp, #0
     5a8:	f3ef 8309 	mrs	r3, PSP
     5ac:	3320      	adds	r3, #32
     5ae:	f383 8809 	msr	PSP, r3
     5b2:	b662      	cpsie	i
     5b4:	46bd      	mov	sp, r7
     5b6:	bd80      	pop	{r7, pc}

000005b8 <wakeup>:
     5b8:	b672      	cpsid	i
     5ba:	7f03      	ldrb	r3, [r0, #28]
     5bc:	2b07      	cmp	r3, #7
     5be:	d80c      	bhi.n	5da <wakeup+0x22>
     5c0:	4a11      	ldr	r2, [pc, #68]	; (608 <wakeup+0x50>)
     5c2:	009b      	lsls	r3, r3, #2
     5c4:	58d3      	ldr	r3, [r2, r3]
     5c6:	469f      	mov	pc, r3
     5c8:	6a02      	ldr	r2, [r0, #32]
     5ca:	6893      	ldr	r3, [r2, #8]
     5cc:	3301      	adds	r3, #1
     5ce:	6093      	str	r3, [r2, #8]
     5d0:	6802      	ldr	r2, [r0, #0]
     5d2:	6843      	ldr	r3, [r0, #4]
     5d4:	601a      	str	r2, [r3, #0]
     5d6:	6802      	ldr	r2, [r0, #0]
     5d8:	6053      	str	r3, [r2, #4]
     5da:	2301      	movs	r3, #1
     5dc:	425b      	negs	r3, r3
     5de:	6203      	str	r3, [r0, #32]
     5e0:	2300      	movs	r3, #0
     5e2:	6882      	ldr	r2, [r0, #8]
     5e4:	7703      	strb	r3, [r0, #28]
     5e6:	4b09      	ldr	r3, [pc, #36]	; (60c <wakeup+0x54>)
     5e8:	681b      	ldr	r3, [r3, #0]
     5ea:	6899      	ldr	r1, [r3, #8]
     5ec:	4291      	cmp	r1, r2
     5ee:	d2fb      	bcs.n	5e8 <wakeup+0x30>
     5f0:	685a      	ldr	r2, [r3, #4]
     5f2:	6003      	str	r3, [r0, #0]
     5f4:	6042      	str	r2, [r0, #4]
     5f6:	6010      	str	r0, [r2, #0]
     5f8:	6058      	str	r0, [r3, #4]
     5fa:	b662      	cpsie	i
     5fc:	4770      	bx	lr
     5fe:	2200      	movs	r2, #0
     600:	6a03      	ldr	r3, [r0, #32]
     602:	601a      	str	r2, [r3, #0]
     604:	e7e9      	b.n	5da <wakeup+0x22>
     606:	46c0      	nop			; (mov r8, r8)
     608:	00001150 	.word	0x00001150
     60c:	1ffff680 	.word	0x1ffff680

00000610 <chSchReadyI>:
     610:	2300      	movs	r3, #0
     612:	6882      	ldr	r2, [r0, #8]
     614:	7703      	strb	r3, [r0, #28]
     616:	4b05      	ldr	r3, [pc, #20]	; (62c <chSchReadyI+0x1c>)
     618:	681b      	ldr	r3, [r3, #0]
     61a:	6899      	ldr	r1, [r3, #8]
     61c:	4291      	cmp	r1, r2
     61e:	d2fb      	bcs.n	618 <chSchReadyI+0x8>
     620:	685a      	ldr	r2, [r3, #4]
     622:	6003      	str	r3, [r0, #0]
     624:	6042      	str	r2, [r0, #4]
     626:	6010      	str	r0, [r2, #0]
     628:	6058      	str	r0, [r3, #4]
     62a:	4770      	bx	lr
     62c:	1ffff680 	.word	0x1ffff680

00000630 <chEvtBroadcastFlagsI.constprop.15>:
     630:	b5f8      	push	{r3, r4, r5, r6, r7, lr}
     632:	4d15      	ldr	r5, [pc, #84]	; (688 <chEvtBroadcastFlagsI.constprop.15+0x58>)
     634:	0006      	movs	r6, r0
     636:	686c      	ldr	r4, [r5, #4]
     638:	3504      	adds	r5, #4
     63a:	42ac      	cmp	r4, r5
     63c:	d01d      	beq.n	67a <chEvtBroadcastFlagsI.constprop.15+0x4a>
     63e:	2700      	movs	r7, #0
     640:	e004      	b.n	64c <chEvtBroadcastFlagsI.constprop.15+0x1c>
     642:	2a0b      	cmp	r2, #11
     644:	d01a      	beq.n	67c <chEvtBroadcastFlagsI.constprop.15+0x4c>
     646:	6824      	ldr	r4, [r4, #0]
     648:	42ac      	cmp	r4, r5
     64a:	d016      	beq.n	67a <chEvtBroadcastFlagsI.constprop.15+0x4a>
     64c:	68e3      	ldr	r3, [r4, #12]
     64e:	6922      	ldr	r2, [r4, #16]
     650:	4333      	orrs	r3, r6
     652:	60e3      	str	r3, [r4, #12]
     654:	421a      	tst	r2, r3
     656:	d0f6      	beq.n	646 <chEvtBroadcastFlagsI.constprop.15+0x16>
     658:	6860      	ldr	r0, [r4, #4]
     65a:	68a3      	ldr	r3, [r4, #8]
     65c:	6b42      	ldr	r2, [r0, #52]	; 0x34
     65e:	4313      	orrs	r3, r2
     660:	7f02      	ldrb	r2, [r0, #28]
     662:	6343      	str	r3, [r0, #52]	; 0x34
     664:	2a0a      	cmp	r2, #10
     666:	d1ec      	bne.n	642 <chEvtBroadcastFlagsI.constprop.15+0x12>
     668:	6a02      	ldr	r2, [r0, #32]
     66a:	421a      	tst	r2, r3
     66c:	d0eb      	beq.n	646 <chEvtBroadcastFlagsI.constprop.15+0x16>
     66e:	6207      	str	r7, [r0, #32]
     670:	f7ff ffce 	bl	610 <chSchReadyI>
     674:	6824      	ldr	r4, [r4, #0]
     676:	42ac      	cmp	r4, r5
     678:	d1e8      	bne.n	64c <chEvtBroadcastFlagsI.constprop.15+0x1c>
     67a:	bdf8      	pop	{r3, r4, r5, r6, r7, pc}
     67c:	6a02      	ldr	r2, [r0, #32]
     67e:	4013      	ands	r3, r2
     680:	429a      	cmp	r2, r3
     682:	d1e0      	bne.n	646 <chEvtBroadcastFlagsI.constprop.15+0x16>
     684:	e7f3      	b.n	66e <chEvtBroadcastFlagsI.constprop.15+0x3e>
     686:	46c0      	nop			; (mov r8, r8)
     688:	1ffff608 	.word	0x1ffff608

0000068c <chOQGetI.constprop.11>:
     68c:	4b12      	ldr	r3, [pc, #72]	; (6d8 <chOQGetI.constprop.11+0x4c>)
     68e:	b510      	push	{r4, lr}
     690:	6c99      	ldr	r1, [r3, #72]	; 0x48
     692:	6c58      	ldr	r0, [r3, #68]	; 0x44
     694:	6b9a      	ldr	r2, [r3, #56]	; 0x38
     696:	4288      	cmp	r0, r1
     698:	d018      	beq.n	6cc <chOQGetI.constprop.11+0x40>
     69a:	3201      	adds	r2, #1
     69c:	639a      	str	r2, [r3, #56]	; 0x38
     69e:	1c4a      	adds	r2, r1, #1
     6a0:	649a      	str	r2, [r3, #72]	; 0x48
     6a2:	780c      	ldrb	r4, [r1, #0]
     6a4:	6c19      	ldr	r1, [r3, #64]	; 0x40
     6a6:	428a      	cmp	r2, r1
     6a8:	d20d      	bcs.n	6c6 <chOQGetI.constprop.11+0x3a>
     6aa:	001a      	movs	r2, r3
     6ac:	6b18      	ldr	r0, [r3, #48]	; 0x30
     6ae:	3230      	adds	r2, #48	; 0x30
     6b0:	4290      	cmp	r0, r2
     6b2:	d006      	beq.n	6c2 <chOQGetI.constprop.11+0x36>
     6b4:	6801      	ldr	r1, [r0, #0]
     6b6:	6319      	str	r1, [r3, #48]	; 0x30
     6b8:	2300      	movs	r3, #0
     6ba:	604a      	str	r2, [r1, #4]
     6bc:	6203      	str	r3, [r0, #32]
     6be:	f7ff ffa7 	bl	610 <chSchReadyI>
     6c2:	0020      	movs	r0, r4
     6c4:	bd10      	pop	{r4, pc}
     6c6:	6bda      	ldr	r2, [r3, #60]	; 0x3c
     6c8:	649a      	str	r2, [r3, #72]	; 0x48
     6ca:	e7ee      	b.n	6aa <chOQGetI.constprop.11+0x1e>
     6cc:	2a00      	cmp	r2, #0
     6ce:	d0e4      	beq.n	69a <chOQGetI.constprop.11+0xe>
     6d0:	2003      	movs	r0, #3
     6d2:	4240      	negs	r0, r0
     6d4:	e7f6      	b.n	6c4 <chOQGetI.constprop.11+0x38>
     6d6:	46c0      	nop			; (mov r8, r8)
     6d8:	1ffff608 	.word	0x1ffff608

000006dc <notify1>:
     6dc:	b510      	push	{r4, lr}
     6de:	4b0b      	ldr	r3, [pc, #44]	; (70c <notify1+0x30>)
     6e0:	6f5c      	ldr	r4, [r3, #116]	; 0x74
     6e2:	7923      	ldrb	r3, [r4, #4]
     6e4:	b25b      	sxtb	r3, r3
     6e6:	2b00      	cmp	r3, #0
     6e8:	db00      	blt.n	6ec <notify1+0x10>
     6ea:	bd10      	pop	{r4, pc}
     6ec:	f7ff ffce 	bl	68c <chOQGetI.constprop.11>
     6f0:	2800      	cmp	r0, #0
     6f2:	db06      	blt.n	702 <notify1+0x26>
     6f4:	2280      	movs	r2, #128	; 0x80
     6f6:	b2c0      	uxtb	r0, r0
     6f8:	71e0      	strb	r0, [r4, #7]
     6fa:	78e3      	ldrb	r3, [r4, #3]
     6fc:	4313      	orrs	r3, r2
     6fe:	70e3      	strb	r3, [r4, #3]
     700:	e7f3      	b.n	6ea <notify1+0xe>
     702:	2008      	movs	r0, #8
     704:	f7ff ff94 	bl	630 <chEvtBroadcastFlagsI.constprop.15>
     708:	e7ef      	b.n	6ea <notify1+0xe>
     70a:	46c0      	nop			; (mov r8, r8)
     70c:	1ffff608 	.word	0x1ffff608

00000710 <BusFault_Handler>:
     710:	b672      	cpsid	i
     712:	4b02      	ldr	r3, [pc, #8]	; (71c <BusFault_Handler+0xc>)
     714:	4a02      	ldr	r2, [pc, #8]	; (720 <BusFault_Handler+0x10>)
     716:	62da      	str	r2, [r3, #44]	; 0x2c
     718:	e7fe      	b.n	718 <BusFault_Handler+0x8>
     71a:	46c0      	nop			; (mov r8, r8)
     71c:	1ffff680 	.word	0x1ffff680
     720:	000011cc 	.word	0x000011cc

00000724 <chSchGoSleepS>:
     724:	2214      	movs	r2, #20
     726:	4b07      	ldr	r3, [pc, #28]	; (744 <chSchGoSleepS+0x20>)
     728:	b510      	push	{r4, lr}
     72a:	6999      	ldr	r1, [r3, #24]
     72c:	7708      	strb	r0, [r1, #28]
     72e:	6818      	ldr	r0, [r3, #0]
     730:	77ca      	strb	r2, [r1, #31]
     732:	6802      	ldr	r2, [r0, #0]
     734:	6053      	str	r3, [r2, #4]
     736:	601a      	str	r2, [r3, #0]
     738:	6198      	str	r0, [r3, #24]
     73a:	2301      	movs	r3, #1
     73c:	7703      	strb	r3, [r0, #28]
     73e:	f7ff fec7 	bl	4d0 <_port_switch>
     742:	bd10      	pop	{r4, pc}
     744:	1ffff680 	.word	0x1ffff680

00000748 <chSchGoSleepTimeoutS>:
     748:	b570      	push	{r4, r5, r6, lr}
     74a:	b086      	sub	sp, #24
     74c:	1c4b      	adds	r3, r1, #1
     74e:	d02e      	beq.n	7ae <chSchGoSleepTimeoutS+0x66>
     750:	4d19      	ldr	r5, [pc, #100]	; (7b8 <chSchGoSleepTimeoutS+0x70>)
     752:	ac01      	add	r4, sp, #4
     754:	69ab      	ldr	r3, [r5, #24]
     756:	6123      	str	r3, [r4, #16]
     758:	4b18      	ldr	r3, [pc, #96]	; (7bc <chSchGoSleepTimeoutS+0x74>)
     75a:	60e3      	str	r3, [r4, #12]
     75c:	69eb      	ldr	r3, [r5, #28]
     75e:	689a      	ldr	r2, [r3, #8]
     760:	4291      	cmp	r1, r2
     762:	d904      	bls.n	76e <chSchGoSleepTimeoutS+0x26>
     764:	681b      	ldr	r3, [r3, #0]
     766:	1a89      	subs	r1, r1, r2
     768:	689a      	ldr	r2, [r3, #8]
     76a:	428a      	cmp	r2, r1
     76c:	d3fa      	bcc.n	764 <chSchGoSleepTimeoutS+0x1c>
     76e:	2601      	movs	r6, #1
     770:	685a      	ldr	r2, [r3, #4]
     772:	9301      	str	r3, [sp, #4]
     774:	6062      	str	r2, [r4, #4]
     776:	6014      	str	r4, [r2, #0]
     778:	605c      	str	r4, [r3, #4]
     77a:	60a1      	str	r1, [r4, #8]
     77c:	689a      	ldr	r2, [r3, #8]
     77e:	4276      	negs	r6, r6
     780:	1a51      	subs	r1, r2, r1
     782:	6099      	str	r1, [r3, #8]
     784:	626e      	str	r6, [r5, #36]	; 0x24
     786:	f7ff ffcd 	bl	724 <chSchGoSleepS>
     78a:	9b04      	ldr	r3, [sp, #16]
     78c:	2b00      	cmp	r3, #0
     78e:	d00a      	beq.n	7a6 <chSchGoSleepTimeoutS+0x5e>
     790:	68a1      	ldr	r1, [r4, #8]
     792:	9b01      	ldr	r3, [sp, #4]
     794:	468c      	mov	ip, r1
     796:	689a      	ldr	r2, [r3, #8]
     798:	4462      	add	r2, ip
     79a:	609a      	str	r2, [r3, #8]
     79c:	6862      	ldr	r2, [r4, #4]
     79e:	6013      	str	r3, [r2, #0]
     7a0:	9b01      	ldr	r3, [sp, #4]
     7a2:	605a      	str	r2, [r3, #4]
     7a4:	626e      	str	r6, [r5, #36]	; 0x24
     7a6:	69ab      	ldr	r3, [r5, #24]
     7a8:	6a18      	ldr	r0, [r3, #32]
     7aa:	b006      	add	sp, #24
     7ac:	bd70      	pop	{r4, r5, r6, pc}
     7ae:	f7ff ffb9 	bl	724 <chSchGoSleepS>
     7b2:	4d01      	ldr	r5, [pc, #4]	; (7b8 <chSchGoSleepTimeoutS+0x70>)
     7b4:	e7f7      	b.n	7a6 <chSchGoSleepTimeoutS+0x5e>
     7b6:	46c0      	nop			; (mov r8, r8)
     7b8:	1ffff680 	.word	0x1ffff680
     7bc:	000005b9 	.word	0x000005b9

000007c0 <chThdEnqueueTimeoutS>:
     7c0:	b510      	push	{r4, lr}
     7c2:	2900      	cmp	r1, #0
     7c4:	d00a      	beq.n	7dc <chThdEnqueueTimeoutS+0x1c>
     7c6:	4b07      	ldr	r3, [pc, #28]	; (7e4 <chThdEnqueueTimeoutS+0x24>)
     7c8:	699b      	ldr	r3, [r3, #24]
     7ca:	6018      	str	r0, [r3, #0]
     7cc:	6842      	ldr	r2, [r0, #4]
     7ce:	605a      	str	r2, [r3, #4]
     7d0:	6013      	str	r3, [r2, #0]
     7d2:	6043      	str	r3, [r0, #4]
     7d4:	2004      	movs	r0, #4
     7d6:	f7ff ffb7 	bl	748 <chSchGoSleepTimeoutS>
     7da:	bd10      	pop	{r4, pc}
     7dc:	2001      	movs	r0, #1
     7de:	4240      	negs	r0, r0
     7e0:	e7fb      	b.n	7da <chThdEnqueueTimeoutS+0x1a>
     7e2:	46c0      	nop			; (mov r8, r8)
     7e4:	1ffff680 	.word	0x1ffff680

000007e8 <chOQWriteTimeout>:
     7e8:	b5f0      	push	{r4, r5, r6, r7, lr}
     7ea:	464f      	mov	r7, r9
     7ec:	4646      	mov	r6, r8
     7ee:	46d6      	mov	lr, sl
     7f0:	4699      	mov	r9, r3
     7f2:	69c3      	ldr	r3, [r0, #28]
     7f4:	b5c0      	push	{r6, r7, lr}
     7f6:	0004      	movs	r4, r0
     7f8:	000e      	movs	r6, r1
     7fa:	0015      	movs	r5, r2
     7fc:	4698      	mov	r8, r3
     7fe:	b672      	cpsid	i
     800:	2700      	movs	r7, #0
     802:	68a3      	ldr	r3, [r4, #8]
     804:	2b00      	cmp	r3, #0
     806:	d01d      	beq.n	844 <chOQWriteTimeout+0x5c>
     808:	3b01      	subs	r3, #1
     80a:	60a3      	str	r3, [r4, #8]
     80c:	1c73      	adds	r3, r6, #1
     80e:	469a      	mov	sl, r3
     810:	6963      	ldr	r3, [r4, #20]
     812:	1c5a      	adds	r2, r3, #1
     814:	6162      	str	r2, [r4, #20]
     816:	7832      	ldrb	r2, [r6, #0]
     818:	701a      	strb	r2, [r3, #0]
     81a:	6963      	ldr	r3, [r4, #20]
     81c:	6922      	ldr	r2, [r4, #16]
     81e:	4293      	cmp	r3, r2
     820:	d301      	bcc.n	826 <chOQWriteTimeout+0x3e>
     822:	68e3      	ldr	r3, [r4, #12]
     824:	6163      	str	r3, [r4, #20]
     826:	4643      	mov	r3, r8
     828:	2b00      	cmp	r3, #0
     82a:	d001      	beq.n	830 <chOQWriteTimeout+0x48>
     82c:	0020      	movs	r0, r4
     82e:	47c0      	blx	r8
     830:	b662      	cpsie	i
     832:	3d01      	subs	r5, #1
     834:	3701      	adds	r7, #1
     836:	2d00      	cmp	r5, #0
     838:	d00b      	beq.n	852 <chOQWriteTimeout+0x6a>
     83a:	b672      	cpsid	i
     83c:	68a3      	ldr	r3, [r4, #8]
     83e:	4656      	mov	r6, sl
     840:	2b00      	cmp	r3, #0
     842:	d1e1      	bne.n	808 <chOQWriteTimeout+0x20>
     844:	4649      	mov	r1, r9
     846:	0020      	movs	r0, r4
     848:	f7ff ffba 	bl	7c0 <chThdEnqueueTimeoutS>
     84c:	2800      	cmp	r0, #0
     84e:	d0d8      	beq.n	802 <chOQWriteTimeout+0x1a>
     850:	b662      	cpsie	i
     852:	0038      	movs	r0, r7
     854:	bc1c      	pop	{r2, r3, r4}
     856:	4690      	mov	r8, r2
     858:	4699      	mov	r9, r3
     85a:	46a2      	mov	sl, r4
     85c:	bdf0      	pop	{r4, r5, r6, r7, pc}
     85e:	46c0      	nop			; (mov r8, r8)

00000860 <writet>:
     860:	b510      	push	{r4, lr}
     862:	3030      	adds	r0, #48	; 0x30
     864:	f7ff ffc0 	bl	7e8 <chOQWriteTimeout>
     868:	bd10      	pop	{r4, pc}
     86a:	46c0      	nop			; (mov r8, r8)

0000086c <write>:
     86c:	2301      	movs	r3, #1
     86e:	b510      	push	{r4, lr}
     870:	3030      	adds	r0, #48	; 0x30
     872:	425b      	negs	r3, r3
     874:	f7ff ffb8 	bl	7e8 <chOQWriteTimeout>
     878:	bd10      	pop	{r4, pc}
     87a:	46c0      	nop			; (mov r8, r8)

0000087c <chOQPutTimeout>:
     87c:	b570      	push	{r4, r5, r6, lr}
     87e:	0004      	movs	r4, r0
     880:	000e      	movs	r6, r1
     882:	0015      	movs	r5, r2
     884:	b672      	cpsid	i
     886:	e005      	b.n	894 <chOQPutTimeout+0x18>
     888:	0029      	movs	r1, r5
     88a:	0020      	movs	r0, r4
     88c:	f7ff ff98 	bl	7c0 <chThdEnqueueTimeoutS>
     890:	2800      	cmp	r0, #0
     892:	db16      	blt.n	8c2 <chOQPutTimeout+0x46>
     894:	68a3      	ldr	r3, [r4, #8]
     896:	2b00      	cmp	r3, #0
     898:	d0f6      	beq.n	888 <chOQPutTimeout+0xc>
     89a:	3b01      	subs	r3, #1
     89c:	60a3      	str	r3, [r4, #8]
     89e:	6963      	ldr	r3, [r4, #20]
     8a0:	1c5a      	adds	r2, r3, #1
     8a2:	6162      	str	r2, [r4, #20]
     8a4:	701e      	strb	r6, [r3, #0]
     8a6:	6963      	ldr	r3, [r4, #20]
     8a8:	6922      	ldr	r2, [r4, #16]
     8aa:	4293      	cmp	r3, r2
     8ac:	d301      	bcc.n	8b2 <chOQPutTimeout+0x36>
     8ae:	68e3      	ldr	r3, [r4, #12]
     8b0:	6163      	str	r3, [r4, #20]
     8b2:	69e3      	ldr	r3, [r4, #28]
     8b4:	2b00      	cmp	r3, #0
     8b6:	d001      	beq.n	8bc <chOQPutTimeout+0x40>
     8b8:	0020      	movs	r0, r4
     8ba:	4798      	blx	r3
     8bc:	b662      	cpsie	i
     8be:	2000      	movs	r0, #0
     8c0:	bd70      	pop	{r4, r5, r6, pc}
     8c2:	b662      	cpsie	i
     8c4:	e7fc      	b.n	8c0 <chOQPutTimeout+0x44>
     8c6:	46c0      	nop			; (mov r8, r8)

000008c8 <putt>:
     8c8:	b510      	push	{r4, lr}
     8ca:	3030      	adds	r0, #48	; 0x30
     8cc:	f7ff ffd6 	bl	87c <chOQPutTimeout>
     8d0:	bd10      	pop	{r4, pc}
     8d2:	46c0      	nop			; (mov r8, r8)

000008d4 <put>:
     8d4:	2201      	movs	r2, #1
     8d6:	b510      	push	{r4, lr}
     8d8:	3030      	adds	r0, #48	; 0x30
     8da:	4252      	negs	r2, r2
     8dc:	f7ff ffce 	bl	87c <chOQPutTimeout>
     8e0:	bd10      	pop	{r4, pc}
     8e2:	46c0      	nop			; (mov r8, r8)

000008e4 <chIQReadTimeout>:
     8e4:	b5f8      	push	{r3, r4, r5, r6, r7, lr}
     8e6:	46ce      	mov	lr, r9
     8e8:	4647      	mov	r7, r8
     8ea:	0004      	movs	r4, r0
     8ec:	b580      	push	{r7, lr}
     8ee:	4689      	mov	r9, r1
     8f0:	4690      	mov	r8, r2
     8f2:	001d      	movs	r5, r3
     8f4:	69c7      	ldr	r7, [r0, #28]
     8f6:	b672      	cpsid	i
     8f8:	2600      	movs	r6, #0
     8fa:	2f00      	cmp	r7, #0
     8fc:	d008      	beq.n	910 <chIQReadTimeout+0x2c>
     8fe:	0020      	movs	r0, r4
     900:	47b8      	blx	r7
     902:	e005      	b.n	910 <chIQReadTimeout+0x2c>
     904:	0029      	movs	r1, r5
     906:	0020      	movs	r0, r4
     908:	f7ff ff5a 	bl	7c0 <chThdEnqueueTimeoutS>
     90c:	2800      	cmp	r0, #0
     90e:	d116      	bne.n	93e <chIQReadTimeout+0x5a>
     910:	68a3      	ldr	r3, [r4, #8]
     912:	2b00      	cmp	r3, #0
     914:	d0f6      	beq.n	904 <chIQReadTimeout+0x20>
     916:	3b01      	subs	r3, #1
     918:	60a3      	str	r3, [r4, #8]
     91a:	69a3      	ldr	r3, [r4, #24]
     91c:	1c5a      	adds	r2, r3, #1
     91e:	61a2      	str	r2, [r4, #24]
     920:	464a      	mov	r2, r9
     922:	781b      	ldrb	r3, [r3, #0]
     924:	5593      	strb	r3, [r2, r6]
     926:	69a3      	ldr	r3, [r4, #24]
     928:	6922      	ldr	r2, [r4, #16]
     92a:	4293      	cmp	r3, r2
     92c:	d301      	bcc.n	932 <chIQReadTimeout+0x4e>
     92e:	68e3      	ldr	r3, [r4, #12]
     930:	61a3      	str	r3, [r4, #24]
     932:	b662      	cpsie	i
     934:	3601      	adds	r6, #1
     936:	45b0      	cmp	r8, r6
     938:	d002      	beq.n	940 <chIQReadTimeout+0x5c>
     93a:	b672      	cpsid	i
     93c:	e7dd      	b.n	8fa <chIQReadTimeout+0x16>
     93e:	b662      	cpsie	i
     940:	0030      	movs	r0, r6
     942:	bc0c      	pop	{r2, r3}
     944:	4690      	mov	r8, r2
     946:	4699      	mov	r9, r3
     948:	bdf8      	pop	{r3, r4, r5, r6, r7, pc}
     94a:	46c0      	nop			; (mov r8, r8)

0000094c <readt>:
     94c:	b510      	push	{r4, lr}
     94e:	300c      	adds	r0, #12
     950:	f7ff ffc8 	bl	8e4 <chIQReadTimeout>
     954:	bd10      	pop	{r4, pc}
     956:	46c0      	nop			; (mov r8, r8)

00000958 <read>:
     958:	2301      	movs	r3, #1
     95a:	b510      	push	{r4, lr}
     95c:	300c      	adds	r0, #12
     95e:	425b      	negs	r3, r3
     960:	f7ff ffc0 	bl	8e4 <chIQReadTimeout>
     964:	bd10      	pop	{r4, pc}
     966:	46c0      	nop			; (mov r8, r8)

00000968 <chIQGetTimeout>:
     968:	b570      	push	{r4, r5, r6, lr}
     96a:	0004      	movs	r4, r0
     96c:	000d      	movs	r5, r1
     96e:	b672      	cpsid	i
     970:	69c3      	ldr	r3, [r0, #28]
     972:	2b00      	cmp	r3, #0
     974:	d007      	beq.n	986 <chIQGetTimeout+0x1e>
     976:	4798      	blx	r3
     978:	e005      	b.n	986 <chIQGetTimeout+0x1e>
     97a:	0029      	movs	r1, r5
     97c:	0020      	movs	r0, r4
     97e:	f7ff ff1f 	bl	7c0 <chThdEnqueueTimeoutS>
     982:	2800      	cmp	r0, #0
     984:	db0d      	blt.n	9a2 <chIQGetTimeout+0x3a>
     986:	68a3      	ldr	r3, [r4, #8]
     988:	2b00      	cmp	r3, #0
     98a:	d0f6      	beq.n	97a <chIQGetTimeout+0x12>
     98c:	69a2      	ldr	r2, [r4, #24]
     98e:	3b01      	subs	r3, #1
     990:	60a3      	str	r3, [r4, #8]
     992:	1c53      	adds	r3, r2, #1
     994:	61a3      	str	r3, [r4, #24]
     996:	7810      	ldrb	r0, [r2, #0]
     998:	6922      	ldr	r2, [r4, #16]
     99a:	4293      	cmp	r3, r2
     99c:	d301      	bcc.n	9a2 <chIQGetTimeout+0x3a>
     99e:	68e3      	ldr	r3, [r4, #12]
     9a0:	61a3      	str	r3, [r4, #24]
     9a2:	b662      	cpsie	i
     9a4:	bd70      	pop	{r4, r5, r6, pc}
     9a6:	46c0      	nop			; (mov r8, r8)

000009a8 <gett>:
     9a8:	b510      	push	{r4, lr}
     9aa:	300c      	adds	r0, #12
     9ac:	f7ff ffdc 	bl	968 <chIQGetTimeout>
     9b0:	bd10      	pop	{r4, pc}
     9b2:	46c0      	nop			; (mov r8, r8)

000009b4 <get>:
     9b4:	2101      	movs	r1, #1
     9b6:	b510      	push	{r4, lr}
     9b8:	300c      	adds	r0, #12
     9ba:	4249      	negs	r1, r1
     9bc:	f7ff ffd4 	bl	968 <chIQGetTimeout>
     9c0:	bd10      	pop	{r4, pc}
     9c2:	46c0      	nop			; (mov r8, r8)

000009c4 <SysTick_Handler>:
     9c4:	b5f8      	push	{r3, r4, r5, r6, r7, lr}
     9c6:	4677      	mov	r7, lr
     9c8:	b672      	cpsid	i
     9ca:	4c14      	ldr	r4, [pc, #80]	; (a1c <SysTick_Handler+0x58>)
     9cc:	69a2      	ldr	r2, [r4, #24]
     9ce:	7fd3      	ldrb	r3, [r2, #31]
     9d0:	2b00      	cmp	r3, #0
     9d2:	d001      	beq.n	9d8 <SysTick_Handler+0x14>
     9d4:	3b01      	subs	r3, #1
     9d6:	77d3      	strb	r3, [r2, #31]
     9d8:	0025      	movs	r5, r4
     9da:	6aa3      	ldr	r3, [r4, #40]	; 0x28
     9dc:	351c      	adds	r5, #28
     9de:	3301      	adds	r3, #1
     9e0:	62a3      	str	r3, [r4, #40]	; 0x28
     9e2:	69e3      	ldr	r3, [r4, #28]
     9e4:	42ab      	cmp	r3, r5
     9e6:	d012      	beq.n	a0e <SysTick_Handler+0x4a>
     9e8:	689a      	ldr	r2, [r3, #8]
     9ea:	3a01      	subs	r2, #1
     9ec:	609a      	str	r2, [r3, #8]
     9ee:	2a00      	cmp	r2, #0
     9f0:	d10d      	bne.n	a0e <SysTick_Handler+0x4a>
     9f2:	2600      	movs	r6, #0
     9f4:	681a      	ldr	r2, [r3, #0]
     9f6:	68d9      	ldr	r1, [r3, #12]
     9f8:	60de      	str	r6, [r3, #12]
     9fa:	6055      	str	r5, [r2, #4]
     9fc:	61e2      	str	r2, [r4, #28]
     9fe:	b662      	cpsie	i
     a00:	6918      	ldr	r0, [r3, #16]
     a02:	4788      	blx	r1
     a04:	b672      	cpsid	i
     a06:	69e3      	ldr	r3, [r4, #28]
     a08:	689a      	ldr	r2, [r3, #8]
     a0a:	2a00      	cmp	r2, #0
     a0c:	d0f2      	beq.n	9f4 <SysTick_Handler+0x30>
     a0e:	b662      	cpsie	i
     a10:	370f      	adds	r7, #15
     a12:	d001      	beq.n	a18 <SysTick_Handler+0x54>
     a14:	f7ff fd9c 	bl	550 <_port_irq_epilogue.part.0>
     a18:	bdf8      	pop	{r3, r4, r5, r6, r7, pc}
     a1a:	46c0      	nop			; (mov r8, r8)
     a1c:	1ffff680 	.word	0x1ffff680

00000a20 <VectorBC>:
     a20:	2101      	movs	r1, #1
     a22:	b5f8      	push	{r3, r4, r5, r6, r7, lr}
     a24:	4647      	mov	r7, r8
     a26:	23a0      	movs	r3, #160	; 0xa0
     a28:	46ce      	mov	lr, r9
     a2a:	4a12      	ldr	r2, [pc, #72]	; (a74 <VectorBC+0x54>)
     a2c:	4249      	negs	r1, r1
     a2e:	b580      	push	{r7, lr}
     a30:	58d7      	ldr	r7, [r2, r3]
     a32:	50d1      	str	r1, [r2, r3]
     a34:	4b10      	ldr	r3, [pc, #64]	; (a78 <VectorBC+0x58>)
     a36:	46f1      	mov	r9, lr
     a38:	2400      	movs	r4, #0
     a3a:	2601      	movs	r6, #1
     a3c:	4698      	mov	r8, r3
     a3e:	4d0f      	ldr	r5, [pc, #60]	; (a7c <VectorBC+0x5c>)
     a40:	0033      	movs	r3, r6
     a42:	40a3      	lsls	r3, r4
     a44:	421f      	tst	r7, r3
     a46:	d008      	beq.n	a5a <VectorBC+0x3a>
     a48:	4643      	mov	r3, r8
     a4a:	686a      	ldr	r2, [r5, #4]
     a4c:	5ce1      	ldrb	r1, [r4, r3]
     a4e:	4694      	mov	ip, r2
     a50:	010b      	lsls	r3, r1, #4
     a52:	4463      	add	r3, ip
     a54:	685b      	ldr	r3, [r3, #4]
     a56:	0028      	movs	r0, r5
     a58:	4798      	blx	r3
     a5a:	3401      	adds	r4, #1
     a5c:	2c08      	cmp	r4, #8
     a5e:	d1ef      	bne.n	a40 <VectorBC+0x20>
     a60:	464b      	mov	r3, r9
     a62:	330f      	adds	r3, #15
     a64:	d001      	beq.n	a6a <VectorBC+0x4a>
     a66:	f7ff fd73 	bl	550 <_port_irq_epilogue.part.0>
     a6a:	bc0c      	pop	{r2, r3}
     a6c:	4690      	mov	r8, r2
     a6e:	4699      	mov	r9, r3
     a70:	bdf8      	pop	{r3, r4, r5, r6, r7, pc}
     a72:	46c0      	nop			; (mov r8, r8)
     a74:	4004c000 	.word	0x4004c000
     a78:	1ffff810 	.word	0x1ffff810
     a7c:	1ffff600 	.word	0x1ffff600

00000a80 <VectorB8>:
     a80:	2101      	movs	r1, #1
     a82:	b5f8      	push	{r3, r4, r5, r6, r7, lr}
     a84:	4647      	mov	r7, r8
     a86:	23a0      	movs	r3, #160	; 0xa0
     a88:	46ce      	mov	lr, r9
     a8a:	4a12      	ldr	r2, [pc, #72]	; (ad4 <VectorB8+0x54>)
     a8c:	4249      	negs	r1, r1
     a8e:	b580      	push	{r7, lr}
     a90:	58d7      	ldr	r7, [r2, r3]
     a92:	50d1      	str	r1, [r2, r3]
     a94:	4b10      	ldr	r3, [pc, #64]	; (ad8 <VectorB8+0x58>)
     a96:	46f1      	mov	r9, lr
     a98:	2400      	movs	r4, #0
     a9a:	2601      	movs	r6, #1
     a9c:	4698      	mov	r8, r3
     a9e:	4d0f      	ldr	r5, [pc, #60]	; (adc <VectorB8+0x5c>)
     aa0:	0033      	movs	r3, r6
     aa2:	40a3      	lsls	r3, r4
     aa4:	421f      	tst	r7, r3
     aa6:	d008      	beq.n	aba <VectorB8+0x3a>
     aa8:	4643      	mov	r3, r8
     aaa:	686a      	ldr	r2, [r5, #4]
     aac:	5ce1      	ldrb	r1, [r4, r3]
     aae:	4694      	mov	ip, r2
     ab0:	010b      	lsls	r3, r1, #4
     ab2:	4463      	add	r3, ip
     ab4:	685b      	ldr	r3, [r3, #4]
     ab6:	0028      	movs	r0, r5
     ab8:	4798      	blx	r3
     aba:	3401      	adds	r4, #1
     abc:	2c15      	cmp	r4, #21
     abe:	d1ef      	bne.n	aa0 <VectorB8+0x20>
     ac0:	464b      	mov	r3, r9
     ac2:	330f      	adds	r3, #15
     ac4:	d001      	beq.n	aca <VectorB8+0x4a>
     ac6:	f7ff fd43 	bl	550 <_port_irq_epilogue.part.0>
     aca:	bc0c      	pop	{r2, r3}
     acc:	4690      	mov	r8, r2
     ace:	4699      	mov	r9, r3
     ad0:	bdf8      	pop	{r3, r4, r5, r6, r7, pc}
     ad2:	46c0      	nop			; (mov r8, r8)
     ad4:	40049000 	.word	0x40049000
     ad8:	1ffff7f8 	.word	0x1ffff7f8
     adc:	1ffff600 	.word	0x1ffff600

00000ae0 <Vector70>:
     ae0:	b570      	push	{r4, r5, r6, lr}
     ae2:	4c30      	ldr	r4, [pc, #192]	; (ba4 <Vector70+0xc4>)
     ae4:	4676      	mov	r6, lr
     ae6:	6f65      	ldr	r5, [r4, #116]	; 0x74
     ae8:	792b      	ldrb	r3, [r5, #4]
     aea:	069b      	lsls	r3, r3, #26
     aec:	d521      	bpl.n	b32 <Vector70+0x52>
     aee:	b672      	cpsid	i
     af0:	6963      	ldr	r3, [r4, #20]
     af2:	2b00      	cmp	r3, #0
     af4:	d039      	beq.n	b6a <Vector70+0x8a>
     af6:	79ea      	ldrb	r2, [r5, #7]
     af8:	6a21      	ldr	r1, [r4, #32]
     afa:	6a60      	ldr	r0, [r4, #36]	; 0x24
     afc:	b2d2      	uxtb	r2, r2
     afe:	4288      	cmp	r0, r1
     b00:	d041      	beq.n	b86 <Vector70+0xa6>
     b02:	3301      	adds	r3, #1
     b04:	6163      	str	r3, [r4, #20]
     b06:	1c4b      	adds	r3, r1, #1
     b08:	6223      	str	r3, [r4, #32]
     b0a:	700a      	strb	r2, [r1, #0]
     b0c:	6a23      	ldr	r3, [r4, #32]
     b0e:	69e2      	ldr	r2, [r4, #28]
     b10:	4293      	cmp	r3, r2
     b12:	d301      	bcc.n	b18 <Vector70+0x38>
     b14:	69a3      	ldr	r3, [r4, #24]
     b16:	6223      	str	r3, [r4, #32]
     b18:	0023      	movs	r3, r4
     b1a:	68e0      	ldr	r0, [r4, #12]
     b1c:	330c      	adds	r3, #12
     b1e:	4298      	cmp	r0, r3
     b20:	d006      	beq.n	b30 <Vector70+0x50>
     b22:	6802      	ldr	r2, [r0, #0]
     b24:	60e2      	str	r2, [r4, #12]
     b26:	6053      	str	r3, [r2, #4]
     b28:	2300      	movs	r3, #0
     b2a:	6203      	str	r3, [r0, #32]
     b2c:	f7ff fd70 	bl	610 <chSchReadyI>
     b30:	b662      	cpsie	i
     b32:	792b      	ldrb	r3, [r5, #4]
     b34:	b25b      	sxtb	r3, r3
     b36:	2b00      	cmp	r3, #0
     b38:	db0e      	blt.n	b58 <Vector70+0x78>
     b3a:	2310      	movs	r3, #16
     b3c:	792a      	ldrb	r2, [r5, #4]
     b3e:	4213      	tst	r3, r2
     b40:	d000      	beq.n	b44 <Vector70+0x64>
     b42:	712b      	strb	r3, [r5, #4]
     b44:	230f      	movs	r3, #15
     b46:	792a      	ldrb	r2, [r5, #4]
     b48:	4213      	tst	r3, r2
     b4a:	d000      	beq.n	b4e <Vector70+0x6e>
     b4c:	712b      	strb	r3, [r5, #4]
     b4e:	360f      	adds	r6, #15
     b50:	d001      	beq.n	b56 <Vector70+0x76>
     b52:	f7ff fcfd 	bl	550 <_port_irq_epilogue.part.0>
     b56:	bd70      	pop	{r4, r5, r6, pc}
     b58:	b672      	cpsid	i
     b5a:	f7ff fd97 	bl	68c <chOQGetI.constprop.11>
     b5e:	b662      	cpsie	i
     b60:	2800      	cmp	r0, #0
     b62:	db14      	blt.n	b8e <Vector70+0xae>
     b64:	b2c0      	uxtb	r0, r0
     b66:	71e8      	strb	r0, [r5, #7]
     b68:	e7e7      	b.n	b3a <Vector70+0x5a>
     b6a:	2004      	movs	r0, #4
     b6c:	f7ff fd60 	bl	630 <chEvtBroadcastFlagsI.constprop.15>
     b70:	79ea      	ldrb	r2, [r5, #7]
     b72:	6a21      	ldr	r1, [r4, #32]
     b74:	6a63      	ldr	r3, [r4, #36]	; 0x24
     b76:	b2d2      	uxtb	r2, r2
     b78:	4299      	cmp	r1, r3
     b7a:	d001      	beq.n	b80 <Vector70+0xa0>
     b7c:	6963      	ldr	r3, [r4, #20]
     b7e:	e7c0      	b.n	b02 <Vector70+0x22>
     b80:	6963      	ldr	r3, [r4, #20]
     b82:	2b00      	cmp	r3, #0
     b84:	d0bd      	beq.n	b02 <Vector70+0x22>
     b86:	2080      	movs	r0, #128	; 0x80
     b88:	f7ff fd52 	bl	630 <chEvtBroadcastFlagsI.constprop.15>
     b8c:	e7d0      	b.n	b30 <Vector70+0x50>
     b8e:	b672      	cpsid	i
     b90:	2008      	movs	r0, #8
     b92:	f7ff fd4d 	bl	630 <chEvtBroadcastFlagsI.constprop.15>
     b96:	b662      	cpsie	i
     b98:	237f      	movs	r3, #127	; 0x7f
     b9a:	78ea      	ldrb	r2, [r5, #3]
     b9c:	4013      	ands	r3, r2
     b9e:	70eb      	strb	r3, [r5, #3]
     ba0:	e7cb      	b.n	b3a <Vector70+0x5a>
     ba2:	46c0      	nop			; (mov r8, r8)
     ba4:	1ffff608 	.word	0x1ffff608

00000ba8 <main>:
     ba8:	23f8      	movs	r3, #248	; 0xf8
     baa:	b5f0      	push	{r4, r5, r6, r7, lr}
     bac:	4657      	mov	r7, sl
     bae:	4645      	mov	r5, r8
     bb0:	464e      	mov	r6, r9
     bb2:	46de      	mov	lr, fp
     bb4:	4ac7      	ldr	r2, [pc, #796]	; (ed4 <main+0x32c>)
     bb6:	49c8      	ldr	r1, [pc, #800]	; (ed8 <main+0x330>)
     bb8:	019b      	lsls	r3, r3, #6
     bba:	5888      	ldr	r0, [r1, r2]
     bbc:	b5e0      	push	{r5, r6, r7, lr}
     bbe:	4303      	orrs	r3, r0
     bc0:	508b      	str	r3, [r1, r2]
     bc2:	23b4      	movs	r3, #180	; 0xb4
     bc4:	4698      	mov	r8, r3
     bc6:	334c      	adds	r3, #76	; 0x4c
     bc8:	469c      	mov	ip, r3
     bca:	23e0      	movs	r3, #224	; 0xe0
     bcc:	00db      	lsls	r3, r3, #3
     bce:	4699      	mov	r9, r3
     bd0:	3b01      	subs	r3, #1
     bd2:	3bff      	subs	r3, #255	; 0xff
     bd4:	2716      	movs	r7, #22
     bd6:	469a      	mov	sl, r3
     bd8:	48c0      	ldr	r0, [pc, #768]	; (edc <main+0x334>)
     bda:	4ac1      	ldr	r2, [pc, #772]	; (ee0 <main+0x338>)
     bdc:	4dc1      	ldr	r5, [pc, #772]	; (ee4 <main+0x33c>)
     bde:	b083      	sub	sp, #12
     be0:	4480      	add	r8, r0
     be2:	49c1      	ldr	r1, [pc, #772]	; (ee8 <main+0x340>)
     be4:	2300      	movs	r3, #0
     be6:	1856      	adds	r6, r2, r1
     be8:	4271      	negs	r1, r6
     bea:	414e      	adcs	r6, r1
     bec:	2401      	movs	r4, #1
     bee:	4271      	negs	r1, r6
     bf0:	9101      	str	r1, [sp, #4]
     bf2:	0026      	movs	r6, r4
     bf4:	6951      	ldr	r1, [r2, #20]
     bf6:	409e      	lsls	r6, r3
     bf8:	2f06      	cmp	r7, #6
     bfa:	d015      	beq.n	c28 <main+0x80>
     bfc:	43b1      	bics	r1, r6
     bfe:	6151      	str	r1, [r2, #20]
     c00:	49b7      	ldr	r1, [pc, #732]	; (ee0 <main+0x338>)
     c02:	428a      	cmp	r2, r1
     c04:	d054      	beq.n	cb0 <main+0x108>
     c06:	49b9      	ldr	r1, [pc, #740]	; (eec <main+0x344>)
     c08:	428a      	cmp	r2, r1
     c0a:	d053      	beq.n	cb4 <main+0x10c>
     c0c:	49b8      	ldr	r1, [pc, #736]	; (ef0 <main+0x348>)
     c0e:	428a      	cmp	r2, r1
     c10:	d052      	beq.n	cb8 <main+0x110>
     c12:	49b8      	ldr	r1, [pc, #736]	; (ef4 <main+0x34c>)
     c14:	428a      	cmp	r2, r1
     c16:	d051      	beq.n	cbc <main+0x114>
     c18:	49b7      	ldr	r1, [pc, #732]	; (ef8 <main+0x350>)
     c1a:	9e01      	ldr	r6, [sp, #4]
     c1c:	4031      	ands	r1, r6
     c1e:	2f16      	cmp	r7, #22
     c20:	d80e      	bhi.n	c40 <main+0x98>
     c22:	00bf      	lsls	r7, r7, #2
     c24:	59ef      	ldr	r7, [r5, r7]
     c26:	46bf      	mov	pc, r7
     c28:	4331      	orrs	r1, r6
     c2a:	6151      	str	r1, [r2, #20]
     c2c:	49ac      	ldr	r1, [pc, #688]	; (ee0 <main+0x338>)
     c2e:	428a      	cmp	r2, r1
     c30:	d046      	beq.n	cc0 <main+0x118>
     c32:	49ae      	ldr	r1, [pc, #696]	; (eec <main+0x344>)
     c34:	428a      	cmp	r2, r1
     c36:	d1e9      	bne.n	c0c <main+0x64>
     c38:	49b0      	ldr	r1, [pc, #704]	; (efc <main+0x354>)
     c3a:	4666      	mov	r6, ip
     c3c:	009f      	lsls	r7, r3, #2
     c3e:	507e      	str	r6, [r7, r1]
     c40:	3301      	adds	r3, #1
     c42:	2b20      	cmp	r3, #32
     c44:	d009      	beq.n	c5a <main+0xb2>
     c46:	18c1      	adds	r1, r0, r3
     c48:	790f      	ldrb	r7, [r1, #4]
     c4a:	e7d2      	b.n	bf2 <main+0x4a>
     c4c:	2681      	movs	r6, #129	; 0x81
     c4e:	009f      	lsls	r7, r3, #2
     c50:	0076      	lsls	r6, r6, #1
     c52:	3301      	adds	r3, #1
     c54:	507e      	str	r6, [r7, r1]
     c56:	2b20      	cmp	r3, #32
     c58:	d1f5      	bne.n	c46 <main+0x9e>
     c5a:	3024      	adds	r0, #36	; 0x24
     c5c:	4540      	cmp	r0, r8
     c5e:	d031      	beq.n	cc4 <main+0x11c>
     c60:	6802      	ldr	r2, [r0, #0]
     c62:	7907      	ldrb	r7, [r0, #4]
     c64:	e7bd      	b.n	be2 <main+0x3a>
     c66:	464e      	mov	r6, r9
     c68:	009f      	lsls	r7, r3, #2
     c6a:	507e      	str	r6, [r7, r1]
     c6c:	e7e8      	b.n	c40 <main+0x98>
     c6e:	2604      	movs	r6, #4
     c70:	009f      	lsls	r7, r3, #2
     c72:	36ff      	adds	r6, #255	; 0xff
     c74:	507e      	str	r6, [r7, r1]
     c76:	e7e3      	b.n	c40 <main+0x98>
     c78:	2600      	movs	r6, #0
     c7a:	009f      	lsls	r7, r3, #2
     c7c:	507e      	str	r6, [r7, r1]
     c7e:	e7df      	b.n	c40 <main+0x98>
     c80:	4656      	mov	r6, sl
     c82:	009f      	lsls	r7, r3, #2
     c84:	507e      	str	r6, [r7, r1]
     c86:	e7db      	b.n	c40 <main+0x98>
     c88:	26a0      	movs	r6, #160	; 0xa0
     c8a:	009f      	lsls	r7, r3, #2
     c8c:	00f6      	lsls	r6, r6, #3
     c8e:	507e      	str	r6, [r7, r1]
     c90:	e7d6      	b.n	c40 <main+0x98>
     c92:	2680      	movs	r6, #128	; 0x80
     c94:	009f      	lsls	r7, r3, #2
     c96:	00f6      	lsls	r6, r6, #3
     c98:	507e      	str	r6, [r7, r1]
     c9a:	e7d1      	b.n	c40 <main+0x98>
     c9c:	26c0      	movs	r6, #192	; 0xc0
     c9e:	009f      	lsls	r7, r3, #2
     ca0:	00b6      	lsls	r6, r6, #2
     ca2:	507e      	str	r6, [r7, r1]
     ca4:	e7cc      	b.n	c40 <main+0x98>
     ca6:	2680      	movs	r6, #128	; 0x80
     ca8:	009f      	lsls	r7, r3, #2
     caa:	00b6      	lsls	r6, r6, #2
     cac:	507e      	str	r6, [r7, r1]
     cae:	e7c7      	b.n	c40 <main+0x98>
     cb0:	4993      	ldr	r1, [pc, #588]	; (f00 <main+0x358>)
     cb2:	e7b4      	b.n	c1e <main+0x76>
     cb4:	4991      	ldr	r1, [pc, #580]	; (efc <main+0x354>)
     cb6:	e7b2      	b.n	c1e <main+0x76>
     cb8:	4992      	ldr	r1, [pc, #584]	; (f04 <main+0x35c>)
     cba:	e7b0      	b.n	c1e <main+0x76>
     cbc:	4992      	ldr	r1, [pc, #584]	; (f08 <main+0x360>)
     cbe:	e7ae      	b.n	c1e <main+0x76>
     cc0:	498f      	ldr	r1, [pc, #572]	; (f00 <main+0x358>)
     cc2:	e7ba      	b.n	c3a <main+0x92>
     cc4:	4a91      	ldr	r2, [pc, #580]	; (f0c <main+0x364>)
     cc6:	4892      	ldr	r0, [pc, #584]	; (f10 <main+0x368>)
     cc8:	0013      	movs	r3, r2
     cca:	c301      	stmia	r3!, {r0}
     ccc:	6053      	str	r3, [r2, #4]
     cce:	0013      	movs	r3, r2
     cd0:	330c      	adds	r3, #12
     cd2:	60d3      	str	r3, [r2, #12]
     cd4:	6113      	str	r3, [r2, #16]
     cd6:	0013      	movs	r3, r2
     cd8:	3354      	adds	r3, #84	; 0x54
     cda:	6193      	str	r3, [r2, #24]
     cdc:	6253      	str	r3, [r2, #36]	; 0x24
     cde:	6213      	str	r3, [r2, #32]
     ce0:	0013      	movs	r3, r2
     ce2:	0010      	movs	r0, r2
     ce4:	3364      	adds	r3, #100	; 0x64
     ce6:	61d3      	str	r3, [r2, #28]
     ce8:	63d3      	str	r3, [r2, #60]	; 0x3c
     cea:	6493      	str	r3, [r2, #72]	; 0x48
     cec:	6453      	str	r3, [r2, #68]	; 0x44
     cee:	0013      	movs	r3, r2
     cf0:	3030      	adds	r0, #48	; 0x30
     cf2:	6310      	str	r0, [r2, #48]	; 0x30
     cf4:	6350      	str	r0, [r2, #52]	; 0x34
     cf6:	2010      	movs	r0, #16
     cf8:	2100      	movs	r1, #0
     cfa:	2501      	movs	r5, #1
     cfc:	3374      	adds	r3, #116	; 0x74
     cfe:	6413      	str	r3, [r2, #64]	; 0x40
     d00:	4b84      	ldr	r3, [pc, #528]	; (f14 <main+0x36c>)
     d02:	6390      	str	r0, [r2, #56]	; 0x38
     d04:	64d3      	str	r3, [r2, #76]	; 0x4c
     d06:	4b84      	ldr	r3, [pc, #528]	; (f18 <main+0x370>)
     d08:	4c84      	ldr	r4, [pc, #528]	; (f1c <main+0x374>)
     d0a:	6753      	str	r3, [r2, #116]	; 0x74
     d0c:	4884      	ldr	r0, [pc, #528]	; (f20 <main+0x378>)
     d0e:	4b85      	ldr	r3, [pc, #532]	; (f24 <main+0x37c>)
     d10:	2607      	movs	r6, #7
     d12:	7025      	strb	r5, [r4, #0]
     d14:	6061      	str	r1, [r4, #4]
     d16:	7215      	strb	r5, [r2, #8]
     d18:	6151      	str	r1, [r2, #20]
     d1a:	6291      	str	r1, [r2, #40]	; 0x28
     d1c:	62d2      	str	r2, [r2, #44]	; 0x2c
     d1e:	6512      	str	r2, [r2, #80]	; 0x50
     d20:	6058      	str	r0, [r3, #4]
     d22:	2080      	movs	r0, #128	; 0x80
     d24:	6099      	str	r1, [r3, #8]
     d26:	601e      	str	r6, [r3, #0]
     d28:	4b7f      	ldr	r3, [pc, #508]	; (f28 <main+0x380>)
     d2a:	0080      	lsls	r0, r0, #2
     d2c:	6498      	str	r0, [r3, #72]	; 0x48
     d2e:	6a18      	ldr	r0, [r3, #32]
     d30:	4f7e      	ldr	r7, [pc, #504]	; (f2c <main+0x384>)
     d32:	4038      	ands	r0, r7
     d34:	6218      	str	r0, [r3, #32]
     d36:	4b7e      	ldr	r3, [pc, #504]	; (f30 <main+0x388>)
     d38:	4f7e      	ldr	r7, [pc, #504]	; (f34 <main+0x38c>)
     d3a:	0018      	movs	r0, r3
     d3c:	301c      	adds	r0, #28
     d3e:	61d8      	str	r0, [r3, #28]
     d40:	6218      	str	r0, [r3, #32]
     d42:	2001      	movs	r0, #1
     d44:	4240      	negs	r0, r0
     d46:	6258      	str	r0, [r3, #36]	; 0x24
     d48:	487b      	ldr	r0, [pc, #492]	; (f38 <main+0x390>)
     d4a:	601b      	str	r3, [r3, #0]
     d4c:	3007      	adds	r0, #7
     d4e:	43b0      	bics	r0, r6
     d50:	6038      	str	r0, [r7, #0]
     d52:	487a      	ldr	r0, [pc, #488]	; (f3c <main+0x394>)
     d54:	605b      	str	r3, [r3, #4]
     d56:	43b0      	bics	r0, r6
     d58:	4e79      	ldr	r6, [pc, #484]	; (f40 <main+0x398>)
     d5a:	6099      	str	r1, [r3, #8]
     d5c:	6030      	str	r0, [r6, #0]
     d5e:	4879      	ldr	r0, [pc, #484]	; (f44 <main+0x39c>)
     d60:	4e79      	ldr	r6, [pc, #484]	; (f48 <main+0x3a0>)
     d62:	6081      	str	r1, [r0, #8]
     d64:	6006      	str	r6, [r0, #0]
     d66:	0006      	movs	r6, r0
     d68:	3610      	adds	r6, #16
     d6a:	60c1      	str	r1, [r0, #12]
     d6c:	6106      	str	r6, [r0, #16]
     d6e:	6146      	str	r6, [r0, #20]
     d70:	6181      	str	r1, [r0, #24]
     d72:	2040      	movs	r0, #64	; 0x40
     d74:	001e      	movs	r6, r3
     d76:	6398      	str	r0, [r3, #56]	; 0x38
     d78:	66d8      	str	r0, [r3, #108]	; 0x6c
     d7a:	0018      	movs	r0, r3
     d7c:	3654      	adds	r6, #84	; 0x54
     d7e:	3030      	adds	r0, #48	; 0x30
     d80:	6118      	str	r0, [r3, #16]
     d82:	6158      	str	r0, [r3, #20]
     d84:	6299      	str	r1, [r3, #40]	; 0x28
     d86:	6699      	str	r1, [r3, #104]	; 0x68
     d88:	6659      	str	r1, [r3, #100]	; 0x64
     d8a:	641b      	str	r3, [r3, #64]	; 0x40
     d8c:	645b      	str	r3, [r3, #68]	; 0x44
     d8e:	655e      	str	r6, [r3, #84]	; 0x54
     d90:	001e      	movs	r6, r3
     d92:	6198      	str	r0, [r3, #24]
     d94:	486d      	ldr	r0, [pc, #436]	; (f4c <main+0x3a4>)
     d96:	3658      	adds	r6, #88	; 0x58
     d98:	659e      	str	r6, [r3, #88]	; 0x58
     d9a:	65de      	str	r6, [r3, #92]	; 0x5c
     d9c:	6499      	str	r1, [r3, #72]	; 0x48
     d9e:	64d8      	str	r0, [r3, #76]	; 0x4c
     da0:	b662      	cpsie	i
     da2:	4e6b      	ldr	r6, [pc, #428]	; (f50 <main+0x3a8>)
     da4:	6998      	ldr	r0, [r3, #24]
     da6:	6186      	str	r6, [r0, #24]
     da8:	b672      	cpsid	i
     daa:	001e      	movs	r6, r3
     dac:	2084      	movs	r0, #132	; 0x84
     dae:	362d      	adds	r6, #45	; 0x2d
     db0:	36ff      	adds	r6, #255	; 0xff
     db2:	501e      	str	r6, [r3, r0]
     db4:	4e67      	ldr	r6, [pc, #412]	; (f54 <main+0x3ac>)
     db6:	30b8      	adds	r0, #184	; 0xb8
     db8:	501e      	str	r6, [r3, r0]
     dba:	3004      	adds	r0, #4
     dbc:	4e66      	ldr	r6, [pc, #408]	; (f58 <main+0x3b0>)
     dbe:	5019      	str	r1, [r3, r0]
     dc0:	300c      	adds	r0, #12
     dc2:	501e      	str	r6, [r3, r0]
     dc4:	2694      	movs	r6, #148	; 0x94
     dc6:	38cc      	subs	r0, #204	; 0xcc
     dc8:	501d      	str	r5, [r3, r0]
     dca:	3034      	adds	r0, #52	; 0x34
     dcc:	501d      	str	r5, [r3, r0]
     dce:	3804      	subs	r0, #4
     dd0:	5019      	str	r1, [r3, r0]
     dd2:	3804      	subs	r0, #4
     dd4:	5019      	str	r1, [r3, r0]
     dd6:	381c      	subs	r0, #28
     dd8:	5019      	str	r1, [r3, r0]
     dda:	4860      	ldr	r0, [pc, #384]	; (f5c <main+0x3b4>)
     ddc:	695d      	ldr	r5, [r3, #20]
     dde:	5198      	str	r0, [r3, r6]
     de0:	2088      	movs	r0, #136	; 0x88
     de2:	501b      	str	r3, [r3, r0]
     de4:	3004      	adds	r0, #4
     de6:	501d      	str	r5, [r3, r0]
     de8:	0018      	movs	r0, r3
     dea:	3078      	adds	r0, #120	; 0x78
     dec:	6128      	str	r0, [r5, #16]
     dee:	001d      	movs	r5, r3
     df0:	6158      	str	r0, [r3, #20]
     df2:	209c      	movs	r0, #156	; 0x9c
     df4:	359c      	adds	r5, #156	; 0x9c
     df6:	501d      	str	r5, [r3, r0]
     df8:	0018      	movs	r0, r3
     dfa:	25a0      	movs	r5, #160	; 0xa0
     dfc:	30a0      	adds	r0, #160	; 0xa0
     dfe:	5158      	str	r0, [r3, r5]
     e00:	3504      	adds	r5, #4
     e02:	5158      	str	r0, [r3, r5]
     e04:	2098      	movs	r0, #152	; 0x98
     e06:	5019      	str	r1, [r3, r0]
     e08:	6998      	ldr	r0, [r3, #24]
     e0a:	6885      	ldr	r5, [r0, #8]
     e0c:	2d00      	cmp	r5, #0
     e0e:	d04b      	beq.n	ea8 <main+0x300>
     e10:	5599      	strb	r1, [r3, r6]
     e12:	0019      	movs	r1, r3
     e14:	6809      	ldr	r1, [r1, #0]
     e16:	688d      	ldr	r5, [r1, #8]
     e18:	2d00      	cmp	r5, #0
     e1a:	d1fb      	bne.n	e14 <main+0x26c>
     e1c:	0018      	movs	r0, r3
     e1e:	6799      	str	r1, [r3, #120]	; 0x78
     e20:	684e      	ldr	r6, [r1, #4]
     e22:	3078      	adds	r0, #120	; 0x78
     e24:	67de      	str	r6, [r3, #124]	; 0x7c
     e26:	6030      	str	r0, [r6, #0]
     e28:	6048      	str	r0, [r1, #4]
     e2a:	b662      	cpsie	i
     e2c:	2190      	movs	r1, #144	; 0x90
     e2e:	484c      	ldr	r0, [pc, #304]	; (f60 <main+0x3b8>)
     e30:	5058      	str	r0, [r3, r1]
     e32:	b672      	cpsid	i
     e34:	7a13      	ldrb	r3, [r2, #8]
     e36:	2b01      	cmp	r3, #1
     e38:	d100      	bne.n	e3c <main+0x294>
     e3a:	e09b      	b.n	f74 <main+0x3cc>
     e3c:	2102      	movs	r1, #2
     e3e:	7211      	strb	r1, [r2, #8]
     e40:	b662      	cpsie	i
     e42:	2280      	movs	r2, #128	; 0x80
     e44:	4b29      	ldr	r3, [pc, #164]	; (eec <main+0x344>)
     e46:	02d2      	lsls	r2, r2, #11
     e48:	6858      	ldr	r0, [r3, #4]
     e4a:	4302      	orrs	r2, r0
     e4c:	605a      	str	r2, [r3, #4]
     e4e:	2280      	movs	r2, #128	; 0x80
     e50:	6858      	ldr	r0, [r3, #4]
     e52:	0312      	lsls	r2, r2, #12
     e54:	4302      	orrs	r2, r0
     e56:	605a      	str	r2, [r3, #4]
     e58:	4a26      	ldr	r2, [pc, #152]	; (ef4 <main+0x34c>)
     e5a:	6853      	ldr	r3, [r2, #4]
     e5c:	430b      	orrs	r3, r1
     e5e:	6053      	str	r3, [r2, #4]
     e60:	4a1f      	ldr	r2, [pc, #124]	; (ee0 <main+0x338>)
     e62:	6953      	ldr	r3, [r2, #20]
     e64:	438b      	bics	r3, r1
     e66:	6153      	str	r3, [r2, #20]
     e68:	2204      	movs	r2, #4
     e6a:	4b25      	ldr	r3, [pc, #148]	; (f00 <main+0x358>)
     e6c:	32ff      	adds	r2, #255	; 0xff
     e6e:	605a      	str	r2, [r3, #4]
     e70:	b672      	cpsid	i
     e72:	4b3c      	ldr	r3, [pc, #240]	; (f64 <main+0x3bc>)
     e74:	6063      	str	r3, [r4, #4]
     e76:	7823      	ldrb	r3, [r4, #0]
     e78:	2b01      	cmp	r3, #1
     e7a:	d017      	beq.n	eac <main+0x304>
     e7c:	2200      	movs	r2, #0
     e7e:	4b3a      	ldr	r3, [pc, #232]	; (f68 <main+0x3c0>)
     e80:	491f      	ldr	r1, [pc, #124]	; (f00 <main+0x358>)
     e82:	705a      	strb	r2, [r3, #1]
     e84:	684b      	ldr	r3, [r1, #4]
     e86:	4a39      	ldr	r2, [pc, #228]	; (f6c <main+0x3c4>)
     e88:	401a      	ands	r2, r3
     e8a:	23a0      	movs	r3, #160	; 0xa0
     e8c:	031b      	lsls	r3, r3, #12
     e8e:	4313      	orrs	r3, r2
     e90:	604b      	str	r3, [r1, #4]
     e92:	2302      	movs	r3, #2
     e94:	7023      	strb	r3, [r4, #0]
     e96:	b662      	cpsie	i
     e98:	b672      	cpsid	i
     e9a:	21fa      	movs	r1, #250	; 0xfa
     e9c:	2008      	movs	r0, #8
     e9e:	0049      	lsls	r1, r1, #1
     ea0:	f7ff fc52 	bl	748 <chSchGoSleepTimeoutS>
     ea4:	b662      	cpsie	i
     ea6:	e7f7      	b.n	e98 <main+0x2f0>
     ea8:	7705      	strb	r5, [r0, #28]
     eaa:	e7fe      	b.n	eaa <main+0x302>
     eac:	21de      	movs	r1, #222	; 0xde
     eae:	2080      	movs	r0, #128	; 0x80
     eb0:	4b2f      	ldr	r3, [pc, #188]	; (f70 <main+0x3c8>)
     eb2:	3a43      	subs	r2, #67	; 0x43
     eb4:	0089      	lsls	r1, r1, #2
     eb6:	505a      	str	r2, [r3, r1]
     eb8:	39f9      	subs	r1, #249	; 0xf9
     eba:	05c0      	lsls	r0, r0, #23
     ebc:	39ff      	subs	r1, #255	; 0xff
     ebe:	5058      	str	r0, [r3, r1]
     ec0:	6018      	str	r0, [r3, #0]
     ec2:	20df      	movs	r0, #223	; 0xdf
     ec4:	0080      	lsls	r0, r0, #2
     ec6:	501a      	str	r2, [r3, r0]
     ec8:	2280      	movs	r2, #128	; 0x80
     eca:	0612      	lsls	r2, r2, #24
     ecc:	505a      	str	r2, [r3, r1]
     ece:	601a      	str	r2, [r3, #0]
     ed0:	e7d4      	b.n	e7c <main+0x2d4>
     ed2:	46c0      	nop			; (mov r8, r8)
     ed4:	00001038 	.word	0x00001038
     ed8:	40047000 	.word	0x40047000
     edc:	00001210 	.word	0x00001210
     ee0:	400ff000 	.word	0x400ff000
     ee4:	00001170 	.word	0x00001170
     ee8:	bff00f00 	.word	0xbff00f00
     eec:	400ff040 	.word	0x400ff040
     ef0:	400ff080 	.word	0x400ff080
     ef4:	400ff0c0 	.word	0x400ff0c0
     ef8:	4004d000 	.word	0x4004d000
     efc:	4004a000 	.word	0x4004a000
     f00:	40049000 	.word	0x40049000
     f04:	4004b000 	.word	0x4004b000
     f08:	4004c000 	.word	0x4004c000
     f0c:	1ffff608 	.word	0x1ffff608
     f10:	000012c4 	.word	0x000012c4
     f14:	000006dd 	.word	0x000006dd
     f18:	4006a000 	.word	0x4006a000
     f1c:	1ffff600 	.word	0x1ffff600
     f20:	0000bb7f 	.word	0x0000bb7f
     f24:	e000e010 	.word	0xe000e010
     f28:	e000ed00 	.word	0xe000ed00
     f2c:	ff00ffff 	.word	0xff00ffff
     f30:	1ffff680 	.word	0x1ffff680
     f34:	1ffff7f4 	.word	0x1ffff7f4
     f38:	1ffff818 	.word	0x1ffff818
     f3c:	20003000 	.word	0x20003000
     f40:	1ffff7f0 	.word	0x1ffff7f0
     f44:	1ffff7d0 	.word	0x1ffff7d0
     f48:	00000515 	.word	0x00000515
     f4c:	14010001 	.word	0x14010001
     f50:	000011e0 	.word	0x000011e0
     f54:	00000511 	.word	0x00000511
     f58:	000004f1 	.word	0x000004f1
     f5c:	14010002 	.word	0x14010002
     f60:	00001208 	.word	0x00001208
     f64:	000011f8 	.word	0x000011f8
     f68:	1ffff7f8 	.word	0x1ffff7f8
     f6c:	fff0ffff 	.word	0xfff0ffff
     f70:	e000e100 	.word	0xe000e100
     f74:	2180      	movs	r1, #128	; 0x80
     f76:	4b18      	ldr	r3, [pc, #96]	; (fd8 <main+0x430>)
     f78:	4818      	ldr	r0, [pc, #96]	; (fdc <main+0x434>)
     f7a:	00c9      	lsls	r1, r1, #3
     f7c:	581e      	ldr	r6, [r3, r0]
     f7e:	4331      	orrs	r1, r6
     f80:	4e17      	ldr	r6, [pc, #92]	; (fe0 <main+0x438>)
     f82:	5019      	str	r1, [r3, r0]
     f84:	5999      	ldr	r1, [r3, r6]
     f86:	4817      	ldr	r0, [pc, #92]	; (fe4 <main+0x43c>)
     f88:	4008      	ands	r0, r1
     f8a:	2180      	movs	r1, #128	; 0x80
     f8c:	04c9      	lsls	r1, r1, #19
     f8e:	4301      	orrs	r1, r0
     f90:	5199      	str	r1, [r3, r6]
     f92:	210f      	movs	r1, #15
     f94:	6f53      	ldr	r3, [r2, #116]	; 0x74
     f96:	709d      	strb	r5, [r3, #2]
     f98:	7199      	strb	r1, [r3, #6]
     f9a:	3110      	adds	r1, #16
     f9c:	7119      	strb	r1, [r3, #4]
     f9e:	7918      	ldrb	r0, [r3, #4]
     fa0:	3101      	adds	r1, #1
     fa2:	4208      	tst	r0, r1
     fa4:	d003      	beq.n	fae <main+0x406>
     fa6:	79d8      	ldrb	r0, [r3, #7]
     fa8:	7918      	ldrb	r0, [r3, #4]
     faa:	4201      	tst	r1, r0
     fac:	d1fb      	bne.n	fa6 <main+0x3fe>
     fae:	210f      	movs	r1, #15
     fb0:	7299      	strb	r1, [r3, #10]
     fb2:	2100      	movs	r1, #0
     fb4:	7019      	strb	r1, [r3, #0]
     fb6:	314e      	adds	r1, #78	; 0x4e
     fb8:	7059      	strb	r1, [r3, #1]
     fba:	3922      	subs	r1, #34	; 0x22
     fbc:	70d9      	strb	r1, [r3, #3]
     fbe:	20c0      	movs	r0, #192	; 0xc0
     fc0:	21cc      	movs	r1, #204	; 0xcc
     fc2:	4b09      	ldr	r3, [pc, #36]	; (fe8 <main+0x440>)
     fc4:	0089      	lsls	r1, r1, #2
     fc6:	0080      	lsls	r0, r0, #2
     fc8:	5058      	str	r0, [r3, r1]
     fca:	2180      	movs	r1, #128	; 0x80
     fcc:	3881      	subs	r0, #129	; 0x81
     fce:	0149      	lsls	r1, r1, #5
     fd0:	38ff      	subs	r0, #255	; 0xff
     fd2:	5019      	str	r1, [r3, r0]
     fd4:	6019      	str	r1, [r3, #0]
     fd6:	e731      	b.n	e3c <main+0x294>
     fd8:	40047000 	.word	0x40047000
     fdc:	00001034 	.word	0x00001034
     fe0:	00001004 	.word	0x00001004
     fe4:	f3ffffff 	.word	0xf3ffffff
     fe8:	e000e100 	.word	0xe000e100

00000fec <__early_init>:
     fec:	2188      	movs	r1, #136	; 0x88
     fee:	2200      	movs	r2, #0
     ff0:	4b26      	ldr	r3, [pc, #152]	; (108c <__early_init+0xa0>)
     ff2:	0149      	lsls	r1, r1, #5
     ff4:	b510      	push	{r4, lr}
     ff6:	505a      	str	r2, [r3, r1]
     ff8:	2180      	movs	r1, #128	; 0x80
     ffa:	4825      	ldr	r0, [pc, #148]	; (1090 <__early_init+0xa4>)
     ffc:	0089      	lsls	r1, r1, #2
     ffe:	581c      	ldr	r4, [r3, r0]
    1000:	4321      	orrs	r1, r4
    1002:	5019      	str	r1, [r3, r0]
    1004:	6819      	ldr	r1, [r3, #0]
    1006:	4823      	ldr	r0, [pc, #140]	; (1094 <__early_init+0xa8>)
    1008:	4c23      	ldr	r4, [pc, #140]	; (1098 <__early_init+0xac>)
    100a:	4001      	ands	r1, r0
    100c:	6019      	str	r1, [r3, #0]
    100e:	4823      	ldr	r0, [pc, #140]	; (109c <__early_init+0xb0>)
    1010:	4923      	ldr	r1, [pc, #140]	; (10a0 <__early_init+0xb4>)
    1012:	5058      	str	r0, [r3, r1]
    1014:	4923      	ldr	r1, [pc, #140]	; (10a4 <__early_init+0xb8>)
    1016:	4824      	ldr	r0, [pc, #144]	; (10a8 <__early_init+0xbc>)
    1018:	5058      	str	r0, [r3, r1]
    101a:	4b24      	ldr	r3, [pc, #144]	; (10ac <__early_init+0xc0>)
    101c:	6c98      	ldr	r0, [r3, #72]	; 0x48
    101e:	4020      	ands	r0, r4
    1020:	6498      	str	r0, [r3, #72]	; 0x48
    1022:	6cd9      	ldr	r1, [r3, #76]	; 0x4c
    1024:	4021      	ands	r1, r4
    1026:	64d9      	str	r1, [r3, #76]	; 0x4c
    1028:	2124      	movs	r1, #36	; 0x24
    102a:	4b21      	ldr	r3, [pc, #132]	; (10b0 <__early_init+0xc4>)
    102c:	701a      	strb	r2, [r3, #0]
    102e:	4b21      	ldr	r3, [pc, #132]	; (10b4 <__early_init+0xc8>)
    1030:	7059      	strb	r1, [r3, #1]
    1032:	3174      	adds	r1, #116	; 0x74
    1034:	7019      	strb	r1, [r3, #0]
    1036:	78d8      	ldrb	r0, [r3, #3]
    1038:	3979      	subs	r1, #121	; 0x79
    103a:	4001      	ands	r1, r0
    103c:	70d9      	strb	r1, [r3, #3]
    103e:	2102      	movs	r1, #2
    1040:	715a      	strb	r2, [r3, #5]
    1042:	799a      	ldrb	r2, [r3, #6]
    1044:	4211      	tst	r1, r2
    1046:	d0fc      	beq.n	1042 <__early_init+0x56>
    1048:	2210      	movs	r2, #16
    104a:	491a      	ldr	r1, [pc, #104]	; (10b4 <__early_init+0xc8>)
    104c:	798b      	ldrb	r3, [r1, #6]
    104e:	421a      	tst	r2, r3
    1050:	d1fc      	bne.n	104c <__early_init+0x60>
    1052:	210c      	movs	r1, #12
    1054:	4a17      	ldr	r2, [pc, #92]	; (10b4 <__early_init+0xc8>)
    1056:	7993      	ldrb	r3, [r2, #6]
    1058:	400b      	ands	r3, r1
    105a:	2b08      	cmp	r3, #8
    105c:	d1fb      	bne.n	1056 <__early_init+0x6a>
    105e:	3b07      	subs	r3, #7
    1060:	7113      	strb	r3, [r2, #4]
    1062:	333f      	adds	r3, #63	; 0x3f
    1064:	7153      	strb	r3, [r2, #5]
    1066:	2220      	movs	r2, #32
    1068:	4912      	ldr	r1, [pc, #72]	; (10b4 <__early_init+0xc8>)
    106a:	798b      	ldrb	r3, [r1, #6]
    106c:	421a      	tst	r2, r3
    106e:	d0fc      	beq.n	106a <__early_init+0x7e>
    1070:	2140      	movs	r1, #64	; 0x40
    1072:	4a10      	ldr	r2, [pc, #64]	; (10b4 <__early_init+0xc8>)
    1074:	7993      	ldrb	r3, [r2, #6]
    1076:	4219      	tst	r1, r3
    1078:	d0fc      	beq.n	1074 <__early_init+0x88>
    107a:	2318      	movs	r3, #24
    107c:	7013      	strb	r3, [r2, #0]
    107e:	220c      	movs	r2, #12
    1080:	490c      	ldr	r1, [pc, #48]	; (10b4 <__early_init+0xc8>)
    1082:	798b      	ldrb	r3, [r1, #6]
    1084:	4013      	ands	r3, r2
    1086:	2b0c      	cmp	r3, #12
    1088:	d1fb      	bne.n	1082 <__early_init+0x96>
    108a:	bd10      	pop	{r4, pc}
    108c:	40047000 	.word	0x40047000
    1090:	00001038 	.word	0x00001038
    1094:	fff3ffff 	.word	0xfff3ffff
    1098:	fefff8ff 	.word	0xfefff8ff
    109c:	10010000 	.word	0x10010000
    10a0:	00001044 	.word	0x00001044
    10a4:	00001004 	.word	0x00001004
    10a8:	01010000 	.word	0x01010000
    10ac:	40049000 	.word	0x40049000
    10b0:	40065000 	.word	0x40065000
    10b4:	40064000 	.word	0x40064000

000010b8 <chThdExit>:
    10b8:	b570      	push	{r4, r5, r6, lr}
    10ba:	b672      	cpsid	i
    10bc:	4b0d      	ldr	r3, [pc, #52]	; (10f4 <chThdExit+0x3c>)
    10be:	699c      	ldr	r4, [r3, #24]
    10c0:	0025      	movs	r5, r4
    10c2:	6220      	str	r0, [r4, #32]
    10c4:	6a60      	ldr	r0, [r4, #36]	; 0x24
    10c6:	3524      	adds	r5, #36	; 0x24
    10c8:	42a8      	cmp	r0, r5
    10ca:	d006      	beq.n	10da <chThdExit+0x22>
    10cc:	6803      	ldr	r3, [r0, #0]
    10ce:	6263      	str	r3, [r4, #36]	; 0x24
    10d0:	f7ff fa9e 	bl	610 <chSchReadyI>
    10d4:	6a60      	ldr	r0, [r4, #36]	; 0x24
    10d6:	42a8      	cmp	r0, r5
    10d8:	d1f8      	bne.n	10cc <chThdExit+0x14>
    10da:	7f63      	ldrb	r3, [r4, #29]
    10dc:	079b      	lsls	r3, r3, #30
    10de:	d104      	bne.n	10ea <chThdExit+0x32>
    10e0:	6922      	ldr	r2, [r4, #16]
    10e2:	6963      	ldr	r3, [r4, #20]
    10e4:	611a      	str	r2, [r3, #16]
    10e6:	6922      	ldr	r2, [r4, #16]
    10e8:	6153      	str	r3, [r2, #20]
    10ea:	200f      	movs	r0, #15
    10ec:	f7ff fb1a 	bl	724 <chSchGoSleepS>
    10f0:	bd70      	pop	{r4, r5, r6, pc}
    10f2:	46c0      	nop			; (mov r8, r8)
    10f4:	1ffff680 	.word	0x1ffff680

000010f8 <chSchDoReschedule>:
    10f8:	b570      	push	{r4, r5, r6, lr}
    10fa:	4c12      	ldr	r4, [pc, #72]	; (1144 <chSchDoReschedule+0x4c>)
    10fc:	6820      	ldr	r0, [r4, #0]
    10fe:	69a1      	ldr	r1, [r4, #24]
    1100:	6803      	ldr	r3, [r0, #0]
    1102:	7fcd      	ldrb	r5, [r1, #31]
    1104:	688a      	ldr	r2, [r1, #8]
    1106:	6023      	str	r3, [r4, #0]
    1108:	605c      	str	r4, [r3, #4]
    110a:	61a0      	str	r0, [r4, #24]
    110c:	2401      	movs	r4, #1
    110e:	7704      	strb	r4, [r0, #28]
    1110:	2d00      	cmp	r5, #0
    1112:	d00e      	beq.n	1132 <chSchDoReschedule+0x3a>
    1114:	2400      	movs	r4, #0
    1116:	770c      	strb	r4, [r1, #28]
    1118:	e000      	b.n	111c <chSchDoReschedule+0x24>
    111a:	681b      	ldr	r3, [r3, #0]
    111c:	689c      	ldr	r4, [r3, #8]
    111e:	42a2      	cmp	r2, r4
    1120:	d3fb      	bcc.n	111a <chSchDoReschedule+0x22>
    1122:	600b      	str	r3, [r1, #0]
    1124:	685a      	ldr	r2, [r3, #4]
    1126:	604a      	str	r2, [r1, #4]
    1128:	6011      	str	r1, [r2, #0]
    112a:	6059      	str	r1, [r3, #4]
    112c:	f7ff f9d0 	bl	4d0 <_port_switch>
    1130:	bd70      	pop	{r4, r5, r6, pc}
    1132:	3413      	adds	r4, #19
    1134:	77cc      	strb	r4, [r1, #31]
    1136:	770d      	strb	r5, [r1, #28]
    1138:	e000      	b.n	113c <chSchDoReschedule+0x44>
    113a:	681b      	ldr	r3, [r3, #0]
    113c:	689c      	ldr	r4, [r3, #8]
    113e:	4294      	cmp	r4, r2
    1140:	d2fb      	bcs.n	113a <chSchDoReschedule+0x42>
    1142:	e7ee      	b.n	1122 <chSchDoReschedule+0x2a>
    1144:	1ffff680 	.word	0x1ffff680

00001148 <__default_exit>:
    1148:	e7fe      	b.n	1148 <__default_exit>
    114a:	46c0      	nop			; (mov r8, r8)

0000114c <__late_init>:
    114c:	4770      	bx	lr
    114e:	46c0      	nop			; (mov r8, r8)
    1150:	000005fa 	.word	0x000005fa
    1154:	000005da 	.word	0x000005da
    1158:	000005da 	.word	0x000005da
    115c:	000005fe 	.word	0x000005fe
    1160:	000005d0 	.word	0x000005d0
    1164:	000005c8 	.word	0x000005c8
    1168:	000005da 	.word	0x000005da
    116c:	000005d0 	.word	0x000005d0
    1170:	00000c3a 	.word	0x00000c3a
    1174:	00000c78 	.word	0x00000c78
    1178:	00000c3a 	.word	0x00000c3a
    117c:	00000c6e 	.word	0x00000c6e
    1180:	00000c4c 	.word	0x00000c4c
    1184:	00000c78 	.word	0x00000c78
    1188:	00000c3a 	.word	0x00000c3a
    118c:	00000c40 	.word	0x00000c40
    1190:	00000c40 	.word	0x00000c40
    1194:	00000c40 	.word	0x00000c40
    1198:	00000c40 	.word	0x00000c40
    119c:	00000c40 	.word	0x00000c40
    11a0:	00000c40 	.word	0x00000c40
    11a4:	00000c40 	.word	0x00000c40
    11a8:	00000c40 	.word	0x00000c40
    11ac:	00000c40 	.word	0x00000c40
    11b0:	00000c3a 	.word	0x00000c3a
    11b4:	00000ca6 	.word	0x00000ca6
    11b8:	00000c9c 	.word	0x00000c9c
    11bc:	00000c92 	.word	0x00000c92
    11c0:	00000c88 	.word	0x00000c88
    11c4:	00000c80 	.word	0x00000c80
    11c8:	00000c66 	.word	0x00000c66
    11cc:	61686e75 	.word	0x61686e75
    11d0:	656c646e 	.word	0x656c646e
    11d4:	78652064 	.word	0x78652064
    11d8:	74706563 	.word	0x74706563
    11dc:	006e6f69 	.word	0x006e6f69

000011e0 <ch_debug>:
    11e0:	6e69616d 18011600 08440404 1814100c     main......D.....
    11f0:	1e1d1c00 0000001f                       ........

000011f8 <extcfg>:
    11f8:	00000006 00000541 40049000 00000001     ....A......@....
    1208:	656c6469 00000000                       idle....

00001210 <pal_default_config>:
    1210:	400ff000 16111116 01010505 01010101     ...@............
    1220:	05050505 05050505 01010116 01010101     ................
    1230:	01010101 400ff040 05050505 01010101     ....@..@........
    1240:	05050505 01010101 06060505 01010101     ................
    1250:	01010101 01010101 400ff080 05050505     ...........@....
    1260:	05050505 05050505 05050505 01010505     ................
    1270:	01010101 01010101 01010101 400ff0c0     ...............@
    1280:	05050605 05050505 01010105 01010101     ................
    1290:	01010101 01010101 01010101 01010101     ................
    12a0:	400ff100 05050505 01010505 01010101     ...@............
    12b0:	01010101 01010101 05050505 01011414     ................
    12c0:	05050501                                ....

000012c4 <vmt>:
    12c4:	0000086d 00000959 000008d5 000009b5     m...Y...........
    12d4:	000008c9 000009a9 00000861 0000094d     ........a...M...
