ARM GAS  /var/folders/qd/4mxf5pkd0zdf0b9dd1hp39180000gn/T//ccZRSIIu.s 			page 1


   1              		.cpu cortex-m4
   2              		.eabi_attribute 27, 1
   3              		.eabi_attribute 28, 1
   4              		.eabi_attribute 20, 1
   5              		.eabi_attribute 21, 1
   6              		.eabi_attribute 23, 3
   7              		.eabi_attribute 24, 1
   8              		.eabi_attribute 25, 1
   9              		.eabi_attribute 26, 1
  10              		.eabi_attribute 30, 2
  11              		.eabi_attribute 34, 1
  12              		.eabi_attribute 18, 4
  13              		.file	"main.c"
  14              		.text
  15              	.Ltext0:
  16              		.cfi_sections	.debug_frame
  17              		.section	.text.ThdBodyLed,"ax",%progbits
  18              		.align	1
  19              		.p2align 4,,15
  20              		.syntax unified
  21              		.thumb
  22              		.thumb_func
  23              		.fpu fpv4-sp-d16
  24              		.type	ThdBodyLed, %function
  25              	ThdBodyLed:
  26              	.LFB261:
  27              		.file 1 "main.c"
  28              		.loc 1 77 0
  29              		.cfi_startproc
  30              		@ Volatile: function does not return.
  31              		@ args = 0, pretend = 0, frame = 0
  32              		@ frame_needed = 0, uses_anonymous_args = 0
  33              	.LVL0:
  34 0000 08B5     		push	{r3, lr}
  35              		.cfi_def_cfa_offset 8
  36              		.cfi_offset 3, -8
  37              		.cfi_offset 14, -4
  38              	.LBB41:
  39              	.LBB42:
  40              		.file 2 "lib/ChibiOS/os/rt/include/chregistry.h"
  41              		.loc 2 135 0
  42 0002 084B     		ldr	r3, .L5
  43 0004 084A     		ldr	r2, .L5+4
  44 0006 9B69     		ldr	r3, [r3, #24]
  45              	.LBE42:
  46              	.LBE41:
  47              		.loc 1 85 0
  48 0008 084C     		ldr	r4, .L5+8
  49              	.LBB44:
  50              	.LBB43:
  51              		.loc 2 135 0
  52 000a 9A61     		str	r2, [r3, #24]
  53              	.LVL1:
  54              	.LBE43:
  55              	.LBE44:
  56              		.loc 1 82 0
  57 000c 6420     		movs	r0, #100
ARM GAS  /var/folders/qd/4mxf5pkd0zdf0b9dd1hp39180000gn/T//ccZRSIIu.s 			page 2


  58              	.LVL2:
  59 000e FFF7FEFF 		bl	chThdSleep
  60              	.LVL3:
  61              	.L2:
  62              		.loc 1 85 0 discriminator 1
  63 0012 6369     		ldr	r3, [r4, #20]
  64 0014 83F00403 		eor	r3, r3, #4
  65 0018 6361     		str	r3, [r4, #20]
  66              		.loc 1 89 0 discriminator 1
  67 001a 6420     		movs	r0, #100
  68 001c FFF7FEFF 		bl	chThdSleep
  69              	.LVL4:
  70 0020 F7E7     		b	.L2
  71              	.L6:
  72 0022 00BF     		.align	2
  73              	.L5:
  74 0024 00000000 		.word	ch
  75 0028 00000000 		.word	.LANCHOR0
  76 002c 00040240 		.word	1073873920
  77              		.cfi_endproc
  78              	.LFE261:
  79              		.size	ThdBodyLed, .-ThdBodyLed
  80              		.section	.text.chprintf.constprop.0,"ax",%progbits
  81              		.align	1
  82              		.p2align 4,,15
  83              		.syntax unified
  84              		.thumb
  85              		.thumb_func
  86              		.fpu fpv4-sp-d16
  87              		.type	chprintf.constprop.0, %function
  88              	chprintf.constprop.0:
  89              	.LFB264:
  90              		.file 3 "lib/ChibiOS/os/hal/lib/streams/chprintf.h"
  91              		.loc 3 69 0
  92              		.cfi_startproc
  93              		@ args = 4, pretend = 12, frame = 8
  94              		@ frame_needed = 0, uses_anonymous_args = 1
  95              	.LVL5:
  96 0000 0EB4     		push	{r1, r2, r3}
  97              		.cfi_def_cfa_offset 12
  98              		.cfi_offset 1, -12
  99              		.cfi_offset 2, -8
 100              		.cfi_offset 3, -4
 101 0002 00B5     		push	{lr}
 102              		.cfi_def_cfa_offset 16
 103              		.cfi_offset 14, -16
 104 0004 82B0     		sub	sp, sp, #8
 105              		.cfi_def_cfa_offset 24
 106              		.loc 3 69 0
 107 0006 03AA     		add	r2, sp, #12
 108              		.loc 3 74 0
 109 0008 0548     		ldr	r0, .L9
 110              	.LVL6:
 111              		.loc 3 69 0
 112 000a 52F8041B 		ldr	r1, [r2], #4
 113              		.loc 3 73 0
 114 000e 0192     		str	r2, [sp, #4]
ARM GAS  /var/folders/qd/4mxf5pkd0zdf0b9dd1hp39180000gn/T//ccZRSIIu.s 			page 3


 115              		.loc 3 74 0
 116 0010 FFF7FEFF 		bl	chvprintf
 117              	.LVL7:
 118              		.loc 3 78 0
 119 0014 02B0     		add	sp, sp, #8
 120              		.cfi_def_cfa_offset 16
 121              		@ sp needed
 122 0016 5DF804EB 		ldr	lr, [sp], #4
 123              		.cfi_restore 14
 124              		.cfi_def_cfa_offset 12
 125 001a 03B0     		add	sp, sp, #12
 126              		.cfi_restore 3
 127              		.cfi_restore 2
 128              		.cfi_restore 1
 129              		.cfi_def_cfa_offset 0
 130 001c 7047     		bx	lr
 131              	.L10:
 132 001e 00BF     		.align	2
 133              	.L9:
 134 0020 00000000 		.word	SD3
 135              		.cfi_endproc
 136              	.LFE264:
 137              		.size	chprintf.constprop.0, .-chprintf.constprop.0
 138              		.section	.text.ThdFrontLed,"ax",%progbits
 139              		.align	1
 140              		.p2align 4,,15
 141              		.syntax unified
 142              		.thumb
 143              		.thumb_func
 144              		.fpu fpv4-sp-d16
 145              		.type	ThdFrontLed, %function
 146              	ThdFrontLed:
 147              	.LFB260:
 148              		.loc 1 62 0
 149              		.cfi_startproc
 150              		@ args = 0, pretend = 0, frame = 0
 151              		@ frame_needed = 0, uses_anonymous_args = 0
 152              	.LVL8:
 153 0000 2DE9F041 		push	{r4, r5, r6, r7, r8, lr}
 154              		.cfi_def_cfa_offset 24
 155              		.cfi_offset 4, -24
 156              		.cfi_offset 5, -20
 157              		.cfi_offset 6, -16
 158              		.cfi_offset 7, -12
 159              		.cfi_offset 8, -8
 160              		.cfi_offset 14, -4
 161              	.LBB61:
 162              	.LBB62:
 163              		.loc 2 135 0
 164 0004 184D     		ldr	r5, .L15
 165 0006 194A     		ldr	r2, .L15+4
 166 0008 AB69     		ldr	r3, [r5, #24]
 167              	.LBE62:
 168              	.LBE61:
 169              	.LBB64:
 170              	.LBB65:
 171              	.LBB66:
ARM GAS  /var/folders/qd/4mxf5pkd0zdf0b9dd1hp39180000gn/T//ccZRSIIu.s 			page 4


 172              	.LBB67:
 173              		.file 4 "lib/ChibiOS/os/rt/include/chsys.h"
 174              		.loc 4 367 0
 175 000a DFF87080 		ldr	r8, .L15+20
 176              	.LBE67:
 177              	.LBE66:
 178              	.LBE65:
 179              	.LBE64:
 180              		.loc 1 70 0
 181 000e 184F     		ldr	r7, .L15+8
 182 0010 184E     		ldr	r6, .L15+12
 183              	.LBB81:
 184              	.LBB63:
 185              		.loc 2 135 0
 186 0012 9A61     		str	r2, [r3, #24]
 187              	.LVL9:
 188              	.L13:
 189              	.LBE63:
 190              	.LBE81:
 191              	.LBB82:
 192              	.LBB80:
 193              	.LBB72:
 194              	.LBB73:
 195              	.LBB74:
 196              	.LBB75:
 197              	.LBB76:
 198              		.file 5 "lib/ChibiOS/os/ext/CMSIS/include/core_cmFunc.h"
 199              		.loc 5 546 0 discriminator 1
 200 0014 2023     		movs	r3, #32
 201              		.syntax unified
 202              	@ 546 "lib/ChibiOS/os/ext/CMSIS/include/core_cmFunc.h" 1
 203 0016 83F31188 		MSR basepri, r3
 204              	@ 0 "" 2
 205              	.LVL10:
 206              		.thumb
 207              		.syntax unified
 208              	.LBE76:
 209              	.LBE75:
 210              	.LBE74:
 211              		.loc 4 349 0 discriminator 1
 212 001a FFF7FEFF 		bl	_stats_start_measure_crit_thd
 213              	.LVL11:
 214              		.loc 4 350 0 discriminator 1
 215 001e FFF7FEFF 		bl	_dbg_check_lock
 216              	.LVL12:
 217              	.LBE73:
 218              	.LBE72:
 219              	.LBB77:
 220              	.LBB78:
 221              		.file 6 "lib/ChibiOS/os/rt/include/chvt.h"
 222              		.loc 6 231 0 discriminator 1
 223 0022 AC6A     		ldr	r4, [r5, #40]
 224              	.LBE78:
 225              	.LBE77:
 226              	.LBB79:
 227              	.LBB71:
 228              		.loc 4 360 0 discriminator 1
ARM GAS  /var/folders/qd/4mxf5pkd0zdf0b9dd1hp39180000gn/T//ccZRSIIu.s 			page 5


 229 0024 FFF7FEFF 		bl	_dbg_check_unlock
 230              	.LVL13:
 231              		.loc 4 361 0 discriminator 1
 232 0028 FFF7FEFF 		bl	_stats_stop_measure_crit_thd
 233              	.LVL14:
 234              		.loc 4 367 0 discriminator 1
 235 002c 2B68     		ldr	r3, [r5]
 236 002e AB42     		cmp	r3, r5
 237 0030 07D0     		beq	.L12
 238              		.loc 4 367 0 is_stmt 0
 239 0032 AA69     		ldr	r2, [r5, #24]
 240 0034 9B68     		ldr	r3, [r3, #8]
 241 0036 9268     		ldr	r2, [r2, #8]
 242 0038 9A42     		cmp	r2, r3
 243 003a 02D2     		bcs	.L12
 244 003c 4046     		mov	r0, r8
 245 003e FFF7FEFF 		bl	chSysHalt
 246              	.LVL15:
 247              	.L12:
 248              	.LBB68:
 249              	.LBB69:
 250              	.LBB70:
 251              		.loc 5 546 0 is_stmt 1
 252 0042 0023     		movs	r3, #0
 253              		.syntax unified
 254              	@ 546 "lib/ChibiOS/os/ext/CMSIS/include/core_cmFunc.h" 1
 255 0044 83F31188 		MSR basepri, r3
 256              	@ 0 "" 2
 257              	.LVL16:
 258              		.thumb
 259              		.syntax unified
 260              	.LBE70:
 261              	.LBE69:
 262              	.LBE68:
 263              	.LBE71:
 264              	.LBE79:
 265              	.LBE80:
 266              	.LBE82:
 267              		.loc 1 70 0
 268 0048 2246     		mov	r2, r4
 269 004a 3946     		mov	r1, r7
 270 004c 3046     		mov	r0, r6
 271 004e FFF7FEFF 		bl	chprintf.constprop.0
 272              	.LVL17:
 273              		.loc 1 71 0
 274 0052 094A     		ldr	r2, .L15+16
 275 0054 5369     		ldr	r3, [r2, #20]
 276 0056 83F48043 		eor	r3, r3, #16384
 277 005a 5361     		str	r3, [r2, #20]
 278              		.loc 1 72 0
 279 005c 04F1FA01 		add	r1, r4, #250
 280 0060 2046     		mov	r0, r4
 281 0062 FFF7FEFF 		bl	chThdSleepUntilWindowed
 282              	.LVL18:
 283 0066 D5E7     		b	.L13
 284              	.L16:
 285              		.align	2
ARM GAS  /var/folders/qd/4mxf5pkd0zdf0b9dd1hp39180000gn/T//ccZRSIIu.s 			page 6


 286              	.L15:
 287 0068 00000000 		.word	ch
 288 006c 00000000 		.word	.LANCHOR1
 289 0070 00000000 		.word	.LC0
 290 0074 00000000 		.word	SD3
 291 0078 000C0240 		.word	1073875968
 292 007c 00000000 		.word	.LANCHOR2
 293              		.cfi_endproc
 294              	.LFE260:
 295              		.size	ThdFrontLed, .-ThdFrontLed
 296              		.section	.text.panic_handler,"ax",%progbits
 297              		.align	1
 298              		.p2align 4,,15
 299              		.global	panic_handler
 300              		.syntax unified
 301              		.thumb
 302              		.thumb_func
 303              		.fpu fpv4-sp-d16
 304              		.type	panic_handler, %function
 305              	panic_handler:
 306              	.LFB257:
 307              		.loc 1 18 0
 308              		.cfi_startproc
 309              		@ Volatile: function does not return.
 310              		@ args = 0, pretend = 0, frame = 0
 311              		@ frame_needed = 0, uses_anonymous_args = 0
 312              		@ link register save eliminated.
 313              	.LVL19:
 314              		.loc 1 21 0
 315 0000 084B     		ldr	r3, .L19
 316              		.loc 1 26 0
 317 0002 094A     		ldr	r2, .L19+4
 318              		.loc 1 21 0
 319 0004 2020     		movs	r0, #32
 320              	.LVL20:
 321              		.loc 1 22 0
 322 0006 4021     		movs	r1, #64
 323              		.loc 1 21 0
 324 0008 5883     		strh	r0, [r3, #26]	@ movhi
 325              		.loc 1 23 0
 326 000a 4FF48065 		mov	r5, #1024
 327              		.loc 1 22 0
 328 000e 5983     		strh	r1, [r3, #26]	@ movhi
 329              		.loc 1 24 0
 330 0010 4FF40064 		mov	r4, #2048
 331              		.loc 1 25 0
 332 0014 4FF48040 		mov	r0, #16384
 333              		.loc 1 26 0
 334 0018 0421     		movs	r1, #4
 335              		.loc 1 23 0
 336 001a 5D83     		strh	r5, [r3, #26]	@ movhi
 337              		.loc 1 24 0
 338 001c 5C83     		strh	r4, [r3, #26]	@ movhi
 339              		.loc 1 25 0
 340 001e 5883     		strh	r0, [r3, #26]	@ movhi
 341              		.loc 1 26 0
 342 0020 5183     		strh	r1, [r2, #26]	@ movhi
ARM GAS  /var/folders/qd/4mxf5pkd0zdf0b9dd1hp39180000gn/T//ccZRSIIu.s 			page 7


 343              	.L18:
 344 0022 FEE7     		b	.L18
 345              	.L20:
 346              		.align	2
 347              	.L19:
 348 0024 000C0240 		.word	1073875968
 349 0028 00040240 		.word	1073873920
 350              		.cfi_endproc
 351              	.LFE257:
 352              		.size	panic_handler, .-panic_handler
 353              		.section	.text.show_gravity,"ax",%progbits
 354              		.align	1
 355              		.p2align 4,,15
 356              		.global	show_gravity
 357              		.syntax unified
 358              		.thumb
 359              		.thumb_func
 360              		.fpu fpv4-sp-d16
 361              		.type	show_gravity, %function
 362              	show_gravity:
 363              	.LFB262:
 364              		.loc 1 113 0
 365              		.cfi_startproc
 366              		@ args = 0, pretend = 0, frame = 8
 367              		@ frame_needed = 0, uses_anonymous_args = 0
 368              	.LVL21:
 369 0000 10B5     		push	{r4, lr}
 370              		.cfi_def_cfa_offset 8
 371              		.cfi_offset 4, -8
 372              		.cfi_offset 14, -4
 373 0002 82B0     		sub	sp, sp, #8
 374              		.cfi_def_cfa_offset 16
 375              		.loc 1 117 0
 376 0004 0024     		movs	r4, #0
 377 0006 ADF80640 		strh	r4, [sp, #6]	@ movhi
 378              	.LVL22:
 379              	.LBB93:
 380              	.LBB94:
 381              	.LBB95:
 382              	.LBB96:
 383              	.LBB97:
 384              		.loc 5 546 0
 385 000a 2023     		movs	r3, #32
 386              		.syntax unified
 387              	@ 546 "lib/ChibiOS/os/ext/CMSIS/include/core_cmFunc.h" 1
 388 000c 83F31188 		MSR basepri, r3
 389              	@ 0 "" 2
 390              	.LVL23:
 391              		.thumb
 392              		.syntax unified
 393              	.LBE97:
 394              	.LBE96:
 395              	.LBE95:
 396              		.loc 4 349 0
 397 0010 FFF7FEFF 		bl	_stats_start_measure_crit_thd
 398              	.LVL24:
 399              		.loc 4 350 0
ARM GAS  /var/folders/qd/4mxf5pkd0zdf0b9dd1hp39180000gn/T//ccZRSIIu.s 			page 8


 400 0014 FFF7FEFF 		bl	_dbg_check_lock
 401              	.LVL25:
 402              	.LBE94:
 403              	.LBE93:
 404              		.loc 1 126 0
 405 0018 104B     		ldr	r3, .L25
 406 001a DB68     		ldr	r3, [r3, #12]
 407 001c 5C62     		str	r4, [r3, #36]
 408              		.loc 1 133 0
 409 001e 5B6A     		ldr	r3, [r3, #36]
 410 0020 9BB2     		uxth	r3, r3
 411 0022 ADF80630 		strh	r3, [sp, #6]	@ movhi
 412              	.LBB98:
 413              	.LBB99:
 414              		.loc 4 360 0
 415 0026 FFF7FEFF 		bl	_dbg_check_unlock
 416              	.LVL26:
 417              		.loc 4 361 0
 418 002a FFF7FEFF 		bl	_stats_stop_measure_crit_thd
 419              	.LVL27:
 420              		.loc 4 367 0
 421 002e 0C4B     		ldr	r3, .L25+4
 422 0030 1A68     		ldr	r2, [r3]
 423 0032 9A42     		cmp	r2, r3
 424 0034 04D0     		beq	.L22
 425 0036 9969     		ldr	r1, [r3, #24]
 426 0038 9368     		ldr	r3, [r2, #8]
 427 003a 8A68     		ldr	r2, [r1, #8]
 428 003c 9A42     		cmp	r2, r3
 429 003e 04D3     		bcc	.L24
 430              	.L22:
 431              	.LVL28:
 432              	.LBB100:
 433              	.LBB101:
 434              	.LBB102:
 435              		.loc 5 546 0
 436 0040 0023     		movs	r3, #0
 437              		.syntax unified
 438              	@ 546 "lib/ChibiOS/os/ext/CMSIS/include/core_cmFunc.h" 1
 439 0042 83F31188 		MSR basepri, r3
 440              	@ 0 "" 2
 441              	.LVL29:
 442              		.thumb
 443              		.syntax unified
 444              	.LBE102:
 445              	.LBE101:
 446              	.LBE100:
 447              	.LBE99:
 448              	.LBE98:
 449              		.loc 1 140 0
 450 0046 02B0     		add	sp, sp, #8
 451              		.cfi_remember_state
 452              		.cfi_def_cfa_offset 8
 453              		@ sp needed
 454 0048 10BD     		pop	{r4, pc}
 455              	.L24:
 456              		.cfi_restore_state
ARM GAS  /var/folders/qd/4mxf5pkd0zdf0b9dd1hp39180000gn/T//ccZRSIIu.s 			page 9


 457              	.LBB107:
 458              	.LBB106:
 459              		.loc 4 367 0
 460 004a 0648     		ldr	r0, .L25+8
 461 004c FFF7FEFF 		bl	chSysHalt
 462              	.LVL30:
 463              	.LBB105:
 464              	.LBB104:
 465              	.LBB103:
 466              		.loc 5 546 0
 467 0050 0023     		movs	r3, #0
 468              		.syntax unified
 469              	@ 546 "lib/ChibiOS/os/ext/CMSIS/include/core_cmFunc.h" 1
 470 0052 83F31188 		MSR basepri, r3
 471              	@ 0 "" 2
 472              	.LVL31:
 473              		.thumb
 474              		.syntax unified
 475              	.LBE103:
 476              	.LBE104:
 477              	.LBE105:
 478              	.LBE106:
 479              	.LBE107:
 480              		.loc 1 140 0
 481 0056 02B0     		add	sp, sp, #8
 482              		.cfi_def_cfa_offset 8
 483              		@ sp needed
 484 0058 10BD     		pop	{r4, pc}
 485              	.L26:
 486 005a 00BF     		.align	2
 487              	.L25:
 488 005c 00000000 		.word	GPTD11
 489 0060 00000000 		.word	ch
 490 0064 00000000 		.word	.LANCHOR2
 491              		.cfi_endproc
 492              	.LFE262:
 493              		.size	show_gravity, .-show_gravity
 494              		.global	__aeabi_f2d
 495              		.section	.text.startup.main,"ax",%progbits
 496              		.align	1
 497              		.p2align 4,,15
 498              		.global	main
 499              		.syntax unified
 500              		.thumb
 501              		.thumb_func
 502              		.fpu fpv4-sp-d16
 503              		.type	main, %function
 504              	main:
 505              	.LFB263:
 506              		.loc 1 143 0
 507              		.cfi_startproc
 508              		@ args = 0, pretend = 0, frame = 80
 509              		@ frame_needed = 0, uses_anonymous_args = 0
 510 0000 2DE9F04F 		push	{r4, r5, r6, r7, r8, r9, r10, fp, lr}
 511              		.cfi_def_cfa_offset 36
 512              		.cfi_offset 4, -36
 513              		.cfi_offset 5, -32
ARM GAS  /var/folders/qd/4mxf5pkd0zdf0b9dd1hp39180000gn/T//ccZRSIIu.s 			page 10


 514              		.cfi_offset 6, -28
 515              		.cfi_offset 7, -24
 516              		.cfi_offset 8, -20
 517              		.cfi_offset 9, -16
 518              		.cfi_offset 10, -12
 519              		.cfi_offset 11, -8
 520              		.cfi_offset 14, -4
 521 0004 A1B0     		sub	sp, sp, #132
 522              		.cfi_def_cfa_offset 168
 523              		.loc 1 145 0
 524 0006 FFF7FEFF 		bl	halInit
 525              	.LVL32:
 526              		.loc 1 146 0
 527 000a FFF7FEFF 		bl	chSysInit
 528              	.LVL33:
 529              	.LBB112:
 530              	.LBB113:
 531              		.loc 1 42 0
 532 000e 5549     		ldr	r1, .L30
 533 0010 5548     		ldr	r0, .L30+4
 534              	.LBE113:
 535              	.LBE112:
 536              		.loc 1 179 0
 537 0012 564D     		ldr	r5, .L30+8
 538              		.loc 1 193 0
 539 0014 DFF88091 		ldr	r9, .L30+52
 540              	.LBB115:
 541              	.LBB114:
 542              		.loc 1 42 0
 543 0018 FFF7FEFF 		bl	sdStart
 544              	.LVL34:
 545              	.LBE114:
 546              	.LBE115:
 547              	.LBB116:
 548              	.LBB117:
 549              		.loc 1 56 0
 550 001c 5449     		ldr	r1, .L30+12
 551 001e 5548     		ldr	r0, .L30+16
 552 0020 FFF7FEFF 		bl	gptStart
 553              	.LVL35:
 554              		.loc 1 58 0
 555 0024 4FF6FF71 		movw	r1, #65535
 556 0028 5248     		ldr	r0, .L30+16
 557 002a FFF7FEFF 		bl	gptStartContinuous
 558              	.LVL36:
 559              	.LBE117:
 560              	.LBE116:
 561              		.loc 1 161 0
 562 002e 0024     		movs	r4, #0
 563              		.loc 1 149 0
 564 0030 FFF7FEFF 		bl	i2c_start
 565              	.LVL37:
 566              		.loc 1 150 0
 567 0034 FFF7FEFF 		bl	imu_start
 568              	.LVL38:
 569              		.loc 1 152 0
 570 0038 FFF7FEFF 		bl	audioInit
ARM GAS  /var/folders/qd/4mxf5pkd0zdf0b9dd1hp39180000gn/T//ccZRSIIu.s 			page 11


 571              	.LVL39:
 572              		.loc 1 154 0
 573 003c 4E4A     		ldr	r2, .L30+20
 574 003e 4F49     		ldr	r1, .L30+24
 575 0040 4F48     		ldr	r0, .L30+28
 576 0042 FFF7FEFF 		bl	messagebus_init
 577              	.LVL40:
 578              		.loc 1 161 0
 579 0046 0094     		str	r4, [sp]
 580 0048 4E4B     		ldr	r3, .L30+32
 581 004a 4F48     		ldr	r0, .L30+36
 582 004c 4022     		movs	r2, #64
 583 004e 4FF4FC71 		mov	r1, #504
 584 0052 FFF7FEFF 		bl	chThdCreateStatic
 585              	.LVL41:
 586              		.loc 1 162 0
 587 0056 4D4B     		ldr	r3, .L30+40
 588 0058 0094     		str	r4, [sp]
 589 005a 4022     		movs	r2, #64
 590 005c 4FF4FC71 		mov	r1, #504
 591 0060 4B48     		ldr	r0, .L30+44
 592              		.loc 1 179 0
 593 0062 414C     		ldr	r4, .L30+4
 594              		.loc 1 162 0
 595 0064 FFF7FEFF 		bl	chThdCreateStatic
 596              	.LVL42:
 597              		.loc 1 168 0
 598 0068 4A49     		ldr	r1, .L30+48
 599 006a 4548     		ldr	r0, .L30+28
 600 006c FFF7FEFF 		bl	messagebus_find_topic_blocking
 601              	.LVL43:
 602 0070 8046     		mov	r8, r0
 603              	.LVL44:
 604              		.loc 1 172 0
 605 0072 4FF4FA60 		mov	r0, #2000
 606              	.LVL45:
 607 0076 FFF7FEFF 		bl	chThdSleep
 608              	.LVL46:
 609              		.loc 1 173 0
 610 007a 4046     		mov	r0, r8
 611 007c C821     		movs	r1, #200
 612 007e FFF7FEFF 		bl	imu_compute_offset
 613              	.LVL47:
 614              	.L28:
 615              		.loc 1 177 0 discriminator 1
 616 0082 0CA9     		add	r1, sp, #48
 617 0084 4046     		mov	r0, r8
 618 0086 5022     		movs	r2, #80
 619 0088 FFF7FEFF 		bl	messagebus_topic_wait
 620              	.LVL48:
 621              		.loc 1 179 0 discriminator 1
 622 008c BDF96270 		ldrsh	r7, [sp, #98]
 623 0090 BDF96060 		ldrsh	r6, [sp, #96]
 624 0094 BDF95E00 		ldrsh	r0, [sp, #94]
 625 0098 BDF95C10 		ldrsh	r1, [sp, #92]
 626 009c BDF95A30 		ldrsh	r3, [sp, #90]
 627 00a0 BDF95820 		ldrsh	r2, [sp, #88]
ARM GAS  /var/folders/qd/4mxf5pkd0zdf0b9dd1hp39180000gn/T//ccZRSIIu.s 			page 12


 628 00a4 CDE90267 		strd	r6, r7, [sp, #8]
 629 00a8 CDE90010 		strd	r1, r0, [sp]
 630 00ac 2946     		mov	r1, r5
 631 00ae 2046     		mov	r0, r4
 632 00b0 FFF7FEFF 		bl	chprintf.constprop.0
 633              	.LVL49:
 634              		.loc 1 190 0 discriminator 1
 635 00b4 BDF962B0 		ldrsh	fp, [sp, #98]
 636 00b8 BDF96E20 		ldrsh	r2, [sp, #110]
 637              		.loc 1 189 0 discriminator 1
 638 00bc BDF96C70 		ldrsh	r7, [sp, #108]
 639 00c0 BDF96060 		ldrsh	r6, [sp, #96]
 640              		.loc 1 187 0 discriminator 1
 641 00c4 BDF968E0 		ldrsh	lr, [sp, #104]
 642              		.loc 1 188 0 discriminator 1
 643 00c8 BDF95E00 		ldrsh	r0, [sp, #94]
 644 00cc BDF96AA0 		ldrsh	r10, [sp, #106]
 645              		.loc 1 187 0 discriminator 1
 646 00d0 BDF95C10 		ldrsh	r1, [sp, #92]
 647              		.loc 1 186 0 discriminator 1
 648 00d4 BDF95AC0 		ldrsh	ip, [sp, #90]
 649 00d8 BDF96630 		ldrsh	r3, [sp, #102]
 650              		.loc 1 184 0 discriminator 1
 651 00dc ABEB0202 		sub	r2, fp, r2
 652 00e0 F61B     		subs	r6, r6, r7
 653 00e2 0392     		str	r2, [sp, #12]
 654              		.loc 1 185 0 discriminator 1
 655 00e4 BDF95870 		ldrsh	r7, [sp, #88]
 656 00e8 BDF96420 		ldrsh	r2, [sp, #100]
 657              		.loc 1 184 0 discriminator 1
 658 00ec 0296     		str	r6, [sp, #8]
 659 00ee A1EB0E01 		sub	r1, r1, lr
 660 00f2 A0EB0A00 		sub	r0, r0, r10
 661 00f6 ACEB0303 		sub	r3, ip, r3
 662 00fa BA1A     		subs	r2, r7, r2
 663 00fc CDE90010 		strd	r1, r0, [sp]
 664 0100 2946     		mov	r1, r5
 665 0102 2046     		mov	r0, r4
 666 0104 FFF7FEFF 		bl	chprintf.constprop.0
 667              	.LVL50:
 668              		.loc 1 193 0 discriminator 1
 669 0108 0C98     		ldr	r0, [sp, #48]	@ float
 670 010a FFF7FEFF 		bl	__aeabi_f2d
 671              	.LVL51:
 672 010e 9DF87C30 		ldrb	r3, [sp, #124]	@ zero_extendqisi2
 673 0112 0A93     		str	r3, [sp, #40]
 674 0114 0646     		mov	r6, r0
 675 0116 1198     		ldr	r0, [sp, #68]	@ float
 676 0118 0F46     		mov	r7, r1
 677 011a FFF7FEFF 		bl	__aeabi_f2d
 678              	.LVL52:
 679 011e CDE90801 		strd	r0, [sp, #32]
 680 0122 1098     		ldr	r0, [sp, #64]	@ float
 681 0124 FFF7FEFF 		bl	__aeabi_f2d
 682              	.LVL53:
 683 0128 CDE90601 		strd	r0, [sp, #24]
 684 012c 0F98     		ldr	r0, [sp, #60]	@ float
ARM GAS  /var/folders/qd/4mxf5pkd0zdf0b9dd1hp39180000gn/T//ccZRSIIu.s 			page 13


 685 012e FFF7FEFF 		bl	__aeabi_f2d
 686              	.LVL54:
 687 0132 CDE90401 		strd	r0, [sp, #16]
 688 0136 0E98     		ldr	r0, [sp, #56]	@ float
 689 0138 FFF7FEFF 		bl	__aeabi_f2d
 690              	.LVL55:
 691 013c CDE90201 		strd	r0, [sp, #8]
 692 0140 0D98     		ldr	r0, [sp, #52]	@ float
 693 0142 FFF7FEFF 		bl	__aeabi_f2d
 694              	.LVL56:
 695 0146 3246     		mov	r2, r6
 696 0148 CDE90001 		strd	r0, [sp]
 697 014c 3B46     		mov	r3, r7
 698 014e 4946     		mov	r1, r9
 699 0150 2046     		mov	r0, r4
 700 0152 FFF7FEFF 		bl	chprintf.constprop.0
 701              	.LVL57:
 702              		.loc 1 198 0 discriminator 1
 703 0156 0CA8     		add	r0, sp, #48
 704 0158 FFF7FEFF 		bl	show_gravity
 705              	.LVL58:
 706              		.loc 1 199 0 discriminator 1
 707 015c 6420     		movs	r0, #100
 708 015e FFF7FEFF 		bl	chThdSleep
 709              	.LVL59:
 710 0162 8EE7     		b	.L28
 711              	.L31:
 712              		.align	2
 713              	.L30:
 714 0164 00000000 		.word	.LANCHOR3
 715 0168 00000000 		.word	SD3
 716 016c 08000000 		.word	.LC2
 717 0170 00000000 		.word	.LANCHOR4
 718 0174 00000000 		.word	GPTD11
 719 0178 00000000 		.word	.LANCHOR5
 720 017c 00000000 		.word	.LANCHOR6
 721 0180 00000000 		.word	.LANCHOR7
 722 0184 00000000 		.word	ThdFrontLed
 723 0188 00000000 		.word	.LANCHOR8
 724 018c 00000000 		.word	ThdBodyLed
 725 0190 00000000 		.word	.LANCHOR9
 726 0194 00000000 		.word	.LC1
 727 0198 3C000000 		.word	.LC3
 728              		.cfi_endproc
 729              	.LFE263:
 730              		.size	main, .-main
 731              		.global	bus_condvar
 732              		.global	bus_lock
 733              		.global	bus
 734              		.section	.bss.bus,"aw",%nobits
 735              		.align	2
 736              		.set	.LANCHOR7,. + 0
 737              		.type	bus, %object
 738              		.size	bus, 12
 739              	bus:
 740 0000 00000000 		.space	12
 740      00000000 
ARM GAS  /var/folders/qd/4mxf5pkd0zdf0b9dd1hp39180000gn/T//ccZRSIIu.s 			page 14


 740      00000000 
 741              		.section	.bss.waThdBodyLed,"aw",%nobits
 742              		.align	3
 743              		.set	.LANCHOR9,. + 0
 744              		.type	waThdBodyLed, %object
 745              		.size	waThdBodyLed, 504
 746              	waThdBodyLed:
 747 0000 00000000 		.space	504
 747      00000000 
 747      00000000 
 747      00000000 
 747      00000000 
 748              		.section	.bss.waThdFrontLed,"aw",%nobits
 749              		.align	3
 750              		.set	.LANCHOR8,. + 0
 751              		.type	waThdFrontLed, %object
 752              		.size	waThdFrontLed, 504
 753              	waThdFrontLed:
 754 0000 00000000 		.space	504
 754      00000000 
 754      00000000 
 754      00000000 
 754      00000000 
 755              		.section	.data.bus_condvar,"aw",%progbits
 756              		.align	2
 757              		.set	.LANCHOR5,. + 0
 758              		.type	bus_condvar, %object
 759              		.size	bus_condvar, 8
 760              	bus_condvar:
 761 0000 00000000 		.word	bus_condvar
 762 0004 00000000 		.word	bus_condvar
 763              		.section	.data.bus_lock,"aw",%progbits
 764              		.align	2
 765              		.set	.LANCHOR6,. + 0
 766              		.type	bus_lock, %object
 767              		.size	bus_lock, 20
 768              	bus_lock:
 769 0000 00000000 		.word	bus_lock
 770 0004 00000000 		.word	bus_lock
 771 0008 00000000 		.word	0
 772 000c 00000000 		.word	0
 773 0010 00000000 		.word	0
 774              		.section	.data.ser_cfg.10165,"aw",%progbits
 775              		.align	2
 776              		.set	.LANCHOR3,. + 0
 777              		.type	ser_cfg.10165, %object
 778              		.size	ser_cfg.10165, 12
 779              	ser_cfg.10165:
 780 0000 00C20100 		.word	115200
 781 0004 0000     		.short	0
 782 0006 0000     		.short	0
 783 0008 0000     		.short	0
 784 000a 0000     		.space	2
 785              		.section	.rodata.ThdFrontLed.str1.4,"aMS",%progbits,1
 786              		.align	2
 787              	.LC0:
 788 0000 74696D65 		.ascii	"time = %d\012\000"
ARM GAS  /var/folders/qd/4mxf5pkd0zdf0b9dd1hp39180000gn/T//ccZRSIIu.s 			page 15


 788      203D2025 
 788      640A00
 789              		.section	.rodata.__FUNCTION__.10174,"a",%progbits
 790              		.align	2
 791              		.set	.LANCHOR1,. + 0
 792              		.type	__FUNCTION__.10174, %object
 793              		.size	__FUNCTION__.10174, 12
 794              	__FUNCTION__.10174:
 795 0000 54686446 		.ascii	"ThdFrontLed\000"
 795      726F6E74 
 795      4C656400 
 796              		.section	.rodata.__FUNCTION__.10181,"a",%progbits
 797              		.align	2
 798              		.set	.LANCHOR0,. + 0
 799              		.type	__FUNCTION__.10181, %object
 800              		.size	__FUNCTION__.10181, 11
 801              	__FUNCTION__.10181:
 802 0000 54686442 		.ascii	"ThdBodyLed\000"
 802      6F64794C 
 802      656400
 803              		.section	.rodata.__func__.7153,"a",%progbits
 804              		.align	2
 805              		.set	.LANCHOR2,. + 0
 806              		.type	__func__.7153, %object
 807              		.size	__func__.7153, 12
 808              	__func__.7153:
 809 0000 63685379 		.ascii	"chSysUnlock\000"
 809      73556E6C 
 809      6F636B00 
 810              		.section	.rodata.gpt11cfg.10169,"a",%progbits
 811              		.align	2
 812              		.set	.LANCHOR4,. + 0
 813              		.type	gpt11cfg.10169, %object
 814              		.size	gpt11cfg.10169, 16
 815              	gpt11cfg.10169:
 816 0000 40420F00 		.word	1000000
 817 0004 00000000 		.word	0
 818 0008 00000000 		.word	0
 819 000c 00000000 		.word	0
 820              		.section	.rodata.main.str1.4,"aMS",%progbits,1
 821              		.align	2
 822              	.LC1:
 823 0000 2F696D75 		.ascii	"/imu\000"
 823      00
 824 0005 000000   		.space	3
 825              	.LC2:
 826 0008 2541783D 		.ascii	"%Ax=%-7d Ay=%-7d Az=%-7d Gx=%-7d Gy=%-7d Gz=%-7d\015"
 826      252D3764 
 826      2041793D 
 826      252D3764 
 826      20417A3D 
 827 0039 0A00     		.ascii	"\012\000"
 828 003b 00       		.space	1
 829              	.LC3:
 830 003c 2541783D 		.ascii	"%Ax=%.2f Ay=%.2f Az=%.2f Gx=%.2f Gy=%.2f Gz=%.2f (%"
 830      252E3266 
 830      2041793D 
ARM GAS  /var/folders/qd/4mxf5pkd0zdf0b9dd1hp39180000gn/T//ccZRSIIu.s 			page 16


 830      252E3266 
 830      20417A3D 
 831 006f 78290D0A 		.ascii	"x)\015\012\012\000"
 831      0A00
 832              		.text
 833              	.Letext0:
 834              		.file 7 "/Applications/Eclipse_e-puck2.app/Contents/Eclipse_e-puck2/Tools/gcc-arm-none-eabi-7-2017
 835              		.file 8 "/Applications/Eclipse_e-puck2.app/Contents/Eclipse_e-puck2/Tools/gcc-arm-none-eabi-7-2017
 836              		.file 9 "/Applications/Eclipse_e-puck2.app/Contents/Eclipse_e-puck2/Tools/gcc-arm-none-eabi-7-2017
 837              		.file 10 "lib/ChibiOS/os/rt/ports/ARMCMx/compilers/GCC/chtypes.h"
 838              		.file 11 "lib/ChibiOS/os/rt/include/chsystypes.h"
 839              		.file 12 "lib/ChibiOS/os/rt/include/chschd.h"
 840              		.file 13 "lib/ChibiOS/os/ext/CMSIS/include/core_cm4.h"
 841              		.file 14 "lib/ChibiOS/os/ext/CMSIS/ST/system_stm32f4xx.h"
 842              		.file 15 "lib/ChibiOS/os/ext/CMSIS/ST/stm32f407xx.h"
 843              		.file 16 "lib/ChibiOS/os/rt/ports/ARMCMx/chcore.h"
 844              		.file 17 "lib/ChibiOS/os/rt/ports/ARMCMx/chcore_v7m.h"
 845              		.file 18 "lib/ChibiOS/os/rt/include/chdebug.h"
 846              		.file 19 "lib/ChibiOS/os/rt/include/chtm.h"
 847              		.file 20 "lib/ChibiOS/os/rt/include/chstats.h"
 848              		.file 21 "lib/ChibiOS/os/rt/include/chsem.h"
 849              		.file 22 "lib/ChibiOS/os/rt/include/chmtx.h"
 850              		.file 23 "lib/ChibiOS/os/rt/include/chcond.h"
 851              		.file 24 "lib/ChibiOS/os/rt/include/chevents.h"
 852              		.file 25 "lib/ChibiOS/os/rt/include/chqueues.h"
 853              		.file 26 "lib/ChibiOS/os/rt/include/chstreams.h"
 854              		.file 27 "lib/ChibiOS/os/hal/ports/STM32/STM32F4xx/stm32_dma.h"
 855              		.file 28 "lib/ChibiOS/os/hal/ports/STM32/LLD/GPIOv2/pal_lld.h"
 856              		.file 29 "lib/ChibiOS/os/hal/include/gpt.h"
 857              		.file 30 "lib/ChibiOS/os/hal/ports/STM32/LLD/TIMv1/gpt_lld.h"
 858              		.file 31 "lib/ChibiOS/os/hal/ports/STM32/LLD/TIMv1/stm32_tim.h"
 859              		.file 32 "lib/ChibiOS/os/hal/include/i2c.h"
 860              		.file 33 "lib/ChibiOS/os/hal/ports/STM32/LLD/I2Cv1/i2c_lld.h"
 861              		.file 34 "lib/ChibiOS/os/hal/include/serial.h"
 862              		.file 35 "lib/ChibiOS/os/hal/ports/STM32/LLD/USARTv1/serial_lld.h"
 863              		.file 36 "lib/ChibiOS/os/hal/include/usb.h"
 864              		.file 37 "lib/ChibiOS/os/hal/ports/STM32/LLD/OTGv1/usb_lld.h"
 865              		.file 38 "lib/ChibiOS/os/hal/ports/STM32/LLD/OTGv1/stm32_otg.h"
 866              		.file 39 "/Applications/Eclipse_e-puck2.app/Contents/Eclipse_e-puck2/Tools/gcc-arm-none-eabi-7-201
 867              		.file 40 "/Applications/Eclipse_e-puck2.app/Contents/Eclipse_e-puck2/Tools/gcc-arm-none-eabi-7-201
 868              		.file 41 "/Applications/Eclipse_e-puck2.app/Contents/Eclipse_e-puck2/Tools/gcc-arm-none-eabi-7-201
 869              		.file 42 "/Applications/Eclipse_e-puck2.app/Contents/Eclipse_e-puck2/Tools/gcc-arm-none-eabi-7-201
 870              		.file 43 "/Applications/Eclipse_e-puck2.app/Contents/Eclipse_e-puck2/Tools/gcc-arm-none-eabi-7-201
 871              		.file 44 "<built-in>"
 872              		.file 45 "/Applications/Eclipse_e-puck2.app/Contents/Eclipse_e-puck2/Tools/gcc-arm-none-eabi-7-201
 873              		.file 46 "lib/msgbus/messagebus.h"
 874              		.file 47 "./imu.h"
 875              		.file 48 "./mpu9250.h"
 876              		.file 49 "lib/ChibiOS/os/hal/include/hal.h"
 877              		.file 50 "./i2c_bus.h"
 878              		.file 51 "modules/audio.h"
 879              		.file 52 "lib/ChibiOS/os/rt/include/chthreads.h"