
build/ch.elf:     file format elf32-littlearm


Disassembly of section .text:

08000140 <Reset_Handler>:
 8000140:	b672      	cpsid	i
 8000142:	4821      	ldr	r0, [pc, #132]	; (80001c8 <endfiniloop+0x6>)
 8000144:	f380 8809 	msr	PSP, r0
 8000148:	2002      	movs	r0, #2
 800014a:	f380 8814 	msr	CONTROL, r0
 800014e:	f3bf 8f6f 	isb	sy
 8000152:	f000 fd85 	bl	8000c60 <__early_init>
 8000156:	f04f 3055 	mov.w	r0, #1431655765	; 0x55555555
 800015a:	491c      	ldr	r1, [pc, #112]	; (80001cc <endfiniloop+0xa>)
 800015c:	4a1c      	ldr	r2, [pc, #112]	; (80001d0 <endfiniloop+0xe>)

0800015e <msloop>:
 800015e:	4291      	cmp	r1, r2
 8000160:	bf3c      	itt	cc
 8000162:	f841 0b04 	strcc.w	r0, [r1], #4
 8000166:	e7fa      	bcc.n	800015e <msloop>
 8000168:	491a      	ldr	r1, [pc, #104]	; (80001d4 <endfiniloop+0x12>)
 800016a:	4a17      	ldr	r2, [pc, #92]	; (80001c8 <endfiniloop+0x6>)

0800016c <psloop>:
 800016c:	4291      	cmp	r1, r2
 800016e:	bf3c      	itt	cc
 8000170:	f841 0b04 	strcc.w	r0, [r1], #4
 8000174:	e7fa      	bcc.n	800016c <psloop>
 8000176:	4918      	ldr	r1, [pc, #96]	; (80001d8 <endfiniloop+0x16>)
 8000178:	4a18      	ldr	r2, [pc, #96]	; (80001dc <endfiniloop+0x1a>)
 800017a:	4b19      	ldr	r3, [pc, #100]	; (80001e0 <endfiniloop+0x1e>)

0800017c <dloop>:
 800017c:	429a      	cmp	r2, r3
 800017e:	bf3e      	ittt	cc
 8000180:	f851 0b04 	ldrcc.w	r0, [r1], #4
 8000184:	f842 0b04 	strcc.w	r0, [r2], #4
 8000188:	e7f8      	bcc.n	800017c <dloop>
 800018a:	2000      	movs	r0, #0
 800018c:	4915      	ldr	r1, [pc, #84]	; (80001e4 <endfiniloop+0x22>)
 800018e:	4a16      	ldr	r2, [pc, #88]	; (80001e8 <endfiniloop+0x26>)

08000190 <bloop>:
 8000190:	4291      	cmp	r1, r2
 8000192:	bf3c      	itt	cc
 8000194:	f841 0b04 	strcc.w	r0, [r1], #4
 8000198:	e7fa      	bcc.n	8000190 <bloop>
 800019a:	f001 fbe9 	bl	8001970 <__late_init>
 800019e:	4c13      	ldr	r4, [pc, #76]	; (80001ec <endfiniloop+0x2a>)
 80001a0:	4d13      	ldr	r5, [pc, #76]	; (80001f0 <endfiniloop+0x2e>)

080001a2 <initloop>:
 80001a2:	42ac      	cmp	r4, r5
 80001a4:	da03      	bge.n	80001ae <endinitloop>
 80001a6:	f854 1b04 	ldr.w	r1, [r4], #4
 80001aa:	4788      	blx	r1
 80001ac:	e7f9      	b.n	80001a2 <initloop>

080001ae <endinitloop>:
 80001ae:	f000 ffe7 	bl	8001180 <main>
 80001b2:	4c10      	ldr	r4, [pc, #64]	; (80001f4 <endfiniloop+0x32>)
 80001b4:	4d10      	ldr	r5, [pc, #64]	; (80001f8 <endfiniloop+0x36>)

080001b6 <finiloop>:
 80001b6:	42ac      	cmp	r4, r5
 80001b8:	da03      	bge.n	80001c2 <endfiniloop>
 80001ba:	f854 1b04 	ldr.w	r1, [r4], #4
 80001be:	4788      	blx	r1
 80001c0:	e7f9      	b.n	80001b6 <finiloop>

080001c2 <endfiniloop>:
 80001c2:	f001 bbcd 	b.w	8001960 <__default_exit>
 80001c6:	0000      	.short	0x0000
 80001c8:	20000800 	.word	0x20000800
 80001cc:	20000000 	.word	0x20000000
 80001d0:	20000400 	.word	0x20000400
 80001d4:	20000400 	.word	0x20000400
 80001d8:	08001c90 	.word	0x08001c90
 80001dc:	20000800 	.word	0x20000800
 80001e0:	20000800 	.word	0x20000800
 80001e4:	20000800 	.word	0x20000800
 80001e8:	200010f8 	.word	0x200010f8
 80001ec:	08000140 	.word	0x08000140
 80001f0:	08000140 	.word	0x08000140
 80001f4:	08000140 	.word	0x08000140
 80001f8:	08000140 	.word	0x08000140
 80001fc:	00000000 	.word	0x00000000

08000200 <_port_switch>:
 8000200:	e92d 4ff0 	stmdb	sp!, {r4, r5, r6, r7, r8, r9, sl, fp, lr}
 8000204:	f8c1 d00c 	str.w	sp, [r1, #12]
 8000208:	f8d0 d00c 	ldr.w	sp, [r0, #12]
 800020c:	e8bd 8ff0 	ldmia.w	sp!, {r4, r5, r6, r7, r8, r9, sl, fp, pc}

08000210 <_port_thread_start>:
 8000210:	f000 fdee 	bl	8000df0 <_dbg_check_unlock>
 8000214:	f000 fd9c 	bl	8000d50 <_stats_stop_measure_crit_thd>
 8000218:	2300      	movs	r3, #0
 800021a:	f383 8811 	msr	BASEPRI, r3
 800021e:	4628      	mov	r0, r5
 8000220:	47a0      	blx	r4
 8000222:	2000      	movs	r0, #0
 8000224:	f000 fecc 	bl	8000fc0 <chThdExit>

08000228 <_port_switch_from_isr>:
 8000228:	f000 fd9a 	bl	8000d60 <_stats_start_measure_crit_thd>
 800022c:	f000 fe10 	bl	8000e50 <_dbg_check_lock>
 8000230:	f000 fd9e 	bl	8000d70 <chSchDoReschedule>
 8000234:	f000 fddc 	bl	8000df0 <_dbg_check_unlock>
 8000238:	f000 fd8a 	bl	8000d50 <_stats_stop_measure_crit_thd>

0800023c <_port_exit_from_isr>:
 800023c:	df00      	svc	0
 800023e:	e7fe      	b.n	800023e <_port_exit_from_isr+0x2>

08000240 <adc_lld_start_conversion.constprop.6>:
 8000240:	4a23      	ldr	r2, [pc, #140]	; (80002d0 <adc_lld_start_conversion.constprop.6+0x90>)
 8000242:	6913      	ldr	r3, [r2, #16]
 8000244:	68d1      	ldr	r1, [r2, #12]
 8000246:	7818      	ldrb	r0, [r3, #0]
 8000248:	b4f0      	push	{r4, r5, r6, r7}
 800024a:	6b14      	ldr	r4, [r2, #48]	; 0x30
 800024c:	b128      	cbz	r0, 800025a <adc_lld_start_conversion.constprop.6+0x1a>
 800024e:	2901      	cmp	r1, #1
 8000250:	bf94      	ite	ls
 8000252:	f044 0420 	orrls.w	r4, r4, #32
 8000256:	f044 0424 	orrhi.w	r4, r4, #36	; 0x24
 800025a:	6ad0      	ldr	r0, [r2, #44]	; 0x2c
 800025c:	885d      	ldrh	r5, [r3, #2]
 800025e:	6800      	ldr	r0, [r0, #0]
 8000260:	6896      	ldr	r6, [r2, #8]
 8000262:	60c6      	str	r6, [r0, #12]
 8000264:	fb01 f105 	mul.w	r1, r1, r5
 8000268:	6041      	str	r1, [r0, #4]
 800026a:	68d9      	ldr	r1, [r3, #12]
 800026c:	6004      	str	r4, [r0, #0]
 800026e:	6805      	ldr	r5, [r0, #0]
 8000270:	6a92      	ldr	r2, [r2, #40]	; 0x28
 8000272:	699e      	ldr	r6, [r3, #24]
 8000274:	e9d3 4704 	ldrd	r4, r7, [r3, #16]
 8000278:	f045 0501 	orr.w	r5, r5, #1
 800027c:	6005      	str	r5, [r0, #0]
 800027e:	2000      	movs	r0, #0
 8000280:	69dd      	ldr	r5, [r3, #28]
 8000282:	6010      	str	r0, [r2, #0]
 8000284:	6a18      	ldr	r0, [r3, #32]
 8000286:	60d7      	str	r7, [r2, #12]
 8000288:	6116      	str	r6, [r2, #16]
 800028a:	6a5e      	ldr	r6, [r3, #36]	; 0x24
 800028c:	6155      	str	r5, [r2, #20]
 800028e:	6a9d      	ldr	r5, [r3, #40]	; 0x28
 8000290:	6310      	str	r0, [r2, #48]	; 0x30
 8000292:	e9d3 030b 	ldrd	r0, r3, [r3, #44]	; 0x2c
 8000296:	f041 6180 	orr.w	r1, r1, #67108864	; 0x4000000
 800029a:	6356      	str	r6, [r2, #52]	; 0x34
 800029c:	f441 7180 	orr.w	r1, r1, #256	; 0x100
 80002a0:	6395      	str	r5, [r2, #56]	; 0x38
 80002a2:	63d0      	str	r0, [r2, #60]	; 0x3c
 80002a4:	6413      	str	r3, [r2, #64]	; 0x40
 80002a6:	0063      	lsls	r3, r4, #1
 80002a8:	6051      	str	r1, [r2, #4]
 80002aa:	d406      	bmi.n	80002ba <adc_lld_start_conversion.constprop.6+0x7a>
 80002ac:	f444 7440 	orr.w	r4, r4, #768	; 0x300
 80002b0:	f044 0401 	orr.w	r4, r4, #1
 80002b4:	6094      	str	r4, [r2, #8]
 80002b6:	bcf0      	pop	{r4, r5, r6, r7}
 80002b8:	4770      	bx	lr
 80002ba:	f024 4380 	bic.w	r3, r4, #1073741824	; 0x40000000
 80002be:	f240 3103 	movw	r1, #771	; 0x303
 80002c2:	f023 0302 	bic.w	r3, r3, #2
 80002c6:	430b      	orrs	r3, r1
 80002c8:	430c      	orrs	r4, r1
 80002ca:	6093      	str	r3, [r2, #8]
 80002cc:	6094      	str	r4, [r2, #8]
 80002ce:	e7f2      	b.n	80002b6 <adc_lld_start_conversion.constprop.6+0x76>
 80002d0:	20000800 	.word	0x20000800
	...

080002e0 <_idle_thread>:
 80002e0:	e7fe      	b.n	80002e0 <_idle_thread>
 80002e2:	bf00      	nop
	...

080002f0 <adcerrorcallback>:
 80002f0:	4770      	bx	lr
 80002f2:	bf00      	nop
	...

08000300 <adccallback>:
 8000300:	4804      	ldr	r0, [pc, #16]	; (8000314 <adccallback+0x14>)
 8000302:	4288      	cmp	r0, r1
 8000304:	bf0c      	ite	eq
 8000306:	4904      	ldreq	r1, [pc, #16]	; (8000318 <adccallback+0x18>)
 8000308:	4904      	ldrne	r1, [pc, #16]	; (800031c <adccallback+0x1c>)
 800030a:	680b      	ldr	r3, [r1, #0]
 800030c:	4413      	add	r3, r2
 800030e:	600b      	str	r3, [r1, #0]
 8000310:	4770      	bx	lr
 8000312:	bf00      	nop
 8000314:	20000e8c 	.word	0x20000e8c
 8000318:	20000e74 	.word	0x20000e74
 800031c:	20000e78 	.word	0x20000e78

08000320 <stSetAlarm>:
 8000320:	f04f 4380 	mov.w	r3, #1073741824	; 0x40000000
 8000324:	68da      	ldr	r2, [r3, #12]
 8000326:	0792      	lsls	r2, r2, #30
 8000328:	d501      	bpl.n	800032e <stSetAlarm+0xe>
 800032a:	6358      	str	r0, [r3, #52]	; 0x34
 800032c:	4770      	bx	lr
 800032e:	b672      	cpsid	i
 8000330:	4b01      	ldr	r3, [pc, #4]	; (8000338 <stSetAlarm+0x18>)
 8000332:	4a02      	ldr	r2, [pc, #8]	; (800033c <stSetAlarm+0x1c>)
 8000334:	629a      	str	r2, [r3, #40]	; 0x28
 8000336:	e7fe      	b.n	8000336 <stSetAlarm+0x16>
 8000338:	20000838 	.word	0x20000838
 800033c:	08001a40 	.word	0x08001a40

08000340 <_port_irq_epilogue>:
 8000340:	2320      	movs	r3, #32
 8000342:	f383 8811 	msr	BASEPRI, r3
 8000346:	4b11      	ldr	r3, [pc, #68]	; (800038c <_port_irq_epilogue+0x4c>)
 8000348:	685b      	ldr	r3, [r3, #4]
 800034a:	f413 6300 	ands.w	r3, r3, #2048	; 0x800
 800034e:	d102      	bne.n	8000356 <_port_irq_epilogue+0x16>
 8000350:	f383 8811 	msr	BASEPRI, r3
 8000354:	4770      	bx	lr
 8000356:	b480      	push	{r7}
 8000358:	af00      	add	r7, sp, #0
 800035a:	f3ef 8309 	mrs	r3, PSP
 800035e:	f04f 7280 	mov.w	r2, #16777216	; 0x1000000
 8000362:	f843 2c04 	str.w	r2, [r3, #-4]
 8000366:	f1a3 0220 	sub.w	r2, r3, #32
 800036a:	f382 8809 	msr	PSP, r2
 800036e:	4a08      	ldr	r2, [pc, #32]	; (8000390 <_port_irq_epilogue+0x50>)
 8000370:	6811      	ldr	r1, [r2, #0]
 8000372:	6992      	ldr	r2, [r2, #24]
 8000374:	6889      	ldr	r1, [r1, #8]
 8000376:	6892      	ldr	r2, [r2, #8]
 8000378:	4291      	cmp	r1, r2
 800037a:	bf8c      	ite	hi
 800037c:	4a05      	ldrhi	r2, [pc, #20]	; (8000394 <_port_irq_epilogue+0x54>)
 800037e:	4a06      	ldrls	r2, [pc, #24]	; (8000398 <_port_irq_epilogue+0x58>)
 8000380:	f843 2c08 	str.w	r2, [r3, #-8]
 8000384:	46bd      	mov	sp, r7
 8000386:	bc80      	pop	{r7}
 8000388:	4770      	bx	lr
 800038a:	bf00      	nop
 800038c:	e000ed00 	.word	0xe000ed00
 8000390:	20000838 	.word	0x20000838
 8000394:	08000229 	.word	0x08000229
 8000398:	0800023c 	.word	0x0800023c
 800039c:	00000000 	.word	0x00000000

080003a0 <SVC_Handler>:
 80003a0:	b480      	push	{r7}
 80003a2:	af00      	add	r7, sp, #0
 80003a4:	f3ef 8309 	mrs	r3, PSP
 80003a8:	3320      	adds	r3, #32
 80003aa:	f383 8809 	msr	PSP, r3
 80003ae:	2300      	movs	r3, #0
 80003b0:	f383 8811 	msr	BASEPRI, r3
 80003b4:	46bd      	mov	sp, r7
 80003b6:	bc80      	pop	{r7}
 80003b8:	4770      	bx	lr
 80003ba:	bf00      	nop
 80003bc:	0000      	movs	r0, r0
	...

080003c0 <_stats_increase_irq>:
 80003c0:	4a03      	ldr	r2, [pc, #12]	; (80003d0 <_stats_increase_irq+0x10>)
 80003c2:	f8d2 34a8 	ldr.w	r3, [r2, #1192]	; 0x4a8
 80003c6:	3301      	adds	r3, #1
 80003c8:	f8c2 34a8 	str.w	r3, [r2, #1192]	; 0x4a8
 80003cc:	4770      	bx	lr
 80003ce:	bf00      	nop
 80003d0:	20000838 	.word	0x20000838
	...

080003e0 <chTMChainMeasurementToX>:
 80003e0:	4b0e      	ldr	r3, [pc, #56]	; (800041c <chTMChainMeasurementToX+0x3c>)
 80003e2:	6842      	ldr	r2, [r0, #4]
 80003e4:	685b      	ldr	r3, [r3, #4]
 80003e6:	b4f0      	push	{r4, r5, r6, r7}
 80003e8:	608b      	str	r3, [r1, #8]
 80003ea:	e9d0 6102 	ldrd	r6, r1, [r0, #8]
 80003ee:	e9d0 4504 	ldrd	r4, r5, [r0, #16]
 80003f2:	1b9b      	subs	r3, r3, r6
 80003f4:	18e6      	adds	r6, r4, r3
 80003f6:	f145 0700 	adc.w	r7, r5, #0
 80003fa:	3101      	adds	r1, #1
 80003fc:	4293      	cmp	r3, r2
 80003fe:	e9c0 3102 	strd	r3, r1, [r0, #8]
 8000402:	e9c0 6704 	strd	r6, r7, [r0, #16]
 8000406:	d805      	bhi.n	8000414 <chTMChainMeasurementToX+0x34>
 8000408:	6802      	ldr	r2, [r0, #0]
 800040a:	4293      	cmp	r3, r2
 800040c:	bf38      	it	cc
 800040e:	6003      	strcc	r3, [r0, #0]
 8000410:	bcf0      	pop	{r4, r5, r6, r7}
 8000412:	4770      	bx	lr
 8000414:	6043      	str	r3, [r0, #4]
 8000416:	bcf0      	pop	{r4, r5, r6, r7}
 8000418:	4770      	bx	lr
 800041a:	bf00      	nop
 800041c:	e0001000 	.word	0xe0001000

08000420 <chTMStopMeasurementX>:
 8000420:	4b0f      	ldr	r3, [pc, #60]	; (8000460 <chTMStopMeasurementX+0x40>)
 8000422:	4a10      	ldr	r2, [pc, #64]	; (8000464 <chTMStopMeasurementX+0x44>)
 8000424:	685b      	ldr	r3, [r3, #4]
 8000426:	68c1      	ldr	r1, [r0, #12]
 8000428:	b4f0      	push	{r4, r5, r6, r7}
 800042a:	6884      	ldr	r4, [r0, #8]
 800042c:	f8d2 64a0 	ldr.w	r6, [r2, #1184]	; 0x4a0
 8000430:	6842      	ldr	r2, [r0, #4]
 8000432:	1b1b      	subs	r3, r3, r4
 8000434:	e9d0 4504 	ldrd	r4, r5, [r0, #16]
 8000438:	1b9b      	subs	r3, r3, r6
 800043a:	18e6      	adds	r6, r4, r3
 800043c:	f145 0700 	adc.w	r7, r5, #0
 8000440:	3101      	adds	r1, #1
 8000442:	4293      	cmp	r3, r2
 8000444:	e9c0 3102 	strd	r3, r1, [r0, #8]
 8000448:	e9c0 6704 	strd	r6, r7, [r0, #16]
 800044c:	d805      	bhi.n	800045a <chTMStopMeasurementX+0x3a>
 800044e:	6802      	ldr	r2, [r0, #0]
 8000450:	4293      	cmp	r3, r2
 8000452:	bf38      	it	cc
 8000454:	6003      	strcc	r3, [r0, #0]
 8000456:	bcf0      	pop	{r4, r5, r6, r7}
 8000458:	4770      	bx	lr
 800045a:	6043      	str	r3, [r0, #4]
 800045c:	bcf0      	pop	{r4, r5, r6, r7}
 800045e:	4770      	bx	lr
 8000460:	e0001000 	.word	0xe0001000
 8000464:	20000838 	.word	0x20000838
	...

08000470 <_stats_stop_measure_crit_isr>:
 8000470:	4801      	ldr	r0, [pc, #4]	; (8000478 <_stats_stop_measure_crit_isr+0x8>)
 8000472:	f7ff bfd5 	b.w	8000420 <chTMStopMeasurementX>
 8000476:	bf00      	nop
 8000478:	20000d00 	.word	0x20000d00
 800047c:	00000000 	.word	0x00000000

08000480 <chTMStartMeasurementX>:
 8000480:	4b01      	ldr	r3, [pc, #4]	; (8000488 <chTMStartMeasurementX+0x8>)
 8000482:	685b      	ldr	r3, [r3, #4]
 8000484:	6083      	str	r3, [r0, #8]
 8000486:	4770      	bx	lr
 8000488:	e0001000 	.word	0xe0001000
 800048c:	00000000 	.word	0x00000000

08000490 <_stats_start_measure_crit_isr>:
 8000490:	4801      	ldr	r0, [pc, #4]	; (8000498 <_stats_start_measure_crit_isr+0x8>)
 8000492:	f7ff bff5 	b.w	8000480 <chTMStartMeasurementX>
 8000496:	bf00      	nop
 8000498:	20000d00 	.word	0x20000d00
 800049c:	00000000 	.word	0x00000000

080004a0 <_dbg_trace>:
 80004a0:	4a0b      	ldr	r2, [pc, #44]	; (80004d0 <_dbg_trace+0x30>)
 80004a2:	b430      	push	{r4, r5}
 80004a4:	6b93      	ldr	r3, [r2, #56]	; 0x38
 80004a6:	6a44      	ldr	r4, [r0, #36]	; 0x24
 80004a8:	6991      	ldr	r1, [r2, #24]
 80004aa:	f04f 4580 	mov.w	r5, #1073741824	; 0x40000000
 80004ae:	6a6d      	ldr	r5, [r5, #36]	; 0x24
 80004b0:	801d      	strh	r5, [r3, #0]
 80004b2:	e9c3 1401 	strd	r1, r4, [r3, #4]
 80004b6:	f890 1020 	ldrb.w	r1, [r0, #32]
 80004ba:	7319      	strb	r1, [r3, #12]
 80004bc:	3310      	adds	r3, #16
 80004be:	f202 413c 	addw	r1, r2, #1084	; 0x43c
 80004c2:	428b      	cmp	r3, r1
 80004c4:	bf28      	it	cs
 80004c6:	f102 033c 	addcs.w	r3, r2, #60	; 0x3c
 80004ca:	6393      	str	r3, [r2, #56]	; 0x38
 80004cc:	bc30      	pop	{r4, r5}
 80004ce:	4770      	bx	lr
 80004d0:	20000838 	.word	0x20000838
	...

080004e0 <chDbgCheckClassS>:
 80004e0:	4b05      	ldr	r3, [pc, #20]	; (80004f8 <chDbgCheckClassS+0x18>)
 80004e2:	6ada      	ldr	r2, [r3, #44]	; 0x2c
 80004e4:	b91a      	cbnz	r2, 80004ee <chDbgCheckClassS+0xe>
 80004e6:	6b1a      	ldr	r2, [r3, #48]	; 0x30
 80004e8:	2a00      	cmp	r2, #0
 80004ea:	dd00      	ble.n	80004ee <chDbgCheckClassS+0xe>
 80004ec:	4770      	bx	lr
 80004ee:	b672      	cpsid	i
 80004f0:	4a02      	ldr	r2, [pc, #8]	; (80004fc <chDbgCheckClassS+0x1c>)
 80004f2:	629a      	str	r2, [r3, #40]	; 0x28
 80004f4:	e7fe      	b.n	80004f4 <chDbgCheckClassS+0x14>
 80004f6:	bf00      	nop
 80004f8:	20000838 	.word	0x20000838
 80004fc:	08001c40 	.word	0x08001c40

08000500 <chDbgCheckClassI>:
 8000500:	4b05      	ldr	r3, [pc, #20]	; (8000518 <chDbgCheckClassI+0x18>)
 8000502:	6ada      	ldr	r2, [r3, #44]	; 0x2c
 8000504:	2a00      	cmp	r2, #0
 8000506:	db03      	blt.n	8000510 <chDbgCheckClassI+0x10>
 8000508:	6b1a      	ldr	r2, [r3, #48]	; 0x30
 800050a:	2a00      	cmp	r2, #0
 800050c:	dd00      	ble.n	8000510 <chDbgCheckClassI+0x10>
 800050e:	4770      	bx	lr
 8000510:	b672      	cpsid	i
 8000512:	4a02      	ldr	r2, [pc, #8]	; (800051c <chDbgCheckClassI+0x1c>)
 8000514:	629a      	str	r2, [r3, #40]	; 0x28
 8000516:	e7fe      	b.n	8000516 <chDbgCheckClassI+0x16>
 8000518:	20000838 	.word	0x20000838
 800051c:	08001c30 	.word	0x08001c30

08000520 <chSchReadyI>:
 8000520:	b508      	push	{r3, lr}
 8000522:	f7ff ffed 	bl	8000500 <chDbgCheckClassI>
 8000526:	b1d0      	cbz	r0, 800055e <chSchReadyI+0x3e>
 8000528:	f890 3020 	ldrb.w	r3, [r0, #32]
 800052c:	4601      	mov	r1, r0
 800052e:	b18b      	cbz	r3, 8000554 <chSchReadyI+0x34>
 8000530:	2b0f      	cmp	r3, #15
 8000532:	d00f      	beq.n	8000554 <chSchReadyI+0x34>
 8000534:	2200      	movs	r2, #0
 8000536:	4b0c      	ldr	r3, [pc, #48]	; (8000568 <chSchReadyI+0x48>)
 8000538:	6880      	ldr	r0, [r0, #8]
 800053a:	f881 2020 	strb.w	r2, [r1, #32]
 800053e:	681b      	ldr	r3, [r3, #0]
 8000540:	689a      	ldr	r2, [r3, #8]
 8000542:	4282      	cmp	r2, r0
 8000544:	d2fb      	bcs.n	800053e <chSchReadyI+0x1e>
 8000546:	685a      	ldr	r2, [r3, #4]
 8000548:	4608      	mov	r0, r1
 800054a:	e9c1 3200 	strd	r3, r2, [r1]
 800054e:	6011      	str	r1, [r2, #0]
 8000550:	6059      	str	r1, [r3, #4]
 8000552:	bd08      	pop	{r3, pc}
 8000554:	b672      	cpsid	i
 8000556:	4b04      	ldr	r3, [pc, #16]	; (8000568 <chSchReadyI+0x48>)
 8000558:	4a04      	ldr	r2, [pc, #16]	; (800056c <chSchReadyI+0x4c>)
 800055a:	629a      	str	r2, [r3, #40]	; 0x28
 800055c:	e7fe      	b.n	800055c <chSchReadyI+0x3c>
 800055e:	b672      	cpsid	i
 8000560:	4b01      	ldr	r3, [pc, #4]	; (8000568 <chSchReadyI+0x48>)
 8000562:	4a02      	ldr	r2, [pc, #8]	; (800056c <chSchReadyI+0x4c>)
 8000564:	629a      	str	r2, [r3, #40]	; 0x28
 8000566:	e7fe      	b.n	8000566 <chSchReadyI+0x46>
 8000568:	20000838 	.word	0x20000838
 800056c:	080019d0 	.word	0x080019d0

08000570 <chThdResumeI>:
 8000570:	6803      	ldr	r3, [r0, #0]
 8000572:	b173      	cbz	r3, 8000592 <chThdResumeI+0x22>
 8000574:	f893 2020 	ldrb.w	r2, [r3, #32]
 8000578:	2a03      	cmp	r2, #3
 800057a:	d004      	beq.n	8000586 <chThdResumeI+0x16>
 800057c:	b672      	cpsid	i
 800057e:	4b05      	ldr	r3, [pc, #20]	; (8000594 <chThdResumeI+0x24>)
 8000580:	4a05      	ldr	r2, [pc, #20]	; (8000598 <chThdResumeI+0x28>)
 8000582:	629a      	str	r2, [r3, #40]	; 0x28
 8000584:	e7fe      	b.n	8000584 <chThdResumeI+0x14>
 8000586:	2200      	movs	r2, #0
 8000588:	6002      	str	r2, [r0, #0]
 800058a:	4618      	mov	r0, r3
 800058c:	6259      	str	r1, [r3, #36]	; 0x24
 800058e:	f7ff bfc7 	b.w	8000520 <chSchReadyI>
 8000592:	4770      	bx	lr
 8000594:	20000838 	.word	0x20000838
 8000598:	08001a00 	.word	0x08001a00
 800059c:	00000000 	.word	0x00000000

080005a0 <_dbg_check_leave_isr>:
 80005a0:	2320      	movs	r3, #32
 80005a2:	f383 8811 	msr	BASEPRI, r3
 80005a6:	4b07      	ldr	r3, [pc, #28]	; (80005c4 <_dbg_check_leave_isr+0x24>)
 80005a8:	6ada      	ldr	r2, [r3, #44]	; 0x2c
 80005aa:	2a00      	cmp	r2, #0
 80005ac:	dd01      	ble.n	80005b2 <_dbg_check_leave_isr+0x12>
 80005ae:	6b19      	ldr	r1, [r3, #48]	; 0x30
 80005b0:	b119      	cbz	r1, 80005ba <_dbg_check_leave_isr+0x1a>
 80005b2:	b672      	cpsid	i
 80005b4:	4a04      	ldr	r2, [pc, #16]	; (80005c8 <_dbg_check_leave_isr+0x28>)
 80005b6:	629a      	str	r2, [r3, #40]	; 0x28
 80005b8:	e7fe      	b.n	80005b8 <_dbg_check_leave_isr+0x18>
 80005ba:	3a01      	subs	r2, #1
 80005bc:	62da      	str	r2, [r3, #44]	; 0x2c
 80005be:	f381 8811 	msr	BASEPRI, r1
 80005c2:	4770      	bx	lr
 80005c4:	20000838 	.word	0x20000838
 80005c8:	08001ae0 	.word	0x08001ae0
 80005cc:	00000000 	.word	0x00000000

080005d0 <_dbg_check_enter_isr>:
 80005d0:	2320      	movs	r3, #32
 80005d2:	f383 8811 	msr	BASEPRI, r3
 80005d6:	4b07      	ldr	r3, [pc, #28]	; (80005f4 <_dbg_check_enter_isr+0x24>)
 80005d8:	6ada      	ldr	r2, [r3, #44]	; 0x2c
 80005da:	2a00      	cmp	r2, #0
 80005dc:	db01      	blt.n	80005e2 <_dbg_check_enter_isr+0x12>
 80005de:	6b19      	ldr	r1, [r3, #48]	; 0x30
 80005e0:	b119      	cbz	r1, 80005ea <_dbg_check_enter_isr+0x1a>
 80005e2:	b672      	cpsid	i
 80005e4:	4a04      	ldr	r2, [pc, #16]	; (80005f8 <_dbg_check_enter_isr+0x28>)
 80005e6:	629a      	str	r2, [r3, #40]	; 0x28
 80005e8:	e7fe      	b.n	80005e8 <_dbg_check_enter_isr+0x18>
 80005ea:	3201      	adds	r2, #1
 80005ec:	62da      	str	r2, [r3, #44]	; 0x2c
 80005ee:	f381 8811 	msr	BASEPRI, r1
 80005f2:	4770      	bx	lr
 80005f4:	20000838 	.word	0x20000838
 80005f8:	08001ad0 	.word	0x08001ad0
 80005fc:	00000000 	.word	0x00000000

08000600 <Vector84>:
 8000600:	b510      	push	{r4, lr}
 8000602:	f7ff fedd 	bl	80003c0 <_stats_increase_irq>
 8000606:	f7ff ffe3 	bl	80005d0 <_dbg_check_enter_isr>
 800060a:	4b08      	ldr	r3, [pc, #32]	; (800062c <Vector84+0x2c>)
 800060c:	4808      	ldr	r0, [pc, #32]	; (8000630 <Vector84+0x30>)
 800060e:	6819      	ldr	r1, [r3, #0]
 8000610:	6b02      	ldr	r2, [r0, #48]	; 0x30
 8000612:	f3c1 6103 	ubfx	r1, r1, #24, #4
 8000616:	060c      	lsls	r4, r1, #24
 8000618:	605c      	str	r4, [r3, #4]
 800061a:	b10a      	cbz	r2, 8000620 <Vector84+0x20>
 800061c:	6b40      	ldr	r0, [r0, #52]	; 0x34
 800061e:	4790      	blx	r2
 8000620:	f7ff ffbe 	bl	80005a0 <_dbg_check_leave_isr>
 8000624:	e8bd 4010 	ldmia.w	sp!, {r4, lr}
 8000628:	f7ff be8a 	b.w	8000340 <_port_irq_epilogue>
 800062c:	40026000 	.word	0x40026000
 8000630:	20000e30 	.word	0x20000e30
	...

08000640 <Vector80>:
 8000640:	b510      	push	{r4, lr}
 8000642:	f7ff febd 	bl	80003c0 <_stats_increase_irq>
 8000646:	f7ff ffc3 	bl	80005d0 <_dbg_check_enter_isr>
 800064a:	4b08      	ldr	r3, [pc, #32]	; (800066c <Vector80+0x2c>)
 800064c:	4808      	ldr	r0, [pc, #32]	; (8000670 <Vector80+0x30>)
 800064e:	6819      	ldr	r1, [r3, #0]
 8000650:	6a82      	ldr	r2, [r0, #40]	; 0x28
 8000652:	f3c1 5103 	ubfx	r1, r1, #20, #4
 8000656:	050c      	lsls	r4, r1, #20
 8000658:	605c      	str	r4, [r3, #4]
 800065a:	b10a      	cbz	r2, 8000660 <Vector80+0x20>
 800065c:	6ac0      	ldr	r0, [r0, #44]	; 0x2c
 800065e:	4790      	blx	r2
 8000660:	f7ff ff9e 	bl	80005a0 <_dbg_check_leave_isr>
 8000664:	e8bd 4010 	ldmia.w	sp!, {r4, lr}
 8000668:	f7ff be6a 	b.w	8000340 <_port_irq_epilogue>
 800066c:	40026000 	.word	0x40026000
 8000670:	20000e30 	.word	0x20000e30
	...

08000680 <Vector7C>:
 8000680:	b510      	push	{r4, lr}
 8000682:	f7ff fe9d 	bl	80003c0 <_stats_increase_irq>
 8000686:	f7ff ffa3 	bl	80005d0 <_dbg_check_enter_isr>
 800068a:	4b08      	ldr	r3, [pc, #32]	; (80006ac <Vector7C+0x2c>)
 800068c:	4808      	ldr	r0, [pc, #32]	; (80006b0 <Vector7C+0x30>)
 800068e:	6819      	ldr	r1, [r3, #0]
 8000690:	6a02      	ldr	r2, [r0, #32]
 8000692:	f3c1 4103 	ubfx	r1, r1, #16, #4
 8000696:	040c      	lsls	r4, r1, #16
 8000698:	605c      	str	r4, [r3, #4]
 800069a:	b10a      	cbz	r2, 80006a0 <Vector7C+0x20>
 800069c:	6a40      	ldr	r0, [r0, #36]	; 0x24
 800069e:	4790      	blx	r2
 80006a0:	f7ff ff7e 	bl	80005a0 <_dbg_check_leave_isr>
 80006a4:	e8bd 4010 	ldmia.w	sp!, {r4, lr}
 80006a8:	f7ff be4a 	b.w	8000340 <_port_irq_epilogue>
 80006ac:	40026000 	.word	0x40026000
 80006b0:	20000e30 	.word	0x20000e30
	...

080006c0 <Vector78>:
 80006c0:	b510      	push	{r4, lr}
 80006c2:	f7ff fe7d 	bl	80003c0 <_stats_increase_irq>
 80006c6:	f7ff ff83 	bl	80005d0 <_dbg_check_enter_isr>
 80006ca:	4b08      	ldr	r3, [pc, #32]	; (80006ec <Vector78+0x2c>)
 80006cc:	4808      	ldr	r0, [pc, #32]	; (80006f0 <Vector78+0x30>)
 80006ce:	6819      	ldr	r1, [r3, #0]
 80006d0:	6982      	ldr	r2, [r0, #24]
 80006d2:	f3c1 3103 	ubfx	r1, r1, #12, #4
 80006d6:	030c      	lsls	r4, r1, #12
 80006d8:	605c      	str	r4, [r3, #4]
 80006da:	b10a      	cbz	r2, 80006e0 <Vector78+0x20>
 80006dc:	69c0      	ldr	r0, [r0, #28]
 80006de:	4790      	blx	r2
 80006e0:	f7ff ff5e 	bl	80005a0 <_dbg_check_leave_isr>
 80006e4:	e8bd 4010 	ldmia.w	sp!, {r4, lr}
 80006e8:	f7ff be2a 	b.w	8000340 <_port_irq_epilogue>
 80006ec:	40026000 	.word	0x40026000
 80006f0:	20000e30 	.word	0x20000e30
	...

08000700 <Vector74>:
 8000700:	b510      	push	{r4, lr}
 8000702:	f7ff fe5d 	bl	80003c0 <_stats_increase_irq>
 8000706:	f7ff ff63 	bl	80005d0 <_dbg_check_enter_isr>
 800070a:	4b08      	ldr	r3, [pc, #32]	; (800072c <Vector74+0x2c>)
 800070c:	4808      	ldr	r0, [pc, #32]	; (8000730 <Vector74+0x30>)
 800070e:	6819      	ldr	r1, [r3, #0]
 8000710:	6902      	ldr	r2, [r0, #16]
 8000712:	f3c1 2103 	ubfx	r1, r1, #8, #4
 8000716:	020c      	lsls	r4, r1, #8
 8000718:	605c      	str	r4, [r3, #4]
 800071a:	b10a      	cbz	r2, 8000720 <Vector74+0x20>
 800071c:	6940      	ldr	r0, [r0, #20]
 800071e:	4790      	blx	r2
 8000720:	f7ff ff3e 	bl	80005a0 <_dbg_check_leave_isr>
 8000724:	e8bd 4010 	ldmia.w	sp!, {r4, lr}
 8000728:	f7ff be0a 	b.w	8000340 <_port_irq_epilogue>
 800072c:	40026000 	.word	0x40026000
 8000730:	20000e30 	.word	0x20000e30
	...

08000740 <Vector70>:
 8000740:	b510      	push	{r4, lr}
 8000742:	f7ff fe3d 	bl	80003c0 <_stats_increase_irq>
 8000746:	f7ff ff43 	bl	80005d0 <_dbg_check_enter_isr>
 800074a:	4b08      	ldr	r3, [pc, #32]	; (800076c <Vector70+0x2c>)
 800074c:	4808      	ldr	r0, [pc, #32]	; (8000770 <Vector70+0x30>)
 800074e:	6819      	ldr	r1, [r3, #0]
 8000750:	6882      	ldr	r2, [r0, #8]
 8000752:	f3c1 1103 	ubfx	r1, r1, #4, #4
 8000756:	010c      	lsls	r4, r1, #4
 8000758:	605c      	str	r4, [r3, #4]
 800075a:	b10a      	cbz	r2, 8000760 <Vector70+0x20>
 800075c:	68c0      	ldr	r0, [r0, #12]
 800075e:	4790      	blx	r2
 8000760:	f7ff ff1e 	bl	80005a0 <_dbg_check_leave_isr>
 8000764:	e8bd 4010 	ldmia.w	sp!, {r4, lr}
 8000768:	f7ff bdea 	b.w	8000340 <_port_irq_epilogue>
 800076c:	40026000 	.word	0x40026000
 8000770:	20000e30 	.word	0x20000e30
	...

08000780 <Vector6C>:
 8000780:	b508      	push	{r3, lr}
 8000782:	f7ff fe1d 	bl	80003c0 <_stats_increase_irq>
 8000786:	f7ff ff23 	bl	80005d0 <_dbg_check_enter_isr>
 800078a:	4b08      	ldr	r3, [pc, #32]	; (80007ac <Vector6C+0x2c>)
 800078c:	4a08      	ldr	r2, [pc, #32]	; (80007b0 <Vector6C+0x30>)
 800078e:	6819      	ldr	r1, [r3, #0]
 8000790:	f001 010f 	and.w	r1, r1, #15
 8000794:	6059      	str	r1, [r3, #4]
 8000796:	6813      	ldr	r3, [r2, #0]
 8000798:	b10b      	cbz	r3, 800079e <Vector6C+0x1e>
 800079a:	6850      	ldr	r0, [r2, #4]
 800079c:	4798      	blx	r3
 800079e:	f7ff feff 	bl	80005a0 <_dbg_check_leave_isr>
 80007a2:	e8bd 4008 	ldmia.w	sp!, {r3, lr}
 80007a6:	f7ff bdcb 	b.w	8000340 <_port_irq_epilogue>
 80007aa:	bf00      	nop
 80007ac:	40026000 	.word	0x40026000
 80007b0:	20000e30 	.word	0x20000e30
	...

080007c0 <_dbg_check_unlock_from_isr>:
 80007c0:	4b06      	ldr	r3, [pc, #24]	; (80007dc <_dbg_check_unlock_from_isr+0x1c>)
 80007c2:	6ada      	ldr	r2, [r3, #44]	; 0x2c
 80007c4:	2a00      	cmp	r2, #0
 80007c6:	dd05      	ble.n	80007d4 <_dbg_check_unlock_from_isr+0x14>
 80007c8:	6b1a      	ldr	r2, [r3, #48]	; 0x30
 80007ca:	2a00      	cmp	r2, #0
 80007cc:	dd02      	ble.n	80007d4 <_dbg_check_unlock_from_isr+0x14>
 80007ce:	2200      	movs	r2, #0
 80007d0:	631a      	str	r2, [r3, #48]	; 0x30
 80007d2:	4770      	bx	lr
 80007d4:	b672      	cpsid	i
 80007d6:	4a02      	ldr	r2, [pc, #8]	; (80007e0 <_dbg_check_unlock_from_isr+0x20>)
 80007d8:	629a      	str	r2, [r3, #40]	; 0x28
 80007da:	e7fe      	b.n	80007da <_dbg_check_unlock_from_isr+0x1a>
 80007dc:	20000838 	.word	0x20000838
 80007e0:	08001b20 	.word	0x08001b20
	...

080007f0 <_dbg_check_lock_from_isr>:
 80007f0:	4b06      	ldr	r3, [pc, #24]	; (800080c <_dbg_check_lock_from_isr+0x1c>)
 80007f2:	6ada      	ldr	r2, [r3, #44]	; 0x2c
 80007f4:	2a00      	cmp	r2, #0
 80007f6:	dd01      	ble.n	80007fc <_dbg_check_lock_from_isr+0xc>
 80007f8:	6b1a      	ldr	r2, [r3, #48]	; 0x30
 80007fa:	b11a      	cbz	r2, 8000804 <_dbg_check_lock_from_isr+0x14>
 80007fc:	b672      	cpsid	i
 80007fe:	4a04      	ldr	r2, [pc, #16]	; (8000810 <_dbg_check_lock_from_isr+0x20>)
 8000800:	629a      	str	r2, [r3, #40]	; 0x28
 8000802:	e7fe      	b.n	8000802 <_dbg_check_lock_from_isr+0x12>
 8000804:	2201      	movs	r2, #1
 8000806:	631a      	str	r2, [r3, #48]	; 0x30
 8000808:	4770      	bx	lr
 800080a:	bf00      	nop
 800080c:	20000838 	.word	0x20000838
 8000810:	08001b00 	.word	0x08001b00
	...

08000820 <adc_lld_serve_rx_interrupt>:
 8000820:	e92d 41f0 	stmdb	sp!, {r4, r5, r6, r7, r8, lr}
 8000824:	070e      	lsls	r6, r1, #28
 8000826:	4604      	mov	r4, r0
 8000828:	6903      	ldr	r3, [r0, #16]
 800082a:	d531      	bpl.n	8000890 <adc_lld_serve_rx_interrupt+0x70>
 800082c:	6ac2      	ldr	r2, [r0, #44]	; 0x2c
 800082e:	689d      	ldr	r5, [r3, #8]
 8000830:	e9d2 1600 	ldrd	r1, r6, [r2]
 8000834:	680b      	ldr	r3, [r1, #0]
 8000836:	f023 030f 	bic.w	r3, r3, #15
 800083a:	600b      	str	r3, [r1, #0]
 800083c:	7a11      	ldrb	r1, [r2, #8]
 800083e:	6a83      	ldr	r3, [r0, #40]	; 0x28
 8000840:	220f      	movs	r2, #15
 8000842:	408a      	lsls	r2, r1
 8000844:	6032      	str	r2, [r6, #0]
 8000846:	2100      	movs	r1, #0
 8000848:	2201      	movs	r2, #1
 800084a:	6059      	str	r1, [r3, #4]
 800084c:	6099      	str	r1, [r3, #8]
 800084e:	609a      	str	r2, [r3, #8]
 8000850:	b13d      	cbz	r5, 8000862 <adc_lld_serve_rx_interrupt+0x42>
 8000852:	2305      	movs	r3, #5
 8000854:	7003      	strb	r3, [r0, #0]
 8000856:	47a8      	blx	r5
 8000858:	7823      	ldrb	r3, [r4, #0]
 800085a:	2b05      	cmp	r3, #5
 800085c:	bf04      	itt	eq
 800085e:	2302      	moveq	r3, #2
 8000860:	7023      	strbeq	r3, [r4, #0]
 8000862:	2500      	movs	r5, #0
 8000864:	6125      	str	r5, [r4, #16]
 8000866:	2320      	movs	r3, #32
 8000868:	f383 8811 	msr	BASEPRI, r3
 800086c:	f7ff fe10 	bl	8000490 <_stats_start_measure_crit_isr>
 8000870:	f7ff ffbe 	bl	80007f0 <_dbg_check_lock_from_isr>
 8000874:	f104 0014 	add.w	r0, r4, #20
 8000878:	f04f 31ff 	mov.w	r1, #4294967295	; 0xffffffff
 800087c:	f7ff fe78 	bl	8000570 <chThdResumeI>
 8000880:	f7ff ff9e 	bl	80007c0 <_dbg_check_unlock_from_isr>
 8000884:	f7ff fdf4 	bl	8000470 <_stats_stop_measure_crit_isr>
 8000888:	f385 8811 	msr	BASEPRI, r5
 800088c:	e8bd 81f0 	ldmia.w	sp!, {r4, r5, r6, r7, r8, pc}
 8000890:	2b00      	cmp	r3, #0
 8000892:	d0fb      	beq.n	800088c <adc_lld_serve_rx_interrupt+0x6c>
 8000894:	078d      	lsls	r5, r1, #30
 8000896:	d511      	bpl.n	80008bc <adc_lld_serve_rx_interrupt+0x9c>
 8000898:	781a      	ldrb	r2, [r3, #0]
 800089a:	685d      	ldr	r5, [r3, #4]
 800089c:	b1ca      	cbz	r2, 80008d2 <adc_lld_serve_rx_interrupt+0xb2>
 800089e:	2d00      	cmp	r5, #0
 80008a0:	d0f4      	beq.n	800088c <adc_lld_serve_rx_interrupt+0x6c>
 80008a2:	e9d0 1202 	ldrd	r1, r2, [r0, #8]
 80008a6:	2a01      	cmp	r2, #1
 80008a8:	d942      	bls.n	8000930 <adc_lld_serve_rx_interrupt+0x110>
 80008aa:	885b      	ldrh	r3, [r3, #2]
 80008ac:	0852      	lsrs	r2, r2, #1
 80008ae:	0054      	lsls	r4, r2, #1
 80008b0:	fb04 1103 	mla	r1, r4, r3, r1
 80008b4:	462b      	mov	r3, r5
 80008b6:	e8bd 41f0 	ldmia.w	sp!, {r4, r5, r6, r7, r8, lr}
 80008ba:	4718      	bx	r3
 80008bc:	074a      	lsls	r2, r1, #29
 80008be:	d5e5      	bpl.n	800088c <adc_lld_serve_rx_interrupt+0x6c>
 80008c0:	685b      	ldr	r3, [r3, #4]
 80008c2:	2b00      	cmp	r3, #0
 80008c4:	d0e2      	beq.n	800088c <adc_lld_serve_rx_interrupt+0x6c>
 80008c6:	e9d0 1202 	ldrd	r1, r2, [r0, #8]
 80008ca:	e8bd 41f0 	ldmia.w	sp!, {r4, r5, r6, r7, r8, lr}
 80008ce:	0852      	lsrs	r2, r2, #1
 80008d0:	4718      	bx	r3
 80008d2:	e9d0 360a 	ldrd	r3, r6, [r0, #40]	; 0x28
 80008d6:	6837      	ldr	r7, [r6, #0]
 80008d8:	6839      	ldr	r1, [r7, #0]
 80008da:	f021 010f 	bic.w	r1, r1, #15
 80008de:	6039      	str	r1, [r7, #0]
 80008e0:	f896 c008 	ldrb.w	ip, [r6, #8]
 80008e4:	6877      	ldr	r7, [r6, #4]
 80008e6:	210f      	movs	r1, #15
 80008e8:	fa01 f10c 	lsl.w	r1, r1, ip
 80008ec:	2601      	movs	r6, #1
 80008ee:	6039      	str	r1, [r7, #0]
 80008f0:	605a      	str	r2, [r3, #4]
 80008f2:	609a      	str	r2, [r3, #8]
 80008f4:	609e      	str	r6, [r3, #8]
 80008f6:	b1fd      	cbz	r5, 8000938 <adc_lld_serve_rx_interrupt+0x118>
 80008f8:	2304      	movs	r3, #4
 80008fa:	7003      	strb	r3, [r0, #0]
 80008fc:	e9d0 1202 	ldrd	r1, r2, [r0, #8]
 8000900:	47a8      	blx	r5
 8000902:	7823      	ldrb	r3, [r4, #0]
 8000904:	2b04      	cmp	r3, #4
 8000906:	d017      	beq.n	8000938 <adc_lld_serve_rx_interrupt+0x118>
 8000908:	2320      	movs	r3, #32
 800090a:	f383 8811 	msr	BASEPRI, r3
 800090e:	f7ff fdbf 	bl	8000490 <_stats_start_measure_crit_isr>
 8000912:	f7ff ff6d 	bl	80007f0 <_dbg_check_lock_from_isr>
 8000916:	f104 0014 	add.w	r0, r4, #20
 800091a:	2100      	movs	r1, #0
 800091c:	f7ff fe28 	bl	8000570 <chThdResumeI>
 8000920:	f7ff ff4e 	bl	80007c0 <_dbg_check_unlock_from_isr>
 8000924:	f7ff fda4 	bl	8000470 <_stats_stop_measure_crit_isr>
 8000928:	2300      	movs	r3, #0
 800092a:	f383 8811 	msr	BASEPRI, r3
 800092e:	e7ad      	b.n	800088c <adc_lld_serve_rx_interrupt+0x6c>
 8000930:	462b      	mov	r3, r5
 8000932:	e8bd 41f0 	ldmia.w	sp!, {r4, r5, r6, r7, r8, lr}
 8000936:	4718      	bx	r3
 8000938:	2202      	movs	r2, #2
 800093a:	2300      	movs	r3, #0
 800093c:	7022      	strb	r2, [r4, #0]
 800093e:	6123      	str	r3, [r4, #16]
 8000940:	e7e2      	b.n	8000908 <adc_lld_serve_rx_interrupt+0xe8>
 8000942:	bf00      	nop
	...

08000950 <Vector88>:
 8000950:	b570      	push	{r4, r5, r6, lr}
 8000952:	f7ff fd35 	bl	80003c0 <_stats_increase_irq>
 8000956:	f7ff fe3b 	bl	80005d0 <_dbg_check_enter_isr>
 800095a:	4b20      	ldr	r3, [pc, #128]	; (80009dc <Vector88+0x8c>)
 800095c:	6819      	ldr	r1, [r3, #0]
 800095e:	2200      	movs	r2, #0
 8000960:	601a      	str	r2, [r3, #0]
 8000962:	068b      	lsls	r3, r1, #26
 8000964:	d533      	bpl.n	80009ce <Vector88+0x7e>
 8000966:	4c1e      	ldr	r4, [pc, #120]	; (80009e0 <Vector88+0x90>)
 8000968:	6ae3      	ldr	r3, [r4, #44]	; 0x2c
 800096a:	6819      	ldr	r1, [r3, #0]
 800096c:	6848      	ldr	r0, [r1, #4]
 800096e:	b370      	cbz	r0, 80009ce <Vector88+0x7e>
 8000970:	6925      	ldr	r5, [r4, #16]
 8000972:	b365      	cbz	r5, 80009ce <Vector88+0x7e>
 8000974:	6808      	ldr	r0, [r1, #0]
 8000976:	68ad      	ldr	r5, [r5, #8]
 8000978:	685e      	ldr	r6, [r3, #4]
 800097a:	f020 000f 	bic.w	r0, r0, #15
 800097e:	6008      	str	r0, [r1, #0]
 8000980:	7a19      	ldrb	r1, [r3, #8]
 8000982:	6aa3      	ldr	r3, [r4, #40]	; 0x28
 8000984:	200f      	movs	r0, #15
 8000986:	4088      	lsls	r0, r1
 8000988:	2101      	movs	r1, #1
 800098a:	6030      	str	r0, [r6, #0]
 800098c:	605a      	str	r2, [r3, #4]
 800098e:	609a      	str	r2, [r3, #8]
 8000990:	6099      	str	r1, [r3, #8]
 8000992:	b145      	cbz	r5, 80009a6 <Vector88+0x56>
 8000994:	2305      	movs	r3, #5
 8000996:	7023      	strb	r3, [r4, #0]
 8000998:	4620      	mov	r0, r4
 800099a:	47a8      	blx	r5
 800099c:	7823      	ldrb	r3, [r4, #0]
 800099e:	2b05      	cmp	r3, #5
 80009a0:	bf04      	itt	eq
 80009a2:	2302      	moveq	r3, #2
 80009a4:	7023      	strbeq	r3, [r4, #0]
 80009a6:	2500      	movs	r5, #0
 80009a8:	6125      	str	r5, [r4, #16]
 80009aa:	2320      	movs	r3, #32
 80009ac:	f383 8811 	msr	BASEPRI, r3
 80009b0:	f7ff fd6e 	bl	8000490 <_stats_start_measure_crit_isr>
 80009b4:	f7ff ff1c 	bl	80007f0 <_dbg_check_lock_from_isr>
 80009b8:	f04f 31ff 	mov.w	r1, #4294967295	; 0xffffffff
 80009bc:	4809      	ldr	r0, [pc, #36]	; (80009e4 <Vector88+0x94>)
 80009be:	f7ff fdd7 	bl	8000570 <chThdResumeI>
 80009c2:	f7ff fefd 	bl	80007c0 <_dbg_check_unlock_from_isr>
 80009c6:	f7ff fd53 	bl	8000470 <_stats_stop_measure_crit_isr>
 80009ca:	f385 8811 	msr	BASEPRI, r5
 80009ce:	f7ff fde7 	bl	80005a0 <_dbg_check_leave_isr>
 80009d2:	e8bd 4070 	ldmia.w	sp!, {r4, r5, r6, lr}
 80009d6:	f7ff bcb3 	b.w	8000340 <_port_irq_epilogue>
 80009da:	bf00      	nop
 80009dc:	40012400 	.word	0x40012400
 80009e0:	20000800 	.word	0x20000800
 80009e4:	20000814 	.word	0x20000814
	...

080009f0 <VectorB0>:
 80009f0:	e92d 47f0 	stmdb	sp!, {r4, r5, r6, r7, r8, r9, sl, lr}
 80009f4:	f04f 4680 	mov.w	r6, #1073741824	; 0x40000000
 80009f8:	f7ff fce2 	bl	80003c0 <_stats_increase_irq>
 80009fc:	f7ff fde8 	bl	80005d0 <_dbg_check_enter_isr>
 8000a00:	6933      	ldr	r3, [r6, #16]
 8000a02:	079b      	lsls	r3, r3, #30
 8000a04:	d405      	bmi.n	8000a12 <VectorB0+0x22>
 8000a06:	f7ff fdcb 	bl	80005a0 <_dbg_check_leave_isr>
 8000a0a:	e8bd 47f0 	ldmia.w	sp!, {r4, r5, r6, r7, r8, r9, sl, lr}
 8000a0e:	f7ff bc97 	b.w	8000340 <_port_irq_epilogue>
 8000a12:	2700      	movs	r7, #0
 8000a14:	6137      	str	r7, [r6, #16]
 8000a16:	f04f 0820 	mov.w	r8, #32
 8000a1a:	f388 8811 	msr	BASEPRI, r8
 8000a1e:	4c31      	ldr	r4, [pc, #196]	; (8000ae4 <VectorB0+0xf4>)
 8000a20:	f7ff fd36 	bl	8000490 <_stats_start_measure_crit_isr>
 8000a24:	f7ff fee4 	bl	80007f0 <_dbg_check_lock_from_isr>
 8000a28:	f7ff fd6a 	bl	8000500 <chDbgCheckClassI>
 8000a2c:	f7ff fd68 	bl	8000500 <chDbgCheckClassI>
 8000a30:	6a73      	ldr	r3, [r6, #36]	; 0x24
 8000a32:	8ce1      	ldrh	r1, [r4, #38]	; 0x26
 8000a34:	69e5      	ldr	r5, [r4, #28]
 8000a36:	b29b      	uxth	r3, r3
 8000a38:	1a58      	subs	r0, r3, r1
 8000a3a:	892a      	ldrh	r2, [r5, #8]
 8000a3c:	b280      	uxth	r0, r0
 8000a3e:	4290      	cmp	r0, r2
 8000a40:	d34d      	bcc.n	8000ade <VectorB0+0xee>
 8000a42:	46b9      	mov	r9, r7
 8000a44:	4637      	mov	r7, r6
 8000a46:	f104 061c 	add.w	r6, r4, #28
 8000a4a:	682b      	ldr	r3, [r5, #0]
 8000a4c:	f8d5 a00c 	ldr.w	sl, [r5, #12]
 8000a50:	440a      	add	r2, r1
 8000a52:	42b3      	cmp	r3, r6
 8000a54:	84e2      	strh	r2, [r4, #38]	; 0x26
 8000a56:	605e      	str	r6, [r3, #4]
 8000a58:	61e3      	str	r3, [r4, #28]
 8000a5a:	f8c5 900c 	str.w	r9, [r5, #12]
 8000a5e:	bf08      	it	eq
 8000a60:	f8c7 900c 	streq.w	r9, [r7, #12]
 8000a64:	f7ff feac 	bl	80007c0 <_dbg_check_unlock_from_isr>
 8000a68:	f7ff fd02 	bl	8000470 <_stats_stop_measure_crit_isr>
 8000a6c:	f389 8811 	msr	BASEPRI, r9
 8000a70:	6928      	ldr	r0, [r5, #16]
 8000a72:	47d0      	blx	sl
 8000a74:	f388 8811 	msr	BASEPRI, r8
 8000a78:	f7ff fd0a 	bl	8000490 <_stats_start_measure_crit_isr>
 8000a7c:	f7ff feb8 	bl	80007f0 <_dbg_check_lock_from_isr>
 8000a80:	6a7b      	ldr	r3, [r7, #36]	; 0x24
 8000a82:	8ce1      	ldrh	r1, [r4, #38]	; 0x26
 8000a84:	69e5      	ldr	r5, [r4, #28]
 8000a86:	b29b      	uxth	r3, r3
 8000a88:	1a58      	subs	r0, r3, r1
 8000a8a:	892a      	ldrh	r2, [r5, #8]
 8000a8c:	b280      	uxth	r0, r0
 8000a8e:	4282      	cmp	r2, r0
 8000a90:	d9db      	bls.n	8000a4a <VectorB0+0x5a>
 8000a92:	42b5      	cmp	r5, r6
 8000a94:	d016      	beq.n	8000ac4 <VectorB0+0xd4>
 8000a96:	440a      	add	r2, r1
 8000a98:	1ad2      	subs	r2, r2, r3
 8000a9a:	b292      	uxth	r2, r2
 8000a9c:	2a02      	cmp	r2, #2
 8000a9e:	bf2c      	ite	cs
 8000aa0:	1899      	addcs	r1, r3, r2
 8000aa2:	1c99      	addcc	r1, r3, #2
 8000aa4:	b288      	uxth	r0, r1
 8000aa6:	f7ff fc3b 	bl	8000320 <stSetAlarm>
 8000aaa:	f04f 4380 	mov.w	r3, #1073741824	; 0x40000000
 8000aae:	8ce0      	ldrh	r0, [r4, #38]	; 0x26
 8000ab0:	6a5a      	ldr	r2, [r3, #36]	; 0x24
 8000ab2:	b292      	uxth	r2, r2
 8000ab4:	1a0b      	subs	r3, r1, r0
 8000ab6:	1a12      	subs	r2, r2, r0
 8000ab8:	429a      	cmp	r2, r3
 8000aba:	dd03      	ble.n	8000ac4 <VectorB0+0xd4>
 8000abc:	b672      	cpsid	i
 8000abe:	4b0a      	ldr	r3, [pc, #40]	; (8000ae8 <VectorB0+0xf8>)
 8000ac0:	62a3      	str	r3, [r4, #40]	; 0x28
 8000ac2:	e7fe      	b.n	8000ac2 <VectorB0+0xd2>
 8000ac4:	f7ff fe7c 	bl	80007c0 <_dbg_check_unlock_from_isr>
 8000ac8:	f7ff fcd2 	bl	8000470 <_stats_stop_measure_crit_isr>
 8000acc:	2300      	movs	r3, #0
 8000ace:	f383 8811 	msr	BASEPRI, r3
 8000ad2:	f7ff fd65 	bl	80005a0 <_dbg_check_leave_isr>
 8000ad6:	e8bd 47f0 	ldmia.w	sp!, {r4, r5, r6, r7, r8, r9, sl, lr}
 8000ada:	f7ff bc31 	b.w	8000340 <_port_irq_epilogue>
 8000ade:	f104 061c 	add.w	r6, r4, #28
 8000ae2:	e7d6      	b.n	8000a92 <VectorB0+0xa2>
 8000ae4:	20000838 	.word	0x20000838
 8000ae8:	080019c0 	.word	0x080019c0
 8000aec:	00000000 	.word	0x00000000

08000af0 <wakeup>:
 8000af0:	b508      	push	{r3, lr}
 8000af2:	4601      	mov	r1, r0
 8000af4:	2320      	movs	r3, #32
 8000af6:	f383 8811 	msr	BASEPRI, r3
 8000afa:	f7ff fcc9 	bl	8000490 <_stats_start_measure_crit_isr>
 8000afe:	f7ff fe77 	bl	80007f0 <_dbg_check_lock_from_isr>
 8000b02:	f891 3020 	ldrb.w	r3, [r1, #32]
 8000b06:	2b07      	cmp	r3, #7
 8000b08:	d810      	bhi.n	8000b2c <wakeup+0x3c>
 8000b0a:	e8df f003 	tbb	[pc, r3]
 8000b0e:	0f15      	.short	0x0f15
 8000b10:	040a1d0f 	.word	0x040a1d0f
 8000b14:	0a0f      	.short	0x0a0f
 8000b16:	6a48      	ldr	r0, [r1, #36]	; 0x24
 8000b18:	f7ff fcf2 	bl	8000500 <chDbgCheckClassI>
 8000b1c:	6883      	ldr	r3, [r0, #8]
 8000b1e:	3301      	adds	r3, #1
 8000b20:	6083      	str	r3, [r0, #8]
 8000b22:	e9d1 2300 	ldrd	r2, r3, [r1]
 8000b26:	601a      	str	r2, [r3, #0]
 8000b28:	680a      	ldr	r2, [r1, #0]
 8000b2a:	6053      	str	r3, [r2, #4]
 8000b2c:	f04f 33ff 	mov.w	r3, #4294967295	; 0xffffffff
 8000b30:	624b      	str	r3, [r1, #36]	; 0x24
 8000b32:	4608      	mov	r0, r1
 8000b34:	f7ff fcf4 	bl	8000520 <chSchReadyI>
 8000b38:	f7ff fe42 	bl	80007c0 <_dbg_check_unlock_from_isr>
 8000b3c:	f7ff fc98 	bl	8000470 <_stats_stop_measure_crit_isr>
 8000b40:	2300      	movs	r3, #0
 8000b42:	f383 8811 	msr	BASEPRI, r3
 8000b46:	bd08      	pop	{r3, pc}
 8000b48:	6a4b      	ldr	r3, [r1, #36]	; 0x24
 8000b4a:	2200      	movs	r2, #0
 8000b4c:	601a      	str	r2, [r3, #0]
 8000b4e:	f04f 33ff 	mov.w	r3, #4294967295	; 0xffffffff
 8000b52:	624b      	str	r3, [r1, #36]	; 0x24
 8000b54:	4608      	mov	r0, r1
 8000b56:	f7ff fce3 	bl	8000520 <chSchReadyI>
 8000b5a:	e7ed      	b.n	8000b38 <wakeup+0x48>
 8000b5c:	0000      	movs	r0, r0
	...

08000b60 <BusFault_Handler>:
 8000b60:	b672      	cpsid	i
 8000b62:	4b02      	ldr	r3, [pc, #8]	; (8000b6c <BusFault_Handler+0xc>)
 8000b64:	4a02      	ldr	r2, [pc, #8]	; (8000b70 <BusFault_Handler+0x10>)
 8000b66:	629a      	str	r2, [r3, #40]	; 0x28
 8000b68:	e7fe      	b.n	8000b68 <BusFault_Handler+0x8>
 8000b6a:	bf00      	nop
 8000b6c:	20000838 	.word	0x20000838
 8000b70:	08001b90 	.word	0x08001b90
	...

08000b80 <chSchWakeupS>:
 8000b80:	b570      	push	{r4, r5, r6, lr}
 8000b82:	4d19      	ldr	r5, [pc, #100]	; (8000be8 <chSchWakeupS+0x68>)
 8000b84:	4604      	mov	r4, r0
 8000b86:	f7ff fcab 	bl	80004e0 <chDbgCheckClassS>
 8000b8a:	69a8      	ldr	r0, [r5, #24]
 8000b8c:	68a2      	ldr	r2, [r4, #8]
 8000b8e:	6883      	ldr	r3, [r0, #8]
 8000b90:	6261      	str	r1, [r4, #36]	; 0x24
 8000b92:	429a      	cmp	r2, r3
 8000b94:	d91e      	bls.n	8000bd4 <chSchWakeupS+0x54>
 8000b96:	f7ff fcc3 	bl	8000520 <chSchReadyI>
 8000b9a:	2301      	movs	r3, #1
 8000b9c:	f884 3020 	strb.w	r3, [r4, #32]
 8000ba0:	4606      	mov	r6, r0
 8000ba2:	61ac      	str	r4, [r5, #24]
 8000ba4:	f7ff fc7c 	bl	80004a0 <_dbg_trace>
 8000ba8:	f8d5 34ac 	ldr.w	r3, [r5, #1196]	; 0x4ac
 8000bac:	3048      	adds	r0, #72	; 0x48
 8000bae:	3301      	adds	r3, #1
 8000bb0:	f104 0148 	add.w	r1, r4, #72	; 0x48
 8000bb4:	f8c5 34ac 	str.w	r3, [r5, #1196]	; 0x4ac
 8000bb8:	f7ff fc12 	bl	80003e0 <chTMChainMeasurementToX>
 8000bbc:	f3ef 8309 	mrs	r3, PSP
 8000bc0:	69f2      	ldr	r2, [r6, #28]
 8000bc2:	3b24      	subs	r3, #36	; 0x24
 8000bc4:	429a      	cmp	r2, r3
 8000bc6:	d80a      	bhi.n	8000bde <chSchWakeupS+0x5e>
 8000bc8:	4631      	mov	r1, r6
 8000bca:	4620      	mov	r0, r4
 8000bcc:	e8bd 4070 	ldmia.w	sp!, {r4, r5, r6, lr}
 8000bd0:	f7ff bb16 	b.w	8000200 <_port_switch>
 8000bd4:	4620      	mov	r0, r4
 8000bd6:	e8bd 4070 	ldmia.w	sp!, {r4, r5, r6, lr}
 8000bda:	f7ff bca1 	b.w	8000520 <chSchReadyI>
 8000bde:	b672      	cpsid	i
 8000be0:	4b02      	ldr	r3, [pc, #8]	; (8000bec <chSchWakeupS+0x6c>)
 8000be2:	62ab      	str	r3, [r5, #40]	; 0x28
 8000be4:	e7fe      	b.n	8000be4 <chSchWakeupS+0x64>
 8000be6:	bf00      	nop
 8000be8:	20000838 	.word	0x20000838
 8000bec:	08001c50 	.word	0x08001c50

08000bf0 <chSchGoSleepS>:
 8000bf0:	b538      	push	{r3, r4, r5, lr}
 8000bf2:	4c16      	ldr	r4, [pc, #88]	; (8000c4c <chSchGoSleepS+0x5c>)
 8000bf4:	f7ff fc74 	bl	80004e0 <chDbgCheckClassS>
 8000bf8:	69a5      	ldr	r5, [r4, #24]
 8000bfa:	6823      	ldr	r3, [r4, #0]
 8000bfc:	f885 0020 	strb.w	r0, [r5, #32]
 8000c00:	681a      	ldr	r2, [r3, #0]
 8000c02:	6022      	str	r2, [r4, #0]
 8000c04:	2101      	movs	r1, #1
 8000c06:	6054      	str	r4, [r2, #4]
 8000c08:	4628      	mov	r0, r5
 8000c0a:	f883 1020 	strb.w	r1, [r3, #32]
 8000c0e:	61a3      	str	r3, [r4, #24]
 8000c10:	f7ff fc46 	bl	80004a0 <_dbg_trace>
 8000c14:	f8d4 34ac 	ldr.w	r3, [r4, #1196]	; 0x4ac
 8000c18:	69a1      	ldr	r1, [r4, #24]
 8000c1a:	3301      	adds	r3, #1
 8000c1c:	f105 0048 	add.w	r0, r5, #72	; 0x48
 8000c20:	3148      	adds	r1, #72	; 0x48
 8000c22:	f8c4 34ac 	str.w	r3, [r4, #1196]	; 0x4ac
 8000c26:	f7ff fbdb 	bl	80003e0 <chTMChainMeasurementToX>
 8000c2a:	f3ef 8309 	mrs	r3, PSP
 8000c2e:	69ea      	ldr	r2, [r5, #28]
 8000c30:	3b24      	subs	r3, #36	; 0x24
 8000c32:	429a      	cmp	r2, r3
 8000c34:	d805      	bhi.n	8000c42 <chSchGoSleepS+0x52>
 8000c36:	4629      	mov	r1, r5
 8000c38:	69a0      	ldr	r0, [r4, #24]
 8000c3a:	e8bd 4038 	ldmia.w	sp!, {r3, r4, r5, lr}
 8000c3e:	f7ff badf 	b.w	8000200 <_port_switch>
 8000c42:	b672      	cpsid	i
 8000c44:	4b02      	ldr	r3, [pc, #8]	; (8000c50 <chSchGoSleepS+0x60>)
 8000c46:	62a3      	str	r3, [r4, #40]	; 0x28
 8000c48:	e7fe      	b.n	8000c48 <chSchGoSleepS+0x58>
 8000c4a:	bf00      	nop
 8000c4c:	20000838 	.word	0x20000838
 8000c50:	08001c50 	.word	0x08001c50
	...

08000c60 <__early_init>:
 8000c60:	4b38      	ldr	r3, [pc, #224]	; (8000d44 <__early_init+0xe4>)
 8000c62:	4a39      	ldr	r2, [pc, #228]	; (8000d48 <__early_init+0xe8>)
 8000c64:	f04f 5180 	mov.w	r1, #268435456	; 0x10000000
 8000c68:	b430      	push	{r4, r5}
 8000c6a:	6259      	str	r1, [r3, #36]	; 0x24
 8000c6c:	6853      	ldr	r3, [r2, #4]
 8000c6e:	06d9      	lsls	r1, r3, #27
 8000c70:	d4fc      	bmi.n	8000c6c <__early_init+0xc>
 8000c72:	f44f 6300 	mov.w	r3, #2048	; 0x800
 8000c76:	4934      	ldr	r1, [pc, #208]	; (8000d48 <__early_init+0xe8>)
 8000c78:	6013      	str	r3, [r2, #0]
 8000c7a:	684b      	ldr	r3, [r1, #4]
 8000c7c:	f013 0310 	ands.w	r3, r3, #16
 8000c80:	d1fb      	bne.n	8000c7a <__early_init+0x1a>
 8000c82:	4930      	ldr	r1, [pc, #192]	; (8000d44 <__early_init+0xe4>)
 8000c84:	608b      	str	r3, [r1, #8]
 8000c86:	684b      	ldr	r3, [r1, #4]
 8000c88:	f423 4360 	bic.w	r3, r3, #57344	; 0xe000
 8000c8c:	f443 4320 	orr.w	r3, r3, #40960	; 0xa000
 8000c90:	f44f 7080 	mov.w	r0, #256	; 0x100
 8000c94:	604b      	str	r3, [r1, #4]
 8000c96:	460a      	mov	r2, r1
 8000c98:	6008      	str	r0, [r1, #0]
 8000c9a:	6813      	ldr	r3, [r2, #0]
 8000c9c:	059b      	lsls	r3, r3, #22
 8000c9e:	d5fc      	bpl.n	8000c9a <__early_init+0x3a>
 8000ca0:	6813      	ldr	r3, [r2, #0]
 8000ca2:	4928      	ldr	r1, [pc, #160]	; (8000d44 <__early_init+0xe4>)
 8000ca4:	f043 0301 	orr.w	r3, r3, #1
 8000ca8:	6013      	str	r3, [r2, #0]
 8000caa:	680b      	ldr	r3, [r1, #0]
 8000cac:	079d      	lsls	r5, r3, #30
 8000cae:	d5fc      	bpl.n	8000caa <__early_init+0x4a>
 8000cb0:	6b4b      	ldr	r3, [r1, #52]	; 0x34
 8000cb2:	4a24      	ldr	r2, [pc, #144]	; (8000d44 <__early_init+0xe4>)
 8000cb4:	f043 0301 	orr.w	r3, r3, #1
 8000cb8:	634b      	str	r3, [r1, #52]	; 0x34
 8000cba:	6b53      	ldr	r3, [r2, #52]	; 0x34
 8000cbc:	079c      	lsls	r4, r3, #30
 8000cbe:	d5fc      	bpl.n	8000cba <__early_init+0x5a>
 8000cc0:	6b53      	ldr	r3, [r2, #52]	; 0x34
 8000cc2:	05d8      	lsls	r0, r3, #23
 8000cc4:	d40c      	bmi.n	8000ce0 <__early_init+0x80>
 8000cc6:	4b20      	ldr	r3, [pc, #128]	; (8000d48 <__early_init+0xe8>)
 8000cc8:	6819      	ldr	r1, [r3, #0]
 8000cca:	f441 7180 	orr.w	r1, r1, #256	; 0x100
 8000cce:	6019      	str	r1, [r3, #0]
 8000cd0:	6b51      	ldr	r1, [r2, #52]	; 0x34
 8000cd2:	f441 7180 	orr.w	r1, r1, #256	; 0x100
 8000cd6:	6351      	str	r1, [r2, #52]	; 0x34
 8000cd8:	681a      	ldr	r2, [r3, #0]
 8000cda:	f422 7280 	bic.w	r2, r2, #256	; 0x100
 8000cde:	601a      	str	r2, [r3, #0]
 8000ce0:	4a18      	ldr	r2, [pc, #96]	; (8000d44 <__early_init+0xe4>)
 8000ce2:	6b53      	ldr	r3, [r2, #52]	; 0x34
 8000ce4:	0599      	lsls	r1, r3, #22
 8000ce6:	d5fc      	bpl.n	8000ce2 <__early_init+0x82>
 8000ce8:	6891      	ldr	r1, [r2, #8]
 8000cea:	4b16      	ldr	r3, [pc, #88]	; (8000d44 <__early_init+0xe4>)
 8000cec:	f441 0108 	orr.w	r1, r1, #8912896	; 0x880000
 8000cf0:	6091      	str	r1, [r2, #8]
 8000cf2:	6811      	ldr	r1, [r2, #0]
 8000cf4:	f041 7180 	orr.w	r1, r1, #16777216	; 0x1000000
 8000cf8:	6011      	str	r1, [r2, #0]
 8000cfa:	681a      	ldr	r2, [r3, #0]
 8000cfc:	0192      	lsls	r2, r2, #6
 8000cfe:	d5fc      	bpl.n	8000cfa <__early_init+0x9a>
 8000d00:	681a      	ldr	r2, [r3, #0]
 8000d02:	601a      	str	r2, [r3, #0]
 8000d04:	689a      	ldr	r2, [r3, #8]
 8000d06:	609a      	str	r2, [r3, #8]
 8000d08:	6b59      	ldr	r1, [r3, #52]	; 0x34
 8000d0a:	4810      	ldr	r0, [pc, #64]	; (8000d4c <__early_init+0xec>)
 8000d0c:	4a0d      	ldr	r2, [pc, #52]	; (8000d44 <__early_init+0xe4>)
 8000d0e:	f441 3180 	orr.w	r1, r1, #65536	; 0x10000
 8000d12:	2504      	movs	r5, #4
 8000d14:	2407      	movs	r4, #7
 8000d16:	6359      	str	r1, [r3, #52]	; 0x34
 8000d18:	6005      	str	r5, [r0, #0]
 8000d1a:	6004      	str	r4, [r0, #0]
 8000d1c:	6899      	ldr	r1, [r3, #8]
 8000d1e:	f041 0103 	orr.w	r1, r1, #3
 8000d22:	6099      	str	r1, [r3, #8]
 8000d24:	6893      	ldr	r3, [r2, #8]
 8000d26:	f003 030c 	and.w	r3, r3, #12
 8000d2a:	2b0c      	cmp	r3, #12
 8000d2c:	d1fa      	bne.n	8000d24 <__early_init+0xc4>
 8000d2e:	6a13      	ldr	r3, [r2, #32]
 8000d30:	f043 0301 	orr.w	r3, r3, #1
 8000d34:	6213      	str	r3, [r2, #32]
 8000d36:	6ad3      	ldr	r3, [r2, #44]	; 0x2c
 8000d38:	f043 0301 	orr.w	r3, r3, #1
 8000d3c:	62d3      	str	r3, [r2, #44]	; 0x2c
 8000d3e:	bc30      	pop	{r4, r5}
 8000d40:	4770      	bx	lr
 8000d42:	bf00      	nop
 8000d44:	40023800 	.word	0x40023800
 8000d48:	40007000 	.word	0x40007000
 8000d4c:	40023c00 	.word	0x40023c00

08000d50 <_stats_stop_measure_crit_thd>:
 8000d50:	4801      	ldr	r0, [pc, #4]	; (8000d58 <_stats_stop_measure_crit_thd+0x8>)
 8000d52:	f7ff bb65 	b.w	8000420 <chTMStopMeasurementX>
 8000d56:	bf00      	nop
 8000d58:	20000ce8 	.word	0x20000ce8
 8000d5c:	00000000 	.word	0x00000000

08000d60 <_stats_start_measure_crit_thd>:
 8000d60:	4801      	ldr	r0, [pc, #4]	; (8000d68 <_stats_start_measure_crit_thd+0x8>)
 8000d62:	f7ff bb8d 	b.w	8000480 <chTMStartMeasurementX>
 8000d66:	bf00      	nop
 8000d68:	20000ce8 	.word	0x20000ce8
 8000d6c:	00000000 	.word	0x00000000

08000d70 <chSchDoReschedule>:
 8000d70:	b570      	push	{r4, r5, r6, lr}
 8000d72:	4c1b      	ldr	r4, [pc, #108]	; (8000de0 <chSchDoReschedule+0x70>)
 8000d74:	6822      	ldr	r2, [r4, #0]
 8000d76:	69a5      	ldr	r5, [r4, #24]
 8000d78:	6813      	ldr	r3, [r2, #0]
 8000d7a:	68ae      	ldr	r6, [r5, #8]
 8000d7c:	6023      	str	r3, [r4, #0]
 8000d7e:	2001      	movs	r0, #1
 8000d80:	2100      	movs	r1, #0
 8000d82:	605c      	str	r4, [r3, #4]
 8000d84:	f882 0020 	strb.w	r0, [r2, #32]
 8000d88:	61a2      	str	r2, [r4, #24]
 8000d8a:	f885 1020 	strb.w	r1, [r5, #32]
 8000d8e:	e000      	b.n	8000d92 <chSchDoReschedule+0x22>
 8000d90:	681b      	ldr	r3, [r3, #0]
 8000d92:	689a      	ldr	r2, [r3, #8]
 8000d94:	4296      	cmp	r6, r2
 8000d96:	d3fb      	bcc.n	8000d90 <chSchDoReschedule+0x20>
 8000d98:	685a      	ldr	r2, [r3, #4]
 8000d9a:	4628      	mov	r0, r5
 8000d9c:	e9c5 3200 	strd	r3, r2, [r5]
 8000da0:	6015      	str	r5, [r2, #0]
 8000da2:	605d      	str	r5, [r3, #4]
 8000da4:	f7ff fb7c 	bl	80004a0 <_dbg_trace>
 8000da8:	f8d4 34ac 	ldr.w	r3, [r4, #1196]	; 0x4ac
 8000dac:	69a1      	ldr	r1, [r4, #24]
 8000dae:	3301      	adds	r3, #1
 8000db0:	3148      	adds	r1, #72	; 0x48
 8000db2:	f105 0048 	add.w	r0, r5, #72	; 0x48
 8000db6:	f8c4 34ac 	str.w	r3, [r4, #1196]	; 0x4ac
 8000dba:	f7ff fb11 	bl	80003e0 <chTMChainMeasurementToX>
 8000dbe:	f3ef 8309 	mrs	r3, PSP
 8000dc2:	69ea      	ldr	r2, [r5, #28]
 8000dc4:	3b24      	subs	r3, #36	; 0x24
 8000dc6:	429a      	cmp	r2, r3
 8000dc8:	d805      	bhi.n	8000dd6 <chSchDoReschedule+0x66>
 8000dca:	4629      	mov	r1, r5
 8000dcc:	69a0      	ldr	r0, [r4, #24]
 8000dce:	e8bd 4070 	ldmia.w	sp!, {r4, r5, r6, lr}
 8000dd2:	f7ff ba15 	b.w	8000200 <_port_switch>
 8000dd6:	b672      	cpsid	i
 8000dd8:	4b02      	ldr	r3, [pc, #8]	; (8000de4 <chSchDoReschedule+0x74>)
 8000dda:	62a3      	str	r3, [r4, #40]	; 0x28
 8000ddc:	e7fe      	b.n	8000ddc <chSchDoReschedule+0x6c>
 8000dde:	bf00      	nop
 8000de0:	20000838 	.word	0x20000838
 8000de4:	08001c50 	.word	0x08001c50
	...

08000df0 <_dbg_check_unlock>:
 8000df0:	4b05      	ldr	r3, [pc, #20]	; (8000e08 <_dbg_check_unlock+0x18>)
 8000df2:	6ada      	ldr	r2, [r3, #44]	; 0x2c
 8000df4:	b922      	cbnz	r2, 8000e00 <_dbg_check_unlock+0x10>
 8000df6:	6b19      	ldr	r1, [r3, #48]	; 0x30
 8000df8:	2900      	cmp	r1, #0
 8000dfa:	dd01      	ble.n	8000e00 <_dbg_check_unlock+0x10>
 8000dfc:	631a      	str	r2, [r3, #48]	; 0x30
 8000dfe:	4770      	bx	lr
 8000e00:	b672      	cpsid	i
 8000e02:	4a02      	ldr	r2, [pc, #8]	; (8000e0c <_dbg_check_unlock+0x1c>)
 8000e04:	629a      	str	r2, [r3, #40]	; 0x28
 8000e06:	e7fe      	b.n	8000e06 <_dbg_check_unlock+0x16>
 8000e08:	20000838 	.word	0x20000838
 8000e0c:	08001b10 	.word	0x08001b10

08000e10 <chSysUnlock.lto_priv.21>:
 8000e10:	b508      	push	{r3, lr}
 8000e12:	f7ff ffed 	bl	8000df0 <_dbg_check_unlock>
 8000e16:	f7ff ff9b 	bl	8000d50 <_stats_stop_measure_crit_thd>
 8000e1a:	4b08      	ldr	r3, [pc, #32]	; (8000e3c <chSysUnlock.lto_priv.21+0x2c>)
 8000e1c:	681a      	ldr	r2, [r3, #0]
 8000e1e:	429a      	cmp	r2, r3
 8000e20:	d004      	beq.n	8000e2c <chSysUnlock.lto_priv.21+0x1c>
 8000e22:	6999      	ldr	r1, [r3, #24]
 8000e24:	6892      	ldr	r2, [r2, #8]
 8000e26:	6889      	ldr	r1, [r1, #8]
 8000e28:	4291      	cmp	r1, r2
 8000e2a:	d303      	bcc.n	8000e34 <chSysUnlock.lto_priv.21+0x24>
 8000e2c:	2300      	movs	r3, #0
 8000e2e:	f383 8811 	msr	BASEPRI, r3
 8000e32:	bd08      	pop	{r3, pc}
 8000e34:	b672      	cpsid	i
 8000e36:	4a02      	ldr	r2, [pc, #8]	; (8000e40 <chSysUnlock.lto_priv.21+0x30>)
 8000e38:	629a      	str	r2, [r3, #40]	; 0x28
 8000e3a:	e7fe      	b.n	8000e3a <chSysUnlock.lto_priv.21+0x2a>
 8000e3c:	20000838 	.word	0x20000838
 8000e40:	080019b0 	.word	0x080019b0
	...

08000e50 <_dbg_check_lock>:
 8000e50:	4b05      	ldr	r3, [pc, #20]	; (8000e68 <_dbg_check_lock+0x18>)
 8000e52:	6ada      	ldr	r2, [r3, #44]	; 0x2c
 8000e54:	b90a      	cbnz	r2, 8000e5a <_dbg_check_lock+0xa>
 8000e56:	6b1a      	ldr	r2, [r3, #48]	; 0x30
 8000e58:	b11a      	cbz	r2, 8000e62 <_dbg_check_lock+0x12>
 8000e5a:	b672      	cpsid	i
 8000e5c:	4a03      	ldr	r2, [pc, #12]	; (8000e6c <_dbg_check_lock+0x1c>)
 8000e5e:	629a      	str	r2, [r3, #40]	; 0x28
 8000e60:	e7fe      	b.n	8000e60 <_dbg_check_lock+0x10>
 8000e62:	2201      	movs	r2, #1
 8000e64:	631a      	str	r2, [r3, #48]	; 0x30
 8000e66:	4770      	bx	lr
 8000e68:	20000838 	.word	0x20000838
 8000e6c:	08001af0 	.word	0x08001af0

08000e70 <chThdCreateStatic.constprop.17>:
 8000e70:	e92d 43f8 	stmdb	sp!, {r3, r4, r5, r6, r7, r8, r9, lr}
 8000e74:	4605      	mov	r5, r0
 8000e76:	f100 0660 	add.w	r6, r0, #96	; 0x60
 8000e7a:	4604      	mov	r4, r0
 8000e7c:	4617      	mov	r7, r2
 8000e7e:	4698      	mov	r8, r3
 8000e80:	20ff      	movs	r0, #255	; 0xff
 8000e82:	f804 0b01 	strb.w	r0, [r4], #1
 8000e86:	42a6      	cmp	r6, r4
 8000e88:	d1fb      	bne.n	8000e82 <chThdCreateStatic.constprop.17+0x12>
 8000e8a:	186a      	adds	r2, r5, r1
 8000e8c:	4294      	cmp	r4, r2
 8000e8e:	d205      	bcs.n	8000e9c <chThdCreateStatic.constprop.17+0x2c>
 8000e90:	4620      	mov	r0, r4
 8000e92:	2355      	movs	r3, #85	; 0x55
 8000e94:	f800 3b01 	strb.w	r3, [r0], #1
 8000e98:	4282      	cmp	r2, r0
 8000e9a:	d1fb      	bne.n	8000e94 <chThdCreateStatic.constprop.17+0x24>
 8000e9c:	2320      	movs	r3, #32
 8000e9e:	f383 8811 	msr	BASEPRI, r3
 8000ea2:	f7ff ff5d 	bl	8000d60 <_stats_start_measure_crit_thd>
 8000ea6:	f7ff ffd3 	bl	8000e50 <_dbg_check_lock>
 8000eaa:	f7ff fb29 	bl	8000500 <chDbgCheckClassI>
 8000eae:	3924      	subs	r1, #36	; 0x24
 8000eb0:	1868      	adds	r0, r5, r1
 8000eb2:	60e8      	str	r0, [r5, #12]
 8000eb4:	4e23      	ldr	r6, [pc, #140]	; (8000f44 <chThdCreateStatic.constprop.17+0xd4>)
 8000eb6:	f845 8001 	str.w	r8, [r5, r1]
 8000eba:	4a23      	ldr	r2, [pc, #140]	; (8000f48 <chThdCreateStatic.constprop.17+0xd8>)
 8000ebc:	6202      	str	r2, [r0, #32]
 8000ebe:	2100      	movs	r1, #0
 8000ec0:	6041      	str	r1, [r0, #4]
 8000ec2:	612e      	str	r6, [r5, #16]
 8000ec4:	6972      	ldr	r2, [r6, #20]
 8000ec6:	61a9      	str	r1, [r5, #24]
 8000ec8:	2302      	movs	r3, #2
 8000eca:	2001      	movs	r0, #1
 8000ecc:	e9c5 110e 	strd	r1, r1, [r5, #56]	; 0x38
 8000ed0:	616a      	str	r2, [r5, #20]
 8000ed2:	60af      	str	r7, [r5, #8]
 8000ed4:	842b      	strh	r3, [r5, #32]
 8000ed6:	f885 0022 	strb.w	r0, [r5, #34]	; 0x22
 8000eda:	f105 0328 	add.w	r3, r5, #40	; 0x28
 8000ede:	642f      	str	r7, [r5, #64]	; 0x40
 8000ee0:	f04f 30ff 	mov.w	r0, #4294967295	; 0xffffffff
 8000ee4:	6115      	str	r5, [r2, #16]
 8000ee6:	f04f 0800 	mov.w	r8, #0
 8000eea:	f105 022c 	add.w	r2, r5, #44	; 0x2c
 8000eee:	f04f 0900 	mov.w	r9, #0
 8000ef2:	62ab      	str	r3, [r5, #40]	; 0x28
 8000ef4:	e9c5 1113 	strd	r1, r1, [r5, #76]	; 0x4c
 8000ef8:	6569      	str	r1, [r5, #84]	; 0x54
 8000efa:	e9c5 220b 	strd	r2, r2, [r5, #44]	; 0x2c
 8000efe:	64a8      	str	r0, [r5, #72]	; 0x48
 8000f00:	61ec      	str	r4, [r5, #28]
 8000f02:	f105 0048 	add.w	r0, r5, #72	; 0x48
 8000f06:	e9c5 8916 	strd	r8, r9, [r5, #88]	; 0x58
 8000f0a:	6175      	str	r5, [r6, #20]
 8000f0c:	f7ff fab8 	bl	8000480 <chTMStartMeasurementX>
 8000f10:	4628      	mov	r0, r5
 8000f12:	f7ff fe35 	bl	8000b80 <chSchWakeupS>
 8000f16:	f7ff ff6b 	bl	8000df0 <_dbg_check_unlock>
 8000f1a:	f7ff ff19 	bl	8000d50 <_stats_stop_measure_crit_thd>
 8000f1e:	6833      	ldr	r3, [r6, #0]
 8000f20:	42b3      	cmp	r3, r6
 8000f22:	d004      	beq.n	8000f2e <chThdCreateStatic.constprop.17+0xbe>
 8000f24:	69b2      	ldr	r2, [r6, #24]
 8000f26:	689b      	ldr	r3, [r3, #8]
 8000f28:	6892      	ldr	r2, [r2, #8]
 8000f2a:	429a      	cmp	r2, r3
 8000f2c:	d305      	bcc.n	8000f3a <chThdCreateStatic.constprop.17+0xca>
 8000f2e:	2300      	movs	r3, #0
 8000f30:	f383 8811 	msr	BASEPRI, r3
 8000f34:	4628      	mov	r0, r5
 8000f36:	e8bd 83f8 	ldmia.w	sp!, {r3, r4, r5, r6, r7, r8, r9, pc}
 8000f3a:	b672      	cpsid	i
 8000f3c:	4b03      	ldr	r3, [pc, #12]	; (8000f4c <chThdCreateStatic.constprop.17+0xdc>)
 8000f3e:	62b3      	str	r3, [r6, #40]	; 0x28
 8000f40:	e7fe      	b.n	8000f40 <chThdCreateStatic.constprop.17+0xd0>
 8000f42:	bf00      	nop
 8000f44:	20000838 	.word	0x20000838
 8000f48:	08000211 	.word	0x08000211
 8000f4c:	08001990 	.word	0x08001990

08000f50 <chCoreAlloc>:
 8000f50:	b510      	push	{r4, lr}
 8000f52:	4601      	mov	r1, r0
 8000f54:	2320      	movs	r3, #32
 8000f56:	f383 8811 	msr	BASEPRI, r3
 8000f5a:	f7ff ff01 	bl	8000d60 <_stats_start_measure_crit_thd>
 8000f5e:	f7ff ff77 	bl	8000e50 <_dbg_check_lock>
 8000f62:	f7ff facd 	bl	8000500 <chDbgCheckClassI>
 8000f66:	4811      	ldr	r0, [pc, #68]	; (8000fac <chCoreAlloc+0x5c>)
 8000f68:	4b11      	ldr	r3, [pc, #68]	; (8000fb0 <chCoreAlloc+0x60>)
 8000f6a:	6804      	ldr	r4, [r0, #0]
 8000f6c:	681a      	ldr	r2, [r3, #0]
 8000f6e:	1dcb      	adds	r3, r1, #7
 8000f70:	f023 0307 	bic.w	r3, r3, #7
 8000f74:	1b12      	subs	r2, r2, r4
 8000f76:	4293      	cmp	r3, r2
 8000f78:	bf9a      	itte	ls
 8000f7a:	191b      	addls	r3, r3, r4
 8000f7c:	6003      	strls	r3, [r0, #0]
 8000f7e:	2400      	movhi	r4, #0
 8000f80:	f7ff ff36 	bl	8000df0 <_dbg_check_unlock>
 8000f84:	f7ff fee4 	bl	8000d50 <_stats_stop_measure_crit_thd>
 8000f88:	4b0a      	ldr	r3, [pc, #40]	; (8000fb4 <chCoreAlloc+0x64>)
 8000f8a:	681a      	ldr	r2, [r3, #0]
 8000f8c:	429a      	cmp	r2, r3
 8000f8e:	d004      	beq.n	8000f9a <chCoreAlloc+0x4a>
 8000f90:	6999      	ldr	r1, [r3, #24]
 8000f92:	6892      	ldr	r2, [r2, #8]
 8000f94:	6889      	ldr	r1, [r1, #8]
 8000f96:	4291      	cmp	r1, r2
 8000f98:	d304      	bcc.n	8000fa4 <chCoreAlloc+0x54>
 8000f9a:	2300      	movs	r3, #0
 8000f9c:	f383 8811 	msr	BASEPRI, r3
 8000fa0:	4620      	mov	r0, r4
 8000fa2:	bd10      	pop	{r4, pc}
 8000fa4:	b672      	cpsid	i
 8000fa6:	4a04      	ldr	r2, [pc, #16]	; (8000fb8 <chCoreAlloc+0x68>)
 8000fa8:	629a      	str	r2, [r3, #40]	; 0x28
 8000faa:	e7fe      	b.n	8000faa <chCoreAlloc+0x5a>
 8000fac:	20000e70 	.word	0x20000e70
 8000fb0:	20000e6c 	.word	0x20000e6c
 8000fb4:	20000838 	.word	0x20000838
 8000fb8:	080019a0 	.word	0x080019a0
 8000fbc:	00000000 	.word	0x00000000

08000fc0 <chThdExit>:
 8000fc0:	b508      	push	{r3, lr}
 8000fc2:	4601      	mov	r1, r0
 8000fc4:	2320      	movs	r3, #32
 8000fc6:	f383 8811 	msr	BASEPRI, r3
 8000fca:	4d11      	ldr	r5, [pc, #68]	; (8001010 <chThdExit+0x50>)
 8000fcc:	f7ff fec8 	bl	8000d60 <_stats_start_measure_crit_thd>
 8000fd0:	f7ff ff3e 	bl	8000e50 <_dbg_check_lock>
 8000fd4:	69ac      	ldr	r4, [r5, #24]
 8000fd6:	6aa0      	ldr	r0, [r4, #40]	; 0x28
 8000fd8:	6261      	str	r1, [r4, #36]	; 0x24
 8000fda:	f104 0628 	add.w	r6, r4, #40	; 0x28
 8000fde:	42b0      	cmp	r0, r6
 8000fe0:	d006      	beq.n	8000ff0 <chThdExit+0x30>
 8000fe2:	6802      	ldr	r2, [r0, #0]
 8000fe4:	62a2      	str	r2, [r4, #40]	; 0x28
 8000fe6:	f7ff fa9b 	bl	8000520 <chSchReadyI>
 8000fea:	6aa0      	ldr	r0, [r4, #40]	; 0x28
 8000fec:	42b0      	cmp	r0, r6
 8000fee:	d1f8      	bne.n	8000fe2 <chThdExit+0x22>
 8000ff0:	f894 3021 	ldrb.w	r3, [r4, #33]	; 0x21
 8000ff4:	079b      	lsls	r3, r3, #30
 8000ff6:	d104      	bne.n	8001002 <chThdExit+0x42>
 8000ff8:	e9d4 2304 	ldrd	r2, r3, [r4, #16]
 8000ffc:	611a      	str	r2, [r3, #16]
 8000ffe:	6922      	ldr	r2, [r4, #16]
 8001000:	6153      	str	r3, [r2, #20]
 8001002:	200f      	movs	r0, #15
 8001004:	f7ff fdf4 	bl	8000bf0 <chSchGoSleepS>
 8001008:	b672      	cpsid	i
 800100a:	4b02      	ldr	r3, [pc, #8]	; (8001014 <chThdExit+0x54>)
 800100c:	62ab      	str	r3, [r5, #40]	; 0x28
 800100e:	e7fe      	b.n	800100e <chThdExit+0x4e>
 8001010:	20000838 	.word	0x20000838
 8001014:	080019e0 	.word	0x080019e0
	...

08001020 <chThdSleep>:
 8001020:	b5f0      	push	{r4, r5, r6, r7, lr}
 8001022:	4601      	mov	r1, r0
 8001024:	b087      	sub	sp, #28
 8001026:	2320      	movs	r3, #32
 8001028:	f383 8811 	msr	BASEPRI, r3
 800102c:	4c50      	ldr	r4, [pc, #320]	; (8001170 <chThdSleep+0x150>)
 800102e:	4625      	mov	r5, r4
 8001030:	f7ff fe96 	bl	8000d60 <_stats_start_measure_crit_thd>
 8001034:	f7ff ff0c 	bl	8000e50 <_dbg_check_lock>
 8001038:	f7ff fa52 	bl	80004e0 <chDbgCheckClassS>
 800103c:	f7ff fa60 	bl	8000500 <chDbgCheckClassI>
 8001040:	f04f 4280 	mov.w	r2, #1073741824	; 0x40000000
 8001044:	f855 0f1c 	ldr.w	r0, [r5, #28]!
 8001048:	6a53      	ldr	r3, [r2, #36]	; 0x24
 800104a:	69a6      	ldr	r6, [r4, #24]
 800104c:	9605      	str	r6, [sp, #20]
 800104e:	42a8      	cmp	r0, r5
 8001050:	4e48      	ldr	r6, [pc, #288]	; (8001174 <chThdSleep+0x154>)
 8001052:	9604      	str	r6, [sp, #16]
 8001054:	b29b      	uxth	r3, r3
 8001056:	d020      	beq.n	800109a <chThdSleep+0x7a>
 8001058:	440b      	add	r3, r1
 800105a:	8ce1      	ldrh	r1, [r4, #38]	; 0x26
 800105c:	8902      	ldrh	r2, [r0, #8]
 800105e:	b298      	uxth	r0, r3
 8001060:	1a41      	subs	r1, r0, r1
 8001062:	b289      	uxth	r1, r1
 8001064:	428a      	cmp	r2, r1
 8001066:	d87c      	bhi.n	8001162 <chThdSleep+0x142>
 8001068:	69e3      	ldr	r3, [r4, #28]
 800106a:	891a      	ldrh	r2, [r3, #8]
 800106c:	428a      	cmp	r2, r1
 800106e:	d205      	bcs.n	800107c <chThdSleep+0x5c>
 8001070:	681b      	ldr	r3, [r3, #0]
 8001072:	1a89      	subs	r1, r1, r2
 8001074:	891a      	ldrh	r2, [r3, #8]
 8001076:	b289      	uxth	r1, r1
 8001078:	428a      	cmp	r2, r1
 800107a:	d3f9      	bcc.n	8001070 <chThdSleep+0x50>
 800107c:	685a      	ldr	r2, [r3, #4]
 800107e:	9202      	str	r2, [sp, #8]
 8001080:	ae01      	add	r6, sp, #4
 8001082:	9301      	str	r3, [sp, #4]
 8001084:	6016      	str	r6, [r2, #0]
 8001086:	605e      	str	r6, [r3, #4]
 8001088:	f8ad 100c 	strh.w	r1, [sp, #12]
 800108c:	891a      	ldrh	r2, [r3, #8]
 800108e:	1a51      	subs	r1, r2, r1
 8001090:	f64f 72ff 	movw	r2, #65535	; 0xffff
 8001094:	8119      	strh	r1, [r3, #8]
 8001096:	84a2      	strh	r2, [r4, #36]	; 0x24
 8001098:	e011      	b.n	80010be <chThdSleep+0x9e>
 800109a:	68d7      	ldr	r7, [r2, #12]
 800109c:	84e3      	strh	r3, [r4, #38]	; 0x26
 800109e:	ae01      	add	r6, sp, #4
 80010a0:	440b      	add	r3, r1
 80010a2:	f017 0702 	ands.w	r7, r7, #2
 80010a6:	b29b      	uxth	r3, r3
 80010a8:	e9cd 0001 	strd	r0, r0, [sp, #4]
 80010ac:	f8ad 100c 	strh.w	r1, [sp, #12]
 80010b0:	e9c4 6607 	strd	r6, r6, [r4, #28]
 80010b4:	d132      	bne.n	800111c <chThdSleep+0xfc>
 80010b6:	2102      	movs	r1, #2
 80010b8:	6353      	str	r3, [r2, #52]	; 0x34
 80010ba:	6117      	str	r7, [r2, #16]
 80010bc:	60d1      	str	r1, [r2, #12]
 80010be:	2008      	movs	r0, #8
 80010c0:	f7ff fd96 	bl	8000bf0 <chSchGoSleepS>
 80010c4:	f7ff fa1c 	bl	8000500 <chDbgCheckClassI>
 80010c8:	9b04      	ldr	r3, [sp, #16]
 80010ca:	b193      	cbz	r3, 80010f2 <chThdSleep+0xd2>
 80010cc:	f7ff fa18 	bl	8000500 <chDbgCheckClassI>
 80010d0:	69e3      	ldr	r3, [r4, #28]
 80010d2:	9801      	ldr	r0, [sp, #4]
 80010d4:	42b3      	cmp	r3, r6
 80010d6:	d025      	beq.n	8001124 <chThdSleep+0x104>
 80010d8:	9a02      	ldr	r2, [sp, #8]
 80010da:	6010      	str	r0, [r2, #0]
 80010dc:	9b01      	ldr	r3, [sp, #4]
 80010de:	2100      	movs	r1, #0
 80010e0:	42ab      	cmp	r3, r5
 80010e2:	605a      	str	r2, [r3, #4]
 80010e4:	9104      	str	r1, [sp, #16]
 80010e6:	d004      	beq.n	80010f2 <chThdSleep+0xd2>
 80010e8:	891a      	ldrh	r2, [r3, #8]
 80010ea:	f8bd 100c 	ldrh.w	r1, [sp, #12]
 80010ee:	440a      	add	r2, r1
 80010f0:	811a      	strh	r2, [r3, #8]
 80010f2:	f7ff fe7d 	bl	8000df0 <_dbg_check_unlock>
 80010f6:	f7ff fe2b 	bl	8000d50 <_stats_stop_measure_crit_thd>
 80010fa:	6823      	ldr	r3, [r4, #0]
 80010fc:	42a3      	cmp	r3, r4
 80010fe:	d004      	beq.n	800110a <chThdSleep+0xea>
 8001100:	69a2      	ldr	r2, [r4, #24]
 8001102:	689b      	ldr	r3, [r3, #8]
 8001104:	6892      	ldr	r2, [r2, #8]
 8001106:	429a      	cmp	r2, r3
 8001108:	d304      	bcc.n	8001114 <chThdSleep+0xf4>
 800110a:	2300      	movs	r3, #0
 800110c:	f383 8811 	msr	BASEPRI, r3
 8001110:	b007      	add	sp, #28
 8001112:	bdf0      	pop	{r4, r5, r6, r7, pc}
 8001114:	b672      	cpsid	i
 8001116:	4b18      	ldr	r3, [pc, #96]	; (8001178 <chThdSleep+0x158>)
 8001118:	62a3      	str	r3, [r4, #40]	; 0x28
 800111a:	e7fe      	b.n	800111a <chThdSleep+0xfa>
 800111c:	b672      	cpsid	i
 800111e:	4b17      	ldr	r3, [pc, #92]	; (800117c <chThdSleep+0x15c>)
 8001120:	62a3      	str	r3, [r4, #40]	; 0x28
 8001122:	e7fe      	b.n	8001122 <chThdSleep+0x102>
 8001124:	2300      	movs	r3, #0
 8001126:	42a8      	cmp	r0, r5
 8001128:	61e0      	str	r0, [r4, #28]
 800112a:	6045      	str	r5, [r0, #4]
 800112c:	9304      	str	r3, [sp, #16]
 800112e:	d01b      	beq.n	8001168 <chThdSleep+0x148>
 8001130:	f04f 4380 	mov.w	r3, #1073741824	; 0x40000000
 8001134:	8ce1      	ldrh	r1, [r4, #38]	; 0x26
 8001136:	6a5a      	ldr	r2, [r3, #36]	; 0x24
 8001138:	f8bd 500c 	ldrh.w	r5, [sp, #12]
 800113c:	8903      	ldrh	r3, [r0, #8]
 800113e:	b292      	uxth	r2, r2
 8001140:	1a51      	subs	r1, r2, r1
 8001142:	442b      	add	r3, r5
 8001144:	b29b      	uxth	r3, r3
 8001146:	b289      	uxth	r1, r1
 8001148:	428b      	cmp	r3, r1
 800114a:	8103      	strh	r3, [r0, #8]
 800114c:	d9d1      	bls.n	80010f2 <chThdSleep+0xd2>
 800114e:	1a5b      	subs	r3, r3, r1
 8001150:	b29b      	uxth	r3, r3
 8001152:	2b02      	cmp	r3, #2
 8001154:	bf2c      	ite	cs
 8001156:	18d3      	addcs	r3, r2, r3
 8001158:	1c93      	addcc	r3, r2, #2
 800115a:	b298      	uxth	r0, r3
 800115c:	f7ff f8e0 	bl	8000320 <stSetAlarm>
 8001160:	e7c7      	b.n	80010f2 <chThdSleep+0xd2>
 8001162:	f7ff f8dd 	bl	8000320 <stSetAlarm>
 8001166:	e77f      	b.n	8001068 <chThdSleep+0x48>
 8001168:	f04f 4280 	mov.w	r2, #1073741824	; 0x40000000
 800116c:	60d3      	str	r3, [r2, #12]
 800116e:	e7c0      	b.n	80010f2 <chThdSleep+0xd2>
 8001170:	20000838 	.word	0x20000838
 8001174:	08000af1 	.word	0x08000af1
 8001178:	08001990 	.word	0x08001990
 800117c:	08001a20 	.word	0x08001a20

08001180 <main>:
 8001180:	4b22      	ldr	r3, [pc, #136]	; (800120c <main+0x8c>)
 8001182:	4823      	ldr	r0, [pc, #140]	; (8001210 <main+0x90>)
 8001184:	6919      	ldr	r1, [r3, #16]
 8001186:	2200      	movs	r2, #0
 8001188:	f461 4100 	orn	r1, r1, #32768	; 0x8000
 800118c:	e92d 4880 	stmdb	sp!, {r7, fp, lr}
 8001190:	6119      	str	r1, [r3, #16]
 8001192:	611a      	str	r2, [r3, #16]
 8001194:	6999      	ldr	r1, [r3, #24]
 8001196:	f061 5180 	orn	r1, r1, #268435456	; 0x10000000
 800119a:	6199      	str	r1, [r3, #24]
 800119c:	619a      	str	r2, [r3, #24]
 800119e:	f04f 31ff 	mov.w	r1, #4294967295	; 0xffffffff
 80011a2:	695c      	ldr	r4, [r3, #20]
 80011a4:	6159      	str	r1, [r3, #20]
 80011a6:	615a      	str	r2, [r3, #20]
 80011a8:	6a5a      	ldr	r2, [r3, #36]	; 0x24
 80011aa:	f042 5280 	orr.w	r2, r2, #268435456	; 0x10000000
 80011ae:	625a      	str	r2, [r3, #36]	; 0x24
 80011b0:	6802      	ldr	r2, [r0, #0]
 80011b2:	f442 7280 	orr.w	r2, r2, #256	; 0x100
 80011b6:	6002      	str	r2, [r0, #0]
 80011b8:	6b5a      	ldr	r2, [r3, #52]	; 0x34
 80011ba:	f402 3240 	and.w	r2, r2, #196608	; 0x30000
 80011be:	f5b2 3f80 	cmp.w	r2, #65536	; 0x10000
 80011c2:	b089      	sub	sp, #36	; 0x24
 80011c4:	d007      	beq.n	80011d6 <main+0x56>
 80011c6:	6b5a      	ldr	r2, [r3, #52]	; 0x34
 80011c8:	f442 0200 	orr.w	r2, r2, #8388608	; 0x800000
 80011cc:	635a      	str	r2, [r3, #52]	; 0x34
 80011ce:	6b5a      	ldr	r2, [r3, #52]	; 0x34
 80011d0:	f422 0200 	bic.w	r2, r2, #8388608	; 0x800000
 80011d4:	635a      	str	r2, [r3, #52]	; 0x34
 80011d6:	4b0d      	ldr	r3, [pc, #52]	; (800120c <main+0x8c>)
 80011d8:	6b5a      	ldr	r2, [r3, #52]	; 0x34
 80011da:	f442 7280 	orr.w	r2, r2, #256	; 0x100
 80011de:	635a      	str	r2, [r3, #52]	; 0x34
 80011e0:	6b5a      	ldr	r2, [r3, #52]	; 0x34
 80011e2:	0594      	lsls	r4, r2, #22
 80011e4:	d5fc      	bpl.n	80011e0 <main+0x60>
 80011e6:	6b5a      	ldr	r2, [r3, #52]	; 0x34
 80011e8:	0250      	lsls	r0, r2, #9
 80011ea:	d407      	bmi.n	80011fc <main+0x7c>
 80011ec:	6b5a      	ldr	r2, [r3, #52]	; 0x34
 80011ee:	f442 3280 	orr.w	r2, r2, #65536	; 0x10000
 80011f2:	635a      	str	r2, [r3, #52]	; 0x34
 80011f4:	6b5a      	ldr	r2, [r3, #52]	; 0x34
 80011f6:	f442 0280 	orr.w	r2, r2, #4194304	; 0x400000
 80011fa:	635a      	str	r2, [r3, #52]	; 0x34
 80011fc:	4805      	ldr	r0, [pc, #20]	; (8001214 <main+0x94>)
 80011fe:	4a06      	ldr	r2, [pc, #24]	; (8001218 <main+0x98>)
 8001200:	4906      	ldr	r1, [pc, #24]	; (800121c <main+0x9c>)
 8001202:	2300      	movs	r3, #0
 8001204:	6003      	str	r3, [r0, #0]
 8001206:	461d      	mov	r5, r3
 8001208:	e00c      	b.n	8001224 <main+0xa4>
 800120a:	bf00      	nop
 800120c:	40023800 	.word	0x40023800
 8001210:	40007000 	.word	0x40007000
 8001214:	20000e68 	.word	0x20000e68
 8001218:	08001b3c 	.word	0x08001b3c
 800121c:	40026008 	.word	0x40026008
 8001220:	f852 1c0c 	ldr.w	r1, [r2, #-12]
 8001224:	600d      	str	r5, [r1, #0]
 8001226:	49cd      	ldr	r1, [pc, #820]	; (800155c <main+0x3dc>)
 8001228:	f841 5033 	str.w	r5, [r1, r3, lsl #3]
 800122c:	3301      	adds	r3, #1
 800122e:	2b07      	cmp	r3, #7
 8001230:	f102 020c 	add.w	r2, r2, #12
 8001234:	d1f4      	bne.n	8001220 <main+0xa0>
 8001236:	4bca      	ldr	r3, [pc, #808]	; (8001560 <main+0x3e0>)
 8001238:	f8df a35c 	ldr.w	sl, [pc, #860]	; 8001598 <main+0x418>
 800123c:	f8df 835c 	ldr.w	r8, [pc, #860]	; 800159c <main+0x41c>
 8001240:	f8df 935c 	ldr.w	r9, [pc, #860]	; 80015a0 <main+0x420>
 8001244:	4ac7      	ldr	r2, [pc, #796]	; (8001564 <main+0x3e4>)
 8001246:	f8df e35c 	ldr.w	lr, [pc, #860]	; 80015a4 <main+0x424>
 800124a:	f8df c35c 	ldr.w	ip, [pc, #860]	; 80015a8 <main+0x428>
 800124e:	4cc6      	ldr	r4, [pc, #792]	; (8001568 <main+0x3e8>)
 8001250:	4fc6      	ldr	r7, [pc, #792]	; (800156c <main+0x3ec>)
 8001252:	f8df b358 	ldr.w	fp, [pc, #856]	; 80015ac <main+0x42c>
 8001256:	48c6      	ldr	r0, [pc, #792]	; (8001570 <main+0x3f0>)
 8001258:	4ec6      	ldr	r6, [pc, #792]	; (8001574 <main+0x3f4>)
 800125a:	f04f 31ff 	mov.w	r1, #4294967295	; 0xffffffff
 800125e:	6059      	str	r1, [r3, #4]
 8001260:	f8da 301c 	ldr.w	r3, [sl, #28]
 8001264:	f043 033f 	orr.w	r3, r3, #63	; 0x3f
 8001268:	f8ca 301c 	str.w	r3, [sl, #28]
 800126c:	f8da 3028 	ldr.w	r3, [sl, #40]	; 0x28
 8001270:	f043 033f 	orr.w	r3, r3, #63	; 0x3f
 8001274:	f8ca 3028 	str.w	r3, [sl, #40]	; 0x28
 8001278:	f8da 3028 	ldr.w	r3, [sl, #40]	; 0x28
 800127c:	f043 033f 	orr.w	r3, r3, #63	; 0x3f
 8001280:	f8ca 3028 	str.w	r3, [sl, #40]	; 0x28
 8001284:	f04f 437c 	mov.w	r3, #4227858432	; 0xfc000000
 8001288:	f8c8 5004 	str.w	r5, [r8, #4]
 800128c:	f8c8 3008 	str.w	r3, [r8, #8]
 8001290:	f8c8 900c 	str.w	r9, [r8, #12]
 8001294:	f64f 73ff 	movw	r3, #65535	; 0xffff
 8001298:	f04f 4928 	mov.w	r9, #2818572288	; 0xa8000000
 800129c:	f8c8 3014 	str.w	r3, [r8, #20]
 80012a0:	f8c8 5020 	str.w	r5, [r8, #32]
 80012a4:	f8c8 5024 	str.w	r5, [r8, #36]	; 0x24
 80012a8:	f8c8 9000 	str.w	r9, [r8]
 80012ac:	f24f 38f0 	movw	r8, #62448	; 0xf3f0
 80012b0:	6055      	str	r5, [r2, #4]
 80012b2:	f44f 49a5 	mov.w	r9, #21120	; 0x5280
 80012b6:	f8c2 8008 	str.w	r8, [r2, #8]
 80012ba:	f64f 783f 	movw	r8, #65343	; 0xff3f
 80012be:	f8c2 b00c 	str.w	fp, [r2, #12]
 80012c2:	f8c2 8014 	str.w	r8, [r2, #20]
 80012c6:	f04f 0b0f 	mov.w	fp, #15
 80012ca:	6215      	str	r5, [r2, #32]
 80012cc:	f04f 4870 	mov.w	r8, #4026531840	; 0xf0000000
 80012d0:	6255      	str	r5, [r2, #36]	; 0x24
 80012d2:	f8c2 9000 	str.w	r9, [r2]
 80012d6:	f04f 3955 	mov.w	r9, #1431655765	; 0x55555555
 80012da:	4aa7      	ldr	r2, [pc, #668]	; (8001578 <main+0x3f8>)
 80012dc:	607d      	str	r5, [r7, #4]
 80012de:	f8c7 8008 	str.w	r8, [r7, #8]
 80012e2:	60fa      	str	r2, [r7, #12]
 80012e4:	617b      	str	r3, [r7, #20]
 80012e6:	623d      	str	r5, [r7, #32]
 80012e8:	627d      	str	r5, [r7, #36]	; 0x24
 80012ea:	603d      	str	r5, [r7, #0]
 80012ec:	f8ce 5004 	str.w	r5, [lr, #4]
 80012f0:	f8ce 5008 	str.w	r5, [lr, #8]
 80012f4:	f8ce 900c 	str.w	r9, [lr, #12]
 80012f8:	f8ce 3014 	str.w	r3, [lr, #20]
 80012fc:	f8ce 5020 	str.w	r5, [lr, #32]
 8001300:	f8ce 5024 	str.w	r5, [lr, #36]	; 0x24
 8001304:	f8ce 5000 	str.w	r5, [lr]
 8001308:	f8cc 5004 	str.w	r5, [ip, #4]
 800130c:	f8cc 5008 	str.w	r5, [ip, #8]
 8001310:	f8cc 900c 	str.w	r9, [ip, #12]
 8001314:	f8cc 3014 	str.w	r3, [ip, #20]
 8001318:	f8cc 5020 	str.w	r5, [ip, #32]
 800131c:	f8cc 5024 	str.w	r5, [ip, #36]	; 0x24
 8001320:	f8cc 5000 	str.w	r5, [ip]
 8001324:	6065      	str	r5, [r4, #4]
 8001326:	f8c4 b008 	str.w	fp, [r4, #8]
 800132a:	60e0      	str	r0, [r4, #12]
 800132c:	4893      	ldr	r0, [pc, #588]	; (800157c <main+0x3fc>)
 800132e:	6163      	str	r3, [r4, #20]
 8001330:	2201      	movs	r2, #1
 8001332:	f44f 2e80 	mov.w	lr, #262144	; 0x40000
 8001336:	f04f 0860 	mov.w	r8, #96	; 0x60
 800133a:	6225      	str	r5, [r4, #32]
 800133c:	6265      	str	r5, [r4, #36]	; 0x24
 800133e:	6025      	str	r5, [r4, #0]
 8001340:	7032      	strb	r2, [r6, #0]
 8001342:	f880 8312 	strb.w	r8, [r0, #786]	; 0x312
 8001346:	f8c0 e180 	str.w	lr, [r0, #384]	; 0x180
 800134a:	f8c0 e000 	str.w	lr, [r0]
 800134e:	f8da 4024 	ldr.w	r4, [sl, #36]	; 0x24
 8001352:	f8df e25c 	ldr.w	lr, [pc, #604]	; 80015b0 <main+0x430>
 8001356:	f8df b25c 	ldr.w	fp, [pc, #604]	; 80015b4 <main+0x434>
 800135a:	f8df 925c 	ldr.w	r9, [pc, #604]	; 80015b8 <main+0x438>
 800135e:	6075      	str	r5, [r6, #4]
 8001360:	4314      	orrs	r4, r2
 8001362:	f242 588a 	movw	r8, #9610	; 0x258a
 8001366:	f106 0c18 	add.w	ip, r6, #24
 800136a:	e9c6 b90a 	strd	fp, r9, [r6, #40]	; 0x28
 800136e:	f8c6 8030 	str.w	r8, [r6, #48]	; 0x30
 8001372:	e9c6 cc06 	strd	ip, ip, [r6, #24]
 8001376:	e9c6 5502 	strd	r5, r5, [r6, #8]
 800137a:	e9c6 5504 	strd	r5, r5, [r6, #16]
 800137e:	6235      	str	r5, [r6, #32]
 8001380:	f8ca 4024 	str.w	r4, [sl, #36]	; 0x24
 8001384:	f8de 4008 	ldr.w	r4, [lr, #8]
 8001388:	f8df c230 	ldr.w	ip, [pc, #560]	; 80015bc <main+0x43c>
 800138c:	f8df 8230 	ldr.w	r8, [pc, #560]	; 80015c0 <main+0x440>
 8001390:	f8df 9230 	ldr.w	r9, [pc, #560]	; 80015c4 <main+0x444>
 8001394:	f8df b230 	ldr.w	fp, [pc, #560]	; 80015c8 <main+0x448>
 8001398:	4314      	orrs	r4, r2
 800139a:	f8ce 4008 	str.w	r4, [lr, #8]
 800139e:	f04f 4480 	mov.w	r4, #1073741824	; 0x40000000
 80013a2:	f647 4eff 	movw	lr, #31999	; 0x7cff
 80013a6:	f8c4 e028 	str.w	lr, [r4, #40]	; 0x28
 80013aa:	62e3      	str	r3, [r4, #44]	; 0x2c
 80013ac:	f04f 0e80 	mov.w	lr, #128	; 0x80
 80013b0:	61a5      	str	r5, [r4, #24]
 80013b2:	6365      	str	r5, [r4, #52]	; 0x34
 80013b4:	60e5      	str	r5, [r4, #12]
 80013b6:	6065      	str	r5, [r4, #4]
 80013b8:	6162      	str	r2, [r4, #20]
 80013ba:	6022      	str	r2, [r4, #0]
 80013bc:	f04f 5480 	mov.w	r4, #268435456	; 0x10000000
 80013c0:	9201      	str	r2, [sp, #4]
 80013c2:	f880 e31c 	strb.w	lr, [r0, #796]	; 0x31c
 80013c6:	f8c0 4180 	str.w	r4, [r0, #384]	; 0x180
 80013ca:	6004      	str	r4, [r0, #0]
 80013cc:	f8cc 5008 	str.w	r5, [ip, #8]
 80013d0:	f8dc 000c 	ldr.w	r0, [ip, #12]
 80013d4:	4c6a      	ldr	r4, [pc, #424]	; (8001580 <main+0x400>)
 80013d6:	f64f 0eff 	movw	lr, #63743	; 0xf8ff
 80013da:	ea00 000e 	and.w	r0, r0, lr
 80013de:	ea40 0808 	orr.w	r8, r0, r8
 80013e2:	f8cc 800c 	str.w	r8, [ip, #12]
 80013e6:	f8d9 000c 	ldr.w	r0, [r9, #12]
 80013ea:	6263      	str	r3, [r4, #36]	; 0x24
 80013ec:	f040 7080 	orr.w	r0, r0, #16777216	; 0x1000000
 80013f0:	f8c9 000c 	str.w	r0, [r9, #12]
 80013f4:	f8db 0000 	ldr.w	r0, [fp]
 80013f8:	6064      	str	r4, [r4, #4]
 80013fa:	4310      	orrs	r0, r2
 80013fc:	f104 031c 	add.w	r3, r4, #28
 8001400:	f04f 0e10 	mov.w	lr, #16
 8001404:	60a5      	str	r5, [r4, #8]
 8001406:	e9c4 4404 	strd	r4, r4, [r4, #16]
 800140a:	f8c4 54a0 	str.w	r5, [r4, #1184]	; 0x4a0
 800140e:	f04f 0800 	mov.w	r8, #0
 8001412:	f8cb 0000 	str.w	r0, [fp]
 8001416:	f04f 0900 	mov.w	r9, #0
 800141a:	f04f 0220 	mov.w	r2, #32
 800141e:	a802      	add	r0, sp, #8
 8001420:	f88c e01f 	strb.w	lr, [ip, #31]
 8001424:	f88c 2022 	strb.w	r2, [ip, #34]	; 0x22
 8001428:	61e3      	str	r3, [r4, #28]
 800142a:	9102      	str	r1, [sp, #8]
 800142c:	6024      	str	r4, [r4, #0]
 800142e:	9100      	str	r1, [sp, #0]
 8001430:	6223      	str	r3, [r4, #32]
 8001432:	e9cd 5503 	strd	r5, r5, [sp, #12]
 8001436:	9505      	str	r5, [sp, #20]
 8001438:	e9cd 8906 	strd	r8, r9, [sp, #24]
 800143c:	f7ff f820 	bl	8000480 <chTMStartMeasurementX>
 8001440:	a802      	add	r0, sp, #8
 8001442:	f7fe ffed 	bl	8000420 <chTMStopMeasurementX>
 8001446:	484f      	ldr	r0, [pc, #316]	; (8001584 <main+0x404>)
 8001448:	f8df e180 	ldr.w	lr, [pc, #384]	; 80015cc <main+0x44c>
 800144c:	4b4e      	ldr	r3, [pc, #312]	; (8001588 <main+0x408>)
 800144e:	f8df c180 	ldr.w	ip, [pc, #384]	; 80015d0 <main+0x450>
 8001452:	9a01      	ldr	r2, [sp, #4]
 8001454:	9900      	ldr	r1, [sp, #0]
 8001456:	f884 2462 	strb.w	r2, [r4, #1122]	; 0x462
 800145a:	f020 0b07 	bic.w	fp, r0, #7
 800145e:	f504 6098 	add.w	r0, r4, #1216	; 0x4c0
 8001462:	e9c0 8900 	strd	r8, r9, [r0]
 8001466:	f504 609b 	add.w	r0, r4, #1240	; 0x4d8
 800146a:	e9c0 8900 	strd	r8, r9, [r0]
 800146e:	f104 003c 	add.w	r0, r4, #60	; 0x3c
 8001472:	63a0      	str	r0, [r4, #56]	; 0x38
 8001474:	2002      	movs	r0, #2
 8001476:	f8a4 0460 	strh.w	r0, [r4, #1120]	; 0x460
 800147a:	4844      	ldr	r0, [pc, #272]	; (800158c <main+0x40c>)
 800147c:	9a04      	ldr	r2, [sp, #16]
 800147e:	f8c0 b000 	str.w	fp, [r0]
 8001482:	f02e 0e07 	bic.w	lr, lr, #7
 8001486:	f8cc e000 	str.w	lr, [ip]
 800148a:	f103 0010 	add.w	r0, r3, #16
 800148e:	f04f 0b40 	mov.w	fp, #64	; 0x40
 8001492:	f8df c140 	ldr.w	ip, [pc, #320]	; 80015d4 <main+0x454>
 8001496:	f8c4 24a0 	str.w	r2, [r4, #1184]	; 0x4a0
 800149a:	f8c3 c000 	str.w	ip, [r3]
 800149e:	e9c3 0004 	strd	r0, r0, [r3, #16]
 80014a2:	f8c4 14b0 	str.w	r1, [r4, #1200]	; 0x4b0
 80014a6:	f8c4 14c8 	str.w	r1, [r4, #1224]	; 0x4c8
 80014aa:	e9c3 5502 	strd	r5, r5, [r3, #8]
 80014ae:	619d      	str	r5, [r3, #24]
 80014b0:	f8c4 54a8 	str.w	r5, [r4, #1192]	; 0x4a8
 80014b4:	f8c4 54ac 	str.w	r5, [r4, #1196]	; 0x4ac
 80014b8:	f8c4 54b4 	str.w	r5, [r4, #1204]	; 0x4b4
 80014bc:	f8c4 54b8 	str.w	r5, [r4, #1208]	; 0x4b8
 80014c0:	f8c4 54bc 	str.w	r5, [r4, #1212]	; 0x4bc
 80014c4:	f8c4 54cc 	str.w	r5, [r4, #1228]	; 0x4cc
 80014c8:	f8c4 54d0 	str.w	r5, [r4, #1232]	; 0x4d0
 80014cc:	f8c4 54d4 	str.w	r5, [r4, #1236]	; 0x4d4
 80014d0:	f8c4 547c 	str.w	r5, [r4, #1148]	; 0x47c
 80014d4:	f8c4 5478 	str.w	r5, [r4, #1144]	; 0x478
 80014d8:	f8c4 5458 	str.w	r5, [r4, #1112]	; 0x458
 80014dc:	f8c4 4450 	str.w	r4, [r4, #1104]	; 0x450
 80014e0:	f8c4 b034 	str.w	fp, [r4, #52]	; 0x34
 80014e4:	f8c4 b448 	str.w	fp, [r4, #1096]	; 0x448
 80014e8:	6960      	ldr	r0, [r4, #20]
 80014ea:	f8c4 0454 	str.w	r0, [r4, #1108]	; 0x454
 80014ee:	f504 6388 	add.w	r3, r4, #1088	; 0x440
 80014f2:	f8c4 b480 	str.w	fp, [r4, #1152]	; 0x480
 80014f6:	f504 6e8d 	add.w	lr, r4, #1128	; 0x468
 80014fa:	6103      	str	r3, [r0, #16]
 80014fc:	9300      	str	r3, [sp, #0]
 80014fe:	6163      	str	r3, [r4, #20]
 8001500:	f8c4 1488 	str.w	r1, [r4, #1160]	; 0x488
 8001504:	f504 6394 	add.w	r3, r4, #1184	; 0x4a0
 8001508:	f204 416c 	addw	r1, r4, #1132	; 0x46c
 800150c:	f504 6c93 	add.w	ip, r4, #1176	; 0x498
 8001510:	f504 6091 	add.w	r0, r4, #1160	; 0x488
 8001514:	f8c4 345c 	str.w	r3, [r4, #1116]	; 0x45c
 8001518:	f8c4 146c 	str.w	r1, [r4, #1132]	; 0x46c
 800151c:	f8c4 1470 	str.w	r1, [r4, #1136]	; 0x470
 8001520:	f8c4 548c 	str.w	r5, [r4, #1164]	; 0x48c
 8001524:	f8c4 5490 	str.w	r5, [r4, #1168]	; 0x490
 8001528:	f8c4 5494 	str.w	r5, [r4, #1172]	; 0x494
 800152c:	f8c4 e468 	str.w	lr, [r4, #1128]	; 0x468
 8001530:	e9cc 8900 	strd	r8, r9, [ip]
 8001534:	f7fe ffa4 	bl	8000480 <chTMStartMeasurementX>
 8001538:	6ae1      	ldr	r1, [r4, #44]	; 0x2c
 800153a:	4815      	ldr	r0, [pc, #84]	; (8001590 <main+0x410>)
 800153c:	9b00      	ldr	r3, [sp, #0]
 800153e:	9a01      	ldr	r2, [sp, #4]
 8001540:	61a3      	str	r3, [r4, #24]
 8001542:	f884 2460 	strb.w	r2, [r4, #1120]	; 0x460
 8001546:	f8c4 045c 	str.w	r0, [r4, #1116]	; 0x45c
 800154a:	b911      	cbnz	r1, 8001552 <main+0x3d2>
 800154c:	6b25      	ldr	r5, [r4, #48]	; 0x30
 800154e:	2d00      	cmp	r5, #0
 8001550:	d042      	beq.n	80015d8 <main+0x458>
 8001552:	b672      	cpsid	i
 8001554:	4b0f      	ldr	r3, [pc, #60]	; (8001594 <main+0x414>)
 8001556:	62a3      	str	r3, [r4, #40]	; 0x28
 8001558:	e7fe      	b.n	8001558 <main+0x3d8>
 800155a:	bf00      	nop
 800155c:	20000e30 	.word	0x20000e30
 8001560:	40026000 	.word	0x40026000
 8001564:	40020400 	.word	0x40020400
 8001568:	40021400 	.word	0x40021400
 800156c:	40020800 	.word	0x40020800
 8001570:	55555550 	.word	0x55555550
 8001574:	20000800 	.word	0x20000800
 8001578:	05555555 	.word	0x05555555
 800157c:	e000e100 	.word	0xe000e100
 8001580:	20000838 	.word	0x20000838
 8001584:	20004000 	.word	0x20004000
 8001588:	20000e10 	.word	0x20000e10
 800158c:	20000e6c 	.word	0x20000e6c
 8001590:	20000400 	.word	0x20000400
 8001594:	08001c80 	.word	0x08001c80
 8001598:	40023800 	.word	0x40023800
 800159c:	40020000 	.word	0x40020000
 80015a0:	65555554 	.word	0x65555554
 80015a4:	40020c00 	.word	0x40020c00
 80015a8:	40021000 	.word	0x40021000
 80015ac:	55550505 	.word	0x55550505
 80015b0:	e0042000 	.word	0xe0042000
 80015b4:	40012400 	.word	0x40012400
 80015b8:	08001b30 	.word	0x08001b30
 80015bc:	e000ed00 	.word	0xe000ed00
 80015c0:	05fa0300 	.word	0x05fa0300
 80015c4:	e000edf0 	.word	0xe000edf0
 80015c8:	e0001000 	.word	0xe0001000
 80015cc:	200010ff 	.word	0x200010ff
 80015d0:	20000e70 	.word	0x20000e70
 80015d4:	08000f51 	.word	0x08000f51
 80015d8:	f385 8811 	msr	BASEPRI, r5
 80015dc:	b662      	cpsie	i
 80015de:	69a3      	ldr	r3, [r4, #24]
 80015e0:	49b2      	ldr	r1, [pc, #712]	; (80018ac <main+0x72c>)
 80015e2:	6199      	str	r1, [r3, #24]
 80015e4:	f504 609c 	add.w	r0, r4, #1248	; 0x4e0
 80015e8:	4bb1      	ldr	r3, [pc, #708]	; (80018b0 <main+0x730>)
 80015ea:	21f8      	movs	r1, #248	; 0xf8
 80015ec:	f7ff fc40 	bl	8000e70 <chThdCreateStatic.constprop.17>
 80015f0:	6a3b      	ldr	r3, [r7, #32]
 80015f2:	4ab0      	ldr	r2, [pc, #704]	; (80018b4 <main+0x734>)
 80015f4:	6182      	str	r2, [r0, #24]
 80015f6:	f023 030f 	bic.w	r3, r3, #15
 80015fa:	623b      	str	r3, [r7, #32]
 80015fc:	687a      	ldr	r2, [r7, #4]
 80015fe:	4bae      	ldr	r3, [pc, #696]	; (80018b8 <main+0x738>)
 8001600:	48ae      	ldr	r0, [pc, #696]	; (80018bc <main+0x73c>)
 8001602:	f022 0201 	bic.w	r2, r2, #1
 8001606:	607a      	str	r2, [r7, #4]
 8001608:	68ba      	ldr	r2, [r7, #8]
 800160a:	f022 0203 	bic.w	r2, r2, #3
 800160e:	60ba      	str	r2, [r7, #8]
 8001610:	68fa      	ldr	r2, [r7, #12]
 8001612:	f022 0203 	bic.w	r2, r2, #3
 8001616:	60fa      	str	r2, [r7, #12]
 8001618:	683a      	ldr	r2, [r7, #0]
 800161a:	f042 0203 	orr.w	r2, r2, #3
 800161e:	603a      	str	r2, [r7, #0]
 8001620:	6a3a      	ldr	r2, [r7, #32]
 8001622:	f022 02f0 	bic.w	r2, r2, #240	; 0xf0
 8001626:	623a      	str	r2, [r7, #32]
 8001628:	687a      	ldr	r2, [r7, #4]
 800162a:	f022 0202 	bic.w	r2, r2, #2
 800162e:	607a      	str	r2, [r7, #4]
 8001630:	68ba      	ldr	r2, [r7, #8]
 8001632:	f022 020c 	bic.w	r2, r2, #12
 8001636:	60ba      	str	r2, [r7, #8]
 8001638:	68fa      	ldr	r2, [r7, #12]
 800163a:	f022 020c 	bic.w	r2, r2, #12
 800163e:	60fa      	str	r2, [r7, #12]
 8001640:	6839      	ldr	r1, [r7, #0]
 8001642:	f041 010c 	orr.w	r1, r1, #12
 8001646:	6039      	str	r1, [r7, #0]
 8001648:	465a      	mov	r2, fp
 800164a:	f44f 71b4 	mov.w	r1, #360	; 0x168
 800164e:	f7ff fc0f 	bl	8000e70 <chThdCreateStatic.constprop.17>
 8001652:	2320      	movs	r3, #32
 8001654:	f383 8811 	msr	BASEPRI, r3
 8001658:	f7ff fb82 	bl	8000d60 <_stats_start_measure_crit_thd>
 800165c:	f7ff fbf8 	bl	8000e50 <_dbg_check_lock>
 8001660:	7833      	ldrb	r3, [r6, #0]
 8001662:	1e5a      	subs	r2, r3, #1
 8001664:	2a01      	cmp	r2, #1
 8001666:	d903      	bls.n	8001670 <main+0x4f0>
 8001668:	b672      	cpsid	i
 800166a:	4b95      	ldr	r3, [pc, #596]	; (80018c0 <main+0x740>)
 800166c:	62a3      	str	r3, [r4, #40]	; 0x28
 800166e:	e7fe      	b.n	800166e <main+0x4ee>
 8001670:	2b01      	cmp	r3, #1
 8001672:	6075      	str	r5, [r6, #4]
 8001674:	d06a      	beq.n	800174c <main+0x5cc>
 8001676:	2302      	movs	r3, #2
 8001678:	7033      	strb	r3, [r6, #0]
 800167a:	f7ff fbc9 	bl	8000e10 <chSysUnlock.lto_priv.21>
 800167e:	4a91      	ldr	r2, [pc, #580]	; (80018c4 <main+0x744>)
 8001680:	6853      	ldr	r3, [r2, #4]
 8001682:	f443 0300 	orr.w	r3, r3, #8388608	; 0x800000
 8001686:	6053      	str	r3, [r2, #4]
 8001688:	2320      	movs	r3, #32
 800168a:	f383 8811 	msr	BASEPRI, r3
 800168e:	f7ff fb67 	bl	8000d60 <_stats_start_measure_crit_thd>
 8001692:	f7ff fbdd 	bl	8000e50 <_dbg_check_lock>
 8001696:	6973      	ldr	r3, [r6, #20]
 8001698:	b11b      	cbz	r3, 80016a2 <main+0x522>
 800169a:	b672      	cpsid	i
 800169c:	4b8a      	ldr	r3, [pc, #552]	; (80018c8 <main+0x748>)
 800169e:	62a3      	str	r3, [r4, #40]	; 0x28
 80016a0:	e7fe      	b.n	80016a0 <main+0x520>
 80016a2:	f7fe ff2d 	bl	8000500 <chDbgCheckClassI>
 80016a6:	7833      	ldrb	r3, [r6, #0]
 80016a8:	2b02      	cmp	r3, #2
 80016aa:	d006      	beq.n	80016ba <main+0x53a>
 80016ac:	3b04      	subs	r3, #4
 80016ae:	2b01      	cmp	r3, #1
 80016b0:	d903      	bls.n	80016ba <main+0x53a>
 80016b2:	b672      	cpsid	i
 80016b4:	4b85      	ldr	r3, [pc, #532]	; (80018cc <main+0x74c>)
 80016b6:	62a3      	str	r3, [r4, #40]	; 0x28
 80016b8:	e7fe      	b.n	80016b8 <main+0x538>
 80016ba:	4b85      	ldr	r3, [pc, #532]	; (80018d0 <main+0x750>)
 80016bc:	4a85      	ldr	r2, [pc, #532]	; (80018d4 <main+0x754>)
 80016be:	60b2      	str	r2, [r6, #8]
 80016c0:	2503      	movs	r5, #3
 80016c2:	2208      	movs	r2, #8
 80016c4:	e9c6 2303 	strd	r2, r3, [r6, #12]
 80016c8:	7035      	strb	r5, [r6, #0]
 80016ca:	f7fe fdb9 	bl	8000240 <adc_lld_start_conversion.constprop.6>
 80016ce:	6972      	ldr	r2, [r6, #20]
 80016d0:	69a3      	ldr	r3, [r4, #24]
 80016d2:	b11a      	cbz	r2, 80016dc <main+0x55c>
 80016d4:	b672      	cpsid	i
 80016d6:	4b80      	ldr	r3, [pc, #512]	; (80018d8 <main+0x758>)
 80016d8:	62a3      	str	r3, [r4, #40]	; 0x28
 80016da:	e7fe      	b.n	80016da <main+0x55a>
 80016dc:	4a7f      	ldr	r2, [pc, #508]	; (80018dc <main+0x75c>)
 80016de:	625a      	str	r2, [r3, #36]	; 0x24
 80016e0:	4628      	mov	r0, r5
 80016e2:	6173      	str	r3, [r6, #20]
 80016e4:	f7ff fa84 	bl	8000bf0 <chSchGoSleepS>
 80016e8:	f7ff fb92 	bl	8000e10 <chSysUnlock.lto_priv.21>
 80016ec:	f44f 707a 	mov.w	r0, #1000	; 0x3e8
 80016f0:	f7ff fc96 	bl	8001020 <chThdSleep>
 80016f4:	2320      	movs	r3, #32
 80016f6:	f383 8811 	msr	BASEPRI, r3
 80016fa:	f7ff fb31 	bl	8000d60 <_stats_start_measure_crit_thd>
 80016fe:	f7ff fba7 	bl	8000e50 <_dbg_check_lock>
 8001702:	f7fe fefd 	bl	8000500 <chDbgCheckClassI>
 8001706:	7833      	ldrb	r3, [r6, #0]
 8001708:	2b02      	cmp	r3, #2
 800170a:	d006      	beq.n	800171a <main+0x59a>
 800170c:	3b04      	subs	r3, #4
 800170e:	2b01      	cmp	r3, #1
 8001710:	d903      	bls.n	800171a <main+0x59a>
 8001712:	b672      	cpsid	i
 8001714:	4b6d      	ldr	r3, [pc, #436]	; (80018cc <main+0x74c>)
 8001716:	62a3      	str	r3, [r4, #40]	; 0x28
 8001718:	e7fe      	b.n	8001718 <main+0x598>
 800171a:	4a71      	ldr	r2, [pc, #452]	; (80018e0 <main+0x760>)
 800171c:	4b71      	ldr	r3, [pc, #452]	; (80018e4 <main+0x764>)
 800171e:	60b3      	str	r3, [r6, #8]
 8001720:	2110      	movs	r1, #16
 8001722:	2303      	movs	r3, #3
 8001724:	e9c6 1203 	strd	r1, r2, [r6, #12]
 8001728:	7033      	strb	r3, [r6, #0]
 800172a:	f7fe fd89 	bl	8000240 <adc_lld_start_conversion.constprop.6>
 800172e:	f7ff fb6f 	bl	8000e10 <chSysUnlock.lto_priv.21>
 8001732:	f8df 81d0 	ldr.w	r8, [pc, #464]	; 8001904 <main+0x784>
 8001736:	4d63      	ldr	r5, [pc, #396]	; (80018c4 <main+0x744>)
 8001738:	2720      	movs	r7, #32
 800173a:	f8d8 3010 	ldr.w	r3, [r8, #16]
 800173e:	07db      	lsls	r3, r3, #31
 8001740:	d45f      	bmi.n	8001802 <main+0x682>
 8001742:	f44f 70fa 	mov.w	r0, #500	; 0x1f4
 8001746:	f7ff fc6b 	bl	8001020 <chThdSleep>
 800174a:	e7f6      	b.n	800173a <main+0x5ba>
 800174c:	6af2      	ldr	r2, [r6, #44]	; 0x2c
 800174e:	2a00      	cmp	r2, #0
 8001750:	d053      	beq.n	80017fa <main+0x67a>
 8001752:	4865      	ldr	r0, [pc, #404]	; (80018e8 <main+0x768>)
 8001754:	7a51      	ldrb	r1, [r2, #9]
 8001756:	6800      	ldr	r0, [r0, #0]
 8001758:	408b      	lsls	r3, r1
 800175a:	4203      	tst	r3, r0
 800175c:	d149      	bne.n	80017f2 <main+0x672>
 800175e:	4f63      	ldr	r7, [pc, #396]	; (80018ec <main+0x76c>)
 8001760:	f8df c1a4 	ldr.w	ip, [pc, #420]	; 8001908 <main+0x788>
 8001764:	f847 c031 	str.w	ip, [r7, r1, lsl #3]
 8001768:	4303      	orrs	r3, r0
 800176a:	eb07 05c1 	add.w	r5, r7, r1, lsl #3
 800176e:	485e      	ldr	r0, [pc, #376]	; (80018e8 <main+0x768>)
 8001770:	606e      	str	r6, [r5, #4]
 8001772:	0659      	lsls	r1, r3, #25
 8001774:	6003      	str	r3, [r0, #0]
 8001776:	d005      	beq.n	8001784 <main+0x604>
 8001778:	f8da 301c 	ldr.w	r3, [sl, #28]
 800177c:	f043 7380 	orr.w	r3, r3, #16777216	; 0x1000000
 8001780:	f8ca 301c 	str.w	r3, [sl, #28]
 8001784:	e9d2 1500 	ldrd	r1, r5, [r2]
 8001788:	680b      	ldr	r3, [r1, #0]
 800178a:	4f59      	ldr	r7, [pc, #356]	; (80018f0 <main+0x770>)
 800178c:	f023 030f 	bic.w	r3, r3, #15
 8001790:	600b      	str	r3, [r1, #0]
 8001792:	7a10      	ldrb	r0, [r2, #8]
 8001794:	230f      	movs	r3, #15
 8001796:	4083      	lsls	r3, r0
 8001798:	2000      	movs	r0, #0
 800179a:	602b      	str	r3, [r5, #0]
 800179c:	6008      	str	r0, [r1, #0]
 800179e:	7a92      	ldrb	r2, [r2, #10]
 80017a0:	0953      	lsrs	r3, r2, #5
 80017a2:	f102 4560 	add.w	r5, r2, #3758096384	; 0xe0000000
 80017a6:	f505 4561 	add.w	r5, r5, #57600	; 0xe100
 80017aa:	009b      	lsls	r3, r3, #2
 80017ac:	f04f 0c60 	mov.w	ip, #96	; 0x60
 80017b0:	f103 4360 	add.w	r3, r3, #3758096384	; 0xe0000000
 80017b4:	f885 c300 	strb.w	ip, [r5, #768]	; 0x300
 80017b8:	f503 4361 	add.w	r3, r3, #57600	; 0xe100
 80017bc:	2501      	movs	r5, #1
 80017be:	f002 021f 	and.w	r2, r2, #31
 80017c2:	fa05 f202 	lsl.w	r2, r5, r2
 80017c6:	f8df c144 	ldr.w	ip, [pc, #324]	; 800190c <main+0x78c>
 80017ca:	f8c3 2180 	str.w	r2, [r3, #384]	; 0x180
 80017ce:	601a      	str	r2, [r3, #0]
 80017d0:	608f      	str	r7, [r1, #8]
 80017d2:	f8dc 2020 	ldr.w	r2, [ip, #32]
 80017d6:	493b      	ldr	r1, [pc, #236]	; (80018c4 <main+0x744>)
 80017d8:	6ab3      	ldr	r3, [r6, #40]	; 0x28
 80017da:	f442 7200 	orr.w	r2, r2, #512	; 0x200
 80017de:	f8cc 2020 	str.w	r2, [ip, #32]
 80017e2:	684a      	ldr	r2, [r1, #4]
 80017e4:	f402 0200 	and.w	r2, r2, #8388608	; 0x800000
 80017e8:	604a      	str	r2, [r1, #4]
 80017ea:	6058      	str	r0, [r3, #4]
 80017ec:	6098      	str	r0, [r3, #8]
 80017ee:	609d      	str	r5, [r3, #8]
 80017f0:	e741      	b.n	8001676 <main+0x4f6>
 80017f2:	b672      	cpsid	i
 80017f4:	4b3f      	ldr	r3, [pc, #252]	; (80018f4 <main+0x774>)
 80017f6:	62a3      	str	r3, [r4, #40]	; 0x28
 80017f8:	e7fe      	b.n	80017f8 <main+0x678>
 80017fa:	b672      	cpsid	i
 80017fc:	4b3e      	ldr	r3, [pc, #248]	; (80018f8 <main+0x778>)
 80017fe:	62a3      	str	r3, [r4, #40]	; 0x28
 8001800:	e7fe      	b.n	8001800 <main+0x680>
 8001802:	f387 8811 	msr	BASEPRI, r7
 8001806:	f7ff faab 	bl	8000d60 <_stats_start_measure_crit_thd>
 800180a:	f7ff fb21 	bl	8000e50 <_dbg_check_lock>
 800180e:	7833      	ldrb	r3, [r6, #0]
 8001810:	1e9a      	subs	r2, r3, #2
 8001812:	2a01      	cmp	r2, #1
 8001814:	d846      	bhi.n	80018a4 <main+0x724>
 8001816:	2b02      	cmp	r3, #2
 8001818:	f04f 010f 	mov.w	r1, #15
 800181c:	f04f 0300 	mov.w	r3, #0
 8001820:	f04f 0e01 	mov.w	lr, #1
 8001824:	f04f 0902 	mov.w	r9, #2
 8001828:	d027      	beq.n	800187a <main+0x6fa>
 800182a:	e9d6 200a 	ldrd	r2, r0, [r6, #40]	; 0x28
 800182e:	f8d0 a000 	ldr.w	sl, [r0]
 8001832:	f8da c000 	ldr.w	ip, [sl]
 8001836:	f02c 0c0f 	bic.w	ip, ip, #15
 800183a:	f8ca c000 	str.w	ip, [sl]
 800183e:	f890 a008 	ldrb.w	sl, [r0, #8]
 8001842:	f8d0 c004 	ldr.w	ip, [r0, #4]
 8001846:	6970      	ldr	r0, [r6, #20]
 8001848:	fa01 f10a 	lsl.w	r1, r1, sl
 800184c:	f8cc 1000 	str.w	r1, [ip]
 8001850:	6053      	str	r3, [r2, #4]
 8001852:	f886 9000 	strb.w	r9, [r6]
 8001856:	6093      	str	r3, [r2, #8]
 8001858:	f8c2 e008 	str.w	lr, [r2, #8]
 800185c:	6133      	str	r3, [r6, #16]
 800185e:	b160      	cbz	r0, 800187a <main+0x6fa>
 8001860:	f890 2020 	ldrb.w	r2, [r0, #32]
 8001864:	2a03      	cmp	r2, #3
 8001866:	f06f 0101 	mvn.w	r1, #1
 800186a:	d003      	beq.n	8001874 <main+0x6f4>
 800186c:	b672      	cpsid	i
 800186e:	4b23      	ldr	r3, [pc, #140]	; (80018fc <main+0x77c>)
 8001870:	62a3      	str	r3, [r4, #40]	; 0x28
 8001872:	e7fe      	b.n	8001872 <main+0x6f2>
 8001874:	6173      	str	r3, [r6, #20]
 8001876:	f7ff f983 	bl	8000b80 <chSchWakeupS>
 800187a:	f7ff fab9 	bl	8000df0 <_dbg_check_unlock>
 800187e:	f7ff fa67 	bl	8000d50 <_stats_stop_measure_crit_thd>
 8001882:	6823      	ldr	r3, [r4, #0]
 8001884:	42a3      	cmp	r3, r4
 8001886:	f04f 0200 	mov.w	r2, #0
 800188a:	d004      	beq.n	8001896 <main+0x716>
 800188c:	69a1      	ldr	r1, [r4, #24]
 800188e:	689b      	ldr	r3, [r3, #8]
 8001890:	6889      	ldr	r1, [r1, #8]
 8001892:	4299      	cmp	r1, r3
 8001894:	d33c      	bcc.n	8001910 <main+0x790>
 8001896:	f382 8811 	msr	BASEPRI, r2
 800189a:	686b      	ldr	r3, [r5, #4]
 800189c:	f423 0300 	bic.w	r3, r3, #8388608	; 0x800000
 80018a0:	606b      	str	r3, [r5, #4]
 80018a2:	e74e      	b.n	8001742 <main+0x5c2>
 80018a4:	b672      	cpsid	i
 80018a6:	4b16      	ldr	r3, [pc, #88]	; (8001900 <main+0x780>)
 80018a8:	62a3      	str	r3, [r4, #40]	; 0x28
 80018aa:	e7fe      	b.n	80018aa <main+0x72a>
 80018ac:	08001c60 	.word	0x08001c60
 80018b0:	080002e1 	.word	0x080002e1
 80018b4:	08001c88 	.word	0x08001c88
 80018b8:	08001921 	.word	0x08001921
 80018bc:	20000f90 	.word	0x20000f90
 80018c0:	08001a30 	.word	0x08001a30
 80018c4:	40012700 	.word	0x40012700
 80018c8:	08001aa0 	.word	0x08001aa0
 80018cc:	08001a60 	.word	0x08001a60
 80018d0:	08001bb0 	.word	0x08001bb0
 80018d4:	20000e7c 	.word	0x20000e7c
 80018d8:	080019f0 	.word	0x080019f0
 80018dc:	20000814 	.word	0x20000814
 80018e0:	08001bf0 	.word	0x08001bf0
 80018e4:	20000e8c 	.word	0x20000e8c
 80018e8:	20000e68 	.word	0x20000e68
 80018ec:	20000e30 	.word	0x20000e30
 80018f0:	40012458 	.word	0x40012458
 80018f4:	08001a50 	.word	0x08001a50
 80018f8:	08001ab0 	.word	0x08001ab0
 80018fc:	08001a10 	.word	0x08001a10
 8001900:	08001a80 	.word	0x08001a80
 8001904:	40020000 	.word	0x40020000
 8001908:	08000821 	.word	0x08000821
 800190c:	40023800 	.word	0x40023800
 8001910:	b672      	cpsid	i
 8001912:	4b01      	ldr	r3, [pc, #4]	; (8001918 <main+0x798>)
 8001914:	62a3      	str	r3, [r4, #40]	; 0x28
 8001916:	e7fe      	b.n	8001916 <main+0x796>
 8001918:	080019b0 	.word	0x080019b0
 800191c:	00000000 	.word	0x00000000

08001920 <Thread1>:
 8001920:	b508      	push	{r3, lr}
 8001922:	4b09      	ldr	r3, [pc, #36]	; (8001948 <Thread1+0x28>)
 8001924:	4a09      	ldr	r2, [pc, #36]	; (800194c <Thread1+0x2c>)
 8001926:	699b      	ldr	r3, [r3, #24]
 8001928:	4c09      	ldr	r4, [pc, #36]	; (8001950 <Thread1+0x30>)
 800192a:	619a      	str	r2, [r3, #24]
 800192c:	2540      	movs	r5, #64	; 0x40
 800192e:	462e      	mov	r6, r5
 8001930:	8326      	strh	r6, [r4, #24]
 8001932:	f44f 70fa 	mov.w	r0, #500	; 0x1f4
 8001936:	f7ff fb73 	bl	8001020 <chThdSleep>
 800193a:	8365      	strh	r5, [r4, #26]
 800193c:	f44f 70fa 	mov.w	r0, #500	; 0x1f4
 8001940:	f7ff fb6e 	bl	8001020 <chThdSleep>
 8001944:	e7f4      	b.n	8001930 <Thread1+0x10>
 8001946:	bf00      	nop
 8001948:	20000838 	.word	0x20000838
 800194c:	08001980 	.word	0x08001980
 8001950:	40020400 	.word	0x40020400
	...

08001960 <__default_exit>:
 8001960:	e7fe      	b.n	8001960 <__default_exit>
 8001962:	bf00      	nop
	...

08001970 <__late_init>:
 8001970:	4770      	bx	lr
 8001972:	bf00      	nop
	...
 8001980:	6e696c62 	.word	0x6e696c62
 8001984:	0072656b 	.word	0x0072656b
	...

08001990 <__func__.5439.lto_priv.22>:
 8001990:	79536863 6c6e5573 006b636f 00000000     chSysUnlock.....

080019a0 <__func__.5439.lto_priv.23>:
 80019a0:	79536863 6c6e5573 006b636f 00000000     chSysUnlock.....

080019b0 <__func__.5439.lto_priv.24>:
 80019b0:	79536863 6c6e5573 006b636f 00000000     chSysUnlock.....

080019c0 <__func__.5525>:
 80019c0:	54566863 69546f44 00496b63 00000000     chVTDoTickI.....

080019d0 <__func__.6139>:
 80019d0:	63536863 61655268 00497964 00000000     chSchReadyI.....

080019e0 <__func__.6195>:
 80019e0:	68546863 69784564 00005374 00000000     chThdExitS......

080019f0 <__func__.6205>:
 80019f0:	68546863 73755364 646e6570 00000053     chThdSuspendS...

08001a00 <__func__.6217>:
 8001a00:	68546863 73655264 49656d75 00000000     chThdResumeI....

08001a10 <__func__.6223>:
 8001a10:	68546863 73655264 53656d75 00000000     chThdResumeS....

08001a20 <__func__.6575>:
 8001a20:	74537473 41747261 6d72616c 00000000     stStartAlarm....

08001a30 <__func__.6579>:
 8001a30:	53636461 74726174 00000000 00000000     adcStart........

08001a40 <__func__.6582>:
 8001a40:	65537473 616c4174 00006d72 00000000     stSetAlarm......

08001a50 <__func__.6587>:
 8001a50:	5f636461 5f646c6c 72617473 00000074     adc_lld_start...

08001a60 <__func__.6596>:
 8001a60:	53636461 74726174 766e6f43 69737265     adcStartConversi
 8001a70:	00496e6f 00000000 00000000 00000000     onI.............

08001a80 <__func__.6600>:
 8001a80:	53636461 43706f74 65766e6f 6f697372     adcStopConversio
 8001a90:	0000006e 00000000 00000000 00000000     n...............

08001aa0 <__func__.6612>:
 8001aa0:	43636461 65766e6f 00007472 00000000     adcConvert......

08001ab0 <__func__.6617>:
 8001ab0:	53616d64 61657274 6c6c416d 7461636f     dmaStreamAllocat
 8001ac0:	00000065 00000000 00000000 00000000     e...............
 8001ad0:	38235653 00000000 00000000 00000000     SV#8............
 8001ae0:	39235653 00000000 00000000 00000000     SV#9............
 8001af0:	34235653 00000000 00000000 00000000     SV#4............
 8001b00:	36235653 00000000 00000000 00000000     SV#6............
 8001b10:	35235653 00000000 00000000 00000000     SV#5............
 8001b20:	37235653 00000000 00000000 00000000     SV#7............

08001b30 <_stm32_dma_streams>:
 8001b30:	40026008 40026004 000b0000 4002601c     .`.@.`.@.....`.@
 8001b40:	40026004 000c0104 40026030 40026004     .`.@....0`.@.`.@
 8001b50:	000d0208 40026044 40026004 000e030c     ....D`.@.`.@....
 8001b60:	40026058 40026004 000f0410 4002606c     X`.@.`.@....l`.@
 8001b70:	40026004 00100514 40026080 40026004     .`.@.....`.@.`.@
 8001b80:	00110618 00000000 00000000 00000000     ................
 8001b90:	61686e75 656c646e 78652064 74706563     unhandled except
 8001ba0:	006e6f69 00000000 00000000 00000000     ion.............

08001bb0 <adcgrpcfg1>:
 8001bb0:	00010000 00000000 080002f1 00000000     ................
 8001bc0:	40000000 00000000 00000000 00000000     ...@............
	...
 8001be0:	0000000a 00000000 00000000 00000000     ................

08001bf0 <adcgrpcfg2>:
 8001bf0:	00080001 08000301 080002f1 00000000     ................
 8001c00:	40000000 00000000 00d80024 00000000     ...@....$.......
 8001c10:	00700000 00000000 00000000 00000211     ..p.............
 8001c20:	16a5a96a 00000000 00000000 00000000     j...............
 8001c30:	31235653 00000030 00000000 00000000     SV#10...........
 8001c40:	31235653 00000031 00000000 00000000     SV#11...........
 8001c50:	63617473 766f206b 6c667265 0000776f     stack overflow..

08001c60 <ch_debug>:
 8001c60:	6e69616d 18011600 08600204 1814100c     main......`.....
 8001c70:	2221201c 00000000 00000000 00000000     . !"............
 8001c80:	33235653 00000000 656c6469 00000000     SV#3....idle....
