
build/ch.elf:     file format elf32-littlearm


Disassembly of section .text:

080000c0 <Reset_Handler>:
 80000c0:	b672      	cpsid	i
 80000c2:	4820      	ldr	r0, [pc, #128]	; (8000144 <endfiniloop+0x4>)
 80000c4:	f380 8809 	msr	PSP, r0
 80000c8:	2002      	movs	r0, #2
 80000ca:	f380 8814 	msr	CONTROL, r0
 80000ce:	f3bf 8f6f 	isb	sy
 80000d2:	f000 f97d 	bl	80003d0 <__early_init>
 80000d6:	481c      	ldr	r0, [pc, #112]	; (8000148 <endfiniloop+0x8>)
 80000d8:	491c      	ldr	r1, [pc, #112]	; (800014c <endfiniloop+0xc>)
 80000da:	4a1d      	ldr	r2, [pc, #116]	; (8000150 <endfiniloop+0x10>)

080000dc <msloop>:
 80000dc:	4291      	cmp	r1, r2
 80000de:	da02      	bge.n	80000e6 <endmsloop>
 80000e0:	6008      	str	r0, [r1, #0]
 80000e2:	3104      	adds	r1, #4
 80000e4:	e7fa      	b.n	80000dc <msloop>

080000e6 <endmsloop>:
 80000e6:	491b      	ldr	r1, [pc, #108]	; (8000154 <endfiniloop+0x14>)
 80000e8:	4a16      	ldr	r2, [pc, #88]	; (8000144 <endfiniloop+0x4>)

080000ea <psloop>:
 80000ea:	4291      	cmp	r1, r2
 80000ec:	da02      	bge.n	80000f4 <endpsloop>
 80000ee:	6008      	str	r0, [r1, #0]
 80000f0:	3104      	adds	r1, #4
 80000f2:	e7fa      	b.n	80000ea <psloop>

080000f4 <endpsloop>:
 80000f4:	4918      	ldr	r1, [pc, #96]	; (8000158 <endfiniloop+0x18>)
 80000f6:	4a19      	ldr	r2, [pc, #100]	; (800015c <endfiniloop+0x1c>)
 80000f8:	4b19      	ldr	r3, [pc, #100]	; (8000160 <endfiniloop+0x20>)

080000fa <dloop>:
 80000fa:	429a      	cmp	r2, r3
 80000fc:	da04      	bge.n	8000108 <enddloop>
 80000fe:	6808      	ldr	r0, [r1, #0]
 8000100:	6010      	str	r0, [r2, #0]
 8000102:	3104      	adds	r1, #4
 8000104:	3204      	adds	r2, #4
 8000106:	e7f8      	b.n	80000fa <dloop>

08000108 <enddloop>:
 8000108:	2000      	movs	r0, #0
 800010a:	4916      	ldr	r1, [pc, #88]	; (8000164 <endfiniloop+0x24>)
 800010c:	4a16      	ldr	r2, [pc, #88]	; (8000168 <endfiniloop+0x28>)

0800010e <bloop>:
 800010e:	4291      	cmp	r1, r2
 8000110:	da02      	bge.n	8000118 <endbloop>
 8000112:	6008      	str	r0, [r1, #0]
 8000114:	3104      	adds	r1, #4
 8000116:	e7fa      	b.n	800010e <bloop>

08000118 <endbloop>:
 8000118:	f000 f952 	bl	80003c0 <__late_init>
 800011c:	4c13      	ldr	r4, [pc, #76]	; (800016c <endfiniloop+0x2c>)
 800011e:	4d14      	ldr	r5, [pc, #80]	; (8000170 <endfiniloop+0x30>)

08000120 <initloop>:
 8000120:	42ac      	cmp	r4, r5
 8000122:	da03      	bge.n	800012c <endinitloop>
 8000124:	6821      	ldr	r1, [r4, #0]
 8000126:	4788      	blx	r1
 8000128:	3404      	adds	r4, #4
 800012a:	e7f9      	b.n	8000120 <initloop>

0800012c <endinitloop>:
 800012c:	f000 f8e8 	bl	8000300 <main>
 8000130:	4c10      	ldr	r4, [pc, #64]	; (8000174 <endfiniloop+0x34>)
 8000132:	4d11      	ldr	r5, [pc, #68]	; (8000178 <endfiniloop+0x38>)

08000134 <finiloop>:
 8000134:	42ac      	cmp	r4, r5
 8000136:	da03      	bge.n	8000140 <endfiniloop>
 8000138:	6821      	ldr	r1, [r4, #0]
 800013a:	4788      	blx	r1
 800013c:	3404      	adds	r4, #4
 800013e:	e7f9      	b.n	8000134 <finiloop>

08000140 <endfiniloop>:
 8000140:	490e      	ldr	r1, [pc, #56]	; (800017c <endfiniloop+0x3c>)
 8000142:	4708      	bx	r1
 8000144:	20000500 	.word	0x20000500
 8000148:	55555555 	.word	0x55555555
 800014c:	20000000 	.word	0x20000000
 8000150:	20000400 	.word	0x20000400
 8000154:	20000400 	.word	0x20000400
 8000158:	080003d8 	.word	0x080003d8
 800015c:	20000500 	.word	0x20000500
 8000160:	20000500 	.word	0x20000500
 8000164:	20000500 	.word	0x20000500
 8000168:	20000720 	.word	0x20000720
 800016c:	080000c0 	.word	0x080000c0
 8000170:	080000c0 	.word	0x080000c0
 8000174:	080000c0 	.word	0x080000c0
 8000178:	080000c0 	.word	0x080000c0
 800017c:	080003b1 	.word	0x080003b1

08000180 <_port_switch>:
 8000180:	b5f0      	push	{r4, r5, r6, r7, lr}
 8000182:	4644      	mov	r4, r8
 8000184:	464d      	mov	r5, r9
 8000186:	4656      	mov	r6, sl
 8000188:	465f      	mov	r7, fp
 800018a:	b4f0      	push	{r4, r5, r6, r7}
 800018c:	466b      	mov	r3, sp
 800018e:	600b      	str	r3, [r1, #0]
 8000190:	6803      	ldr	r3, [r0, #0]
 8000192:	469d      	mov	sp, r3
 8000194:	bcf0      	pop	{r4, r5, r6, r7}
 8000196:	46a0      	mov	r8, r4
 8000198:	46a9      	mov	r9, r5
 800019a:	46b2      	mov	sl, r6
 800019c:	46bb      	mov	fp, r7
 800019e:	bdf0      	pop	{r4, r5, r6, r7, pc}

080001a0 <_port_thread_start>:
 80001a0:	b662      	cpsie	i
 80001a2:	1c28      	adds	r0, r5, #0
 80001a4:	47a0      	blx	r4
 80001a6:	2300      	movs	r3, #0
 80001a8:	f000 f8fa 	bl	80003a0 <chSysHalt>

080001ac <_port_switch_from_isr>:
 80001ac:	f000 f8e8 	bl	8000380 <chSchRescheduleS>

080001b0 <_port_exit_from_isr>:
 80001b0:	4a01      	ldr	r2, [pc, #4]	; (80001b8 <_port_exit_from_isr+0x8>)
 80001b2:	4b02      	ldr	r3, [pc, #8]	; (80001bc <_port_exit_from_isr+0xc>)
 80001b4:	6013      	str	r3, [r2, #0]
 80001b6:	e7fe      	b.n	80001b6 <_port_exit_from_isr+0x6>
 80001b8:	e000ed04 	.word	0xe000ed04
 80001bc:	80000000 	.word	0x80000000

080001c0 <NMI_Handler>:
 80001c0:	b580      	push	{r7, lr}
 80001c2:	af00      	add	r7, sp, #0
 80001c4:	f3ef 8309 	mrs	r3, PSP
 80001c8:	3320      	adds	r3, #32
 80001ca:	f383 8809 	msr	PSP, r3
 80001ce:	b662      	cpsie	i
 80001d0:	46bd      	mov	sp, r7
 80001d2:	bd80      	pop	{r7, pc}
	...

080001e0 <BusFault_Handler>:
 80001e0:	b672      	cpsid	i
 80001e2:	e7fe      	b.n	80001e2 <BusFault_Handler+0x2>
	...

080001f0 <chSchGoSleepTimeoutS.constprop.0>:
 80001f0:	b510      	push	{r4, lr}
 80001f2:	4c0a      	ldr	r4, [pc, #40]	; (800021c <chSchGoSleepTimeoutS.constprop.0+0x2c>)
 80001f4:	2301      	movs	r3, #1
 80001f6:	6821      	ldr	r1, [r4, #0]
 80001f8:	60c8      	str	r0, [r1, #12]
 80001fa:	0020      	movs	r0, r4
 80001fc:	710b      	strb	r3, [r1, #4]
 80001fe:	7c23      	ldrb	r3, [r4, #16]
 8000200:	300c      	adds	r0, #12
 8000202:	2b00      	cmp	r3, #0
 8000204:	d003      	beq.n	800020e <chSchGoSleepTimeoutS.constprop.0+0x1e>
 8000206:	3014      	adds	r0, #20
 8000208:	7903      	ldrb	r3, [r0, #4]
 800020a:	2b00      	cmp	r3, #0
 800020c:	d1fb      	bne.n	8000206 <chSchGoSleepTimeoutS.constprop.0+0x16>
 800020e:	6060      	str	r0, [r4, #4]
 8000210:	6020      	str	r0, [r4, #0]
 8000212:	f7ff ffb5 	bl	8000180 <_port_switch>
 8000216:	6823      	ldr	r3, [r4, #0]
 8000218:	6898      	ldr	r0, [r3, #8]
 800021a:	bd10      	pop	{r4, pc}
 800021c:	20000504 	.word	0x20000504

08000220 <Thread1>:
 8000220:	b510      	push	{r4, lr}
 8000222:	4c05      	ldr	r4, [pc, #20]	; (8000238 <Thread1+0x18>)
 8000224:	b672      	cpsid	i
 8000226:	20fa      	movs	r0, #250	; 0xfa
 8000228:	0080      	lsls	r0, r0, #2
 800022a:	f7ff ffe1 	bl	80001f0 <chSchGoSleepTimeoutS.constprop.0>
 800022e:	b662      	cpsie	i
 8000230:	6823      	ldr	r3, [r4, #0]
 8000232:	3301      	adds	r3, #1
 8000234:	6023      	str	r3, [r4, #0]
 8000236:	e7f5      	b.n	8000224 <Thread1+0x4>
 8000238:	2000054c 	.word	0x2000054c
 800023c:	00000000 	.word	0x00000000

08000240 <Thread2>:
 8000240:	b510      	push	{r4, lr}
 8000242:	4c05      	ldr	r4, [pc, #20]	; (8000258 <Thread2+0x18>)
 8000244:	b672      	cpsid	i
 8000246:	4805      	ldr	r0, [pc, #20]	; (800025c <Thread2+0x1c>)
 8000248:	f7ff ffd2 	bl	80001f0 <chSchGoSleepTimeoutS.constprop.0>
 800024c:	b662      	cpsie	i
 800024e:	6823      	ldr	r3, [r4, #0]
 8000250:	3301      	adds	r3, #1
 8000252:	6023      	str	r3, [r4, #0]
 8000254:	e7f6      	b.n	8000244 <Thread2+0x4>
 8000256:	46c0      	nop			; (mov r8, r8)
 8000258:	20000500 	.word	0x20000500
 800025c:	0000ea60 	.word	0x0000ea60

08000260 <SysTick_Handler>:
 8000260:	b5f0      	push	{r4, r5, r6, r7, lr}
 8000262:	46f4      	mov	ip, lr
 8000264:	af00      	add	r7, sp, #0
 8000266:	b672      	cpsid	i
 8000268:	4920      	ldr	r1, [pc, #128]	; (80002ec <SysTick_Handler+0x8c>)
 800026a:	2601      	movs	r6, #1
 800026c:	688b      	ldr	r3, [r1, #8]
 800026e:	0008      	movs	r0, r1
 8000270:	3301      	adds	r3, #1
 8000272:	608b      	str	r3, [r1, #8]
 8000274:	000b      	movs	r3, r1
 8000276:	2500      	movs	r5, #0
 8000278:	330c      	adds	r3, #12
 800027a:	4276      	negs	r6, r6
 800027c:	3034      	adds	r0, #52	; 0x34
 800027e:	68da      	ldr	r2, [r3, #12]
 8000280:	2a00      	cmp	r2, #0
 8000282:	d012      	beq.n	80002aa <SysTick_Handler+0x4a>
 8000284:	68da      	ldr	r2, [r3, #12]
 8000286:	3a01      	subs	r2, #1
 8000288:	60da      	str	r2, [r3, #12]
 800028a:	2a00      	cmp	r2, #0
 800028c:	d10d      	bne.n	80002aa <SysTick_Handler+0x4a>
 800028e:	791c      	ldrb	r4, [r3, #4]
 8000290:	2c03      	cmp	r4, #3
 8000292:	d023      	beq.n	80002dc <SysTick_Handler+0x7c>
 8000294:	2c02      	cmp	r4, #2
 8000296:	d101      	bne.n	800029c <SysTick_Handler+0x3c>
 8000298:	689c      	ldr	r4, [r3, #8]
 800029a:	6022      	str	r2, [r4, #0]
 800029c:	609e      	str	r6, [r3, #8]
 800029e:	711d      	strb	r5, [r3, #4]
 80002a0:	684a      	ldr	r2, [r1, #4]
 80002a2:	60dd      	str	r5, [r3, #12]
 80002a4:	4293      	cmp	r3, r2
 80002a6:	d200      	bcs.n	80002aa <SysTick_Handler+0x4a>
 80002a8:	604b      	str	r3, [r1, #4]
 80002aa:	b662      	cpsie	i
 80002ac:	3314      	adds	r3, #20
 80002ae:	b672      	cpsid	i
 80002b0:	4283      	cmp	r3, r0
 80002b2:	d3e4      	bcc.n	800027e <SysTick_Handler+0x1e>
 80002b4:	b662      	cpsie	i
 80002b6:	4663      	mov	r3, ip
 80002b8:	330f      	adds	r3, #15
 80002ba:	d00d      	beq.n	80002d8 <SysTick_Handler+0x78>
 80002bc:	b672      	cpsid	i
 80002be:	f3ef 8309 	mrs	r3, PSP
 80002c2:	3b20      	subs	r3, #32
 80002c4:	f383 8809 	msr	PSP, r3
 80002c8:	2280      	movs	r2, #128	; 0x80
 80002ca:	0452      	lsls	r2, r2, #17
 80002cc:	61da      	str	r2, [r3, #28]
 80002ce:	c905      	ldmia	r1!, {r0, r2}
 80002d0:	4290      	cmp	r0, r2
 80002d2:	d008      	beq.n	80002e6 <SysTick_Handler+0x86>
 80002d4:	4a06      	ldr	r2, [pc, #24]	; (80002f0 <SysTick_Handler+0x90>)
 80002d6:	619a      	str	r2, [r3, #24]
 80002d8:	46bd      	mov	sp, r7
 80002da:	bdf0      	pop	{r4, r5, r6, r7, pc}
 80002dc:	689c      	ldr	r4, [r3, #8]
 80002de:	6822      	ldr	r2, [r4, #0]
 80002e0:	3201      	adds	r2, #1
 80002e2:	6022      	str	r2, [r4, #0]
 80002e4:	e7da      	b.n	800029c <SysTick_Handler+0x3c>
 80002e6:	4a03      	ldr	r2, [pc, #12]	; (80002f4 <SysTick_Handler+0x94>)
 80002e8:	619a      	str	r2, [r3, #24]
 80002ea:	e7f5      	b.n	80002d8 <SysTick_Handler+0x78>
 80002ec:	20000504 	.word	0x20000504
 80002f0:	080001ad 	.word	0x080001ad
 80002f4:	080001b0 	.word	0x080001b0
	...

08000300 <main>:
 8000300:	b5f8      	push	{r3, r4, r5, r6, r7, lr}
 8000302:	4a14      	ldr	r2, [pc, #80]	; (8000354 <main+0x54>)
 8000304:	4b14      	ldr	r3, [pc, #80]	; (8000358 <main+0x58>)
 8000306:	2105      	movs	r1, #5
 8000308:	605a      	str	r2, [r3, #4]
 800030a:	2200      	movs	r2, #0
 800030c:	26d4      	movs	r6, #212	; 0xd4
 800030e:	609a      	str	r2, [r3, #8]
 8000310:	6019      	str	r1, [r3, #0]
 8000312:	4912      	ldr	r1, [pc, #72]	; (800035c <main+0x5c>)
 8000314:	4812      	ldr	r0, [pc, #72]	; (8000360 <main+0x60>)
 8000316:	6a0b      	ldr	r3, [r1, #32]
 8000318:	25d8      	movs	r5, #216	; 0xd8
 800031a:	4003      	ands	r3, r0
 800031c:	620b      	str	r3, [r1, #32]
 800031e:	4911      	ldr	r1, [pc, #68]	; (8000364 <main+0x64>)
 8000320:	4b11      	ldr	r3, [pc, #68]	; (8000368 <main+0x68>)
 8000322:	4812      	ldr	r0, [pc, #72]	; (800036c <main+0x6c>)
 8000324:	60cb      	str	r3, [r1, #12]
 8000326:	3bc4      	subs	r3, #196	; 0xc4
 8000328:	5198      	str	r0, [r3, r6]
 800032a:	20e4      	movs	r0, #228	; 0xe4
 800032c:	4c10      	ldr	r4, [pc, #64]	; (8000370 <main+0x70>)
 800032e:	515a      	str	r2, [r3, r5]
 8000330:	501c      	str	r4, [r3, r0]
 8000332:	4b10      	ldr	r3, [pc, #64]	; (8000374 <main+0x74>)
 8000334:	4f10      	ldr	r7, [pc, #64]	; (8000378 <main+0x78>)
 8000336:	620b      	str	r3, [r1, #32]
 8000338:	3bc4      	subs	r3, #196	; 0xc4
 800033a:	501c      	str	r4, [r3, r0]
 800033c:	0008      	movs	r0, r1
 800033e:	300c      	adds	r0, #12
 8000340:	6048      	str	r0, [r1, #4]
 8000342:	6008      	str	r0, [r1, #0]
 8000344:	519f      	str	r7, [r3, r6]
 8000346:	515a      	str	r2, [r3, r5]
 8000348:	3134      	adds	r1, #52	; 0x34
 800034a:	f7ff ff19 	bl	8000180 <_port_switch>
 800034e:	b662      	cpsie	i
 8000350:	e7fe      	b.n	8000350 <main+0x50>
 8000352:	46c0      	nop			; (mov r8, r8)
 8000354:	00001f3f 	.word	0x00001f3f
 8000358:	e000e010 	.word	0xe000e010
 800035c:	e000ed00 	.word	0xe000ed00
 8000360:	ff00ffff 	.word	0xff00ffff
 8000364:	20000504 	.word	0x20000504
 8000368:	20000614 	.word	0x20000614
 800036c:	08000221 	.word	0x08000221
 8000370:	080001a1 	.word	0x080001a1
 8000374:	200006fc 	.word	0x200006fc
 8000378:	08000241 	.word	0x08000241
 800037c:	00000000 	.word	0x00000000

08000380 <chSchRescheduleS>:
 8000380:	4b04      	ldr	r3, [pc, #16]	; (8000394 <chSchRescheduleS+0x14>)
 8000382:	b510      	push	{r4, lr}
 8000384:	6819      	ldr	r1, [r3, #0]
 8000386:	6858      	ldr	r0, [r3, #4]
 8000388:	4281      	cmp	r1, r0
 800038a:	d002      	beq.n	8000392 <chSchRescheduleS+0x12>
 800038c:	6018      	str	r0, [r3, #0]
 800038e:	f7ff fef7 	bl	8000180 <_port_switch>
 8000392:	bd10      	pop	{r4, pc}
 8000394:	20000504 	.word	0x20000504
	...

080003a0 <chSysHalt>:
 80003a0:	b672      	cpsid	i
 80003a2:	e7fe      	b.n	80003a2 <chSysHalt+0x2>
	...

080003b0 <__default_exit>:
 80003b0:	e7fe      	b.n	80003b0 <__default_exit>
 80003b2:	46c0      	nop			; (mov r8, r8)
	...

080003c0 <__late_init>:
 80003c0:	4770      	bx	lr
 80003c2:	46c0      	nop			; (mov r8, r8)
	...

080003d0 <__early_init>:
 80003d0:	4770      	bx	lr
 80003d2:	46c0      	nop			; (mov r8, r8)
