ARM GAS  /var/folders/qd/4mxf5pkd0zdf0b9dd1hp39180000gn/T//ccPWOL7i.s 			page 1


   1              		.cpu cortex-m4
   2              		.eabi_attribute 20, 1
   3              		.eabi_attribute 21, 1
   4              		.eabi_attribute 23, 3
   5              		.eabi_attribute 24, 1
   6              		.eabi_attribute 25, 1
   7              		.eabi_attribute 26, 1
   8              		.eabi_attribute 30, 2
   9              		.eabi_attribute 34, 1
  10              		.eabi_attribute 18, 4
  11              		.file	"ch.cpp"
  12              		.text
  13              	.Ltext0:
  14              		.cfi_sections	.debug_frame
  15              		.section	.text.startup._ZN10chibios_rt10BaseThread4mainEv,"ax",%progbits
  16              		.align	1
  17              		.p2align 4,,15
  18              		.global	_ZN10chibios_rt10BaseThread4mainEv
  19              		.syntax unified
  20              		.thumb
  21              		.thumb_func
  22              		.fpu softvfp
  23              		.type	_ZN10chibios_rt10BaseThread4mainEv, %function
  24              	_ZN10chibios_rt10BaseThread4mainEv:
  25              		.fnstart
  26              	.LFB283:
  27              		.file 1 "../../../os/various/cpp_wrappers/ch.cpp"
  28              		.loc 1 163 0
  29              		.cfi_startproc
  30              		@ args = 0, pretend = 0, frame = 0
  31              		@ frame_needed = 0, uses_anonymous_args = 0
  32              		@ link register save eliminated.
  33              	.LVL0:
  34              		.loc 1 165 0
  35 0000 7047     		bx	lr
  36              		.cfi_endproc
  37              	.LFE283:
  38              		.cantunwind
  39              		.fnend
  40              		.size	_ZN10chibios_rt10BaseThread4mainEv, .-_ZN10chibios_rt10BaseThread4mainEv
  41 0002 00BF     		.section	.text._ZN10chibios_rt10BaseThread5startEm,"ax",%progbits
  42              		.align	1
  43              		.p2align 4,,15
  44              		.global	_ZN10chibios_rt10BaseThread5startEm
  45              		.syntax unified
  46              		.thumb
  47              		.thumb_func
  48              		.fpu softvfp
  49              		.type	_ZN10chibios_rt10BaseThread5startEm, %function
  50              	_ZN10chibios_rt10BaseThread5startEm:
  51              		.fnstart
  52              	.LFB284:
  53              		.loc 1 167 0
  54              		.cfi_startproc
  55              		@ args = 0, pretend = 0, frame = 0
  56              		@ frame_needed = 0, uses_anonymous_args = 0
  57              		@ link register save eliminated.
ARM GAS  /var/folders/qd/4mxf5pkd0zdf0b9dd1hp39180000gn/T//ccPWOL7i.s 			page 2


  58              	.LVL1:
  59              	.LBB100:
  60              	.LBB101:
  61              		.file 2 "../../../os/various/cpp_wrappers/ch.hpp"
  62              		.loc 2 397 0
  63 0000 4968     		ldr	r1, [r1, #4]
  64              	.LVL2:
  65 0002 024A     		ldr	r2, .L4
  66              	.LVL3:
  67 0004 C0E90021 		strd	r2, r1, [r0]
  68              	.LBE101:
  69              	.LBE100:
  70              		.loc 1 172 0
  71 0008 7047     		bx	lr
  72              	.L5:
  73 000a 00BF     		.align	2
  74              	.L4:
  75 000c 08000000 		.word	.LANCHOR0+8
  76              		.cfi_endproc
  77              	.LFE284:
  78              		.cantunwind
  79              		.fnend
  80              		.size	_ZN10chibios_rt10BaseThread5startEm, .-_ZN10chibios_rt10BaseThread5startEm
  81              		.section	.text._ZN10chibios_rt15ThreadReference4stopEv,"ax",%progbits
  82              		.align	1
  83              		.p2align 4,,15
  84              		.global	_ZN10chibios_rt15ThreadReference4stopEv
  85              		.syntax unified
  86              		.thumb
  87              		.thumb_func
  88              		.fpu softvfp
  89              		.type	_ZN10chibios_rt15ThreadReference4stopEv, %function
  90              	_ZN10chibios_rt15ThreadReference4stopEv:
  91              		.fnstart
  92              	.LFB271:
  93              		.loc 1 76 0
  94              		.cfi_startproc
  95              		@ args = 0, pretend = 0, frame = 0
  96              		@ frame_needed = 0, uses_anonymous_args = 0
  97              		@ link register save eliminated.
  98              	.LVL4:
  99              		.loc 1 78 0
 100 0000 0148     		ldr	r0, .L7
 101              	.LVL5:
 102 0002 FFF7FEBF 		b	chSysHalt
 103              	.LVL6:
 104              	.L8:
 105 0006 00BF     		.align	2
 106              	.L7:
 107 0008 00000000 		.word	.LC0
 108              		.cfi_endproc
 109              	.LFE271:
 110              		.cantunwind
 111              		.fnend
 112              		.size	_ZN10chibios_rt15ThreadReference4stopEv, .-_ZN10chibios_rt15ThreadReference4stopEv
 113              		.section	.text._ZN10chibios_rt15ThreadReference16requestTerminateEv,"ax",%progbits
 114              		.align	1
ARM GAS  /var/folders/qd/4mxf5pkd0zdf0b9dd1hp39180000gn/T//ccPWOL7i.s 			page 3


 115              		.p2align 4,,15
 116              		.global	_ZN10chibios_rt15ThreadReference16requestTerminateEv
 117              		.syntax unified
 118              		.thumb
 119              		.thumb_func
 120              		.fpu softvfp
 121              		.type	_ZN10chibios_rt15ThreadReference16requestTerminateEv, %function
 122              	_ZN10chibios_rt15ThreadReference16requestTerminateEv:
 123              		.fnstart
 124              	.LFB272:
 125              		.loc 1 81 0
 126              		.cfi_startproc
 127              		@ args = 0, pretend = 0, frame = 0
 128              		@ frame_needed = 0, uses_anonymous_args = 0
 129              		@ link register save eliminated.
 130              	.LVL7:
 131              		.loc 1 86 0
 132 0000 4068     		ldr	r0, [r0, #4]
 133              	.LVL8:
 134 0002 FFF7FEBF 		b	chThdTerminate
 135              	.LVL9:
 136              		.cfi_endproc
 137              	.LFE272:
 138              		.cantunwind
 139              		.fnend
 140              		.size	_ZN10chibios_rt15ThreadReference16requestTerminateEv, .-_ZN10chibios_rt15ThreadReference16re
 141 0006 00BF     		.section	.text._ZN10chibios_rt15ThreadReference4waitEv,"ax",%progbits
 142              		.align	1
 143              		.p2align 4,,15
 144              		.global	_ZN10chibios_rt15ThreadReference4waitEv
 145              		.syntax unified
 146              		.thumb
 147              		.thumb_func
 148              		.fpu softvfp
 149              		.type	_ZN10chibios_rt15ThreadReference4waitEv, %function
 150              	_ZN10chibios_rt15ThreadReference4waitEv:
 151              		.fnstart
 152              	.LFB273:
 153              		.loc 1 90 0
 154              		.cfi_startproc
 155              		@ args = 0, pretend = 0, frame = 0
 156              		@ frame_needed = 0, uses_anonymous_args = 0
 157              	.LVL10:
 158 0000 10B5     		push	{r4, lr}
 159              		.save {r4, lr}
 160              		.cfi_def_cfa_offset 8
 161              		.cfi_offset 4, -8
 162              		.cfi_offset 14, -4
 163              		.loc 1 90 0
 164 0002 0446     		mov	r4, r0
 165              		.loc 1 95 0
 166 0004 4068     		ldr	r0, [r0, #4]
 167              	.LVL11:
 168 0006 FFF7FEFF 		bl	chThdWait
 169              	.LVL12:
 170              		.loc 1 96 0
 171 000a 0023     		movs	r3, #0
ARM GAS  /var/folders/qd/4mxf5pkd0zdf0b9dd1hp39180000gn/T//ccPWOL7i.s 			page 4


 172 000c 6360     		str	r3, [r4, #4]
 173              		.loc 1 98 0
 174 000e 10BD     		pop	{r4, pc}
 175              		.cfi_endproc
 176              	.LFE273:
 177              		.fnend
 178              		.size	_ZN10chibios_rt15ThreadReference4waitEv, .-_ZN10chibios_rt15ThreadReference4waitEv
 179              		.section	.text._ZN10chibios_rt15ThreadReference11sendMessageEl,"ax",%progbits
 180              		.align	1
 181              		.p2align 4,,15
 182              		.global	_ZN10chibios_rt15ThreadReference11sendMessageEl
 183              		.syntax unified
 184              		.thumb
 185              		.thumb_func
 186              		.fpu softvfp
 187              		.type	_ZN10chibios_rt15ThreadReference11sendMessageEl, %function
 188              	_ZN10chibios_rt15ThreadReference11sendMessageEl:
 189              		.fnstart
 190              	.LFB274:
 191              		.loc 1 102 0
 192              		.cfi_startproc
 193              		@ args = 0, pretend = 0, frame = 0
 194              		@ frame_needed = 0, uses_anonymous_args = 0
 195              		@ link register save eliminated.
 196              	.LVL13:
 197              		.loc 1 107 0
 198 0000 4068     		ldr	r0, [r0, #4]
 199              	.LVL14:
 200 0002 FFF7FEBF 		b	chMsgSend
 201              	.LVL15:
 202              		.cfi_endproc
 203              	.LFE274:
 204              		.cantunwind
 205              		.fnend
 206              		.size	_ZN10chibios_rt15ThreadReference11sendMessageEl, .-_ZN10chibios_rt15ThreadReference11sendMes
 207 0006 00BF     		.section	.text._ZN10chibios_rt15ThreadReference16isPendingMessageEv,"ax",%progbits
 208              		.align	1
 209              		.p2align 4,,15
 210              		.global	_ZN10chibios_rt15ThreadReference16isPendingMessageEv
 211              		.syntax unified
 212              		.thumb
 213              		.thumb_func
 214              		.fpu softvfp
 215              		.type	_ZN10chibios_rt15ThreadReference16isPendingMessageEv, %function
 216              	_ZN10chibios_rt15ThreadReference16isPendingMessageEv:
 217              		.fnstart
 218              	.LFB275:
 219              		.loc 1 110 0
 220              		.cfi_startproc
 221              		@ args = 0, pretend = 0, frame = 0
 222              		@ frame_needed = 0, uses_anonymous_args = 0
 223              		@ link register save eliminated.
 224              	.LVL16:
 225              		.loc 1 115 0
 226 0000 4368     		ldr	r3, [r0, #4]
 227              	.LBB102:
 228              	.LBB103:
ARM GAS  /var/folders/qd/4mxf5pkd0zdf0b9dd1hp39180000gn/T//ccPWOL7i.s 			page 5


 229              		.file 3 "../../../os/rt/include/chmsg.h"
 230              		.loc 3 83 0
 231 0002 986A     		ldr	r0, [r3, #40]
 232              	.LVL17:
 233 0004 2833     		adds	r3, r3, #40
 234              	.LBE103:
 235              	.LBE102:
 236              		.loc 1 116 0
 237 0006 C01A     		subs	r0, r0, r3
 238 0008 18BF     		it	ne
 239 000a 0120     		movne	r0, #1
 240 000c 7047     		bx	lr
 241              		.cfi_endproc
 242              	.LFE275:
 243              		.cantunwind
 244              		.fnend
 245              		.size	_ZN10chibios_rt15ThreadReference16isPendingMessageEv, .-_ZN10chibios_rt15ThreadReference16is
 246 000e 00BF     		.section	.text._ZN10chibios_rt15ThreadReference10getMessageEv,"ax",%progbits
 247              		.align	1
 248              		.p2align 4,,15
 249              		.global	_ZN10chibios_rt15ThreadReference10getMessageEv
 250              		.syntax unified
 251              		.thumb
 252              		.thumb_func
 253              		.fpu softvfp
 254              		.type	_ZN10chibios_rt15ThreadReference10getMessageEv, %function
 255              	_ZN10chibios_rt15ThreadReference10getMessageEv:
 256              		.fnstart
 257              	.LFB276:
 258              		.loc 1 118 0
 259              		.cfi_startproc
 260              		@ args = 0, pretend = 0, frame = 0
 261              		@ frame_needed = 0, uses_anonymous_args = 0
 262              		@ link register save eliminated.
 263              	.LVL18:
 264              		.loc 1 123 0
 265 0000 4368     		ldr	r3, [r0, #4]
 266              		.loc 1 124 0
 267 0002 186B     		ldr	r0, [r3, #48]
 268              	.LVL19:
 269 0004 7047     		bx	lr
 270              		.cfi_endproc
 271              	.LFE276:
 272              		.cantunwind
 273              		.fnend
 274              		.size	_ZN10chibios_rt15ThreadReference10getMessageEv, .-_ZN10chibios_rt15ThreadReference10getMessa
 275 0006 00BF     		.section	.text._ZN10chibios_rt15ThreadReference14releaseMessageEl,"ax",%progbits
 276              		.align	1
 277              		.p2align 4,,15
 278              		.global	_ZN10chibios_rt15ThreadReference14releaseMessageEl
 279              		.syntax unified
 280              		.thumb
 281              		.thumb_func
 282              		.fpu softvfp
 283              		.type	_ZN10chibios_rt15ThreadReference14releaseMessageEl, %function
 284              	_ZN10chibios_rt15ThreadReference14releaseMessageEl:
 285              		.fnstart
ARM GAS  /var/folders/qd/4mxf5pkd0zdf0b9dd1hp39180000gn/T//ccPWOL7i.s 			page 6


 286              	.LFB277:
 287              		.loc 1 126 0
 288              		.cfi_startproc
 289              		@ args = 0, pretend = 0, frame = 0
 290              		@ frame_needed = 0, uses_anonymous_args = 0
 291              		@ link register save eliminated.
 292              	.LVL20:
 293              		.loc 1 131 0
 294 0000 4068     		ldr	r0, [r0, #4]
 295              	.LVL21:
 296 0002 FFF7FEBF 		b	chMsgRelease
 297              	.LVL22:
 298              		.cfi_endproc
 299              	.LFE277:
 300              		.cantunwind
 301              		.fnend
 302              		.size	_ZN10chibios_rt15ThreadReference14releaseMessageEl, .-_ZN10chibios_rt15ThreadReference14rele
 303 0006 00BF     		.section	.text._ZN10chibios_rt15ThreadReference12signalEventsEm,"ax",%progbits
 304              		.align	1
 305              		.p2align 4,,15
 306              		.global	_ZN10chibios_rt15ThreadReference12signalEventsEm
 307              		.syntax unified
 308              		.thumb
 309              		.thumb_func
 310              		.fpu softvfp
 311              		.type	_ZN10chibios_rt15ThreadReference12signalEventsEm, %function
 312              	_ZN10chibios_rt15ThreadReference12signalEventsEm:
 313              		.fnstart
 314              	.LFB278:
 315              		.loc 1 136 0
 316              		.cfi_startproc
 317              		@ args = 0, pretend = 0, frame = 0
 318              		@ frame_needed = 0, uses_anonymous_args = 0
 319              		@ link register save eliminated.
 320              	.LVL23:
 321              		.loc 1 141 0
 322 0000 4068     		ldr	r0, [r0, #4]
 323              	.LVL24:
 324 0002 FFF7FEBF 		b	chEvtSignal
 325              	.LVL25:
 326              		.cfi_endproc
 327              	.LFE278:
 328              		.cantunwind
 329              		.fnend
 330              		.size	_ZN10chibios_rt15ThreadReference12signalEventsEm, .-_ZN10chibios_rt15ThreadReference12signal
 331 0006 00BF     		.section	.text._ZN10chibios_rt15ThreadReference13signalEventsIEm,"ax",%progbits
 332              		.align	1
 333              		.p2align 4,,15
 334              		.global	_ZN10chibios_rt15ThreadReference13signalEventsIEm
 335              		.syntax unified
 336              		.thumb
 337              		.thumb_func
 338              		.fpu softvfp
 339              		.type	_ZN10chibios_rt15ThreadReference13signalEventsIEm, %function
 340              	_ZN10chibios_rt15ThreadReference13signalEventsIEm:
 341              		.fnstart
 342              	.LFB279:
ARM GAS  /var/folders/qd/4mxf5pkd0zdf0b9dd1hp39180000gn/T//ccPWOL7i.s 			page 7


 343              		.loc 1 144 0
 344              		.cfi_startproc
 345              		@ args = 0, pretend = 0, frame = 0
 346              		@ frame_needed = 0, uses_anonymous_args = 0
 347              		@ link register save eliminated.
 348              	.LVL26:
 349              		.loc 1 149 0
 350 0000 4068     		ldr	r0, [r0, #4]
 351              	.LVL27:
 352 0002 FFF7FEBF 		b	chEvtSignalI
 353              	.LVL28:
 354              		.cfi_endproc
 355              	.LFE279:
 356              		.cantunwind
 357              		.fnend
 358              		.size	_ZN10chibios_rt15ThreadReference13signalEventsIEm, .-_ZN10chibios_rt15ThreadReference13signa
 359 0006 00BF     		.section	.text._ZN10chibios_rt10BaseThreadC2Ev,"ax",%progbits
 360              		.align	1
 361              		.p2align 4,,15
 362              		.global	_ZN10chibios_rt10BaseThreadC2Ev
 363              		.syntax unified
 364              		.thumb
 365              		.thumb_func
 366              		.fpu softvfp
 367              		.type	_ZN10chibios_rt10BaseThreadC2Ev, %function
 368              	_ZN10chibios_rt10BaseThreadC2Ev:
 369              		.fnstart
 370              	.LFB281:
 371              		.loc 1 159 0
 372              		.cfi_startproc
 373              		@ args = 0, pretend = 0, frame = 0
 374              		@ frame_needed = 0, uses_anonymous_args = 0
 375              		@ link register save eliminated.
 376              	.LVL29:
 377              	.LBB104:
 378              		.loc 1 159 0
 379 0000 024A     		ldr	r2, .L19
 380              	.LBB105:
 381              	.LBB106:
 382              		.loc 2 413 0
 383 0002 0021     		movs	r1, #0
 384              	.LBE106:
 385              	.LBE105:
 386              		.loc 1 159 0
 387 0004 C0E90021 		strd	r2, r1, [r0]
 388              	.LBE104:
 389              		.loc 1 161 0
 390 0008 7047     		bx	lr
 391              	.L20:
 392 000a 00BF     		.align	2
 393              	.L19:
 394 000c 08000000 		.word	.LANCHOR1+8
 395              		.cfi_endproc
 396              	.LFE281:
 397              		.cantunwind
 398              		.fnend
 399              		.size	_ZN10chibios_rt10BaseThreadC2Ev, .-_ZN10chibios_rt10BaseThreadC2Ev
ARM GAS  /var/folders/qd/4mxf5pkd0zdf0b9dd1hp39180000gn/T//ccPWOL7i.s 			page 8


 400              		.global	_ZN10chibios_rt10BaseThreadC1Ev
 401              		.thumb_set _ZN10chibios_rt10BaseThreadC1Ev,_ZN10chibios_rt10BaseThreadC2Ev
 402              		.section	.text._ZN10chibios_rt10_thd_startEPv,"ax",%progbits
 403              		.align	1
 404              		.p2align 4,,15
 405              		.global	_ZN10chibios_rt10_thd_startEPv
 406              		.syntax unified
 407              		.thumb
 408              		.thumb_func
 409              		.fpu softvfp
 410              		.type	_ZN10chibios_rt10_thd_startEPv, %function
 411              	_ZN10chibios_rt10_thd_startEPv:
 412              		.fnstart
 413              	.LFB288:
 414              		.loc 1 174 0
 415              		.cfi_startproc
 416              		@ args = 0, pretend = 0, frame = 0
 417              		@ frame_needed = 0, uses_anonymous_args = 0
 418              		@ link register save eliminated.
 419              	.LVL30:
 420              		.loc 1 176 0
 421 0000 0368     		ldr	r3, [r0]
 422 0002 5B68     		ldr	r3, [r3, #4]
 423 0004 1847     		bx	r3	@ indirect register sibling call
 424              	.LVL31:
 425              		.cfi_endproc
 426              	.LFE288:
 427              		.cantunwind
 428              		.fnend
 429              		.size	_ZN10chibios_rt10_thd_startEPv, .-_ZN10chibios_rt10_thd_startEPv
 430 0006 00BF     		.section	.text._ZN10chibios_rt10BaseThread7setNameEPKc,"ax",%progbits
 431              		.align	1
 432              		.p2align 4,,15
 433              		.global	_ZN10chibios_rt10BaseThread7setNameEPKc
 434              		.syntax unified
 435              		.thumb
 436              		.thumb_func
 437              		.fpu softvfp
 438              		.type	_ZN10chibios_rt10BaseThread7setNameEPKc, %function
 439              	_ZN10chibios_rt10BaseThread7setNameEPKc:
 440              		.fnstart
 441              	.LFB289:
 442              		.loc 1 179 0
 443              		.cfi_startproc
 444              		@ args = 0, pretend = 0, frame = 0
 445              		@ frame_needed = 0, uses_anonymous_args = 0
 446              		@ link register save eliminated.
 447              	.LVL32:
 448              	.LBB107:
 449              	.LBB108:
 450              		.file 4 "../../../os/rt/include/chregistry.h"
 451              		.loc 4 135 0
 452 0000 014B     		ldr	r3, .L23
 453 0002 9B69     		ldr	r3, [r3, #24]
 454 0004 9861     		str	r0, [r3, #24]
 455              	.LVL33:
 456              	.LBE108:
ARM GAS  /var/folders/qd/4mxf5pkd0zdf0b9dd1hp39180000gn/T//ccPWOL7i.s 			page 9


 457              	.LBE107:
 458              		.loc 1 182 0
 459 0006 7047     		bx	lr
 460              	.L24:
 461              		.align	2
 462              	.L23:
 463 0008 00000000 		.word	ch
 464              		.cfi_endproc
 465              	.LFE289:
 466              		.cantunwind
 467              		.fnend
 468              		.size	_ZN10chibios_rt10BaseThread7setNameEPKc, .-_ZN10chibios_rt10BaseThread7setNameEPKc
 469              		.section	.text._ZN10chibios_rt10BaseThread11setPriorityEm,"ax",%progbits
 470              		.align	1
 471              		.p2align 4,,15
 472              		.global	_ZN10chibios_rt10BaseThread11setPriorityEm
 473              		.syntax unified
 474              		.thumb
 475              		.thumb_func
 476              		.fpu softvfp
 477              		.type	_ZN10chibios_rt10BaseThread11setPriorityEm, %function
 478              	_ZN10chibios_rt10BaseThread11setPriorityEm:
 479              		.fnstart
 480              	.LFB290:
 481              		.loc 1 184 0
 482              		.cfi_startproc
 483              		@ args = 0, pretend = 0, frame = 0
 484              		@ frame_needed = 0, uses_anonymous_args = 0
 485              		@ link register save eliminated.
 486              	.LVL34:
 487              		.loc 1 186 0
 488 0000 FFF7FEBF 		b	chThdSetPriority
 489              	.LVL35:
 490              		.cfi_endproc
 491              	.LFE290:
 492              		.cantunwind
 493              		.fnend
 494              		.size	_ZN10chibios_rt10BaseThread11setPriorityEm, .-_ZN10chibios_rt10BaseThread11setPriorityEm
 495              		.section	.text._ZN10chibios_rt10BaseThread4exitEl,"ax",%progbits
 496              		.align	1
 497              		.p2align 4,,15
 498              		.global	_ZN10chibios_rt10BaseThread4exitEl
 499              		.syntax unified
 500              		.thumb
 501              		.thumb_func
 502              		.fpu softvfp
 503              		.type	_ZN10chibios_rt10BaseThread4exitEl, %function
 504              	_ZN10chibios_rt10BaseThread4exitEl:
 505              		.fnstart
 506              	.LFB291:
 507              		.loc 1 189 0
 508              		.cfi_startproc
 509              		@ args = 0, pretend = 0, frame = 0
 510              		@ frame_needed = 0, uses_anonymous_args = 0
 511              		@ link register save eliminated.
 512              	.LVL36:
 513              		.loc 1 191 0
ARM GAS  /var/folders/qd/4mxf5pkd0zdf0b9dd1hp39180000gn/T//ccPWOL7i.s 			page 10


 514 0000 FFF7FEBF 		b	chThdExit
 515              	.LVL37:
 516              		.cfi_endproc
 517              	.LFE291:
 518              		.cantunwind
 519              		.fnend
 520              		.size	_ZN10chibios_rt10BaseThread4exitEl, .-_ZN10chibios_rt10BaseThread4exitEl
 521              		.section	.text._ZN10chibios_rt10BaseThread5exitSEl,"ax",%progbits
 522              		.align	1
 523              		.p2align 4,,15
 524              		.global	_ZN10chibios_rt10BaseThread5exitSEl
 525              		.syntax unified
 526              		.thumb
 527              		.thumb_func
 528              		.fpu softvfp
 529              		.type	_ZN10chibios_rt10BaseThread5exitSEl, %function
 530              	_ZN10chibios_rt10BaseThread5exitSEl:
 531              		.fnstart
 532              	.LFB292:
 533              		.loc 1 194 0
 534              		.cfi_startproc
 535              		@ args = 0, pretend = 0, frame = 0
 536              		@ frame_needed = 0, uses_anonymous_args = 0
 537              		@ link register save eliminated.
 538              	.LVL38:
 539              		.loc 1 196 0
 540 0000 FFF7FEBF 		b	chThdExitS
 541              	.LVL39:
 542              		.cfi_endproc
 543              	.LFE292:
 544              		.cantunwind
 545              		.fnend
 546              		.size	_ZN10chibios_rt10BaseThread5exitSEl, .-_ZN10chibios_rt10BaseThread5exitSEl
 547              		.section	.text._ZN10chibios_rt10BaseThread15shouldTerminateEv,"ax",%progbits
 548              		.align	1
 549              		.p2align 4,,15
 550              		.global	_ZN10chibios_rt10BaseThread15shouldTerminateEv
 551              		.syntax unified
 552              		.thumb
 553              		.thumb_func
 554              		.fpu softvfp
 555              		.type	_ZN10chibios_rt10BaseThread15shouldTerminateEv, %function
 556              	_ZN10chibios_rt10BaseThread15shouldTerminateEv:
 557              		.fnstart
 558              	.LFB293:
 559              		.loc 1 199 0
 560              		.cfi_startproc
 561              		@ args = 0, pretend = 0, frame = 0
 562              		@ frame_needed = 0, uses_anonymous_args = 0
 563              		@ link register save eliminated.
 564              	.LBB109:
 565              	.LBB110:
 566              	.LBB111:
 567              	.LBB112:
 568              		.file 5 "../../../os/rt/include/chthreads.h"
 569              		.loc 5 176 0
 570 0000 024B     		ldr	r3, .L29
ARM GAS  /var/folders/qd/4mxf5pkd0zdf0b9dd1hp39180000gn/T//ccPWOL7i.s 			page 11


 571              	.LBE112:
 572              	.LBE111:
 573              		.loc 5 233 0
 574 0002 9B69     		ldr	r3, [r3, #24]
 575 0004 587F     		ldrb	r0, [r3, #29]	@ zero_extendqisi2
 576              	.LBE110:
 577              	.LBE109:
 578              		.loc 1 202 0
 579 0006 C0F38000 		ubfx	r0, r0, #2, #1
 580 000a 7047     		bx	lr
 581              	.L30:
 582              		.align	2
 583              	.L29:
 584 000c 00000000 		.word	ch
 585              		.cfi_endproc
 586              	.LFE293:
 587              		.cantunwind
 588              		.fnend
 589              		.size	_ZN10chibios_rt10BaseThread15shouldTerminateEv, .-_ZN10chibios_rt10BaseThread15shouldTermina
 590              		.section	.text._ZN10chibios_rt10BaseThread5sleepEm,"ax",%progbits
 591              		.align	1
 592              		.p2align 4,,15
 593              		.global	_ZN10chibios_rt10BaseThread5sleepEm
 594              		.syntax unified
 595              		.thumb
 596              		.thumb_func
 597              		.fpu softvfp
 598              		.type	_ZN10chibios_rt10BaseThread5sleepEm, %function
 599              	_ZN10chibios_rt10BaseThread5sleepEm:
 600              		.fnstart
 601              	.LFB294:
 602              		.loc 1 204 0
 603              		.cfi_startproc
 604              		@ args = 0, pretend = 0, frame = 0
 605              		@ frame_needed = 0, uses_anonymous_args = 0
 606              		@ link register save eliminated.
 607              	.LVL40:
 608              		.loc 1 206 0
 609 0000 FFF7FEBF 		b	chThdSleep
 610              	.LVL41:
 611              		.cfi_endproc
 612              	.LFE294:
 613              		.cantunwind
 614              		.fnend
 615              		.size	_ZN10chibios_rt10BaseThread5sleepEm, .-_ZN10chibios_rt10BaseThread5sleepEm
 616              		.section	.text._ZN10chibios_rt10BaseThread10sleepUntilEm,"ax",%progbits
 617              		.align	1
 618              		.p2align 4,,15
 619              		.global	_ZN10chibios_rt10BaseThread10sleepUntilEm
 620              		.syntax unified
 621              		.thumb
 622              		.thumb_func
 623              		.fpu softvfp
 624              		.type	_ZN10chibios_rt10BaseThread10sleepUntilEm, %function
 625              	_ZN10chibios_rt10BaseThread10sleepUntilEm:
 626              		.fnstart
 627              	.LFB295:
ARM GAS  /var/folders/qd/4mxf5pkd0zdf0b9dd1hp39180000gn/T//ccPWOL7i.s 			page 12


 628              		.loc 1 209 0
 629              		.cfi_startproc
 630              		@ args = 0, pretend = 0, frame = 0
 631              		@ frame_needed = 0, uses_anonymous_args = 0
 632              		@ link register save eliminated.
 633              	.LVL42:
 634              		.loc 1 211 0
 635 0000 FFF7FEBF 		b	chThdSleepUntil
 636              	.LVL43:
 637              		.cfi_endproc
 638              	.LFE295:
 639              		.cantunwind
 640              		.fnend
 641              		.size	_ZN10chibios_rt10BaseThread10sleepUntilEm, .-_ZN10chibios_rt10BaseThread10sleepUntilEm
 642              		.section	.text._ZN10chibios_rt10BaseThread5yieldEv,"ax",%progbits
 643              		.align	1
 644              		.p2align 4,,15
 645              		.global	_ZN10chibios_rt10BaseThread5yieldEv
 646              		.syntax unified
 647              		.thumb
 648              		.thumb_func
 649              		.fpu softvfp
 650              		.type	_ZN10chibios_rt10BaseThread5yieldEv, %function
 651              	_ZN10chibios_rt10BaseThread5yieldEv:
 652              		.fnstart
 653              	.LFB296:
 654              		.loc 1 214 0
 655              		.cfi_startproc
 656              		@ args = 0, pretend = 0, frame = 0
 657              		@ frame_needed = 0, uses_anonymous_args = 0
 658              		@ link register save eliminated.
 659              		.loc 1 216 0
 660 0000 FFF7FEBF 		b	chThdYield
 661              	.LVL44:
 662              		.cfi_endproc
 663              	.LFE296:
 664              		.cantunwind
 665              		.fnend
 666              		.size	_ZN10chibios_rt10BaseThread5yieldEv, .-_ZN10chibios_rt10BaseThread5yieldEv
 667              		.section	.text._ZN10chibios_rt10BaseThread11waitMessageEv,"ax",%progbits
 668              		.align	1
 669              		.p2align 4,,15
 670              		.global	_ZN10chibios_rt10BaseThread11waitMessageEv
 671              		.syntax unified
 672              		.thumb
 673              		.thumb_func
 674              		.fpu softvfp
 675              		.type	_ZN10chibios_rt10BaseThread11waitMessageEv, %function
 676              	_ZN10chibios_rt10BaseThread11waitMessageEv:
 677              		.fnstart
 678              	.LFB297:
 679              		.loc 1 220 0
 680              		.cfi_startproc
 681              		@ args = 0, pretend = 0, frame = 0
 682              		@ frame_needed = 0, uses_anonymous_args = 0
 683              	.LVL45:
 684 0000 10B5     		push	{r4, lr}
ARM GAS  /var/folders/qd/4mxf5pkd0zdf0b9dd1hp39180000gn/T//ccPWOL7i.s 			page 13


 685              		.save {r4, lr}
 686              		.cfi_def_cfa_offset 8
 687              		.cfi_offset 4, -8
 688              		.cfi_offset 14, -4
 689              		.loc 1 220 0
 690 0002 0446     		mov	r4, r0
 691              		.loc 1 222 0
 692 0004 FFF7FEFF 		bl	chMsgWait
 693              	.LVL46:
 694              	.LBB113:
 695              	.LBB114:
 696              		.loc 2 413 0
 697 0008 024B     		ldr	r3, .L36
 698 000a C4E90030 		strd	r3, r0, [r4]
 699              	.LBE114:
 700              	.LBE113:
 701              		.loc 1 224 0
 702 000e 2046     		mov	r0, r4
 703              	.LVL47:
 704 0010 10BD     		pop	{r4, pc}
 705              	.LVL48:
 706              	.L37:
 707 0012 00BF     		.align	2
 708              	.L36:
 709 0014 08000000 		.word	.LANCHOR0+8
 710              		.cfi_endproc
 711              	.LFE297:
 712              		.fnend
 713              		.size	_ZN10chibios_rt10BaseThread11waitMessageEv, .-_ZN10chibios_rt10BaseThread11waitMessageEv
 714              		.section	.text._ZN10chibios_rt10BaseThread17getAndClearEventsEm,"ax",%progbits
 715              		.align	1
 716              		.p2align 4,,15
 717              		.global	_ZN10chibios_rt10BaseThread17getAndClearEventsEm
 718              		.syntax unified
 719              		.thumb
 720              		.thumb_func
 721              		.fpu softvfp
 722              		.type	_ZN10chibios_rt10BaseThread17getAndClearEventsEm, %function
 723              	_ZN10chibios_rt10BaseThread17getAndClearEventsEm:
 724              		.fnstart
 725              	.LFB301:
 726              		.loc 1 228 0
 727              		.cfi_startproc
 728              		@ args = 0, pretend = 0, frame = 0
 729              		@ frame_needed = 0, uses_anonymous_args = 0
 730              		@ link register save eliminated.
 731              	.LVL49:
 732              		.loc 1 230 0
 733 0000 FFF7FEBF 		b	chEvtGetAndClearEvents
 734              	.LVL50:
 735              		.cfi_endproc
 736              	.LFE301:
 737              		.cantunwind
 738              		.fnend
 739              		.size	_ZN10chibios_rt10BaseThread17getAndClearEventsEm, .-_ZN10chibios_rt10BaseThread17getAndClear
 740              		.section	.text._ZN10chibios_rt10BaseThread9addEventsEm,"ax",%progbits
 741              		.align	1
ARM GAS  /var/folders/qd/4mxf5pkd0zdf0b9dd1hp39180000gn/T//ccPWOL7i.s 			page 14


 742              		.p2align 4,,15
 743              		.global	_ZN10chibios_rt10BaseThread9addEventsEm
 744              		.syntax unified
 745              		.thumb
 746              		.thumb_func
 747              		.fpu softvfp
 748              		.type	_ZN10chibios_rt10BaseThread9addEventsEm, %function
 749              	_ZN10chibios_rt10BaseThread9addEventsEm:
 750              		.fnstart
 751              	.LFB302:
 752              		.loc 1 233 0
 753              		.cfi_startproc
 754              		@ args = 0, pretend = 0, frame = 0
 755              		@ frame_needed = 0, uses_anonymous_args = 0
 756              		@ link register save eliminated.
 757              	.LVL51:
 758              		.loc 1 235 0
 759 0000 FFF7FEBF 		b	chEvtAddEvents
 760              	.LVL52:
 761              		.cfi_endproc
 762              	.LFE302:
 763              		.cantunwind
 764              		.fnend
 765              		.size	_ZN10chibios_rt10BaseThread9addEventsEm, .-_ZN10chibios_rt10BaseThread9addEventsEm
 766              		.section	.text._ZN10chibios_rt10BaseThread12waitOneEventEm,"ax",%progbits
 767              		.align	1
 768              		.p2align 4,,15
 769              		.global	_ZN10chibios_rt10BaseThread12waitOneEventEm
 770              		.syntax unified
 771              		.thumb
 772              		.thumb_func
 773              		.fpu softvfp
 774              		.type	_ZN10chibios_rt10BaseThread12waitOneEventEm, %function
 775              	_ZN10chibios_rt10BaseThread12waitOneEventEm:
 776              		.fnstart
 777              	.LFB303:
 778              		.loc 1 238 0
 779              		.cfi_startproc
 780              		@ args = 0, pretend = 0, frame = 0
 781              		@ frame_needed = 0, uses_anonymous_args = 0
 782              		@ link register save eliminated.
 783              	.LVL53:
 784              		.loc 1 240 0
 785 0000 FFF7FEBF 		b	chEvtWaitOne
 786              	.LVL54:
 787              		.cfi_endproc
 788              	.LFE303:
 789              		.cantunwind
 790              		.fnend
 791              		.size	_ZN10chibios_rt10BaseThread12waitOneEventEm, .-_ZN10chibios_rt10BaseThread12waitOneEventEm
 792              		.section	.text._ZN10chibios_rt10BaseThread12waitAnyEventEm,"ax",%progbits
 793              		.align	1
 794              		.p2align 4,,15
 795              		.global	_ZN10chibios_rt10BaseThread12waitAnyEventEm
 796              		.syntax unified
 797              		.thumb
 798              		.thumb_func
ARM GAS  /var/folders/qd/4mxf5pkd0zdf0b9dd1hp39180000gn/T//ccPWOL7i.s 			page 15


 799              		.fpu softvfp
 800              		.type	_ZN10chibios_rt10BaseThread12waitAnyEventEm, %function
 801              	_ZN10chibios_rt10BaseThread12waitAnyEventEm:
 802              		.fnstart
 803              	.LFB304:
 804              		.loc 1 243 0
 805              		.cfi_startproc
 806              		@ args = 0, pretend = 0, frame = 0
 807              		@ frame_needed = 0, uses_anonymous_args = 0
 808              		@ link register save eliminated.
 809              	.LVL55:
 810              		.loc 1 245 0
 811 0000 FFF7FEBF 		b	chEvtWaitAny
 812              	.LVL56:
 813              		.cfi_endproc
 814              	.LFE304:
 815              		.cantunwind
 816              		.fnend
 817              		.size	_ZN10chibios_rt10BaseThread12waitAnyEventEm, .-_ZN10chibios_rt10BaseThread12waitAnyEventEm
 818              		.section	.text._ZN10chibios_rt10BaseThread13waitAllEventsEm,"ax",%progbits
 819              		.align	1
 820              		.p2align 4,,15
 821              		.global	_ZN10chibios_rt10BaseThread13waitAllEventsEm
 822              		.syntax unified
 823              		.thumb
 824              		.thumb_func
 825              		.fpu softvfp
 826              		.type	_ZN10chibios_rt10BaseThread13waitAllEventsEm, %function
 827              	_ZN10chibios_rt10BaseThread13waitAllEventsEm:
 828              		.fnstart
 829              	.LFB305:
 830              		.loc 1 248 0
 831              		.cfi_startproc
 832              		@ args = 0, pretend = 0, frame = 0
 833              		@ frame_needed = 0, uses_anonymous_args = 0
 834              		@ link register save eliminated.
 835              	.LVL57:
 836              		.loc 1 250 0
 837 0000 FFF7FEBF 		b	chEvtWaitAll
 838              	.LVL58:
 839              		.cfi_endproc
 840              	.LFE305:
 841              		.cantunwind
 842              		.fnend
 843              		.size	_ZN10chibios_rt10BaseThread13waitAllEventsEm, .-_ZN10chibios_rt10BaseThread13waitAllEventsEm
 844              		.section	.text._ZN10chibios_rt10BaseThread19waitOneEventTimeoutEmm,"ax",%progbits
 845              		.align	1
 846              		.p2align 4,,15
 847              		.global	_ZN10chibios_rt10BaseThread19waitOneEventTimeoutEmm
 848              		.syntax unified
 849              		.thumb
 850              		.thumb_func
 851              		.fpu softvfp
 852              		.type	_ZN10chibios_rt10BaseThread19waitOneEventTimeoutEmm, %function
 853              	_ZN10chibios_rt10BaseThread19waitOneEventTimeoutEmm:
 854              		.fnstart
 855              	.LFB306:
ARM GAS  /var/folders/qd/4mxf5pkd0zdf0b9dd1hp39180000gn/T//ccPWOL7i.s 			page 16


 856              		.loc 1 255 0
 857              		.cfi_startproc
 858              		@ args = 0, pretend = 0, frame = 0
 859              		@ frame_needed = 0, uses_anonymous_args = 0
 860              		@ link register save eliminated.
 861              	.LVL59:
 862              		.loc 1 257 0
 863 0000 FFF7FEBF 		b	chEvtWaitOneTimeout
 864              	.LVL60:
 865              		.cfi_endproc
 866              	.LFE306:
 867              		.cantunwind
 868              		.fnend
 869              		.size	_ZN10chibios_rt10BaseThread19waitOneEventTimeoutEmm, .-_ZN10chibios_rt10BaseThread19waitOneE
 870              		.section	.text._ZN10chibios_rt10BaseThread19waitAnyEventTimeoutEmm,"ax",%progbits
 871              		.align	1
 872              		.p2align 4,,15
 873              		.global	_ZN10chibios_rt10BaseThread19waitAnyEventTimeoutEmm
 874              		.syntax unified
 875              		.thumb
 876              		.thumb_func
 877              		.fpu softvfp
 878              		.type	_ZN10chibios_rt10BaseThread19waitAnyEventTimeoutEmm, %function
 879              	_ZN10chibios_rt10BaseThread19waitAnyEventTimeoutEmm:
 880              		.fnstart
 881              	.LFB307:
 882              		.loc 1 261 0
 883              		.cfi_startproc
 884              		@ args = 0, pretend = 0, frame = 0
 885              		@ frame_needed = 0, uses_anonymous_args = 0
 886              		@ link register save eliminated.
 887              	.LVL61:
 888              		.loc 1 263 0
 889 0000 FFF7FEBF 		b	chEvtWaitAnyTimeout
 890              	.LVL62:
 891              		.cfi_endproc
 892              	.LFE307:
 893              		.cantunwind
 894              		.fnend
 895              		.size	_ZN10chibios_rt10BaseThread19waitAnyEventTimeoutEmm, .-_ZN10chibios_rt10BaseThread19waitAnyE
 896              		.section	.text._ZN10chibios_rt10BaseThread20waitAllEventsTimeoutEmm,"ax",%progbits
 897              		.align	1
 898              		.p2align 4,,15
 899              		.global	_ZN10chibios_rt10BaseThread20waitAllEventsTimeoutEmm
 900              		.syntax unified
 901              		.thumb
 902              		.thumb_func
 903              		.fpu softvfp
 904              		.type	_ZN10chibios_rt10BaseThread20waitAllEventsTimeoutEmm, %function
 905              	_ZN10chibios_rt10BaseThread20waitAllEventsTimeoutEmm:
 906              		.fnstart
 907              	.LFB308:
 908              		.loc 1 267 0
 909              		.cfi_startproc
 910              		@ args = 0, pretend = 0, frame = 0
 911              		@ frame_needed = 0, uses_anonymous_args = 0
 912              		@ link register save eliminated.
ARM GAS  /var/folders/qd/4mxf5pkd0zdf0b9dd1hp39180000gn/T//ccPWOL7i.s 			page 17


 913              	.LVL63:
 914              		.loc 1 269 0
 915 0000 FFF7FEBF 		b	chEvtWaitAllTimeout
 916              	.LVL64:
 917              		.cfi_endproc
 918              	.LFE308:
 919              		.cantunwind
 920              		.fnend
 921              		.size	_ZN10chibios_rt10BaseThread20waitAllEventsTimeoutEmm, .-_ZN10chibios_rt10BaseThread20waitAll
 922              		.section	.text._ZN10chibios_rt10BaseThread14dispatchEventsEPKPFvlEm,"ax",%progbits
 923              		.align	1
 924              		.p2align 4,,15
 925              		.global	_ZN10chibios_rt10BaseThread14dispatchEventsEPKPFvlEm
 926              		.syntax unified
 927              		.thumb
 928              		.thumb_func
 929              		.fpu softvfp
 930              		.type	_ZN10chibios_rt10BaseThread14dispatchEventsEPKPFvlEm, %function
 931              	_ZN10chibios_rt10BaseThread14dispatchEventsEPKPFvlEm:
 932              		.fnstart
 933              	.LFB309:
 934              		.loc 1 274 0
 935              		.cfi_startproc
 936              		@ args = 0, pretend = 0, frame = 0
 937              		@ frame_needed = 0, uses_anonymous_args = 0
 938              		@ link register save eliminated.
 939              	.LVL65:
 940              		.loc 1 276 0
 941 0000 FFF7FEBF 		b	chEvtDispatch
 942              	.LVL66:
 943              		.cfi_endproc
 944              	.LFE309:
 945              		.cantunwind
 946              		.fnend
 947              		.size	_ZN10chibios_rt10BaseThread14dispatchEventsEPKPFvlEm, .-_ZN10chibios_rt10BaseThread14dispatc
 948              		.section	.text._ZN10chibios_rt10BaseThread11unlockMutexEPNS_5MutexE,"ax",%progbits
 949              		.align	1
 950              		.p2align 4,,15
 951              		.global	_ZN10chibios_rt10BaseThread11unlockMutexEPNS_5MutexE
 952              		.syntax unified
 953              		.thumb
 954              		.thumb_func
 955              		.fpu softvfp
 956              		.type	_ZN10chibios_rt10BaseThread11unlockMutexEPNS_5MutexE, %function
 957              	_ZN10chibios_rt10BaseThread11unlockMutexEPNS_5MutexE:
 958              		.fnstart
 959              	.LFB310:
 960              		.loc 1 281 0
 961              		.cfi_startproc
 962              		@ args = 0, pretend = 0, frame = 0
 963              		@ frame_needed = 0, uses_anonymous_args = 0
 964              		@ link register save eliminated.
 965              	.LVL67:
 966              		.loc 1 283 0
 967 0000 FFF7FEBF 		b	chMtxUnlock
 968              	.LVL68:
 969              		.cfi_endproc
ARM GAS  /var/folders/qd/4mxf5pkd0zdf0b9dd1hp39180000gn/T//ccPWOL7i.s 			page 18


 970              	.LFE310:
 971              		.cantunwind
 972              		.fnend
 973              		.size	_ZN10chibios_rt10BaseThread11unlockMutexEPNS_5MutexE, .-_ZN10chibios_rt10BaseThread11unlockM
 974              		.section	.text._ZN10chibios_rt10BaseThread12unlockMutexSEPNS_5MutexE,"ax",%progbits
 975              		.align	1
 976              		.p2align 4,,15
 977              		.global	_ZN10chibios_rt10BaseThread12unlockMutexSEPNS_5MutexE
 978              		.syntax unified
 979              		.thumb
 980              		.thumb_func
 981              		.fpu softvfp
 982              		.type	_ZN10chibios_rt10BaseThread12unlockMutexSEPNS_5MutexE, %function
 983              	_ZN10chibios_rt10BaseThread12unlockMutexSEPNS_5MutexE:
 984              		.fnstart
 985              	.LFB311:
 986              		.loc 1 286 0
 987              		.cfi_startproc
 988              		@ args = 0, pretend = 0, frame = 0
 989              		@ frame_needed = 0, uses_anonymous_args = 0
 990              		@ link register save eliminated.
 991              	.LVL69:
 992              		.loc 1 288 0
 993 0000 FFF7FEBF 		b	chMtxUnlockS
 994              	.LVL70:
 995              		.cfi_endproc
 996              	.LFE311:
 997              		.cantunwind
 998              		.fnend
 999              		.size	_ZN10chibios_rt10BaseThread12unlockMutexSEPNS_5MutexE, .-_ZN10chibios_rt10BaseThread12unlock
 1000              		.section	.text._ZN10chibios_rt10BaseThread16unlockAllMutexesEv,"ax",%progbits
 1001              		.align	1
 1002              		.p2align 4,,15
 1003              		.global	_ZN10chibios_rt10BaseThread16unlockAllMutexesEv
 1004              		.syntax unified
 1005              		.thumb
 1006              		.thumb_func
 1007              		.fpu softvfp
 1008              		.type	_ZN10chibios_rt10BaseThread16unlockAllMutexesEv, %function
 1009              	_ZN10chibios_rt10BaseThread16unlockAllMutexesEv:
 1010              		.fnstart
 1011              	.LFB312:
 1012              		.loc 1 291 0
 1013              		.cfi_startproc
 1014              		@ args = 0, pretend = 0, frame = 0
 1015              		@ frame_needed = 0, uses_anonymous_args = 0
 1016              		@ link register save eliminated.
 1017              		.loc 1 293 0
 1018 0000 FFF7FEBF 		b	chMtxUnlockAll
 1019              	.LVL71:
 1020              		.cfi_endproc
 1021              	.LFE312:
 1022              		.cantunwind
 1023              		.fnend
 1024              		.size	_ZN10chibios_rt10BaseThread16unlockAllMutexesEv, .-_ZN10chibios_rt10BaseThread16unlockAllMut
 1025              		.section	.text._ZN10chibios_rt16CounterSemaphoreC2El,"ax",%progbits
 1026              		.align	1
ARM GAS  /var/folders/qd/4mxf5pkd0zdf0b9dd1hp39180000gn/T//ccPWOL7i.s 			page 19


 1027              		.p2align 4,,15
 1028              		.global	_ZN10chibios_rt16CounterSemaphoreC2El
 1029              		.syntax unified
 1030              		.thumb
 1031              		.thumb_func
 1032              		.fpu softvfp
 1033              		.type	_ZN10chibios_rt16CounterSemaphoreC2El, %function
 1034              	_ZN10chibios_rt16CounterSemaphoreC2El:
 1035              		.fnstart
 1036              	.LFB314:
 1037              		.loc 1 301 0
 1038              		.cfi_startproc
 1039              		@ args = 0, pretend = 0, frame = 0
 1040              		@ frame_needed = 0, uses_anonymous_args = 0
 1041              	.LVL72:
 1042 0000 10B5     		push	{r4, lr}
 1043              		.save {r4, lr}
 1044              		.cfi_def_cfa_offset 8
 1045              		.cfi_offset 4, -8
 1046              		.cfi_offset 14, -4
 1047              		.loc 1 301 0
 1048 0002 0446     		mov	r4, r0
 1049              	.LBB115:
 1050              		.loc 1 303 0
 1051 0004 FFF7FEFF 		bl	chSemObjectInit
 1052              	.LVL73:
 1053              	.LBE115:
 1054              		.loc 1 304 0
 1055 0008 2046     		mov	r0, r4
 1056 000a 10BD     		pop	{r4, pc}
 1057              		.cfi_endproc
 1058              	.LFE314:
 1059              		.fnend
 1060              		.size	_ZN10chibios_rt16CounterSemaphoreC2El, .-_ZN10chibios_rt16CounterSemaphoreC2El
 1061              		.global	_ZN10chibios_rt16CounterSemaphoreC1El
 1062              		.thumb_set _ZN10chibios_rt16CounterSemaphoreC1El,_ZN10chibios_rt16CounterSemaphoreC2El
 1063              		.section	.text._ZN10chibios_rt16CounterSemaphore5resetEl,"ax",%progbits
 1064              		.align	1
 1065              		.p2align 4,,15
 1066              		.global	_ZN10chibios_rt16CounterSemaphore5resetEl
 1067              		.syntax unified
 1068              		.thumb
 1069              		.thumb_func
 1070              		.fpu softvfp
 1071              		.type	_ZN10chibios_rt16CounterSemaphore5resetEl, %function
 1072              	_ZN10chibios_rt16CounterSemaphore5resetEl:
 1073              		.fnstart
 1074              	.LFB316:
 1075              		.loc 1 306 0
 1076              		.cfi_startproc
 1077              		@ args = 0, pretend = 0, frame = 0
 1078              		@ frame_needed = 0, uses_anonymous_args = 0
 1079              		@ link register save eliminated.
 1080              	.LVL74:
 1081              		.loc 1 308 0
 1082 0000 FFF7FEBF 		b	chSemReset
 1083              	.LVL75:
ARM GAS  /var/folders/qd/4mxf5pkd0zdf0b9dd1hp39180000gn/T//ccPWOL7i.s 			page 20


 1084              		.cfi_endproc
 1085              	.LFE316:
 1086              		.cantunwind
 1087              		.fnend
 1088              		.size	_ZN10chibios_rt16CounterSemaphore5resetEl, .-_ZN10chibios_rt16CounterSemaphore5resetEl
 1089              		.section	.text._ZN10chibios_rt16CounterSemaphore6resetIEl,"ax",%progbits
 1090              		.align	1
 1091              		.p2align 4,,15
 1092              		.global	_ZN10chibios_rt16CounterSemaphore6resetIEl
 1093              		.syntax unified
 1094              		.thumb
 1095              		.thumb_func
 1096              		.fpu softvfp
 1097              		.type	_ZN10chibios_rt16CounterSemaphore6resetIEl, %function
 1098              	_ZN10chibios_rt16CounterSemaphore6resetIEl:
 1099              		.fnstart
 1100              	.LFB317:
 1101              		.loc 1 311 0
 1102              		.cfi_startproc
 1103              		@ args = 0, pretend = 0, frame = 0
 1104              		@ frame_needed = 0, uses_anonymous_args = 0
 1105              		@ link register save eliminated.
 1106              	.LVL76:
 1107              		.loc 1 313 0
 1108 0000 FFF7FEBF 		b	chSemResetI
 1109              	.LVL77:
 1110              		.cfi_endproc
 1111              	.LFE317:
 1112              		.cantunwind
 1113              		.fnend
 1114              		.size	_ZN10chibios_rt16CounterSemaphore6resetIEl, .-_ZN10chibios_rt16CounterSemaphore6resetIEl
 1115              		.section	.text._ZN10chibios_rt16CounterSemaphore4waitEv,"ax",%progbits
 1116              		.align	1
 1117              		.p2align 4,,15
 1118              		.global	_ZN10chibios_rt16CounterSemaphore4waitEv
 1119              		.syntax unified
 1120              		.thumb
 1121              		.thumb_func
 1122              		.fpu softvfp
 1123              		.type	_ZN10chibios_rt16CounterSemaphore4waitEv, %function
 1124              	_ZN10chibios_rt16CounterSemaphore4waitEv:
 1125              		.fnstart
 1126              	.LFB318:
 1127              		.loc 1 316 0
 1128              		.cfi_startproc
 1129              		@ args = 0, pretend = 0, frame = 0
 1130              		@ frame_needed = 0, uses_anonymous_args = 0
 1131              		@ link register save eliminated.
 1132              	.LVL78:
 1133              		.loc 1 318 0
 1134 0000 FFF7FEBF 		b	chSemWait
 1135              	.LVL79:
 1136              		.cfi_endproc
 1137              	.LFE318:
 1138              		.cantunwind
 1139              		.fnend
 1140              		.size	_ZN10chibios_rt16CounterSemaphore4waitEv, .-_ZN10chibios_rt16CounterSemaphore4waitEv
ARM GAS  /var/folders/qd/4mxf5pkd0zdf0b9dd1hp39180000gn/T//ccPWOL7i.s 			page 21


 1141              		.section	.text._ZN10chibios_rt16CounterSemaphore5waitSEv,"ax",%progbits
 1142              		.align	1
 1143              		.p2align 4,,15
 1144              		.global	_ZN10chibios_rt16CounterSemaphore5waitSEv
 1145              		.syntax unified
 1146              		.thumb
 1147              		.thumb_func
 1148              		.fpu softvfp
 1149              		.type	_ZN10chibios_rt16CounterSemaphore5waitSEv, %function
 1150              	_ZN10chibios_rt16CounterSemaphore5waitSEv:
 1151              		.fnstart
 1152              	.LFB319:
 1153              		.loc 1 321 0
 1154              		.cfi_startproc
 1155              		@ args = 0, pretend = 0, frame = 0
 1156              		@ frame_needed = 0, uses_anonymous_args = 0
 1157              		@ link register save eliminated.
 1158              	.LVL80:
 1159              		.loc 1 323 0
 1160 0000 FFF7FEBF 		b	chSemWaitS
 1161              	.LVL81:
 1162              		.cfi_endproc
 1163              	.LFE319:
 1164              		.cantunwind
 1165              		.fnend
 1166              		.size	_ZN10chibios_rt16CounterSemaphore5waitSEv, .-_ZN10chibios_rt16CounterSemaphore5waitSEv
 1167              		.section	.text._ZN10chibios_rt16CounterSemaphore4waitEm,"ax",%progbits
 1168              		.align	1
 1169              		.p2align 4,,15
 1170              		.global	_ZN10chibios_rt16CounterSemaphore4waitEm
 1171              		.syntax unified
 1172              		.thumb
 1173              		.thumb_func
 1174              		.fpu softvfp
 1175              		.type	_ZN10chibios_rt16CounterSemaphore4waitEm, %function
 1176              	_ZN10chibios_rt16CounterSemaphore4waitEm:
 1177              		.fnstart
 1178              	.LFB320:
 1179              		.loc 1 326 0
 1180              		.cfi_startproc
 1181              		@ args = 0, pretend = 0, frame = 0
 1182              		@ frame_needed = 0, uses_anonymous_args = 0
 1183              		@ link register save eliminated.
 1184              	.LVL82:
 1185              		.loc 1 328 0
 1186 0000 FFF7FEBF 		b	chSemWaitTimeout
 1187              	.LVL83:
 1188              		.cfi_endproc
 1189              	.LFE320:
 1190              		.cantunwind
 1191              		.fnend
 1192              		.size	_ZN10chibios_rt16CounterSemaphore4waitEm, .-_ZN10chibios_rt16CounterSemaphore4waitEm
 1193              		.section	.text._ZN10chibios_rt16CounterSemaphore5waitSEm,"ax",%progbits
 1194              		.align	1
 1195              		.p2align 4,,15
 1196              		.global	_ZN10chibios_rt16CounterSemaphore5waitSEm
 1197              		.syntax unified
ARM GAS  /var/folders/qd/4mxf5pkd0zdf0b9dd1hp39180000gn/T//ccPWOL7i.s 			page 22


 1198              		.thumb
 1199              		.thumb_func
 1200              		.fpu softvfp
 1201              		.type	_ZN10chibios_rt16CounterSemaphore5waitSEm, %function
 1202              	_ZN10chibios_rt16CounterSemaphore5waitSEm:
 1203              		.fnstart
 1204              	.LFB321:
 1205              		.loc 1 331 0
 1206              		.cfi_startproc
 1207              		@ args = 0, pretend = 0, frame = 0
 1208              		@ frame_needed = 0, uses_anonymous_args = 0
 1209              		@ link register save eliminated.
 1210              	.LVL84:
 1211              		.loc 1 333 0
 1212 0000 FFF7FEBF 		b	chSemWaitTimeoutS
 1213              	.LVL85:
 1214              		.cfi_endproc
 1215              	.LFE321:
 1216              		.cantunwind
 1217              		.fnend
 1218              		.size	_ZN10chibios_rt16CounterSemaphore5waitSEm, .-_ZN10chibios_rt16CounterSemaphore5waitSEm
 1219              		.section	.text._ZN10chibios_rt16CounterSemaphore6signalEv,"ax",%progbits
 1220              		.align	1
 1221              		.p2align 4,,15
 1222              		.global	_ZN10chibios_rt16CounterSemaphore6signalEv
 1223              		.syntax unified
 1224              		.thumb
 1225              		.thumb_func
 1226              		.fpu softvfp
 1227              		.type	_ZN10chibios_rt16CounterSemaphore6signalEv, %function
 1228              	_ZN10chibios_rt16CounterSemaphore6signalEv:
 1229              		.fnstart
 1230              	.LFB322:
 1231              		.loc 1 336 0
 1232              		.cfi_startproc
 1233              		@ args = 0, pretend = 0, frame = 0
 1234              		@ frame_needed = 0, uses_anonymous_args = 0
 1235              		@ link register save eliminated.
 1236              	.LVL86:
 1237              		.loc 1 338 0
 1238 0000 FFF7FEBF 		b	chSemSignal
 1239              	.LVL87:
 1240              		.cfi_endproc
 1241              	.LFE322:
 1242              		.cantunwind
 1243              		.fnend
 1244              		.size	_ZN10chibios_rt16CounterSemaphore6signalEv, .-_ZN10chibios_rt16CounterSemaphore6signalEv
 1245              		.section	.text._ZN10chibios_rt16CounterSemaphore7signalIEv,"ax",%progbits
 1246              		.align	1
 1247              		.p2align 4,,15
 1248              		.global	_ZN10chibios_rt16CounterSemaphore7signalIEv
 1249              		.syntax unified
 1250              		.thumb
 1251              		.thumb_func
 1252              		.fpu softvfp
 1253              		.type	_ZN10chibios_rt16CounterSemaphore7signalIEv, %function
 1254              	_ZN10chibios_rt16CounterSemaphore7signalIEv:
ARM GAS  /var/folders/qd/4mxf5pkd0zdf0b9dd1hp39180000gn/T//ccPWOL7i.s 			page 23


 1255              		.fnstart
 1256              	.LFB323:
 1257              		.loc 1 341 0
 1258              		.cfi_startproc
 1259              		@ args = 0, pretend = 0, frame = 0
 1260              		@ frame_needed = 0, uses_anonymous_args = 0
 1261              		@ link register save eliminated.
 1262              	.LVL88:
 1263              		.loc 1 343 0
 1264 0000 FFF7FEBF 		b	chSemSignalI
 1265              	.LVL89:
 1266              		.cfi_endproc
 1267              	.LFE323:
 1268              		.cantunwind
 1269              		.fnend
 1270              		.size	_ZN10chibios_rt16CounterSemaphore7signalIEv, .-_ZN10chibios_rt16CounterSemaphore7signalIEv
 1271              		.section	.text._ZN10chibios_rt16CounterSemaphore11addCounterIEl,"ax",%progbits
 1272              		.align	1
 1273              		.p2align 4,,15
 1274              		.global	_ZN10chibios_rt16CounterSemaphore11addCounterIEl
 1275              		.syntax unified
 1276              		.thumb
 1277              		.thumb_func
 1278              		.fpu softvfp
 1279              		.type	_ZN10chibios_rt16CounterSemaphore11addCounterIEl, %function
 1280              	_ZN10chibios_rt16CounterSemaphore11addCounterIEl:
 1281              		.fnstart
 1282              	.LFB324:
 1283              		.loc 1 346 0
 1284              		.cfi_startproc
 1285              		@ args = 0, pretend = 0, frame = 0
 1286              		@ frame_needed = 0, uses_anonymous_args = 0
 1287              		@ link register save eliminated.
 1288              	.LVL90:
 1289              		.loc 1 348 0
 1290 0000 FFF7FEBF 		b	chSemAddCounterI
 1291              	.LVL91:
 1292              		.cfi_endproc
 1293              	.LFE324:
 1294              		.cantunwind
 1295              		.fnend
 1296              		.size	_ZN10chibios_rt16CounterSemaphore11addCounterIEl, .-_ZN10chibios_rt16CounterSemaphore11addCo
 1297              		.section	.text._ZN10chibios_rt16CounterSemaphore11getCounterIEv,"ax",%progbits
 1298              		.align	1
 1299              		.p2align 4,,15
 1300              		.global	_ZN10chibios_rt16CounterSemaphore11getCounterIEv
 1301              		.syntax unified
 1302              		.thumb
 1303              		.thumb_func
 1304              		.fpu softvfp
 1305              		.type	_ZN10chibios_rt16CounterSemaphore11getCounterIEv, %function
 1306              	_ZN10chibios_rt16CounterSemaphore11getCounterIEv:
 1307              		.fnstart
 1308              	.LFB325:
 1309              		.loc 1 351 0
 1310              		.cfi_startproc
 1311              		@ args = 0, pretend = 0, frame = 0
ARM GAS  /var/folders/qd/4mxf5pkd0zdf0b9dd1hp39180000gn/T//ccPWOL7i.s 			page 24


 1312              		@ frame_needed = 0, uses_anonymous_args = 0
 1313              		@ link register save eliminated.
 1314              	.LVL92:
 1315              		.loc 1 354 0
 1316 0000 8068     		ldr	r0, [r0, #8]
 1317              	.LVL93:
 1318 0002 7047     		bx	lr
 1319              		.cfi_endproc
 1320              	.LFE325:
 1321              		.cantunwind
 1322              		.fnend
 1323              		.size	_ZN10chibios_rt16CounterSemaphore11getCounterIEv, .-_ZN10chibios_rt16CounterSemaphore11getCo
 1324              		.section	.text._ZN10chibios_rt16CounterSemaphore10signalWaitEPS0_S1_,"ax",%progbits
 1325              		.align	1
 1326              		.p2align 4,,15
 1327              		.global	_ZN10chibios_rt16CounterSemaphore10signalWaitEPS0_S1_
 1328              		.syntax unified
 1329              		.thumb
 1330              		.thumb_func
 1331              		.fpu softvfp
 1332              		.type	_ZN10chibios_rt16CounterSemaphore10signalWaitEPS0_S1_, %function
 1333              	_ZN10chibios_rt16CounterSemaphore10signalWaitEPS0_S1_:
 1334              		.fnstart
 1335              	.LFB326:
 1336              		.loc 1 357 0
 1337              		.cfi_startproc
 1338              		@ args = 0, pretend = 0, frame = 0
 1339              		@ frame_needed = 0, uses_anonymous_args = 0
 1340              		@ link register save eliminated.
 1341              	.LVL94:
 1342              		.loc 1 359 0
 1343 0000 FFF7FEBF 		b	chSemSignalWait
 1344              	.LVL95:
 1345              		.cfi_endproc
 1346              	.LFE326:
 1347              		.cantunwind
 1348              		.fnend
 1349              		.size	_ZN10chibios_rt16CounterSemaphore10signalWaitEPS0_S1_, .-_ZN10chibios_rt16CounterSemaphore10
 1350              		.section	.text._ZN10chibios_rt15BinarySemaphoreC2Eb,"ax",%progbits
 1351              		.align	1
 1352              		.p2align 4,,15
 1353              		.global	_ZN10chibios_rt15BinarySemaphoreC2Eb
 1354              		.syntax unified
 1355              		.thumb
 1356              		.thumb_func
 1357              		.fpu softvfp
 1358              		.type	_ZN10chibios_rt15BinarySemaphoreC2Eb, %function
 1359              	_ZN10chibios_rt15BinarySemaphoreC2Eb:
 1360              		.fnstart
 1361              	.LFB328:
 1362              		.loc 1 365 0
 1363              		.cfi_startproc
 1364              		@ args = 0, pretend = 0, frame = 0
 1365              		@ frame_needed = 0, uses_anonymous_args = 0
 1366              	.LVL96:
 1367 0000 10B5     		push	{r4, lr}
 1368              		.save {r4, lr}
ARM GAS  /var/folders/qd/4mxf5pkd0zdf0b9dd1hp39180000gn/T//ccPWOL7i.s 			page 25


 1369              		.cfi_def_cfa_offset 8
 1370              		.cfi_offset 4, -8
 1371              		.cfi_offset 14, -4
 1372              	.LBB116:
 1373              	.LBB117:
 1374              		.file 6 "../../../os/rt/include/chbsem.h"
 1375              		.loc 6 126 0
 1376 0002 81F00101 		eor	r1, r1, #1
 1377              	.LVL97:
 1378              	.LBE117:
 1379              	.LBE116:
 1380              		.loc 1 365 0
 1381 0006 0446     		mov	r4, r0
 1382              	.LVL98:
 1383              	.LBB119:
 1384              	.LBB118:
 1385              		.loc 6 126 0
 1386 0008 FFF7FEFF 		bl	chSemObjectInit
 1387              	.LVL99:
 1388              	.LBE118:
 1389              	.LBE119:
 1390              		.loc 1 368 0
 1391 000c 2046     		mov	r0, r4
 1392 000e 10BD     		pop	{r4, pc}
 1393              		.cfi_endproc
 1394              	.LFE328:
 1395              		.fnend
 1396              		.size	_ZN10chibios_rt15BinarySemaphoreC2Eb, .-_ZN10chibios_rt15BinarySemaphoreC2Eb
 1397              		.global	_ZN10chibios_rt15BinarySemaphoreC1Eb
 1398              		.thumb_set _ZN10chibios_rt15BinarySemaphoreC1Eb,_ZN10chibios_rt15BinarySemaphoreC2Eb
 1399              		.section	.text._ZN10chibios_rt15BinarySemaphore4waitEv,"ax",%progbits
 1400              		.align	1
 1401              		.p2align 4,,15
 1402              		.global	_ZN10chibios_rt15BinarySemaphore4waitEv
 1403              		.syntax unified
 1404              		.thumb
 1405              		.thumb_func
 1406              		.fpu softvfp
 1407              		.type	_ZN10chibios_rt15BinarySemaphore4waitEv, %function
 1408              	_ZN10chibios_rt15BinarySemaphore4waitEv:
 1409              		.fnstart
 1410              	.LFB330:
 1411              		.loc 1 370 0
 1412              		.cfi_startproc
 1413              		@ args = 0, pretend = 0, frame = 0
 1414              		@ frame_needed = 0, uses_anonymous_args = 0
 1415              		@ link register save eliminated.
 1416              	.LVL100:
 1417              	.LBB120:
 1418              	.LBB121:
 1419              		.loc 6 143 0
 1420 0000 FFF7FEBF 		b	chSemWait
 1421              	.LVL101:
 1422              	.LBE121:
 1423              	.LBE120:
 1424              		.cfi_endproc
 1425              	.LFE330:
ARM GAS  /var/folders/qd/4mxf5pkd0zdf0b9dd1hp39180000gn/T//ccPWOL7i.s 			page 26


 1426              		.cantunwind
 1427              		.fnend
 1428              		.size	_ZN10chibios_rt15BinarySemaphore4waitEv, .-_ZN10chibios_rt15BinarySemaphore4waitEv
 1429              		.section	.text._ZN10chibios_rt15BinarySemaphore5waitSEv,"ax",%progbits
 1430              		.align	1
 1431              		.p2align 4,,15
 1432              		.global	_ZN10chibios_rt15BinarySemaphore5waitSEv
 1433              		.syntax unified
 1434              		.thumb
 1435              		.thumb_func
 1436              		.fpu softvfp
 1437              		.type	_ZN10chibios_rt15BinarySemaphore5waitSEv, %function
 1438              	_ZN10chibios_rt15BinarySemaphore5waitSEv:
 1439              		.fnstart
 1440              	.LFB331:
 1441              		.loc 1 375 0
 1442              		.cfi_startproc
 1443              		@ args = 0, pretend = 0, frame = 0
 1444              		@ frame_needed = 0, uses_anonymous_args = 0
 1445              		@ link register save eliminated.
 1446              	.LVL102:
 1447              	.LBB122:
 1448              	.LBB123:
 1449              		.loc 6 162 0
 1450 0000 FFF7FEBF 		b	chSemWaitS
 1451              	.LVL103:
 1452              	.LBE123:
 1453              	.LBE122:
 1454              		.cfi_endproc
 1455              	.LFE331:
 1456              		.cantunwind
 1457              		.fnend
 1458              		.size	_ZN10chibios_rt15BinarySemaphore5waitSEv, .-_ZN10chibios_rt15BinarySemaphore5waitSEv
 1459              		.section	.text._ZN10chibios_rt15BinarySemaphore4waitEm,"ax",%progbits
 1460              		.align	1
 1461              		.p2align 4,,15
 1462              		.global	_ZN10chibios_rt15BinarySemaphore4waitEm
 1463              		.syntax unified
 1464              		.thumb
 1465              		.thumb_func
 1466              		.fpu softvfp
 1467              		.type	_ZN10chibios_rt15BinarySemaphore4waitEm, %function
 1468              	_ZN10chibios_rt15BinarySemaphore4waitEm:
 1469              		.fnstart
 1470              	.LFB332:
 1471              		.loc 1 380 0
 1472              		.cfi_startproc
 1473              		@ args = 0, pretend = 0, frame = 0
 1474              		@ frame_needed = 0, uses_anonymous_args = 0
 1475              		@ link register save eliminated.
 1476              	.LVL104:
 1477              	.LBB124:
 1478              	.LBB125:
 1479              		.loc 6 214 0
 1480 0000 FFF7FEBF 		b	chSemWaitTimeout
 1481              	.LVL105:
 1482              	.LBE125:
ARM GAS  /var/folders/qd/4mxf5pkd0zdf0b9dd1hp39180000gn/T//ccPWOL7i.s 			page 27


 1483              	.LBE124:
 1484              		.cfi_endproc
 1485              	.LFE332:
 1486              		.cantunwind
 1487              		.fnend
 1488              		.size	_ZN10chibios_rt15BinarySemaphore4waitEm, .-_ZN10chibios_rt15BinarySemaphore4waitEm
 1489              		.section	.text._ZN10chibios_rt15BinarySemaphore5waitSEm,"ax",%progbits
 1490              		.align	1
 1491              		.p2align 4,,15
 1492              		.global	_ZN10chibios_rt15BinarySemaphore5waitSEm
 1493              		.syntax unified
 1494              		.thumb
 1495              		.thumb_func
 1496              		.fpu softvfp
 1497              		.type	_ZN10chibios_rt15BinarySemaphore5waitSEm, %function
 1498              	_ZN10chibios_rt15BinarySemaphore5waitSEm:
 1499              		.fnstart
 1500              	.LFB333:
 1501              		.loc 1 385 0
 1502              		.cfi_startproc
 1503              		@ args = 0, pretend = 0, frame = 0
 1504              		@ frame_needed = 0, uses_anonymous_args = 0
 1505              		@ link register save eliminated.
 1506              	.LVL106:
 1507              	.LBB126:
 1508              	.LBB127:
 1509              		.loc 6 189 0
 1510 0000 FFF7FEBF 		b	chSemWaitTimeoutS
 1511              	.LVL107:
 1512              	.LBE127:
 1513              	.LBE126:
 1514              		.cfi_endproc
 1515              	.LFE333:
 1516              		.cantunwind
 1517              		.fnend
 1518              		.size	_ZN10chibios_rt15BinarySemaphore5waitSEm, .-_ZN10chibios_rt15BinarySemaphore5waitSEm
 1519              		.section	.text._ZN10chibios_rt15BinarySemaphore5resetEb,"ax",%progbits
 1520              		.align	1
 1521              		.p2align 4,,15
 1522              		.global	_ZN10chibios_rt15BinarySemaphore5resetEb
 1523              		.syntax unified
 1524              		.thumb
 1525              		.thumb_func
 1526              		.fpu softvfp
 1527              		.type	_ZN10chibios_rt15BinarySemaphore5resetEb, %function
 1528              	_ZN10chibios_rt15BinarySemaphore5resetEb:
 1529              		.fnstart
 1530              	.LFB334:
 1531              		.loc 1 390 0
 1532              		.cfi_startproc
 1533              		@ args = 0, pretend = 0, frame = 0
 1534              		@ frame_needed = 0, uses_anonymous_args = 0
 1535              		@ link register save eliminated.
 1536              	.LVL108:
 1537              	.LBB128:
 1538              	.LBB129:
 1539              		.loc 6 255 0
ARM GAS  /var/folders/qd/4mxf5pkd0zdf0b9dd1hp39180000gn/T//ccPWOL7i.s 			page 28


 1540 0000 81F00101 		eor	r1, r1, #1
 1541              	.LVL109:
 1542 0004 FFF7FEBF 		b	chSemReset
 1543              	.LVL110:
 1544              	.LBE129:
 1545              	.LBE128:
 1546              		.cfi_endproc
 1547              	.LFE334:
 1548              		.cantunwind
 1549              		.fnend
 1550              		.size	_ZN10chibios_rt15BinarySemaphore5resetEb, .-_ZN10chibios_rt15BinarySemaphore5resetEb
 1551              		.section	.text._ZN10chibios_rt15BinarySemaphore6resetIEb,"ax",%progbits
 1552              		.align	1
 1553              		.p2align 4,,15
 1554              		.global	_ZN10chibios_rt15BinarySemaphore6resetIEb
 1555              		.syntax unified
 1556              		.thumb
 1557              		.thumb_func
 1558              		.fpu softvfp
 1559              		.type	_ZN10chibios_rt15BinarySemaphore6resetIEb, %function
 1560              	_ZN10chibios_rt15BinarySemaphore6resetIEb:
 1561              		.fnstart
 1562              	.LFB335:
 1563              		.loc 1 395 0
 1564              		.cfi_startproc
 1565              		@ args = 0, pretend = 0, frame = 0
 1566              		@ frame_needed = 0, uses_anonymous_args = 0
 1567              		@ link register save eliminated.
 1568              	.LVL111:
 1569              	.LBB130:
 1570              	.LBB131:
 1571              		.loc 6 236 0
 1572 0000 81F00101 		eor	r1, r1, #1
 1573              	.LVL112:
 1574 0004 FFF7FEBF 		b	chSemResetI
 1575              	.LVL113:
 1576              	.LBE131:
 1577              	.LBE130:
 1578              		.cfi_endproc
 1579              	.LFE335:
 1580              		.cantunwind
 1581              		.fnend
 1582              		.size	_ZN10chibios_rt15BinarySemaphore6resetIEb, .-_ZN10chibios_rt15BinarySemaphore6resetIEb
 1583              		.section	.text._ZN10chibios_rt15BinarySemaphore6signalEv,"ax",%progbits
 1584              		.align	1
 1585              		.p2align 4,,15
 1586              		.global	_ZN10chibios_rt15BinarySemaphore6signalEv
 1587              		.syntax unified
 1588              		.thumb
 1589              		.thumb_func
 1590              		.fpu softvfp
 1591              		.type	_ZN10chibios_rt15BinarySemaphore6signalEv, %function
 1592              	_ZN10chibios_rt15BinarySemaphore6signalEv:
 1593              		.fnstart
 1594              	.LFB336:
 1595              		.loc 1 400 0
 1596              		.cfi_startproc
ARM GAS  /var/folders/qd/4mxf5pkd0zdf0b9dd1hp39180000gn/T//ccPWOL7i.s 			page 29


 1597              		@ args = 0, pretend = 0, frame = 0
 1598              		@ frame_needed = 0, uses_anonymous_args = 0
 1599              	.LVL114:
 1600 0000 08B5     		push	{r3, lr}
 1601              		.save {r3, lr}
 1602              		.cfi_def_cfa_offset 8
 1603              		.cfi_offset 3, -8
 1604              		.cfi_offset 14, -4
 1605              	.LBB145:
 1606              	.LBB146:
 1607              	.LBB147:
 1608              	.LBB148:
 1609              	.LBB149:
 1610              	.LBB150:
 1611              		.file 7 "../../../os/ext/CMSIS/include/core_cmFunc.h"
 1612              		.loc 7 546 0
 1613 0002 2022     		movs	r2, #32
 1614              		.syntax unified
 1615              	@ 546 "../../../os/ext/CMSIS/include/core_cmFunc.h" 1
 1616 0004 82F31188 		MSR basepri, r2
 1617              	@ 0 "" 2
 1618              	.LVL115:
 1619              		.thumb
 1620              		.syntax unified
 1621              	.LBE150:
 1622              	.LBE149:
 1623              	.LBE148:
 1624              	.LBE147:
 1625              	.LBB151:
 1626              	.LBB152:
 1627              		.loc 6 270 0
 1628 0008 8368     		ldr	r3, [r0, #8]
 1629 000a 002B     		cmp	r3, #0
 1630 000c 05DD     		ble	.L74
 1631              	.LVL116:
 1632              	.LBE152:
 1633              	.LBE151:
 1634              		.loc 6 286 0
 1635 000e FFF7FEFF 		bl	chSchRescheduleS
 1636              	.LVL117:
 1637              	.LBB154:
 1638              	.LBB155:
 1639              	.LBB156:
 1640              	.LBB157:
 1641              	.LBB158:
 1642              		.loc 7 546 0
 1643 0012 0023     		movs	r3, #0
 1644              		.syntax unified
 1645              	@ 546 "../../../os/ext/CMSIS/include/core_cmFunc.h" 1
 1646 0014 83F31188 		MSR basepri, r3
 1647              	@ 0 "" 2
 1648              	.LVL118:
 1649              		.thumb
 1650              		.syntax unified
 1651              	.LBE158:
 1652              	.LBE157:
 1653              	.LBE156:
ARM GAS  /var/folders/qd/4mxf5pkd0zdf0b9dd1hp39180000gn/T//ccPWOL7i.s 			page 30


 1654              	.LBE155:
 1655              	.LBE154:
 1656              	.LBE146:
 1657              	.LBE145:
 1658              		.loc 1 403 0
 1659 0018 08BD     		pop	{r3, pc}
 1660              	.LVL119:
 1661              	.L74:
 1662              	.LBB166:
 1663              	.LBB165:
 1664              	.LBB163:
 1665              	.LBB153:
 1666              		.loc 6 271 0
 1667 001a FFF7FEFF 		bl	chSemSignalI
 1668              	.LVL120:
 1669              	.LBE153:
 1670              	.LBE163:
 1671              		.loc 6 286 0
 1672 001e FFF7FEFF 		bl	chSchRescheduleS
 1673              	.LVL121:
 1674              	.LBB164:
 1675              	.LBB162:
 1676              	.LBB161:
 1677              	.LBB160:
 1678              	.LBB159:
 1679              		.loc 7 546 0
 1680 0022 0023     		movs	r3, #0
 1681              		.syntax unified
 1682              	@ 546 "../../../os/ext/CMSIS/include/core_cmFunc.h" 1
 1683 0024 83F31188 		MSR basepri, r3
 1684              	@ 0 "" 2
 1685              	.LVL122:
 1686              		.thumb
 1687              		.syntax unified
 1688              	.LBE159:
 1689              	.LBE160:
 1690              	.LBE161:
 1691              	.LBE162:
 1692              	.LBE164:
 1693              	.LBE165:
 1694              	.LBE166:
 1695              		.loc 1 403 0
 1696 0028 08BD     		pop	{r3, pc}
 1697              		.cfi_endproc
 1698              	.LFE336:
 1699              		.fnend
 1700              		.size	_ZN10chibios_rt15BinarySemaphore6signalEv, .-_ZN10chibios_rt15BinarySemaphore6signalEv
 1701 002a 00BF     		.section	.text._ZN10chibios_rt15BinarySemaphore7signalIEv,"ax",%progbits
 1702              		.align	1
 1703              		.p2align 4,,15
 1704              		.global	_ZN10chibios_rt15BinarySemaphore7signalIEv
 1705              		.syntax unified
 1706              		.thumb
 1707              		.thumb_func
 1708              		.fpu softvfp
 1709              		.type	_ZN10chibios_rt15BinarySemaphore7signalIEv, %function
 1710              	_ZN10chibios_rt15BinarySemaphore7signalIEv:
ARM GAS  /var/folders/qd/4mxf5pkd0zdf0b9dd1hp39180000gn/T//ccPWOL7i.s 			page 31


 1711              		.fnstart
 1712              	.LFB337:
 1713              		.loc 1 405 0
 1714              		.cfi_startproc
 1715              		@ args = 0, pretend = 0, frame = 0
 1716              		@ frame_needed = 0, uses_anonymous_args = 0
 1717              		@ link register save eliminated.
 1718              	.LVL123:
 1719              	.LBB167:
 1720              	.LBB168:
 1721              		.loc 6 270 0
 1722 0000 8368     		ldr	r3, [r0, #8]
 1723 0002 002B     		cmp	r3, #0
 1724 0004 00DD     		ble	.L77
 1725              	.LBE168:
 1726              	.LBE167:
 1727              		.loc 1 408 0
 1728 0006 7047     		bx	lr
 1729              	.L77:
 1730              	.LBB170:
 1731              	.LBB169:
 1732              		.loc 6 271 0
 1733 0008 FFF7FEBF 		b	chSemSignalI
 1734              	.LVL124:
 1735              	.LBE169:
 1736              	.LBE170:
 1737              		.cfi_endproc
 1738              	.LFE337:
 1739              		.cantunwind
 1740              		.fnend
 1741              		.size	_ZN10chibios_rt15BinarySemaphore7signalIEv, .-_ZN10chibios_rt15BinarySemaphore7signalIEv
 1742              		.section	.text._ZN10chibios_rt15BinarySemaphore9getStateIEv,"ax",%progbits
 1743              		.align	1
 1744              		.p2align 4,,15
 1745              		.global	_ZN10chibios_rt15BinarySemaphore9getStateIEv
 1746              		.syntax unified
 1747              		.thumb
 1748              		.thumb_func
 1749              		.fpu softvfp
 1750              		.type	_ZN10chibios_rt15BinarySemaphore9getStateIEv, %function
 1751              	_ZN10chibios_rt15BinarySemaphore9getStateIEv:
 1752              		.fnstart
 1753              	.LFB338:
 1754              		.loc 1 410 0
 1755              		.cfi_startproc
 1756              		@ args = 0, pretend = 0, frame = 0
 1757              		@ frame_needed = 0, uses_anonymous_args = 0
 1758              		@ link register save eliminated.
 1759              	.LVL125:
 1760              	.LBB171:
 1761              	.LBB172:
 1762              		.loc 6 304 0
 1763 0000 8068     		ldr	r0, [r0, #8]
 1764              	.LVL126:
 1765              	.LBE172:
 1766              	.LBE171:
 1767              		.loc 1 413 0
ARM GAS  /var/folders/qd/4mxf5pkd0zdf0b9dd1hp39180000gn/T//ccPWOL7i.s 			page 32


 1768 0002 0028     		cmp	r0, #0
 1769 0004 CCBF     		ite	gt
 1770 0006 0020     		movgt	r0, #0
 1771 0008 0120     		movle	r0, #1
 1772 000a 7047     		bx	lr
 1773              		.cfi_endproc
 1774              	.LFE338:
 1775              		.cantunwind
 1776              		.fnend
 1777              		.size	_ZN10chibios_rt15BinarySemaphore9getStateIEv, .-_ZN10chibios_rt15BinarySemaphore9getStateIEv
 1778              		.section	.text._ZN10chibios_rt5MutexC2Ev,"ax",%progbits
 1779              		.align	1
 1780              		.p2align 4,,15
 1781              		.global	_ZN10chibios_rt5MutexC2Ev
 1782              		.syntax unified
 1783              		.thumb
 1784              		.thumb_func
 1785              		.fpu softvfp
 1786              		.type	_ZN10chibios_rt5MutexC2Ev, %function
 1787              	_ZN10chibios_rt5MutexC2Ev:
 1788              		.fnstart
 1789              	.LFB340:
 1790              		.loc 1 420 0
 1791              		.cfi_startproc
 1792              		@ args = 0, pretend = 0, frame = 0
 1793              		@ frame_needed = 0, uses_anonymous_args = 0
 1794              	.LVL127:
 1795 0000 10B5     		push	{r4, lr}
 1796              		.save {r4, lr}
 1797              		.cfi_def_cfa_offset 8
 1798              		.cfi_offset 4, -8
 1799              		.cfi_offset 14, -4
 1800              		.loc 1 420 0
 1801 0002 0446     		mov	r4, r0
 1802              	.LBB173:
 1803              		.loc 1 422 0
 1804 0004 FFF7FEFF 		bl	chMtxObjectInit
 1805              	.LVL128:
 1806              	.LBE173:
 1807              		.loc 1 423 0
 1808 0008 2046     		mov	r0, r4
 1809 000a 10BD     		pop	{r4, pc}
 1810              		.cfi_endproc
 1811              	.LFE340:
 1812              		.fnend
 1813              		.size	_ZN10chibios_rt5MutexC2Ev, .-_ZN10chibios_rt5MutexC2Ev
 1814              		.global	_ZN10chibios_rt5MutexC1Ev
 1815              		.thumb_set _ZN10chibios_rt5MutexC1Ev,_ZN10chibios_rt5MutexC2Ev
 1816              		.section	.text._ZN10chibios_rt5Mutex7tryLockEv,"ax",%progbits
 1817              		.align	1
 1818              		.p2align 4,,15
 1819              		.global	_ZN10chibios_rt5Mutex7tryLockEv
 1820              		.syntax unified
 1821              		.thumb
 1822              		.thumb_func
 1823              		.fpu softvfp
 1824              		.type	_ZN10chibios_rt5Mutex7tryLockEv, %function
ARM GAS  /var/folders/qd/4mxf5pkd0zdf0b9dd1hp39180000gn/T//ccPWOL7i.s 			page 33


 1825              	_ZN10chibios_rt5Mutex7tryLockEv:
 1826              		.fnstart
 1827              	.LFB342:
 1828              		.loc 1 425 0
 1829              		.cfi_startproc
 1830              		@ args = 0, pretend = 0, frame = 0
 1831              		@ frame_needed = 0, uses_anonymous_args = 0
 1832              		@ link register save eliminated.
 1833              	.LVL129:
 1834              		.loc 1 427 0
 1835 0000 FFF7FEBF 		b	chMtxTryLock
 1836              	.LVL130:
 1837              		.cfi_endproc
 1838              	.LFE342:
 1839              		.cantunwind
 1840              		.fnend
 1841              		.size	_ZN10chibios_rt5Mutex7tryLockEv, .-_ZN10chibios_rt5Mutex7tryLockEv
 1842              		.section	.text._ZN10chibios_rt5Mutex8tryLockSEv,"ax",%progbits
 1843              		.align	1
 1844              		.p2align 4,,15
 1845              		.global	_ZN10chibios_rt5Mutex8tryLockSEv
 1846              		.syntax unified
 1847              		.thumb
 1848              		.thumb_func
 1849              		.fpu softvfp
 1850              		.type	_ZN10chibios_rt5Mutex8tryLockSEv, %function
 1851              	_ZN10chibios_rt5Mutex8tryLockSEv:
 1852              		.fnstart
 1853              	.LFB343:
 1854              		.loc 1 430 0
 1855              		.cfi_startproc
 1856              		@ args = 0, pretend = 0, frame = 0
 1857              		@ frame_needed = 0, uses_anonymous_args = 0
 1858              		@ link register save eliminated.
 1859              	.LVL131:
 1860              		.loc 1 432 0
 1861 0000 FFF7FEBF 		b	chMtxTryLockS
 1862              	.LVL132:
 1863              		.cfi_endproc
 1864              	.LFE343:
 1865              		.cantunwind
 1866              		.fnend
 1867              		.size	_ZN10chibios_rt5Mutex8tryLockSEv, .-_ZN10chibios_rt5Mutex8tryLockSEv
 1868              		.section	.text._ZN10chibios_rt5Mutex4lockEv,"ax",%progbits
 1869              		.align	1
 1870              		.p2align 4,,15
 1871              		.global	_ZN10chibios_rt5Mutex4lockEv
 1872              		.syntax unified
 1873              		.thumb
 1874              		.thumb_func
 1875              		.fpu softvfp
 1876              		.type	_ZN10chibios_rt5Mutex4lockEv, %function
 1877              	_ZN10chibios_rt5Mutex4lockEv:
 1878              		.fnstart
 1879              	.LFB344:
 1880              		.loc 1 435 0
 1881              		.cfi_startproc
ARM GAS  /var/folders/qd/4mxf5pkd0zdf0b9dd1hp39180000gn/T//ccPWOL7i.s 			page 34


 1882              		@ args = 0, pretend = 0, frame = 0
 1883              		@ frame_needed = 0, uses_anonymous_args = 0
 1884              		@ link register save eliminated.
 1885              	.LVL133:
 1886              		.loc 1 437 0
 1887 0000 FFF7FEBF 		b	chMtxLock
 1888              	.LVL134:
 1889              		.cfi_endproc
 1890              	.LFE344:
 1891              		.cantunwind
 1892              		.fnend
 1893              		.size	_ZN10chibios_rt5Mutex4lockEv, .-_ZN10chibios_rt5Mutex4lockEv
 1894              		.section	.text._ZN10chibios_rt5Mutex5lockSEv,"ax",%progbits
 1895              		.align	1
 1896              		.p2align 4,,15
 1897              		.global	_ZN10chibios_rt5Mutex5lockSEv
 1898              		.syntax unified
 1899              		.thumb
 1900              		.thumb_func
 1901              		.fpu softvfp
 1902              		.type	_ZN10chibios_rt5Mutex5lockSEv, %function
 1903              	_ZN10chibios_rt5Mutex5lockSEv:
 1904              		.fnstart
 1905              	.LFB345:
 1906              		.loc 1 440 0
 1907              		.cfi_startproc
 1908              		@ args = 0, pretend = 0, frame = 0
 1909              		@ frame_needed = 0, uses_anonymous_args = 0
 1910              		@ link register save eliminated.
 1911              	.LVL135:
 1912              		.loc 1 442 0
 1913 0000 FFF7FEBF 		b	chMtxLockS
 1914              	.LVL136:
 1915              		.cfi_endproc
 1916              	.LFE345:
 1917              		.cantunwind
 1918              		.fnend
 1919              		.size	_ZN10chibios_rt5Mutex5lockSEv, .-_ZN10chibios_rt5Mutex5lockSEv
 1920              		.section	.text._ZN10chibios_rt5Mutex6unlockEv,"ax",%progbits
 1921              		.align	1
 1922              		.p2align 4,,15
 1923              		.global	_ZN10chibios_rt5Mutex6unlockEv
 1924              		.syntax unified
 1925              		.thumb
 1926              		.thumb_func
 1927              		.fpu softvfp
 1928              		.type	_ZN10chibios_rt5Mutex6unlockEv, %function
 1929              	_ZN10chibios_rt5Mutex6unlockEv:
 1930              		.fnstart
 1931              	.LFB411:
 1932              		.cfi_startproc
 1933              		@ args = 0, pretend = 0, frame = 0
 1934              		@ frame_needed = 0, uses_anonymous_args = 0
 1935              		@ link register save eliminated.
 1936 0000 FFF7FEBF 		b	chMtxUnlock
 1937              		.cfi_endproc
 1938              	.LFE411:
ARM GAS  /var/folders/qd/4mxf5pkd0zdf0b9dd1hp39180000gn/T//ccPWOL7i.s 			page 35


 1939              		.cantunwind
 1940              		.fnend
 1941              		.size	_ZN10chibios_rt5Mutex6unlockEv, .-_ZN10chibios_rt5Mutex6unlockEv
 1942              		.section	.text._ZN10chibios_rt5Mutex7unlockSEv,"ax",%progbits
 1943              		.align	1
 1944              		.p2align 4,,15
 1945              		.global	_ZN10chibios_rt5Mutex7unlockSEv
 1946              		.syntax unified
 1947              		.thumb
 1948              		.thumb_func
 1949              		.fpu softvfp
 1950              		.type	_ZN10chibios_rt5Mutex7unlockSEv, %function
 1951              	_ZN10chibios_rt5Mutex7unlockSEv:
 1952              		.fnstart
 1953              	.LFB413:
 1954              		.cfi_startproc
 1955              		@ args = 0, pretend = 0, frame = 0
 1956              		@ frame_needed = 0, uses_anonymous_args = 0
 1957              		@ link register save eliminated.
 1958 0000 FFF7FEBF 		b	chMtxUnlockS
 1959              		.cfi_endproc
 1960              	.LFE413:
 1961              		.cantunwind
 1962              		.fnend
 1963              		.size	_ZN10chibios_rt5Mutex7unlockSEv, .-_ZN10chibios_rt5Mutex7unlockSEv
 1964              		.section	.text._ZN10chibios_rt7CondVarC2Ev,"ax",%progbits
 1965              		.align	1
 1966              		.p2align 4,,15
 1967              		.global	_ZN10chibios_rt7CondVarC2Ev
 1968              		.syntax unified
 1969              		.thumb
 1970              		.thumb_func
 1971              		.fpu softvfp
 1972              		.type	_ZN10chibios_rt7CondVarC2Ev, %function
 1973              	_ZN10chibios_rt7CondVarC2Ev:
 1974              		.fnstart
 1975              	.LFB349:
 1976              		.loc 1 459 0
 1977              		.cfi_startproc
 1978              		@ args = 0, pretend = 0, frame = 0
 1979              		@ frame_needed = 0, uses_anonymous_args = 0
 1980              	.LVL137:
 1981              		.loc 1 459 0
 1982 0000 10B5     		push	{r4, lr}
 1983              		.save {r4, lr}
 1984              		.cfi_def_cfa_offset 8
 1985              		.cfi_offset 4, -8
 1986              		.cfi_offset 14, -4
 1987              		.loc 1 459 0
 1988 0002 0446     		mov	r4, r0
 1989              	.LBB174:
 1990              		.loc 1 461 0
 1991 0004 FFF7FEFF 		bl	chCondObjectInit
 1992              	.LVL138:
 1993              	.LBE174:
 1994              		.loc 1 462 0
 1995 0008 2046     		mov	r0, r4
ARM GAS  /var/folders/qd/4mxf5pkd0zdf0b9dd1hp39180000gn/T//ccPWOL7i.s 			page 36


 1996 000a 10BD     		pop	{r4, pc}
 1997              		.cfi_endproc
 1998              	.LFE349:
 1999              		.fnend
 2000              		.size	_ZN10chibios_rt7CondVarC2Ev, .-_ZN10chibios_rt7CondVarC2Ev
 2001              		.global	_ZN10chibios_rt7CondVarC1Ev
 2002              		.thumb_set _ZN10chibios_rt7CondVarC1Ev,_ZN10chibios_rt7CondVarC2Ev
 2003              		.section	.text._ZN10chibios_rt7CondVar6signalEv,"ax",%progbits
 2004              		.align	1
 2005              		.p2align 4,,15
 2006              		.global	_ZN10chibios_rt7CondVar6signalEv
 2007              		.syntax unified
 2008              		.thumb
 2009              		.thumb_func
 2010              		.fpu softvfp
 2011              		.type	_ZN10chibios_rt7CondVar6signalEv, %function
 2012              	_ZN10chibios_rt7CondVar6signalEv:
 2013              		.fnstart
 2014              	.LFB351:
 2015              		.loc 1 464 0
 2016              		.cfi_startproc
 2017              		@ args = 0, pretend = 0, frame = 0
 2018              		@ frame_needed = 0, uses_anonymous_args = 0
 2019              		@ link register save eliminated.
 2020              	.LVL139:
 2021              		.loc 1 466 0
 2022 0000 FFF7FEBF 		b	chCondSignal
 2023              	.LVL140:
 2024              		.cfi_endproc
 2025              	.LFE351:
 2026              		.cantunwind
 2027              		.fnend
 2028              		.size	_ZN10chibios_rt7CondVar6signalEv, .-_ZN10chibios_rt7CondVar6signalEv
 2029              		.section	.text._ZN10chibios_rt7CondVar7signalIEv,"ax",%progbits
 2030              		.align	1
 2031              		.p2align 4,,15
 2032              		.global	_ZN10chibios_rt7CondVar7signalIEv
 2033              		.syntax unified
 2034              		.thumb
 2035              		.thumb_func
 2036              		.fpu softvfp
 2037              		.type	_ZN10chibios_rt7CondVar7signalIEv, %function
 2038              	_ZN10chibios_rt7CondVar7signalIEv:
 2039              		.fnstart
 2040              	.LFB352:
 2041              		.loc 1 469 0
 2042              		.cfi_startproc
 2043              		@ args = 0, pretend = 0, frame = 0
 2044              		@ frame_needed = 0, uses_anonymous_args = 0
 2045              		@ link register save eliminated.
 2046              	.LVL141:
 2047              		.loc 1 471 0
 2048 0000 FFF7FEBF 		b	chCondSignalI
 2049              	.LVL142:
 2050              		.cfi_endproc
 2051              	.LFE352:
 2052              		.cantunwind
ARM GAS  /var/folders/qd/4mxf5pkd0zdf0b9dd1hp39180000gn/T//ccPWOL7i.s 			page 37


 2053              		.fnend
 2054              		.size	_ZN10chibios_rt7CondVar7signalIEv, .-_ZN10chibios_rt7CondVar7signalIEv
 2055              		.section	.text._ZN10chibios_rt7CondVar9broadcastEv,"ax",%progbits
 2056              		.align	1
 2057              		.p2align 4,,15
 2058              		.global	_ZN10chibios_rt7CondVar9broadcastEv
 2059              		.syntax unified
 2060              		.thumb
 2061              		.thumb_func
 2062              		.fpu softvfp
 2063              		.type	_ZN10chibios_rt7CondVar9broadcastEv, %function
 2064              	_ZN10chibios_rt7CondVar9broadcastEv:
 2065              		.fnstart
 2066              	.LFB353:
 2067              		.loc 1 474 0
 2068              		.cfi_startproc
 2069              		@ args = 0, pretend = 0, frame = 0
 2070              		@ frame_needed = 0, uses_anonymous_args = 0
 2071              		@ link register save eliminated.
 2072              	.LVL143:
 2073              		.loc 1 476 0
 2074 0000 FFF7FEBF 		b	chCondBroadcast
 2075              	.LVL144:
 2076              		.cfi_endproc
 2077              	.LFE353:
 2078              		.cantunwind
 2079              		.fnend
 2080              		.size	_ZN10chibios_rt7CondVar9broadcastEv, .-_ZN10chibios_rt7CondVar9broadcastEv
 2081              		.section	.text._ZN10chibios_rt7CondVar10broadcastIEv,"ax",%progbits
 2082              		.align	1
 2083              		.p2align 4,,15
 2084              		.global	_ZN10chibios_rt7CondVar10broadcastIEv
 2085              		.syntax unified
 2086              		.thumb
 2087              		.thumb_func
 2088              		.fpu softvfp
 2089              		.type	_ZN10chibios_rt7CondVar10broadcastIEv, %function
 2090              	_ZN10chibios_rt7CondVar10broadcastIEv:
 2091              		.fnstart
 2092              	.LFB354:
 2093              		.loc 1 479 0
 2094              		.cfi_startproc
 2095              		@ args = 0, pretend = 0, frame = 0
 2096              		@ frame_needed = 0, uses_anonymous_args = 0
 2097              		@ link register save eliminated.
 2098              	.LVL145:
 2099              		.loc 1 481 0
 2100 0000 FFF7FEBF 		b	chCondBroadcastI
 2101              	.LVL146:
 2102              		.cfi_endproc
 2103              	.LFE354:
 2104              		.cantunwind
 2105              		.fnend
 2106              		.size	_ZN10chibios_rt7CondVar10broadcastIEv, .-_ZN10chibios_rt7CondVar10broadcastIEv
 2107              		.section	.text._ZN10chibios_rt7CondVar4waitEv,"ax",%progbits
 2108              		.align	1
 2109              		.p2align 4,,15
ARM GAS  /var/folders/qd/4mxf5pkd0zdf0b9dd1hp39180000gn/T//ccPWOL7i.s 			page 38


 2110              		.global	_ZN10chibios_rt7CondVar4waitEv
 2111              		.syntax unified
 2112              		.thumb
 2113              		.thumb_func
 2114              		.fpu softvfp
 2115              		.type	_ZN10chibios_rt7CondVar4waitEv, %function
 2116              	_ZN10chibios_rt7CondVar4waitEv:
 2117              		.fnstart
 2118              	.LFB355:
 2119              		.loc 1 484 0
 2120              		.cfi_startproc
 2121              		@ args = 0, pretend = 0, frame = 0
 2122              		@ frame_needed = 0, uses_anonymous_args = 0
 2123              		@ link register save eliminated.
 2124              	.LVL147:
 2125              		.loc 1 486 0
 2126 0000 FFF7FEBF 		b	chCondWait
 2127              	.LVL148:
 2128              		.cfi_endproc
 2129              	.LFE355:
 2130              		.cantunwind
 2131              		.fnend
 2132              		.size	_ZN10chibios_rt7CondVar4waitEv, .-_ZN10chibios_rt7CondVar4waitEv
 2133              		.section	.text._ZN10chibios_rt7CondVar5waitSEv,"ax",%progbits
 2134              		.align	1
 2135              		.p2align 4,,15
 2136              		.global	_ZN10chibios_rt7CondVar5waitSEv
 2137              		.syntax unified
 2138              		.thumb
 2139              		.thumb_func
 2140              		.fpu softvfp
 2141              		.type	_ZN10chibios_rt7CondVar5waitSEv, %function
 2142              	_ZN10chibios_rt7CondVar5waitSEv:
 2143              		.fnstart
 2144              	.LFB356:
 2145              		.loc 1 489 0
 2146              		.cfi_startproc
 2147              		@ args = 0, pretend = 0, frame = 0
 2148              		@ frame_needed = 0, uses_anonymous_args = 0
 2149              		@ link register save eliminated.
 2150              	.LVL149:
 2151              		.loc 1 491 0
 2152 0000 FFF7FEBF 		b	chCondWaitS
 2153              	.LVL150:
 2154              		.cfi_endproc
 2155              	.LFE356:
 2156              		.cantunwind
 2157              		.fnend
 2158              		.size	_ZN10chibios_rt7CondVar5waitSEv, .-_ZN10chibios_rt7CondVar5waitSEv
 2159              		.section	.text._ZN10chibios_rt7CondVar4waitEm,"ax",%progbits
 2160              		.align	1
 2161              		.p2align 4,,15
 2162              		.global	_ZN10chibios_rt7CondVar4waitEm
 2163              		.syntax unified
 2164              		.thumb
 2165              		.thumb_func
 2166              		.fpu softvfp
ARM GAS  /var/folders/qd/4mxf5pkd0zdf0b9dd1hp39180000gn/T//ccPWOL7i.s 			page 39


 2167              		.type	_ZN10chibios_rt7CondVar4waitEm, %function
 2168              	_ZN10chibios_rt7CondVar4waitEm:
 2169              		.fnstart
 2170              	.LFB357:
 2171              		.loc 1 495 0
 2172              		.cfi_startproc
 2173              		@ args = 0, pretend = 0, frame = 0
 2174              		@ frame_needed = 0, uses_anonymous_args = 0
 2175              		@ link register save eliminated.
 2176              	.LVL151:
 2177              		.loc 1 497 0
 2178 0000 FFF7FEBF 		b	chCondWaitTimeout
 2179              	.LVL152:
 2180              		.cfi_endproc
 2181              	.LFE357:
 2182              		.cantunwind
 2183              		.fnend
 2184              		.size	_ZN10chibios_rt7CondVar4waitEm, .-_ZN10chibios_rt7CondVar4waitEm
 2185              		.section	.text._ZN10chibios_rt11EvtListener16getAndClearFlagsEv,"ax",%progbits
 2186              		.align	1
 2187              		.p2align 4,,15
 2188              		.global	_ZN10chibios_rt11EvtListener16getAndClearFlagsEv
 2189              		.syntax unified
 2190              		.thumb
 2191              		.thumb_func
 2192              		.fpu softvfp
 2193              		.type	_ZN10chibios_rt11EvtListener16getAndClearFlagsEv, %function
 2194              	_ZN10chibios_rt11EvtListener16getAndClearFlagsEv:
 2195              		.fnstart
 2196              	.LFB358:
 2197              		.loc 1 507 0
 2198              		.cfi_startproc
 2199              		@ args = 0, pretend = 0, frame = 0
 2200              		@ frame_needed = 0, uses_anonymous_args = 0
 2201              		@ link register save eliminated.
 2202              	.LVL153:
 2203              		.loc 1 509 0
 2204 0000 FFF7FEBF 		b	chEvtGetAndClearFlags
 2205              	.LVL154:
 2206              		.cfi_endproc
 2207              	.LFE358:
 2208              		.cantunwind
 2209              		.fnend
 2210              		.size	_ZN10chibios_rt11EvtListener16getAndClearFlagsEv, .-_ZN10chibios_rt11EvtListener16getAndClea
 2211              		.section	.text._ZN10chibios_rt11EvtListener17getAndClearFlagsIEv,"ax",%progbits
 2212              		.align	1
 2213              		.p2align 4,,15
 2214              		.global	_ZN10chibios_rt11EvtListener17getAndClearFlagsIEv
 2215              		.syntax unified
 2216              		.thumb
 2217              		.thumb_func
 2218              		.fpu softvfp
 2219              		.type	_ZN10chibios_rt11EvtListener17getAndClearFlagsIEv, %function
 2220              	_ZN10chibios_rt11EvtListener17getAndClearFlagsIEv:
 2221              		.fnstart
 2222              	.LFB359:
 2223              		.loc 1 512 0
ARM GAS  /var/folders/qd/4mxf5pkd0zdf0b9dd1hp39180000gn/T//ccPWOL7i.s 			page 40


 2224              		.cfi_startproc
 2225              		@ args = 0, pretend = 0, frame = 0
 2226              		@ frame_needed = 0, uses_anonymous_args = 0
 2227              		@ link register save eliminated.
 2228              	.LVL155:
 2229              		.loc 1 514 0
 2230 0000 FFF7FEBF 		b	chEvtGetAndClearFlagsI
 2231              	.LVL156:
 2232              		.cfi_endproc
 2233              	.LFE359:
 2234              		.cantunwind
 2235              		.fnend
 2236              		.size	_ZN10chibios_rt11EvtListener17getAndClearFlagsIEv, .-_ZN10chibios_rt11EvtListener17getAndCle
 2237              		.section	.text._ZN10chibios_rt9EvtSourceC2Ev,"ax",%progbits
 2238              		.align	1
 2239              		.p2align 4,,15
 2240              		.global	_ZN10chibios_rt9EvtSourceC2Ev
 2241              		.syntax unified
 2242              		.thumb
 2243              		.thumb_func
 2244              		.fpu softvfp
 2245              		.type	_ZN10chibios_rt9EvtSourceC2Ev, %function
 2246              	_ZN10chibios_rt9EvtSourceC2Ev:
 2247              		.fnstart
 2248              	.LFB361:
 2249              		.loc 1 520 0
 2250              		.cfi_startproc
 2251              		@ args = 0, pretend = 0, frame = 0
 2252              		@ frame_needed = 0, uses_anonymous_args = 0
 2253              		@ link register save eliminated.
 2254              	.LVL157:
 2255              	.LBB175:
 2256              	.LBB176:
 2257              	.LBB177:
 2258              		.file 8 "../../../os/rt/include/chevents.h"
 2259              		.loc 8 172 0
 2260 0000 0060     		str	r0, [r0]
 2261              	.LVL158:
 2262              	.LBE177:
 2263              	.LBE176:
 2264              	.LBE175:
 2265              		.loc 1 523 0
 2266 0002 7047     		bx	lr
 2267              		.cfi_endproc
 2268              	.LFE361:
 2269              		.cantunwind
 2270              		.fnend
 2271              		.size	_ZN10chibios_rt9EvtSourceC2Ev, .-_ZN10chibios_rt9EvtSourceC2Ev
 2272              		.global	_ZN10chibios_rt9EvtSourceC1Ev
 2273              		.thumb_set _ZN10chibios_rt9EvtSourceC1Ev,_ZN10chibios_rt9EvtSourceC2Ev
 2274              		.section	.text._ZN10chibios_rt9EvtSource11registerOneEPNS_11EvtListenerEl,"ax",%progbits
 2275              		.align	1
 2276              		.p2align 4,,15
 2277              		.global	_ZN10chibios_rt9EvtSource11registerOneEPNS_11EvtListenerEl
 2278              		.syntax unified
 2279              		.thumb
 2280              		.thumb_func
ARM GAS  /var/folders/qd/4mxf5pkd0zdf0b9dd1hp39180000gn/T//ccPWOL7i.s 			page 41


 2281              		.fpu softvfp
 2282              		.type	_ZN10chibios_rt9EvtSource11registerOneEPNS_11EvtListenerEl, %function
 2283              	_ZN10chibios_rt9EvtSource11registerOneEPNS_11EvtListenerEl:
 2284              		.fnstart
 2285              	.LFB363:
 2286              		.loc 1 526 0
 2287              		.cfi_startproc
 2288              		@ args = 0, pretend = 0, frame = 0
 2289              		@ frame_needed = 0, uses_anonymous_args = 0
 2290              		@ link register save eliminated.
 2291              	.LVL159:
 2292              	.LBB178:
 2293              	.LBB179:
 2294              		.loc 8 213 0
 2295 0000 0123     		movs	r3, #1
 2296              	.LBB180:
 2297              	.LBB181:
 2298              		.loc 8 193 0
 2299 0002 03FA02F2 		lsl	r2, r3, r2
 2300              	.LVL160:
 2301 0006 4FF0FF33 		mov	r3, #-1
 2302 000a FFF7FEBF 		b	chEvtRegisterMaskWithFlags
 2303              	.LVL161:
 2304              	.LBE181:
 2305              	.LBE180:
 2306              	.LBE179:
 2307              	.LBE178:
 2308              		.cfi_endproc
 2309              	.LFE363:
 2310              		.cantunwind
 2311              		.fnend
 2312              		.size	_ZN10chibios_rt9EvtSource11registerOneEPNS_11EvtListenerEl, .-_ZN10chibios_rt9EvtSource11reg
 2313 000e 00BF     		.section	.text._ZN10chibios_rt9EvtSource12registerMaskEPNS_11EvtListenerEm,"ax",%progbits
 2314              		.align	1
 2315              		.p2align 4,,15
 2316              		.global	_ZN10chibios_rt9EvtSource12registerMaskEPNS_11EvtListenerEm
 2317              		.syntax unified
 2318              		.thumb
 2319              		.thumb_func
 2320              		.fpu softvfp
 2321              		.type	_ZN10chibios_rt9EvtSource12registerMaskEPNS_11EvtListenerEm, %function
 2322              	_ZN10chibios_rt9EvtSource12registerMaskEPNS_11EvtListenerEm:
 2323              		.fnstart
 2324              	.LFB364:
 2325              		.loc 1 532 0
 2326              		.cfi_startproc
 2327              		@ args = 0, pretend = 0, frame = 0
 2328              		@ frame_needed = 0, uses_anonymous_args = 0
 2329              		@ link register save eliminated.
 2330              	.LVL162:
 2331              	.LBB182:
 2332              	.LBB183:
 2333              		.loc 8 193 0
 2334 0000 4FF0FF33 		mov	r3, #-1
 2335 0004 FFF7FEBF 		b	chEvtRegisterMaskWithFlags
 2336              	.LVL163:
 2337              	.LBE183:
ARM GAS  /var/folders/qd/4mxf5pkd0zdf0b9dd1hp39180000gn/T//ccPWOL7i.s 			page 42


 2338              	.LBE182:
 2339              		.cfi_endproc
 2340              	.LFE364:
 2341              		.cantunwind
 2342              		.fnend
 2343              		.size	_ZN10chibios_rt9EvtSource12registerMaskEPNS_11EvtListenerEm, .-_ZN10chibios_rt9EvtSource12re
 2344              		.section	.text._ZN10chibios_rt9EvtSource10unregisterEPNS_11EvtListenerE,"ax",%progbits
 2345              		.align	1
 2346              		.p2align 4,,15
 2347              		.global	_ZN10chibios_rt9EvtSource10unregisterEPNS_11EvtListenerE
 2348              		.syntax unified
 2349              		.thumb
 2350              		.thumb_func
 2351              		.fpu softvfp
 2352              		.type	_ZN10chibios_rt9EvtSource10unregisterEPNS_11EvtListenerE, %function
 2353              	_ZN10chibios_rt9EvtSource10unregisterEPNS_11EvtListenerE:
 2354              		.fnstart
 2355              	.LFB365:
 2356              		.loc 1 537 0
 2357              		.cfi_startproc
 2358              		@ args = 0, pretend = 0, frame = 0
 2359              		@ frame_needed = 0, uses_anonymous_args = 0
 2360              		@ link register save eliminated.
 2361              	.LVL164:
 2362              		.loc 1 539 0
 2363 0000 FFF7FEBF 		b	chEvtUnregister
 2364              	.LVL165:
 2365              		.cfi_endproc
 2366              	.LFE365:
 2367              		.cantunwind
 2368              		.fnend
 2369              		.size	_ZN10chibios_rt9EvtSource10unregisterEPNS_11EvtListenerE, .-_ZN10chibios_rt9EvtSource10unreg
 2370              		.section	.text._ZN10chibios_rt9EvtSource14broadcastFlagsEm,"ax",%progbits
 2371              		.align	1
 2372              		.p2align 4,,15
 2373              		.global	_ZN10chibios_rt9EvtSource14broadcastFlagsEm
 2374              		.syntax unified
 2375              		.thumb
 2376              		.thumb_func
 2377              		.fpu softvfp
 2378              		.type	_ZN10chibios_rt9EvtSource14broadcastFlagsEm, %function
 2379              	_ZN10chibios_rt9EvtSource14broadcastFlagsEm:
 2380              		.fnstart
 2381              	.LFB366:
 2382              		.loc 1 542 0
 2383              		.cfi_startproc
 2384              		@ args = 0, pretend = 0, frame = 0
 2385              		@ frame_needed = 0, uses_anonymous_args = 0
 2386              		@ link register save eliminated.
 2387              	.LVL166:
 2388              		.loc 1 544 0
 2389 0000 FFF7FEBF 		b	chEvtBroadcastFlags
 2390              	.LVL167:
 2391              		.cfi_endproc
 2392              	.LFE366:
 2393              		.cantunwind
 2394              		.fnend
ARM GAS  /var/folders/qd/4mxf5pkd0zdf0b9dd1hp39180000gn/T//ccPWOL7i.s 			page 43


 2395              		.size	_ZN10chibios_rt9EvtSource14broadcastFlagsEm, .-_ZN10chibios_rt9EvtSource14broadcastFlagsEm
 2396              		.section	.text._ZN10chibios_rt9EvtSource15broadcastFlagsIEm,"ax",%progbits
 2397              		.align	1
 2398              		.p2align 4,,15
 2399              		.global	_ZN10chibios_rt9EvtSource15broadcastFlagsIEm
 2400              		.syntax unified
 2401              		.thumb
 2402              		.thumb_func
 2403              		.fpu softvfp
 2404              		.type	_ZN10chibios_rt9EvtSource15broadcastFlagsIEm, %function
 2405              	_ZN10chibios_rt9EvtSource15broadcastFlagsIEm:
 2406              		.fnstart
 2407              	.LFB367:
 2408              		.loc 1 547 0
 2409              		.cfi_startproc
 2410              		@ args = 0, pretend = 0, frame = 0
 2411              		@ frame_needed = 0, uses_anonymous_args = 0
 2412              		@ link register save eliminated.
 2413              	.LVL168:
 2414              		.loc 1 549 0
 2415 0000 FFF7FEBF 		b	chEvtBroadcastFlagsI
 2416              	.LVL169:
 2417              		.cfi_endproc
 2418              	.LFE367:
 2419              		.cantunwind
 2420              		.fnend
 2421              		.size	_ZN10chibios_rt9EvtSource15broadcastFlagsIEm, .-_ZN10chibios_rt9EvtSource15broadcastFlagsIEm
 2422              		.section	.text._ZN10chibios_rt7InQueueC2EPhjPFvP8io_queueEPv,"ax",%progbits
 2423              		.align	1
 2424              		.p2align 4,,15
 2425              		.global	_ZN10chibios_rt7InQueueC2EPhjPFvP8io_queueEPv
 2426              		.syntax unified
 2427              		.thumb
 2428              		.thumb_func
 2429              		.fpu softvfp
 2430              		.type	_ZN10chibios_rt7InQueueC2EPhjPFvP8io_queueEPv, %function
 2431              	_ZN10chibios_rt7InQueueC2EPhjPFvP8io_queueEPv:
 2432              		.fnstart
 2433              	.LFB369:
 2434              		.loc 1 557 0
 2435              		.cfi_startproc
 2436              		@ args = 4, pretend = 0, frame = 0
 2437              		@ frame_needed = 0, uses_anonymous_args = 0
 2438              	.LVL170:
 2439 0000 10B5     		push	{r4, lr}
 2440              		.save {r4, lr}
 2441              		.cfi_def_cfa_offset 8
 2442              		.cfi_offset 4, -8
 2443              		.cfi_offset 14, -4
 2444              		.pad #8
 2445 0002 82B0     		sub	sp, sp, #8
 2446              		.cfi_def_cfa_offset 16
 2447              		.loc 1 557 0
 2448 0004 049C     		ldr	r4, [sp, #16]
 2449              	.LBB184:
 2450              		.loc 1 559 0
 2451 0006 0094     		str	r4, [sp]
ARM GAS  /var/folders/qd/4mxf5pkd0zdf0b9dd1hp39180000gn/T//ccPWOL7i.s 			page 44


 2452              	.LBE184:
 2453              		.loc 1 557 0
 2454 0008 0446     		mov	r4, r0
 2455              	.LBB185:
 2456              		.loc 1 559 0
 2457 000a FFF7FEFF 		bl	chIQObjectInit
 2458              	.LVL171:
 2459              	.LBE185:
 2460              		.loc 1 560 0
 2461 000e 2046     		mov	r0, r4
 2462 0010 02B0     		add	sp, sp, #8
 2463              		.cfi_def_cfa_offset 8
 2464              		@ sp needed
 2465 0012 10BD     		pop	{r4, pc}
 2466              		.cfi_endproc
 2467              	.LFE369:
 2468              		.fnend
 2469              		.size	_ZN10chibios_rt7InQueueC2EPhjPFvP8io_queueEPv, .-_ZN10chibios_rt7InQueueC2EPhjPFvP8io_queueE
 2470              		.global	_ZN10chibios_rt7InQueueC1EPhjPFvP8io_queueEPv
 2471              		.thumb_set _ZN10chibios_rt7InQueueC1EPhjPFvP8io_queueEPv,_ZN10chibios_rt7InQueueC2EPhjPFvP8io_queu
 2472              		.section	.text._ZN10chibios_rt7InQueue8getFullIEv,"ax",%progbits
 2473              		.align	1
 2474              		.p2align 4,,15
 2475              		.global	_ZN10chibios_rt7InQueue8getFullIEv
 2476              		.syntax unified
 2477              		.thumb
 2478              		.thumb_func
 2479              		.fpu softvfp
 2480              		.type	_ZN10chibios_rt7InQueue8getFullIEv, %function
 2481              	_ZN10chibios_rt7InQueue8getFullIEv:
 2482              		.fnstart
 2483              	.LFB371:
 2484              		.loc 1 562 0
 2485              		.cfi_startproc
 2486              		@ args = 0, pretend = 0, frame = 0
 2487              		@ frame_needed = 0, uses_anonymous_args = 0
 2488              		@ link register save eliminated.
 2489              	.LVL172:
 2490              		.loc 1 565 0
 2491 0000 8068     		ldr	r0, [r0, #8]
 2492              	.LVL173:
 2493 0002 7047     		bx	lr
 2494              		.cfi_endproc
 2495              	.LFE371:
 2496              		.cantunwind
 2497              		.fnend
 2498              		.size	_ZN10chibios_rt7InQueue8getFullIEv, .-_ZN10chibios_rt7InQueue8getFullIEv
 2499              		.section	.text._ZN10chibios_rt7InQueue9getEmptyIEv,"ax",%progbits
 2500              		.align	1
 2501              		.p2align 4,,15
 2502              		.global	_ZN10chibios_rt7InQueue9getEmptyIEv
 2503              		.syntax unified
 2504              		.thumb
 2505              		.thumb_func
 2506              		.fpu softvfp
 2507              		.type	_ZN10chibios_rt7InQueue9getEmptyIEv, %function
 2508              	_ZN10chibios_rt7InQueue9getEmptyIEv:
ARM GAS  /var/folders/qd/4mxf5pkd0zdf0b9dd1hp39180000gn/T//ccPWOL7i.s 			page 45


 2509              		.fnstart
 2510              	.LFB372:
 2511              		.loc 1 567 0
 2512              		.cfi_startproc
 2513              		@ args = 0, pretend = 0, frame = 0
 2514              		@ frame_needed = 0, uses_anonymous_args = 0
 2515              		@ link register save eliminated.
 2516              	.LVL174:
 2517              	.LBB186:
 2518              	.LBB187:
 2519              		.file 9 "../../../os/rt/include/chqueues.h"
 2520              		.loc 9 290 0
 2521 0000 D0E90323 		ldrd	r2, r3, [r0, #12]
 2522 0004 8068     		ldr	r0, [r0, #8]
 2523              	.LVL175:
 2524 0006 9B1A     		subs	r3, r3, r2
 2525              	.LBE187:
 2526              	.LBE186:
 2527              		.loc 1 570 0
 2528 0008 181A     		subs	r0, r3, r0
 2529 000a 7047     		bx	lr
 2530              		.cfi_endproc
 2531              	.LFE372:
 2532              		.cantunwind
 2533              		.fnend
 2534              		.size	_ZN10chibios_rt7InQueue9getEmptyIEv, .-_ZN10chibios_rt7InQueue9getEmptyIEv
 2535              		.section	.text._ZN10chibios_rt7InQueue8isEmptyIEv,"ax",%progbits
 2536              		.align	1
 2537              		.p2align 4,,15
 2538              		.global	_ZN10chibios_rt7InQueue8isEmptyIEv
 2539              		.syntax unified
 2540              		.thumb
 2541              		.thumb_func
 2542              		.fpu softvfp
 2543              		.type	_ZN10chibios_rt7InQueue8isEmptyIEv, %function
 2544              	_ZN10chibios_rt7InQueue8isEmptyIEv:
 2545              		.fnstart
 2546              	.LFB373:
 2547              		.loc 1 572 0
 2548              		.cfi_startproc
 2549              		@ args = 0, pretend = 0, frame = 0
 2550              		@ frame_needed = 0, uses_anonymous_args = 0
 2551              		@ link register save eliminated.
 2552              	.LVL176:
 2553              	.LBB188:
 2554              	.LBB189:
 2555              		.loc 9 307 0
 2556 0000 8068     		ldr	r0, [r0, #8]
 2557              	.LVL177:
 2558              	.LBE189:
 2559              	.LBE188:
 2560              		.loc 1 575 0
 2561 0002 B0FA80F0 		clz	r0, r0
 2562 0006 4009     		lsrs	r0, r0, #5
 2563 0008 7047     		bx	lr
 2564              		.cfi_endproc
 2565              	.LFE373:
ARM GAS  /var/folders/qd/4mxf5pkd0zdf0b9dd1hp39180000gn/T//ccPWOL7i.s 			page 46


 2566              		.cantunwind
 2567              		.fnend
 2568              		.size	_ZN10chibios_rt7InQueue8isEmptyIEv, .-_ZN10chibios_rt7InQueue8isEmptyIEv
 2569 000a 00BF     		.section	.text._ZN10chibios_rt7InQueue7isFullIEv,"ax",%progbits
 2570              		.align	1
 2571              		.p2align 4,,15
 2572              		.global	_ZN10chibios_rt7InQueue7isFullIEv
 2573              		.syntax unified
 2574              		.thumb
 2575              		.thumb_func
 2576              		.fpu softvfp
 2577              		.type	_ZN10chibios_rt7InQueue7isFullIEv, %function
 2578              	_ZN10chibios_rt7InQueue7isFullIEv:
 2579              		.fnstart
 2580              	.LFB374:
 2581              		.loc 1 577 0
 2582              		.cfi_startproc
 2583              		@ args = 0, pretend = 0, frame = 0
 2584              		@ frame_needed = 0, uses_anonymous_args = 0
 2585              		@ link register save eliminated.
 2586              	.LVL178:
 2587              	.LBB190:
 2588              	.LBB191:
 2589              		.loc 9 324 0
 2590 0000 D0E90523 		ldrd	r2, r3, [r0, #20]
 2591 0004 9A42     		cmp	r2, r3
 2592 0006 01D0     		beq	.L112
 2593 0008 0020     		movs	r0, #0
 2594              	.LVL179:
 2595              	.LBE191:
 2596              	.LBE190:
 2597              		.loc 1 580 0
 2598 000a 7047     		bx	lr
 2599              	.LVL180:
 2600              	.L112:
 2601              	.LBB193:
 2602              	.LBB192:
 2603              		.loc 9 324 0
 2604 000c 8068     		ldr	r0, [r0, #8]
 2605              	.LVL181:
 2606 000e 0030     		adds	r0, r0, #0
 2607 0010 18BF     		it	ne
 2608 0012 0120     		movne	r0, #1
 2609 0014 7047     		bx	lr
 2610              	.LBE192:
 2611              	.LBE193:
 2612              		.cfi_endproc
 2613              	.LFE374:
 2614              		.cantunwind
 2615              		.fnend
 2616              		.size	_ZN10chibios_rt7InQueue7isFullIEv, .-_ZN10chibios_rt7InQueue7isFullIEv
 2617 0016 00BF     		.section	.text._ZN10chibios_rt7InQueue6resetIEv,"ax",%progbits
 2618              		.align	1
 2619              		.p2align 4,,15
 2620              		.global	_ZN10chibios_rt7InQueue6resetIEv
 2621              		.syntax unified
 2622              		.thumb
ARM GAS  /var/folders/qd/4mxf5pkd0zdf0b9dd1hp39180000gn/T//ccPWOL7i.s 			page 47


 2623              		.thumb_func
 2624              		.fpu softvfp
 2625              		.type	_ZN10chibios_rt7InQueue6resetIEv, %function
 2626              	_ZN10chibios_rt7InQueue6resetIEv:
 2627              		.fnstart
 2628              	.LFB375:
 2629              		.loc 1 582 0
 2630              		.cfi_startproc
 2631              		@ args = 0, pretend = 0, frame = 0
 2632              		@ frame_needed = 0, uses_anonymous_args = 0
 2633              		@ link register save eliminated.
 2634              	.LVL182:
 2635              		.loc 1 584 0
 2636 0000 FFF7FEBF 		b	chIQResetI
 2637              	.LVL183:
 2638              		.cfi_endproc
 2639              	.LFE375:
 2640              		.cantunwind
 2641              		.fnend
 2642              		.size	_ZN10chibios_rt7InQueue6resetIEv, .-_ZN10chibios_rt7InQueue6resetIEv
 2643              		.section	.text._ZN10chibios_rt7InQueue4putIEh,"ax",%progbits
 2644              		.align	1
 2645              		.p2align 4,,15
 2646              		.global	_ZN10chibios_rt7InQueue4putIEh
 2647              		.syntax unified
 2648              		.thumb
 2649              		.thumb_func
 2650              		.fpu softvfp
 2651              		.type	_ZN10chibios_rt7InQueue4putIEh, %function
 2652              	_ZN10chibios_rt7InQueue4putIEh:
 2653              		.fnstart
 2654              	.LFB376:
 2655              		.loc 1 587 0
 2656              		.cfi_startproc
 2657              		@ args = 0, pretend = 0, frame = 0
 2658              		@ frame_needed = 0, uses_anonymous_args = 0
 2659              		@ link register save eliminated.
 2660              	.LVL184:
 2661              		.loc 1 589 0
 2662 0000 FFF7FEBF 		b	chIQPutI
 2663              	.LVL185:
 2664              		.cfi_endproc
 2665              	.LFE376:
 2666              		.cantunwind
 2667              		.fnend
 2668              		.size	_ZN10chibios_rt7InQueue4putIEh, .-_ZN10chibios_rt7InQueue4putIEh
 2669              		.section	.text._ZN10chibios_rt7InQueue3getEv,"ax",%progbits
 2670              		.align	1
 2671              		.p2align 4,,15
 2672              		.global	_ZN10chibios_rt7InQueue3getEv
 2673              		.syntax unified
 2674              		.thumb
 2675              		.thumb_func
 2676              		.fpu softvfp
 2677              		.type	_ZN10chibios_rt7InQueue3getEv, %function
 2678              	_ZN10chibios_rt7InQueue3getEv:
 2679              		.fnstart
ARM GAS  /var/folders/qd/4mxf5pkd0zdf0b9dd1hp39180000gn/T//ccPWOL7i.s 			page 48


 2680              	.LFB377:
 2681              		.loc 1 592 0
 2682              		.cfi_startproc
 2683              		@ args = 0, pretend = 0, frame = 0
 2684              		@ frame_needed = 0, uses_anonymous_args = 0
 2685              		@ link register save eliminated.
 2686              	.LVL186:
 2687              	.LBB194:
 2688              	.LBB195:
 2689              		.loc 9 341 0
 2690 0000 4FF0FF31 		mov	r1, #-1
 2691 0004 FFF7FEBF 		b	chIQGetTimeout
 2692              	.LVL187:
 2693              	.LBE195:
 2694              	.LBE194:
 2695              		.cfi_endproc
 2696              	.LFE377:
 2697              		.cantunwind
 2698              		.fnend
 2699              		.size	_ZN10chibios_rt7InQueue3getEv, .-_ZN10chibios_rt7InQueue3getEv
 2700              		.section	.text._ZN10chibios_rt7InQueue3getEm,"ax",%progbits
 2701              		.align	1
 2702              		.p2align 4,,15
 2703              		.global	_ZN10chibios_rt7InQueue3getEm
 2704              		.syntax unified
 2705              		.thumb
 2706              		.thumb_func
 2707              		.fpu softvfp
 2708              		.type	_ZN10chibios_rt7InQueue3getEm, %function
 2709              	_ZN10chibios_rt7InQueue3getEm:
 2710              		.fnstart
 2711              	.LFB378:
 2712              		.loc 1 597 0
 2713              		.cfi_startproc
 2714              		@ args = 0, pretend = 0, frame = 0
 2715              		@ frame_needed = 0, uses_anonymous_args = 0
 2716              		@ link register save eliminated.
 2717              	.LVL188:
 2718              		.loc 1 599 0
 2719 0000 FFF7FEBF 		b	chIQGetTimeout
 2720              	.LVL189:
 2721              		.cfi_endproc
 2722              	.LFE378:
 2723              		.cantunwind
 2724              		.fnend
 2725              		.size	_ZN10chibios_rt7InQueue3getEm, .-_ZN10chibios_rt7InQueue3getEm
 2726              		.section	.text._ZN10chibios_rt7InQueue4readEPhjm,"ax",%progbits
 2727              		.align	1
 2728              		.p2align 4,,15
 2729              		.global	_ZN10chibios_rt7InQueue4readEPhjm
 2730              		.syntax unified
 2731              		.thumb
 2732              		.thumb_func
 2733              		.fpu softvfp
 2734              		.type	_ZN10chibios_rt7InQueue4readEPhjm, %function
 2735              	_ZN10chibios_rt7InQueue4readEPhjm:
 2736              		.fnstart
ARM GAS  /var/folders/qd/4mxf5pkd0zdf0b9dd1hp39180000gn/T//ccPWOL7i.s 			page 49


 2737              	.LFB379:
 2738              		.loc 1 602 0
 2739              		.cfi_startproc
 2740              		@ args = 0, pretend = 0, frame = 0
 2741              		@ frame_needed = 0, uses_anonymous_args = 0
 2742              		@ link register save eliminated.
 2743              	.LVL190:
 2744              		.loc 1 604 0
 2745 0000 FFF7FEBF 		b	chIQReadTimeout
 2746              	.LVL191:
 2747              		.cfi_endproc
 2748              	.LFE379:
 2749              		.cantunwind
 2750              		.fnend
 2751              		.size	_ZN10chibios_rt7InQueue4readEPhjm, .-_ZN10chibios_rt7InQueue4readEPhjm
 2752              		.section	.text._ZN10chibios_rt8OutQueueC2EPhjPFvP8io_queueEPv,"ax",%progbits
 2753              		.align	1
 2754              		.p2align 4,,15
 2755              		.global	_ZN10chibios_rt8OutQueueC2EPhjPFvP8io_queueEPv
 2756              		.syntax unified
 2757              		.thumb
 2758              		.thumb_func
 2759              		.fpu softvfp
 2760              		.type	_ZN10chibios_rt8OutQueueC2EPhjPFvP8io_queueEPv, %function
 2761              	_ZN10chibios_rt8OutQueueC2EPhjPFvP8io_queueEPv:
 2762              		.fnstart
 2763              	.LFB381:
 2764              		.loc 1 610 0
 2765              		.cfi_startproc
 2766              		@ args = 4, pretend = 0, frame = 0
 2767              		@ frame_needed = 0, uses_anonymous_args = 0
 2768              	.LVL192:
 2769 0000 10B5     		push	{r4, lr}
 2770              		.save {r4, lr}
 2771              		.cfi_def_cfa_offset 8
 2772              		.cfi_offset 4, -8
 2773              		.cfi_offset 14, -4
 2774              		.pad #8
 2775 0002 82B0     		sub	sp, sp, #8
 2776              		.cfi_def_cfa_offset 16
 2777              		.loc 1 610 0
 2778 0004 049C     		ldr	r4, [sp, #16]
 2779              	.LBB196:
 2780              		.loc 1 612 0
 2781 0006 0094     		str	r4, [sp]
 2782              	.LBE196:
 2783              		.loc 1 610 0
 2784 0008 0446     		mov	r4, r0
 2785              	.LBB197:
 2786              		.loc 1 612 0
 2787 000a FFF7FEFF 		bl	chOQObjectInit
 2788              	.LVL193:
 2789              	.LBE197:
 2790              		.loc 1 613 0
 2791 000e 2046     		mov	r0, r4
 2792 0010 02B0     		add	sp, sp, #8
 2793              		.cfi_def_cfa_offset 8
ARM GAS  /var/folders/qd/4mxf5pkd0zdf0b9dd1hp39180000gn/T//ccPWOL7i.s 			page 50


 2794              		@ sp needed
 2795 0012 10BD     		pop	{r4, pc}
 2796              		.cfi_endproc
 2797              	.LFE381:
 2798              		.fnend
 2799              		.size	_ZN10chibios_rt8OutQueueC2EPhjPFvP8io_queueEPv, .-_ZN10chibios_rt8OutQueueC2EPhjPFvP8io_queu
 2800              		.global	_ZN10chibios_rt8OutQueueC1EPhjPFvP8io_queueEPv
 2801              		.thumb_set _ZN10chibios_rt8OutQueueC1EPhjPFvP8io_queueEPv,_ZN10chibios_rt8OutQueueC2EPhjPFvP8io_qu
 2802              		.section	.text._ZN10chibios_rt8OutQueue8getFullIEv,"ax",%progbits
 2803              		.align	1
 2804              		.p2align 4,,15
 2805              		.global	_ZN10chibios_rt8OutQueue8getFullIEv
 2806              		.syntax unified
 2807              		.thumb
 2808              		.thumb_func
 2809              		.fpu softvfp
 2810              		.type	_ZN10chibios_rt8OutQueue8getFullIEv, %function
 2811              	_ZN10chibios_rt8OutQueue8getFullIEv:
 2812              		.fnstart
 2813              	.LFB383:
 2814              		.loc 1 615 0
 2815              		.cfi_startproc
 2816              		@ args = 0, pretend = 0, frame = 0
 2817              		@ frame_needed = 0, uses_anonymous_args = 0
 2818              		@ link register save eliminated.
 2819              	.LVL194:
 2820              	.LBB198:
 2821              	.LBB199:
 2822              		.loc 9 357 0
 2823 0000 D0E90323 		ldrd	r2, r3, [r0, #12]
 2824 0004 8068     		ldr	r0, [r0, #8]
 2825              	.LVL195:
 2826 0006 9B1A     		subs	r3, r3, r2
 2827              	.LBE199:
 2828              	.LBE198:
 2829              		.loc 1 618 0
 2830 0008 181A     		subs	r0, r3, r0
 2831 000a 7047     		bx	lr
 2832              		.cfi_endproc
 2833              	.LFE383:
 2834              		.cantunwind
 2835              		.fnend
 2836              		.size	_ZN10chibios_rt8OutQueue8getFullIEv, .-_ZN10chibios_rt8OutQueue8getFullIEv
 2837              		.section	.text._ZN10chibios_rt8OutQueue9getEmptyIEv,"ax",%progbits
 2838              		.align	1
 2839              		.p2align 4,,15
 2840              		.global	_ZN10chibios_rt8OutQueue9getEmptyIEv
 2841              		.syntax unified
 2842              		.thumb
 2843              		.thumb_func
 2844              		.fpu softvfp
 2845              		.type	_ZN10chibios_rt8OutQueue9getEmptyIEv, %function
 2846              	_ZN10chibios_rt8OutQueue9getEmptyIEv:
 2847              		.fnstart
 2848              	.LFB384:
 2849              		.loc 1 620 0
 2850              		.cfi_startproc
ARM GAS  /var/folders/qd/4mxf5pkd0zdf0b9dd1hp39180000gn/T//ccPWOL7i.s 			page 51


 2851              		@ args = 0, pretend = 0, frame = 0
 2852              		@ frame_needed = 0, uses_anonymous_args = 0
 2853              		@ link register save eliminated.
 2854              	.LVL196:
 2855              		.loc 1 623 0
 2856 0000 8068     		ldr	r0, [r0, #8]
 2857              	.LVL197:
 2858 0002 7047     		bx	lr
 2859              		.cfi_endproc
 2860              	.LFE384:
 2861              		.cantunwind
 2862              		.fnend
 2863              		.size	_ZN10chibios_rt8OutQueue9getEmptyIEv, .-_ZN10chibios_rt8OutQueue9getEmptyIEv
 2864              		.section	.text._ZN10chibios_rt8OutQueue8isEmptyIEv,"ax",%progbits
 2865              		.align	1
 2866              		.p2align 4,,15
 2867              		.global	_ZN10chibios_rt8OutQueue8isEmptyIEv
 2868              		.syntax unified
 2869              		.thumb
 2870              		.thumb_func
 2871              		.fpu softvfp
 2872              		.type	_ZN10chibios_rt8OutQueue8isEmptyIEv, %function
 2873              	_ZN10chibios_rt8OutQueue8isEmptyIEv:
 2874              		.fnstart
 2875              	.LFB385:
 2876              		.loc 1 625 0
 2877              		.cfi_startproc
 2878              		@ args = 0, pretend = 0, frame = 0
 2879              		@ frame_needed = 0, uses_anonymous_args = 0
 2880              		@ link register save eliminated.
 2881              	.LVL198:
 2882              	.LBB200:
 2883              	.LBB201:
 2884              		.loc 9 390 0
 2885 0000 D0E90523 		ldrd	r2, r3, [r0, #20]
 2886 0004 9A42     		cmp	r2, r3
 2887 0006 01D0     		beq	.L125
 2888 0008 0020     		movs	r0, #0
 2889              	.LVL199:
 2890              	.LBE201:
 2891              	.LBE200:
 2892              		.loc 1 628 0
 2893 000a 7047     		bx	lr
 2894              	.LVL200:
 2895              	.L125:
 2896              	.LBB203:
 2897              	.LBB202:
 2898              		.loc 9 390 0
 2899 000c 8068     		ldr	r0, [r0, #8]
 2900              	.LVL201:
 2901 000e 0030     		adds	r0, r0, #0
 2902 0010 18BF     		it	ne
 2903 0012 0120     		movne	r0, #1
 2904 0014 7047     		bx	lr
 2905              	.LBE202:
 2906              	.LBE203:
 2907              		.cfi_endproc
ARM GAS  /var/folders/qd/4mxf5pkd0zdf0b9dd1hp39180000gn/T//ccPWOL7i.s 			page 52


 2908              	.LFE385:
 2909              		.cantunwind
 2910              		.fnend
 2911              		.size	_ZN10chibios_rt8OutQueue8isEmptyIEv, .-_ZN10chibios_rt8OutQueue8isEmptyIEv
 2912 0016 00BF     		.section	.text._ZN10chibios_rt8OutQueue7isFullIEv,"ax",%progbits
 2913              		.align	1
 2914              		.p2align 4,,15
 2915              		.global	_ZN10chibios_rt8OutQueue7isFullIEv
 2916              		.syntax unified
 2917              		.thumb
 2918              		.thumb_func
 2919              		.fpu softvfp
 2920              		.type	_ZN10chibios_rt8OutQueue7isFullIEv, %function
 2921              	_ZN10chibios_rt8OutQueue7isFullIEv:
 2922              		.fnstart
 2923              	.LFB386:
 2924              		.loc 1 630 0
 2925              		.cfi_startproc
 2926              		@ args = 0, pretend = 0, frame = 0
 2927              		@ frame_needed = 0, uses_anonymous_args = 0
 2928              		@ link register save eliminated.
 2929              	.LVL202:
 2930              	.LBB204:
 2931              	.LBB205:
 2932              		.loc 9 407 0
 2933 0000 8068     		ldr	r0, [r0, #8]
 2934              	.LVL203:
 2935              	.LBE205:
 2936              	.LBE204:
 2937              		.loc 1 633 0
 2938 0002 B0FA80F0 		clz	r0, r0
 2939 0006 4009     		lsrs	r0, r0, #5
 2940 0008 7047     		bx	lr
 2941              		.cfi_endproc
 2942              	.LFE386:
 2943              		.cantunwind
 2944              		.fnend
 2945              		.size	_ZN10chibios_rt8OutQueue7isFullIEv, .-_ZN10chibios_rt8OutQueue7isFullIEv
 2946 000a 00BF     		.section	.text._ZN10chibios_rt8OutQueue6resetIEv,"ax",%progbits
 2947              		.align	1
 2948              		.p2align 4,,15
 2949              		.global	_ZN10chibios_rt8OutQueue6resetIEv
 2950              		.syntax unified
 2951              		.thumb
 2952              		.thumb_func
 2953              		.fpu softvfp
 2954              		.type	_ZN10chibios_rt8OutQueue6resetIEv, %function
 2955              	_ZN10chibios_rt8OutQueue6resetIEv:
 2956              		.fnstart
 2957              	.LFB387:
 2958              		.loc 1 635 0
 2959              		.cfi_startproc
 2960              		@ args = 0, pretend = 0, frame = 0
 2961              		@ frame_needed = 0, uses_anonymous_args = 0
 2962              		@ link register save eliminated.
 2963              	.LVL204:
 2964              		.loc 1 637 0
ARM GAS  /var/folders/qd/4mxf5pkd0zdf0b9dd1hp39180000gn/T//ccPWOL7i.s 			page 53


 2965 0000 FFF7FEBF 		b	chOQResetI
 2966              	.LVL205:
 2967              		.cfi_endproc
 2968              	.LFE387:
 2969              		.cantunwind
 2970              		.fnend
 2971              		.size	_ZN10chibios_rt8OutQueue6resetIEv, .-_ZN10chibios_rt8OutQueue6resetIEv
 2972              		.section	.text._ZN10chibios_rt8OutQueue3putEh,"ax",%progbits
 2973              		.align	1
 2974              		.p2align 4,,15
 2975              		.global	_ZN10chibios_rt8OutQueue3putEh
 2976              		.syntax unified
 2977              		.thumb
 2978              		.thumb_func
 2979              		.fpu softvfp
 2980              		.type	_ZN10chibios_rt8OutQueue3putEh, %function
 2981              	_ZN10chibios_rt8OutQueue3putEh:
 2982              		.fnstart
 2983              	.LFB388:
 2984              		.loc 1 640 0
 2985              		.cfi_startproc
 2986              		@ args = 0, pretend = 0, frame = 0
 2987              		@ frame_needed = 0, uses_anonymous_args = 0
 2988              		@ link register save eliminated.
 2989              	.LVL206:
 2990              	.LBB206:
 2991              	.LBB207:
 2992              		.loc 9 426 0
 2993 0000 4FF0FF32 		mov	r2, #-1
 2994 0004 FFF7FEBF 		b	chOQPutTimeout
 2995              	.LVL207:
 2996              	.LBE207:
 2997              	.LBE206:
 2998              		.cfi_endproc
 2999              	.LFE388:
 3000              		.cantunwind
 3001              		.fnend
 3002              		.size	_ZN10chibios_rt8OutQueue3putEh, .-_ZN10chibios_rt8OutQueue3putEh
 3003              		.section	.text._ZN10chibios_rt8OutQueue3putEhm,"ax",%progbits
 3004              		.align	1
 3005              		.p2align 4,,15
 3006              		.global	_ZN10chibios_rt8OutQueue3putEhm
 3007              		.syntax unified
 3008              		.thumb
 3009              		.thumb_func
 3010              		.fpu softvfp
 3011              		.type	_ZN10chibios_rt8OutQueue3putEhm, %function
 3012              	_ZN10chibios_rt8OutQueue3putEhm:
 3013              		.fnstart
 3014              	.LFB389:
 3015              		.loc 1 645 0
 3016              		.cfi_startproc
 3017              		@ args = 0, pretend = 0, frame = 0
 3018              		@ frame_needed = 0, uses_anonymous_args = 0
 3019              		@ link register save eliminated.
 3020              	.LVL208:
 3021              		.loc 1 647 0
ARM GAS  /var/folders/qd/4mxf5pkd0zdf0b9dd1hp39180000gn/T//ccPWOL7i.s 			page 54


 3022 0000 FFF7FEBF 		b	chOQPutTimeout
 3023              	.LVL209:
 3024              		.cfi_endproc
 3025              	.LFE389:
 3026              		.cantunwind
 3027              		.fnend
 3028              		.size	_ZN10chibios_rt8OutQueue3putEhm, .-_ZN10chibios_rt8OutQueue3putEhm
 3029              		.section	.text._ZN10chibios_rt8OutQueue4getIEv,"ax",%progbits
 3030              		.align	1
 3031              		.p2align 4,,15
 3032              		.global	_ZN10chibios_rt8OutQueue4getIEv
 3033              		.syntax unified
 3034              		.thumb
 3035              		.thumb_func
 3036              		.fpu softvfp
 3037              		.type	_ZN10chibios_rt8OutQueue4getIEv, %function
 3038              	_ZN10chibios_rt8OutQueue4getIEv:
 3039              		.fnstart
 3040              	.LFB390:
 3041              		.loc 1 650 0
 3042              		.cfi_startproc
 3043              		@ args = 0, pretend = 0, frame = 0
 3044              		@ frame_needed = 0, uses_anonymous_args = 0
 3045              		@ link register save eliminated.
 3046              	.LVL210:
 3047              		.loc 1 652 0
 3048 0000 FFF7FEBF 		b	chOQGetI
 3049              	.LVL211:
 3050              		.cfi_endproc
 3051              	.LFE390:
 3052              		.cantunwind
 3053              		.fnend
 3054              		.size	_ZN10chibios_rt8OutQueue4getIEv, .-_ZN10chibios_rt8OutQueue4getIEv
 3055              		.section	.text._ZN10chibios_rt8OutQueue5writeEPKhjm,"ax",%progbits
 3056              		.align	1
 3057              		.p2align 4,,15
 3058              		.global	_ZN10chibios_rt8OutQueue5writeEPKhjm
 3059              		.syntax unified
 3060              		.thumb
 3061              		.thumb_func
 3062              		.fpu softvfp
 3063              		.type	_ZN10chibios_rt8OutQueue5writeEPKhjm, %function
 3064              	_ZN10chibios_rt8OutQueue5writeEPKhjm:
 3065              		.fnstart
 3066              	.LFB391:
 3067              		.loc 1 655 0
 3068              		.cfi_startproc
 3069              		@ args = 0, pretend = 0, frame = 0
 3070              		@ frame_needed = 0, uses_anonymous_args = 0
 3071              		@ link register save eliminated.
 3072              	.LVL212:
 3073              		.loc 1 657 0
 3074 0000 FFF7FEBF 		b	chOQWriteTimeout
 3075              	.LVL213:
 3076              		.cfi_endproc
 3077              	.LFE391:
 3078              		.cantunwind
ARM GAS  /var/folders/qd/4mxf5pkd0zdf0b9dd1hp39180000gn/T//ccPWOL7i.s 			page 55


 3079              		.fnend
 3080              		.size	_ZN10chibios_rt8OutQueue5writeEPKhjm, .-_ZN10chibios_rt8OutQueue5writeEPKhjm
 3081              		.section	.text._ZN10chibios_rt10MemoryPoolC2EjPFPvjE,"ax",%progbits
 3082              		.align	1
 3083              		.p2align 4,,15
 3084              		.global	_ZN10chibios_rt10MemoryPoolC2EjPFPvjE
 3085              		.syntax unified
 3086              		.thumb
 3087              		.thumb_func
 3088              		.fpu softvfp
 3089              		.type	_ZN10chibios_rt10MemoryPoolC2EjPFPvjE, %function
 3090              	_ZN10chibios_rt10MemoryPoolC2EjPFPvjE:
 3091              		.fnstart
 3092              	.LFB393:
 3093              		.loc 1 665 0
 3094              		.cfi_startproc
 3095              		@ args = 0, pretend = 0, frame = 0
 3096              		@ frame_needed = 0, uses_anonymous_args = 0
 3097              	.LVL214:
 3098 0000 10B5     		push	{r4, lr}
 3099              		.save {r4, lr}
 3100              		.cfi_def_cfa_offset 8
 3101              		.cfi_offset 4, -8
 3102              		.cfi_offset 14, -4
 3103              		.loc 1 665 0
 3104 0002 0446     		mov	r4, r0
 3105              	.LBB208:
 3106              		.loc 1 667 0
 3107 0004 FFF7FEFF 		bl	chPoolObjectInit
 3108              	.LVL215:
 3109              	.LBE208:
 3110              		.loc 1 668 0
 3111 0008 2046     		mov	r0, r4
 3112 000a 10BD     		pop	{r4, pc}
 3113              		.cfi_endproc
 3114              	.LFE393:
 3115              		.fnend
 3116              		.size	_ZN10chibios_rt10MemoryPoolC2EjPFPvjE, .-_ZN10chibios_rt10MemoryPoolC2EjPFPvjE
 3117              		.global	_ZN10chibios_rt10MemoryPoolC1EjPFPvjE
 3118              		.thumb_set _ZN10chibios_rt10MemoryPoolC1EjPFPvjE,_ZN10chibios_rt10MemoryPoolC2EjPFPvjE
 3119              		.section	.text._ZN10chibios_rt10MemoryPoolC2EjPFPvjES1_j,"ax",%progbits
 3120              		.align	1
 3121              		.p2align 4,,15
 3122              		.global	_ZN10chibios_rt10MemoryPoolC2EjPFPvjES1_j
 3123              		.syntax unified
 3124              		.thumb
 3125              		.thumb_func
 3126              		.fpu softvfp
 3127              		.type	_ZN10chibios_rt10MemoryPoolC2EjPFPvjES1_j, %function
 3128              	_ZN10chibios_rt10MemoryPoolC2EjPFPvjES1_j:
 3129              		.fnstart
 3130              	.LFB396:
 3131              		.loc 1 670 0
 3132              		.cfi_startproc
 3133              		@ args = 4, pretend = 0, frame = 0
 3134              		@ frame_needed = 0, uses_anonymous_args = 0
 3135              	.LVL216:
ARM GAS  /var/folders/qd/4mxf5pkd0zdf0b9dd1hp39180000gn/T//ccPWOL7i.s 			page 56


 3136 0000 38B5     		push	{r3, r4, r5, lr}
 3137              		.save {r3, r4, r5, lr}
 3138              		.cfi_def_cfa_offset 16
 3139              		.cfi_offset 3, -16
 3140              		.cfi_offset 4, -12
 3141              		.cfi_offset 5, -8
 3142              		.cfi_offset 14, -4
 3143              		.loc 1 670 0
 3144 0002 1D46     		mov	r5, r3
 3145 0004 0446     		mov	r4, r0
 3146              	.LBB209:
 3147              		.loc 1 672 0
 3148 0006 FFF7FEFF 		bl	chPoolObjectInit
 3149              	.LVL217:
 3150              		.loc 1 673 0
 3151 000a 2046     		mov	r0, r4
 3152 000c 049A     		ldr	r2, [sp, #16]
 3153 000e 2946     		mov	r1, r5
 3154 0010 FFF7FEFF 		bl	chPoolLoadArray
 3155              	.LVL218:
 3156              	.LBE209:
 3157              		.loc 1 674 0
 3158 0014 2046     		mov	r0, r4
 3159 0016 38BD     		pop	{r3, r4, r5, pc}
 3160              		.cfi_endproc
 3161              	.LFE396:
 3162              		.fnend
 3163              		.size	_ZN10chibios_rt10MemoryPoolC2EjPFPvjES1_j, .-_ZN10chibios_rt10MemoryPoolC2EjPFPvjES1_j
 3164              		.global	_ZN10chibios_rt10MemoryPoolC1EjPFPvjES1_j
 3165              		.thumb_set _ZN10chibios_rt10MemoryPoolC1EjPFPvjES1_j,_ZN10chibios_rt10MemoryPoolC2EjPFPvjES1_j
 3166              		.section	.text._ZN10chibios_rt10MemoryPool9loadArrayEPvj,"ax",%progbits
 3167              		.align	1
 3168              		.p2align 4,,15
 3169              		.global	_ZN10chibios_rt10MemoryPool9loadArrayEPvj
 3170              		.syntax unified
 3171              		.thumb
 3172              		.thumb_func
 3173              		.fpu softvfp
 3174              		.type	_ZN10chibios_rt10MemoryPool9loadArrayEPvj, %function
 3175              	_ZN10chibios_rt10MemoryPool9loadArrayEPvj:
 3176              		.fnstart
 3177              	.LFB398:
 3178              		.loc 1 677 0
 3179              		.cfi_startproc
 3180              		@ args = 0, pretend = 0, frame = 0
 3181              		@ frame_needed = 0, uses_anonymous_args = 0
 3182              		@ link register save eliminated.
 3183              	.LVL219:
 3184              		.loc 1 679 0
 3185 0000 FFF7FEBF 		b	chPoolLoadArray
 3186              	.LVL220:
 3187              		.cfi_endproc
 3188              	.LFE398:
 3189              		.cantunwind
 3190              		.fnend
 3191              		.size	_ZN10chibios_rt10MemoryPool9loadArrayEPvj, .-_ZN10chibios_rt10MemoryPool9loadArrayEPvj
 3192              		.section	.text._ZN10chibios_rt10MemoryPool6allocIEv,"ax",%progbits
ARM GAS  /var/folders/qd/4mxf5pkd0zdf0b9dd1hp39180000gn/T//ccPWOL7i.s 			page 57


 3193              		.align	1
 3194              		.p2align 4,,15
 3195              		.global	_ZN10chibios_rt10MemoryPool6allocIEv
 3196              		.syntax unified
 3197              		.thumb
 3198              		.thumb_func
 3199              		.fpu softvfp
 3200              		.type	_ZN10chibios_rt10MemoryPool6allocIEv, %function
 3201              	_ZN10chibios_rt10MemoryPool6allocIEv:
 3202              		.fnstart
 3203              	.LFB399:
 3204              		.loc 1 682 0
 3205              		.cfi_startproc
 3206              		@ args = 0, pretend = 0, frame = 0
 3207              		@ frame_needed = 0, uses_anonymous_args = 0
 3208              		@ link register save eliminated.
 3209              	.LVL221:
 3210              		.loc 1 684 0
 3211 0000 FFF7FEBF 		b	chPoolAllocI
 3212              	.LVL222:
 3213              		.cfi_endproc
 3214              	.LFE399:
 3215              		.cantunwind
 3216              		.fnend
 3217              		.size	_ZN10chibios_rt10MemoryPool6allocIEv, .-_ZN10chibios_rt10MemoryPool6allocIEv
 3218              		.section	.text._ZN10chibios_rt10MemoryPool5allocEv,"ax",%progbits
 3219              		.align	1
 3220              		.p2align 4,,15
 3221              		.global	_ZN10chibios_rt10MemoryPool5allocEv
 3222              		.syntax unified
 3223              		.thumb
 3224              		.thumb_func
 3225              		.fpu softvfp
 3226              		.type	_ZN10chibios_rt10MemoryPool5allocEv, %function
 3227              	_ZN10chibios_rt10MemoryPool5allocEv:
 3228              		.fnstart
 3229              	.LFB400:
 3230              		.loc 1 687 0
 3231              		.cfi_startproc
 3232              		@ args = 0, pretend = 0, frame = 0
 3233              		@ frame_needed = 0, uses_anonymous_args = 0
 3234              		@ link register save eliminated.
 3235              	.LVL223:
 3236              		.loc 1 689 0
 3237 0000 FFF7FEBF 		b	chPoolAlloc
 3238              	.LVL224:
 3239              		.cfi_endproc
 3240              	.LFE400:
 3241              		.cantunwind
 3242              		.fnend
 3243              		.size	_ZN10chibios_rt10MemoryPool5allocEv, .-_ZN10chibios_rt10MemoryPool5allocEv
 3244              		.section	.text._ZN10chibios_rt10MemoryPool4freeEPv,"ax",%progbits
 3245              		.align	1
 3246              		.p2align 4,,15
 3247              		.global	_ZN10chibios_rt10MemoryPool4freeEPv
 3248              		.syntax unified
 3249              		.thumb
ARM GAS  /var/folders/qd/4mxf5pkd0zdf0b9dd1hp39180000gn/T//ccPWOL7i.s 			page 58


 3250              		.thumb_func
 3251              		.fpu softvfp
 3252              		.type	_ZN10chibios_rt10MemoryPool4freeEPv, %function
 3253              	_ZN10chibios_rt10MemoryPool4freeEPv:
 3254              		.fnstart
 3255              	.LFB401:
 3256              		.loc 1 692 0
 3257              		.cfi_startproc
 3258              		@ args = 0, pretend = 0, frame = 0
 3259              		@ frame_needed = 0, uses_anonymous_args = 0
 3260              		@ link register save eliminated.
 3261              	.LVL225:
 3262              		.loc 1 694 0
 3263 0000 FFF7FEBF 		b	chPoolFree
 3264              	.LVL226:
 3265              		.cfi_endproc
 3266              	.LFE401:
 3267              		.cantunwind
 3268              		.fnend
 3269              		.size	_ZN10chibios_rt10MemoryPool4freeEPv, .-_ZN10chibios_rt10MemoryPool4freeEPv
 3270              		.section	.text._ZN10chibios_rt10MemoryPool5freeIEPv,"ax",%progbits
 3271              		.align	1
 3272              		.p2align 4,,15
 3273              		.global	_ZN10chibios_rt10MemoryPool5freeIEPv
 3274              		.syntax unified
 3275              		.thumb
 3276              		.thumb_func
 3277              		.fpu softvfp
 3278              		.type	_ZN10chibios_rt10MemoryPool5freeIEPv, %function
 3279              	_ZN10chibios_rt10MemoryPool5freeIEPv:
 3280              		.fnstart
 3281              	.LFB402:
 3282              		.loc 1 697 0
 3283              		.cfi_startproc
 3284              		@ args = 0, pretend = 0, frame = 0
 3285              		@ frame_needed = 0, uses_anonymous_args = 0
 3286              		@ link register save eliminated.
 3287              	.LVL227:
 3288              		.loc 1 699 0
 3289 0000 FFF7FEBF 		b	chPoolFreeI
 3290              	.LVL228:
 3291              		.cfi_endproc
 3292              	.LFE402:
 3293              		.cantunwind
 3294              		.fnend
 3295              		.size	_ZN10chibios_rt10MemoryPool5freeIEPv, .-_ZN10chibios_rt10MemoryPool5freeIEPv
 3296              		.global	_ZTVN10chibios_rt15ThreadReferenceE
 3297              		.global	_ZTVN10chibios_rt10BaseThreadE
 3298              		.section	.rodata._ZN10chibios_rt15ThreadReference4stopEv.str1.4,"aMS",%progbits,1
 3299              		.align	2
 3300              	.LC0:
 3301 0000 696E766F 		.ascii	"invoked unimplemented method stop()\000"
 3301      6B656420 
 3301      756E696D 
 3301      706C656D 
 3301      656E7465 
 3302              		.section	.rodata._ZTVN10chibios_rt10BaseThreadE,"a",%progbits
ARM GAS  /var/folders/qd/4mxf5pkd0zdf0b9dd1hp39180000gn/T//ccPWOL7i.s 			page 59


 3303              		.align	2
 3304              		.set	.LANCHOR1,. + 0
 3305              		.type	_ZTVN10chibios_rt10BaseThreadE, %object
 3306              		.size	_ZTVN10chibios_rt10BaseThreadE, 20
 3307              	_ZTVN10chibios_rt10BaseThreadE:
 3308 0000 00000000 		.word	0
 3309 0004 00000000 		.word	0
 3310 0008 00000000 		.word	_ZN10chibios_rt15ThreadReference4stopEv
 3311 000c 00000000 		.word	_ZN10chibios_rt10BaseThread4mainEv
 3312 0010 00000000 		.word	_ZN10chibios_rt10BaseThread5startEm
 3313              		.section	.rodata._ZTVN10chibios_rt15ThreadReferenceE,"a",%progbits
 3314              		.align	2
 3315              		.set	.LANCHOR0,. + 0
 3316              		.type	_ZTVN10chibios_rt15ThreadReferenceE, %object
 3317              		.size	_ZTVN10chibios_rt15ThreadReferenceE, 12
 3318              	_ZTVN10chibios_rt15ThreadReferenceE:
 3319 0000 00000000 		.word	0
 3320 0004 00000000 		.word	0
 3321 0008 00000000 		.word	_ZN10chibios_rt15ThreadReference4stopEv
 3322              		.text
 3323              	.Letext0:
 3324              		.file 10 "/Applications/Eclipse_e-puck2.app/Contents/Eclipse_e-puck2/Tools/gcc-arm-none-eabi-7-201
 3325              		.file 11 "/Applications/Eclipse_e-puck2.app/Contents/Eclipse_e-puck2/Tools/gcc-arm-none-eabi-7-201
 3326              		.file 12 "/Applications/Eclipse_e-puck2.app/Contents/Eclipse_e-puck2/Tools/gcc-arm-none-eabi-7-201
 3327              		.file 13 "../../../os/rt/ports/ARMCMx/compilers/GCC/chtypes.h"
 3328              		.file 14 "../../../os/rt/include/chsystypes.h"
 3329              		.file 15 "../../../os/rt/include/chschd.h"
 3330              		.file 16 "../../../os/ext/CMSIS/include/core_cm4.h"
 3331              		.file 17 "../../../os/ext/CMSIS/ST/system_stm32f4xx.h"
 3332              		.file 18 "../../../os/rt/ports/ARMCMx/chcore.h"
 3333              		.file 19 "../../../os/rt/ports/ARMCMx/chcore_v7m.h"
 3334              		.file 20 "../../../os/rt/include/chtm.h"
 3335              		.file 21 "../../../os/rt/include/chsem.h"
 3336              		.file 22 "../../../os/rt/include/chmtx.h"
 3337              		.file 23 "../../../os/rt/include/chcond.h"
 3338              		.file 24 "../../../os/rt/include/chmemcore.h"
 3339              		.file 25 "../../../os/rt/include/chmempools.h"
 3340              		.file 26 "../../../os/rt/include/chsys.h"