ARM GAS  /var/folders/qd/4mxf5pkd0zdf0b9dd1hp39180000gn/T//ccgtQywa.s 			page 1


   1              		.cpu cortex-m4
   2              		.eabi_attribute 20, 1
   3              		.eabi_attribute 21, 1
   4              		.eabi_attribute 23, 3
   5              		.eabi_attribute 24, 1
   6              		.eabi_attribute 25, 1
   7              		.eabi_attribute 26, 1
   8              		.eabi_attribute 30, 2
   9              		.eabi_attribute 34, 1
  10              		.eabi_attribute 18, 4
  11              		.file	"chdynamic.c"
  12              		.text
  13              	.Ltext0:
  14              		.cfi_sections	.debug_frame
  15              		.section	.text.chThdAddRef,"ax",%progbits
  16              		.align	1
  17              		.p2align 4,,15
  18              		.global	chThdAddRef
  19              		.syntax unified
  20              		.thumb
  21              		.thumb_func
  22              		.fpu softvfp
  23              		.type	chThdAddRef, %function
  24              	chThdAddRef:
  25              	.LFB229:
  26              		.file 1 "../../../os/rt/src/chdynamic.c"
  27              		.loc 1 68 0
  28              		.cfi_startproc
  29              		@ args = 0, pretend = 0, frame = 0
  30              		@ frame_needed = 0, uses_anonymous_args = 0
  31              		@ link register save eliminated.
  32              	.LVL0:
  33              	.LBB54:
  34              	.LBB55:
  35              	.LBB56:
  36              	.LBB57:
  37              		.file 2 "../../../os/ext/CMSIS/include/core_cmFunc.h"
  38              		.loc 2 546 0
  39 0000 2023     		movs	r3, #32
  40              		.syntax unified
  41              	@ 546 "../../../os/ext/CMSIS/include/core_cmFunc.h" 1
  42 0002 83F31188 		MSR basepri, r3
  43              	@ 0 "" 2
  44              	.LVL1:
  45              		.thumb
  46              		.syntax unified
  47              	.LBE57:
  48              	.LBE56:
  49              	.LBE55:
  50              	.LBE54:
  51              		.loc 1 72 0
  52 0006 837F     		ldrb	r3, [r0, #30]	@ zero_extendqisi2
  53 0008 0133     		adds	r3, r3, #1
  54 000a 8377     		strb	r3, [r0, #30]
  55              	.LVL2:
  56              	.LBB58:
  57              	.LBB59:
ARM GAS  /var/folders/qd/4mxf5pkd0zdf0b9dd1hp39180000gn/T//ccgtQywa.s 			page 2


  58              	.LBB60:
  59              	.LBB61:
  60              	.LBB62:
  61              		.loc 2 546 0
  62 000c 0023     		movs	r3, #0
  63              		.syntax unified
  64              	@ 546 "../../../os/ext/CMSIS/include/core_cmFunc.h" 1
  65 000e 83F31188 		MSR basepri, r3
  66              	@ 0 "" 2
  67              	.LVL3:
  68              		.thumb
  69              		.syntax unified
  70              	.LBE62:
  71              	.LBE61:
  72              	.LBE60:
  73              	.LBE59:
  74              	.LBE58:
  75              		.loc 1 76 0
  76 0012 7047     		bx	lr
  77              		.cfi_endproc
  78              	.LFE229:
  79              		.size	chThdAddRef, .-chThdAddRef
  80              		.section	.text.chThdRelease,"ax",%progbits
  81              		.align	1
  82              		.p2align 4,,15
  83              		.global	chThdRelease
  84              		.syntax unified
  85              		.thumb
  86              		.thumb_func
  87              		.fpu softvfp
  88              		.type	chThdRelease, %function
  89              	chThdRelease:
  90              	.LFB230:
  91              		.loc 1 91 0
  92              		.cfi_startproc
  93              		@ args = 0, pretend = 0, frame = 0
  94              		@ frame_needed = 0, uses_anonymous_args = 0
  95              		@ link register save eliminated.
  96              	.LVL4:
  97              		.loc 1 91 0
  98 0000 0146     		mov	r1, r0
  99              	.LBB63:
 100              	.LBB64:
 101              	.LBB65:
 102              	.LBB66:
 103              		.loc 2 546 0
 104 0002 2023     		movs	r3, #32
 105              		.syntax unified
 106              	@ 546 "../../../os/ext/CMSIS/include/core_cmFunc.h" 1
 107 0004 83F31188 		MSR basepri, r3
 108              	@ 0 "" 2
 109              	.LVL5:
 110              		.thumb
 111              		.syntax unified
 112              	.LBE66:
 113              	.LBE65:
 114              	.LBE64:
ARM GAS  /var/folders/qd/4mxf5pkd0zdf0b9dd1hp39180000gn/T//ccgtQywa.s 			page 3


 115              	.LBE63:
 116              		.loc 1 96 0
 117 0008 837F     		ldrb	r3, [r0, #30]	@ zero_extendqisi2
 118 000a 013B     		subs	r3, r3, #1
 119 000c DBB2     		uxtb	r3, r3
 120 000e 8377     		strb	r3, [r0, #30]
 121              	.LVL6:
 122              	.LBB67:
 123              	.LBB68:
 124              	.LBB69:
 125              	.LBB70:
 126              	.LBB71:
 127              		.loc 2 546 0
 128 0010 0022     		movs	r2, #0
 129              		.syntax unified
 130              	@ 546 "../../../os/ext/CMSIS/include/core_cmFunc.h" 1
 131 0012 82F31188 		MSR basepri, r2
 132              	@ 0 "" 2
 133              	.LVL7:
 134              		.thumb
 135              		.syntax unified
 136              	.LBE71:
 137              	.LBE70:
 138              	.LBE69:
 139              	.LBE68:
 140              	.LBE67:
 141              		.loc 1 103 0
 142 0016 13B9     		cbnz	r3, .L3
 143              		.loc 1 103 0 is_stmt 0 discriminator 1
 144 0018 037F     		ldrb	r3, [r0, #28]	@ zero_extendqisi2
 145              	.LVL8:
 146 001a 0F2B     		cmp	r3, #15
 147 001c 00D0     		beq	.L7
 148              	.L3:
 149              		.loc 1 127 0 is_stmt 1
 150 001e 7047     		bx	lr
 151              	.L7:
 152              		.loc 1 104 0
 153 0020 437F     		ldrb	r3, [r0, #29]	@ zero_extendqisi2
 154 0022 03F00303 		and	r3, r3, #3
 155 0026 012B     		cmp	r3, #1
 156 0028 02D0     		beq	.L5
 157 002a 022B     		cmp	r3, #2
 158 002c 07D0     		beq	.L6
 159 002e 7047     		bx	lr
 160              	.L5:
 161              		.loc 1 108 0
 162 0030 D0E90423 		ldrd	r2, r3, [r0, #16]
 163 0034 1A61     		str	r2, [r3, #16]
 164              	.LVL9:
 165 0036 0269     		ldr	r2, [r0, #16]
 166 0038 5361     		str	r3, [r2, #20]
 167              		.loc 1 110 0
 168 003a FFF7FEBF 		b	chHeapFree
 169              	.LVL10:
 170              	.L6:
 171              		.loc 1 116 0
ARM GAS  /var/folders/qd/4mxf5pkd0zdf0b9dd1hp39180000gn/T//ccgtQywa.s 			page 4


 172 003e D0E90423 		ldrd	r2, r3, [r0, #16]
 173 0042 1A61     		str	r2, [r3, #16]
 174              	.LVL11:
 175 0044 0269     		ldr	r2, [r0, #16]
 176              		.loc 1 118 0
 177 0046 006C     		ldr	r0, [r0, #64]
 178              	.LVL12:
 179              		.loc 1 116 0
 180 0048 5361     		str	r3, [r2, #20]
 181              		.loc 1 118 0
 182 004a FFF7FEBF 		b	chPoolFree
 183              	.LVL13:
 184              		.cfi_endproc
 185              	.LFE230:
 186              		.size	chThdRelease, .-chThdRelease
 187 004e 00BF     		.section	.text.chThdCreateFromHeap,"ax",%progbits
 188              		.align	1
 189              		.p2align 4,,15
 190              		.global	chThdCreateFromHeap
 191              		.syntax unified
 192              		.thumb
 193              		.thumb_func
 194              		.fpu softvfp
 195              		.type	chThdCreateFromHeap, %function
 196              	chThdCreateFromHeap:
 197              	.LFB231:
 198              		.loc 1 153 0
 199              		.cfi_startproc
 200              		@ args = 4, pretend = 0, frame = 0
 201              		@ frame_needed = 0, uses_anonymous_args = 0
 202              	.LVL14:
 203 0000 F0B5     		push	{r4, r5, r6, r7, lr}
 204              		.cfi_def_cfa_offset 20
 205              		.cfi_offset 4, -20
 206              		.cfi_offset 5, -16
 207              		.cfi_offset 6, -12
 208              		.cfi_offset 7, -8
 209              		.cfi_offset 14, -4
 210 0002 83B0     		sub	sp, sp, #12
 211              		.cfi_def_cfa_offset 32
 212              		.loc 1 153 0
 213 0004 1646     		mov	r6, r2
 214 0006 1F46     		mov	r7, r3
 215 0008 0D46     		mov	r5, r1
 216              		.loc 1 157 0
 217 000a FFF7FEFF 		bl	chHeapAlloc
 218              	.LVL15:
 219              		.loc 1 158 0
 220 000e A8B1     		cbz	r0, .L11
 221              	.LVL16:
 222              	.LBB72:
 223              	.LBB73:
 224              	.LBB74:
 225              	.LBB75:
 226              		.loc 2 546 0
 227 0010 2023     		movs	r3, #32
 228              		.syntax unified
ARM GAS  /var/folders/qd/4mxf5pkd0zdf0b9dd1hp39180000gn/T//ccgtQywa.s 			page 5


 229              	@ 546 "../../../os/ext/CMSIS/include/core_cmFunc.h" 1
 230 0012 83F31188 		MSR basepri, r3
 231              	@ 0 "" 2
 232              	.LVL17:
 233              		.thumb
 234              		.syntax unified
 235              	.LBE75:
 236              	.LBE74:
 237              	.LBE73:
 238              	.LBE72:
 239              		.loc 1 172 0
 240 0016 089B     		ldr	r3, [sp, #32]
 241 0018 0093     		str	r3, [sp]
 242 001a 3246     		mov	r2, r6
 243 001c 3B46     		mov	r3, r7
 244 001e 2946     		mov	r1, r5
 245 0020 FFF7FEFF 		bl	chThdCreateI
 246              	.LVL18:
 247              		.loc 1 173 0
 248 0024 0123     		movs	r3, #1
 249 0026 4377     		strb	r3, [r0, #29]
 250              		.loc 1 174 0
 251 0028 0021     		movs	r1, #0
 252              		.loc 1 172 0
 253 002a 0446     		mov	r4, r0
 254              	.LVL19:
 255              		.loc 1 174 0
 256 002c FFF7FEFF 		bl	chSchWakeupS
 257              	.LVL20:
 258              	.LBB76:
 259              	.LBB77:
 260              	.LBB78:
 261              	.LBB79:
 262              	.LBB80:
 263              		.loc 2 546 0
 264 0030 0023     		movs	r3, #0
 265              		.syntax unified
 266              	@ 546 "../../../os/ext/CMSIS/include/core_cmFunc.h" 1
 267 0032 83F31188 		MSR basepri, r3
 268              	@ 0 "" 2
 269              	.LVL21:
 270              		.thumb
 271              		.syntax unified
 272              	.L8:
 273              	.LBE80:
 274              	.LBE79:
 275              	.LBE78:
 276              	.LBE77:
 277              	.LBE76:
 278              		.loc 1 178 0
 279 0036 2046     		mov	r0, r4
 280 0038 03B0     		add	sp, sp, #12
 281              		.cfi_remember_state
 282              		.cfi_def_cfa_offset 20
 283              		@ sp needed
 284 003a F0BD     		pop	{r4, r5, r6, r7, pc}
 285              	.LVL22:
ARM GAS  /var/folders/qd/4mxf5pkd0zdf0b9dd1hp39180000gn/T//ccgtQywa.s 			page 6


 286              	.L11:
 287              		.cfi_restore_state
 288 003c 0446     		mov	r4, r0
 289 003e FAE7     		b	.L8
 290              		.cfi_endproc
 291              	.LFE231:
 292              		.size	chThdCreateFromHeap, .-chThdCreateFromHeap
 293              		.section	.text.chThdCreateFromMemoryPool,"ax",%progbits
 294              		.align	1
 295              		.p2align 4,,15
 296              		.global	chThdCreateFromMemoryPool
 297              		.syntax unified
 298              		.thumb
 299              		.thumb_func
 300              		.fpu softvfp
 301              		.type	chThdCreateFromMemoryPool, %function
 302              	chThdCreateFromMemoryPool:
 303              	.LFB232:
 304              		.loc 1 205 0
 305              		.cfi_startproc
 306              		@ args = 0, pretend = 0, frame = 0
 307              		@ frame_needed = 0, uses_anonymous_args = 0
 308              	.LVL23:
 309 0000 2DE9F041 		push	{r4, r5, r6, r7, r8, lr}
 310              		.cfi_def_cfa_offset 24
 311              		.cfi_offset 4, -24
 312              		.cfi_offset 5, -20
 313              		.cfi_offset 6, -16
 314              		.cfi_offset 7, -12
 315              		.cfi_offset 8, -8
 316              		.cfi_offset 14, -4
 317 0004 82B0     		sub	sp, sp, #8
 318              		.cfi_def_cfa_offset 32
 319              		.loc 1 205 0
 320 0006 0E46     		mov	r6, r1
 321 0008 1746     		mov	r7, r2
 322 000a 9846     		mov	r8, r3
 323 000c 0546     		mov	r5, r0
 324              		.loc 1 211 0
 325 000e FFF7FEFF 		bl	chPoolAlloc
 326              	.LVL24:
 327              		.loc 1 212 0
 328 0012 B8B1     		cbz	r0, .L16
 329              	.LVL25:
 330              	.LBB81:
 331              	.LBB82:
 332              	.LBB83:
 333              	.LBB84:
 334              		.loc 2 546 0
 335 0014 2023     		movs	r3, #32
 336              		.syntax unified
 337              	@ 546 "../../../os/ext/CMSIS/include/core_cmFunc.h" 1
 338 0016 83F31188 		MSR basepri, r3
 339              	@ 0 "" 2
 340              	.LVL26:
 341              		.thumb
 342              		.syntax unified
ARM GAS  /var/folders/qd/4mxf5pkd0zdf0b9dd1hp39180000gn/T//ccgtQywa.s 			page 7


 343              	.LBE84:
 344              	.LBE83:
 345              	.LBE82:
 346              	.LBE81:
 347              		.loc 1 226 0
 348 001a 6968     		ldr	r1, [r5, #4]
 349 001c CDF80080 		str	r8, [sp]
 350 0020 3B46     		mov	r3, r7
 351 0022 3246     		mov	r2, r6
 352 0024 FFF7FEFF 		bl	chThdCreateI
 353              	.LVL27:
 354              		.loc 1 227 0
 355 0028 0223     		movs	r3, #2
 356 002a 4377     		strb	r3, [r0, #29]
 357              		.loc 1 228 0
 358 002c 0564     		str	r5, [r0, #64]
 359              		.loc 1 229 0
 360 002e 0021     		movs	r1, #0
 361              		.loc 1 226 0
 362 0030 0446     		mov	r4, r0
 363              	.LVL28:
 364              		.loc 1 229 0
 365 0032 FFF7FEFF 		bl	chSchWakeupS
 366              	.LVL29:
 367              	.LBB85:
 368              	.LBB86:
 369              	.LBB87:
 370              	.LBB88:
 371              	.LBB89:
 372              		.loc 2 546 0
 373 0036 0023     		movs	r3, #0
 374              		.syntax unified
 375              	@ 546 "../../../os/ext/CMSIS/include/core_cmFunc.h" 1
 376 0038 83F31188 		MSR basepri, r3
 377              	@ 0 "" 2
 378              	.LVL30:
 379              		.thumb
 380              		.syntax unified
 381              	.L13:
 382              	.LBE89:
 383              	.LBE88:
 384              	.LBE87:
 385              	.LBE86:
 386              	.LBE85:
 387              		.loc 1 233 0
 388 003c 2046     		mov	r0, r4
 389 003e 02B0     		add	sp, sp, #8
 390              		.cfi_remember_state
 391              		.cfi_def_cfa_offset 24
 392              		@ sp needed
 393 0040 BDE8F081 		pop	{r4, r5, r6, r7, r8, pc}
 394              	.LVL31:
 395              	.L16:
 396              		.cfi_restore_state
 397 0044 0446     		mov	r4, r0
 398 0046 F9E7     		b	.L13
 399              		.cfi_endproc
ARM GAS  /var/folders/qd/4mxf5pkd0zdf0b9dd1hp39180000gn/T//ccgtQywa.s 			page 8


 400              	.LFE232:
 401              		.size	chThdCreateFromMemoryPool, .-chThdCreateFromMemoryPool
 402              		.text
 403              	.Letext0:
 404              		.file 3 "/Applications/Eclipse_e-puck2.app/Contents/Eclipse_e-puck2/Tools/gcc-arm-none-eabi-7-2017
 405              		.file 4 "/Applications/Eclipse_e-puck2.app/Contents/Eclipse_e-puck2/Tools/gcc-arm-none-eabi-7-2017
 406              		.file 5 "/Applications/Eclipse_e-puck2.app/Contents/Eclipse_e-puck2/Tools/gcc-arm-none-eabi-7-2017
 407              		.file 6 "../../../os/rt/ports/ARMCMx/compilers/GCC/chtypes.h"
 408              		.file 7 "../../../os/rt/include/chsystypes.h"
 409              		.file 8 "../../../os/rt/include/chschd.h"
 410              		.file 9 "../../../os/ext/CMSIS/include/core_cm4.h"
 411              		.file 10 "../../../os/ext/CMSIS/ST/system_stm32f4xx.h"
 412              		.file 11 "../../../os/rt/ports/ARMCMx/chcore.h"
 413              		.file 12 "../../../os/rt/ports/ARMCMx/chcore_v7m.h"
 414              		.file 13 "../../../os/rt/include/chtm.h"
 415              		.file 14 "../../../os/rt/include/chsem.h"
 416              		.file 15 "../../../os/rt/include/chmtx.h"
 417              		.file 16 "../../../os/rt/include/chthreads.h"
 418              		.file 17 "../../../os/rt/include/chregistry.h"
 419              		.file 18 "../../../os/rt/include/chmemcore.h"
 420              		.file 19 "../../../os/rt/include/chheap.h"
 421              		.file 20 "../../../os/rt/include/chmempools.h"
 422              		.file 21 "../../../os/rt/include/chsys.h"
 423              		.section	.debug_info,"",%progbits
 424              	.Ldebug_info0:
 425 0000 BE0D0000 		.4byte	0xdbe
 426 0004 0400     		.2byte	0x4
 427 0006 00000000 		.4byte	.Ldebug_abbrev0
 428 000a 04       		.byte	0x4
 429 000b 01       		.uleb128 0x1
 430 000c 72030000 		.4byte	.LASF161
 431 0010 0C       		.byte	0xc
 432 0011 C0060000 		.4byte	.LASF162
 433 0015 C8040000 		.4byte	.LASF163
 434 0019 00000000 		.4byte	.Ldebug_ranges0+0
 435 001d 00000000 		.4byte	0
 436 0021 00000000 		.4byte	.Ldebug_line0
 437 0025 02       		.uleb128 0x2
 438 0026 04       		.byte	0x4
 439 0027 05       		.byte	0x5
 440 0028 696E7400 		.ascii	"int\000"
 441 002c 03       		.uleb128 0x3
 442 002d 15000000 		.4byte	.LASF4
 443 0031 03       		.byte	0x3
 444 0032 D8       		.byte	0xd8
 445 0033 37000000 		.4byte	0x37
 446 0037 04       		.uleb128 0x4
 447 0038 04       		.byte	0x4
 448 0039 07       		.byte	0x7
 449 003a 41020000 		.4byte	.LASF0
 450 003e 04       		.uleb128 0x4
 451 003f 08       		.byte	0x8
 452 0040 05       		.byte	0x5
 453 0041 F0000000 		.4byte	.LASF1
 454 0045 04       		.uleb128 0x4
 455 0046 08       		.byte	0x8
 456 0047 04       		.byte	0x4
ARM GAS  /var/folders/qd/4mxf5pkd0zdf0b9dd1hp39180000gn/T//ccgtQywa.s 			page 9


 457 0048 63040000 		.4byte	.LASF2
 458 004c 04       		.uleb128 0x4
 459 004d 01       		.byte	0x1
 460 004e 06       		.byte	0x6
 461 004f FE000000 		.4byte	.LASF3
 462 0053 03       		.uleb128 0x3
 463 0054 2C000000 		.4byte	.LASF5
 464 0058 04       		.byte	0x4
 465 0059 2B       		.byte	0x2b
 466 005a 5E000000 		.4byte	0x5e
 467 005e 04       		.uleb128 0x4
 468 005f 01       		.byte	0x1
 469 0060 08       		.byte	0x8
 470 0061 BF050000 		.4byte	.LASF6
 471 0065 04       		.uleb128 0x4
 472 0066 02       		.byte	0x2
 473 0067 05       		.byte	0x5
 474 0068 E3050000 		.4byte	.LASF7
 475 006c 03       		.uleb128 0x3
 476 006d 14070000 		.4byte	.LASF8
 477 0071 04       		.byte	0x4
 478 0072 39       		.byte	0x39
 479 0073 77000000 		.4byte	0x77
 480 0077 04       		.uleb128 0x4
 481 0078 02       		.byte	0x2
 482 0079 07       		.byte	0x7
 483 007a AB020000 		.4byte	.LASF9
 484 007e 03       		.uleb128 0x3
 485 007f 18030000 		.4byte	.LASF10
 486 0083 04       		.byte	0x4
 487 0084 4D       		.byte	0x4d
 488 0085 89000000 		.4byte	0x89
 489 0089 04       		.uleb128 0x4
 490 008a 04       		.byte	0x4
 491 008b 05       		.byte	0x5
 492 008c 78010000 		.4byte	.LASF11
 493 0090 03       		.uleb128 0x3
 494 0091 4D070000 		.4byte	.LASF12
 495 0095 04       		.byte	0x4
 496 0096 4F       		.byte	0x4f
 497 0097 9B000000 		.4byte	0x9b
 498 009b 04       		.uleb128 0x4
 499 009c 04       		.byte	0x4
 500 009d 07       		.byte	0x7
 501 009e EC060000 		.4byte	.LASF13
 502 00a2 03       		.uleb128 0x3
 503 00a3 5D050000 		.4byte	.LASF14
 504 00a7 04       		.byte	0x4
 505 00a8 69       		.byte	0x69
 506 00a9 AD000000 		.4byte	0xad
 507 00ad 04       		.uleb128 0x4
 508 00ae 08       		.byte	0x8
 509 00af 07       		.byte	0x7
 510 00b0 68000000 		.4byte	.LASF15
 511 00b4 03       		.uleb128 0x3
 512 00b5 C4070000 		.4byte	.LASF16
 513 00b9 05       		.byte	0x5
ARM GAS  /var/folders/qd/4mxf5pkd0zdf0b9dd1hp39180000gn/T//ccgtQywa.s 			page 10


 514 00ba 18       		.byte	0x18
 515 00bb 53000000 		.4byte	0x53
 516 00bf 03       		.uleb128 0x3
 517 00c0 56020000 		.4byte	.LASF17
 518 00c4 05       		.byte	0x5
 519 00c5 24       		.byte	0x24
 520 00c6 6C000000 		.4byte	0x6c
 521 00ca 03       		.uleb128 0x3
 522 00cb B7050000 		.4byte	.LASF18
 523 00cf 05       		.byte	0x5
 524 00d0 2C       		.byte	0x2c
 525 00d1 7E000000 		.4byte	0x7e
 526 00d5 05       		.uleb128 0x5
 527 00d6 CA000000 		.4byte	0xca
 528 00da 03       		.uleb128 0x3
 529 00db 8A060000 		.4byte	.LASF19
 530 00df 05       		.byte	0x5
 531 00e0 30       		.byte	0x30
 532 00e1 90000000 		.4byte	0x90
 533 00e5 03       		.uleb128 0x3
 534 00e6 23000000 		.4byte	.LASF20
 535 00ea 05       		.byte	0x5
 536 00eb 3C       		.byte	0x3c
 537 00ec A2000000 		.4byte	0xa2
 538 00f0 03       		.uleb128 0x3
 539 00f1 57030000 		.4byte	.LASF21
 540 00f5 06       		.byte	0x6
 541 00f6 45       		.byte	0x45
 542 00f7 DA000000 		.4byte	0xda
 543 00fb 03       		.uleb128 0x3
 544 00fc 0A060000 		.4byte	.LASF22
 545 0100 06       		.byte	0x6
 546 0101 48       		.byte	0x48
 547 0102 B4000000 		.4byte	0xb4
 548 0106 03       		.uleb128 0x3
 549 0107 95010000 		.4byte	.LASF23
 550 010b 06       		.byte	0x6
 551 010c 49       		.byte	0x49
 552 010d B4000000 		.4byte	0xb4
 553 0111 03       		.uleb128 0x3
 554 0112 70050000 		.4byte	.LASF24
 555 0116 06       		.byte	0x6
 556 0117 4A       		.byte	0x4a
 557 0118 B4000000 		.4byte	0xb4
 558 011c 03       		.uleb128 0x3
 559 011d 9F050000 		.4byte	.LASF25
 560 0121 06       		.byte	0x6
 561 0122 4C       		.byte	0x4c
 562 0123 DA000000 		.4byte	0xda
 563 0127 03       		.uleb128 0x3
 564 0128 E0020000 		.4byte	.LASF26
 565 012c 06       		.byte	0x6
 566 012d 4D       		.byte	0x4d
 567 012e CA000000 		.4byte	0xca
 568 0132 03       		.uleb128 0x3
 569 0133 0C030000 		.4byte	.LASF27
 570 0137 06       		.byte	0x6
ARM GAS  /var/folders/qd/4mxf5pkd0zdf0b9dd1hp39180000gn/T//ccgtQywa.s 			page 11


 571 0138 4F       		.byte	0x4f
 572 0139 DA000000 		.4byte	0xda
 573 013d 03       		.uleb128 0x3
 574 013e 3B020000 		.4byte	.LASF28
 575 0142 06       		.byte	0x6
 576 0143 51       		.byte	0x51
 577 0144 CA000000 		.4byte	0xca
 578 0148 03       		.uleb128 0x3
 579 0149 2F070000 		.4byte	.LASF29
 580 014d 07       		.byte	0x7
 581 014e 33       		.byte	0x33
 582 014f DA000000 		.4byte	0xda
 583 0153 03       		.uleb128 0x3
 584 0154 1F070000 		.4byte	.LASF30
 585 0158 07       		.byte	0x7
 586 0159 3F       		.byte	0x3f
 587 015a 5E010000 		.4byte	0x15e
 588 015e 06       		.uleb128 0x6
 589 015f BE020000 		.4byte	.LASF50
 590 0163 44       		.byte	0x44
 591 0164 08       		.byte	0x8
 592 0165 C2       		.byte	0xc2
 593 0166 4B020000 		.4byte	0x24b
 594 016a 07       		.uleb128 0x7
 595 016b 03060000 		.4byte	.LASF31
 596 016f 08       		.byte	0x8
 597 0170 C3       		.byte	0xc3
 598 0171 56020000 		.4byte	0x256
 599 0175 00       		.byte	0
 600 0176 07       		.uleb128 0x7
 601 0177 98050000 		.4byte	.LASF32
 602 017b 08       		.byte	0x8
 603 017c C5       		.byte	0xc5
 604 017d 56020000 		.4byte	0x256
 605 0181 04       		.byte	0x4
 606 0182 07       		.uleb128 0x7
 607 0183 DC000000 		.4byte	.LASF33
 608 0187 08       		.byte	0x8
 609 0188 C7       		.byte	0xc7
 610 0189 1C010000 		.4byte	0x11c
 611 018d 08       		.byte	0x8
 612 018e 07       		.uleb128 0x7
 613 018f 95040000 		.4byte	.LASF34
 614 0193 08       		.byte	0x8
 615 0194 C8       		.byte	0xc8
 616 0195 96040000 		.4byte	0x496
 617 0199 0C       		.byte	0xc
 618 019a 07       		.uleb128 0x7
 619 019b C9010000 		.4byte	.LASF35
 620 019f 08       		.byte	0x8
 621 01a0 CA       		.byte	0xca
 622 01a1 56020000 		.4byte	0x256
 623 01a5 10       		.byte	0x10
 624 01a6 07       		.uleb128 0x7
 625 01a7 87040000 		.4byte	.LASF36
 626 01ab 08       		.byte	0x8
 627 01ac CB       		.byte	0xcb
ARM GAS  /var/folders/qd/4mxf5pkd0zdf0b9dd1hp39180000gn/T//ccgtQywa.s 			page 12


 628 01ad 56020000 		.4byte	0x256
 629 01b1 14       		.byte	0x14
 630 01b2 07       		.uleb128 0x7
 631 01b3 01080000 		.4byte	.LASF37
 632 01b7 08       		.byte	0x8
 633 01b8 D2       		.byte	0xd2
 634 01b9 15060000 		.4byte	0x615
 635 01bd 18       		.byte	0x18
 636 01be 07       		.uleb128 0x7
 637 01bf ED050000 		.4byte	.LASF38
 638 01c3 08       		.byte	0x8
 639 01c4 DD       		.byte	0xdd
 640 01c5 06010000 		.4byte	0x106
 641 01c9 1C       		.byte	0x1c
 642 01ca 07       		.uleb128 0x7
 643 01cb 21060000 		.4byte	.LASF39
 644 01cf 08       		.byte	0x8
 645 01d0 E1       		.byte	0xe1
 646 01d1 FB000000 		.4byte	0xfb
 647 01d5 1D       		.byte	0x1d
 648 01d6 07       		.uleb128 0x7
 649 01d7 B7070000 		.4byte	.LASF40
 650 01db 08       		.byte	0x8
 651 01dc E6       		.byte	0xe6
 652 01dd 11010000 		.4byte	0x111
 653 01e1 1E       		.byte	0x1e
 654 01e2 08       		.uleb128 0x8
 655 01e3 705F7500 		.ascii	"p_u\000"
 656 01e7 08       		.byte	0x8
 657 01e8 3101     		.2byte	0x131
 658 01ea 50050000 		.4byte	0x550
 659 01ee 20       		.byte	0x20
 660 01ef 09       		.uleb128 0x9
 661 01f0 4D030000 		.4byte	.LASF41
 662 01f4 08       		.byte	0x8
 663 01f5 3601     		.2byte	0x136
 664 01f7 5C020000 		.4byte	0x25c
 665 01fb 24       		.byte	0x24
 666 01fc 09       		.uleb128 0x9
 667 01fd 83020000 		.4byte	.LASF42
 668 0201 08       		.byte	0x8
 669 0202 3C01     		.2byte	0x13c
 670 0204 80020000 		.4byte	0x280
 671 0208 28       		.byte	0x28
 672 0209 09       		.uleb128 0x9
 673 020a 28080000 		.4byte	.LASF43
 674 020e 08       		.byte	0x8
 675 020f 4001     		.2byte	0x140
 676 0211 27010000 		.4byte	0x127
 677 0215 30       		.byte	0x30
 678 0216 09       		.uleb128 0x9
 679 0217 7F060000 		.4byte	.LASF44
 680 021b 08       		.byte	0x8
 681 021c 4601     		.2byte	0x146
 682 021e 32010000 		.4byte	0x132
 683 0222 34       		.byte	0x34
 684 0223 09       		.uleb128 0x9
ARM GAS  /var/folders/qd/4mxf5pkd0zdf0b9dd1hp39180000gn/T//ccgtQywa.s 			page 13


 685 0224 D9050000 		.4byte	.LASF45
 686 0228 08       		.byte	0x8
 687 0229 4D01     		.2byte	0x14d
 688 022b 0F060000 		.4byte	0x60f
 689 022f 38       		.byte	0x38
 690 0230 09       		.uleb128 0x9
 691 0231 39070000 		.4byte	.LASF46
 692 0235 08       		.byte	0x8
 693 0236 5101     		.2byte	0x151
 694 0238 1C010000 		.4byte	0x11c
 695 023c 3C       		.byte	0x3c
 696 023d 09       		.uleb128 0x9
 697 023e 2D010000 		.4byte	.LASF47
 698 0242 08       		.byte	0x8
 699 0243 5801     		.2byte	0x158
 700 0245 33030000 		.4byte	0x333
 701 0249 40       		.byte	0x40
 702 024a 00       		.byte	0
 703 024b 03       		.uleb128 0x3
 704 024c 5F030000 		.4byte	.LASF48
 705 0250 07       		.byte	0x7
 706 0251 44       		.byte	0x44
 707 0252 56020000 		.4byte	0x256
 708 0256 0A       		.uleb128 0xa
 709 0257 04       		.byte	0x4
 710 0258 53010000 		.4byte	0x153
 711 025c 03       		.uleb128 0x3
 712 025d 0D080000 		.4byte	.LASF49
 713 0261 07       		.byte	0x7
 714 0262 49       		.byte	0x49
 715 0263 67020000 		.4byte	0x267
 716 0267 06       		.uleb128 0x6
 717 0268 B0060000 		.4byte	.LASF51
 718 026c 04       		.byte	0x4
 719 026d 08       		.byte	0x8
 720 026e B0       		.byte	0xb0
 721 026f 80020000 		.4byte	0x280
 722 0273 07       		.uleb128 0x7
 723 0274 03060000 		.4byte	.LASF31
 724 0278 08       		.byte	0x8
 725 0279 B1       		.byte	0xb1
 726 027a 56020000 		.4byte	0x256
 727 027e 00       		.byte	0
 728 027f 00       		.byte	0
 729 0280 03       		.uleb128 0x3
 730 0281 49060000 		.4byte	.LASF52
 731 0285 07       		.byte	0x7
 732 0286 50       		.byte	0x50
 733 0287 8B020000 		.4byte	0x28b
 734 028b 06       		.uleb128 0x6
 735 028c CB000000 		.4byte	.LASF53
 736 0290 08       		.byte	0x8
 737 0291 08       		.byte	0x8
 738 0292 B7       		.byte	0xb7
 739 0293 B0020000 		.4byte	0x2b0
 740 0297 07       		.uleb128 0x7
 741 0298 03060000 		.4byte	.LASF31
ARM GAS  /var/folders/qd/4mxf5pkd0zdf0b9dd1hp39180000gn/T//ccgtQywa.s 			page 14


 742 029c 08       		.byte	0x8
 743 029d B8       		.byte	0xb8
 744 029e 56020000 		.4byte	0x256
 745 02a2 00       		.byte	0
 746 02a3 07       		.uleb128 0x7
 747 02a4 98050000 		.4byte	.LASF32
 748 02a8 08       		.byte	0x8
 749 02a9 B9       		.byte	0xb9
 750 02aa 56020000 		.4byte	0x256
 751 02ae 04       		.byte	0x4
 752 02af 00       		.byte	0
 753 02b0 03       		.uleb128 0x3
 754 02b1 08000000 		.4byte	.LASF54
 755 02b5 07       		.byte	0x7
 756 02b6 57       		.byte	0x57
 757 02b7 BB020000 		.4byte	0x2bb
 758 02bb 0B       		.uleb128 0xb
 759 02bc FE020000 		.4byte	.LASF55
 760 02c0 1C       		.byte	0x1c
 761 02c1 08       		.byte	0x8
 762 02c2 9001     		.2byte	0x190
 763 02c4 17030000 		.4byte	0x317
 764 02c8 09       		.uleb128 0x9
 765 02c9 9F060000 		.4byte	.LASF56
 766 02cd 08       		.byte	0x8
 767 02ce 9101     		.2byte	0x191
 768 02d0 80020000 		.4byte	0x280
 769 02d4 00       		.byte	0
 770 02d5 09       		.uleb128 0x9
 771 02d6 F5050000 		.4byte	.LASF57
 772 02da 08       		.byte	0x8
 773 02db 9201     		.2byte	0x192
 774 02dd 1C010000 		.4byte	0x11c
 775 02e1 08       		.byte	0x8
 776 02e2 09       		.uleb128 0x9
 777 02e3 8F040000 		.4byte	.LASF58
 778 02e7 08       		.byte	0x8
 779 02e8 9401     		.2byte	0x194
 780 02ea 96040000 		.4byte	0x496
 781 02ee 0C       		.byte	0xc
 782 02ef 09       		.uleb128 0x9
 783 02f0 F3010000 		.4byte	.LASF59
 784 02f4 08       		.byte	0x8
 785 02f5 9701     		.2byte	0x197
 786 02f7 56020000 		.4byte	0x256
 787 02fb 10       		.byte	0x10
 788 02fc 09       		.uleb128 0x9
 789 02fd C0040000 		.4byte	.LASF60
 790 0301 08       		.byte	0x8
 791 0302 9801     		.2byte	0x198
 792 0304 56020000 		.4byte	0x256
 793 0308 14       		.byte	0x14
 794 0309 09       		.uleb128 0x9
 795 030a FE060000 		.4byte	.LASF61
 796 030e 08       		.byte	0x8
 797 030f 9B01     		.2byte	0x19b
 798 0311 56020000 		.4byte	0x256
ARM GAS  /var/folders/qd/4mxf5pkd0zdf0b9dd1hp39180000gn/T//ccgtQywa.s 			page 15


 799 0315 18       		.byte	0x18
 800 0316 00       		.byte	0
 801 0317 03       		.uleb128 0x3
 802 0318 44070000 		.4byte	.LASF62
 803 031c 07       		.byte	0x7
 804 031d 5C       		.byte	0x5c
 805 031e 22030000 		.4byte	0x322
 806 0322 0A       		.uleb128 0xa
 807 0323 04       		.byte	0x4
 808 0324 28030000 		.4byte	0x328
 809 0328 0C       		.uleb128 0xc
 810 0329 33030000 		.4byte	0x333
 811 032d 0D       		.uleb128 0xd
 812 032e 33030000 		.4byte	0x333
 813 0332 00       		.byte	0
 814 0333 0E       		.uleb128 0xe
 815 0334 04       		.byte	0x4
 816 0335 03       		.uleb128 0x3
 817 0336 88050000 		.4byte	.LASF63
 818 033a 07       		.byte	0x7
 819 033b 61       		.byte	0x61
 820 033c 40030000 		.4byte	0x340
 821 0340 0B       		.uleb128 0xb
 822 0341 88070000 		.4byte	.LASF64
 823 0345 14       		.byte	0x14
 824 0346 08       		.byte	0x8
 825 0347 6B01     		.2byte	0x16b
 826 0349 8F030000 		.4byte	0x38f
 827 034d 09       		.uleb128 0x9
 828 034e 4E020000 		.4byte	.LASF65
 829 0352 08       		.byte	0x8
 830 0353 6C01     		.2byte	0x16c
 831 0355 2C060000 		.4byte	0x62c
 832 0359 00       		.byte	0
 833 035a 09       		.uleb128 0x9
 834 035b 10020000 		.4byte	.LASF66
 835 035f 08       		.byte	0x8
 836 0360 6D01     		.2byte	0x16d
 837 0362 2C060000 		.4byte	0x62c
 838 0366 04       		.byte	0x4
 839 0367 09       		.uleb128 0x9
 840 0368 A7060000 		.4byte	.LASF67
 841 036c 08       		.byte	0x8
 842 036d 6E01     		.2byte	0x16e
 843 036f 48010000 		.4byte	0x148
 844 0373 08       		.byte	0x8
 845 0374 09       		.uleb128 0x9
 846 0375 44080000 		.4byte	.LASF68
 847 0379 08       		.byte	0x8
 848 037a 6F01     		.2byte	0x16f
 849 037c 17030000 		.4byte	0x317
 850 0380 0C       		.byte	0xc
 851 0381 09       		.uleb128 0x9
 852 0382 99070000 		.4byte	.LASF69
 853 0386 08       		.byte	0x8
 854 0387 7101     		.2byte	0x171
 855 0389 33030000 		.4byte	0x333
ARM GAS  /var/folders/qd/4mxf5pkd0zdf0b9dd1hp39180000gn/T//ccgtQywa.s 			page 16


 856 038d 10       		.byte	0x10
 857 038e 00       		.byte	0
 858 038f 03       		.uleb128 0x3
 859 0390 9D000000 		.4byte	.LASF70
 860 0394 07       		.byte	0x7
 861 0395 66       		.byte	0x66
 862 0396 9A030000 		.4byte	0x39a
 863 039a 0B       		.uleb128 0xb
 864 039b 4C040000 		.4byte	.LASF71
 865 039f 10       		.byte	0x10
 866 03a0 08       		.byte	0x8
 867 03a1 7B01     		.2byte	0x17b
 868 03a3 DC030000 		.4byte	0x3dc
 869 03a7 09       		.uleb128 0x9
 870 03a8 4E020000 		.4byte	.LASF65
 871 03ac 08       		.byte	0x8
 872 03ad 7C01     		.2byte	0x17c
 873 03af 2C060000 		.4byte	0x62c
 874 03b3 00       		.byte	0
 875 03b4 09       		.uleb128 0x9
 876 03b5 10020000 		.4byte	.LASF66
 877 03b9 08       		.byte	0x8
 878 03ba 7E01     		.2byte	0x17e
 879 03bc 2C060000 		.4byte	0x62c
 880 03c0 04       		.byte	0x4
 881 03c1 09       		.uleb128 0x9
 882 03c2 A7060000 		.4byte	.LASF67
 883 03c6 08       		.byte	0x8
 884 03c7 8001     		.2byte	0x180
 885 03c9 48010000 		.4byte	0x148
 886 03cd 08       		.byte	0x8
 887 03ce 09       		.uleb128 0x9
 888 03cf EE070000 		.4byte	.LASF72
 889 03d3 08       		.byte	0x8
 890 03d4 8801     		.2byte	0x188
 891 03d6 48010000 		.4byte	0x148
 892 03da 0C       		.byte	0xc
 893 03db 00       		.byte	0
 894 03dc 03       		.uleb128 0x3
 895 03dd 42000000 		.4byte	.LASF73
 896 03e1 07       		.byte	0x7
 897 03e2 6B       		.byte	0x6b
 898 03e3 E7030000 		.4byte	0x3e7
 899 03e7 0B       		.uleb128 0xb
 900 03e8 A7050000 		.4byte	.LASF74
 901 03ec 04       		.byte	0x4
 902 03ed 08       		.byte	0x8
 903 03ee A201     		.2byte	0x1a2
 904 03f0 02040000 		.4byte	0x402
 905 03f4 09       		.uleb128 0x9
 906 03f5 66070000 		.4byte	.LASF75
 907 03f9 08       		.byte	0x8
 908 03fa AA01     		.2byte	0x1aa
 909 03fc 1B060000 		.4byte	0x61b
 910 0400 00       		.byte	0
 911 0401 00       		.byte	0
 912 0402 03       		.uleb128 0x3
ARM GAS  /var/folders/qd/4mxf5pkd0zdf0b9dd1hp39180000gn/T//ccgtQywa.s 			page 17


 913 0403 E6020000 		.4byte	.LASF76
 914 0407 07       		.byte	0x7
 915 0408 70       		.byte	0x70
 916 0409 0D040000 		.4byte	0x40d
 917 040d 0F       		.uleb128 0xf
 918 040e 6E010000 		.4byte	.LASF77
 919 0412 5001     		.2byte	0x150
 920 0414 08       		.byte	0x8
 921 0415 C201     		.2byte	0x1c2
 922 0417 69040000 		.4byte	0x469
 923 041b 09       		.uleb128 0x9
 924 041c BE070000 		.4byte	.LASF78
 925 0420 08       		.byte	0x8
 926 0421 C601     		.2byte	0x1c6
 927 0423 B0020000 		.4byte	0x2b0
 928 0427 00       		.byte	0
 929 0428 09       		.uleb128 0x9
 930 0429 48010000 		.4byte	.LASF79
 931 042d 08       		.byte	0x8
 932 042e CA01     		.2byte	0x1ca
 933 0430 8F030000 		.4byte	0x38f
 934 0434 1C       		.byte	0x1c
 935 0435 08       		.uleb128 0x8
 936 0436 64626700 		.ascii	"dbg\000"
 937 043a 08       		.byte	0x8
 938 043b CE01     		.2byte	0x1ce
 939 043d DC030000 		.4byte	0x3dc
 940 0441 2C       		.byte	0x2c
 941 0442 09       		.uleb128 0x9
 942 0443 D5020000 		.4byte	.LASF80
 943 0447 08       		.byte	0x8
 944 0448 D201     		.2byte	0x1d2
 945 044a 53010000 		.4byte	0x153
 946 044e 30       		.byte	0x30
 947 044f 08       		.uleb128 0x8
 948 0450 746D00   		.ascii	"tm\000"
 949 0453 08       		.byte	0x8
 950 0454 D701     		.2byte	0x1d7
 951 0456 45050000 		.4byte	0x545
 952 045a 74       		.byte	0x74
 953 045b 09       		.uleb128 0x9
 954 045c 2C020000 		.4byte	.LASF81
 955 0460 08       		.byte	0x8
 956 0461 E301     		.2byte	0x1e3
 957 0463 32060000 		.4byte	0x632
 958 0467 78       		.byte	0x78
 959 0468 00       		.byte	0
 960 0469 10       		.uleb128 0x10
 961 046a B3000000 		.4byte	.LASF82
 962 046e 09       		.byte	0x9
 963 046f A706     		.2byte	0x6a7
 964 0471 D5000000 		.4byte	0xd5
 965 0475 11       		.uleb128 0x11
 966 0476 5F020000 		.4byte	.LASF83
 967 047a 0A       		.byte	0xa
 968 047b 4C       		.byte	0x4c
 969 047c DA000000 		.4byte	0xda
ARM GAS  /var/folders/qd/4mxf5pkd0zdf0b9dd1hp39180000gn/T//ccgtQywa.s 			page 18


 970 0480 03       		.uleb128 0x3
 971 0481 07020000 		.4byte	.LASF84
 972 0485 0B       		.byte	0xb
 973 0486 65       		.byte	0x65
 974 0487 33030000 		.4byte	0x333
 975 048b 03       		.uleb128 0x3
 976 048c 2E030000 		.4byte	.LASF85
 977 0490 0B       		.byte	0xb
 978 0491 6D       		.byte	0x6d
 979 0492 E5000000 		.4byte	0xe5
 980 0496 06       		.uleb128 0x6
 981 0497 80070000 		.4byte	.LASF86
 982 049b 04       		.byte	0x4
 983 049c 0B       		.byte	0xb
 984 049d 89       		.byte	0x89
 985 049e AF040000 		.4byte	0x4af
 986 04a2 12       		.uleb128 0x12
 987 04a3 72313300 		.ascii	"r13\000"
 988 04a7 0B       		.byte	0xb
 989 04a8 8A       		.byte	0x8a
 990 04a9 2A050000 		.4byte	0x52a
 991 04ad 00       		.byte	0
 992 04ae 00       		.byte	0
 993 04af 06       		.uleb128 0x6
 994 04b0 36000000 		.4byte	.LASF87
 995 04b4 24       		.byte	0x24
 996 04b5 0C       		.byte	0xc
 997 04b6 F4       		.byte	0xf4
 998 04b7 2A050000 		.4byte	0x52a
 999 04bb 08       		.uleb128 0x8
 1000 04bc 723400   		.ascii	"r4\000"
 1001 04bf 0C       		.byte	0xc
 1002 04c0 0701     		.2byte	0x107
 1003 04c2 80040000 		.4byte	0x480
 1004 04c6 00       		.byte	0
 1005 04c7 08       		.uleb128 0x8
 1006 04c8 723500   		.ascii	"r5\000"
 1007 04cb 0C       		.byte	0xc
 1008 04cc 0801     		.2byte	0x108
 1009 04ce 80040000 		.4byte	0x480
 1010 04d2 04       		.byte	0x4
 1011 04d3 08       		.uleb128 0x8
 1012 04d4 723600   		.ascii	"r6\000"
 1013 04d7 0C       		.byte	0xc
 1014 04d8 0901     		.2byte	0x109
 1015 04da 80040000 		.4byte	0x480
 1016 04de 08       		.byte	0x8
 1017 04df 08       		.uleb128 0x8
 1018 04e0 723700   		.ascii	"r7\000"
 1019 04e3 0C       		.byte	0xc
 1020 04e4 0A01     		.2byte	0x10a
 1021 04e6 80040000 		.4byte	0x480
 1022 04ea 0C       		.byte	0xc
 1023 04eb 08       		.uleb128 0x8
 1024 04ec 723800   		.ascii	"r8\000"
 1025 04ef 0C       		.byte	0xc
 1026 04f0 0B01     		.2byte	0x10b
ARM GAS  /var/folders/qd/4mxf5pkd0zdf0b9dd1hp39180000gn/T//ccgtQywa.s 			page 19


 1027 04f2 80040000 		.4byte	0x480
 1028 04f6 10       		.byte	0x10
 1029 04f7 08       		.uleb128 0x8
 1030 04f8 723900   		.ascii	"r9\000"
 1031 04fb 0C       		.byte	0xc
 1032 04fc 0C01     		.2byte	0x10c
 1033 04fe 80040000 		.4byte	0x480
 1034 0502 14       		.byte	0x14
 1035 0503 08       		.uleb128 0x8
 1036 0504 72313000 		.ascii	"r10\000"
 1037 0508 0C       		.byte	0xc
 1038 0509 0D01     		.2byte	0x10d
 1039 050b 80040000 		.4byte	0x480
 1040 050f 18       		.byte	0x18
 1041 0510 08       		.uleb128 0x8
 1042 0511 72313100 		.ascii	"r11\000"
 1043 0515 0C       		.byte	0xc
 1044 0516 0E01     		.2byte	0x10e
 1045 0518 80040000 		.4byte	0x480
 1046 051c 1C       		.byte	0x1c
 1047 051d 08       		.uleb128 0x8
 1048 051e 6C7200   		.ascii	"lr\000"
 1049 0521 0C       		.byte	0xc
 1050 0522 0F01     		.2byte	0x10f
 1051 0524 80040000 		.4byte	0x480
 1052 0528 20       		.byte	0x20
 1053 0529 00       		.byte	0
 1054 052a 0A       		.uleb128 0xa
 1055 052b 04       		.byte	0x4
 1056 052c AF040000 		.4byte	0x4af
 1057 0530 13       		.uleb128 0x13
 1058 0531 04       		.byte	0x4
 1059 0532 0D       		.byte	0xd
 1060 0533 38       		.byte	0x38
 1061 0534 45050000 		.4byte	0x545
 1062 0538 07       		.uleb128 0x7
 1063 0539 70070000 		.4byte	.LASF88
 1064 053d 0D       		.byte	0xd
 1065 053e 3C       		.byte	0x3c
 1066 053f F0000000 		.4byte	0xf0
 1067 0543 00       		.byte	0
 1068 0544 00       		.byte	0
 1069 0545 03       		.uleb128 0x3
 1070 0546 AA040000 		.4byte	.LASF89
 1071 054a 0D       		.byte	0xd
 1072 054b 3D       		.byte	0x3d
 1073 054c 30050000 		.4byte	0x530
 1074 0550 14       		.uleb128 0x14
 1075 0551 04       		.byte	0x4
 1076 0552 08       		.byte	0x8
 1077 0553 FA       		.byte	0xfa
 1078 0554 AD050000 		.4byte	0x5ad
 1079 0558 15       		.uleb128 0x15
 1080 0559 1C000000 		.4byte	.LASF90
 1081 055d 08       		.byte	0x8
 1082 055e 0101     		.2byte	0x101
 1083 0560 27010000 		.4byte	0x127
ARM GAS  /var/folders/qd/4mxf5pkd0zdf0b9dd1hp39180000gn/T//ccgtQywa.s 			page 20


 1084 0564 15       		.uleb128 0x15
 1085 0565 8D000000 		.4byte	.LASF91
 1086 0569 08       		.byte	0x8
 1087 056a 0801     		.2byte	0x108
 1088 056c 27010000 		.4byte	0x127
 1089 0570 15       		.uleb128 0x15
 1090 0571 FA070000 		.4byte	.LASF92
 1091 0575 08       		.byte	0x8
 1092 0576 0F01     		.2byte	0x10f
 1093 0578 33030000 		.4byte	0x333
 1094 057c 15       		.uleb128 0x15
 1095 057d 68010000 		.4byte	.LASF93
 1096 0581 08       		.byte	0x8
 1097 0582 1601     		.2byte	0x116
 1098 0584 AD050000 		.4byte	0x5ad
 1099 0588 15       		.uleb128 0x15
 1100 0589 6F020000 		.4byte	.LASF94
 1101 058d 08       		.byte	0x8
 1102 058e 1E01     		.2byte	0x11e
 1103 0590 D8050000 		.4byte	0x5d8
 1104 0594 15       		.uleb128 0x15
 1105 0595 0D070000 		.4byte	.LASF95
 1106 0599 08       		.byte	0x8
 1107 059a 2701     		.2byte	0x127
 1108 059c 0F060000 		.4byte	0x60f
 1109 05a0 15       		.uleb128 0x15
 1110 05a1 FC050000 		.4byte	.LASF96
 1111 05a5 08       		.byte	0x8
 1112 05a6 2F01     		.2byte	0x12f
 1113 05a8 32010000 		.4byte	0x132
 1114 05ac 00       		.byte	0
 1115 05ad 0A       		.uleb128 0xa
 1116 05ae 04       		.byte	0x4
 1117 05af 4B020000 		.4byte	0x24b
 1118 05b3 06       		.uleb128 0x6
 1119 05b4 72060000 		.4byte	.LASF97
 1120 05b8 0C       		.byte	0xc
 1121 05b9 0E       		.byte	0xe
 1122 05ba 34       		.byte	0x34
 1123 05bb D8050000 		.4byte	0x5d8
 1124 05bf 07       		.uleb128 0x7
 1125 05c0 D1010000 		.4byte	.LASF98
 1126 05c4 0E       		.byte	0xe
 1127 05c5 35       		.byte	0x35
 1128 05c6 80020000 		.4byte	0x280
 1129 05ca 00       		.byte	0
 1130 05cb 07       		.uleb128 0x7
 1131 05cc A5020000 		.4byte	.LASF99
 1132 05d0 0E       		.byte	0xe
 1133 05d1 37       		.byte	0x37
 1134 05d2 3D010000 		.4byte	0x13d
 1135 05d6 08       		.byte	0x8
 1136 05d7 00       		.byte	0
 1137 05d8 0A       		.uleb128 0xa
 1138 05d9 04       		.byte	0x4
 1139 05da B3050000 		.4byte	0x5b3
 1140 05de 06       		.uleb128 0x6
ARM GAS  /var/folders/qd/4mxf5pkd0zdf0b9dd1hp39180000gn/T//ccgtQywa.s 			page 21


 1141 05df 77070000 		.4byte	.LASF100
 1142 05e3 10       		.byte	0x10
 1143 05e4 0F       		.byte	0xf
 1144 05e5 39       		.byte	0x39
 1145 05e6 0F060000 		.4byte	0x60f
 1146 05ea 07       		.uleb128 0x7
 1147 05eb 35010000 		.4byte	.LASF101
 1148 05ef 0F       		.byte	0xf
 1149 05f0 3A       		.byte	0x3a
 1150 05f1 80020000 		.4byte	0x280
 1151 05f5 00       		.byte	0
 1152 05f6 07       		.uleb128 0x7
 1153 05f7 2E080000 		.4byte	.LASF102
 1154 05fb 0F       		.byte	0xf
 1155 05fc 3C       		.byte	0x3c
 1156 05fd 56020000 		.4byte	0x256
 1157 0601 08       		.byte	0x8
 1158 0602 07       		.uleb128 0x7
 1159 0603 28070000 		.4byte	.LASF103
 1160 0607 0F       		.byte	0xf
 1161 0608 3E       		.byte	0x3e
 1162 0609 6F070000 		.4byte	0x76f
 1163 060d 0C       		.byte	0xc
 1164 060e 00       		.byte	0
 1165 060f 0A       		.uleb128 0xa
 1166 0610 04       		.byte	0x4
 1167 0611 DE050000 		.4byte	0x5de
 1168 0615 0A       		.uleb128 0xa
 1169 0616 04       		.byte	0x4
 1170 0617 27060000 		.4byte	0x627
 1171 061b 05       		.uleb128 0x5
 1172 061c 15060000 		.4byte	0x615
 1173 0620 04       		.uleb128 0x4
 1174 0621 01       		.byte	0x1
 1175 0622 08       		.byte	0x8
 1176 0623 08070000 		.4byte	.LASF104
 1177 0627 16       		.uleb128 0x16
 1178 0628 20060000 		.4byte	0x620
 1179 062c 0A       		.uleb128 0xa
 1180 062d 04       		.byte	0x4
 1181 062e 35030000 		.4byte	0x335
 1182 0632 17       		.uleb128 0x17
 1183 0633 8B040000 		.4byte	0x48b
 1184 0637 42060000 		.4byte	0x642
 1185 063b 18       		.uleb128 0x18
 1186 063c 37000000 		.4byte	0x37
 1187 0640 1A       		.byte	0x1a
 1188 0641 00       		.byte	0
 1189 0642 19       		.uleb128 0x19
 1190 0643 636800   		.ascii	"ch\000"
 1191 0646 08       		.byte	0x8
 1192 0647 0902     		.2byte	0x209
 1193 0649 02040000 		.4byte	0x402
 1194 064d 03       		.uleb128 0x3
 1195 064e 00000000 		.4byte	.LASF105
 1196 0652 10       		.byte	0x10
 1197 0653 34       		.byte	0x34
ARM GAS  /var/folders/qd/4mxf5pkd0zdf0b9dd1hp39180000gn/T//ccgtQywa.s 			page 22


 1198 0654 22030000 		.4byte	0x322
 1199 0658 13       		.uleb128 0x13
 1200 0659 16       		.byte	0x16
 1201 065a 11       		.byte	0x11
 1202 065b 34       		.byte	0x34
 1203 065c 39070000 		.4byte	0x739
 1204 0660 07       		.uleb128 0x7
 1205 0661 36080000 		.4byte	.LASF106
 1206 0665 11       		.byte	0x11
 1207 0666 35       		.byte	0x35
 1208 0667 39070000 		.4byte	0x739
 1209 066b 00       		.byte	0
 1210 066c 07       		.uleb128 0x7
 1211 066d 39030000 		.4byte	.LASF107
 1212 0671 11       		.byte	0x11
 1213 0672 36       		.byte	0x36
 1214 0673 B4000000 		.4byte	0xb4
 1215 0677 04       		.byte	0x4
 1216 0678 07       		.uleb128 0x7
 1217 0679 DF060000 		.4byte	.LASF108
 1218 067d 11       		.byte	0x11
 1219 067e 37       		.byte	0x37
 1220 067f B4000000 		.4byte	0xb4
 1221 0683 05       		.byte	0x5
 1222 0684 07       		.uleb128 0x7
 1223 0685 B4010000 		.4byte	.LASF109
 1224 0689 11       		.byte	0x11
 1225 068a 38       		.byte	0x38
 1226 068b BF000000 		.4byte	0xbf
 1227 068f 06       		.byte	0x6
 1228 0690 07       		.uleb128 0x7
 1229 0691 78050000 		.4byte	.LASF110
 1230 0695 11       		.byte	0x11
 1231 0696 39       		.byte	0x39
 1232 0697 B4000000 		.4byte	0xb4
 1233 069b 08       		.byte	0x8
 1234 069c 07       		.uleb128 0x7
 1235 069d 6F040000 		.4byte	.LASF111
 1236 06a1 11       		.byte	0x11
 1237 06a2 3A       		.byte	0x3a
 1238 06a3 B4000000 		.4byte	0xb4
 1239 06a7 09       		.byte	0x9
 1240 06a8 07       		.uleb128 0x7
 1241 06a9 7F000000 		.4byte	.LASF112
 1242 06ad 11       		.byte	0x11
 1243 06ae 3B       		.byte	0x3b
 1244 06af B4000000 		.4byte	0xb4
 1245 06b3 0A       		.byte	0xa
 1246 06b4 07       		.uleb128 0x7
 1247 06b5 93060000 		.4byte	.LASF113
 1248 06b9 11       		.byte	0x11
 1249 06ba 3C       		.byte	0x3c
 1250 06bb B4000000 		.4byte	0xb4
 1251 06bf 0B       		.byte	0xb
 1252 06c0 07       		.uleb128 0x7
 1253 06c1 A0070000 		.4byte	.LASF114
 1254 06c5 11       		.byte	0x11
ARM GAS  /var/folders/qd/4mxf5pkd0zdf0b9dd1hp39180000gn/T//ccgtQywa.s 			page 23


 1255 06c6 3D       		.byte	0x3d
 1256 06c7 B4000000 		.4byte	0xb4
 1257 06cb 0C       		.byte	0xc
 1258 06cc 07       		.uleb128 0x7
 1259 06cd 65060000 		.4byte	.LASF115
 1260 06d1 11       		.byte	0x11
 1261 06d2 3E       		.byte	0x3e
 1262 06d3 B4000000 		.4byte	0xb4
 1263 06d7 0D       		.byte	0xd
 1264 06d8 07       		.uleb128 0x7
 1265 06d9 76020000 		.4byte	.LASF116
 1266 06dd 11       		.byte	0x11
 1267 06de 3F       		.byte	0x3f
 1268 06df B4000000 		.4byte	0xb4
 1269 06e3 0E       		.byte	0xe
 1270 06e4 07       		.uleb128 0x7
 1271 06e5 7B040000 		.4byte	.LASF117
 1272 06e9 11       		.byte	0x11
 1273 06ea 40       		.byte	0x40
 1274 06eb B4000000 		.4byte	0xb4
 1275 06ef 0F       		.byte	0xf
 1276 06f0 07       		.uleb128 0x7
 1277 06f1 10010000 		.4byte	.LASF118
 1278 06f5 11       		.byte	0x11
 1279 06f6 41       		.byte	0x41
 1280 06f7 B4000000 		.4byte	0xb4
 1281 06fb 10       		.byte	0x10
 1282 06fc 07       		.uleb128 0x7
 1283 06fd E3000000 		.4byte	.LASF119
 1284 0701 11       		.byte	0x11
 1285 0702 43       		.byte	0x43
 1286 0703 B4000000 		.4byte	0xb4
 1287 0707 11       		.byte	0x11
 1288 0708 07       		.uleb128 0x7
 1289 0709 20010000 		.4byte	.LASF120
 1290 070d 11       		.byte	0x11
 1291 070e 44       		.byte	0x44
 1292 070f B4000000 		.4byte	0xb4
 1293 0713 12       		.byte	0x12
 1294 0714 07       		.uleb128 0x7
 1295 0715 41030000 		.4byte	.LASF121
 1296 0719 11       		.byte	0x11
 1297 071a 45       		.byte	0x45
 1298 071b B4000000 		.4byte	0xb4
 1299 071f 13       		.byte	0x13
 1300 0720 07       		.uleb128 0x7
 1301 0721 12060000 		.4byte	.LASF122
 1302 0725 11       		.byte	0x11
 1303 0726 46       		.byte	0x46
 1304 0727 B4000000 		.4byte	0xb4
 1305 072b 14       		.byte	0x14
 1306 072c 07       		.uleb128 0x7
 1307 072d F2020000 		.4byte	.LASF123
 1308 0731 11       		.byte	0x11
 1309 0732 48       		.byte	0x48
 1310 0733 B4000000 		.4byte	0xb4
 1311 0737 15       		.byte	0x15
ARM GAS  /var/folders/qd/4mxf5pkd0zdf0b9dd1hp39180000gn/T//ccgtQywa.s 			page 24


 1312 0738 00       		.byte	0
 1313 0739 17       		.uleb128 0x17
 1314 073a 20060000 		.4byte	0x620
 1315 073e 49070000 		.4byte	0x749
 1316 0742 18       		.uleb128 0x18
 1317 0743 37000000 		.4byte	0x37
 1318 0747 03       		.byte	0x3
 1319 0748 00       		.byte	0
 1320 0749 03       		.uleb128 0x3
 1321 074a BF010000 		.4byte	.LASF124
 1322 074e 11       		.byte	0x11
 1323 074f 49       		.byte	0x49
 1324 0750 58060000 		.4byte	0x658
 1325 0754 16       		.uleb128 0x16
 1326 0755 49070000 		.4byte	0x749
 1327 0759 11       		.uleb128 0x11
 1328 075a 8E020000 		.4byte	.LASF125
 1329 075e 11       		.byte	0x11
 1330 075f 6E       		.byte	0x6e
 1331 0760 54070000 		.4byte	0x754
 1332 0764 03       		.uleb128 0x3
 1333 0765 18020000 		.4byte	.LASF126
 1334 0769 0F       		.byte	0xf
 1335 076a 34       		.byte	0x34
 1336 076b DE050000 		.4byte	0x5de
 1337 076f 0A       		.uleb128 0xa
 1338 0770 04       		.byte	0x4
 1339 0771 64070000 		.4byte	0x764
 1340 0775 03       		.uleb128 0x3
 1341 0776 5B000000 		.4byte	.LASF127
 1342 077a 12       		.byte	0x12
 1343 077b 36       		.byte	0x36
 1344 077c 80070000 		.4byte	0x780
 1345 0780 0A       		.uleb128 0xa
 1346 0781 04       		.byte	0x4
 1347 0782 86070000 		.4byte	0x786
 1348 0786 1A       		.uleb128 0x1a
 1349 0787 33030000 		.4byte	0x333
 1350 078b 95070000 		.4byte	0x795
 1351 078f 0D       		.uleb128 0xd
 1352 0790 2C000000 		.4byte	0x2c
 1353 0794 00       		.byte	0
 1354 0795 03       		.uleb128 0x3
 1355 0796 9E010000 		.4byte	.LASF128
 1356 079a 13       		.byte	0x13
 1357 079b 3C       		.byte	0x3c
 1358 079c A0070000 		.4byte	0x7a0
 1359 07a0 06       		.uleb128 0x6
 1360 07a1 4C080000 		.4byte	.LASF129
 1361 07a5 20       		.byte	0x20
 1362 07a6 13       		.byte	0x13
 1363 07a7 4F       		.byte	0x4f
 1364 07a8 D1070000 		.4byte	0x7d1
 1365 07ac 07       		.uleb128 0x7
 1366 07ad E3070000 		.4byte	.LASF130
 1367 07b1 13       		.byte	0x13
 1368 07b2 50       		.byte	0x50
ARM GAS  /var/folders/qd/4mxf5pkd0zdf0b9dd1hp39180000gn/T//ccgtQywa.s 			page 25


 1369 07b3 75070000 		.4byte	0x775
 1370 07b7 00       		.byte	0
 1371 07b8 07       		.uleb128 0x7
 1372 07b9 96000000 		.4byte	.LASF131
 1373 07bd 13       		.byte	0x13
 1374 07be 52       		.byte	0x52
 1375 07bf F0070000 		.4byte	0x7f0
 1376 07c3 08       		.byte	0x8
 1377 07c4 07       		.uleb128 0x7
 1378 07c5 0A010000 		.4byte	.LASF132
 1379 07c9 13       		.byte	0x13
 1380 07ca 54       		.byte	0x54
 1381 07cb 64070000 		.4byte	0x764
 1382 07cf 10       		.byte	0x10
 1383 07d0 00       		.byte	0
 1384 07d1 14       		.uleb128 0x14
 1385 07d2 04       		.byte	0x4
 1386 07d3 13       		.byte	0x13
 1387 07d4 44       		.byte	0x44
 1388 07d5 F0070000 		.4byte	0x7f0
 1389 07d9 1B       		.uleb128 0x1b
 1390 07da C6000000 		.4byte	.LASF133
 1391 07de 13       		.byte	0x13
 1392 07df 45       		.byte	0x45
 1393 07e0 11080000 		.4byte	0x811
 1394 07e4 1B       		.uleb128 0x1b
 1395 07e5 E7060000 		.4byte	.LASF134
 1396 07e9 13       		.byte	0x13
 1397 07ea 46       		.byte	0x46
 1398 07eb 17080000 		.4byte	0x817
 1399 07ef 00       		.byte	0
 1400 07f0 1C       		.uleb128 0x1c
 1401 07f1 CD050000 		.4byte	.LASF164
 1402 07f5 08       		.byte	0x8
 1403 07f6 13       		.byte	0x13
 1404 07f7 41       		.byte	0x41
 1405 07f8 11080000 		.4byte	0x811
 1406 07fc 1B       		.uleb128 0x1b
 1407 07fd 26020000 		.4byte	.LASF135
 1408 0801 13       		.byte	0x13
 1409 0802 42       		.byte	0x42
 1410 0803 8B040000 		.4byte	0x48b
 1411 0807 1D       		.uleb128 0x1d
 1412 0808 6800     		.ascii	"h\000"
 1413 080a 13       		.byte	0x13
 1414 080b 49       		.byte	0x49
 1415 080c 1D080000 		.4byte	0x81d
 1416 0810 00       		.byte	0
 1417 0811 0A       		.uleb128 0xa
 1418 0812 04       		.byte	0x4
 1419 0813 F0070000 		.4byte	0x7f0
 1420 0817 0A       		.uleb128 0xa
 1421 0818 04       		.byte	0x4
 1422 0819 95070000 		.4byte	0x795
 1423 081d 13       		.uleb128 0x13
 1424 081e 08       		.byte	0x8
 1425 081f 13       		.byte	0x13
ARM GAS  /var/folders/qd/4mxf5pkd0zdf0b9dd1hp39180000gn/T//ccgtQywa.s 			page 26


 1426 0820 43       		.byte	0x43
 1427 0821 3C080000 		.4byte	0x83c
 1428 0825 12       		.uleb128 0x12
 1429 0826 7500     		.ascii	"u\000"
 1430 0828 13       		.byte	0x13
 1431 0829 47       		.byte	0x47
 1432 082a D1070000 		.4byte	0x7d1
 1433 082e 00       		.byte	0
 1434 082f 07       		.uleb128 0x7
 1435 0830 08080000 		.4byte	.LASF136
 1436 0834 13       		.byte	0x13
 1437 0835 48       		.byte	0x48
 1438 0836 2C000000 		.4byte	0x2c
 1439 083a 04       		.byte	0x4
 1440 083b 00       		.byte	0
 1441 083c 06       		.uleb128 0x6
 1442 083d AB070000 		.4byte	.LASF137
 1443 0841 04       		.byte	0x4
 1444 0842 14       		.byte	0x14
 1445 0843 38       		.byte	0x38
 1446 0844 55080000 		.4byte	0x855
 1447 0848 07       		.uleb128 0x7
 1448 0849 68050000 		.4byte	.LASF138
 1449 084d 14       		.byte	0x14
 1450 084e 39       		.byte	0x39
 1451 084f 55080000 		.4byte	0x855
 1452 0853 00       		.byte	0
 1453 0854 00       		.byte	0
 1454 0855 0A       		.uleb128 0xa
 1455 0856 04       		.byte	0x4
 1456 0857 3C080000 		.4byte	0x83c
 1457 085b 13       		.uleb128 0x13
 1458 085c 0C       		.byte	0xc
 1459 085d 14       		.byte	0x14
 1460 085e 40       		.byte	0x40
 1461 085f 88080000 		.4byte	0x888
 1462 0863 07       		.uleb128 0x7
 1463 0864 AC010000 		.4byte	.LASF139
 1464 0868 14       		.byte	0x14
 1465 0869 41       		.byte	0x41
 1466 086a 55080000 		.4byte	0x855
 1467 086e 00       		.byte	0
 1468 086f 07       		.uleb128 0x7
 1469 0870 9B040000 		.4byte	.LASF140
 1470 0874 14       		.byte	0x14
 1471 0875 42       		.byte	0x42
 1472 0876 2C000000 		.4byte	0x2c
 1473 087a 04       		.byte	0x4
 1474 087b 07       		.uleb128 0x7
 1475 087c FB010000 		.4byte	.LASF141
 1476 0880 14       		.byte	0x14
 1477 0881 44       		.byte	0x44
 1478 0882 75070000 		.4byte	0x775
 1479 0886 08       		.byte	0x8
 1480 0887 00       		.byte	0
 1481 0888 03       		.uleb128 0x3
 1482 0889 97020000 		.4byte	.LASF142
ARM GAS  /var/folders/qd/4mxf5pkd0zdf0b9dd1hp39180000gn/T//ccgtQywa.s 			page 27


 1483 088d 14       		.byte	0x14
 1484 088e 46       		.byte	0x46
 1485 088f 5B080000 		.4byte	0x85b
 1486 0893 1E       		.uleb128 0x1e
 1487 0894 D9010000 		.4byte	.LASF144
 1488 0898 01       		.byte	0x1
 1489 0899 CC       		.byte	0xcc
 1490 089a 56020000 		.4byte	0x256
 1491 089e 00000000 		.4byte	.LFB232
 1492 08a2 48000000 		.4byte	.LFE232-.LFB232
 1493 08a6 01       		.uleb128 0x1
 1494 08a7 9C       		.byte	0x9c
 1495 08a8 E4090000 		.4byte	0x9e4
 1496 08ac 1F       		.uleb128 0x1f
 1497 08ad 6D7000   		.ascii	"mp\000"
 1498 08b0 01       		.byte	0x1
 1499 08b1 CC       		.byte	0xcc
 1500 08b2 E4090000 		.4byte	0x9e4
 1501 08b6 00000000 		.4byte	.LLST15
 1502 08ba 20       		.uleb128 0x20
 1503 08bb BB040000 		.4byte	.LASF143
 1504 08bf 01       		.byte	0x1
 1505 08c0 CC       		.byte	0xcc
 1506 08c1 1C010000 		.4byte	0x11c
 1507 08c5 1E000000 		.4byte	.LLST16
 1508 08c9 1F       		.uleb128 0x1f
 1509 08ca 706600   		.ascii	"pf\000"
 1510 08cd 01       		.byte	0x1
 1511 08ce CD       		.byte	0xcd
 1512 08cf 4D060000 		.4byte	0x64d
 1513 08d3 3C000000 		.4byte	.LLST17
 1514 08d7 1F       		.uleb128 0x1f
 1515 08d8 61726700 		.ascii	"arg\000"
 1516 08dc 01       		.byte	0x1
 1517 08dd CD       		.byte	0xcd
 1518 08de 33030000 		.4byte	0x333
 1519 08e2 5A000000 		.4byte	.LLST18
 1520 08e6 21       		.uleb128 0x21
 1521 08e7 77737000 		.ascii	"wsp\000"
 1522 08eb 01       		.byte	0x1
 1523 08ec CE       		.byte	0xce
 1524 08ed 33030000 		.4byte	0x333
 1525 08f1 78000000 		.4byte	.LLST19
 1526 08f5 21       		.uleb128 0x21
 1527 08f6 747000   		.ascii	"tp\000"
 1528 08f9 01       		.byte	0x1
 1529 08fa CF       		.byte	0xcf
 1530 08fb 56020000 		.4byte	0x256
 1531 08ff 96000000 		.4byte	.LLST20
 1532 0903 22       		.uleb128 0x22
 1533 0904 29060000 		.4byte	.LASF148
 1534 0908 FA090000 		.4byte	0x9fa
 1535 090c 23       		.uleb128 0x23
 1536 090d 490D0000 		.4byte	0xd49
 1537 0911 14000000 		.4byte	.LBB81
 1538 0915 06000000 		.4byte	.LBE81-.LBB81
 1539 0919 01       		.byte	0x1
ARM GAS  /var/folders/qd/4mxf5pkd0zdf0b9dd1hp39180000gn/T//ccgtQywa.s 			page 28


 1540 091a E1       		.byte	0xe1
 1541 091b 4B090000 		.4byte	0x94b
 1542 091f 24       		.uleb128 0x24
 1543 0920 5B0D0000 		.4byte	0xd5b
 1544 0924 14000000 		.4byte	.LBB82
 1545 0928 06000000 		.4byte	.LBE82-.LBB82
 1546 092c 15       		.byte	0x15
 1547 092d 5C01     		.2byte	0x15c
 1548 092f 24       		.uleb128 0x24
 1549 0930 640D0000 		.4byte	0xd64
 1550 0934 14000000 		.4byte	.LBB83
 1551 0938 06000000 		.4byte	.LBE83-.LBB83
 1552 093c 0C       		.byte	0xc
 1553 093d BF01     		.2byte	0x1bf
 1554 093f 25       		.uleb128 0x25
 1555 0940 710D0000 		.4byte	0xd71
 1556 0944 B4000000 		.4byte	.LLST21
 1557 0948 00       		.byte	0
 1558 0949 00       		.byte	0
 1559 094a 00       		.byte	0
 1560 094b 23       		.uleb128 0x23
 1561 094c 2E0D0000 		.4byte	0xd2e
 1562 0950 36000000 		.4byte	.LBB85
 1563 0954 06000000 		.4byte	.LBE85-.LBB85
 1564 0958 01       		.byte	0x1
 1565 0959 E6       		.byte	0xe6
 1566 095a 99090000 		.4byte	0x999
 1567 095e 26       		.uleb128 0x26
 1568 095f 36000000 		.4byte	.LBB86
 1569 0963 06000000 		.4byte	.LBE86-.LBB86
 1570 0967 27       		.uleb128 0x27
 1571 0968 3B0D0000 		.4byte	0xd3b
 1572 096c 24       		.uleb128 0x24
 1573 096d 520D0000 		.4byte	0xd52
 1574 0971 36000000 		.4byte	.LBB87
 1575 0975 06000000 		.4byte	.LBE87-.LBB87
 1576 0979 15       		.byte	0x15
 1577 097a 7301     		.2byte	0x173
 1578 097c 24       		.uleb128 0x24
 1579 097d 640D0000 		.4byte	0xd64
 1580 0981 36000000 		.4byte	.LBB88
 1581 0985 06000000 		.4byte	.LBE88-.LBB88
 1582 0989 0C       		.byte	0xc
 1583 098a CD01     		.2byte	0x1cd
 1584 098c 25       		.uleb128 0x25
 1585 098d 710D0000 		.4byte	0xd71
 1586 0991 C9000000 		.4byte	.LLST22
 1587 0995 00       		.byte	0
 1588 0996 00       		.byte	0
 1589 0997 00       		.byte	0
 1590 0998 00       		.byte	0
 1591 0999 28       		.uleb128 0x28
 1592 099a 12000000 		.4byte	.LVL24
 1593 099e 7E0D0000 		.4byte	0xd7e
 1594 09a2 AD090000 		.4byte	0x9ad
 1595 09a6 29       		.uleb128 0x29
 1596 09a7 01       		.uleb128 0x1
ARM GAS  /var/folders/qd/4mxf5pkd0zdf0b9dd1hp39180000gn/T//ccgtQywa.s 			page 29


 1597 09a8 50       		.byte	0x50
 1598 09a9 02       		.uleb128 0x2
 1599 09aa 75       		.byte	0x75
 1600 09ab 00       		.sleb128 0
 1601 09ac 00       		.byte	0
 1602 09ad 28       		.uleb128 0x28
 1603 09ae 28000000 		.4byte	.LVL27
 1604 09b2 890D0000 		.4byte	0xd89
 1605 09b6 CE090000 		.4byte	0x9ce
 1606 09ba 29       		.uleb128 0x29
 1607 09bb 01       		.uleb128 0x1
 1608 09bc 52       		.byte	0x52
 1609 09bd 02       		.uleb128 0x2
 1610 09be 76       		.byte	0x76
 1611 09bf 00       		.sleb128 0
 1612 09c0 29       		.uleb128 0x29
 1613 09c1 01       		.uleb128 0x1
 1614 09c2 53       		.byte	0x53
 1615 09c3 02       		.uleb128 0x2
 1616 09c4 77       		.byte	0x77
 1617 09c5 00       		.sleb128 0
 1618 09c6 29       		.uleb128 0x29
 1619 09c7 02       		.uleb128 0x2
 1620 09c8 7D       		.byte	0x7d
 1621 09c9 00       		.sleb128 0
 1622 09ca 02       		.uleb128 0x2
 1623 09cb 78       		.byte	0x78
 1624 09cc 00       		.sleb128 0
 1625 09cd 00       		.byte	0
 1626 09ce 2A       		.uleb128 0x2a
 1627 09cf 36000000 		.4byte	.LVL29
 1628 09d3 940D0000 		.4byte	0xd94
 1629 09d7 29       		.uleb128 0x29
 1630 09d8 01       		.uleb128 0x1
 1631 09d9 50       		.byte	0x50
 1632 09da 02       		.uleb128 0x2
 1633 09db 74       		.byte	0x74
 1634 09dc 00       		.sleb128 0
 1635 09dd 29       		.uleb128 0x29
 1636 09de 01       		.uleb128 0x1
 1637 09df 51       		.byte	0x51
 1638 09e0 01       		.uleb128 0x1
 1639 09e1 30       		.byte	0x30
 1640 09e2 00       		.byte	0
 1641 09e3 00       		.byte	0
 1642 09e4 0A       		.uleb128 0xa
 1643 09e5 04       		.byte	0x4
 1644 09e6 88080000 		.4byte	0x888
 1645 09ea 17       		.uleb128 0x17
 1646 09eb 27060000 		.4byte	0x627
 1647 09ef FA090000 		.4byte	0x9fa
 1648 09f3 18       		.uleb128 0x18
 1649 09f4 37000000 		.4byte	0x37
 1650 09f8 19       		.byte	0x19
 1651 09f9 00       		.byte	0
 1652 09fa 16       		.uleb128 0x16
 1653 09fb EA090000 		.4byte	0x9ea
ARM GAS  /var/folders/qd/4mxf5pkd0zdf0b9dd1hp39180000gn/T//ccgtQywa.s 			page 30


 1654 09ff 1E       		.uleb128 0x1e
 1655 0a00 81010000 		.4byte	.LASF145
 1656 0a04 01       		.byte	0x1
 1657 0a05 98       		.byte	0x98
 1658 0a06 56020000 		.4byte	0x256
 1659 0a0a 00000000 		.4byte	.LFB231
 1660 0a0e 40000000 		.4byte	.LFE231-.LFB231
 1661 0a12 01       		.uleb128 0x1
 1662 0a13 9C       		.byte	0x9c
 1663 0a14 650B0000 		.4byte	0xb65
 1664 0a18 20       		.uleb128 0x20
 1665 0a19 C0000000 		.4byte	.LASF146
 1666 0a1d 01       		.byte	0x1
 1667 0a1e 98       		.byte	0x98
 1668 0a1f 17080000 		.4byte	0x817
 1669 0a23 DD000000 		.4byte	.LLST6
 1670 0a27 20       		.uleb128 0x20
 1671 0a28 08080000 		.4byte	.LASF136
 1672 0a2c 01       		.byte	0x1
 1673 0a2d 98       		.byte	0x98
 1674 0a2e 2C000000 		.4byte	0x2c
 1675 0a32 FE000000 		.4byte	.LLST7
 1676 0a36 20       		.uleb128 0x20
 1677 0a37 BB040000 		.4byte	.LASF143
 1678 0a3b 01       		.byte	0x1
 1679 0a3c 99       		.byte	0x99
 1680 0a3d 1C010000 		.4byte	0x11c
 1681 0a41 1C010000 		.4byte	.LLST8
 1682 0a45 1F       		.uleb128 0x1f
 1683 0a46 706600   		.ascii	"pf\000"
 1684 0a49 01       		.byte	0x1
 1685 0a4a 99       		.byte	0x99
 1686 0a4b 4D060000 		.4byte	0x64d
 1687 0a4f 3A010000 		.4byte	.LLST9
 1688 0a53 1F       		.uleb128 0x1f
 1689 0a54 61726700 		.ascii	"arg\000"
 1690 0a58 01       		.byte	0x1
 1691 0a59 99       		.byte	0x99
 1692 0a5a 33030000 		.4byte	0x333
 1693 0a5e 58010000 		.4byte	.LLST10
 1694 0a62 21       		.uleb128 0x21
 1695 0a63 77737000 		.ascii	"wsp\000"
 1696 0a67 01       		.byte	0x1
 1697 0a68 9A       		.byte	0x9a
 1698 0a69 33030000 		.4byte	0x333
 1699 0a6d 78010000 		.4byte	.LLST11
 1700 0a71 21       		.uleb128 0x21
 1701 0a72 747000   		.ascii	"tp\000"
 1702 0a75 01       		.byte	0x1
 1703 0a76 9B       		.byte	0x9b
 1704 0a77 56020000 		.4byte	0x256
 1705 0a7b 96010000 		.4byte	.LLST12
 1706 0a7f 23       		.uleb128 0x23
 1707 0a80 490D0000 		.4byte	0xd49
 1708 0a84 10000000 		.4byte	.LBB72
 1709 0a88 06000000 		.4byte	.LBE72-.LBB72
 1710 0a8c 01       		.byte	0x1
ARM GAS  /var/folders/qd/4mxf5pkd0zdf0b9dd1hp39180000gn/T//ccgtQywa.s 			page 31


 1711 0a8d AB       		.byte	0xab
 1712 0a8e BE0A0000 		.4byte	0xabe
 1713 0a92 24       		.uleb128 0x24
 1714 0a93 5B0D0000 		.4byte	0xd5b
 1715 0a97 10000000 		.4byte	.LBB73
 1716 0a9b 06000000 		.4byte	.LBE73-.LBB73
 1717 0a9f 15       		.byte	0x15
 1718 0aa0 5C01     		.2byte	0x15c
 1719 0aa2 24       		.uleb128 0x24
 1720 0aa3 640D0000 		.4byte	0xd64
 1721 0aa7 10000000 		.4byte	.LBB74
 1722 0aab 06000000 		.4byte	.LBE74-.LBB74
 1723 0aaf 0C       		.byte	0xc
 1724 0ab0 BF01     		.2byte	0x1bf
 1725 0ab2 25       		.uleb128 0x25
 1726 0ab3 710D0000 		.4byte	0xd71
 1727 0ab7 B4010000 		.4byte	.LLST13
 1728 0abb 00       		.byte	0
 1729 0abc 00       		.byte	0
 1730 0abd 00       		.byte	0
 1731 0abe 23       		.uleb128 0x23
 1732 0abf 2E0D0000 		.4byte	0xd2e
 1733 0ac3 30000000 		.4byte	.LBB76
 1734 0ac7 06000000 		.4byte	.LBE76-.LBB76
 1735 0acb 01       		.byte	0x1
 1736 0acc AF       		.byte	0xaf
 1737 0acd 0C0B0000 		.4byte	0xb0c
 1738 0ad1 26       		.uleb128 0x26
 1739 0ad2 30000000 		.4byte	.LBB77
 1740 0ad6 06000000 		.4byte	.LBE77-.LBB77
 1741 0ada 27       		.uleb128 0x27
 1742 0adb 3B0D0000 		.4byte	0xd3b
 1743 0adf 24       		.uleb128 0x24
 1744 0ae0 520D0000 		.4byte	0xd52
 1745 0ae4 30000000 		.4byte	.LBB78
 1746 0ae8 06000000 		.4byte	.LBE78-.LBB78
 1747 0aec 15       		.byte	0x15
 1748 0aed 7301     		.2byte	0x173
 1749 0aef 24       		.uleb128 0x24
 1750 0af0 640D0000 		.4byte	0xd64
 1751 0af4 30000000 		.4byte	.LBB79
 1752 0af8 06000000 		.4byte	.LBE79-.LBB79
 1753 0afc 0C       		.byte	0xc
 1754 0afd CD01     		.2byte	0x1cd
 1755 0aff 25       		.uleb128 0x25
 1756 0b00 710D0000 		.4byte	0xd71
 1757 0b04 C9010000 		.4byte	.LLST14
 1758 0b08 00       		.byte	0
 1759 0b09 00       		.byte	0
 1760 0b0a 00       		.byte	0
 1761 0b0b 00       		.byte	0
 1762 0b0c 28       		.uleb128 0x28
 1763 0b0d 0E000000 		.4byte	.LVL15
 1764 0b11 A00D0000 		.4byte	0xda0
 1765 0b15 270B0000 		.4byte	0xb27
 1766 0b19 29       		.uleb128 0x29
 1767 0b1a 01       		.uleb128 0x1
ARM GAS  /var/folders/qd/4mxf5pkd0zdf0b9dd1hp39180000gn/T//ccgtQywa.s 			page 32


 1768 0b1b 50       		.byte	0x50
 1769 0b1c 03       		.uleb128 0x3
 1770 0b1d F3       		.byte	0xf3
 1771 0b1e 01       		.uleb128 0x1
 1772 0b1f 50       		.byte	0x50
 1773 0b20 29       		.uleb128 0x29
 1774 0b21 01       		.uleb128 0x1
 1775 0b22 51       		.byte	0x51
 1776 0b23 02       		.uleb128 0x2
 1777 0b24 75       		.byte	0x75
 1778 0b25 00       		.sleb128 0
 1779 0b26 00       		.byte	0
 1780 0b27 28       		.uleb128 0x28
 1781 0b28 24000000 		.4byte	.LVL18
 1782 0b2c 890D0000 		.4byte	0xd89
 1783 0b30 4F0B0000 		.4byte	0xb4f
 1784 0b34 29       		.uleb128 0x29
 1785 0b35 01       		.uleb128 0x1
 1786 0b36 51       		.byte	0x51
 1787 0b37 02       		.uleb128 0x2
 1788 0b38 75       		.byte	0x75
 1789 0b39 00       		.sleb128 0
 1790 0b3a 29       		.uleb128 0x29
 1791 0b3b 01       		.uleb128 0x1
 1792 0b3c 52       		.byte	0x52
 1793 0b3d 02       		.uleb128 0x2
 1794 0b3e 76       		.byte	0x76
 1795 0b3f 00       		.sleb128 0
 1796 0b40 29       		.uleb128 0x29
 1797 0b41 01       		.uleb128 0x1
 1798 0b42 53       		.byte	0x53
 1799 0b43 02       		.uleb128 0x2
 1800 0b44 77       		.byte	0x77
 1801 0b45 00       		.sleb128 0
 1802 0b46 29       		.uleb128 0x29
 1803 0b47 02       		.uleb128 0x2
 1804 0b48 7D       		.byte	0x7d
 1805 0b49 00       		.sleb128 0
 1806 0b4a 03       		.uleb128 0x3
 1807 0b4b 91       		.byte	0x91
 1808 0b4c 00       		.sleb128 0
 1809 0b4d 06       		.byte	0x6
 1810 0b4e 00       		.byte	0
 1811 0b4f 2A       		.uleb128 0x2a
 1812 0b50 30000000 		.4byte	.LVL20
 1813 0b54 940D0000 		.4byte	0xd94
 1814 0b58 29       		.uleb128 0x29
 1815 0b59 01       		.uleb128 0x1
 1816 0b5a 50       		.byte	0x50
 1817 0b5b 02       		.uleb128 0x2
 1818 0b5c 74       		.byte	0x74
 1819 0b5d 00       		.sleb128 0
 1820 0b5e 29       		.uleb128 0x29
 1821 0b5f 01       		.uleb128 0x1
 1822 0b60 51       		.byte	0x51
 1823 0b61 01       		.uleb128 0x1
 1824 0b62 30       		.byte	0x30
ARM GAS  /var/folders/qd/4mxf5pkd0zdf0b9dd1hp39180000gn/T//ccgtQywa.s 			page 33


 1825 0b63 00       		.byte	0
 1826 0b64 00       		.byte	0
 1827 0b65 2B       		.uleb128 0x2b
 1828 0b66 3C060000 		.4byte	.LASF165
 1829 0b6a 01       		.byte	0x1
 1830 0b6b 5B       		.byte	0x5b
 1831 0b6c 00000000 		.4byte	.LFB230
 1832 0b70 4E000000 		.4byte	.LFE230-.LFB230
 1833 0b74 01       		.uleb128 0x1
 1834 0b75 9C       		.byte	0x9c
 1835 0b76 4C0C0000 		.4byte	0xc4c
 1836 0b7a 1F       		.uleb128 0x1f
 1837 0b7b 747000   		.ascii	"tp\000"
 1838 0b7e 01       		.byte	0x1
 1839 0b7f 5B       		.byte	0x5b
 1840 0b80 56020000 		.4byte	0x256
 1841 0b84 DD010000 		.4byte	.LLST2
 1842 0b88 2C       		.uleb128 0x2c
 1843 0b89 83050000 		.4byte	.LASF147
 1844 0b8d 01       		.byte	0x1
 1845 0b8e 5C       		.byte	0x5c
 1846 0b8f 11010000 		.4byte	0x111
 1847 0b93 22020000 		.4byte	.LLST3
 1848 0b97 22       		.uleb128 0x22
 1849 0b98 29060000 		.4byte	.LASF148
 1850 0b9c 5C0C0000 		.4byte	0xc5c
 1851 0ba0 23       		.uleb128 0x23
 1852 0ba1 490D0000 		.4byte	0xd49
 1853 0ba5 02000000 		.4byte	.LBB63
 1854 0ba9 06000000 		.4byte	.LBE63-.LBB63
 1855 0bad 01       		.byte	0x1
 1856 0bae 5E       		.byte	0x5e
 1857 0baf DF0B0000 		.4byte	0xbdf
 1858 0bb3 24       		.uleb128 0x24
 1859 0bb4 5B0D0000 		.4byte	0xd5b
 1860 0bb8 02000000 		.4byte	.LBB64
 1861 0bbc 06000000 		.4byte	.LBE64-.LBB64
 1862 0bc0 15       		.byte	0x15
 1863 0bc1 5C01     		.2byte	0x15c
 1864 0bc3 24       		.uleb128 0x24
 1865 0bc4 640D0000 		.4byte	0xd64
 1866 0bc8 02000000 		.4byte	.LBB65
 1867 0bcc 06000000 		.4byte	.LBE65-.LBB65
 1868 0bd0 0C       		.byte	0xc
 1869 0bd1 BF01     		.2byte	0x1bf
 1870 0bd3 25       		.uleb128 0x25
 1871 0bd4 710D0000 		.4byte	0xd71
 1872 0bd8 4D020000 		.4byte	.LLST4
 1873 0bdc 00       		.byte	0
 1874 0bdd 00       		.byte	0
 1875 0bde 00       		.byte	0
 1876 0bdf 23       		.uleb128 0x23
 1877 0be0 2E0D0000 		.4byte	0xd2e
 1878 0be4 10000000 		.4byte	.LBB67
 1879 0be8 06000000 		.4byte	.LBE67-.LBB67
 1880 0bec 01       		.byte	0x1
 1881 0bed 62       		.byte	0x62
ARM GAS  /var/folders/qd/4mxf5pkd0zdf0b9dd1hp39180000gn/T//ccgtQywa.s 			page 34


 1882 0bee 2D0C0000 		.4byte	0xc2d
 1883 0bf2 26       		.uleb128 0x26
 1884 0bf3 10000000 		.4byte	.LBB68
 1885 0bf7 06000000 		.4byte	.LBE68-.LBB68
 1886 0bfb 27       		.uleb128 0x27
 1887 0bfc 3B0D0000 		.4byte	0xd3b
 1888 0c00 24       		.uleb128 0x24
 1889 0c01 520D0000 		.4byte	0xd52
 1890 0c05 10000000 		.4byte	.LBB69
 1891 0c09 06000000 		.4byte	.LBE69-.LBB69
 1892 0c0d 15       		.byte	0x15
 1893 0c0e 7301     		.2byte	0x173
 1894 0c10 24       		.uleb128 0x24
 1895 0c11 640D0000 		.4byte	0xd64
 1896 0c15 10000000 		.4byte	.LBB70
 1897 0c19 06000000 		.4byte	.LBE70-.LBB70
 1898 0c1d 0C       		.byte	0xc
 1899 0c1e CD01     		.2byte	0x1cd
 1900 0c20 25       		.uleb128 0x25
 1901 0c21 710D0000 		.4byte	0xd71
 1902 0c25 62020000 		.4byte	.LLST5
 1903 0c29 00       		.byte	0
 1904 0c2a 00       		.byte	0
 1905 0c2b 00       		.byte	0
 1906 0c2c 00       		.byte	0
 1907 0c2d 2D       		.uleb128 0x2d
 1908 0c2e 3E000000 		.4byte	.LVL10
 1909 0c32 AB0D0000 		.4byte	0xdab
 1910 0c36 420C0000 		.4byte	0xc42
 1911 0c3a 29       		.uleb128 0x29
 1912 0c3b 01       		.uleb128 0x1
 1913 0c3c 50       		.byte	0x50
 1914 0c3d 03       		.uleb128 0x3
 1915 0c3e F3       		.byte	0xf3
 1916 0c3f 01       		.uleb128 0x1
 1917 0c40 50       		.byte	0x50
 1918 0c41 00       		.byte	0
 1919 0c42 2E       		.uleb128 0x2e
 1920 0c43 4E000000 		.4byte	.LVL13
 1921 0c47 B60D0000 		.4byte	0xdb6
 1922 0c4b 00       		.byte	0
 1923 0c4c 17       		.uleb128 0x17
 1924 0c4d 27060000 		.4byte	0x627
 1925 0c51 5C0C0000 		.4byte	0xc5c
 1926 0c55 18       		.uleb128 0x18
 1927 0c56 37000000 		.4byte	0x37
 1928 0c5a 0C       		.byte	0xc
 1929 0c5b 00       		.byte	0
 1930 0c5c 16       		.uleb128 0x16
 1931 0c5d 4C0C0000 		.4byte	0xc4c
 1932 0c61 1E       		.uleb128 0x1e
 1933 0c62 22030000 		.4byte	.LASF149
 1934 0c66 01       		.byte	0x1
 1935 0c67 44       		.byte	0x44
 1936 0c68 56020000 		.4byte	0x256
 1937 0c6c 00000000 		.4byte	.LFB229
 1938 0c70 14000000 		.4byte	.LFE229-.LFB229
ARM GAS  /var/folders/qd/4mxf5pkd0zdf0b9dd1hp39180000gn/T//ccgtQywa.s 			page 35


 1939 0c74 01       		.uleb128 0x1
 1940 0c75 9C       		.byte	0x9c
 1941 0c76 190D0000 		.4byte	0xd19
 1942 0c7a 2F       		.uleb128 0x2f
 1943 0c7b 747000   		.ascii	"tp\000"
 1944 0c7e 01       		.byte	0x1
 1945 0c7f 44       		.byte	0x44
 1946 0c80 56020000 		.4byte	0x256
 1947 0c84 01       		.uleb128 0x1
 1948 0c85 50       		.byte	0x50
 1949 0c86 22       		.uleb128 0x22
 1950 0c87 29060000 		.4byte	.LASF148
 1951 0c8b 290D0000 		.4byte	0xd29
 1952 0c8f 23       		.uleb128 0x23
 1953 0c90 490D0000 		.4byte	0xd49
 1954 0c94 00000000 		.4byte	.LBB54
 1955 0c98 06000000 		.4byte	.LBE54-.LBB54
 1956 0c9c 01       		.byte	0x1
 1957 0c9d 46       		.byte	0x46
 1958 0c9e CE0C0000 		.4byte	0xcce
 1959 0ca2 24       		.uleb128 0x24
 1960 0ca3 5B0D0000 		.4byte	0xd5b
 1961 0ca7 00000000 		.4byte	.LBB55
 1962 0cab 06000000 		.4byte	.LBE55-.LBB55
 1963 0caf 15       		.byte	0x15
 1964 0cb0 5C01     		.2byte	0x15c
 1965 0cb2 24       		.uleb128 0x24
 1966 0cb3 640D0000 		.4byte	0xd64
 1967 0cb7 00000000 		.4byte	.LBB56
 1968 0cbb 06000000 		.4byte	.LBE56-.LBB56
 1969 0cbf 0C       		.byte	0xc
 1970 0cc0 BF01     		.2byte	0x1bf
 1971 0cc2 25       		.uleb128 0x25
 1972 0cc3 710D0000 		.4byte	0xd71
 1973 0cc7 76020000 		.4byte	.LLST0
 1974 0ccb 00       		.byte	0
 1975 0ccc 00       		.byte	0
 1976 0ccd 00       		.byte	0
 1977 0cce 30       		.uleb128 0x30
 1978 0ccf 2E0D0000 		.4byte	0xd2e
 1979 0cd3 0C000000 		.4byte	.LBB58
 1980 0cd7 06000000 		.4byte	.LBE58-.LBB58
 1981 0cdb 01       		.byte	0x1
 1982 0cdc 49       		.byte	0x49
 1983 0cdd 26       		.uleb128 0x26
 1984 0cde 0C000000 		.4byte	.LBB59
 1985 0ce2 06000000 		.4byte	.LBE59-.LBB59
 1986 0ce6 27       		.uleb128 0x27
 1987 0ce7 3B0D0000 		.4byte	0xd3b
 1988 0ceb 24       		.uleb128 0x24
 1989 0cec 520D0000 		.4byte	0xd52
 1990 0cf0 0C000000 		.4byte	.LBB60
 1991 0cf4 06000000 		.4byte	.LBE60-.LBB60
 1992 0cf8 15       		.byte	0x15
 1993 0cf9 7301     		.2byte	0x173
 1994 0cfb 24       		.uleb128 0x24
 1995 0cfc 640D0000 		.4byte	0xd64
ARM GAS  /var/folders/qd/4mxf5pkd0zdf0b9dd1hp39180000gn/T//ccgtQywa.s 			page 36


 1996 0d00 0C000000 		.4byte	.LBB61
 1997 0d04 06000000 		.4byte	.LBE61-.LBB61
 1998 0d08 0C       		.byte	0xc
 1999 0d09 CD01     		.2byte	0x1cd
 2000 0d0b 25       		.uleb128 0x25
 2001 0d0c 710D0000 		.4byte	0xd71
 2002 0d10 8B020000 		.4byte	.LLST1
 2003 0d14 00       		.byte	0
 2004 0d15 00       		.byte	0
 2005 0d16 00       		.byte	0
 2006 0d17 00       		.byte	0
 2007 0d18 00       		.byte	0
 2008 0d19 17       		.uleb128 0x17
 2009 0d1a 27060000 		.4byte	0x627
 2010 0d1e 290D0000 		.4byte	0xd29
 2011 0d22 18       		.uleb128 0x18
 2012 0d23 37000000 		.4byte	0x37
 2013 0d27 0B       		.byte	0xb
 2014 0d28 00       		.byte	0
 2015 0d29 16       		.uleb128 0x16
 2016 0d2a 190D0000 		.4byte	0xd19
 2017 0d2e 31       		.uleb128 0x31
 2018 0d2f 1C080000 		.4byte	.LASF153
 2019 0d33 15       		.byte	0x15
 2020 0d34 6601     		.2byte	0x166
 2021 0d36 03       		.byte	0x3
 2022 0d37 490D0000 		.4byte	0xd49
 2023 0d3b 32       		.uleb128 0x32
 2024 0d3c 29060000 		.4byte	.LASF148
 2025 0d40 290D0000 		.4byte	0xd29
 2026 0d44 1C080000 		.4byte	.LASF153
 2027 0d48 00       		.byte	0
 2028 0d49 33       		.uleb128 0x33
 2029 0d4a 32060000 		.4byte	.LASF150
 2030 0d4e 15       		.byte	0x15
 2031 0d4f 5A01     		.2byte	0x15a
 2032 0d51 03       		.byte	0x3
 2033 0d52 33       		.uleb128 0x33
 2034 0d53 4F010000 		.4byte	.LASF151
 2035 0d57 0C       		.byte	0xc
 2036 0d58 CA01     		.2byte	0x1ca
 2037 0d5a 03       		.byte	0x3
 2038 0d5b 33       		.uleb128 0x33
 2039 0d5c 51000000 		.4byte	.LASF152
 2040 0d60 0C       		.byte	0xc
 2041 0d61 BC01     		.2byte	0x1bc
 2042 0d63 03       		.byte	0x3
 2043 0d64 31       		.uleb128 0x31
 2044 0d65 58070000 		.4byte	.LASF154
 2045 0d69 02       		.byte	0x2
 2046 0d6a 2002     		.2byte	0x220
 2047 0d6c 03       		.byte	0x3
 2048 0d6d 7E0D0000 		.4byte	0xd7e
 2049 0d71 34       		.uleb128 0x34
 2050 0d72 20020000 		.4byte	.LASF166
 2051 0d76 02       		.byte	0x2
 2052 0d77 2002     		.2byte	0x220
ARM GAS  /var/folders/qd/4mxf5pkd0zdf0b9dd1hp39180000gn/T//ccgtQywa.s 			page 37


 2053 0d79 DA000000 		.4byte	0xda
 2054 0d7d 00       		.byte	0
 2055 0d7e 35       		.uleb128 0x35
 2056 0d7f CC070000 		.4byte	.LASF155
 2057 0d83 CC070000 		.4byte	.LASF155
 2058 0d87 14       		.byte	0x14
 2059 0d88 6F       		.byte	0x6f
 2060 0d89 35       		.uleb128 0x35
 2061 0d8a 5B010000 		.4byte	.LASF156
 2062 0d8e 5B010000 		.4byte	.LASF156
 2063 0d92 10       		.byte	0x10
 2064 0d93 87       		.byte	0x87
 2065 0d94 36       		.uleb128 0x36
 2066 0d95 C8020000 		.4byte	.LASF157
 2067 0d99 C8020000 		.4byte	.LASF157
 2068 0d9d 08       		.byte	0x8
 2069 0d9e 1602     		.2byte	0x216
 2070 0da0 35       		.uleb128 0x35
 2071 0da1 59060000 		.4byte	.LASF158
 2072 0da5 59060000 		.4byte	.LASF158
 2073 0da9 13       		.byte	0x13
 2074 0daa 67       		.byte	0x67
 2075 0dab 35       		.uleb128 0x35
 2076 0dac 3D010000 		.4byte	.LASF159
 2077 0db0 3D010000 		.4byte	.LASF159
 2078 0db4 13       		.byte	0x13
 2079 0db5 68       		.byte	0x68
 2080 0db6 35       		.uleb128 0x35
 2081 0db7 D8070000 		.4byte	.LASF160
 2082 0dbb D8070000 		.4byte	.LASF160
 2083 0dbf 14       		.byte	0x14
 2084 0dc0 71       		.byte	0x71
 2085 0dc1 00       		.byte	0
 2086              		.section	.debug_abbrev,"",%progbits
 2087              	.Ldebug_abbrev0:
 2088 0000 01       		.uleb128 0x1
 2089 0001 11       		.uleb128 0x11
 2090 0002 01       		.byte	0x1
 2091 0003 25       		.uleb128 0x25
 2092 0004 0E       		.uleb128 0xe
 2093 0005 13       		.uleb128 0x13
 2094 0006 0B       		.uleb128 0xb
 2095 0007 03       		.uleb128 0x3
 2096 0008 0E       		.uleb128 0xe
 2097 0009 1B       		.uleb128 0x1b
 2098 000a 0E       		.uleb128 0xe
 2099 000b 55       		.uleb128 0x55
 2100 000c 17       		.uleb128 0x17
 2101 000d 11       		.uleb128 0x11
 2102 000e 01       		.uleb128 0x1
 2103 000f 10       		.uleb128 0x10
 2104 0010 17       		.uleb128 0x17
 2105 0011 00       		.byte	0
 2106 0012 00       		.byte	0
 2107 0013 02       		.uleb128 0x2
 2108 0014 24       		.uleb128 0x24
 2109 0015 00       		.byte	0
ARM GAS  /var/folders/qd/4mxf5pkd0zdf0b9dd1hp39180000gn/T//ccgtQywa.s 			page 38


 2110 0016 0B       		.uleb128 0xb
 2111 0017 0B       		.uleb128 0xb
 2112 0018 3E       		.uleb128 0x3e
 2113 0019 0B       		.uleb128 0xb
 2114 001a 03       		.uleb128 0x3
 2115 001b 08       		.uleb128 0x8
 2116 001c 00       		.byte	0
 2117 001d 00       		.byte	0
 2118 001e 03       		.uleb128 0x3
 2119 001f 16       		.uleb128 0x16
 2120 0020 00       		.byte	0
 2121 0021 03       		.uleb128 0x3
 2122 0022 0E       		.uleb128 0xe
 2123 0023 3A       		.uleb128 0x3a
 2124 0024 0B       		.uleb128 0xb
 2125 0025 3B       		.uleb128 0x3b
 2126 0026 0B       		.uleb128 0xb
 2127 0027 49       		.uleb128 0x49
 2128 0028 13       		.uleb128 0x13
 2129 0029 00       		.byte	0
 2130 002a 00       		.byte	0
 2131 002b 04       		.uleb128 0x4
 2132 002c 24       		.uleb128 0x24
 2133 002d 00       		.byte	0
 2134 002e 0B       		.uleb128 0xb
 2135 002f 0B       		.uleb128 0xb
 2136 0030 3E       		.uleb128 0x3e
 2137 0031 0B       		.uleb128 0xb
 2138 0032 03       		.uleb128 0x3
 2139 0033 0E       		.uleb128 0xe
 2140 0034 00       		.byte	0
 2141 0035 00       		.byte	0
 2142 0036 05       		.uleb128 0x5
 2143 0037 35       		.uleb128 0x35
 2144 0038 00       		.byte	0
 2145 0039 49       		.uleb128 0x49
 2146 003a 13       		.uleb128 0x13
 2147 003b 00       		.byte	0
 2148 003c 00       		.byte	0
 2149 003d 06       		.uleb128 0x6
 2150 003e 13       		.uleb128 0x13
 2151 003f 01       		.byte	0x1
 2152 0040 03       		.uleb128 0x3
 2153 0041 0E       		.uleb128 0xe
 2154 0042 0B       		.uleb128 0xb
 2155 0043 0B       		.uleb128 0xb
 2156 0044 3A       		.uleb128 0x3a
 2157 0045 0B       		.uleb128 0xb
 2158 0046 3B       		.uleb128 0x3b
 2159 0047 0B       		.uleb128 0xb
 2160 0048 01       		.uleb128 0x1
 2161 0049 13       		.uleb128 0x13
 2162 004a 00       		.byte	0
 2163 004b 00       		.byte	0
 2164 004c 07       		.uleb128 0x7
 2165 004d 0D       		.uleb128 0xd
 2166 004e 00       		.byte	0
ARM GAS  /var/folders/qd/4mxf5pkd0zdf0b9dd1hp39180000gn/T//ccgtQywa.s 			page 39


 2167 004f 03       		.uleb128 0x3
 2168 0050 0E       		.uleb128 0xe
 2169 0051 3A       		.uleb128 0x3a
 2170 0052 0B       		.uleb128 0xb
 2171 0053 3B       		.uleb128 0x3b
 2172 0054 0B       		.uleb128 0xb
 2173 0055 49       		.uleb128 0x49
 2174 0056 13       		.uleb128 0x13
 2175 0057 38       		.uleb128 0x38
 2176 0058 0B       		.uleb128 0xb
 2177 0059 00       		.byte	0
 2178 005a 00       		.byte	0
 2179 005b 08       		.uleb128 0x8
 2180 005c 0D       		.uleb128 0xd
 2181 005d 00       		.byte	0
 2182 005e 03       		.uleb128 0x3
 2183 005f 08       		.uleb128 0x8
 2184 0060 3A       		.uleb128 0x3a
 2185 0061 0B       		.uleb128 0xb
 2186 0062 3B       		.uleb128 0x3b
 2187 0063 05       		.uleb128 0x5
 2188 0064 49       		.uleb128 0x49
 2189 0065 13       		.uleb128 0x13
 2190 0066 38       		.uleb128 0x38
 2191 0067 0B       		.uleb128 0xb
 2192 0068 00       		.byte	0
 2193 0069 00       		.byte	0
 2194 006a 09       		.uleb128 0x9
 2195 006b 0D       		.uleb128 0xd
 2196 006c 00       		.byte	0
 2197 006d 03       		.uleb128 0x3
 2198 006e 0E       		.uleb128 0xe
 2199 006f 3A       		.uleb128 0x3a
 2200 0070 0B       		.uleb128 0xb
 2201 0071 3B       		.uleb128 0x3b
 2202 0072 05       		.uleb128 0x5
 2203 0073 49       		.uleb128 0x49
 2204 0074 13       		.uleb128 0x13
 2205 0075 38       		.uleb128 0x38
 2206 0076 0B       		.uleb128 0xb
 2207 0077 00       		.byte	0
 2208 0078 00       		.byte	0
 2209 0079 0A       		.uleb128 0xa
 2210 007a 0F       		.uleb128 0xf
 2211 007b 00       		.byte	0
 2212 007c 0B       		.uleb128 0xb
 2213 007d 0B       		.uleb128 0xb
 2214 007e 49       		.uleb128 0x49
 2215 007f 13       		.uleb128 0x13
 2216 0080 00       		.byte	0
 2217 0081 00       		.byte	0
 2218 0082 0B       		.uleb128 0xb
 2219 0083 13       		.uleb128 0x13
 2220 0084 01       		.byte	0x1
 2221 0085 03       		.uleb128 0x3
 2222 0086 0E       		.uleb128 0xe
 2223 0087 0B       		.uleb128 0xb
ARM GAS  /var/folders/qd/4mxf5pkd0zdf0b9dd1hp39180000gn/T//ccgtQywa.s 			page 40


 2224 0088 0B       		.uleb128 0xb
 2225 0089 3A       		.uleb128 0x3a
 2226 008a 0B       		.uleb128 0xb
 2227 008b 3B       		.uleb128 0x3b
 2228 008c 05       		.uleb128 0x5
 2229 008d 01       		.uleb128 0x1
 2230 008e 13       		.uleb128 0x13
 2231 008f 00       		.byte	0
 2232 0090 00       		.byte	0
 2233 0091 0C       		.uleb128 0xc
 2234 0092 15       		.uleb128 0x15
 2235 0093 01       		.byte	0x1
 2236 0094 27       		.uleb128 0x27
 2237 0095 19       		.uleb128 0x19
 2238 0096 01       		.uleb128 0x1
 2239 0097 13       		.uleb128 0x13
 2240 0098 00       		.byte	0
 2241 0099 00       		.byte	0
 2242 009a 0D       		.uleb128 0xd
 2243 009b 05       		.uleb128 0x5
 2244 009c 00       		.byte	0
 2245 009d 49       		.uleb128 0x49
 2246 009e 13       		.uleb128 0x13
 2247 009f 00       		.byte	0
 2248 00a0 00       		.byte	0
 2249 00a1 0E       		.uleb128 0xe
 2250 00a2 0F       		.uleb128 0xf
 2251 00a3 00       		.byte	0
 2252 00a4 0B       		.uleb128 0xb
 2253 00a5 0B       		.uleb128 0xb
 2254 00a6 00       		.byte	0
 2255 00a7 00       		.byte	0
 2256 00a8 0F       		.uleb128 0xf
 2257 00a9 13       		.uleb128 0x13
 2258 00aa 01       		.byte	0x1
 2259 00ab 03       		.uleb128 0x3
 2260 00ac 0E       		.uleb128 0xe
 2261 00ad 0B       		.uleb128 0xb
 2262 00ae 05       		.uleb128 0x5
 2263 00af 3A       		.uleb128 0x3a
 2264 00b0 0B       		.uleb128 0xb
 2265 00b1 3B       		.uleb128 0x3b
 2266 00b2 05       		.uleb128 0x5
 2267 00b3 01       		.uleb128 0x1
 2268 00b4 13       		.uleb128 0x13
 2269 00b5 00       		.byte	0
 2270 00b6 00       		.byte	0
 2271 00b7 10       		.uleb128 0x10
 2272 00b8 34       		.uleb128 0x34
 2273 00b9 00       		.byte	0
 2274 00ba 03       		.uleb128 0x3
 2275 00bb 0E       		.uleb128 0xe
 2276 00bc 3A       		.uleb128 0x3a
 2277 00bd 0B       		.uleb128 0xb
 2278 00be 3B       		.uleb128 0x3b
 2279 00bf 05       		.uleb128 0x5
 2280 00c0 49       		.uleb128 0x49
ARM GAS  /var/folders/qd/4mxf5pkd0zdf0b9dd1hp39180000gn/T//ccgtQywa.s 			page 41


 2281 00c1 13       		.uleb128 0x13
 2282 00c2 3F       		.uleb128 0x3f
 2283 00c3 19       		.uleb128 0x19
 2284 00c4 3C       		.uleb128 0x3c
 2285 00c5 19       		.uleb128 0x19
 2286 00c6 00       		.byte	0
 2287 00c7 00       		.byte	0
 2288 00c8 11       		.uleb128 0x11
 2289 00c9 34       		.uleb128 0x34
 2290 00ca 00       		.byte	0
 2291 00cb 03       		.uleb128 0x3
 2292 00cc 0E       		.uleb128 0xe
 2293 00cd 3A       		.uleb128 0x3a
 2294 00ce 0B       		.uleb128 0xb
 2295 00cf 3B       		.uleb128 0x3b
 2296 00d0 0B       		.uleb128 0xb
 2297 00d1 49       		.uleb128 0x49
 2298 00d2 13       		.uleb128 0x13
 2299 00d3 3F       		.uleb128 0x3f
 2300 00d4 19       		.uleb128 0x19
 2301 00d5 3C       		.uleb128 0x3c
 2302 00d6 19       		.uleb128 0x19
 2303 00d7 00       		.byte	0
 2304 00d8 00       		.byte	0
 2305 00d9 12       		.uleb128 0x12
 2306 00da 0D       		.uleb128 0xd
 2307 00db 00       		.byte	0
 2308 00dc 03       		.uleb128 0x3
 2309 00dd 08       		.uleb128 0x8
 2310 00de 3A       		.uleb128 0x3a
 2311 00df 0B       		.uleb128 0xb
 2312 00e0 3B       		.uleb128 0x3b
 2313 00e1 0B       		.uleb128 0xb
 2314 00e2 49       		.uleb128 0x49
 2315 00e3 13       		.uleb128 0x13
 2316 00e4 38       		.uleb128 0x38
 2317 00e5 0B       		.uleb128 0xb
 2318 00e6 00       		.byte	0
 2319 00e7 00       		.byte	0
 2320 00e8 13       		.uleb128 0x13
 2321 00e9 13       		.uleb128 0x13
 2322 00ea 01       		.byte	0x1
 2323 00eb 0B       		.uleb128 0xb
 2324 00ec 0B       		.uleb128 0xb
 2325 00ed 3A       		.uleb128 0x3a
 2326 00ee 0B       		.uleb128 0xb
 2327 00ef 3B       		.uleb128 0x3b
 2328 00f0 0B       		.uleb128 0xb
 2329 00f1 01       		.uleb128 0x1
 2330 00f2 13       		.uleb128 0x13
 2331 00f3 00       		.byte	0
 2332 00f4 00       		.byte	0
 2333 00f5 14       		.uleb128 0x14
 2334 00f6 17       		.uleb128 0x17
 2335 00f7 01       		.byte	0x1
 2336 00f8 0B       		.uleb128 0xb
 2337 00f9 0B       		.uleb128 0xb
ARM GAS  /var/folders/qd/4mxf5pkd0zdf0b9dd1hp39180000gn/T//ccgtQywa.s 			page 42


 2338 00fa 3A       		.uleb128 0x3a
 2339 00fb 0B       		.uleb128 0xb
 2340 00fc 3B       		.uleb128 0x3b
 2341 00fd 0B       		.uleb128 0xb
 2342 00fe 01       		.uleb128 0x1
 2343 00ff 13       		.uleb128 0x13
 2344 0100 00       		.byte	0
 2345 0101 00       		.byte	0
 2346 0102 15       		.uleb128 0x15
 2347 0103 0D       		.uleb128 0xd
 2348 0104 00       		.byte	0
 2349 0105 03       		.uleb128 0x3
 2350 0106 0E       		.uleb128 0xe
 2351 0107 3A       		.uleb128 0x3a
 2352 0108 0B       		.uleb128 0xb
 2353 0109 3B       		.uleb128 0x3b
 2354 010a 05       		.uleb128 0x5
 2355 010b 49       		.uleb128 0x49
 2356 010c 13       		.uleb128 0x13
 2357 010d 00       		.byte	0
 2358 010e 00       		.byte	0
 2359 010f 16       		.uleb128 0x16
 2360 0110 26       		.uleb128 0x26
 2361 0111 00       		.byte	0
 2362 0112 49       		.uleb128 0x49
 2363 0113 13       		.uleb128 0x13
 2364 0114 00       		.byte	0
 2365 0115 00       		.byte	0
 2366 0116 17       		.uleb128 0x17
 2367 0117 01       		.uleb128 0x1
 2368 0118 01       		.byte	0x1
 2369 0119 49       		.uleb128 0x49
 2370 011a 13       		.uleb128 0x13
 2371 011b 01       		.uleb128 0x1
 2372 011c 13       		.uleb128 0x13
 2373 011d 00       		.byte	0
 2374 011e 00       		.byte	0
 2375 011f 18       		.uleb128 0x18
 2376 0120 21       		.uleb128 0x21
 2377 0121 00       		.byte	0
 2378 0122 49       		.uleb128 0x49
 2379 0123 13       		.uleb128 0x13
 2380 0124 2F       		.uleb128 0x2f
 2381 0125 0B       		.uleb128 0xb
 2382 0126 00       		.byte	0
 2383 0127 00       		.byte	0
 2384 0128 19       		.uleb128 0x19
 2385 0129 34       		.uleb128 0x34
 2386 012a 00       		.byte	0
 2387 012b 03       		.uleb128 0x3
 2388 012c 08       		.uleb128 0x8
 2389 012d 3A       		.uleb128 0x3a
 2390 012e 0B       		.uleb128 0xb
 2391 012f 3B       		.uleb128 0x3b
 2392 0130 05       		.uleb128 0x5
 2393 0131 49       		.uleb128 0x49
 2394 0132 13       		.uleb128 0x13
ARM GAS  /var/folders/qd/4mxf5pkd0zdf0b9dd1hp39180000gn/T//ccgtQywa.s 			page 43


 2395 0133 3F       		.uleb128 0x3f
 2396 0134 19       		.uleb128 0x19
 2397 0135 3C       		.uleb128 0x3c
 2398 0136 19       		.uleb128 0x19
 2399 0137 00       		.byte	0
 2400 0138 00       		.byte	0
 2401 0139 1A       		.uleb128 0x1a
 2402 013a 15       		.uleb128 0x15
 2403 013b 01       		.byte	0x1
 2404 013c 27       		.uleb128 0x27
 2405 013d 19       		.uleb128 0x19
 2406 013e 49       		.uleb128 0x49
 2407 013f 13       		.uleb128 0x13
 2408 0140 01       		.uleb128 0x1
 2409 0141 13       		.uleb128 0x13
 2410 0142 00       		.byte	0
 2411 0143 00       		.byte	0
 2412 0144 1B       		.uleb128 0x1b
 2413 0145 0D       		.uleb128 0xd
 2414 0146 00       		.byte	0
 2415 0147 03       		.uleb128 0x3
 2416 0148 0E       		.uleb128 0xe
 2417 0149 3A       		.uleb128 0x3a
 2418 014a 0B       		.uleb128 0xb
 2419 014b 3B       		.uleb128 0x3b
 2420 014c 0B       		.uleb128 0xb
 2421 014d 49       		.uleb128 0x49
 2422 014e 13       		.uleb128 0x13
 2423 014f 00       		.byte	0
 2424 0150 00       		.byte	0
 2425 0151 1C       		.uleb128 0x1c
 2426 0152 17       		.uleb128 0x17
 2427 0153 01       		.byte	0x1
 2428 0154 03       		.uleb128 0x3
 2429 0155 0E       		.uleb128 0xe
 2430 0156 0B       		.uleb128 0xb
 2431 0157 0B       		.uleb128 0xb
 2432 0158 3A       		.uleb128 0x3a
 2433 0159 0B       		.uleb128 0xb
 2434 015a 3B       		.uleb128 0x3b
 2435 015b 0B       		.uleb128 0xb
 2436 015c 01       		.uleb128 0x1
 2437 015d 13       		.uleb128 0x13
 2438 015e 00       		.byte	0
 2439 015f 00       		.byte	0
 2440 0160 1D       		.uleb128 0x1d
 2441 0161 0D       		.uleb128 0xd
 2442 0162 00       		.byte	0
 2443 0163 03       		.uleb128 0x3
 2444 0164 08       		.uleb128 0x8
 2445 0165 3A       		.uleb128 0x3a
 2446 0166 0B       		.uleb128 0xb
 2447 0167 3B       		.uleb128 0x3b
 2448 0168 0B       		.uleb128 0xb
 2449 0169 49       		.uleb128 0x49
 2450 016a 13       		.uleb128 0x13
 2451 016b 00       		.byte	0
ARM GAS  /var/folders/qd/4mxf5pkd0zdf0b9dd1hp39180000gn/T//ccgtQywa.s 			page 44


 2452 016c 00       		.byte	0
 2453 016d 1E       		.uleb128 0x1e
 2454 016e 2E       		.uleb128 0x2e
 2455 016f 01       		.byte	0x1
 2456 0170 3F       		.uleb128 0x3f
 2457 0171 19       		.uleb128 0x19
 2458 0172 03       		.uleb128 0x3
 2459 0173 0E       		.uleb128 0xe
 2460 0174 3A       		.uleb128 0x3a
 2461 0175 0B       		.uleb128 0xb
 2462 0176 3B       		.uleb128 0x3b
 2463 0177 0B       		.uleb128 0xb
 2464 0178 27       		.uleb128 0x27
 2465 0179 19       		.uleb128 0x19
 2466 017a 49       		.uleb128 0x49
 2467 017b 13       		.uleb128 0x13
 2468 017c 11       		.uleb128 0x11
 2469 017d 01       		.uleb128 0x1
 2470 017e 12       		.uleb128 0x12
 2471 017f 06       		.uleb128 0x6
 2472 0180 40       		.uleb128 0x40
 2473 0181 18       		.uleb128 0x18
 2474 0182 9742     		.uleb128 0x2117
 2475 0184 19       		.uleb128 0x19
 2476 0185 01       		.uleb128 0x1
 2477 0186 13       		.uleb128 0x13
 2478 0187 00       		.byte	0
 2479 0188 00       		.byte	0
 2480 0189 1F       		.uleb128 0x1f
 2481 018a 05       		.uleb128 0x5
 2482 018b 00       		.byte	0
 2483 018c 03       		.uleb128 0x3
 2484 018d 08       		.uleb128 0x8
 2485 018e 3A       		.uleb128 0x3a
 2486 018f 0B       		.uleb128 0xb
 2487 0190 3B       		.uleb128 0x3b
 2488 0191 0B       		.uleb128 0xb
 2489 0192 49       		.uleb128 0x49
 2490 0193 13       		.uleb128 0x13
 2491 0194 02       		.uleb128 0x2
 2492 0195 17       		.uleb128 0x17
 2493 0196 00       		.byte	0
 2494 0197 00       		.byte	0
 2495 0198 20       		.uleb128 0x20
 2496 0199 05       		.uleb128 0x5
 2497 019a 00       		.byte	0
 2498 019b 03       		.uleb128 0x3
 2499 019c 0E       		.uleb128 0xe
 2500 019d 3A       		.uleb128 0x3a
 2501 019e 0B       		.uleb128 0xb
 2502 019f 3B       		.uleb128 0x3b
 2503 01a0 0B       		.uleb128 0xb
 2504 01a1 49       		.uleb128 0x49
 2505 01a2 13       		.uleb128 0x13
 2506 01a3 02       		.uleb128 0x2
 2507 01a4 17       		.uleb128 0x17
 2508 01a5 00       		.byte	0
ARM GAS  /var/folders/qd/4mxf5pkd0zdf0b9dd1hp39180000gn/T//ccgtQywa.s 			page 45


 2509 01a6 00       		.byte	0
 2510 01a7 21       		.uleb128 0x21
 2511 01a8 34       		.uleb128 0x34
 2512 01a9 00       		.byte	0
 2513 01aa 03       		.uleb128 0x3
 2514 01ab 08       		.uleb128 0x8
 2515 01ac 3A       		.uleb128 0x3a
 2516 01ad 0B       		.uleb128 0xb
 2517 01ae 3B       		.uleb128 0x3b
 2518 01af 0B       		.uleb128 0xb
 2519 01b0 49       		.uleb128 0x49
 2520 01b1 13       		.uleb128 0x13
 2521 01b2 02       		.uleb128 0x2
 2522 01b3 17       		.uleb128 0x17
 2523 01b4 00       		.byte	0
 2524 01b5 00       		.byte	0
 2525 01b6 22       		.uleb128 0x22
 2526 01b7 34       		.uleb128 0x34
 2527 01b8 00       		.byte	0
 2528 01b9 03       		.uleb128 0x3
 2529 01ba 0E       		.uleb128 0xe
 2530 01bb 49       		.uleb128 0x49
 2531 01bc 13       		.uleb128 0x13
 2532 01bd 34       		.uleb128 0x34
 2533 01be 19       		.uleb128 0x19
 2534 01bf 00       		.byte	0
 2535 01c0 00       		.byte	0
 2536 01c1 23       		.uleb128 0x23
 2537 01c2 1D       		.uleb128 0x1d
 2538 01c3 01       		.byte	0x1
 2539 01c4 31       		.uleb128 0x31
 2540 01c5 13       		.uleb128 0x13
 2541 01c6 11       		.uleb128 0x11
 2542 01c7 01       		.uleb128 0x1
 2543 01c8 12       		.uleb128 0x12
 2544 01c9 06       		.uleb128 0x6
 2545 01ca 58       		.uleb128 0x58
 2546 01cb 0B       		.uleb128 0xb
 2547 01cc 59       		.uleb128 0x59
 2548 01cd 0B       		.uleb128 0xb
 2549 01ce 01       		.uleb128 0x1
 2550 01cf 13       		.uleb128 0x13
 2551 01d0 00       		.byte	0
 2552 01d1 00       		.byte	0
 2553 01d2 24       		.uleb128 0x24
 2554 01d3 1D       		.uleb128 0x1d
 2555 01d4 01       		.byte	0x1
 2556 01d5 31       		.uleb128 0x31
 2557 01d6 13       		.uleb128 0x13
 2558 01d7 11       		.uleb128 0x11
 2559 01d8 01       		.uleb128 0x1
 2560 01d9 12       		.uleb128 0x12
 2561 01da 06       		.uleb128 0x6
 2562 01db 58       		.uleb128 0x58
 2563 01dc 0B       		.uleb128 0xb
 2564 01dd 59       		.uleb128 0x59
 2565 01de 05       		.uleb128 0x5
ARM GAS  /var/folders/qd/4mxf5pkd0zdf0b9dd1hp39180000gn/T//ccgtQywa.s 			page 46


 2566 01df 00       		.byte	0
 2567 01e0 00       		.byte	0
 2568 01e1 25       		.uleb128 0x25
 2569 01e2 05       		.uleb128 0x5
 2570 01e3 00       		.byte	0
 2571 01e4 31       		.uleb128 0x31
 2572 01e5 13       		.uleb128 0x13
 2573 01e6 02       		.uleb128 0x2
 2574 01e7 17       		.uleb128 0x17
 2575 01e8 00       		.byte	0
 2576 01e9 00       		.byte	0
 2577 01ea 26       		.uleb128 0x26
 2578 01eb 0B       		.uleb128 0xb
 2579 01ec 01       		.byte	0x1
 2580 01ed 11       		.uleb128 0x11
 2581 01ee 01       		.uleb128 0x1
 2582 01ef 12       		.uleb128 0x12
 2583 01f0 06       		.uleb128 0x6
 2584 01f1 00       		.byte	0
 2585 01f2 00       		.byte	0
 2586 01f3 27       		.uleb128 0x27
 2587 01f4 34       		.uleb128 0x34
 2588 01f5 00       		.byte	0
 2589 01f6 31       		.uleb128 0x31
 2590 01f7 13       		.uleb128 0x13
 2591 01f8 00       		.byte	0
 2592 01f9 00       		.byte	0
 2593 01fa 28       		.uleb128 0x28
 2594 01fb 898201   		.uleb128 0x4109
 2595 01fe 01       		.byte	0x1
 2596 01ff 11       		.uleb128 0x11
 2597 0200 01       		.uleb128 0x1
 2598 0201 31       		.uleb128 0x31
 2599 0202 13       		.uleb128 0x13
 2600 0203 01       		.uleb128 0x1
 2601 0204 13       		.uleb128 0x13
 2602 0205 00       		.byte	0
 2603 0206 00       		.byte	0
 2604 0207 29       		.uleb128 0x29
 2605 0208 8A8201   		.uleb128 0x410a
 2606 020b 00       		.byte	0
 2607 020c 02       		.uleb128 0x2
 2608 020d 18       		.uleb128 0x18
 2609 020e 9142     		.uleb128 0x2111
 2610 0210 18       		.uleb128 0x18
 2611 0211 00       		.byte	0
 2612 0212 00       		.byte	0
 2613 0213 2A       		.uleb128 0x2a
 2614 0214 898201   		.uleb128 0x4109
 2615 0217 01       		.byte	0x1
 2616 0218 11       		.uleb128 0x11
 2617 0219 01       		.uleb128 0x1
 2618 021a 31       		.uleb128 0x31
 2619 021b 13       		.uleb128 0x13
 2620 021c 00       		.byte	0
 2621 021d 00       		.byte	0
 2622 021e 2B       		.uleb128 0x2b
ARM GAS  /var/folders/qd/4mxf5pkd0zdf0b9dd1hp39180000gn/T//ccgtQywa.s 			page 47


 2623 021f 2E       		.uleb128 0x2e
 2624 0220 01       		.byte	0x1
 2625 0221 3F       		.uleb128 0x3f
 2626 0222 19       		.uleb128 0x19
 2627 0223 03       		.uleb128 0x3
 2628 0224 0E       		.uleb128 0xe
 2629 0225 3A       		.uleb128 0x3a
 2630 0226 0B       		.uleb128 0xb
 2631 0227 3B       		.uleb128 0x3b
 2632 0228 0B       		.uleb128 0xb
 2633 0229 27       		.uleb128 0x27
 2634 022a 19       		.uleb128 0x19
 2635 022b 11       		.uleb128 0x11
 2636 022c 01       		.uleb128 0x1
 2637 022d 12       		.uleb128 0x12
 2638 022e 06       		.uleb128 0x6
 2639 022f 40       		.uleb128 0x40
 2640 0230 18       		.uleb128 0x18
 2641 0231 9742     		.uleb128 0x2117
 2642 0233 19       		.uleb128 0x19
 2643 0234 01       		.uleb128 0x1
 2644 0235 13       		.uleb128 0x13
 2645 0236 00       		.byte	0
 2646 0237 00       		.byte	0
 2647 0238 2C       		.uleb128 0x2c
 2648 0239 34       		.uleb128 0x34
 2649 023a 00       		.byte	0
 2650 023b 03       		.uleb128 0x3
 2651 023c 0E       		.uleb128 0xe
 2652 023d 3A       		.uleb128 0x3a
 2653 023e 0B       		.uleb128 0xb
 2654 023f 3B       		.uleb128 0x3b
 2655 0240 0B       		.uleb128 0xb
 2656 0241 49       		.uleb128 0x49
 2657 0242 13       		.uleb128 0x13
 2658 0243 02       		.uleb128 0x2
 2659 0244 17       		.uleb128 0x17
 2660 0245 00       		.byte	0
 2661 0246 00       		.byte	0
 2662 0247 2D       		.uleb128 0x2d
 2663 0248 898201   		.uleb128 0x4109
 2664 024b 01       		.byte	0x1
 2665 024c 11       		.uleb128 0x11
 2666 024d 01       		.uleb128 0x1
 2667 024e 9542     		.uleb128 0x2115
 2668 0250 19       		.uleb128 0x19
 2669 0251 31       		.uleb128 0x31
 2670 0252 13       		.uleb128 0x13
 2671 0253 01       		.uleb128 0x1
 2672 0254 13       		.uleb128 0x13
 2673 0255 00       		.byte	0
 2674 0256 00       		.byte	0
 2675 0257 2E       		.uleb128 0x2e
 2676 0258 898201   		.uleb128 0x4109
 2677 025b 00       		.byte	0
 2678 025c 11       		.uleb128 0x11
 2679 025d 01       		.uleb128 0x1
ARM GAS  /var/folders/qd/4mxf5pkd0zdf0b9dd1hp39180000gn/T//ccgtQywa.s 			page 48


 2680 025e 9542     		.uleb128 0x2115
 2681 0260 19       		.uleb128 0x19
 2682 0261 31       		.uleb128 0x31
 2683 0262 13       		.uleb128 0x13
 2684 0263 00       		.byte	0
 2685 0264 00       		.byte	0
 2686 0265 2F       		.uleb128 0x2f
 2687 0266 05       		.uleb128 0x5
 2688 0267 00       		.byte	0
 2689 0268 03       		.uleb128 0x3
 2690 0269 08       		.uleb128 0x8
 2691 026a 3A       		.uleb128 0x3a
 2692 026b 0B       		.uleb128 0xb
 2693 026c 3B       		.uleb128 0x3b
 2694 026d 0B       		.uleb128 0xb
 2695 026e 49       		.uleb128 0x49
 2696 026f 13       		.uleb128 0x13
 2697 0270 02       		.uleb128 0x2
 2698 0271 18       		.uleb128 0x18
 2699 0272 00       		.byte	0
 2700 0273 00       		.byte	0
 2701 0274 30       		.uleb128 0x30
 2702 0275 1D       		.uleb128 0x1d
 2703 0276 01       		.byte	0x1
 2704 0277 31       		.uleb128 0x31
 2705 0278 13       		.uleb128 0x13
 2706 0279 11       		.uleb128 0x11
 2707 027a 01       		.uleb128 0x1
 2708 027b 12       		.uleb128 0x12
 2709 027c 06       		.uleb128 0x6
 2710 027d 58       		.uleb128 0x58
 2711 027e 0B       		.uleb128 0xb
 2712 027f 59       		.uleb128 0x59
 2713 0280 0B       		.uleb128 0xb
 2714 0281 00       		.byte	0
 2715 0282 00       		.byte	0
 2716 0283 31       		.uleb128 0x31
 2717 0284 2E       		.uleb128 0x2e
 2718 0285 01       		.byte	0x1
 2719 0286 03       		.uleb128 0x3
 2720 0287 0E       		.uleb128 0xe
 2721 0288 3A       		.uleb128 0x3a
 2722 0289 0B       		.uleb128 0xb
 2723 028a 3B       		.uleb128 0x3b
 2724 028b 05       		.uleb128 0x5
 2725 028c 27       		.uleb128 0x27
 2726 028d 19       		.uleb128 0x19
 2727 028e 20       		.uleb128 0x20
 2728 028f 0B       		.uleb128 0xb
 2729 0290 01       		.uleb128 0x1
 2730 0291 13       		.uleb128 0x13
 2731 0292 00       		.byte	0
 2732 0293 00       		.byte	0
 2733 0294 32       		.uleb128 0x32
 2734 0295 34       		.uleb128 0x34
 2735 0296 00       		.byte	0
 2736 0297 03       		.uleb128 0x3
ARM GAS  /var/folders/qd/4mxf5pkd0zdf0b9dd1hp39180000gn/T//ccgtQywa.s 			page 49


 2737 0298 0E       		.uleb128 0xe
 2738 0299 49       		.uleb128 0x49
 2739 029a 13       		.uleb128 0x13
 2740 029b 34       		.uleb128 0x34
 2741 029c 19       		.uleb128 0x19
 2742 029d 1C       		.uleb128 0x1c
 2743 029e 0E       		.uleb128 0xe
 2744 029f 00       		.byte	0
 2745 02a0 00       		.byte	0
 2746 02a1 33       		.uleb128 0x33
 2747 02a2 2E       		.uleb128 0x2e
 2748 02a3 00       		.byte	0
 2749 02a4 03       		.uleb128 0x3
 2750 02a5 0E       		.uleb128 0xe
 2751 02a6 3A       		.uleb128 0x3a
 2752 02a7 0B       		.uleb128 0xb
 2753 02a8 3B       		.uleb128 0x3b
 2754 02a9 05       		.uleb128 0x5
 2755 02aa 27       		.uleb128 0x27
 2756 02ab 19       		.uleb128 0x19
 2757 02ac 20       		.uleb128 0x20
 2758 02ad 0B       		.uleb128 0xb
 2759 02ae 00       		.byte	0
 2760 02af 00       		.byte	0
 2761 02b0 34       		.uleb128 0x34
 2762 02b1 05       		.uleb128 0x5
 2763 02b2 00       		.byte	0
 2764 02b3 03       		.uleb128 0x3
 2765 02b4 0E       		.uleb128 0xe
 2766 02b5 3A       		.uleb128 0x3a
 2767 02b6 0B       		.uleb128 0xb
 2768 02b7 3B       		.uleb128 0x3b
 2769 02b8 05       		.uleb128 0x5
 2770 02b9 49       		.uleb128 0x49
 2771 02ba 13       		.uleb128 0x13
 2772 02bb 00       		.byte	0
 2773 02bc 00       		.byte	0
 2774 02bd 35       		.uleb128 0x35
 2775 02be 2E       		.uleb128 0x2e
 2776 02bf 00       		.byte	0
 2777 02c0 3F       		.uleb128 0x3f
 2778 02c1 19       		.uleb128 0x19
 2779 02c2 3C       		.uleb128 0x3c
 2780 02c3 19       		.uleb128 0x19
 2781 02c4 6E       		.uleb128 0x6e
 2782 02c5 0E       		.uleb128 0xe
 2783 02c6 03       		.uleb128 0x3
 2784 02c7 0E       		.uleb128 0xe
 2785 02c8 3A       		.uleb128 0x3a
 2786 02c9 0B       		.uleb128 0xb
 2787 02ca 3B       		.uleb128 0x3b
 2788 02cb 0B       		.uleb128 0xb
 2789 02cc 00       		.byte	0
 2790 02cd 00       		.byte	0
 2791 02ce 36       		.uleb128 0x36
 2792 02cf 2E       		.uleb128 0x2e
 2793 02d0 00       		.byte	0
ARM GAS  /var/folders/qd/4mxf5pkd0zdf0b9dd1hp39180000gn/T//ccgtQywa.s 			page 50


 2794 02d1 3F       		.uleb128 0x3f
 2795 02d2 19       		.uleb128 0x19
 2796 02d3 3C       		.uleb128 0x3c
 2797 02d4 19       		.uleb128 0x19
 2798 02d5 6E       		.uleb128 0x6e
 2799 02d6 0E       		.uleb128 0xe
 2800 02d7 03       		.uleb128 0x3
 2801 02d8 0E       		.uleb128 0xe
 2802 02d9 3A       		.uleb128 0x3a
 2803 02da 0B       		.uleb128 0xb
 2804 02db 3B       		.uleb128 0x3b
 2805 02dc 05       		.uleb128 0x5
 2806 02dd 00       		.byte	0
 2807 02de 00       		.byte	0
 2808 02df 00       		.byte	0
 2809              		.section	.debug_loc,"",%progbits
 2810              	.Ldebug_loc0:
 2811              	.LLST15:
 2812 0000 00000000 		.4byte	.LVL23
 2813 0004 11000000 		.4byte	.LVL24-1
 2814 0008 0100     		.2byte	0x1
 2815 000a 50       		.byte	0x50
 2816 000b 11000000 		.4byte	.LVL24-1
 2817 000f 48000000 		.4byte	.LFE232
 2818 0013 0100     		.2byte	0x1
 2819 0015 55       		.byte	0x55
 2820 0016 00000000 		.4byte	0
 2821 001a 00000000 		.4byte	0
 2822              	.LLST16:
 2823 001e 00000000 		.4byte	.LVL23
 2824 0022 11000000 		.4byte	.LVL24-1
 2825 0026 0100     		.2byte	0x1
 2826 0028 51       		.byte	0x51
 2827 0029 11000000 		.4byte	.LVL24-1
 2828 002d 48000000 		.4byte	.LFE232
 2829 0031 0100     		.2byte	0x1
 2830 0033 56       		.byte	0x56
 2831 0034 00000000 		.4byte	0
 2832 0038 00000000 		.4byte	0
 2833              	.LLST17:
 2834 003c 00000000 		.4byte	.LVL23
 2835 0040 11000000 		.4byte	.LVL24-1
 2836 0044 0100     		.2byte	0x1
 2837 0046 52       		.byte	0x52
 2838 0047 11000000 		.4byte	.LVL24-1
 2839 004b 48000000 		.4byte	.LFE232
 2840 004f 0100     		.2byte	0x1
 2841 0051 57       		.byte	0x57
 2842 0052 00000000 		.4byte	0
 2843 0056 00000000 		.4byte	0
 2844              	.LLST18:
 2845 005a 00000000 		.4byte	.LVL23
 2846 005e 11000000 		.4byte	.LVL24-1
 2847 0062 0100     		.2byte	0x1
 2848 0064 53       		.byte	0x53
 2849 0065 11000000 		.4byte	.LVL24-1
 2850 0069 48000000 		.4byte	.LFE232
ARM GAS  /var/folders/qd/4mxf5pkd0zdf0b9dd1hp39180000gn/T//ccgtQywa.s 			page 51


 2851 006d 0100     		.2byte	0x1
 2852 006f 58       		.byte	0x58
 2853 0070 00000000 		.4byte	0
 2854 0074 00000000 		.4byte	0
 2855              	.LLST19:
 2856 0078 12000000 		.4byte	.LVL24
 2857 007c 27000000 		.4byte	.LVL27-1
 2858 0080 0100     		.2byte	0x1
 2859 0082 50       		.byte	0x50
 2860 0083 44000000 		.4byte	.LVL31
 2861 0087 48000000 		.4byte	.LFE232
 2862 008b 0100     		.2byte	0x1
 2863 008d 50       		.byte	0x50
 2864 008e 00000000 		.4byte	0
 2865 0092 00000000 		.4byte	0
 2866              	.LLST20:
 2867 0096 32000000 		.4byte	.LVL28
 2868 009a 35000000 		.4byte	.LVL29-1
 2869 009e 0100     		.2byte	0x1
 2870 00a0 50       		.byte	0x50
 2871 00a1 35000000 		.4byte	.LVL29-1
 2872 00a5 3C000000 		.4byte	.LVL30
 2873 00a9 0100     		.2byte	0x1
 2874 00ab 54       		.byte	0x54
 2875 00ac 00000000 		.4byte	0
 2876 00b0 00000000 		.4byte	0
 2877              	.LLST21:
 2878 00b4 14000000 		.4byte	.LVL25
 2879 00b8 1A000000 		.4byte	.LVL26
 2880 00bc 0300     		.2byte	0x3
 2881 00be 08       		.byte	0x8
 2882 00bf 20       		.byte	0x20
 2883 00c0 9F       		.byte	0x9f
 2884 00c1 00000000 		.4byte	0
 2885 00c5 00000000 		.4byte	0
 2886              	.LLST22:
 2887 00c9 36000000 		.4byte	.LVL29
 2888 00cd 3C000000 		.4byte	.LVL30
 2889 00d1 0200     		.2byte	0x2
 2890 00d3 30       		.byte	0x30
 2891 00d4 9F       		.byte	0x9f
 2892 00d5 00000000 		.4byte	0
 2893 00d9 00000000 		.4byte	0
 2894              	.LLST6:
 2895 00dd 00000000 		.4byte	.LVL14
 2896 00e1 0D000000 		.4byte	.LVL15-1
 2897 00e5 0100     		.2byte	0x1
 2898 00e7 50       		.byte	0x50
 2899 00e8 0D000000 		.4byte	.LVL15-1
 2900 00ec 40000000 		.4byte	.LFE231
 2901 00f0 0400     		.2byte	0x4
 2902 00f2 F3       		.byte	0xf3
 2903 00f3 01       		.uleb128 0x1
 2904 00f4 50       		.byte	0x50
 2905 00f5 9F       		.byte	0x9f
 2906 00f6 00000000 		.4byte	0
 2907 00fa 00000000 		.4byte	0
ARM GAS  /var/folders/qd/4mxf5pkd0zdf0b9dd1hp39180000gn/T//ccgtQywa.s 			page 52


 2908              	.LLST7:
 2909 00fe 00000000 		.4byte	.LVL14
 2910 0102 0D000000 		.4byte	.LVL15-1
 2911 0106 0100     		.2byte	0x1
 2912 0108 51       		.byte	0x51
 2913 0109 0D000000 		.4byte	.LVL15-1
 2914 010d 40000000 		.4byte	.LFE231
 2915 0111 0100     		.2byte	0x1
 2916 0113 55       		.byte	0x55
 2917 0114 00000000 		.4byte	0
 2918 0118 00000000 		.4byte	0
 2919              	.LLST8:
 2920 011c 00000000 		.4byte	.LVL14
 2921 0120 0D000000 		.4byte	.LVL15-1
 2922 0124 0100     		.2byte	0x1
 2923 0126 52       		.byte	0x52
 2924 0127 0D000000 		.4byte	.LVL15-1
 2925 012b 40000000 		.4byte	.LFE231
 2926 012f 0100     		.2byte	0x1
 2927 0131 56       		.byte	0x56
 2928 0132 00000000 		.4byte	0
 2929 0136 00000000 		.4byte	0
 2930              	.LLST9:
 2931 013a 00000000 		.4byte	.LVL14
 2932 013e 0D000000 		.4byte	.LVL15-1
 2933 0142 0100     		.2byte	0x1
 2934 0144 53       		.byte	0x53
 2935 0145 0D000000 		.4byte	.LVL15-1
 2936 0149 40000000 		.4byte	.LFE231
 2937 014d 0100     		.2byte	0x1
 2938 014f 57       		.byte	0x57
 2939 0150 00000000 		.4byte	0
 2940 0154 00000000 		.4byte	0
 2941              	.LLST10:
 2942 0158 00000000 		.4byte	.LVL14
 2943 015c 3C000000 		.4byte	.LVL22
 2944 0160 0200     		.2byte	0x2
 2945 0162 91       		.byte	0x91
 2946 0163 00       		.sleb128 0
 2947 0164 3C000000 		.4byte	.LVL22
 2948 0168 40000000 		.4byte	.LFE231
 2949 016c 0200     		.2byte	0x2
 2950 016e 91       		.byte	0x91
 2951 016f 00       		.sleb128 0
 2952 0170 00000000 		.4byte	0
 2953 0174 00000000 		.4byte	0
 2954              	.LLST11:
 2955 0178 0E000000 		.4byte	.LVL15
 2956 017c 23000000 		.4byte	.LVL18-1
 2957 0180 0100     		.2byte	0x1
 2958 0182 50       		.byte	0x50
 2959 0183 3C000000 		.4byte	.LVL22
 2960 0187 40000000 		.4byte	.LFE231
 2961 018b 0100     		.2byte	0x1
 2962 018d 50       		.byte	0x50
 2963 018e 00000000 		.4byte	0
 2964 0192 00000000 		.4byte	0
ARM GAS  /var/folders/qd/4mxf5pkd0zdf0b9dd1hp39180000gn/T//ccgtQywa.s 			page 53


 2965              	.LLST12:
 2966 0196 2C000000 		.4byte	.LVL19
 2967 019a 2F000000 		.4byte	.LVL20-1
 2968 019e 0100     		.2byte	0x1
 2969 01a0 50       		.byte	0x50
 2970 01a1 2F000000 		.4byte	.LVL20-1
 2971 01a5 36000000 		.4byte	.LVL21
 2972 01a9 0100     		.2byte	0x1
 2973 01ab 54       		.byte	0x54
 2974 01ac 00000000 		.4byte	0
 2975 01b0 00000000 		.4byte	0
 2976              	.LLST13:
 2977 01b4 10000000 		.4byte	.LVL16
 2978 01b8 16000000 		.4byte	.LVL17
 2979 01bc 0300     		.2byte	0x3
 2980 01be 08       		.byte	0x8
 2981 01bf 20       		.byte	0x20
 2982 01c0 9F       		.byte	0x9f
 2983 01c1 00000000 		.4byte	0
 2984 01c5 00000000 		.4byte	0
 2985              	.LLST14:
 2986 01c9 30000000 		.4byte	.LVL20
 2987 01cd 36000000 		.4byte	.LVL21
 2988 01d1 0200     		.2byte	0x2
 2989 01d3 30       		.byte	0x30
 2990 01d4 9F       		.byte	0x9f
 2991 01d5 00000000 		.4byte	0
 2992 01d9 00000000 		.4byte	0
 2993              	.LLST2:
 2994 01dd 00000000 		.4byte	.LVL4
 2995 01e1 3D000000 		.4byte	.LVL10-1
 2996 01e5 0100     		.2byte	0x1
 2997 01e7 50       		.byte	0x50
 2998 01e8 3D000000 		.4byte	.LVL10-1
 2999 01ec 3E000000 		.4byte	.LVL10
 3000 01f0 0400     		.2byte	0x4
 3001 01f2 F3       		.byte	0xf3
 3002 01f3 01       		.uleb128 0x1
 3003 01f4 50       		.byte	0x50
 3004 01f5 9F       		.byte	0x9f
 3005 01f6 3E000000 		.4byte	.LVL10
 3006 01fa 48000000 		.4byte	.LVL12
 3007 01fe 0100     		.2byte	0x1
 3008 0200 50       		.byte	0x50
 3009 0201 48000000 		.4byte	.LVL12
 3010 0205 4D000000 		.4byte	.LVL13-1
 3011 0209 0100     		.2byte	0x1
 3012 020b 51       		.byte	0x51
 3013 020c 4D000000 		.4byte	.LVL13-1
 3014 0210 4E000000 		.4byte	.LFE230
 3015 0214 0400     		.2byte	0x4
 3016 0216 F3       		.byte	0xf3
 3017 0217 01       		.uleb128 0x1
 3018 0218 50       		.byte	0x50
 3019 0219 9F       		.byte	0x9f
 3020 021a 00000000 		.4byte	0
 3021 021e 00000000 		.4byte	0
ARM GAS  /var/folders/qd/4mxf5pkd0zdf0b9dd1hp39180000gn/T//ccgtQywa.s 			page 54


 3022              	.LLST3:
 3023 0222 10000000 		.4byte	.LVL6
 3024 0226 1A000000 		.4byte	.LVL8
 3025 022a 0100     		.2byte	0x1
 3026 022c 53       		.byte	0x53
 3027 022d 1A000000 		.4byte	.LVL8
 3028 0231 36000000 		.4byte	.LVL9
 3029 0235 0200     		.2byte	0x2
 3030 0237 70       		.byte	0x70
 3031 0238 1E       		.sleb128 30
 3032 0239 3E000000 		.4byte	.LVL10
 3033 023d 44000000 		.4byte	.LVL11
 3034 0241 0200     		.2byte	0x2
 3035 0243 70       		.byte	0x70
 3036 0244 1E       		.sleb128 30
 3037 0245 00000000 		.4byte	0
 3038 0249 00000000 		.4byte	0
 3039              	.LLST4:
 3040 024d 00000000 		.4byte	.LVL4
 3041 0251 08000000 		.4byte	.LVL5
 3042 0255 0300     		.2byte	0x3
 3043 0257 08       		.byte	0x8
 3044 0258 20       		.byte	0x20
 3045 0259 9F       		.byte	0x9f
 3046 025a 00000000 		.4byte	0
 3047 025e 00000000 		.4byte	0
 3048              	.LLST5:
 3049 0262 10000000 		.4byte	.LVL6
 3050 0266 16000000 		.4byte	.LVL7
 3051 026a 0200     		.2byte	0x2
 3052 026c 30       		.byte	0x30
 3053 026d 9F       		.byte	0x9f
 3054 026e 00000000 		.4byte	0
 3055 0272 00000000 		.4byte	0
 3056              	.LLST0:
 3057 0276 00000000 		.4byte	.LVL0
 3058 027a 06000000 		.4byte	.LVL1
 3059 027e 0300     		.2byte	0x3
 3060 0280 08       		.byte	0x8
 3061 0281 20       		.byte	0x20
 3062 0282 9F       		.byte	0x9f
 3063 0283 00000000 		.4byte	0
 3064 0287 00000000 		.4byte	0
 3065              	.LLST1:
 3066 028b 0C000000 		.4byte	.LVL2
 3067 028f 12000000 		.4byte	.LVL3
 3068 0293 0200     		.2byte	0x2
 3069 0295 30       		.byte	0x30
 3070 0296 9F       		.byte	0x9f
 3071 0297 00000000 		.4byte	0
 3072 029b 00000000 		.4byte	0
 3073              		.section	.debug_aranges,"",%progbits
 3074 0000 34000000 		.4byte	0x34
 3075 0004 0200     		.2byte	0x2
 3076 0006 00000000 		.4byte	.Ldebug_info0
 3077 000a 04       		.byte	0x4
 3078 000b 00       		.byte	0
ARM GAS  /var/folders/qd/4mxf5pkd0zdf0b9dd1hp39180000gn/T//ccgtQywa.s 			page 55


 3079 000c 0000     		.2byte	0
 3080 000e 0000     		.2byte	0
 3081 0010 00000000 		.4byte	.LFB229
 3082 0014 14000000 		.4byte	.LFE229-.LFB229
 3083 0018 00000000 		.4byte	.LFB230
 3084 001c 4E000000 		.4byte	.LFE230-.LFB230
 3085 0020 00000000 		.4byte	.LFB231
 3086 0024 40000000 		.4byte	.LFE231-.LFB231
 3087 0028 00000000 		.4byte	.LFB232
 3088 002c 48000000 		.4byte	.LFE232-.LFB232
 3089 0030 00000000 		.4byte	0
 3090 0034 00000000 		.4byte	0
 3091              		.section	.debug_ranges,"",%progbits
 3092              	.Ldebug_ranges0:
 3093 0000 00000000 		.4byte	.LFB229
 3094 0004 14000000 		.4byte	.LFE229
 3095 0008 00000000 		.4byte	.LFB230
 3096 000c 4E000000 		.4byte	.LFE230
 3097 0010 00000000 		.4byte	.LFB231
 3098 0014 40000000 		.4byte	.LFE231
 3099 0018 00000000 		.4byte	.LFB232
 3100 001c 48000000 		.4byte	.LFE232
 3101 0020 00000000 		.4byte	0
 3102 0024 00000000 		.4byte	0
 3103              		.section	.debug_line,"",%progbits
 3104              	.Ldebug_line0:
 3105 0000 33040000 		.section	.debug_str,"MS",%progbits,1
 3105      02006A03 
 3105      00000201 
 3105      FB0E0D00 
 3105      01010101 
 3106              	.LASF105:
 3107 0000 7466756E 		.ascii	"tfunc_t\000"
 3107      635F7400 
 3108              	.LASF54:
 3109 0008 72656164 		.ascii	"ready_list_t\000"
 3109      795F6C69 
 3109      73745F74 
 3109      00
 3110              	.LASF4:
 3111 0015 73697A65 		.ascii	"size_t\000"
 3111      5F7400
 3112              	.LASF90:
 3113 001c 7264796D 		.ascii	"rdymsg\000"
 3113      736700
 3114              	.LASF20:
 3115 0023 75696E74 		.ascii	"uint64_t\000"
 3115      36345F74 
 3115      00
 3116              	.LASF5:
 3117 002c 5F5F7569 		.ascii	"__uint8_t\000"
 3117      6E74385F 
 3117      7400
 3118              	.LASF87:
 3119 0036 706F7274 		.ascii	"port_intctx\000"
 3119      5F696E74 
 3119      63747800 
ARM GAS  /var/folders/qd/4mxf5pkd0zdf0b9dd1hp39180000gn/T//ccgtQywa.s 			page 56


 3120              	.LASF73:
 3121 0042 73797374 		.ascii	"system_debug_t\000"
 3121      656D5F64 
 3121      65627567 
 3121      5F7400
 3122              	.LASF152:
 3123 0051 706F7274 		.ascii	"port_lock\000"
 3123      5F6C6F63 
 3123      6B00
 3124              	.LASF127:
 3125 005b 6D656D67 		.ascii	"memgetfunc_t\000"
 3125      65746675 
 3125      6E635F74 
 3125      00
 3126              	.LASF15:
 3127 0068 6C6F6E67 		.ascii	"long long unsigned int\000"
 3127      206C6F6E 
 3127      6720756E 
 3127      7369676E 
 3127      65642069 
 3128              	.LASF112:
 3129 007f 63685F74 		.ascii	"ch_threadsize\000"
 3129      68726561 
 3129      6473697A 
 3129      6500
 3130              	.LASF91:
 3131 008d 65786974 		.ascii	"exitcode\000"
 3131      636F6465 
 3131      00
 3132              	.LASF131:
 3133 0096 685F6672 		.ascii	"h_free\000"
 3133      656500
 3134              	.LASF70:
 3135 009d 76697274 		.ascii	"virtual_timers_list_t\000"
 3135      75616C5F 
 3135      74696D65 
 3135      72735F6C 
 3135      6973745F 
 3136              	.LASF82:
 3137 00b3 49544D5F 		.ascii	"ITM_RxBuffer\000"
 3137      52784275 
 3137      66666572 
 3137      00
 3138              	.LASF146:
 3139 00c0 68656170 		.ascii	"heapp\000"
 3139      7000
 3140              	.LASF133:
 3141 00c6 6E657874 		.ascii	"next\000"
 3141      00
 3142              	.LASF53:
 3143 00cb 63685F74 		.ascii	"ch_threads_queue\000"
 3143      68726561 
 3143      64735F71 
 3143      75657565 
 3143      00
 3144              	.LASF33:
 3145 00dc 705F7072 		.ascii	"p_prio\000"
ARM GAS  /var/folders/qd/4mxf5pkd0zdf0b9dd1hp39180000gn/T//ccgtQywa.s 			page 57


 3145      696F00
 3146              	.LASF119:
 3147 00e3 63665F6F 		.ascii	"cf_off_state\000"
 3147      66665F73 
 3147      74617465 
 3147      00
 3148              	.LASF1:
 3149 00f0 6C6F6E67 		.ascii	"long long int\000"
 3149      206C6F6E 
 3149      6720696E 
 3149      7400
 3150              	.LASF3:
 3151 00fe 7369676E 		.ascii	"signed char\000"
 3151      65642063 
 3151      68617200 
 3152              	.LASF132:
 3153 010a 685F6D74 		.ascii	"h_mtx\000"
 3153      7800
 3154              	.LASF118:
 3155 0110 63665F6F 		.ascii	"cf_off_stklimit\000"
 3155      66665F73 
 3155      746B6C69 
 3155      6D697400 
 3156              	.LASF120:
 3157 0120 63665F6F 		.ascii	"cf_off_flags\000"
 3157      66665F66 
 3157      6C616773 
 3157      00
 3158              	.LASF47:
 3159 012d 705F6D70 		.ascii	"p_mpool\000"
 3159      6F6F6C00 
 3160              	.LASF101:
 3161 0135 6D5F7175 		.ascii	"m_queue\000"
 3161      65756500 
 3162              	.LASF159:
 3163 013d 63684865 		.ascii	"chHeapFree\000"
 3163      61704672 
 3163      656500
 3164              	.LASF79:
 3165 0148 76746C69 		.ascii	"vtlist\000"
 3165      737400
 3166              	.LASF151:
 3167 014f 706F7274 		.ascii	"port_unlock\000"
 3167      5F756E6C 
 3167      6F636B00 
 3168              	.LASF156:
 3169 015b 63685468 		.ascii	"chThdCreateI\000"
 3169      64437265 
 3169      61746549 
 3169      00
 3170              	.LASF93:
 3171 0168 77747472 		.ascii	"wttrp\000"
 3171      7000
 3172              	.LASF77:
 3173 016e 63685F73 		.ascii	"ch_system\000"
 3173      79737465 
 3173      6D00
ARM GAS  /var/folders/qd/4mxf5pkd0zdf0b9dd1hp39180000gn/T//ccgtQywa.s 			page 58


 3174              	.LASF11:
 3175 0178 6C6F6E67 		.ascii	"long int\000"
 3175      20696E74 
 3175      00
 3176              	.LASF145:
 3177 0181 63685468 		.ascii	"chThdCreateFromHeap\000"
 3177      64437265 
 3177      61746546 
 3177      726F6D48 
 3177      65617000 
 3178              	.LASF23:
 3179 0195 74737461 		.ascii	"tstate_t\000"
 3179      74655F74 
 3179      00
 3180              	.LASF128:
 3181 019e 6D656D6F 		.ascii	"memory_heap_t\000"
 3181      72795F68 
 3181      6561705F 
 3181      7400
 3182              	.LASF139:
 3183 01ac 6D705F6E 		.ascii	"mp_next\000"
 3183      65787400 
 3184              	.LASF109:
 3185 01b4 63685F76 		.ascii	"ch_version\000"
 3185      65727369 
 3185      6F6E00
 3186              	.LASF124:
 3187 01bf 63686465 		.ascii	"chdebug_t\000"
 3187      6275675F 
 3187      7400
 3188              	.LASF35:
 3189 01c9 705F6E65 		.ascii	"p_newer\000"
 3189      77657200 
 3190              	.LASF98:
 3191 01d1 735F7175 		.ascii	"s_queue\000"
 3191      65756500 
 3192              	.LASF144:
 3193 01d9 63685468 		.ascii	"chThdCreateFromMemoryPool\000"
 3193      64437265 
 3193      61746546 
 3193      726F6D4D 
 3193      656D6F72 
 3194              	.LASF59:
 3195 01f3 725F6E65 		.ascii	"r_newer\000"
 3195      77657200 
 3196              	.LASF141:
 3197 01fb 6D705F70 		.ascii	"mp_provider\000"
 3197      726F7669 
 3197      64657200 
 3198              	.LASF84:
 3199 0207 72656761 		.ascii	"regarm_t\000"
 3199      726D5F74 
 3199      00
 3200              	.LASF66:
 3201 0210 76745F70 		.ascii	"vt_prev\000"
 3201      72657600 
 3202              	.LASF126:
ARM GAS  /var/folders/qd/4mxf5pkd0zdf0b9dd1hp39180000gn/T//ccgtQywa.s 			page 59


 3203 0218 6D757465 		.ascii	"mutex_t\000"
 3203      785F7400 
 3204              	.LASF166:
 3205 0220 76616C75 		.ascii	"value\000"
 3205      6500
 3206              	.LASF135:
 3207 0226 616C6967 		.ascii	"align\000"
 3207      6E00
 3208              	.LASF81:
 3209 022c 69646C65 		.ascii	"idle_thread_wa\000"
 3209      5F746872 
 3209      6561645F 
 3209      776100
 3210              	.LASF28:
 3211 023b 636E745F 		.ascii	"cnt_t\000"
 3211      7400
 3212              	.LASF0:
 3213 0241 756E7369 		.ascii	"unsigned int\000"
 3213      676E6564 
 3213      20696E74 
 3213      00
 3214              	.LASF65:
 3215 024e 76745F6E 		.ascii	"vt_next\000"
 3215      65787400 
 3216              	.LASF17:
 3217 0256 75696E74 		.ascii	"uint16_t\000"
 3217      31365F74 
 3217      00
 3218              	.LASF83:
 3219 025f 53797374 		.ascii	"SystemCoreClock\000"
 3219      656D436F 
 3219      7265436C 
 3219      6F636B00 
 3220              	.LASF94:
 3221 026f 77747365 		.ascii	"wtsemp\000"
 3221      6D7000
 3222              	.LASF116:
 3223 0276 63665F6F 		.ascii	"cf_off_older\000"
 3223      66665F6F 
 3223      6C646572 
 3223      00
 3224              	.LASF42:
 3225 0283 705F6D73 		.ascii	"p_msgqueue\000"
 3225      67717565 
 3225      756500
 3226              	.LASF125:
 3227 028e 63685F64 		.ascii	"ch_debug\000"
 3227      65627567 
 3227      00
 3228              	.LASF142:
 3229 0297 6D656D6F 		.ascii	"memory_pool_t\000"
 3229      72795F70 
 3229      6F6F6C5F 
 3229      7400
 3230              	.LASF99:
 3231 02a5 735F636E 		.ascii	"s_cnt\000"
 3231      7400
ARM GAS  /var/folders/qd/4mxf5pkd0zdf0b9dd1hp39180000gn/T//ccgtQywa.s 			page 60


 3232              	.LASF9:
 3233 02ab 73686F72 		.ascii	"short unsigned int\000"
 3233      7420756E 
 3233      7369676E 
 3233      65642069 
 3233      6E7400
 3234              	.LASF50:
 3235 02be 63685F74 		.ascii	"ch_thread\000"
 3235      68726561 
 3235      6400
 3236              	.LASF157:
 3237 02c8 63685363 		.ascii	"chSchWakeupS\000"
 3237      6857616B 
 3237      65757053 
 3237      00
 3238              	.LASF80:
 3239 02d5 6D61696E 		.ascii	"mainthread\000"
 3239      74687265 
 3239      616400
 3240              	.LASF26:
 3241 02e0 6D73675F 		.ascii	"msg_t\000"
 3241      7400
 3242              	.LASF76:
 3243 02e6 63685F73 		.ascii	"ch_system_t\000"
 3243      79737465 
 3243      6D5F7400 
 3244              	.LASF123:
 3245 02f2 63665F6F 		.ascii	"cf_off_time\000"
 3245      66665F74 
 3245      696D6500 
 3246              	.LASF55:
 3247 02fe 63685F72 		.ascii	"ch_ready_list\000"
 3247      65616479 
 3247      5F6C6973 
 3247      7400
 3248              	.LASF27:
 3249 030c 6576656E 		.ascii	"eventmask_t\000"
 3249      746D6173 
 3249      6B5F7400 
 3250              	.LASF10:
 3251 0318 5F5F696E 		.ascii	"__int32_t\000"
 3251      7433325F 
 3251      7400
 3252              	.LASF149:
 3253 0322 63685468 		.ascii	"chThdAddRef\000"
 3253      64416464 
 3253      52656600 
 3254              	.LASF85:
 3255 032e 73746B61 		.ascii	"stkalign_t\000"
 3255      6C69676E 
 3255      5F7400
 3256              	.LASF107:
 3257 0339 63685F7A 		.ascii	"ch_zero\000"
 3257      65726F00 
 3258              	.LASF121:
 3259 0341 63665F6F 		.ascii	"cf_off_refs\000"
 3259      66665F72 
ARM GAS  /var/folders/qd/4mxf5pkd0zdf0b9dd1hp39180000gn/T//ccgtQywa.s 			page 61


 3259      65667300 
 3260              	.LASF41:
 3261 034d 705F7761 		.ascii	"p_waiting\000"
 3261      6974696E 
 3261      6700
 3262              	.LASF21:
 3263 0357 7274636E 		.ascii	"rtcnt_t\000"
 3263      745F7400 
 3264              	.LASF48:
 3265 035f 74687265 		.ascii	"thread_reference_t\000"
 3265      61645F72 
 3265      65666572 
 3265      656E6365 
 3265      5F7400
 3266              	.LASF161:
 3267 0372 474E5520 		.ascii	"GNU C11 7.2.1 20170904 (release) [ARM/embedded-7-br"
 3267      43313120 
 3267      372E322E 
 3267      31203230 
 3267      31373039 
 3268 03a5 616E6368 		.ascii	"anch revision 255204] -mcpu=cortex-m4 -mno-thumb-in"
 3268      20726576 
 3268      6973696F 
 3268      6E203235 
 3268      35323034 
 3269 03d8 74657277 		.ascii	"terwork -mthumb -ggdb -O2 -fomit-frame-pointer -fal"
 3269      6F726B20 
 3269      2D6D7468 
 3269      756D6220 
 3269      2D676764 
 3270 040b 69676E2D 		.ascii	"ign-functions=16 -ffunction-sections -fdata-section"
 3270      66756E63 
 3270      74696F6E 
 3270      733D3136 
 3270      202D6666 
 3271 043e 73202D66 		.ascii	"s -fno-common\000"
 3271      6E6F2D63 
 3271      6F6D6D6F 
 3271      6E00
 3272              	.LASF71:
 3273 044c 63685F76 		.ascii	"ch_virtual_timers_list\000"
 3273      69727475 
 3273      616C5F74 
 3273      696D6572 
 3273      735F6C69 
 3274              	.LASF2:
 3275 0463 6C6F6E67 		.ascii	"long double\000"
 3275      20646F75 
 3275      626C6500 
 3276              	.LASF111:
 3277 046f 63685F74 		.ascii	"ch_timesize\000"
 3277      696D6573 
 3277      697A6500 
 3278              	.LASF117:
 3279 047b 63665F6F 		.ascii	"cf_off_name\000"
 3279      66665F6E 
 3279      616D6500 
ARM GAS  /var/folders/qd/4mxf5pkd0zdf0b9dd1hp39180000gn/T//ccgtQywa.s 			page 62


 3280              	.LASF36:
 3281 0487 705F6F6C 		.ascii	"p_older\000"
 3281      64657200 
 3282              	.LASF58:
 3283 048f 725F6374 		.ascii	"r_ctx\000"
 3283      7800
 3284              	.LASF34:
 3285 0495 705F6374 		.ascii	"p_ctx\000"
 3285      7800
 3286              	.LASF140:
 3287 049b 6D705F6F 		.ascii	"mp_object_size\000"
 3287      626A6563 
 3287      745F7369 
 3287      7A6500
 3288              	.LASF89:
 3289 04aa 746D5F63 		.ascii	"tm_calibration_t\000"
 3289      616C6962 
 3289      72617469 
 3289      6F6E5F74 
 3289      00
 3290              	.LASF143:
 3291 04bb 7072696F 		.ascii	"prio\000"
 3291      00
 3292              	.LASF60:
 3293 04c0 725F6F6C 		.ascii	"r_older\000"
 3293      64657200 
 3294              	.LASF163:
 3295 04c8 2F557365 		.ascii	"/Users/nicolas/Library/Mobile Documents/com~apple~C"
 3295      72732F6E 
 3295      69636F6C 
 3295      61732F4C 
 3295      69627261 
 3296 04fb 6C6F7564 		.ascii	"loudDocs/Projects/Cours/epuck_project/Sources/lib/C"
 3296      446F6373 
 3296      2F50726F 
 3296      6A656374 
 3296      732F436F 
 3297 052e 68696269 		.ascii	"hibiOS/demos/STM32/RT-STM32F407-DISCOVERY-G++/\000"
 3297      4F532F64 
 3297      656D6F73 
 3297      2F53544D 
 3297      33322F52 
 3298              	.LASF14:
 3299 055d 5F5F7569 		.ascii	"__uint64_t\000"
 3299      6E743634 
 3299      5F7400
 3300              	.LASF138:
 3301 0568 70685F6E 		.ascii	"ph_next\000"
 3301      65787400 
 3302              	.LASF24:
 3303 0570 74726566 		.ascii	"trefs_t\000"
 3303      735F7400 
 3304              	.LASF110:
 3305 0578 63685F70 		.ascii	"ch_ptrsize\000"
 3305      74727369 
 3305      7A6500
 3306              	.LASF147:
ARM GAS  /var/folders/qd/4mxf5pkd0zdf0b9dd1hp39180000gn/T//ccgtQywa.s 			page 63


 3307 0583 72656673 		.ascii	"refs\000"
 3307      00
 3308              	.LASF63:
 3309 0588 76697274 		.ascii	"virtual_timer_t\000"
 3309      75616C5F 
 3309      74696D65 
 3309      725F7400 
 3310              	.LASF32:
 3311 0598 705F7072 		.ascii	"p_prev\000"
 3311      657600
 3312              	.LASF25:
 3313 059f 74707269 		.ascii	"tprio_t\000"
 3313      6F5F7400 
 3314              	.LASF74:
 3315 05a7 63685F73 		.ascii	"ch_system_debug\000"
 3315      79737465 
 3315      6D5F6465 
 3315      62756700 
 3316              	.LASF18:
 3317 05b7 696E7433 		.ascii	"int32_t\000"
 3317      325F7400 
 3318              	.LASF6:
 3319 05bf 756E7369 		.ascii	"unsigned char\000"
 3319      676E6564 
 3319      20636861 
 3319      7200
 3320              	.LASF164:
 3321 05cd 68656170 		.ascii	"heap_header\000"
 3321      5F686561 
 3321      64657200 
 3322              	.LASF45:
 3323 05d9 705F6D74 		.ascii	"p_mtxlist\000"
 3323      786C6973 
 3323      7400
 3324              	.LASF7:
 3325 05e3 73686F72 		.ascii	"short int\000"
 3325      7420696E 
 3325      7400
 3326              	.LASF38:
 3327 05ed 705F7374 		.ascii	"p_state\000"
 3327      61746500 
 3328              	.LASF57:
 3329 05f5 725F7072 		.ascii	"r_prio\000"
 3329      696F00
 3330              	.LASF96:
 3331 05fc 65776D61 		.ascii	"ewmask\000"
 3331      736B00
 3332              	.LASF31:
 3333 0603 705F6E65 		.ascii	"p_next\000"
 3333      787400
 3334              	.LASF22:
 3335 060a 746D6F64 		.ascii	"tmode_t\000"
 3335      655F7400 
 3336              	.LASF122:
 3337 0612 63665F6F 		.ascii	"cf_off_preempt\000"
 3337      66665F70 
 3337      7265656D 
ARM GAS  /var/folders/qd/4mxf5pkd0zdf0b9dd1hp39180000gn/T//ccgtQywa.s 			page 64


 3337      707400
 3338              	.LASF39:
 3339 0621 705F666C 		.ascii	"p_flags\000"
 3339      61677300 
 3340              	.LASF148:
 3341 0629 5F5F6675 		.ascii	"__func__\000"
 3341      6E635F5F 
 3341      00
 3342              	.LASF150:
 3343 0632 63685379 		.ascii	"chSysLock\000"
 3343      734C6F63 
 3343      6B00
 3344              	.LASF165:
 3345 063c 63685468 		.ascii	"chThdRelease\000"
 3345      6452656C 
 3345      65617365 
 3345      00
 3346              	.LASF52:
 3347 0649 74687265 		.ascii	"threads_queue_t\000"
 3347      6164735F 
 3347      71756575 
 3347      655F7400 
 3348              	.LASF158:
 3349 0659 63684865 		.ascii	"chHeapAlloc\000"
 3349      6170416C 
 3349      6C6F6300 
 3350              	.LASF115:
 3351 0665 63665F6F 		.ascii	"cf_off_newer\000"
 3351      66665F6E 
 3351      65776572 
 3351      00
 3352              	.LASF97:
 3353 0672 63685F73 		.ascii	"ch_semaphore\000"
 3353      656D6170 
 3353      686F7265 
 3353      00
 3354              	.LASF44:
 3355 067f 705F6570 		.ascii	"p_epending\000"
 3355      656E6469 
 3355      6E6700
 3356              	.LASF19:
 3357 068a 75696E74 		.ascii	"uint32_t\000"
 3357      33325F74 
 3357      00
 3358              	.LASF113:
 3359 0693 63665F6F 		.ascii	"cf_off_prio\000"
 3359      66665F70 
 3359      72696F00 
 3360              	.LASF56:
 3361 069f 725F7175 		.ascii	"r_queue\000"
 3361      65756500 
 3362              	.LASF67:
 3363 06a7 76745F64 		.ascii	"vt_delta\000"
 3363      656C7461 
 3363      00
 3364              	.LASF51:
 3365 06b0 63685F74 		.ascii	"ch_threads_list\000"
ARM GAS  /var/folders/qd/4mxf5pkd0zdf0b9dd1hp39180000gn/T//ccgtQywa.s 			page 65


 3365      68726561 
 3365      64735F6C 
 3365      69737400 
 3366              	.LASF162:
 3367 06c0 2E2E2F2E 		.ascii	"../../../os/rt/src/chdynamic.c\000"
 3367      2E2F2E2E 
 3367      2F6F732F 
 3367      72742F73 
 3367      72632F63 
 3368              	.LASF108:
 3369 06df 63685F73 		.ascii	"ch_size\000"
 3369      697A6500 
 3370              	.LASF134:
 3371 06e7 68656170 		.ascii	"heap\000"
 3371      00
 3372              	.LASF13:
 3373 06ec 6C6F6E67 		.ascii	"long unsigned int\000"
 3373      20756E73 
 3373      69676E65 
 3373      6420696E 
 3373      7400
 3374              	.LASF61:
 3375 06fe 725F6375 		.ascii	"r_current\000"
 3375      7272656E 
 3375      7400
 3376              	.LASF104:
 3377 0708 63686172 		.ascii	"char\000"
 3377      00
 3378              	.LASF95:
 3379 070d 77746D74 		.ascii	"wtmtxp\000"
 3379      787000
 3380              	.LASF8:
 3381 0714 5F5F7569 		.ascii	"__uint16_t\000"
 3381      6E743136 
 3381      5F7400
 3382              	.LASF30:
 3383 071f 74687265 		.ascii	"thread_t\000"
 3383      61645F74 
 3383      00
 3384              	.LASF103:
 3385 0728 6D5F6E65 		.ascii	"m_next\000"
 3385      787400
 3386              	.LASF29:
 3387 072f 73797374 		.ascii	"systime_t\000"
 3387      696D655F 
 3387      7400
 3388              	.LASF46:
 3389 0739 705F7265 		.ascii	"p_realprio\000"
 3389      616C7072 
 3389      696F00
 3390              	.LASF62:
 3391 0744 76746675 		.ascii	"vtfunc_t\000"
 3391      6E635F74 
 3391      00
 3392              	.LASF12:
 3393 074d 5F5F7569 		.ascii	"__uint32_t\000"
 3393      6E743332 
ARM GAS  /var/folders/qd/4mxf5pkd0zdf0b9dd1hp39180000gn/T//ccgtQywa.s 			page 66


 3393      5F7400
 3394              	.LASF154:
 3395 0758 5F5F7365 		.ascii	"__set_BASEPRI\000"
 3395      745F4241 
 3395      53455052 
 3395      4900
 3396              	.LASF75:
 3397 0766 70616E69 		.ascii	"panic_msg\000"
 3397      635F6D73 
 3397      6700
 3398              	.LASF88:
 3399 0770 6F666673 		.ascii	"offset\000"
 3399      657400
 3400              	.LASF100:
 3401 0777 63685F6D 		.ascii	"ch_mutex\000"
 3401      75746578 
 3401      00
 3402              	.LASF86:
 3403 0780 636F6E74 		.ascii	"context\000"
 3403      65787400 
 3404              	.LASF64:
 3405 0788 63685F76 		.ascii	"ch_virtual_timer\000"
 3405      69727475 
 3405      616C5F74 
 3405      696D6572 
 3405      00
 3406              	.LASF69:
 3407 0799 76745F70 		.ascii	"vt_par\000"
 3407      617200
 3408              	.LASF114:
 3409 07a0 63665F6F 		.ascii	"cf_off_ctx\000"
 3409      66665F63 
 3409      747800
 3410              	.LASF137:
 3411 07ab 706F6F6C 		.ascii	"pool_header\000"
 3411      5F686561 
 3411      64657200 
 3412              	.LASF40:
 3413 07b7 705F7265 		.ascii	"p_refs\000"
 3413      667300
 3414              	.LASF78:
 3415 07be 726C6973 		.ascii	"rlist\000"
 3415      7400
 3416              	.LASF16:
 3417 07c4 75696E74 		.ascii	"uint8_t\000"
 3417      385F7400 
 3418              	.LASF155:
 3419 07cc 6368506F 		.ascii	"chPoolAlloc\000"
 3419      6F6C416C 
 3419      6C6F6300 
 3420              	.LASF160:
 3421 07d8 6368506F 		.ascii	"chPoolFree\000"
 3421      6F6C4672 
 3421      656500
 3422              	.LASF130:
 3423 07e3 685F7072 		.ascii	"h_provider\000"
 3423      6F766964 
ARM GAS  /var/folders/qd/4mxf5pkd0zdf0b9dd1hp39180000gn/T//ccgtQywa.s 			page 67


 3423      657200
 3424              	.LASF72:
 3425 07ee 76745F6C 		.ascii	"vt_lasttime\000"
 3425      61737474 
 3425      696D6500 
 3426              	.LASF92:
 3427 07fa 77746F62 		.ascii	"wtobjp\000"
 3427      6A7000
 3428              	.LASF37:
 3429 0801 705F6E61 		.ascii	"p_name\000"
 3429      6D6500
 3430              	.LASF136:
 3431 0808 73697A65 		.ascii	"size\000"
 3431      00
 3432              	.LASF49:
 3433 080d 74687265 		.ascii	"threads_list_t\000"
 3433      6164735F 
 3433      6C697374 
 3433      5F7400
 3434              	.LASF153:
 3435 081c 63685379 		.ascii	"chSysUnlock\000"
 3435      73556E6C 
 3435      6F636B00 
 3436              	.LASF43:
 3437 0828 705F6D73 		.ascii	"p_msg\000"
 3437      6700
 3438              	.LASF102:
 3439 082e 6D5F6F77 		.ascii	"m_owner\000"
 3439      6E657200 
 3440              	.LASF106:
 3441 0836 63685F69 		.ascii	"ch_identifier\000"
 3441      64656E74 
 3441      69666965 
 3441      7200
 3442              	.LASF68:
 3443 0844 76745F66 		.ascii	"vt_func\000"
 3443      756E6300 
 3444              	.LASF129:
 3445 084c 6D656D6F 		.ascii	"memory_heap\000"
 3445      72795F68 
 3445      65617000 
 3446              		.ident	"GCC: (GNU Tools for Arm Embedded Processors 7-2017-q4-major) 7.2.1 20170904 (release) [ARM
ARM GAS  /var/folders/qd/4mxf5pkd0zdf0b9dd1hp39180000gn/T//ccgtQywa.s 			page 68


DEFINED SYMBOLS
                            *ABS*:0000000000000000 chdynamic.c
/var/folders/qd/4mxf5pkd0zdf0b9dd1hp39180000gn/T//ccgtQywa.s:16     .text.chThdAddRef:0000000000000000 $t
/var/folders/qd/4mxf5pkd0zdf0b9dd1hp39180000gn/T//ccgtQywa.s:24     .text.chThdAddRef:0000000000000000 chThdAddRef
/var/folders/qd/4mxf5pkd0zdf0b9dd1hp39180000gn/T//ccgtQywa.s:81     .text.chThdRelease:0000000000000000 $t
/var/folders/qd/4mxf5pkd0zdf0b9dd1hp39180000gn/T//ccgtQywa.s:89     .text.chThdRelease:0000000000000000 chThdRelease
/var/folders/qd/4mxf5pkd0zdf0b9dd1hp39180000gn/T//ccgtQywa.s:188    .text.chThdCreateFromHeap:0000000000000000 $t
/var/folders/qd/4mxf5pkd0zdf0b9dd1hp39180000gn/T//ccgtQywa.s:196    .text.chThdCreateFromHeap:0000000000000000 chThdCreateFromHeap
/var/folders/qd/4mxf5pkd0zdf0b9dd1hp39180000gn/T//ccgtQywa.s:294    .text.chThdCreateFromMemoryPool:0000000000000000 $t
/var/folders/qd/4mxf5pkd0zdf0b9dd1hp39180000gn/T//ccgtQywa.s:302    .text.chThdCreateFromMemoryPool:0000000000000000 chThdCreateFromMemoryPool

UNDEFINED SYMBOLS
chHeapFree
chPoolFree
chHeapAlloc
chThdCreateI
chSchWakeupS
chPoolAlloc
