ARM GAS  /var/folders/qd/4mxf5pkd0zdf0b9dd1hp39180000gn/T//ccK7EOPq.s 			page 1


   1              		.cpu cortex-m4
   2              		.eabi_attribute 20, 1
   3              		.eabi_attribute 21, 1
   4              		.eabi_attribute 23, 3
   5              		.eabi_attribute 24, 1
   6              		.eabi_attribute 25, 1
   7              		.eabi_attribute 26, 1
   8              		.eabi_attribute 30, 2
   9              		.eabi_attribute 34, 1
  10              		.eabi_attribute 18, 4
  11              		.file	"chevents.c"
  12              		.text
  13              	.Ltext0:
  14              		.cfi_sections	.debug_frame
  15              		.section	.text.chEvtRegisterMaskWithFlags,"ax",%progbits
  16              		.align	1
  17              		.p2align 4,,15
  18              		.global	chEvtRegisterMaskWithFlags
  19              		.syntax unified
  20              		.thumb
  21              		.thumb_func
  22              		.fpu softvfp
  23              		.type	chEvtRegisterMaskWithFlags, %function
  24              	chEvtRegisterMaskWithFlags:
  25              	.LFB229:
  26              		.file 1 "../../../os/rt/src/chevents.c"
  27              		.loc 1 106 0
  28              		.cfi_startproc
  29              		@ args = 0, pretend = 0, frame = 0
  30              		@ frame_needed = 0, uses_anonymous_args = 0
  31              		@ link register save eliminated.
  32              	.LVL0:
  33 0000 30B4     		push	{r4, r5}
  34              		.cfi_def_cfa_offset 8
  35              		.cfi_offset 4, -8
  36              		.cfi_offset 5, -4
  37              	.LBB174:
  38              	.LBB175:
  39              	.LBB176:
  40              	.LBB177:
  41              		.file 2 "../../../os/ext/CMSIS/include/core_cmFunc.h"
  42              		.loc 2 546 0
  43 0002 2024     		movs	r4, #32
  44              		.syntax unified
  45              	@ 546 "../../../os/ext/CMSIS/include/core_cmFunc.h" 1
  46 0004 84F31188 		MSR basepri, r4
  47              	@ 0 "" 2
  48              	.LVL1:
  49              		.thumb
  50              		.syntax unified
  51              	.LBE177:
  52              	.LBE176:
  53              	.LBE175:
  54              	.LBE174:
  55              		.loc 1 113 0
  56 0008 064D     		ldr	r5, .L4
  57              		.loc 1 111 0
ARM GAS  /var/folders/qd/4mxf5pkd0zdf0b9dd1hp39180000gn/T//ccK7EOPq.s 			page 2


  58 000a 0468     		ldr	r4, [r0]
  59              		.loc 1 113 0
  60 000c AD69     		ldr	r5, [r5, #24]
  61              		.loc 1 111 0
  62 000e 0C60     		str	r4, [r1]
  63              		.loc 1 115 0
  64 0010 0024     		movs	r4, #0
  65              		.loc 1 112 0
  66 0012 0160     		str	r1, [r0]
  67              		.loc 1 114 0
  68 0014 C1E90152 		strd	r5, r2, [r1, #4]
  69              		.loc 1 115 0
  70 0018 C1E90343 		strd	r4, r3, [r1, #12]
  71              	.LBB178:
  72              	.LBB179:
  73              	.LBB180:
  74              	.LBB181:
  75              	.LBB182:
  76              		.loc 2 546 0
  77              		.syntax unified
  78              	@ 546 "../../../os/ext/CMSIS/include/core_cmFunc.h" 1
  79 001c 84F31188 		MSR basepri, r4
  80              	@ 0 "" 2
  81              		.thumb
  82              		.syntax unified
  83              	.LBE182:
  84              	.LBE181:
  85              	.LBE180:
  86              	.LBE179:
  87              	.LBE178:
  88              		.loc 1 118 0
  89 0020 30BC     		pop	{r4, r5}
  90              		.cfi_restore 5
  91              		.cfi_restore 4
  92              		.cfi_def_cfa_offset 0
  93 0022 7047     		bx	lr
  94              	.L5:
  95              		.align	2
  96              	.L4:
  97 0024 00000000 		.word	ch
  98              		.cfi_endproc
  99              	.LFE229:
 100              		.size	chEvtRegisterMaskWithFlags, .-chEvtRegisterMaskWithFlags
 101              		.section	.text.chEvtUnregister,"ax",%progbits
 102              		.align	1
 103              		.p2align 4,,15
 104              		.global	chEvtUnregister
 105              		.syntax unified
 106              		.thumb
 107              		.thumb_func
 108              		.fpu softvfp
 109              		.type	chEvtUnregister, %function
 110              	chEvtUnregister:
 111              	.LFB230:
 112              		.loc 1 133 0
 113              		.cfi_startproc
 114              		@ args = 0, pretend = 0, frame = 0
ARM GAS  /var/folders/qd/4mxf5pkd0zdf0b9dd1hp39180000gn/T//ccK7EOPq.s 			page 3


 115              		@ frame_needed = 0, uses_anonymous_args = 0
 116              		@ link register save eliminated.
 117              	.LVL2:
 118              	.LBB183:
 119              	.LBB184:
 120              	.LBB185:
 121              	.LBB186:
 122              		.loc 2 546 0
 123 0000 2023     		movs	r3, #32
 124              		.syntax unified
 125              	@ 546 "../../../os/ext/CMSIS/include/core_cmFunc.h" 1
 126 0002 83F31188 		MSR basepri, r3
 127              	@ 0 "" 2
 128              	.LVL3:
 129              		.thumb
 130              		.syntax unified
 131              	.LBE186:
 132              	.LBE185:
 133              	.LBE184:
 134              	.LBE183:
 135              		.loc 1 139 0
 136 0006 0246     		mov	r2, r0
 137 0008 02E0     		b	.L7
 138              	.LVL4:
 139              	.L9:
 140              		.loc 1 145 0
 141 000a 8B42     		cmp	r3, r1
 142 000c 07D0     		beq	.L11
 143 000e 1A46     		mov	r2, r3
 144              	.LVL5:
 145              	.L7:
 146              		.loc 1 143 0
 147 0010 1368     		ldr	r3, [r2]
 148 0012 8342     		cmp	r3, r0
 149 0014 F9D1     		bne	.L9
 150              	.LVL6:
 151              	.LBB187:
 152              	.LBB188:
 153              	.LBB189:
 154              	.LBB190:
 155              	.LBB191:
 156              		.loc 2 546 0
 157 0016 0023     		movs	r3, #0
 158              		.syntax unified
 159              	@ 546 "../../../os/ext/CMSIS/include/core_cmFunc.h" 1
 160 0018 83F31188 		MSR basepri, r3
 161              	@ 0 "" 2
 162              	.LVL7:
 163              		.thumb
 164              		.syntax unified
 165              	.LBE191:
 166              	.LBE190:
 167              	.LBE189:
 168              	.LBE188:
 169              	.LBE187:
 170              		.loc 1 152 0
 171 001c 7047     		bx	lr
ARM GAS  /var/folders/qd/4mxf5pkd0zdf0b9dd1hp39180000gn/T//ccK7EOPq.s 			page 4


 172              	.L11:
 173              		.loc 1 146 0
 174 001e 0B68     		ldr	r3, [r1]
 175 0020 1360     		str	r3, [r2]
 176              	.LVL8:
 177              	.LBB196:
 178              	.LBB195:
 179              	.LBB194:
 180              	.LBB193:
 181              	.LBB192:
 182              		.loc 2 546 0
 183 0022 0023     		movs	r3, #0
 184              		.syntax unified
 185              	@ 546 "../../../os/ext/CMSIS/include/core_cmFunc.h" 1
 186 0024 83F31188 		MSR basepri, r3
 187              	@ 0 "" 2
 188              	.LVL9:
 189              		.thumb
 190              		.syntax unified
 191              	.LBE192:
 192              	.LBE193:
 193              	.LBE194:
 194              	.LBE195:
 195              	.LBE196:
 196              		.loc 1 152 0
 197 0028 7047     		bx	lr
 198              		.cfi_endproc
 199              	.LFE230:
 200              		.size	chEvtUnregister, .-chEvtUnregister
 201 002a 00BF     		.section	.text.chEvtGetAndClearEvents,"ax",%progbits
 202              		.align	1
 203              		.p2align 4,,15
 204              		.global	chEvtGetAndClearEvents
 205              		.syntax unified
 206              		.thumb
 207              		.thumb_func
 208              		.fpu softvfp
 209              		.type	chEvtGetAndClearEvents, %function
 210              	chEvtGetAndClearEvents:
 211              	.LFB231:
 212              		.loc 1 162 0
 213              		.cfi_startproc
 214              		@ args = 0, pretend = 0, frame = 0
 215              		@ frame_needed = 0, uses_anonymous_args = 0
 216              		@ link register save eliminated.
 217              	.LVL10:
 218              	.LBB197:
 219              	.LBB198:
 220              	.LBB199:
 221              	.LBB200:
 222              		.loc 2 546 0
 223 0000 2023     		movs	r3, #32
 224              		.syntax unified
 225              	@ 546 "../../../os/ext/CMSIS/include/core_cmFunc.h" 1
 226 0002 83F31188 		MSR basepri, r3
 227              	@ 0 "" 2
 228              	.LVL11:
ARM GAS  /var/folders/qd/4mxf5pkd0zdf0b9dd1hp39180000gn/T//ccK7EOPq.s 			page 5


 229              		.thumb
 230              		.syntax unified
 231              	.LBE200:
 232              	.LBE199:
 233              	.LBE198:
 234              	.LBE197:
 235              		.loc 1 166 0
 236 0006 054B     		ldr	r3, .L13
 237 0008 9A69     		ldr	r2, [r3, #24]
 238 000a 536B     		ldr	r3, [r2, #52]
 239              	.LVL12:
 240              		.loc 1 167 0
 241 000c 23EA0001 		bic	r1, r3, r0
 242 0010 5163     		str	r1, [r2, #52]
 243              	.LVL13:
 244              	.LBB201:
 245              	.LBB202:
 246              	.LBB203:
 247              	.LBB204:
 248              	.LBB205:
 249              		.loc 2 546 0
 250 0012 0022     		movs	r2, #0
 251              		.syntax unified
 252              	@ 546 "../../../os/ext/CMSIS/include/core_cmFunc.h" 1
 253 0014 82F31188 		MSR basepri, r2
 254              	@ 0 "" 2
 255              	.LVL14:
 256              		.thumb
 257              		.syntax unified
 258              	.LBE205:
 259              	.LBE204:
 260              	.LBE203:
 261              	.LBE202:
 262              	.LBE201:
 263              		.loc 1 171 0
 264 0018 1840     		ands	r0, r0, r3
 265              	.LVL15:
 266 001a 7047     		bx	lr
 267              	.L14:
 268              		.align	2
 269              	.L13:
 270 001c 00000000 		.word	ch
 271              		.cfi_endproc
 272              	.LFE231:
 273              		.size	chEvtGetAndClearEvents, .-chEvtGetAndClearEvents
 274              		.section	.text.chEvtAddEvents,"ax",%progbits
 275              		.align	1
 276              		.p2align 4,,15
 277              		.global	chEvtAddEvents
 278              		.syntax unified
 279              		.thumb
 280              		.thumb_func
 281              		.fpu softvfp
 282              		.type	chEvtAddEvents, %function
 283              	chEvtAddEvents:
 284              	.LFB232:
 285              		.loc 1 182 0
ARM GAS  /var/folders/qd/4mxf5pkd0zdf0b9dd1hp39180000gn/T//ccK7EOPq.s 			page 6


 286              		.cfi_startproc
 287              		@ args = 0, pretend = 0, frame = 0
 288              		@ frame_needed = 0, uses_anonymous_args = 0
 289              		@ link register save eliminated.
 290              	.LVL16:
 291              	.LBB206:
 292              	.LBB207:
 293              	.LBB208:
 294              	.LBB209:
 295              		.loc 2 546 0
 296 0000 2023     		movs	r3, #32
 297              		.syntax unified
 298              	@ 546 "../../../os/ext/CMSIS/include/core_cmFunc.h" 1
 299 0002 83F31188 		MSR basepri, r3
 300              	@ 0 "" 2
 301              	.LVL17:
 302              		.thumb
 303              		.syntax unified
 304              	.LBE209:
 305              	.LBE208:
 306              	.LBE207:
 307              	.LBE206:
 308              		.loc 1 185 0
 309 0006 044B     		ldr	r3, .L16
 310 0008 9B69     		ldr	r3, [r3, #24]
 311 000a 5A6B     		ldr	r2, [r3, #52]
 312 000c 1043     		orrs	r0, r0, r2
 313              	.LVL18:
 314 000e 5863     		str	r0, [r3, #52]
 315              	.LVL19:
 316              	.LBB210:
 317              	.LBB211:
 318              	.LBB212:
 319              	.LBB213:
 320              	.LBB214:
 321              		.loc 2 546 0
 322 0010 0023     		movs	r3, #0
 323              		.syntax unified
 324              	@ 546 "../../../os/ext/CMSIS/include/core_cmFunc.h" 1
 325 0012 83F31188 		MSR basepri, r3
 326              	@ 0 "" 2
 327              	.LVL20:
 328              		.thumb
 329              		.syntax unified
 330              	.LBE214:
 331              	.LBE213:
 332              	.LBE212:
 333              	.LBE211:
 334              	.LBE210:
 335              		.loc 1 190 0
 336 0016 7047     		bx	lr
 337              	.L17:
 338              		.align	2
 339              	.L16:
 340 0018 00000000 		.word	ch
 341              		.cfi_endproc
 342              	.LFE232:
ARM GAS  /var/folders/qd/4mxf5pkd0zdf0b9dd1hp39180000gn/T//ccK7EOPq.s 			page 7


 343              		.size	chEvtAddEvents, .-chEvtAddEvents
 344              		.section	.text.chEvtGetAndClearFlags,"ax",%progbits
 345              		.align	1
 346              		.p2align 4,,15
 347              		.global	chEvtGetAndClearFlags
 348              		.syntax unified
 349              		.thumb
 350              		.thumb_func
 351              		.fpu softvfp
 352              		.type	chEvtGetAndClearFlags, %function
 353              	chEvtGetAndClearFlags:
 354              	.LFB234:
 355              		.loc 1 241 0
 356              		.cfi_startproc
 357              		@ args = 0, pretend = 0, frame = 0
 358              		@ frame_needed = 0, uses_anonymous_args = 0
 359              		@ link register save eliminated.
 360              	.LVL21:
 361              		.loc 1 241 0
 362 0000 0246     		mov	r2, r0
 363              	.LBB215:
 364              	.LBB216:
 365              	.LBB217:
 366              	.LBB218:
 367              		.loc 2 546 0
 368 0002 2023     		movs	r3, #32
 369              		.syntax unified
 370              	@ 546 "../../../os/ext/CMSIS/include/core_cmFunc.h" 1
 371 0004 83F31188 		MSR basepri, r3
 372              	@ 0 "" 2
 373              	.LVL22:
 374              		.thumb
 375              		.syntax unified
 376              	.LBE218:
 377              	.LBE217:
 378              	.LBE216:
 379              	.LBE215:
 380              		.loc 1 246 0
 381 0008 0023     		movs	r3, #0
 382              		.loc 1 245 0
 383 000a C068     		ldr	r0, [r0, #12]
 384              	.LVL23:
 385              		.loc 1 246 0
 386 000c D360     		str	r3, [r2, #12]
 387              	.LVL24:
 388              	.LBB219:
 389              	.LBB220:
 390              	.LBB221:
 391              	.LBB222:
 392              	.LBB223:
 393              		.loc 2 546 0
 394              		.syntax unified
 395              	@ 546 "../../../os/ext/CMSIS/include/core_cmFunc.h" 1
 396 000e 83F31188 		MSR basepri, r3
 397              	@ 0 "" 2
 398              	.LVL25:
 399              		.thumb
ARM GAS  /var/folders/qd/4mxf5pkd0zdf0b9dd1hp39180000gn/T//ccK7EOPq.s 			page 8


 400              		.syntax unified
 401              	.LBE223:
 402              	.LBE222:
 403              	.LBE221:
 404              	.LBE220:
 405              	.LBE219:
 406              		.loc 1 250 0
 407 0012 7047     		bx	lr
 408              		.cfi_endproc
 409              	.LFE234:
 410              		.size	chEvtGetAndClearFlags, .-chEvtGetAndClearFlags
 411              		.section	.text.chEvtSignalI,"ax",%progbits
 412              		.align	1
 413              		.p2align 4,,15
 414              		.global	chEvtSignalI
 415              		.syntax unified
 416              		.thumb
 417              		.thumb_func
 418              		.fpu softvfp
 419              		.type	chEvtSignalI, %function
 420              	chEvtSignalI:
 421              	.LFB236:
 422              		.loc 1 282 0
 423              		.cfi_startproc
 424              		@ args = 0, pretend = 0, frame = 0
 425              		@ frame_needed = 0, uses_anonymous_args = 0
 426              		@ link register save eliminated.
 427              	.LVL26:
 428              		.loc 1 287 0
 429 0000 436B     		ldr	r3, [r0, #52]
 430              		.loc 1 289 0
 431 0002 027F     		ldrb	r2, [r0, #28]	@ zero_extendqisi2
 432              		.loc 1 287 0
 433 0004 1943     		orrs	r1, r1, r3
 434              	.LVL27:
 435              		.loc 1 289 0
 436 0006 0A2A     		cmp	r2, #10
 437              		.loc 1 287 0
 438 0008 4163     		str	r1, [r0, #52]
 439              		.loc 1 289 0
 440 000a 09D0     		beq	.L23
 441              		.loc 1 290 0
 442 000c 0B2A     		cmp	r2, #11
 443 000e 00D0     		beq	.L24
 444              	.L19:
 445              		.loc 1 296 0
 446 0010 7047     		bx	lr
 447              	.L24:
 448              		.loc 1 292 0
 449 0012 036A     		ldr	r3, [r0, #32]
 450              		.loc 1 291 0
 451 0014 8B43     		bics	r3, r3, r1
 452 0016 FBD1     		bne	.L19
 453              	.L21:
 454              		.loc 1 293 0
 455 0018 0023     		movs	r3, #0
 456 001a 0362     		str	r3, [r0, #32]
ARM GAS  /var/folders/qd/4mxf5pkd0zdf0b9dd1hp39180000gn/T//ccK7EOPq.s 			page 9


 457              		.loc 1 294 0
 458 001c FFF7FEBF 		b	chSchReadyI
 459              	.LVL28:
 460              	.L23:
 461              		.loc 1 290 0 discriminator 1
 462 0020 036A     		ldr	r3, [r0, #32]
 463              		.loc 1 289 0 discriminator 1
 464 0022 1942     		tst	r1, r3
 465 0024 F8D1     		bne	.L21
 466 0026 7047     		bx	lr
 467              		.cfi_endproc
 468              	.LFE236:
 469              		.size	chEvtSignalI, .-chEvtSignalI
 470              		.section	.text.chEvtBroadcastFlagsI,"ax",%progbits
 471              		.align	1
 472              		.p2align 4,,15
 473              		.global	chEvtBroadcastFlagsI
 474              		.syntax unified
 475              		.thumb
 476              		.thumb_func
 477              		.fpu softvfp
 478              		.type	chEvtBroadcastFlagsI, %function
 479              	chEvtBroadcastFlagsI:
 480              	.LFB233:
 481              		.loc 1 209 0
 482              		.cfi_startproc
 483              		@ args = 0, pretend = 0, frame = 0
 484              		@ frame_needed = 0, uses_anonymous_args = 0
 485              	.LVL29:
 486 0000 70B5     		push	{r4, r5, r6, lr}
 487              		.cfi_def_cfa_offset 16
 488              		.cfi_offset 4, -16
 489              		.cfi_offset 5, -12
 490              		.cfi_offset 6, -8
 491              		.cfi_offset 14, -4
 492              		.loc 1 215 0
 493 0002 0468     		ldr	r4, [r0]
 494              	.LVL30:
 495              		.loc 1 217 0
 496 0004 A042     		cmp	r0, r4
 497 0006 0FD0     		beq	.L25
 498 0008 0646     		mov	r6, r0
 499 000a 0D46     		mov	r5, r1
 500              	.LVL31:
 501              	.L29:
 502              		.loc 1 219 0
 503 000c E368     		ldr	r3, [r4, #12]
 504 000e 2B43     		orrs	r3, r3, r5
 505 0010 E360     		str	r3, [r4, #12]
 506              		.loc 1 222 0
 507 0012 15B1     		cbz	r5, .L27
 508              		.loc 1 223 0 discriminator 1
 509 0014 2269     		ldr	r2, [r4, #16]
 510              		.loc 1 222 0 discriminator 1
 511 0016 1342     		tst	r3, r2
 512 0018 03D0     		beq	.L28
 513              	.L27:
ARM GAS  /var/folders/qd/4mxf5pkd0zdf0b9dd1hp39180000gn/T//ccK7EOPq.s 			page 10


 514              		.loc 1 224 0
 515 001a D4E90101 		ldrd	r0, r1, [r4, #4]
 516 001e FFF7FEFF 		bl	chEvtSignalI
 517              	.LVL32:
 518              	.L28:
 519              		.loc 1 226 0
 520 0022 2468     		ldr	r4, [r4]
 521              	.LVL33:
 522              		.loc 1 217 0
 523 0024 A642     		cmp	r6, r4
 524 0026 F1D1     		bne	.L29
 525              	.LVL34:
 526              	.L25:
 527              		.loc 1 228 0
 528 0028 70BD     		pop	{r4, r5, r6, pc}
 529              		.cfi_endproc
 530              	.LFE233:
 531              		.size	chEvtBroadcastFlagsI, .-chEvtBroadcastFlagsI
 532 002a 00BF     		.section	.text.chEvtSignal,"ax",%progbits
 533              		.align	1
 534              		.p2align 4,,15
 535              		.global	chEvtSignal
 536              		.syntax unified
 537              		.thumb
 538              		.thumb_func
 539              		.fpu softvfp
 540              		.type	chEvtSignal, %function
 541              	chEvtSignal:
 542              	.LFB235:
 543              		.loc 1 260 0
 544              		.cfi_startproc
 545              		@ args = 0, pretend = 0, frame = 0
 546              		@ frame_needed = 0, uses_anonymous_args = 0
 547              	.LVL35:
 548 0000 08B5     		push	{r3, lr}
 549              		.cfi_def_cfa_offset 8
 550              		.cfi_offset 3, -8
 551              		.cfi_offset 14, -4
 552              	.LBB224:
 553              	.LBB225:
 554              	.LBB226:
 555              	.LBB227:
 556              		.loc 2 546 0
 557 0002 2023     		movs	r3, #32
 558              		.syntax unified
 559              	@ 546 "../../../os/ext/CMSIS/include/core_cmFunc.h" 1
 560 0004 83F31188 		MSR basepri, r3
 561              	@ 0 "" 2
 562              	.LVL36:
 563              		.thumb
 564              		.syntax unified
 565              	.LBE227:
 566              	.LBE226:
 567              	.LBE225:
 568              	.LBE224:
 569              		.loc 1 265 0
 570 0008 FFF7FEFF 		bl	chEvtSignalI
ARM GAS  /var/folders/qd/4mxf5pkd0zdf0b9dd1hp39180000gn/T//ccK7EOPq.s 			page 11


 571              	.LVL37:
 572              		.loc 1 266 0
 573 000c FFF7FEFF 		bl	chSchRescheduleS
 574              	.LVL38:
 575              	.LBB228:
 576              	.LBB229:
 577              	.LBB230:
 578              	.LBB231:
 579              	.LBB232:
 580              		.loc 2 546 0
 581 0010 0023     		movs	r3, #0
 582              		.syntax unified
 583              	@ 546 "../../../os/ext/CMSIS/include/core_cmFunc.h" 1
 584 0012 83F31188 		MSR basepri, r3
 585              	@ 0 "" 2
 586              	.LVL39:
 587              		.thumb
 588              		.syntax unified
 589              	.LBE232:
 590              	.LBE231:
 591              	.LBE230:
 592              	.LBE229:
 593              	.LBE228:
 594              		.loc 1 268 0
 595 0016 08BD     		pop	{r3, pc}
 596              		.cfi_endproc
 597              	.LFE235:
 598              		.size	chEvtSignal, .-chEvtSignal
 599              		.section	.text.chEvtBroadcastFlags,"ax",%progbits
 600              		.align	1
 601              		.p2align 4,,15
 602              		.global	chEvtBroadcastFlags
 603              		.syntax unified
 604              		.thumb
 605              		.thumb_func
 606              		.fpu softvfp
 607              		.type	chEvtBroadcastFlags, %function
 608              	chEvtBroadcastFlags:
 609              	.LFB237:
 610              		.loc 1 311 0
 611              		.cfi_startproc
 612              		@ args = 0, pretend = 0, frame = 0
 613              		@ frame_needed = 0, uses_anonymous_args = 0
 614              	.LVL40:
 615 0000 08B5     		push	{r3, lr}
 616              		.cfi_def_cfa_offset 8
 617              		.cfi_offset 3, -8
 618              		.cfi_offset 14, -4
 619              	.LBB233:
 620              	.LBB234:
 621              	.LBB235:
 622              	.LBB236:
 623              		.loc 2 546 0
 624 0002 2023     		movs	r3, #32
 625              		.syntax unified
 626              	@ 546 "../../../os/ext/CMSIS/include/core_cmFunc.h" 1
 627 0004 83F31188 		MSR basepri, r3
ARM GAS  /var/folders/qd/4mxf5pkd0zdf0b9dd1hp39180000gn/T//ccK7EOPq.s 			page 12


 628              	@ 0 "" 2
 629              	.LVL41:
 630              		.thumb
 631              		.syntax unified
 632              	.LBE236:
 633              	.LBE235:
 634              	.LBE234:
 635              	.LBE233:
 636              		.loc 1 314 0
 637 0008 FFF7FEFF 		bl	chEvtBroadcastFlagsI
 638              	.LVL42:
 639              		.loc 1 315 0
 640 000c FFF7FEFF 		bl	chSchRescheduleS
 641              	.LVL43:
 642              	.LBB237:
 643              	.LBB238:
 644              	.LBB239:
 645              	.LBB240:
 646              	.LBB241:
 647              		.loc 2 546 0
 648 0010 0023     		movs	r3, #0
 649              		.syntax unified
 650              	@ 546 "../../../os/ext/CMSIS/include/core_cmFunc.h" 1
 651 0012 83F31188 		MSR basepri, r3
 652              	@ 0 "" 2
 653              	.LVL44:
 654              		.thumb
 655              		.syntax unified
 656              	.LBE241:
 657              	.LBE240:
 658              	.LBE239:
 659              	.LBE238:
 660              	.LBE237:
 661              		.loc 1 317 0
 662 0016 08BD     		pop	{r3, pc}
 663              		.cfi_endproc
 664              	.LFE237:
 665              		.size	chEvtBroadcastFlags, .-chEvtBroadcastFlags
 666              		.section	.text.chEvtGetAndClearFlagsI,"ax",%progbits
 667              		.align	1
 668              		.p2align 4,,15
 669              		.global	chEvtGetAndClearFlagsI
 670              		.syntax unified
 671              		.thumb
 672              		.thumb_func
 673              		.fpu softvfp
 674              		.type	chEvtGetAndClearFlagsI, %function
 675              	chEvtGetAndClearFlagsI:
 676              	.LFB238:
 677              		.loc 1 330 0
 678              		.cfi_startproc
 679              		@ args = 0, pretend = 0, frame = 0
 680              		@ frame_needed = 0, uses_anonymous_args = 0
 681              		@ link register save eliminated.
 682              	.LVL45:
 683              		.loc 1 330 0
 684 0000 0346     		mov	r3, r0
ARM GAS  /var/folders/qd/4mxf5pkd0zdf0b9dd1hp39180000gn/T//ccK7EOPq.s 			page 13


 685              		.loc 1 334 0
 686 0002 0022     		movs	r2, #0
 687              		.loc 1 333 0
 688 0004 C068     		ldr	r0, [r0, #12]
 689              	.LVL46:
 690              		.loc 1 334 0
 691 0006 DA60     		str	r2, [r3, #12]
 692              		.loc 1 337 0
 693 0008 7047     		bx	lr
 694              		.cfi_endproc
 695              	.LFE238:
 696              		.size	chEvtGetAndClearFlagsI, .-chEvtGetAndClearFlagsI
 697 000a 00BF     		.section	.text.chEvtDispatch,"ax",%progbits
 698              		.align	1
 699              		.p2align 4,,15
 700              		.global	chEvtDispatch
 701              		.syntax unified
 702              		.thumb
 703              		.thumb_func
 704              		.fpu softvfp
 705              		.type	chEvtDispatch, %function
 706              	chEvtDispatch:
 707              	.LFB239:
 708              		.loc 1 348 0
 709              		.cfi_startproc
 710              		@ args = 0, pretend = 0, frame = 0
 711              		@ frame_needed = 0, uses_anonymous_args = 0
 712              	.LVL47:
 713              		.loc 1 354 0
 714 0000 B9B1     		cbz	r1, .L50
 715              		.loc 1 348 0
 716 0002 F8B5     		push	{r3, r4, r5, r6, r7, lr}
 717              		.cfi_def_cfa_offset 24
 718              		.cfi_offset 3, -24
 719              		.cfi_offset 4, -20
 720              		.cfi_offset 5, -16
 721              		.cfi_offset 6, -12
 722              		.cfi_offset 7, -8
 723              		.cfi_offset 14, -4
 724 0004 0746     		mov	r7, r0
 725 0006 0D46     		mov	r5, r1
 726              		.loc 1 353 0
 727 0008 0024     		movs	r4, #0
 728              		.loc 1 357 0
 729 000a 0126     		movs	r6, #1
 730              	.LVL48:
 731              	.L44:
 732              		.loc 1 355 0
 733 000c 25FA04F3 		lsr	r3, r5, r4
 734 0010 13F0010F 		tst	r3, #1
 735              		.loc 1 357 0
 736 0014 06FA04F2 		lsl	r2, r6, r4
 737              		.loc 1 358 0
 738 0018 2046     		mov	r0, r4
 739              		.loc 1 355 0
 740 001a 08D0     		beq	.L46
 741              		.loc 1 358 0
ARM GAS  /var/folders/qd/4mxf5pkd0zdf0b9dd1hp39180000gn/T//ccK7EOPq.s 			page 14


 742 001c 57F82430 		ldr	r3, [r7, r4, lsl #2]
 743              		.loc 1 357 0
 744 0020 25EA0205 		bic	r5, r5, r2
 745              	.LVL49:
 746              		.loc 1 360 0
 747 0024 0134     		adds	r4, r4, #1
 748              	.LVL50:
 749              		.loc 1 358 0
 750 0026 9847     		blx	r3
 751              	.LVL51:
 752              		.loc 1 354 0
 753 0028 002D     		cmp	r5, #0
 754 002a EFD1     		bne	.L44
 755              		.loc 1 362 0
 756 002c F8BD     		pop	{r3, r4, r5, r6, r7, pc}
 757              	.LVL52:
 758              	.L46:
 759              		.loc 1 360 0
 760 002e 0134     		adds	r4, r4, #1
 761              	.LVL53:
 762 0030 ECE7     		b	.L44
 763              	.LVL54:
 764              	.L50:
 765              		.cfi_def_cfa_offset 0
 766              		.cfi_restore 3
 767              		.cfi_restore 4
 768              		.cfi_restore 5
 769              		.cfi_restore 6
 770              		.cfi_restore 7
 771              		.cfi_restore 14
 772 0032 7047     		bx	lr
 773              		.cfi_endproc
 774              	.LFE239:
 775              		.size	chEvtDispatch, .-chEvtDispatch
 776              		.section	.text.chEvtWaitOne,"ax",%progbits
 777              		.align	1
 778              		.p2align 4,,15
 779              		.global	chEvtWaitOne
 780              		.syntax unified
 781              		.thumb
 782              		.thumb_func
 783              		.fpu softvfp
 784              		.type	chEvtWaitOne, %function
 785              	chEvtWaitOne:
 786              	.LFB240:
 787              		.loc 1 383 0
 788              		.cfi_startproc
 789              		@ args = 0, pretend = 0, frame = 0
 790              		@ frame_needed = 0, uses_anonymous_args = 0
 791              	.LVL55:
 792 0000 38B5     		push	{r3, r4, r5, lr}
 793              		.cfi_def_cfa_offset 16
 794              		.cfi_offset 3, -16
 795              		.cfi_offset 4, -12
 796              		.cfi_offset 5, -8
 797              		.cfi_offset 14, -4
 798              		.loc 1 384 0
ARM GAS  /var/folders/qd/4mxf5pkd0zdf0b9dd1hp39180000gn/T//ccK7EOPq.s 			page 15


 799 0002 0C4B     		ldr	r3, .L56
 800 0004 9D69     		ldr	r5, [r3, #24]
 801              	.LVL56:
 802              	.LBB242:
 803              	.LBB243:
 804              	.LBB244:
 805              	.LBB245:
 806              		.loc 2 546 0
 807 0006 2023     		movs	r3, #32
 808              		.syntax unified
 809              	@ 546 "../../../os/ext/CMSIS/include/core_cmFunc.h" 1
 810 0008 83F31188 		MSR basepri, r3
 811              	@ 0 "" 2
 812              	.LVL57:
 813              		.thumb
 814              		.syntax unified
 815              	.LBE245:
 816              	.LBE244:
 817              	.LBE243:
 818              	.LBE242:
 819              		.loc 1 388 0
 820 000c 6B6B     		ldr	r3, [r5, #52]
 821              	.LVL58:
 822              		.loc 1 389 0
 823 000e 13EA0004 		ands	r4, r3, r0
 824              	.LVL59:
 825 0012 06D1     		bne	.L54
 826 0014 0446     		mov	r4, r0
 827              	.LVL60:
 828              		.loc 1 390 0
 829 0016 2862     		str	r0, [r5, #32]
 830              		.loc 1 391 0
 831 0018 0A20     		movs	r0, #10
 832              	.LVL61:
 833 001a FFF7FEFF 		bl	chSchGoSleepS
 834              	.LVL62:
 835              		.loc 1 392 0
 836 001e 6B6B     		ldr	r3, [r5, #52]
 837 0020 1C40     		ands	r4, r4, r3
 838              	.LVL63:
 839              	.L54:
 840              		.loc 1 394 0
 841 0022 6042     		negs	r0, r4
 842 0024 2040     		ands	r0, r0, r4
 843              	.LVL64:
 844              		.loc 1 395 0
 845 0026 23EA0003 		bic	r3, r3, r0
 846 002a 6B63     		str	r3, [r5, #52]
 847              	.LVL65:
 848              	.LBB246:
 849              	.LBB247:
 850              	.LBB248:
 851              	.LBB249:
 852              	.LBB250:
 853              		.loc 2 546 0
 854 002c 0023     		movs	r3, #0
 855              		.syntax unified
ARM GAS  /var/folders/qd/4mxf5pkd0zdf0b9dd1hp39180000gn/T//ccK7EOPq.s 			page 16


 856              	@ 546 "../../../os/ext/CMSIS/include/core_cmFunc.h" 1
 857 002e 83F31188 		MSR basepri, r3
 858              	@ 0 "" 2
 859              	.LVL66:
 860              		.thumb
 861              		.syntax unified
 862              	.LBE250:
 863              	.LBE249:
 864              	.LBE248:
 865              	.LBE247:
 866              	.LBE246:
 867              		.loc 1 399 0
 868 0032 38BD     		pop	{r3, r4, r5, pc}
 869              	.LVL67:
 870              	.L57:
 871              		.align	2
 872              	.L56:
 873 0034 00000000 		.word	ch
 874              		.cfi_endproc
 875              	.LFE240:
 876              		.size	chEvtWaitOne, .-chEvtWaitOne
 877              		.section	.text.chEvtWaitAny,"ax",%progbits
 878              		.align	1
 879              		.p2align 4,,15
 880              		.global	chEvtWaitAny
 881              		.syntax unified
 882              		.thumb
 883              		.thumb_func
 884              		.fpu softvfp
 885              		.type	chEvtWaitAny, %function
 886              	chEvtWaitAny:
 887              	.LFB241:
 888              		.loc 1 413 0
 889              		.cfi_startproc
 890              		@ args = 0, pretend = 0, frame = 0
 891              		@ frame_needed = 0, uses_anonymous_args = 0
 892              	.LVL68:
 893 0000 38B5     		push	{r3, r4, r5, lr}
 894              		.cfi_def_cfa_offset 16
 895              		.cfi_offset 3, -16
 896              		.cfi_offset 4, -12
 897              		.cfi_offset 5, -8
 898              		.cfi_offset 14, -4
 899              		.loc 1 414 0
 900 0002 0C4B     		ldr	r3, .L61
 901 0004 9D69     		ldr	r5, [r3, #24]
 902              	.LVL69:
 903              	.LBB251:
 904              	.LBB252:
 905              	.LBB253:
 906              	.LBB254:
 907              		.loc 2 546 0
 908 0006 2023     		movs	r3, #32
 909              		.syntax unified
 910              	@ 546 "../../../os/ext/CMSIS/include/core_cmFunc.h" 1
 911 0008 83F31188 		MSR basepri, r3
 912              	@ 0 "" 2
ARM GAS  /var/folders/qd/4mxf5pkd0zdf0b9dd1hp39180000gn/T//ccK7EOPq.s 			page 17


 913              	.LVL70:
 914              		.thumb
 915              		.syntax unified
 916              	.LBE254:
 917              	.LBE253:
 918              	.LBE252:
 919              	.LBE251:
 920              		.loc 1 418 0
 921 000c 6B6B     		ldr	r3, [r5, #52]
 922              	.LVL71:
 923              		.loc 1 419 0
 924 000e 13EA0004 		ands	r4, r3, r0
 925              	.LVL72:
 926 0012 06D1     		bne	.L59
 927 0014 0446     		mov	r4, r0
 928              	.LVL73:
 929              		.loc 1 420 0
 930 0016 2862     		str	r0, [r5, #32]
 931              		.loc 1 421 0
 932 0018 0A20     		movs	r0, #10
 933              	.LVL74:
 934 001a FFF7FEFF 		bl	chSchGoSleepS
 935              	.LVL75:
 936              		.loc 1 422 0
 937 001e 6B6B     		ldr	r3, [r5, #52]
 938 0020 1C40     		ands	r4, r4, r3
 939              	.LVL76:
 940              	.L59:
 941              		.loc 1 424 0
 942 0022 23EA0403 		bic	r3, r3, r4
 943 0026 6B63     		str	r3, [r5, #52]
 944              	.LVL77:
 945              	.LBB255:
 946              	.LBB256:
 947              	.LBB257:
 948              	.LBB258:
 949              	.LBB259:
 950              		.loc 2 546 0
 951 0028 0023     		movs	r3, #0
 952              		.syntax unified
 953              	@ 546 "../../../os/ext/CMSIS/include/core_cmFunc.h" 1
 954 002a 83F31188 		MSR basepri, r3
 955              	@ 0 "" 2
 956              	.LVL78:
 957              		.thumb
 958              		.syntax unified
 959              	.LBE259:
 960              	.LBE258:
 961              	.LBE257:
 962              	.LBE256:
 963              	.LBE255:
 964              		.loc 1 428 0
 965 002e 2046     		mov	r0, r4
 966 0030 38BD     		pop	{r3, r4, r5, pc}
 967              	.LVL79:
 968              	.L62:
 969 0032 00BF     		.align	2
ARM GAS  /var/folders/qd/4mxf5pkd0zdf0b9dd1hp39180000gn/T//ccK7EOPq.s 			page 18


 970              	.L61:
 971 0034 00000000 		.word	ch
 972              		.cfi_endproc
 973              	.LFE241:
 974              		.size	chEvtWaitAny, .-chEvtWaitAny
 975              		.section	.text.chEvtWaitAll,"ax",%progbits
 976              		.align	1
 977              		.p2align 4,,15
 978              		.global	chEvtWaitAll
 979              		.syntax unified
 980              		.thumb
 981              		.thumb_func
 982              		.fpu softvfp
 983              		.type	chEvtWaitAll, %function
 984              	chEvtWaitAll:
 985              	.LFB242:
 986              		.loc 1 441 0
 987              		.cfi_startproc
 988              		@ args = 0, pretend = 0, frame = 0
 989              		@ frame_needed = 0, uses_anonymous_args = 0
 990              	.LVL80:
 991 0000 38B5     		push	{r3, r4, r5, lr}
 992              		.cfi_def_cfa_offset 16
 993              		.cfi_offset 3, -16
 994              		.cfi_offset 4, -12
 995              		.cfi_offset 5, -8
 996              		.cfi_offset 14, -4
 997              		.loc 1 442 0
 998 0002 0B4B     		ldr	r3, .L66
 999              		.loc 1 441 0
 1000 0004 0446     		mov	r4, r0
 1001              		.loc 1 442 0
 1002 0006 9D69     		ldr	r5, [r3, #24]
 1003              	.LVL81:
 1004              	.LBB260:
 1005              	.LBB261:
 1006              	.LBB262:
 1007              	.LBB263:
 1008              		.loc 2 546 0
 1009 0008 2023     		movs	r3, #32
 1010              		.syntax unified
 1011              	@ 546 "../../../os/ext/CMSIS/include/core_cmFunc.h" 1
 1012 000a 83F31188 		MSR basepri, r3
 1013              	@ 0 "" 2
 1014              	.LVL82:
 1015              		.thumb
 1016              		.syntax unified
 1017              	.LBE263:
 1018              	.LBE262:
 1019              	.LBE261:
 1020              	.LBE260:
 1021              		.loc 1 445 0
 1022 000e 6B6B     		ldr	r3, [r5, #52]
 1023 0010 30EA0302 		bics	r2, r0, r3
 1024 0014 04D0     		beq	.L64
 1025              		.loc 1 446 0
 1026 0016 2862     		str	r0, [r5, #32]
ARM GAS  /var/folders/qd/4mxf5pkd0zdf0b9dd1hp39180000gn/T//ccK7EOPq.s 			page 19


 1027              		.loc 1 447 0
 1028 0018 0B20     		movs	r0, #11
 1029              	.LVL83:
 1030 001a FFF7FEFF 		bl	chSchGoSleepS
 1031              	.LVL84:
 1032 001e 6B6B     		ldr	r3, [r5, #52]
 1033              	.L64:
 1034              		.loc 1 449 0
 1035 0020 23EA0403 		bic	r3, r3, r4
 1036 0024 6B63     		str	r3, [r5, #52]
 1037              	.LVL85:
 1038              	.LBB264:
 1039              	.LBB265:
 1040              	.LBB266:
 1041              	.LBB267:
 1042              	.LBB268:
 1043              		.loc 2 546 0
 1044 0026 0023     		movs	r3, #0
 1045              		.syntax unified
 1046              	@ 546 "../../../os/ext/CMSIS/include/core_cmFunc.h" 1
 1047 0028 83F31188 		MSR basepri, r3
 1048              	@ 0 "" 2
 1049              	.LVL86:
 1050              		.thumb
 1051              		.syntax unified
 1052              	.LBE268:
 1053              	.LBE267:
 1054              	.LBE266:
 1055              	.LBE265:
 1056              	.LBE264:
 1057              		.loc 1 453 0
 1058 002c 2046     		mov	r0, r4
 1059 002e 38BD     		pop	{r3, r4, r5, pc}
 1060              	.LVL87:
 1061              	.L67:
 1062              		.align	2
 1063              	.L66:
 1064 0030 00000000 		.word	ch
 1065              		.cfi_endproc
 1066              	.LFE242:
 1067              		.size	chEvtWaitAll, .-chEvtWaitAll
 1068              		.section	.text.chEvtWaitOneTimeout,"ax",%progbits
 1069              		.align	1
 1070              		.p2align 4,,15
 1071              		.global	chEvtWaitOneTimeout
 1072              		.syntax unified
 1073              		.thumb
 1074              		.thumb_func
 1075              		.fpu softvfp
 1076              		.type	chEvtWaitOneTimeout, %function
 1077              	chEvtWaitOneTimeout:
 1078              	.LFB243:
 1079              		.loc 1 479 0
 1080              		.cfi_startproc
 1081              		@ args = 0, pretend = 0, frame = 0
 1082              		@ frame_needed = 0, uses_anonymous_args = 0
 1083              	.LVL88:
ARM GAS  /var/folders/qd/4mxf5pkd0zdf0b9dd1hp39180000gn/T//ccK7EOPq.s 			page 20


 1084              		.loc 1 480 0
 1085 0000 114B     		ldr	r3, .L75
 1086              		.loc 1 479 0
 1087 0002 70B5     		push	{r4, r5, r6, lr}
 1088              		.cfi_def_cfa_offset 16
 1089              		.cfi_offset 4, -16
 1090              		.cfi_offset 5, -12
 1091              		.cfi_offset 6, -8
 1092              		.cfi_offset 14, -4
 1093              		.loc 1 480 0
 1094 0004 9E69     		ldr	r6, [r3, #24]
 1095              	.LVL89:
 1096              	.LBB269:
 1097              	.LBB270:
 1098              	.LBB271:
 1099              	.LBB272:
 1100              		.loc 2 546 0
 1101 0006 2023     		movs	r3, #32
 1102              		.syntax unified
 1103              	@ 546 "../../../os/ext/CMSIS/include/core_cmFunc.h" 1
 1104 0008 83F31188 		MSR basepri, r3
 1105              	@ 0 "" 2
 1106              	.LVL90:
 1107              		.thumb
 1108              		.syntax unified
 1109              	.LBE272:
 1110              	.LBE271:
 1111              	.LBE270:
 1112              	.LBE269:
 1113              		.loc 1 484 0
 1114 000c 736B     		ldr	r3, [r6, #52]
 1115              	.LVL91:
 1116              		.loc 1 485 0
 1117 000e 13EA0004 		ands	r4, r3, r0
 1118              	.LVL92:
 1119 0012 0ED1     		bne	.L69
 1120              		.loc 1 486 0
 1121 0014 19B9     		cbnz	r1, .L70
 1122              	.LVL93:
 1123              	.L74:
 1124              	.LBB273:
 1125              	.LBB274:
 1126              	.LBB275:
 1127              	.LBB276:
 1128              	.LBB277:
 1129              		.loc 2 546 0
 1130              		.syntax unified
 1131              	@ 546 "../../../os/ext/CMSIS/include/core_cmFunc.h" 1
 1132 0016 84F31188 		MSR basepri, r4
 1133              	@ 0 "" 2
 1134              	.LVL94:
 1135              		.thumb
 1136              		.syntax unified
 1137              	.LBE277:
 1138              	.LBE276:
 1139              	.LBE275:
 1140              	.LBE274:
ARM GAS  /var/folders/qd/4mxf5pkd0zdf0b9dd1hp39180000gn/T//ccK7EOPq.s 			page 21


 1141              	.LBE273:
 1142              		.loc 1 502 0
 1143 001a 2046     		mov	r0, r4
 1144 001c 70BD     		pop	{r4, r5, r6, pc}
 1145              	.LVL95:
 1146              	.L70:
 1147              		.loc 1 490 0
 1148 001e 3062     		str	r0, [r6, #32]
 1149 0020 0546     		mov	r5, r0
 1150              		.loc 1 491 0
 1151 0022 0A20     		movs	r0, #10
 1152              	.LVL96:
 1153 0024 FFF7FEFF 		bl	chSchGoSleepTimeoutS
 1154              	.LVL97:
 1155 0028 0028     		cmp	r0, #0
 1156 002a F4DB     		blt	.L74
 1157              		.loc 1 495 0
 1158 002c 736B     		ldr	r3, [r6, #52]
 1159 002e 03EA0504 		and	r4, r3, r5
 1160              	.LVL98:
 1161              	.L69:
 1162              		.loc 1 497 0
 1163 0032 6242     		negs	r2, r4
 1164 0034 1440     		ands	r4, r4, r2
 1165              	.LVL99:
 1166              		.loc 1 498 0
 1167 0036 23EA0403 		bic	r3, r3, r4
 1168 003a 7363     		str	r3, [r6, #52]
 1169              	.LVL100:
 1170              	.LBB278:
 1171              	.LBB279:
 1172              	.LBB280:
 1173              	.LBB281:
 1174              	.LBB282:
 1175              		.loc 2 546 0
 1176 003c 0023     		movs	r3, #0
 1177              		.syntax unified
 1178              	@ 546 "../../../os/ext/CMSIS/include/core_cmFunc.h" 1
 1179 003e 83F31188 		MSR basepri, r3
 1180              	@ 0 "" 2
 1181              	.LVL101:
 1182              		.thumb
 1183              		.syntax unified
 1184              	.LBE282:
 1185              	.LBE281:
 1186              	.LBE280:
 1187              	.LBE279:
 1188              	.LBE278:
 1189              		.loc 1 502 0
 1190 0042 2046     		mov	r0, r4
 1191 0044 70BD     		pop	{r4, r5, r6, pc}
 1192              	.LVL102:
 1193              	.L76:
 1194 0046 00BF     		.align	2
 1195              	.L75:
 1196 0048 00000000 		.word	ch
 1197              		.cfi_endproc
ARM GAS  /var/folders/qd/4mxf5pkd0zdf0b9dd1hp39180000gn/T//ccK7EOPq.s 			page 22


 1198              	.LFE243:
 1199              		.size	chEvtWaitOneTimeout, .-chEvtWaitOneTimeout
 1200              		.section	.text.chEvtWaitAnyTimeout,"ax",%progbits
 1201              		.align	1
 1202              		.p2align 4,,15
 1203              		.global	chEvtWaitAnyTimeout
 1204              		.syntax unified
 1205              		.thumb
 1206              		.thumb_func
 1207              		.fpu softvfp
 1208              		.type	chEvtWaitAnyTimeout, %function
 1209              	chEvtWaitAnyTimeout:
 1210              	.LFB244:
 1211              		.loc 1 522 0
 1212              		.cfi_startproc
 1213              		@ args = 0, pretend = 0, frame = 0
 1214              		@ frame_needed = 0, uses_anonymous_args = 0
 1215              	.LVL103:
 1216              		.loc 1 523 0
 1217 0000 104B     		ldr	r3, .L84
 1218              		.loc 1 522 0
 1219 0002 70B5     		push	{r4, r5, r6, lr}
 1220              		.cfi_def_cfa_offset 16
 1221              		.cfi_offset 4, -16
 1222              		.cfi_offset 5, -12
 1223              		.cfi_offset 6, -8
 1224              		.cfi_offset 14, -4
 1225              		.loc 1 523 0
 1226 0004 9E69     		ldr	r6, [r3, #24]
 1227              	.LVL104:
 1228              	.LBB283:
 1229              	.LBB284:
 1230              	.LBB285:
 1231              	.LBB286:
 1232              		.loc 2 546 0
 1233 0006 2023     		movs	r3, #32
 1234              		.syntax unified
 1235              	@ 546 "../../../os/ext/CMSIS/include/core_cmFunc.h" 1
 1236 0008 83F31188 		MSR basepri, r3
 1237              	@ 0 "" 2
 1238              	.LVL105:
 1239              		.thumb
 1240              		.syntax unified
 1241              	.LBE286:
 1242              	.LBE285:
 1243              	.LBE284:
 1244              	.LBE283:
 1245              		.loc 1 527 0
 1246 000c 736B     		ldr	r3, [r6, #52]
 1247              	.LVL106:
 1248              		.loc 1 528 0
 1249 000e 13EA0005 		ands	r5, r3, r0
 1250              	.LVL107:
 1251 0012 0ED1     		bne	.L78
 1252              		.loc 1 529 0
 1253 0014 19B9     		cbnz	r1, .L79
 1254              	.LVL108:
ARM GAS  /var/folders/qd/4mxf5pkd0zdf0b9dd1hp39180000gn/T//ccK7EOPq.s 			page 23


 1255              	.L83:
 1256              	.LBB287:
 1257              	.LBB288:
 1258              	.LBB289:
 1259              	.LBB290:
 1260              	.LBB291:
 1261              		.loc 2 546 0
 1262              		.syntax unified
 1263              	@ 546 "../../../os/ext/CMSIS/include/core_cmFunc.h" 1
 1264 0016 85F31188 		MSR basepri, r5
 1265              	@ 0 "" 2
 1266              	.LVL109:
 1267              		.thumb
 1268              		.syntax unified
 1269              	.LBE291:
 1270              	.LBE290:
 1271              	.LBE289:
 1272              	.LBE288:
 1273              	.LBE287:
 1274              		.loc 1 544 0
 1275 001a 2846     		mov	r0, r5
 1276 001c 70BD     		pop	{r4, r5, r6, pc}
 1277              	.LVL110:
 1278              	.L79:
 1279              		.loc 1 533 0
 1280 001e 3062     		str	r0, [r6, #32]
 1281 0020 0446     		mov	r4, r0
 1282              		.loc 1 534 0
 1283 0022 0A20     		movs	r0, #10
 1284              	.LVL111:
 1285 0024 FFF7FEFF 		bl	chSchGoSleepTimeoutS
 1286              	.LVL112:
 1287 0028 0028     		cmp	r0, #0
 1288 002a F4DB     		blt	.L83
 1289              		.loc 1 538 0
 1290 002c 736B     		ldr	r3, [r6, #52]
 1291 002e 03EA0405 		and	r5, r3, r4
 1292              	.LVL113:
 1293              	.L78:
 1294              		.loc 1 540 0
 1295 0032 23EA0503 		bic	r3, r3, r5
 1296 0036 7363     		str	r3, [r6, #52]
 1297              	.LVL114:
 1298              	.LBB292:
 1299              	.LBB293:
 1300              	.LBB294:
 1301              	.LBB295:
 1302              	.LBB296:
 1303              		.loc 2 546 0
 1304 0038 0023     		movs	r3, #0
 1305              		.syntax unified
 1306              	@ 546 "../../../os/ext/CMSIS/include/core_cmFunc.h" 1
 1307 003a 83F31188 		MSR basepri, r3
 1308              	@ 0 "" 2
 1309              	.LVL115:
 1310              		.thumb
 1311              		.syntax unified
ARM GAS  /var/folders/qd/4mxf5pkd0zdf0b9dd1hp39180000gn/T//ccK7EOPq.s 			page 24


 1312              	.LBE296:
 1313              	.LBE295:
 1314              	.LBE294:
 1315              	.LBE293:
 1316              	.LBE292:
 1317              		.loc 1 544 0
 1318 003e 2846     		mov	r0, r5
 1319 0040 70BD     		pop	{r4, r5, r6, pc}
 1320              	.LVL116:
 1321              	.L85:
 1322 0042 00BF     		.align	2
 1323              	.L84:
 1324 0044 00000000 		.word	ch
 1325              		.cfi_endproc
 1326              	.LFE244:
 1327              		.size	chEvtWaitAnyTimeout, .-chEvtWaitAnyTimeout
 1328              		.section	.text.chEvtWaitAllTimeout,"ax",%progbits
 1329              		.align	1
 1330              		.p2align 4,,15
 1331              		.global	chEvtWaitAllTimeout
 1332              		.syntax unified
 1333              		.thumb
 1334              		.thumb_func
 1335              		.fpu softvfp
 1336              		.type	chEvtWaitAllTimeout, %function
 1337              	chEvtWaitAllTimeout:
 1338              	.LFB245:
 1339              		.loc 1 563 0
 1340              		.cfi_startproc
 1341              		@ args = 0, pretend = 0, frame = 0
 1342              		@ frame_needed = 0, uses_anonymous_args = 0
 1343              	.LVL117:
 1344 0000 38B5     		push	{r3, r4, r5, lr}
 1345              		.cfi_def_cfa_offset 16
 1346              		.cfi_offset 3, -16
 1347              		.cfi_offset 4, -12
 1348              		.cfi_offset 5, -8
 1349              		.cfi_offset 14, -4
 1350              		.loc 1 564 0
 1351 0002 104B     		ldr	r3, .L93
 1352              		.loc 1 563 0
 1353 0004 0446     		mov	r4, r0
 1354              		.loc 1 564 0
 1355 0006 9D69     		ldr	r5, [r3, #24]
 1356              	.LVL118:
 1357              	.LBB297:
 1358              	.LBB298:
 1359              	.LBB299:
 1360              	.LBB300:
 1361              		.loc 2 546 0
 1362 0008 2023     		movs	r3, #32
 1363              		.syntax unified
 1364              	@ 546 "../../../os/ext/CMSIS/include/core_cmFunc.h" 1
 1365 000a 83F31188 		MSR basepri, r3
 1366              	@ 0 "" 2
 1367              	.LVL119:
 1368              		.thumb
ARM GAS  /var/folders/qd/4mxf5pkd0zdf0b9dd1hp39180000gn/T//ccK7EOPq.s 			page 25


 1369              		.syntax unified
 1370              	.LBE300:
 1371              	.LBE299:
 1372              	.LBE298:
 1373              	.LBE297:
 1374              		.loc 1 567 0
 1375 000e 6B6B     		ldr	r3, [r5, #52]
 1376 0010 30EA0302 		bics	r2, r0, r3
 1377 0014 0BD0     		beq	.L87
 1378 0016 0846     		mov	r0, r1
 1379              	.LVL120:
 1380              		.loc 1 568 0
 1381 0018 11B9     		cbnz	r1, .L88
 1382              	.LVL121:
 1383              	.L92:
 1384              	.LBB301:
 1385              	.LBB302:
 1386              	.LBB303:
 1387              	.LBB304:
 1388              	.LBB305:
 1389              		.loc 2 546 0
 1390              		.syntax unified
 1391              	@ 546 "../../../os/ext/CMSIS/include/core_cmFunc.h" 1
 1392 001a 80F31188 		MSR basepri, r0
 1393              	@ 0 "" 2
 1394              		.thumb
 1395              		.syntax unified
 1396              	.LBE305:
 1397              	.LBE304:
 1398              	.LBE303:
 1399              	.LBE302:
 1400              	.LBE301:
 1401              		.loc 1 582 0
 1402 001e 38BD     		pop	{r3, r4, r5, pc}
 1403              	.LVL122:
 1404              	.L88:
 1405              		.loc 1 572 0
 1406 0020 2C62     		str	r4, [r5, #32]
 1407              		.loc 1 573 0
 1408 0022 0B20     		movs	r0, #11
 1409              	.LVL123:
 1410 0024 FFF7FEFF 		bl	chSchGoSleepTimeoutS
 1411              	.LVL124:
 1412 0028 0028     		cmp	r0, #0
 1413 002a 08DB     		blt	.L90
 1414 002c 6B6B     		ldr	r3, [r5, #52]
 1415              	.L87:
 1416              		.loc 1 578 0
 1417 002e 23EA0403 		bic	r3, r3, r4
 1418 0032 6B63     		str	r3, [r5, #52]
 1419              	.LVL125:
 1420              	.LBB310:
 1421              	.LBB311:
 1422              	.LBB312:
 1423              	.LBB313:
 1424              	.LBB314:
 1425              		.loc 2 546 0
ARM GAS  /var/folders/qd/4mxf5pkd0zdf0b9dd1hp39180000gn/T//ccK7EOPq.s 			page 26


 1426 0034 0023     		movs	r3, #0
 1427              		.syntax unified
 1428              	@ 546 "../../../os/ext/CMSIS/include/core_cmFunc.h" 1
 1429 0036 83F31188 		MSR basepri, r3
 1430              	@ 0 "" 2
 1431              	.LVL126:
 1432              		.thumb
 1433              		.syntax unified
 1434              	.LBE314:
 1435              	.LBE313:
 1436              	.LBE312:
 1437              	.LBE311:
 1438              	.LBE310:
 1439              		.loc 1 581 0
 1440 003a 2046     		mov	r0, r4
 1441              		.loc 1 582 0
 1442 003c 38BD     		pop	{r3, r4, r5, pc}
 1443              	.LVL127:
 1444              	.L90:
 1445              	.LBB315:
 1446              	.LBB309:
 1447              	.LBB308:
 1448              	.LBB307:
 1449              	.LBB306:
 1450              		.loc 2 546 0
 1451 003e 0020     		movs	r0, #0
 1452 0040 EBE7     		b	.L92
 1453              	.L94:
 1454 0042 00BF     		.align	2
 1455              	.L93:
 1456 0044 00000000 		.word	ch
 1457              	.LBE306:
 1458              	.LBE307:
 1459              	.LBE308:
 1460              	.LBE309:
 1461              	.LBE315:
 1462              		.cfi_endproc
 1463              	.LFE245:
 1464              		.size	chEvtWaitAllTimeout, .-chEvtWaitAllTimeout
 1465              		.text
 1466              	.Letext0:
 1467              		.file 3 "/Applications/Eclipse_e-puck2.app/Contents/Eclipse_e-puck2/Tools/gcc-arm-none-eabi-7-2017
 1468              		.file 4 "/Applications/Eclipse_e-puck2.app/Contents/Eclipse_e-puck2/Tools/gcc-arm-none-eabi-7-2017
 1469              		.file 5 "../../../os/rt/ports/ARMCMx/compilers/GCC/chtypes.h"
 1470              		.file 6 "../../../os/rt/include/chsystypes.h"
 1471              		.file 7 "../../../os/rt/include/chschd.h"
 1472              		.file 8 "../../../os/ext/CMSIS/include/core_cm4.h"
 1473              		.file 9 "../../../os/ext/CMSIS/ST/system_stm32f4xx.h"
 1474              		.file 10 "../../../os/rt/ports/ARMCMx/chcore.h"
 1475              		.file 11 "../../../os/rt/ports/ARMCMx/chcore_v7m.h"
 1476              		.file 12 "../../../os/rt/include/chtm.h"
 1477              		.file 13 "../../../os/rt/include/chsem.h"
 1478              		.file 14 "../../../os/rt/include/chmtx.h"
 1479              		.file 15 "../../../os/rt/include/chregistry.h"
 1480              		.file 16 "../../../os/rt/include/chevents.h"
 1481              		.file 17 "../../../os/rt/include/chsys.h"