ARM GAS  /var/folders/qd/4mxf5pkd0zdf0b9dd1hp39180000gn/T//ccdugpM0.s 			page 1


   1              		.cpu cortex-m4
   2              		.eabi_attribute 20, 1
   3              		.eabi_attribute 21, 1
   4              		.eabi_attribute 23, 3
   5              		.eabi_attribute 24, 1
   6              		.eabi_attribute 25, 1
   7              		.eabi_attribute 26, 1
   8              		.eabi_attribute 30, 2
   9              		.eabi_attribute 34, 1
  10              		.eabi_attribute 18, 4
  11              		.file	"chheap.c"
  12              		.text
  13              	.Ltext0:
  14              		.cfi_sections	.debug_frame
  15              		.section	.text._heap_init,"ax",%progbits
  16              		.align	1
  17              		.p2align 4,,15
  18              		.global	_heap_init
  19              		.syntax unified
  20              		.thumb
  21              		.thumb_func
  22              		.fpu softvfp
  23              		.type	_heap_init, %function
  24              	_heap_init:
  25              	.LFB229:
  26              		.file 1 "../../../os/rt/src/chheap.c"
  27              		.loc 1 91 0
  28              		.cfi_startproc
  29              		@ args = 0, pretend = 0, frame = 0
  30              		@ frame_needed = 0, uses_anonymous_args = 0
  31              		@ link register save eliminated.
  32              		.loc 1 93 0
  33 0000 044B     		ldr	r3, .L3
  34 0002 054A     		ldr	r2, .L3+4
  35 0004 1A60     		str	r2, [r3]
  36              		.loc 1 97 0
  37 0006 03F11000 		add	r0, r3, #16
  38              		.loc 1 94 0
  39 000a 0022     		movs	r2, #0
  40              		.loc 1 95 0
  41 000c C3E90222 		strd	r2, r2, [r3, #8]
  42              		.loc 1 97 0
  43 0010 FFF7FEBF 		b	chMtxObjectInit
  44              	.LVL0:
  45              	.L4:
  46              		.align	2
  47              	.L3:
  48 0014 00000000 		.word	.LANCHOR0
  49 0018 00000000 		.word	chCoreAlloc
  50              		.cfi_endproc
  51              	.LFE229:
  52              		.size	_heap_init, .-_heap_init
  53              		.section	.text.chHeapObjectInit,"ax",%progbits
  54              		.align	1
  55              		.p2align 4,,15
  56              		.global	chHeapObjectInit
  57              		.syntax unified
ARM GAS  /var/folders/qd/4mxf5pkd0zdf0b9dd1hp39180000gn/T//ccdugpM0.s 			page 2


  58              		.thumb
  59              		.thumb_func
  60              		.fpu softvfp
  61              		.type	chHeapObjectInit, %function
  62              	chHeapObjectInit:
  63              	.LFB230:
  64              		.loc 1 114 0
  65              		.cfi_startproc
  66              		@ args = 0, pretend = 0, frame = 0
  67              		@ frame_needed = 0, uses_anonymous_args = 0
  68              		@ link register save eliminated.
  69              	.LVL1:
  70              		.loc 1 119 0
  71 0000 0023     		movs	r3, #0
  72              		.loc 1 123 0
  73 0002 083A     		subs	r2, r2, #8
  74              	.LVL2:
  75              		.loc 1 120 0
  76 0004 8160     		str	r1, [r0, #8]
  77              		.loc 1 119 0
  78 0006 0360     		str	r3, [r0]
  79              		.loc 1 121 0
  80 0008 C360     		str	r3, [r0, #12]
  81              		.loc 1 125 0
  82 000a 1030     		adds	r0, r0, #16
  83              	.LVL3:
  84              		.loc 1 122 0
  85 000c C1E90032 		strd	r3, r2, [r1]
  86              		.loc 1 125 0
  87 0010 FFF7FEBF 		b	chMtxObjectInit
  88              	.LVL4:
  89              		.cfi_endproc
  90              	.LFE230:
  91              		.size	chHeapObjectInit, .-chHeapObjectInit
  92              		.section	.text.chHeapAlloc,"ax",%progbits
  93              		.align	1
  94              		.p2align 4,,15
  95              		.global	chHeapAlloc
  96              		.syntax unified
  97              		.thumb
  98              		.thumb_func
  99              		.fpu softvfp
 100              		.type	chHeapAlloc, %function
 101              	chHeapAlloc:
 102              	.LFB231:
 103              		.loc 1 147 0
 104              		.cfi_startproc
 105              		@ args = 0, pretend = 0, frame = 0
 106              		@ frame_needed = 0, uses_anonymous_args = 0
 107              	.LVL5:
 108 0000 F8B5     		push	{r3, r4, r5, r6, r7, lr}
 109              		.cfi_def_cfa_offset 24
 110              		.cfi_offset 3, -24
 111              		.cfi_offset 4, -20
 112              		.cfi_offset 5, -16
 113              		.cfi_offset 6, -12
 114              		.cfi_offset 7, -8
ARM GAS  /var/folders/qd/4mxf5pkd0zdf0b9dd1hp39180000gn/T//ccdugpM0.s 			page 3


 115              		.cfi_offset 14, -4
 116              		.loc 1 151 0
 117 0002 204E     		ldr	r6, .L22
 118 0004 0028     		cmp	r0, #0
 119 0006 18BF     		it	ne
 120 0008 0646     		movne	r6, r0
 121              	.LVL6:
 122              		.loc 1 157 0
 123 000a 06F11007 		add	r7, r6, #16
 124              		.loc 1 154 0
 125 000e 0731     		adds	r1, r1, #7
 126              	.LVL7:
 127              		.loc 1 157 0
 128 0010 3846     		mov	r0, r7
 129              		.loc 1 154 0
 130 0012 21F00705 		bic	r5, r1, #7
 131              	.LVL8:
 132              		.loc 1 155 0
 133 0016 06F10804 		add	r4, r6, #8
 134              	.LVL9:
 135              		.loc 1 157 0
 136 001a FFF7FEFF 		bl	chMtxLock
 137              	.LVL10:
 138              		.loc 1 158 0
 139 001e 03E0     		b	.L8
 140              	.LVL11:
 141              	.L12:
 142              		.loc 1 160 0
 143 0020 4368     		ldr	r3, [r0, #4]
 144 0022 AB42     		cmp	r3, r5
 145 0024 12D2     		bcs	.L21
 146 0026 0446     		mov	r4, r0
 147              	.LVL12:
 148              	.L8:
 149              		.loc 1 158 0
 150 0028 2068     		ldr	r0, [r4]
 151              	.LVL13:
 152 002a 0028     		cmp	r0, #0
 153 002c F8D1     		bne	.L12
 154              		.loc 1 186 0
 155 002e 3846     		mov	r0, r7
 156              	.LVL14:
 157 0030 FFF7FEFF 		bl	chMtxUnlock
 158              	.LVL15:
 159              		.loc 1 190 0
 160 0034 3368     		ldr	r3, [r6]
 161 0036 13B3     		cbz	r3, .L14
 162              		.loc 1 191 0
 163 0038 05F10800 		add	r0, r5, #8
 164 003c 9847     		blx	r3
 165              	.LVL16:
 166              		.loc 1 192 0
 167 003e F0B1     		cbz	r0, .L14
 168              		.loc 1 194 0
 169 0040 C0E90065 		strd	r6, r5, [r0]
 170              		.loc 1 195 0
 171 0044 00F10804 		add	r4, r0, #8
ARM GAS  /var/folders/qd/4mxf5pkd0zdf0b9dd1hp39180000gn/T//ccdugpM0.s 			page 4


 172              	.LVL17:
 173              	.L6:
 174              		.loc 1 204 0
 175 0048 2046     		mov	r0, r4
 176 004a F8BD     		pop	{r3, r4, r5, r6, r7, pc}
 177              	.LVL18:
 178              	.L21:
 179              		.loc 1 161 0
 180 004c 05F10802 		add	r2, r5, #8
 181 0050 9342     		cmp	r3, r2
 182 0052 0168     		ldr	r1, [r0]
 183 0054 08D2     		bcs	.L9
 184              		.loc 1 165 0
 185 0056 2160     		str	r1, [r4]
 186              	.L10:
 187              		.loc 1 177 0
 188 0058 0446     		mov	r4, r0
 189              	.LVL19:
 190              		.loc 1 178 0
 191 005a 3846     		mov	r0, r7
 192              	.LVL20:
 193              		.loc 1 177 0
 194 005c 44F8086B 		str	r6, [r4], #8
 195              	.LVL21:
 196              		.loc 1 178 0
 197 0060 FFF7FEFF 		bl	chMtxUnlock
 198              	.LVL22:
 199              		.loc 1 204 0
 200 0064 2046     		mov	r0, r4
 201 0066 F8BD     		pop	{r3, r4, r5, r6, r7, pc}
 202              	.LVL23:
 203              	.L9:
 204              		.loc 1 170 0
 205 0068 00EB020C 		add	ip, r0, r2
 206              	.LVL24:
 207              		.loc 1 173 0
 208 006c 5B1B     		subs	r3, r3, r5
 209 006e 083B     		subs	r3, r3, #8
 210              		.loc 1 172 0
 211 0070 8150     		str	r1, [r0, r2]
 212              		.loc 1 173 0
 213 0072 CCF80430 		str	r3, [ip, #4]
 214              		.loc 1 174 0
 215 0076 C4F800C0 		str	ip, [r4]
 216              		.loc 1 175 0
 217 007a 4560     		str	r5, [r0, #4]
 218 007c ECE7     		b	.L10
 219              	.LVL25:
 220              	.L14:
 221              		.loc 1 203 0
 222 007e 0024     		movs	r4, #0
 223              	.LVL26:
 224 0080 E2E7     		b	.L6
 225              	.L23:
 226 0082 00BF     		.align	2
 227              	.L22:
 228 0084 00000000 		.word	.LANCHOR0
ARM GAS  /var/folders/qd/4mxf5pkd0zdf0b9dd1hp39180000gn/T//ccdugpM0.s 			page 5


 229              		.cfi_endproc
 230              	.LFE231:
 231              		.size	chHeapAlloc, .-chHeapAlloc
 232              		.section	.text.chHeapFree,"ax",%progbits
 233              		.align	1
 234              		.p2align 4,,15
 235              		.global	chHeapFree
 236              		.syntax unified
 237              		.thumb
 238              		.thumb_func
 239              		.fpu softvfp
 240              		.type	chHeapFree, %function
 241              	chHeapFree:
 242              	.LFB232:
 243              		.loc 1 213 0
 244              		.cfi_startproc
 245              		@ args = 0, pretend = 0, frame = 0
 246              		@ frame_needed = 0, uses_anonymous_args = 0
 247              	.LVL27:
 248 0000 F8B5     		push	{r3, r4, r5, r6, r7, lr}
 249              		.cfi_def_cfa_offset 24
 250              		.cfi_offset 3, -24
 251              		.cfi_offset 4, -20
 252              		.cfi_offset 5, -16
 253              		.cfi_offset 6, -12
 254              		.cfi_offset 7, -8
 255              		.cfi_offset 14, -4
 256              		.loc 1 222 0
 257 0002 50F8085C 		ldr	r5, [r0, #-8]
 258              		.loc 1 225 0
 259 0006 05F11007 		add	r7, r5, #16
 260              		.loc 1 213 0
 261 000a 0646     		mov	r6, r0
 262              		.loc 1 220 0
 263 000c A0F10804 		sub	r4, r0, #8
 264              	.LVL28:
 265              		.loc 1 223 0
 266 0010 0835     		adds	r5, r5, #8
 267              	.LVL29:
 268              		.loc 1 225 0
 269 0012 3846     		mov	r0, r7
 270              	.LVL30:
 271 0014 FFF7FEFF 		bl	chMtxLock
 272              	.LVL31:
 273              		.loc 1 223 0
 274 0018 2B46     		mov	r3, r5
 275              	.LVL32:
 276              	.L25:
 277              		.loc 1 229 0
 278 001a AB42     		cmp	r3, r5
 279 001c 1A68     		ldr	r2, [r3]
 280 001e 01D0     		beq	.L26
 281              		.loc 1 229 0 is_stmt 0 discriminator 2
 282 0020 A342     		cmp	r3, r4
 283 0022 02D2     		bcs	.L27
 284              	.L26:
 285              		.loc 1 229 0 discriminator 3
ARM GAS  /var/folders/qd/4mxf5pkd0zdf0b9dd1hp39180000gn/T//ccdugpM0.s 			page 6


 286 0024 1AB1     		cbz	r2, .L28
 287              		.loc 1 230 0 is_stmt 1
 288 0026 9442     		cmp	r4, r2
 289 0028 01D3     		bcc	.L28
 290              	.L27:
 291              		.loc 1 213 0
 292 002a 1346     		mov	r3, r2
 293              	.LVL33:
 294 002c F5E7     		b	.L25
 295              	.LVL34:
 296              	.L28:
 297              		.loc 1 232 0
 298 002e 46F8082C 		str	r2, [r6, #-8]
 299              		.loc 1 235 0
 300 0032 56F8042C 		ldr	r2, [r6, #-4]
 301              		.loc 1 233 0
 302 0036 1C60     		str	r4, [r3]
 303              		.loc 1 235 0
 304 0038 56F8080C 		ldr	r0, [r6, #-8]
 305 003c B118     		adds	r1, r6, r2
 306 003e 8142     		cmp	r1, r0
 307 0040 0AD0     		beq	.L35
 308              		.loc 1 240 0
 309 0042 5968     		ldr	r1, [r3, #4]
 310 0044 01F10802 		add	r2, r1, #8
 311 0048 1A44     		add	r2, r2, r3
 312 004a 9442     		cmp	r4, r2
 313 004c 12D0     		beq	.L36
 314              	.L30:
 315              		.loc 1 249 0
 316 004e 3846     		mov	r0, r7
 317              		.loc 1 252 0
 318 0050 BDE8F840 		pop	{r3, r4, r5, r6, r7, lr}
 319              		.cfi_remember_state
 320              		.cfi_restore 14
 321              		.cfi_restore 7
 322              		.cfi_restore 6
 323              		.cfi_restore 5
 324              		.cfi_restore 4
 325              		.cfi_restore 3
 326              		.cfi_def_cfa_offset 0
 327              	.LVL35:
 328              		.loc 1 249 0
 329 0054 FFF7FEBF 		b	chMtxUnlock
 330              	.LVL36:
 331              	.L35:
 332              		.cfi_restore_state
 333              		.loc 1 237 0
 334 0058 4968     		ldr	r1, [r1, #4]
 335              		.loc 1 238 0
 336 005a B058     		ldr	r0, [r6, r2]
 337 005c 46F8080C 		str	r0, [r6, #-8]
 338              		.loc 1 237 0
 339 0060 0832     		adds	r2, r2, #8
 340 0062 0A44     		add	r2, r2, r1
 341 0064 46F8042C 		str	r2, [r6, #-4]
 342              		.loc 1 240 0
ARM GAS  /var/folders/qd/4mxf5pkd0zdf0b9dd1hp39180000gn/T//ccdugpM0.s 			page 7


 343 0068 5968     		ldr	r1, [r3, #4]
 344 006a 01F10802 		add	r2, r1, #8
 345 006e 1A44     		add	r2, r2, r3
 346 0070 9442     		cmp	r4, r2
 347 0072 ECD1     		bne	.L30
 348              	.L36:
 349              		.loc 1 243 0
 350 0074 56E90202 		ldrd	r0, r2, [r6, #-8]
 351              		.loc 1 242 0
 352 0078 0832     		adds	r2, r2, #8
 353 007a 1144     		add	r1, r1, r2
 354              		.loc 1 243 0
 355 007c 1860     		str	r0, [r3]
 356              		.loc 1 242 0
 357 007e 5960     		str	r1, [r3, #4]
 358              		.loc 1 249 0
 359 0080 3846     		mov	r0, r7
 360              		.loc 1 252 0
 361 0082 BDE8F840 		pop	{r3, r4, r5, r6, r7, lr}
 362              		.cfi_restore 14
 363              		.cfi_restore 7
 364              		.cfi_restore 6
 365              		.cfi_restore 5
 366              		.cfi_restore 4
 367              		.cfi_restore 3
 368              		.cfi_def_cfa_offset 0
 369              	.LVL37:
 370              		.loc 1 249 0
 371 0086 FFF7FEBF 		b	chMtxUnlock
 372              	.LVL38:
 373              		.cfi_endproc
 374              	.LFE232:
 375              		.size	chHeapFree, .-chHeapFree
 376 008a 00BF     		.section	.text.chHeapStatus,"ax",%progbits
 377              		.align	1
 378              		.p2align 4,,15
 379              		.global	chHeapStatus
 380              		.syntax unified
 381              		.thumb
 382              		.thumb_func
 383              		.fpu softvfp
 384              		.type	chHeapStatus, %function
 385              	chHeapStatus:
 386              	.LFB233:
 387              		.loc 1 267 0
 388              		.cfi_startproc
 389              		@ args = 0, pretend = 0, frame = 0
 390              		@ frame_needed = 0, uses_anonymous_args = 0
 391              	.LVL39:
 392 0000 70B5     		push	{r4, r5, r6, lr}
 393              		.cfi_def_cfa_offset 16
 394              		.cfi_offset 4, -16
 395              		.cfi_offset 5, -12
 396              		.cfi_offset 6, -8
 397              		.cfi_offset 14, -4
 398              		.loc 1 272 0
 399 0002 0F4C     		ldr	r4, .L48
ARM GAS  /var/folders/qd/4mxf5pkd0zdf0b9dd1hp39180000gn/T//ccdugpM0.s 			page 8


 400 0004 0028     		cmp	r0, #0
 401 0006 18BF     		it	ne
 402 0008 0446     		movne	r4, r0
 403              	.LVL40:
 404              		.loc 1 275 0
 405 000a 04F11005 		add	r5, r4, #16
 406 000e 2846     		mov	r0, r5
 407              		.loc 1 267 0
 408 0010 0E46     		mov	r6, r1
 409              		.loc 1 275 0
 410 0012 FFF7FEFF 		bl	chMtxLock
 411              	.LVL41:
 412              		.loc 1 279 0
 413 0016 A368     		ldr	r3, [r4, #8]
 414 0018 73B1     		cbz	r3, .L42
 415              		.loc 1 276 0
 416 001a 0022     		movs	r2, #0
 417              		.loc 1 277 0
 418 001c 1446     		mov	r4, r2
 419              	.LVL42:
 420              	.L40:
 421              		.loc 1 279 0
 422 001e D3E90030 		ldrd	r3, r0, [r3]
 423              		.loc 1 281 0
 424 0022 0134     		adds	r4, r4, #1
 425              	.LVL43:
 426              		.loc 1 280 0
 427 0024 0244     		add	r2, r2, r0
 428              	.LVL44:
 429              		.loc 1 279 0
 430 0026 002B     		cmp	r3, #0
 431 0028 F9D1     		bne	.L40
 432              	.LVL45:
 433              	.L39:
 434              		.loc 1 284 0
 435 002a 06B1     		cbz	r6, .L41
 436              		.loc 1 285 0
 437 002c 3260     		str	r2, [r6]
 438              	.L41:
 439              		.loc 1 287 0
 440 002e 2846     		mov	r0, r5
 441 0030 FFF7FEFF 		bl	chMtxUnlock
 442              	.LVL46:
 443              		.loc 1 290 0
 444 0034 2046     		mov	r0, r4
 445 0036 70BD     		pop	{r4, r5, r6, pc}
 446              	.LVL47:
 447              	.L42:
 448              		.loc 1 276 0
 449 0038 1A46     		mov	r2, r3
 450              		.loc 1 277 0
 451 003a 1C46     		mov	r4, r3
 452              	.LVL48:
 453 003c F5E7     		b	.L39
 454              	.L49:
 455 003e 00BF     		.align	2
 456              	.L48:
ARM GAS  /var/folders/qd/4mxf5pkd0zdf0b9dd1hp39180000gn/T//ccdugpM0.s 			page 9


 457 0040 00000000 		.word	.LANCHOR0
 458              		.cfi_endproc
 459              	.LFE233:
 460              		.size	chHeapStatus, .-chHeapStatus
 461              		.section	.bss.default_heap,"aw",%nobits
 462              		.align	3
 463              		.set	.LANCHOR0,. + 0
 464              		.type	default_heap, %object
 465              		.size	default_heap, 32
 466              	default_heap:
 467 0000 00000000 		.space	32
 467      00000000 
 467      00000000 
 467      00000000 
 467      00000000 
 468              		.text
 469              	.Letext0:
 470              		.file 2 "/Applications/Eclipse_e-puck2.app/Contents/Eclipse_e-puck2/Tools/gcc-arm-none-eabi-7-2017
 471              		.file 3 "/Applications/Eclipse_e-puck2.app/Contents/Eclipse_e-puck2/Tools/gcc-arm-none-eabi-7-2017
 472              		.file 4 "/Applications/Eclipse_e-puck2.app/Contents/Eclipse_e-puck2/Tools/gcc-arm-none-eabi-7-2017
 473              		.file 5 "../../../os/rt/ports/ARMCMx/compilers/GCC/chtypes.h"
 474              		.file 6 "../../../os/rt/include/chsystypes.h"
 475              		.file 7 "../../../os/rt/include/chschd.h"
 476              		.file 8 "../../../os/ext/CMSIS/include/core_cm4.h"
 477              		.file 9 "../../../os/ext/CMSIS/ST/system_stm32f4xx.h"
 478              		.file 10 "../../../os/rt/ports/ARMCMx/chcore.h"
 479              		.file 11 "../../../os/rt/ports/ARMCMx/chcore_v7m.h"
 480              		.file 12 "../../../os/rt/include/chtm.h"
 481              		.file 13 "../../../os/rt/include/chsem.h"
 482              		.file 14 "../../../os/rt/include/chmtx.h"
 483              		.file 15 "../../../os/rt/include/chregistry.h"
 484              		.file 16 "../../../os/rt/include/chmemcore.h"
 485              		.file 17 "../../../os/rt/include/chheap.h"
 486              		.section	.debug_info,"",%progbits
 487              	.Ldebug_info0:
 488 0000 D80A0000 		.4byte	0xad8
 489 0004 0400     		.2byte	0x4
 490 0006 00000000 		.4byte	.Ldebug_abbrev0
 491 000a 04       		.byte	0x4
 492 000b 01       		.uleb128 0x1
 493 000c 00030000 		.4byte	.LASF148
 494 0010 0C       		.byte	0xc
 495 0011 34070000 		.4byte	.LASF149
 496 0015 56040000 		.4byte	.LASF150
 497 0019 00000000 		.4byte	.Ldebug_ranges0+0
 498 001d 00000000 		.4byte	0
 499 0021 00000000 		.4byte	.Ldebug_line0
 500 0025 02       		.uleb128 0x2
 501 0026 04       		.byte	0x4
 502 0027 05       		.byte	0x5
 503 0028 696E7400 		.ascii	"int\000"
 504 002c 03       		.uleb128 0x3
 505 002d 0D000000 		.4byte	.LASF4
 506 0031 02       		.byte	0x2
 507 0032 D8       		.byte	0xd8
 508 0033 37000000 		.4byte	0x37
 509 0037 04       		.uleb128 0x4
ARM GAS  /var/folders/qd/4mxf5pkd0zdf0b9dd1hp39180000gn/T//ccdugpM0.s 			page 10


 510 0038 04       		.byte	0x4
 511 0039 07       		.byte	0x7
 512 003a E5010000 		.4byte	.LASF0
 513 003e 04       		.uleb128 0x4
 514 003f 08       		.byte	0x8
 515 0040 05       		.byte	0x5
 516 0041 71010000 		.4byte	.LASF1
 517 0045 04       		.uleb128 0x4
 518 0046 08       		.byte	0x8
 519 0047 04       		.byte	0x4
 520 0048 F1030000 		.4byte	.LASF2
 521 004c 04       		.uleb128 0x4
 522 004d 01       		.byte	0x1
 523 004e 06       		.byte	0x6
 524 004f F0000000 		.4byte	.LASF3
 525 0053 03       		.uleb128 0x3
 526 0054 29000000 		.4byte	.LASF5
 527 0058 03       		.byte	0x3
 528 0059 2B       		.byte	0x2b
 529 005a 5E000000 		.4byte	0x5e
 530 005e 04       		.uleb128 0x4
 531 005f 01       		.byte	0x1
 532 0060 08       		.byte	0x8
 533 0061 50050000 		.4byte	.LASF6
 534 0065 04       		.uleb128 0x4
 535 0066 02       		.byte	0x2
 536 0067 05       		.byte	0x5
 537 0068 74050000 		.4byte	.LASF7
 538 006c 03       		.uleb128 0x3
 539 006d 72060000 		.4byte	.LASF8
 540 0071 03       		.byte	0x3
 541 0072 39       		.byte	0x39
 542 0073 77000000 		.4byte	0x77
 543 0077 04       		.uleb128 0x4
 544 0078 02       		.byte	0x2
 545 0079 07       		.byte	0x7
 546 007a 41020000 		.4byte	.LASF9
 547 007e 03       		.uleb128 0x3
 548 007f A1020000 		.4byte	.LASF10
 549 0083 03       		.byte	0x3
 550 0084 4D       		.byte	0x4d
 551 0085 89000000 		.4byte	0x89
 552 0089 04       		.uleb128 0x4
 553 008a 04       		.byte	0x4
 554 008b 05       		.byte	0x5
 555 008c 51010000 		.4byte	.LASF11
 556 0090 03       		.uleb128 0x3
 557 0091 B8060000 		.4byte	.LASF12
 558 0095 03       		.byte	0x3
 559 0096 4F       		.byte	0x4f
 560 0097 9B000000 		.4byte	0x9b
 561 009b 04       		.uleb128 0x4
 562 009c 04       		.byte	0x4
 563 009d 07       		.byte	0x7
 564 009e 47060000 		.4byte	.LASF13
 565 00a2 03       		.uleb128 0x3
 566 00a3 EB040000 		.4byte	.LASF14
ARM GAS  /var/folders/qd/4mxf5pkd0zdf0b9dd1hp39180000gn/T//ccdugpM0.s 			page 11


 567 00a7 03       		.byte	0x3
 568 00a8 69       		.byte	0x69
 569 00a9 AD000000 		.4byte	0xad
 570 00ad 04       		.uleb128 0x4
 571 00ae 08       		.byte	0x8
 572 00af 07       		.byte	0x7
 573 00b0 5B000000 		.4byte	.LASF15
 574 00b4 03       		.uleb128 0x3
 575 00b5 15070000 		.4byte	.LASF16
 576 00b9 04       		.byte	0x4
 577 00ba 18       		.byte	0x18
 578 00bb 53000000 		.4byte	0x53
 579 00bf 03       		.uleb128 0x3
 580 00c0 FA010000 		.4byte	.LASF17
 581 00c4 04       		.byte	0x4
 582 00c5 24       		.byte	0x24
 583 00c6 6C000000 		.4byte	0x6c
 584 00ca 03       		.uleb128 0x3
 585 00cb 48050000 		.4byte	.LASF18
 586 00cf 04       		.byte	0x4
 587 00d0 2C       		.byte	0x2c
 588 00d1 7E000000 		.4byte	0x7e
 589 00d5 05       		.uleb128 0x5
 590 00d6 CA000000 		.4byte	0xca
 591 00da 03       		.uleb128 0x3
 592 00db 04060000 		.4byte	.LASF19
 593 00df 04       		.byte	0x4
 594 00e0 30       		.byte	0x30
 595 00e1 90000000 		.4byte	0x90
 596 00e5 03       		.uleb128 0x3
 597 00e6 20000000 		.4byte	.LASF20
 598 00ea 04       		.byte	0x4
 599 00eb 3C       		.byte	0x3c
 600 00ec A2000000 		.4byte	0xa2
 601 00f0 03       		.uleb128 0x3
 602 00f1 E5020000 		.4byte	.LASF21
 603 00f5 05       		.byte	0x5
 604 00f6 45       		.byte	0x45
 605 00f7 DA000000 		.4byte	0xda
 606 00fb 03       		.uleb128 0x3
 607 00fc 9B050000 		.4byte	.LASF22
 608 0100 05       		.byte	0x5
 609 0101 48       		.byte	0x48
 610 0102 B4000000 		.4byte	0xb4
 611 0106 03       		.uleb128 0x3
 612 0107 5A010000 		.4byte	.LASF23
 613 010b 05       		.byte	0x5
 614 010c 49       		.byte	0x49
 615 010d B4000000 		.4byte	0xb4
 616 0111 03       		.uleb128 0x3
 617 0112 F6040000 		.4byte	.LASF24
 618 0116 05       		.byte	0x5
 619 0117 4A       		.byte	0x4a
 620 0118 B4000000 		.4byte	0xb4
 621 011c 03       		.uleb128 0x3
 622 011d 20050000 		.4byte	.LASF25
 623 0121 05       		.byte	0x5
ARM GAS  /var/folders/qd/4mxf5pkd0zdf0b9dd1hp39180000gn/T//ccdugpM0.s 			page 12


 624 0122 4C       		.byte	0x4c
 625 0123 DA000000 		.4byte	0xda
 626 0127 03       		.uleb128 0x3
 627 0128 69020000 		.4byte	.LASF26
 628 012c 05       		.byte	0x5
 629 012d 4D       		.byte	0x4d
 630 012e CA000000 		.4byte	0xca
 631 0132 03       		.uleb128 0x3
 632 0133 95020000 		.4byte	.LASF27
 633 0137 05       		.byte	0x5
 634 0138 4F       		.byte	0x4f
 635 0139 DA000000 		.4byte	0xda
 636 013d 03       		.uleb128 0x3
 637 013e DF010000 		.4byte	.LASF28
 638 0142 05       		.byte	0x5
 639 0143 51       		.byte	0x51
 640 0144 CA000000 		.4byte	0xca
 641 0148 03       		.uleb128 0x3
 642 0149 9A060000 		.4byte	.LASF29
 643 014d 06       		.byte	0x6
 644 014e 33       		.byte	0x33
 645 014f DA000000 		.4byte	0xda
 646 0153 03       		.uleb128 0x3
 647 0154 7D060000 		.4byte	.LASF30
 648 0158 06       		.byte	0x6
 649 0159 3F       		.byte	0x3f
 650 015a 5E010000 		.4byte	0x15e
 651 015e 06       		.uleb128 0x6
 652 015f 54020000 		.4byte	.LASF50
 653 0163 44       		.byte	0x44
 654 0164 07       		.byte	0x7
 655 0165 C2       		.byte	0xc2
 656 0166 4B020000 		.4byte	0x24b
 657 016a 07       		.uleb128 0x7
 658 016b 94050000 		.4byte	.LASF31
 659 016f 07       		.byte	0x7
 660 0170 C3       		.byte	0xc3
 661 0171 56020000 		.4byte	0x256
 662 0175 00       		.byte	0
 663 0176 07       		.uleb128 0x7
 664 0177 19050000 		.4byte	.LASF32
 665 017b 07       		.byte	0x7
 666 017c C5       		.byte	0xc5
 667 017d 56020000 		.4byte	0x256
 668 0181 04       		.byte	0x4
 669 0182 07       		.uleb128 0x7
 670 0183 D0000000 		.4byte	.LASF33
 671 0187 07       		.byte	0x7
 672 0188 C7       		.byte	0xc7
 673 0189 1C010000 		.4byte	0x11c
 674 018d 08       		.byte	0x8
 675 018e 07       		.uleb128 0x7
 676 018f 2D040000 		.4byte	.LASF34
 677 0193 07       		.byte	0x7
 678 0194 C8       		.byte	0xc8
 679 0195 96040000 		.4byte	0x496
 680 0199 0C       		.byte	0xc
ARM GAS  /var/folders/qd/4mxf5pkd0zdf0b9dd1hp39180000gn/T//ccdugpM0.s 			page 13


 681 019a 07       		.uleb128 0x7
 682 019b 94010000 		.4byte	.LASF35
 683 019f 07       		.byte	0x7
 684 01a0 CA       		.byte	0xca
 685 01a1 56020000 		.4byte	0x256
 686 01a5 10       		.byte	0x10
 687 01a6 07       		.uleb128 0x7
 688 01a7 1F040000 		.4byte	.LASF36
 689 01ab 07       		.byte	0x7
 690 01ac CB       		.byte	0xcb
 691 01ad 56020000 		.4byte	0x256
 692 01b1 14       		.byte	0x14
 693 01b2 07       		.uleb128 0x7
 694 01b3 5D070000 		.4byte	.LASF37
 695 01b7 07       		.byte	0x7
 696 01b8 D2       		.byte	0xd2
 697 01b9 15060000 		.4byte	0x615
 698 01bd 18       		.byte	0x18
 699 01be 07       		.uleb128 0x7
 700 01bf 7E050000 		.4byte	.LASF38
 701 01c3 07       		.byte	0x7
 702 01c4 DD       		.byte	0xdd
 703 01c5 06010000 		.4byte	0x106
 704 01c9 1C       		.byte	0x1c
 705 01ca 07       		.uleb128 0x7
 706 01cb B2050000 		.4byte	.LASF39
 707 01cf 07       		.byte	0x7
 708 01d0 E1       		.byte	0xe1
 709 01d1 FB000000 		.4byte	0xfb
 710 01d5 1D       		.byte	0x1d
 711 01d6 07       		.uleb128 0x7
 712 01d7 08070000 		.4byte	.LASF40
 713 01db 07       		.byte	0x7
 714 01dc E6       		.byte	0xe6
 715 01dd 11010000 		.4byte	0x111
 716 01e1 1E       		.byte	0x1e
 717 01e2 08       		.uleb128 0x8
 718 01e3 705F7500 		.ascii	"p_u\000"
 719 01e7 07       		.byte	0x7
 720 01e8 3101     		.2byte	0x131
 721 01ea 50050000 		.4byte	0x550
 722 01ee 20       		.byte	0x20
 723 01ef 09       		.uleb128 0x9
 724 01f0 DB020000 		.4byte	.LASF41
 725 01f4 07       		.byte	0x7
 726 01f5 3601     		.2byte	0x136
 727 01f7 5C020000 		.4byte	0x25c
 728 01fb 24       		.byte	0x24
 729 01fc 09       		.uleb128 0x9
 730 01fd 27020000 		.4byte	.LASF42
 731 0201 07       		.byte	0x7
 732 0202 3C01     		.2byte	0x13c
 733 0204 80020000 		.4byte	0x280
 734 0208 28       		.byte	0x28
 735 0209 09       		.uleb128 0x9
 736 020a 78070000 		.4byte	.LASF43
 737 020e 07       		.byte	0x7
ARM GAS  /var/folders/qd/4mxf5pkd0zdf0b9dd1hp39180000gn/T//ccdugpM0.s 			page 14


 738 020f 4001     		.2byte	0x140
 739 0211 27010000 		.4byte	0x127
 740 0215 30       		.byte	0x30
 741 0216 09       		.uleb128 0x9
 742 0217 F9050000 		.4byte	.LASF44
 743 021b 07       		.byte	0x7
 744 021c 4601     		.2byte	0x146
 745 021e 32010000 		.4byte	0x132
 746 0222 34       		.byte	0x34
 747 0223 09       		.uleb128 0x9
 748 0224 6A050000 		.4byte	.LASF45
 749 0228 07       		.byte	0x7
 750 0229 4D01     		.2byte	0x14d
 751 022b 0F060000 		.4byte	0x60f
 752 022f 38       		.byte	0x38
 753 0230 09       		.uleb128 0x9
 754 0231 A4060000 		.4byte	.LASF46
 755 0235 07       		.byte	0x7
 756 0236 5101     		.2byte	0x151
 757 0238 1C010000 		.4byte	0x11c
 758 023c 3C       		.byte	0x3c
 759 023d 09       		.uleb128 0x9
 760 023e 1F010000 		.4byte	.LASF47
 761 0242 07       		.byte	0x7
 762 0243 5801     		.2byte	0x158
 763 0245 33030000 		.4byte	0x333
 764 0249 40       		.byte	0x40
 765 024a 00       		.byte	0
 766 024b 03       		.uleb128 0x3
 767 024c ED020000 		.4byte	.LASF48
 768 0250 06       		.byte	0x6
 769 0251 44       		.byte	0x44
 770 0252 56020000 		.4byte	0x256
 771 0256 0A       		.uleb128 0xa
 772 0257 04       		.byte	0x4
 773 0258 53010000 		.4byte	0x153
 774 025c 03       		.uleb128 0x3
 775 025d 69070000 		.4byte	.LASF49
 776 0261 06       		.byte	0x6
 777 0262 49       		.byte	0x49
 778 0263 67020000 		.4byte	0x267
 779 0267 06       		.uleb128 0x6
 780 0268 2A060000 		.4byte	.LASF51
 781 026c 04       		.byte	0x4
 782 026d 07       		.byte	0x7
 783 026e B0       		.byte	0xb0
 784 026f 80020000 		.4byte	0x280
 785 0273 07       		.uleb128 0x7
 786 0274 94050000 		.4byte	.LASF31
 787 0278 07       		.byte	0x7
 788 0279 B1       		.byte	0xb1
 789 027a 56020000 		.4byte	0x256
 790 027e 00       		.byte	0
 791 027f 00       		.byte	0
 792 0280 03       		.uleb128 0x3
 793 0281 C3050000 		.4byte	.LASF52
 794 0285 06       		.byte	0x6
ARM GAS  /var/folders/qd/4mxf5pkd0zdf0b9dd1hp39180000gn/T//ccdugpM0.s 			page 15


 795 0286 50       		.byte	0x50
 796 0287 8B020000 		.4byte	0x28b
 797 028b 06       		.uleb128 0x6
 798 028c BF000000 		.4byte	.LASF53
 799 0290 08       		.byte	0x8
 800 0291 07       		.byte	0x7
 801 0292 B7       		.byte	0xb7
 802 0293 B0020000 		.4byte	0x2b0
 803 0297 07       		.uleb128 0x7
 804 0298 94050000 		.4byte	.LASF31
 805 029c 07       		.byte	0x7
 806 029d B8       		.byte	0xb8
 807 029e 56020000 		.4byte	0x256
 808 02a2 00       		.byte	0
 809 02a3 07       		.uleb128 0x7
 810 02a4 19050000 		.4byte	.LASF32
 811 02a8 07       		.byte	0x7
 812 02a9 B9       		.byte	0xb9
 813 02aa 56020000 		.4byte	0x256
 814 02ae 04       		.byte	0x4
 815 02af 00       		.byte	0
 816 02b0 03       		.uleb128 0x3
 817 02b1 00000000 		.4byte	.LASF54
 818 02b5 06       		.byte	0x6
 819 02b6 57       		.byte	0x57
 820 02b7 BB020000 		.4byte	0x2bb
 821 02bb 0B       		.uleb128 0xb
 822 02bc 87020000 		.4byte	.LASF55
 823 02c0 1C       		.byte	0x1c
 824 02c1 07       		.byte	0x7
 825 02c2 9001     		.2byte	0x190
 826 02c4 17030000 		.4byte	0x317
 827 02c8 09       		.uleb128 0x9
 828 02c9 19060000 		.4byte	.LASF56
 829 02cd 07       		.byte	0x7
 830 02ce 9101     		.2byte	0x191
 831 02d0 80020000 		.4byte	0x280
 832 02d4 00       		.byte	0
 833 02d5 09       		.uleb128 0x9
 834 02d6 86050000 		.4byte	.LASF57
 835 02da 07       		.byte	0x7
 836 02db 9201     		.2byte	0x192
 837 02dd 1C010000 		.4byte	0x11c
 838 02e1 08       		.byte	0x8
 839 02e2 09       		.uleb128 0x9
 840 02e3 27040000 		.4byte	.LASF58
 841 02e7 07       		.byte	0x7
 842 02e8 9401     		.2byte	0x194
 843 02ea 96040000 		.4byte	0x496
 844 02ee 0C       		.byte	0xc
 845 02ef 09       		.uleb128 0x9
 846 02f0 A4010000 		.4byte	.LASF59
 847 02f4 07       		.byte	0x7
 848 02f5 9701     		.2byte	0x197
 849 02f7 56020000 		.4byte	0x256
 850 02fb 10       		.byte	0x10
 851 02fc 09       		.uleb128 0x9
ARM GAS  /var/folders/qd/4mxf5pkd0zdf0b9dd1hp39180000gn/T//ccdugpM0.s 			page 16


 852 02fd 4E040000 		.4byte	.LASF60
 853 0301 07       		.byte	0x7
 854 0302 9801     		.2byte	0x198
 855 0304 56020000 		.4byte	0x256
 856 0308 14       		.byte	0x14
 857 0309 09       		.uleb128 0x9
 858 030a 44040000 		.4byte	.LASF61
 859 030e 07       		.byte	0x7
 860 030f 9B01     		.2byte	0x19b
 861 0311 56020000 		.4byte	0x256
 862 0315 18       		.byte	0x18
 863 0316 00       		.byte	0
 864 0317 03       		.uleb128 0x3
 865 0318 AF060000 		.4byte	.LASF62
 866 031c 06       		.byte	0x6
 867 031d 5C       		.byte	0x5c
 868 031e 22030000 		.4byte	0x322
 869 0322 0A       		.uleb128 0xa
 870 0323 04       		.byte	0x4
 871 0324 28030000 		.4byte	0x328
 872 0328 0C       		.uleb128 0xc
 873 0329 33030000 		.4byte	0x333
 874 032d 0D       		.uleb128 0xd
 875 032e 33030000 		.4byte	0x333
 876 0332 00       		.byte	0
 877 0333 0E       		.uleb128 0xe
 878 0334 04       		.byte	0x4
 879 0335 03       		.uleb128 0x3
 880 0336 09050000 		.4byte	.LASF63
 881 033a 06       		.byte	0x6
 882 033b 61       		.byte	0x61
 883 033c 40030000 		.4byte	0x340
 884 0340 0B       		.uleb128 0xb
 885 0341 DC060000 		.4byte	.LASF64
 886 0345 14       		.byte	0x14
 887 0346 07       		.byte	0x7
 888 0347 6B01     		.2byte	0x16b
 889 0349 8F030000 		.4byte	0x38f
 890 034d 09       		.uleb128 0x9
 891 034e F2010000 		.4byte	.LASF65
 892 0352 07       		.byte	0x7
 893 0353 6C01     		.2byte	0x16c
 894 0355 2C060000 		.4byte	0x62c
 895 0359 00       		.byte	0
 896 035a 09       		.uleb128 0x9
 897 035b B5010000 		.4byte	.LASF66
 898 035f 07       		.byte	0x7
 899 0360 6D01     		.2byte	0x16d
 900 0362 2C060000 		.4byte	0x62c
 901 0366 04       		.byte	0x4
 902 0367 09       		.uleb128 0x9
 903 0368 21060000 		.4byte	.LASF67
 904 036c 07       		.byte	0x7
 905 036d 6E01     		.2byte	0x16e
 906 036f 48010000 		.4byte	0x148
 907 0373 08       		.byte	0x8
 908 0374 09       		.uleb128 0x9
ARM GAS  /var/folders/qd/4mxf5pkd0zdf0b9dd1hp39180000gn/T//ccdugpM0.s 			page 17


 909 0375 94070000 		.4byte	.LASF68
 910 0379 07       		.byte	0x7
 911 037a 6F01     		.2byte	0x16f
 912 037c 17030000 		.4byte	0x317
 913 0380 0C       		.byte	0xc
 914 0381 09       		.uleb128 0x9
 915 0382 ED060000 		.4byte	.LASF69
 916 0386 07       		.byte	0x7
 917 0387 7101     		.2byte	0x171
 918 0389 33030000 		.4byte	0x333
 919 038d 10       		.byte	0x10
 920 038e 00       		.byte	0
 921 038f 03       		.uleb128 0x3
 922 0390 90000000 		.4byte	.LASF70
 923 0394 06       		.byte	0x6
 924 0395 66       		.byte	0x66
 925 0396 9A030000 		.4byte	0x39a
 926 039a 0B       		.uleb128 0xb
 927 039b DA030000 		.4byte	.LASF71
 928 039f 10       		.byte	0x10
 929 03a0 07       		.byte	0x7
 930 03a1 7B01     		.2byte	0x17b
 931 03a3 DC030000 		.4byte	0x3dc
 932 03a7 09       		.uleb128 0x9
 933 03a8 F2010000 		.4byte	.LASF65
 934 03ac 07       		.byte	0x7
 935 03ad 7C01     		.2byte	0x17c
 936 03af 2C060000 		.4byte	0x62c
 937 03b3 00       		.byte	0
 938 03b4 09       		.uleb128 0x9
 939 03b5 B5010000 		.4byte	.LASF66
 940 03b9 07       		.byte	0x7
 941 03ba 7E01     		.2byte	0x17e
 942 03bc 2C060000 		.4byte	0x62c
 943 03c0 04       		.byte	0x4
 944 03c1 09       		.uleb128 0x9
 945 03c2 21060000 		.4byte	.LASF67
 946 03c6 07       		.byte	0x7
 947 03c7 8001     		.2byte	0x180
 948 03c9 48010000 		.4byte	0x148
 949 03cd 08       		.byte	0x8
 950 03ce 09       		.uleb128 0x9
 951 03cf 28070000 		.4byte	.LASF72
 952 03d3 07       		.byte	0x7
 953 03d4 8801     		.2byte	0x188
 954 03d6 48010000 		.4byte	0x148
 955 03da 0C       		.byte	0xc
 956 03db 00       		.byte	0
 957 03dc 03       		.uleb128 0x3
 958 03dd 3F000000 		.4byte	.LASF73
 959 03e1 06       		.byte	0x6
 960 03e2 6B       		.byte	0x6b
 961 03e3 E7030000 		.4byte	0x3e7
 962 03e7 0B       		.uleb128 0xb
 963 03e8 38050000 		.4byte	.LASF74
 964 03ec 04       		.byte	0x4
 965 03ed 07       		.byte	0x7
ARM GAS  /var/folders/qd/4mxf5pkd0zdf0b9dd1hp39180000gn/T//ccdugpM0.s 			page 18


 966 03ee A201     		.2byte	0x1a2
 967 03f0 02040000 		.4byte	0x402
 968 03f4 09       		.uleb128 0x9
 969 03f5 C3060000 		.4byte	.LASF75
 970 03f9 07       		.byte	0x7
 971 03fa AA01     		.2byte	0x1aa
 972 03fc 1B060000 		.4byte	0x61b
 973 0400 00       		.byte	0
 974 0401 00       		.byte	0
 975 0402 03       		.uleb128 0x3
 976 0403 6F020000 		.4byte	.LASF76
 977 0407 06       		.byte	0x6
 978 0408 70       		.byte	0x70
 979 0409 0D040000 		.4byte	0x40d
 980 040d 0F       		.uleb128 0xf
 981 040e 47010000 		.4byte	.LASF77
 982 0412 5001     		.2byte	0x150
 983 0414 07       		.byte	0x7
 984 0415 C201     		.2byte	0x1c2
 985 0417 69040000 		.4byte	0x469
 986 041b 09       		.uleb128 0x9
 987 041c 0F070000 		.4byte	.LASF78
 988 0420 07       		.byte	0x7
 989 0421 C601     		.2byte	0x1c6
 990 0423 B0020000 		.4byte	0x2b0
 991 0427 00       		.byte	0
 992 0428 09       		.uleb128 0x9
 993 0429 3A010000 		.4byte	.LASF79
 994 042d 07       		.byte	0x7
 995 042e CA01     		.2byte	0x1ca
 996 0430 8F030000 		.4byte	0x38f
 997 0434 1C       		.byte	0x1c
 998 0435 08       		.uleb128 0x8
 999 0436 64626700 		.ascii	"dbg\000"
 1000 043a 07       		.byte	0x7
 1001 043b CE01     		.2byte	0x1ce
 1002 043d DC030000 		.4byte	0x3dc
 1003 0441 2C       		.byte	0x2c
 1004 0442 09       		.uleb128 0x9
 1005 0443 5E020000 		.4byte	.LASF80
 1006 0447 07       		.byte	0x7
 1007 0448 D201     		.2byte	0x1d2
 1008 044a 53010000 		.4byte	0x153
 1009 044e 30       		.byte	0x30
 1010 044f 08       		.uleb128 0x8
 1011 0450 746D00   		.ascii	"tm\000"
 1012 0453 07       		.byte	0x7
 1013 0454 D701     		.2byte	0x1d7
 1014 0456 45050000 		.4byte	0x545
 1015 045a 74       		.byte	0x74
 1016 045b 09       		.uleb128 0x9
 1017 045c D0010000 		.4byte	.LASF81
 1018 0460 07       		.byte	0x7
 1019 0461 E301     		.2byte	0x1e3
 1020 0463 32060000 		.4byte	0x632
 1021 0467 78       		.byte	0x78
 1022 0468 00       		.byte	0
ARM GAS  /var/folders/qd/4mxf5pkd0zdf0b9dd1hp39180000gn/T//ccdugpM0.s 			page 19


 1023 0469 10       		.uleb128 0x10
 1024 046a A6000000 		.4byte	.LASF82
 1025 046e 08       		.byte	0x8
 1026 046f A706     		.2byte	0x6a7
 1027 0471 D5000000 		.4byte	0xd5
 1028 0475 11       		.uleb128 0x11
 1029 0476 03020000 		.4byte	.LASF83
 1030 047a 09       		.byte	0x9
 1031 047b 4C       		.byte	0x4c
 1032 047c DA000000 		.4byte	0xda
 1033 0480 03       		.uleb128 0x3
 1034 0481 AC010000 		.4byte	.LASF84
 1035 0485 0A       		.byte	0xa
 1036 0486 65       		.byte	0x65
 1037 0487 33030000 		.4byte	0x333
 1038 048b 03       		.uleb128 0x3
 1039 048c AB020000 		.4byte	.LASF85
 1040 0490 0A       		.byte	0xa
 1041 0491 6D       		.byte	0x6d
 1042 0492 E5000000 		.4byte	0xe5
 1043 0496 06       		.uleb128 0x6
 1044 0497 D4060000 		.4byte	.LASF86
 1045 049b 04       		.byte	0x4
 1046 049c 0A       		.byte	0xa
 1047 049d 89       		.byte	0x89
 1048 049e AF040000 		.4byte	0x4af
 1049 04a2 12       		.uleb128 0x12
 1050 04a3 72313300 		.ascii	"r13\000"
 1051 04a7 0A       		.byte	0xa
 1052 04a8 8A       		.byte	0x8a
 1053 04a9 2A050000 		.4byte	0x52a
 1054 04ad 00       		.byte	0
 1055 04ae 00       		.byte	0
 1056 04af 06       		.uleb128 0x6
 1057 04b0 33000000 		.4byte	.LASF87
 1058 04b4 24       		.byte	0x24
 1059 04b5 0B       		.byte	0xb
 1060 04b6 F4       		.byte	0xf4
 1061 04b7 2A050000 		.4byte	0x52a
 1062 04bb 08       		.uleb128 0x8
 1063 04bc 723400   		.ascii	"r4\000"
 1064 04bf 0B       		.byte	0xb
 1065 04c0 0701     		.2byte	0x107
 1066 04c2 80040000 		.4byte	0x480
 1067 04c6 00       		.byte	0
 1068 04c7 08       		.uleb128 0x8
 1069 04c8 723500   		.ascii	"r5\000"
 1070 04cb 0B       		.byte	0xb
 1071 04cc 0801     		.2byte	0x108
 1072 04ce 80040000 		.4byte	0x480
 1073 04d2 04       		.byte	0x4
 1074 04d3 08       		.uleb128 0x8
 1075 04d4 723600   		.ascii	"r6\000"
 1076 04d7 0B       		.byte	0xb
 1077 04d8 0901     		.2byte	0x109
 1078 04da 80040000 		.4byte	0x480
 1079 04de 08       		.byte	0x8
ARM GAS  /var/folders/qd/4mxf5pkd0zdf0b9dd1hp39180000gn/T//ccdugpM0.s 			page 20


 1080 04df 08       		.uleb128 0x8
 1081 04e0 723700   		.ascii	"r7\000"
 1082 04e3 0B       		.byte	0xb
 1083 04e4 0A01     		.2byte	0x10a
 1084 04e6 80040000 		.4byte	0x480
 1085 04ea 0C       		.byte	0xc
 1086 04eb 08       		.uleb128 0x8
 1087 04ec 723800   		.ascii	"r8\000"
 1088 04ef 0B       		.byte	0xb
 1089 04f0 0B01     		.2byte	0x10b
 1090 04f2 80040000 		.4byte	0x480
 1091 04f6 10       		.byte	0x10
 1092 04f7 08       		.uleb128 0x8
 1093 04f8 723900   		.ascii	"r9\000"
 1094 04fb 0B       		.byte	0xb
 1095 04fc 0C01     		.2byte	0x10c
 1096 04fe 80040000 		.4byte	0x480
 1097 0502 14       		.byte	0x14
 1098 0503 08       		.uleb128 0x8
 1099 0504 72313000 		.ascii	"r10\000"
 1100 0508 0B       		.byte	0xb
 1101 0509 0D01     		.2byte	0x10d
 1102 050b 80040000 		.4byte	0x480
 1103 050f 18       		.byte	0x18
 1104 0510 08       		.uleb128 0x8
 1105 0511 72313100 		.ascii	"r11\000"
 1106 0515 0B       		.byte	0xb
 1107 0516 0E01     		.2byte	0x10e
 1108 0518 80040000 		.4byte	0x480
 1109 051c 1C       		.byte	0x1c
 1110 051d 08       		.uleb128 0x8
 1111 051e 6C7200   		.ascii	"lr\000"
 1112 0521 0B       		.byte	0xb
 1113 0522 0F01     		.2byte	0x10f
 1114 0524 80040000 		.4byte	0x480
 1115 0528 20       		.byte	0x20
 1116 0529 00       		.byte	0
 1117 052a 0A       		.uleb128 0xa
 1118 052b 04       		.byte	0x4
 1119 052c AF040000 		.4byte	0x4af
 1120 0530 13       		.uleb128 0x13
 1121 0531 04       		.byte	0x4
 1122 0532 0C       		.byte	0xc
 1123 0533 38       		.byte	0x38
 1124 0534 45050000 		.4byte	0x545
 1125 0538 07       		.uleb128 0x7
 1126 0539 CD060000 		.4byte	.LASF88
 1127 053d 0C       		.byte	0xc
 1128 053e 3C       		.byte	0x3c
 1129 053f F0000000 		.4byte	0xf0
 1130 0543 00       		.byte	0
 1131 0544 00       		.byte	0
 1132 0545 03       		.uleb128 0x3
 1133 0546 33040000 		.4byte	.LASF89
 1134 054a 0C       		.byte	0xc
 1135 054b 3D       		.byte	0x3d
 1136 054c 30050000 		.4byte	0x530
ARM GAS  /var/folders/qd/4mxf5pkd0zdf0b9dd1hp39180000gn/T//ccdugpM0.s 			page 21


 1137 0550 14       		.uleb128 0x14
 1138 0551 04       		.byte	0x4
 1139 0552 07       		.byte	0x7
 1140 0553 FA       		.byte	0xfa
 1141 0554 AD050000 		.4byte	0x5ad
 1142 0558 15       		.uleb128 0x15
 1143 0559 19000000 		.4byte	.LASF90
 1144 055d 07       		.byte	0x7
 1145 055e 0101     		.2byte	0x101
 1146 0560 27010000 		.4byte	0x127
 1147 0564 15       		.uleb128 0x15
 1148 0565 80000000 		.4byte	.LASF91
 1149 0569 07       		.byte	0x7
 1150 056a 0801     		.2byte	0x108
 1151 056c 27010000 		.4byte	0x127
 1152 0570 15       		.uleb128 0x15
 1153 0571 50070000 		.4byte	.LASF92
 1154 0575 07       		.byte	0x7
 1155 0576 0F01     		.2byte	0x10f
 1156 0578 33030000 		.4byte	0x333
 1157 057c 15       		.uleb128 0x15
 1158 057d 41010000 		.4byte	.LASF93
 1159 0581 07       		.byte	0x7
 1160 0582 1601     		.2byte	0x116
 1161 0584 AD050000 		.4byte	0x5ad
 1162 0588 15       		.uleb128 0x15
 1163 0589 13020000 		.4byte	.LASF94
 1164 058d 07       		.byte	0x7
 1165 058e 1E01     		.2byte	0x11e
 1166 0590 D8050000 		.4byte	0x5d8
 1167 0594 15       		.uleb128 0x15
 1168 0595 6B060000 		.4byte	.LASF95
 1169 0599 07       		.byte	0x7
 1170 059a 2701     		.2byte	0x127
 1171 059c 0F060000 		.4byte	0x60f
 1172 05a0 15       		.uleb128 0x15
 1173 05a1 8D050000 		.4byte	.LASF96
 1174 05a5 07       		.byte	0x7
 1175 05a6 2F01     		.2byte	0x12f
 1176 05a8 32010000 		.4byte	0x132
 1177 05ac 00       		.byte	0
 1178 05ad 0A       		.uleb128 0xa
 1179 05ae 04       		.byte	0x4
 1180 05af 4B020000 		.4byte	0x24b
 1181 05b3 06       		.uleb128 0x6
 1182 05b4 EC050000 		.4byte	.LASF97
 1183 05b8 0C       		.byte	0xc
 1184 05b9 0D       		.byte	0xd
 1185 05ba 34       		.byte	0x34
 1186 05bb D8050000 		.4byte	0x5d8
 1187 05bf 07       		.uleb128 0x7
 1188 05c0 9C010000 		.4byte	.LASF98
 1189 05c4 0D       		.byte	0xd
 1190 05c5 35       		.byte	0x35
 1191 05c6 80020000 		.4byte	0x280
 1192 05ca 00       		.byte	0
 1193 05cb 07       		.uleb128 0x7
ARM GAS  /var/folders/qd/4mxf5pkd0zdf0b9dd1hp39180000gn/T//ccdugpM0.s 			page 22


 1194 05cc 3B020000 		.4byte	.LASF99
 1195 05d0 0D       		.byte	0xd
 1196 05d1 37       		.byte	0x37
 1197 05d2 3D010000 		.4byte	0x13d
 1198 05d6 08       		.byte	0x8
 1199 05d7 00       		.byte	0
 1200 05d8 0A       		.uleb128 0xa
 1201 05d9 04       		.byte	0x4
 1202 05da B3050000 		.4byte	0x5b3
 1203 05de 06       		.uleb128 0x6
 1204 05df FF060000 		.4byte	.LASF100
 1205 05e3 10       		.byte	0x10
 1206 05e4 0E       		.byte	0xe
 1207 05e5 39       		.byte	0x39
 1208 05e6 0F060000 		.4byte	0x60f
 1209 05ea 07       		.uleb128 0x7
 1210 05eb 27010000 		.4byte	.LASF101
 1211 05ef 0E       		.byte	0xe
 1212 05f0 3A       		.byte	0x3a
 1213 05f1 80020000 		.4byte	0x280
 1214 05f5 00       		.byte	0
 1215 05f6 07       		.uleb128 0x7
 1216 05f7 7E070000 		.4byte	.LASF102
 1217 05fb 0E       		.byte	0xe
 1218 05fc 3C       		.byte	0x3c
 1219 05fd 56020000 		.4byte	0x256
 1220 0601 08       		.byte	0x8
 1221 0602 07       		.uleb128 0x7
 1222 0603 93060000 		.4byte	.LASF103
 1223 0607 0E       		.byte	0xe
 1224 0608 3E       		.byte	0x3e
 1225 0609 64070000 		.4byte	0x764
 1226 060d 0C       		.byte	0xc
 1227 060e 00       		.byte	0
 1228 060f 0A       		.uleb128 0xa
 1229 0610 04       		.byte	0x4
 1230 0611 DE050000 		.4byte	0x5de
 1231 0615 0A       		.uleb128 0xa
 1232 0616 04       		.byte	0x4
 1233 0617 27060000 		.4byte	0x627
 1234 061b 05       		.uleb128 0x5
 1235 061c 15060000 		.4byte	0x615
 1236 0620 04       		.uleb128 0x4
 1237 0621 01       		.byte	0x1
 1238 0622 08       		.byte	0x8
 1239 0623 66060000 		.4byte	.LASF104
 1240 0627 16       		.uleb128 0x16
 1241 0628 20060000 		.4byte	0x620
 1242 062c 0A       		.uleb128 0xa
 1243 062d 04       		.byte	0x4
 1244 062e 35030000 		.4byte	0x335
 1245 0632 17       		.uleb128 0x17
 1246 0633 8B040000 		.4byte	0x48b
 1247 0637 42060000 		.4byte	0x642
 1248 063b 18       		.uleb128 0x18
 1249 063c 37000000 		.4byte	0x37
 1250 0640 1A       		.byte	0x1a
ARM GAS  /var/folders/qd/4mxf5pkd0zdf0b9dd1hp39180000gn/T//ccdugpM0.s 			page 23


 1251 0641 00       		.byte	0
 1252 0642 19       		.uleb128 0x19
 1253 0643 636800   		.ascii	"ch\000"
 1254 0646 07       		.byte	0x7
 1255 0647 0902     		.2byte	0x209
 1256 0649 02040000 		.4byte	0x402
 1257 064d 13       		.uleb128 0x13
 1258 064e 16       		.byte	0x16
 1259 064f 0F       		.byte	0xf
 1260 0650 34       		.byte	0x34
 1261 0651 2E070000 		.4byte	0x72e
 1262 0655 07       		.uleb128 0x7
 1263 0656 86070000 		.4byte	.LASF105
 1264 065a 0F       		.byte	0xf
 1265 065b 35       		.byte	0x35
 1266 065c 2E070000 		.4byte	0x72e
 1267 0660 00       		.byte	0
 1268 0661 07       		.uleb128 0x7
 1269 0662 C7020000 		.4byte	.LASF106
 1270 0666 0F       		.byte	0xf
 1271 0667 36       		.byte	0x36
 1272 0668 B4000000 		.4byte	0xb4
 1273 066c 04       		.byte	0x4
 1274 066d 07       		.uleb128 0x7
 1275 066e 3A060000 		.4byte	.LASF107
 1276 0672 0F       		.byte	0xf
 1277 0673 37       		.byte	0x37
 1278 0674 B4000000 		.4byte	0xb4
 1279 0678 05       		.byte	0x5
 1280 0679 07       		.uleb128 0x7
 1281 067a 7F010000 		.4byte	.LASF108
 1282 067e 0F       		.byte	0xf
 1283 067f 38       		.byte	0x38
 1284 0680 BF000000 		.4byte	0xbf
 1285 0684 06       		.byte	0x6
 1286 0685 07       		.uleb128 0x7
 1287 0686 FE040000 		.4byte	.LASF109
 1288 068a 0F       		.byte	0xf
 1289 068b 39       		.byte	0x39
 1290 068c B4000000 		.4byte	0xb4
 1291 0690 08       		.byte	0x8
 1292 0691 07       		.uleb128 0x7
 1293 0692 FD030000 		.4byte	.LASF110
 1294 0696 0F       		.byte	0xf
 1295 0697 3A       		.byte	0x3a
 1296 0698 B4000000 		.4byte	0xb4
 1297 069c 09       		.byte	0x9
 1298 069d 07       		.uleb128 0x7
 1299 069e 72000000 		.4byte	.LASF111
 1300 06a2 0F       		.byte	0xf
 1301 06a3 3B       		.byte	0x3b
 1302 06a4 B4000000 		.4byte	0xb4
 1303 06a8 0A       		.byte	0xa
 1304 06a9 07       		.uleb128 0x7
 1305 06aa 0D060000 		.4byte	.LASF112
 1306 06ae 0F       		.byte	0xf
 1307 06af 3C       		.byte	0x3c
ARM GAS  /var/folders/qd/4mxf5pkd0zdf0b9dd1hp39180000gn/T//ccdugpM0.s 			page 24


 1308 06b0 B4000000 		.4byte	0xb4
 1309 06b4 0B       		.byte	0xb
 1310 06b5 07       		.uleb128 0x7
 1311 06b6 F4060000 		.4byte	.LASF113
 1312 06ba 0F       		.byte	0xf
 1313 06bb 3D       		.byte	0x3d
 1314 06bc B4000000 		.4byte	0xb4
 1315 06c0 0C       		.byte	0xc
 1316 06c1 07       		.uleb128 0x7
 1317 06c2 DF050000 		.4byte	.LASF114
 1318 06c6 0F       		.byte	0xf
 1319 06c7 3E       		.byte	0x3e
 1320 06c8 B4000000 		.4byte	0xb4
 1321 06cc 0D       		.byte	0xd
 1322 06cd 07       		.uleb128 0x7
 1323 06ce 1A020000 		.4byte	.LASF115
 1324 06d2 0F       		.byte	0xf
 1325 06d3 3F       		.byte	0x3f
 1326 06d4 B4000000 		.4byte	0xb4
 1327 06d8 0E       		.byte	0xe
 1328 06d9 07       		.uleb128 0x7
 1329 06da 09040000 		.4byte	.LASF116
 1330 06de 0F       		.byte	0xf
 1331 06df 40       		.byte	0x40
 1332 06e0 B4000000 		.4byte	0xb4
 1333 06e4 0F       		.byte	0xf
 1334 06e5 07       		.uleb128 0x7
 1335 06e6 02010000 		.4byte	.LASF117
 1336 06ea 0F       		.byte	0xf
 1337 06eb 41       		.byte	0x41
 1338 06ec B4000000 		.4byte	0xb4
 1339 06f0 10       		.byte	0x10
 1340 06f1 07       		.uleb128 0x7
 1341 06f2 D7000000 		.4byte	.LASF118
 1342 06f6 0F       		.byte	0xf
 1343 06f7 43       		.byte	0x43
 1344 06f8 B4000000 		.4byte	0xb4
 1345 06fc 11       		.byte	0x11
 1346 06fd 07       		.uleb128 0x7
 1347 06fe 12010000 		.4byte	.LASF119
 1348 0702 0F       		.byte	0xf
 1349 0703 44       		.byte	0x44
 1350 0704 B4000000 		.4byte	0xb4
 1351 0708 12       		.byte	0x12
 1352 0709 07       		.uleb128 0x7
 1353 070a CF020000 		.4byte	.LASF120
 1354 070e 0F       		.byte	0xf
 1355 070f 45       		.byte	0x45
 1356 0710 B4000000 		.4byte	0xb4
 1357 0714 13       		.byte	0x13
 1358 0715 07       		.uleb128 0x7
 1359 0716 A3050000 		.4byte	.LASF121
 1360 071a 0F       		.byte	0xf
 1361 071b 46       		.byte	0x46
 1362 071c B4000000 		.4byte	0xb4
 1363 0720 14       		.byte	0x14
 1364 0721 07       		.uleb128 0x7
ARM GAS  /var/folders/qd/4mxf5pkd0zdf0b9dd1hp39180000gn/T//ccdugpM0.s 			page 25


 1365 0722 7B020000 		.4byte	.LASF122
 1366 0726 0F       		.byte	0xf
 1367 0727 48       		.byte	0x48
 1368 0728 B4000000 		.4byte	0xb4
 1369 072c 15       		.byte	0x15
 1370 072d 00       		.byte	0
 1371 072e 17       		.uleb128 0x17
 1372 072f 20060000 		.4byte	0x620
 1373 0733 3E070000 		.4byte	0x73e
 1374 0737 18       		.uleb128 0x18
 1375 0738 37000000 		.4byte	0x37
 1376 073c 03       		.byte	0x3
 1377 073d 00       		.byte	0
 1378 073e 03       		.uleb128 0x3
 1379 073f 8A010000 		.4byte	.LASF123
 1380 0743 0F       		.byte	0xf
 1381 0744 49       		.byte	0x49
 1382 0745 4D060000 		.4byte	0x64d
 1383 0749 16       		.uleb128 0x16
 1384 074a 3E070000 		.4byte	0x73e
 1385 074e 11       		.uleb128 0x11
 1386 074f 32020000 		.4byte	.LASF124
 1387 0753 0F       		.byte	0xf
 1388 0754 6E       		.byte	0x6e
 1389 0755 49070000 		.4byte	0x749
 1390 0759 03       		.uleb128 0x3
 1391 075a BD010000 		.4byte	.LASF125
 1392 075e 0E       		.byte	0xe
 1393 075f 34       		.byte	0x34
 1394 0760 DE050000 		.4byte	0x5de
 1395 0764 0A       		.uleb128 0xa
 1396 0765 04       		.byte	0x4
 1397 0766 59070000 		.4byte	0x759
 1398 076a 03       		.uleb128 0x3
 1399 076b 4E000000 		.4byte	.LASF126
 1400 076f 10       		.byte	0x10
 1401 0770 36       		.byte	0x36
 1402 0771 75070000 		.4byte	0x775
 1403 0775 0A       		.uleb128 0xa
 1404 0776 04       		.byte	0x4
 1405 0777 7B070000 		.4byte	0x77b
 1406 077b 1A       		.uleb128 0x1a
 1407 077c 33030000 		.4byte	0x333
 1408 0780 8A070000 		.4byte	0x78a
 1409 0784 0D       		.uleb128 0xd
 1410 0785 2C000000 		.4byte	0x2c
 1411 0789 00       		.byte	0
 1412 078a 03       		.uleb128 0x3
 1413 078b 63010000 		.4byte	.LASF127
 1414 078f 11       		.byte	0x11
 1415 0790 3C       		.byte	0x3c
 1416 0791 95070000 		.4byte	0x795
 1417 0795 06       		.uleb128 0x6
 1418 0796 9C070000 		.4byte	.LASF128
 1419 079a 20       		.byte	0x20
 1420 079b 11       		.byte	0x11
 1421 079c 4F       		.byte	0x4f
ARM GAS  /var/folders/qd/4mxf5pkd0zdf0b9dd1hp39180000gn/T//ccdugpM0.s 			page 26


 1422 079d C6070000 		.4byte	0x7c6
 1423 07a1 07       		.uleb128 0x7
 1424 07a2 1D070000 		.4byte	.LASF129
 1425 07a6 11       		.byte	0x11
 1426 07a7 50       		.byte	0x50
 1427 07a8 6A070000 		.4byte	0x76a
 1428 07ac 00       		.byte	0
 1429 07ad 07       		.uleb128 0x7
 1430 07ae 89000000 		.4byte	.LASF130
 1431 07b2 11       		.byte	0x11
 1432 07b3 52       		.byte	0x52
 1433 07b4 E5070000 		.4byte	0x7e5
 1434 07b8 08       		.byte	0x8
 1435 07b9 07       		.uleb128 0x7
 1436 07ba FC000000 		.4byte	.LASF131
 1437 07be 11       		.byte	0x11
 1438 07bf 54       		.byte	0x54
 1439 07c0 59070000 		.4byte	0x759
 1440 07c4 10       		.byte	0x10
 1441 07c5 00       		.byte	0
 1442 07c6 14       		.uleb128 0x14
 1443 07c7 04       		.byte	0x4
 1444 07c8 11       		.byte	0x11
 1445 07c9 44       		.byte	0x44
 1446 07ca E5070000 		.4byte	0x7e5
 1447 07ce 1B       		.uleb128 0x1b
 1448 07cf 14000000 		.4byte	.LASF132
 1449 07d3 11       		.byte	0x11
 1450 07d4 45       		.byte	0x45
 1451 07d5 06080000 		.4byte	0x806
 1452 07d9 1B       		.uleb128 0x1b
 1453 07da 42060000 		.4byte	.LASF133
 1454 07de 11       		.byte	0x11
 1455 07df 46       		.byte	0x46
 1456 07e0 0C080000 		.4byte	0x80c
 1457 07e4 00       		.byte	0
 1458 07e5 1C       		.uleb128 0x1c
 1459 07e6 5E050000 		.4byte	.LASF151
 1460 07ea 08       		.byte	0x8
 1461 07eb 11       		.byte	0x11
 1462 07ec 41       		.byte	0x41
 1463 07ed 06080000 		.4byte	0x806
 1464 07f1 1B       		.uleb128 0x1b
 1465 07f2 B9000000 		.4byte	.LASF134
 1466 07f6 11       		.byte	0x11
 1467 07f7 42       		.byte	0x42
 1468 07f8 8B040000 		.4byte	0x48b
 1469 07fc 1D       		.uleb128 0x1d
 1470 07fd 6800     		.ascii	"h\000"
 1471 07ff 11       		.byte	0x11
 1472 0800 49       		.byte	0x49
 1473 0801 12080000 		.4byte	0x812
 1474 0805 00       		.byte	0
 1475 0806 0A       		.uleb128 0xa
 1476 0807 04       		.byte	0x4
 1477 0808 E5070000 		.4byte	0x7e5
 1478 080c 0A       		.uleb128 0xa
ARM GAS  /var/folders/qd/4mxf5pkd0zdf0b9dd1hp39180000gn/T//ccdugpM0.s 			page 27


 1479 080d 04       		.byte	0x4
 1480 080e 8A070000 		.4byte	0x78a
 1481 0812 13       		.uleb128 0x13
 1482 0813 08       		.byte	0x8
 1483 0814 11       		.byte	0x11
 1484 0815 43       		.byte	0x43
 1485 0816 31080000 		.4byte	0x831
 1486 081a 12       		.uleb128 0x12
 1487 081b 7500     		.ascii	"u\000"
 1488 081d 11       		.byte	0x11
 1489 081e 47       		.byte	0x47
 1490 081f C6070000 		.4byte	0x7c6
 1491 0823 00       		.byte	0
 1492 0824 07       		.uleb128 0x7
 1493 0825 64070000 		.4byte	.LASF135
 1494 0829 11       		.byte	0x11
 1495 082a 48       		.byte	0x48
 1496 082b 2C000000 		.4byte	0x2c
 1497 082f 04       		.byte	0x4
 1498 0830 00       		.byte	0
 1499 0831 1E       		.uleb128 0x1e
 1500 0832 59060000 		.4byte	.LASF138
 1501 0836 01       		.byte	0x1
 1502 0837 4C       		.byte	0x4c
 1503 0838 8A070000 		.4byte	0x78a
 1504 083c 05       		.uleb128 0x5
 1505 083d 03       		.byte	0x3
 1506 083e 00000000 		.4byte	default_heap
 1507 0842 1F       		.uleb128 0x1f
 1508 0843 86060000 		.4byte	.LASF139
 1509 0847 01       		.byte	0x1
 1510 0848 0B01     		.2byte	0x10b
 1511 084a 2C000000 		.4byte	0x2c
 1512 084e 00000000 		.4byte	.LFB233
 1513 0852 44000000 		.4byte	.LFE233-.LFB233
 1514 0856 01       		.uleb128 0x1
 1515 0857 9C       		.byte	0x9c
 1516 0858 CD080000 		.4byte	0x8cd
 1517 085c 20       		.uleb128 0x20
 1518 085d B3000000 		.4byte	.LASF136
 1519 0861 01       		.byte	0x1
 1520 0862 0B01     		.2byte	0x10b
 1521 0864 0C080000 		.4byte	0x80c
 1522 0868 00000000 		.4byte	.LLST13
 1523 086c 20       		.uleb128 0x20
 1524 086d 57070000 		.4byte	.LASF137
 1525 0871 01       		.byte	0x1
 1526 0872 0B01     		.2byte	0x10b
 1527 0874 CD080000 		.4byte	0x8cd
 1528 0878 43000000 		.4byte	.LLST14
 1529 087c 21       		.uleb128 0x21
 1530 087d 717000   		.ascii	"qp\000"
 1531 0880 01       		.byte	0x1
 1532 0881 0C01     		.2byte	0x10c
 1533 0883 06080000 		.4byte	0x806
 1534 0887 61000000 		.4byte	.LLST15
 1535 088b 21       		.uleb128 0x21
ARM GAS  /var/folders/qd/4mxf5pkd0zdf0b9dd1hp39180000gn/T//ccdugpM0.s 			page 28


 1536 088c 6E00     		.ascii	"n\000"
 1537 088e 01       		.byte	0x1
 1538 088f 0D01     		.2byte	0x10d
 1539 0891 2C000000 		.4byte	0x2c
 1540 0895 9D000000 		.4byte	.LLST16
 1541 0899 21       		.uleb128 0x21
 1542 089a 737A00   		.ascii	"sz\000"
 1543 089d 01       		.byte	0x1
 1544 089e 0D01     		.2byte	0x10d
 1545 08a0 2C000000 		.4byte	0x2c
 1546 08a4 E0000000 		.4byte	.LLST17
 1547 08a8 22       		.uleb128 0x22
 1548 08a9 16000000 		.4byte	.LVL41
 1549 08ad BA0A0000 		.4byte	0xaba
 1550 08b1 BC080000 		.4byte	0x8bc
 1551 08b5 23       		.uleb128 0x23
 1552 08b6 01       		.uleb128 0x1
 1553 08b7 50       		.byte	0x50
 1554 08b8 02       		.uleb128 0x2
 1555 08b9 75       		.byte	0x75
 1556 08ba 00       		.sleb128 0
 1557 08bb 00       		.byte	0
 1558 08bc 24       		.uleb128 0x24
 1559 08bd 34000000 		.4byte	.LVL46
 1560 08c1 C50A0000 		.4byte	0xac5
 1561 08c5 23       		.uleb128 0x23
 1562 08c6 01       		.uleb128 0x1
 1563 08c7 50       		.byte	0x50
 1564 08c8 02       		.uleb128 0x2
 1565 08c9 75       		.byte	0x75
 1566 08ca 00       		.sleb128 0
 1567 08cb 00       		.byte	0
 1568 08cc 00       		.byte	0
 1569 08cd 0A       		.uleb128 0xa
 1570 08ce 04       		.byte	0x4
 1571 08cf 2C000000 		.4byte	0x2c
 1572 08d3 25       		.uleb128 0x25
 1573 08d4 2F010000 		.4byte	.LASF141
 1574 08d8 01       		.byte	0x1
 1575 08d9 D5       		.byte	0xd5
 1576 08da 00000000 		.4byte	.LFB232
 1577 08de 8A000000 		.4byte	.LFE232-.LFB232
 1578 08e2 01       		.uleb128 0x1
 1579 08e3 9C       		.byte	0x9c
 1580 08e4 50090000 		.4byte	0x950
 1581 08e8 26       		.uleb128 0x26
 1582 08e9 7000     		.ascii	"p\000"
 1583 08eb 01       		.byte	0x1
 1584 08ec D5       		.byte	0xd5
 1585 08ed 33030000 		.4byte	0x333
 1586 08f1 0B010000 		.4byte	.LLST9
 1587 08f5 27       		.uleb128 0x27
 1588 08f6 717000   		.ascii	"qp\000"
 1589 08f9 01       		.byte	0x1
 1590 08fa D6       		.byte	0xd6
 1591 08fb 06080000 		.4byte	0x806
 1592 08ff 50010000 		.4byte	.LLST10
ARM GAS  /var/folders/qd/4mxf5pkd0zdf0b9dd1hp39180000gn/T//ccdugpM0.s 			page 29


 1593 0903 27       		.uleb128 0x27
 1594 0904 687000   		.ascii	"hp\000"
 1595 0907 01       		.byte	0x1
 1596 0908 D6       		.byte	0xd6
 1597 0909 06080000 		.4byte	0x806
 1598 090d 84010000 		.4byte	.LLST11
 1599 0911 28       		.uleb128 0x28
 1600 0912 B3000000 		.4byte	.LASF136
 1601 0916 01       		.byte	0x1
 1602 0917 D7       		.byte	0xd7
 1603 0918 0C080000 		.4byte	0x80c
 1604 091c C2010000 		.4byte	.LLST12
 1605 0920 29       		.uleb128 0x29
 1606 0921 BA050000 		.4byte	.LASF143
 1607 0925 60090000 		.4byte	0x960
 1608 0929 22       		.uleb128 0x22
 1609 092a 18000000 		.4byte	.LVL31
 1610 092e BA0A0000 		.4byte	0xaba
 1611 0932 3D090000 		.4byte	0x93d
 1612 0936 23       		.uleb128 0x23
 1613 0937 01       		.uleb128 0x1
 1614 0938 50       		.byte	0x50
 1615 0939 02       		.uleb128 0x2
 1616 093a 77       		.byte	0x77
 1617 093b 00       		.sleb128 0
 1618 093c 00       		.byte	0
 1619 093d 2A       		.uleb128 0x2a
 1620 093e 58000000 		.4byte	.LVL36
 1621 0942 C50A0000 		.4byte	0xac5
 1622 0946 2A       		.uleb128 0x2a
 1623 0947 8A000000 		.4byte	.LVL38
 1624 094b C50A0000 		.4byte	0xac5
 1625 094f 00       		.byte	0
 1626 0950 17       		.uleb128 0x17
 1627 0951 27060000 		.4byte	0x627
 1628 0955 60090000 		.4byte	0x960
 1629 0959 18       		.uleb128 0x18
 1630 095a 37000000 		.4byte	0x37
 1631 095e 0A       		.byte	0xa
 1632 095f 00       		.byte	0
 1633 0960 16       		.uleb128 0x16
 1634 0961 50090000 		.4byte	0x950
 1635 0965 2B       		.uleb128 0x2b
 1636 0966 D3050000 		.4byte	.LASF140
 1637 096a 01       		.byte	0x1
 1638 096b 93       		.byte	0x93
 1639 096c 33030000 		.4byte	0x333
 1640 0970 00000000 		.4byte	.LFB231
 1641 0974 88000000 		.4byte	.LFE231-.LFB231
 1642 0978 01       		.uleb128 0x1
 1643 0979 9C       		.byte	0x9c
 1644 097a 0F0A0000 		.4byte	0xa0f
 1645 097e 2C       		.uleb128 0x2c
 1646 097f B3000000 		.4byte	.LASF136
 1647 0983 01       		.byte	0x1
 1648 0984 93       		.byte	0x93
 1649 0985 0C080000 		.4byte	0x80c
ARM GAS  /var/folders/qd/4mxf5pkd0zdf0b9dd1hp39180000gn/T//ccdugpM0.s 			page 30


 1650 0989 15020000 		.4byte	.LLST4
 1651 098d 2C       		.uleb128 0x2c
 1652 098e 64070000 		.4byte	.LASF135
 1653 0992 01       		.byte	0x1
 1654 0993 93       		.byte	0x93
 1655 0994 2C000000 		.4byte	0x2c
 1656 0998 33020000 		.4byte	.LLST5
 1657 099c 27       		.uleb128 0x27
 1658 099d 717000   		.ascii	"qp\000"
 1659 09a0 01       		.byte	0x1
 1660 09a1 94       		.byte	0x94
 1661 09a2 06080000 		.4byte	0x806
 1662 09a6 5E020000 		.4byte	.LLST6
 1663 09aa 27       		.uleb128 0x27
 1664 09ab 687000   		.ascii	"hp\000"
 1665 09ae 01       		.byte	0x1
 1666 09af 94       		.byte	0x94
 1667 09b0 06080000 		.4byte	0x806
 1668 09b4 87020000 		.4byte	.LLST7
 1669 09b8 27       		.uleb128 0x27
 1670 09b9 667000   		.ascii	"fp\000"
 1671 09bc 01       		.byte	0x1
 1672 09bd 94       		.byte	0x94
 1673 09be 06080000 		.4byte	0x806
 1674 09c2 EA020000 		.4byte	.LLST8
 1675 09c6 22       		.uleb128 0x22
 1676 09c7 1E000000 		.4byte	.LVL10
 1677 09cb BA0A0000 		.4byte	0xaba
 1678 09cf DA090000 		.4byte	0x9da
 1679 09d3 23       		.uleb128 0x23
 1680 09d4 01       		.uleb128 0x1
 1681 09d5 50       		.byte	0x50
 1682 09d6 02       		.uleb128 0x2
 1683 09d7 77       		.byte	0x77
 1684 09d8 00       		.sleb128 0
 1685 09d9 00       		.byte	0
 1686 09da 22       		.uleb128 0x22
 1687 09db 34000000 		.4byte	.LVL15
 1688 09df C50A0000 		.4byte	0xac5
 1689 09e3 EE090000 		.4byte	0x9ee
 1690 09e7 23       		.uleb128 0x23
 1691 09e8 01       		.uleb128 0x1
 1692 09e9 50       		.byte	0x50
 1693 09ea 02       		.uleb128 0x2
 1694 09eb 77       		.byte	0x77
 1695 09ec 00       		.sleb128 0
 1696 09ed 00       		.byte	0
 1697 09ee 2D       		.uleb128 0x2d
 1698 09ef 3E000000 		.4byte	.LVL16
 1699 09f3 FE090000 		.4byte	0x9fe
 1700 09f7 23       		.uleb128 0x23
 1701 09f8 01       		.uleb128 0x1
 1702 09f9 50       		.byte	0x50
 1703 09fa 02       		.uleb128 0x2
 1704 09fb 75       		.byte	0x75
 1705 09fc 08       		.sleb128 8
 1706 09fd 00       		.byte	0
ARM GAS  /var/folders/qd/4mxf5pkd0zdf0b9dd1hp39180000gn/T//ccdugpM0.s 			page 31


 1707 09fe 24       		.uleb128 0x24
 1708 09ff 64000000 		.4byte	.LVL22
 1709 0a03 C50A0000 		.4byte	0xac5
 1710 0a07 23       		.uleb128 0x23
 1711 0a08 01       		.uleb128 0x1
 1712 0a09 50       		.byte	0x50
 1713 0a0a 02       		.uleb128 0x2
 1714 0a0b 77       		.byte	0x77
 1715 0a0c 00       		.sleb128 0
 1716 0a0d 00       		.byte	0
 1717 0a0e 00       		.byte	0
 1718 0a0f 25       		.uleb128 0x25
 1719 0a10 B6020000 		.4byte	.LASF142
 1720 0a14 01       		.byte	0x1
 1721 0a15 72       		.byte	0x72
 1722 0a16 00000000 		.4byte	.LFB230
 1723 0a1a 14000000 		.4byte	.LFE230-.LFB230
 1724 0a1e 01       		.uleb128 0x1
 1725 0a1f 9C       		.byte	0x9c
 1726 0a20 7C0A0000 		.4byte	0xa7c
 1727 0a24 2C       		.uleb128 0x2c
 1728 0a25 B3000000 		.4byte	.LASF136
 1729 0a29 01       		.byte	0x1
 1730 0a2a 72       		.byte	0x72
 1731 0a2b 0C080000 		.4byte	0x80c
 1732 0a2f FD020000 		.4byte	.LLST0
 1733 0a33 26       		.uleb128 0x26
 1734 0a34 62756600 		.ascii	"buf\000"
 1735 0a38 01       		.byte	0x1
 1736 0a39 72       		.byte	0x72
 1737 0a3a 33030000 		.4byte	0x333
 1738 0a3e 2B030000 		.4byte	.LLST1
 1739 0a42 2C       		.uleb128 0x2c
 1740 0a43 64070000 		.4byte	.LASF135
 1741 0a47 01       		.byte	0x1
 1742 0a48 72       		.byte	0x72
 1743 0a49 2C000000 		.4byte	0x2c
 1744 0a4d 4C030000 		.4byte	.LLST2
 1745 0a51 27       		.uleb128 0x27
 1746 0a52 687000   		.ascii	"hp\000"
 1747 0a55 01       		.byte	0x1
 1748 0a56 73       		.byte	0x73
 1749 0a57 06080000 		.4byte	0x806
 1750 0a5b 7A030000 		.4byte	.LLST3
 1751 0a5f 29       		.uleb128 0x29
 1752 0a60 BA050000 		.4byte	.LASF143
 1753 0a64 8C0A0000 		.4byte	0xa8c
 1754 0a68 2E       		.uleb128 0x2e
 1755 0a69 14000000 		.4byte	.LVL4
 1756 0a6d D00A0000 		.4byte	0xad0
 1757 0a71 23       		.uleb128 0x23
 1758 0a72 01       		.uleb128 0x1
 1759 0a73 50       		.byte	0x50
 1760 0a74 05       		.uleb128 0x5
 1761 0a75 F3       		.byte	0xf3
 1762 0a76 01       		.uleb128 0x1
 1763 0a77 50       		.byte	0x50
ARM GAS  /var/folders/qd/4mxf5pkd0zdf0b9dd1hp39180000gn/T//ccdugpM0.s 			page 32


 1764 0a78 23       		.byte	0x23
 1765 0a79 10       		.uleb128 0x10
 1766 0a7a 00       		.byte	0
 1767 0a7b 00       		.byte	0
 1768 0a7c 17       		.uleb128 0x17
 1769 0a7d 27060000 		.4byte	0x627
 1770 0a81 8C0A0000 		.4byte	0xa8c
 1771 0a85 18       		.uleb128 0x18
 1772 0a86 37000000 		.4byte	0x37
 1773 0a8a 10       		.byte	0x10
 1774 0a8b 00       		.byte	0
 1775 0a8c 16       		.uleb128 0x16
 1776 0a8d 7C0A0000 		.4byte	0xa7c
 1777 0a91 25       		.uleb128 0x25
 1778 0a92 C5010000 		.4byte	.LASF144
 1779 0a96 01       		.byte	0x1
 1780 0a97 5B       		.byte	0x5b
 1781 0a98 00000000 		.4byte	.LFB229
 1782 0a9c 1C000000 		.4byte	.LFE229-.LFB229
 1783 0aa0 01       		.uleb128 0x1
 1784 0aa1 9C       		.byte	0x9c
 1785 0aa2 BA0A0000 		.4byte	0xaba
 1786 0aa6 2E       		.uleb128 0x2e
 1787 0aa7 14000000 		.4byte	.LVL0
 1788 0aab D00A0000 		.4byte	0xad0
 1789 0aaf 23       		.uleb128 0x23
 1790 0ab0 01       		.uleb128 0x1
 1791 0ab1 50       		.byte	0x50
 1792 0ab2 05       		.uleb128 0x5
 1793 0ab3 03       		.byte	0x3
 1794 0ab4 10000000 		.4byte	.LANCHOR0+16
 1795 0ab8 00       		.byte	0
 1796 0ab9 00       		.byte	0
 1797 0aba 2F       		.uleb128 0x2f
 1798 0abb 15040000 		.4byte	.LASF145
 1799 0abf 15040000 		.4byte	.LASF145
 1800 0ac3 0E       		.byte	0xe
 1801 0ac4 68       		.byte	0x68
 1802 0ac5 2F       		.uleb128 0x2f
 1803 0ac6 E4000000 		.4byte	.LASF146
 1804 0aca E4000000 		.4byte	.LASF146
 1805 0ace 0E       		.byte	0xe
 1806 0acf 6C       		.byte	0x6c
 1807 0ad0 2F       		.uleb128 0x2f
 1808 0ad1 28050000 		.4byte	.LASF147
 1809 0ad5 28050000 		.4byte	.LASF147
 1810 0ad9 0E       		.byte	0xe
 1811 0ada 67       		.byte	0x67
 1812 0adb 00       		.byte	0
 1813              		.section	.debug_abbrev,"",%progbits
 1814              	.Ldebug_abbrev0:
 1815 0000 01       		.uleb128 0x1
 1816 0001 11       		.uleb128 0x11
 1817 0002 01       		.byte	0x1
 1818 0003 25       		.uleb128 0x25
 1819 0004 0E       		.uleb128 0xe
 1820 0005 13       		.uleb128 0x13
ARM GAS  /var/folders/qd/4mxf5pkd0zdf0b9dd1hp39180000gn/T//ccdugpM0.s 			page 33


 1821 0006 0B       		.uleb128 0xb
 1822 0007 03       		.uleb128 0x3
 1823 0008 0E       		.uleb128 0xe
 1824 0009 1B       		.uleb128 0x1b
 1825 000a 0E       		.uleb128 0xe
 1826 000b 55       		.uleb128 0x55
 1827 000c 17       		.uleb128 0x17
 1828 000d 11       		.uleb128 0x11
 1829 000e 01       		.uleb128 0x1
 1830 000f 10       		.uleb128 0x10
 1831 0010 17       		.uleb128 0x17
 1832 0011 00       		.byte	0
 1833 0012 00       		.byte	0
 1834 0013 02       		.uleb128 0x2
 1835 0014 24       		.uleb128 0x24
 1836 0015 00       		.byte	0
 1837 0016 0B       		.uleb128 0xb
 1838 0017 0B       		.uleb128 0xb
 1839 0018 3E       		.uleb128 0x3e
 1840 0019 0B       		.uleb128 0xb
 1841 001a 03       		.uleb128 0x3
 1842 001b 08       		.uleb128 0x8
 1843 001c 00       		.byte	0
 1844 001d 00       		.byte	0
 1845 001e 03       		.uleb128 0x3
 1846 001f 16       		.uleb128 0x16
 1847 0020 00       		.byte	0
 1848 0021 03       		.uleb128 0x3
 1849 0022 0E       		.uleb128 0xe
 1850 0023 3A       		.uleb128 0x3a
 1851 0024 0B       		.uleb128 0xb
 1852 0025 3B       		.uleb128 0x3b
 1853 0026 0B       		.uleb128 0xb
 1854 0027 49       		.uleb128 0x49
 1855 0028 13       		.uleb128 0x13
 1856 0029 00       		.byte	0
 1857 002a 00       		.byte	0
 1858 002b 04       		.uleb128 0x4
 1859 002c 24       		.uleb128 0x24
 1860 002d 00       		.byte	0
 1861 002e 0B       		.uleb128 0xb
 1862 002f 0B       		.uleb128 0xb
 1863 0030 3E       		.uleb128 0x3e
 1864 0031 0B       		.uleb128 0xb
 1865 0032 03       		.uleb128 0x3
 1866 0033 0E       		.uleb128 0xe
 1867 0034 00       		.byte	0
 1868 0035 00       		.byte	0
 1869 0036 05       		.uleb128 0x5
 1870 0037 35       		.uleb128 0x35
 1871 0038 00       		.byte	0
 1872 0039 49       		.uleb128 0x49
 1873 003a 13       		.uleb128 0x13
 1874 003b 00       		.byte	0
 1875 003c 00       		.byte	0
 1876 003d 06       		.uleb128 0x6
 1877 003e 13       		.uleb128 0x13
ARM GAS  /var/folders/qd/4mxf5pkd0zdf0b9dd1hp39180000gn/T//ccdugpM0.s 			page 34


 1878 003f 01       		.byte	0x1
 1879 0040 03       		.uleb128 0x3
 1880 0041 0E       		.uleb128 0xe
 1881 0042 0B       		.uleb128 0xb
 1882 0043 0B       		.uleb128 0xb
 1883 0044 3A       		.uleb128 0x3a
 1884 0045 0B       		.uleb128 0xb
 1885 0046 3B       		.uleb128 0x3b
 1886 0047 0B       		.uleb128 0xb
 1887 0048 01       		.uleb128 0x1
 1888 0049 13       		.uleb128 0x13
 1889 004a 00       		.byte	0
 1890 004b 00       		.byte	0
 1891 004c 07       		.uleb128 0x7
 1892 004d 0D       		.uleb128 0xd
 1893 004e 00       		.byte	0
 1894 004f 03       		.uleb128 0x3
 1895 0050 0E       		.uleb128 0xe
 1896 0051 3A       		.uleb128 0x3a
 1897 0052 0B       		.uleb128 0xb
 1898 0053 3B       		.uleb128 0x3b
 1899 0054 0B       		.uleb128 0xb
 1900 0055 49       		.uleb128 0x49
 1901 0056 13       		.uleb128 0x13
 1902 0057 38       		.uleb128 0x38
 1903 0058 0B       		.uleb128 0xb
 1904 0059 00       		.byte	0
 1905 005a 00       		.byte	0
 1906 005b 08       		.uleb128 0x8
 1907 005c 0D       		.uleb128 0xd
 1908 005d 00       		.byte	0
 1909 005e 03       		.uleb128 0x3
 1910 005f 08       		.uleb128 0x8
 1911 0060 3A       		.uleb128 0x3a
 1912 0061 0B       		.uleb128 0xb
 1913 0062 3B       		.uleb128 0x3b
 1914 0063 05       		.uleb128 0x5
 1915 0064 49       		.uleb128 0x49
 1916 0065 13       		.uleb128 0x13
 1917 0066 38       		.uleb128 0x38
 1918 0067 0B       		.uleb128 0xb
 1919 0068 00       		.byte	0
 1920 0069 00       		.byte	0
 1921 006a 09       		.uleb128 0x9
 1922 006b 0D       		.uleb128 0xd
 1923 006c 00       		.byte	0
 1924 006d 03       		.uleb128 0x3
 1925 006e 0E       		.uleb128 0xe
 1926 006f 3A       		.uleb128 0x3a
 1927 0070 0B       		.uleb128 0xb
 1928 0071 3B       		.uleb128 0x3b
 1929 0072 05       		.uleb128 0x5
 1930 0073 49       		.uleb128 0x49
 1931 0074 13       		.uleb128 0x13
 1932 0075 38       		.uleb128 0x38
 1933 0076 0B       		.uleb128 0xb
 1934 0077 00       		.byte	0
ARM GAS  /var/folders/qd/4mxf5pkd0zdf0b9dd1hp39180000gn/T//ccdugpM0.s 			page 35


 1935 0078 00       		.byte	0
 1936 0079 0A       		.uleb128 0xa
 1937 007a 0F       		.uleb128 0xf
 1938 007b 00       		.byte	0
 1939 007c 0B       		.uleb128 0xb
 1940 007d 0B       		.uleb128 0xb
 1941 007e 49       		.uleb128 0x49
 1942 007f 13       		.uleb128 0x13
 1943 0080 00       		.byte	0
 1944 0081 00       		.byte	0
 1945 0082 0B       		.uleb128 0xb
 1946 0083 13       		.uleb128 0x13
 1947 0084 01       		.byte	0x1
 1948 0085 03       		.uleb128 0x3
 1949 0086 0E       		.uleb128 0xe
 1950 0087 0B       		.uleb128 0xb
 1951 0088 0B       		.uleb128 0xb
 1952 0089 3A       		.uleb128 0x3a
 1953 008a 0B       		.uleb128 0xb
 1954 008b 3B       		.uleb128 0x3b
 1955 008c 05       		.uleb128 0x5
 1956 008d 01       		.uleb128 0x1
 1957 008e 13       		.uleb128 0x13
 1958 008f 00       		.byte	0
 1959 0090 00       		.byte	0
 1960 0091 0C       		.uleb128 0xc
 1961 0092 15       		.uleb128 0x15
 1962 0093 01       		.byte	0x1
 1963 0094 27       		.uleb128 0x27
 1964 0095 19       		.uleb128 0x19
 1965 0096 01       		.uleb128 0x1
 1966 0097 13       		.uleb128 0x13
 1967 0098 00       		.byte	0
 1968 0099 00       		.byte	0
 1969 009a 0D       		.uleb128 0xd
 1970 009b 05       		.uleb128 0x5
 1971 009c 00       		.byte	0
 1972 009d 49       		.uleb128 0x49
 1973 009e 13       		.uleb128 0x13
 1974 009f 00       		.byte	0
 1975 00a0 00       		.byte	0
 1976 00a1 0E       		.uleb128 0xe
 1977 00a2 0F       		.uleb128 0xf
 1978 00a3 00       		.byte	0
 1979 00a4 0B       		.uleb128 0xb
 1980 00a5 0B       		.uleb128 0xb
 1981 00a6 00       		.byte	0
 1982 00a7 00       		.byte	0
 1983 00a8 0F       		.uleb128 0xf
 1984 00a9 13       		.uleb128 0x13
 1985 00aa 01       		.byte	0x1
 1986 00ab 03       		.uleb128 0x3
 1987 00ac 0E       		.uleb128 0xe
 1988 00ad 0B       		.uleb128 0xb
 1989 00ae 05       		.uleb128 0x5
 1990 00af 3A       		.uleb128 0x3a
 1991 00b0 0B       		.uleb128 0xb
ARM GAS  /var/folders/qd/4mxf5pkd0zdf0b9dd1hp39180000gn/T//ccdugpM0.s 			page 36


 1992 00b1 3B       		.uleb128 0x3b
 1993 00b2 05       		.uleb128 0x5
 1994 00b3 01       		.uleb128 0x1
 1995 00b4 13       		.uleb128 0x13
 1996 00b5 00       		.byte	0
 1997 00b6 00       		.byte	0
 1998 00b7 10       		.uleb128 0x10
 1999 00b8 34       		.uleb128 0x34
 2000 00b9 00       		.byte	0
 2001 00ba 03       		.uleb128 0x3
 2002 00bb 0E       		.uleb128 0xe
 2003 00bc 3A       		.uleb128 0x3a
 2004 00bd 0B       		.uleb128 0xb
 2005 00be 3B       		.uleb128 0x3b
 2006 00bf 05       		.uleb128 0x5
 2007 00c0 49       		.uleb128 0x49
 2008 00c1 13       		.uleb128 0x13
 2009 00c2 3F       		.uleb128 0x3f
 2010 00c3 19       		.uleb128 0x19
 2011 00c4 3C       		.uleb128 0x3c
 2012 00c5 19       		.uleb128 0x19
 2013 00c6 00       		.byte	0
 2014 00c7 00       		.byte	0
 2015 00c8 11       		.uleb128 0x11
 2016 00c9 34       		.uleb128 0x34
 2017 00ca 00       		.byte	0
 2018 00cb 03       		.uleb128 0x3
 2019 00cc 0E       		.uleb128 0xe
 2020 00cd 3A       		.uleb128 0x3a
 2021 00ce 0B       		.uleb128 0xb
 2022 00cf 3B       		.uleb128 0x3b
 2023 00d0 0B       		.uleb128 0xb
 2024 00d1 49       		.uleb128 0x49
 2025 00d2 13       		.uleb128 0x13
 2026 00d3 3F       		.uleb128 0x3f
 2027 00d4 19       		.uleb128 0x19
 2028 00d5 3C       		.uleb128 0x3c
 2029 00d6 19       		.uleb128 0x19
 2030 00d7 00       		.byte	0
 2031 00d8 00       		.byte	0
 2032 00d9 12       		.uleb128 0x12
 2033 00da 0D       		.uleb128 0xd
 2034 00db 00       		.byte	0
 2035 00dc 03       		.uleb128 0x3
 2036 00dd 08       		.uleb128 0x8
 2037 00de 3A       		.uleb128 0x3a
 2038 00df 0B       		.uleb128 0xb
 2039 00e0 3B       		.uleb128 0x3b
 2040 00e1 0B       		.uleb128 0xb
 2041 00e2 49       		.uleb128 0x49
 2042 00e3 13       		.uleb128 0x13
 2043 00e4 38       		.uleb128 0x38
 2044 00e5 0B       		.uleb128 0xb
 2045 00e6 00       		.byte	0
 2046 00e7 00       		.byte	0
 2047 00e8 13       		.uleb128 0x13
 2048 00e9 13       		.uleb128 0x13
ARM GAS  /var/folders/qd/4mxf5pkd0zdf0b9dd1hp39180000gn/T//ccdugpM0.s 			page 37


 2049 00ea 01       		.byte	0x1
 2050 00eb 0B       		.uleb128 0xb
 2051 00ec 0B       		.uleb128 0xb
 2052 00ed 3A       		.uleb128 0x3a
 2053 00ee 0B       		.uleb128 0xb
 2054 00ef 3B       		.uleb128 0x3b
 2055 00f0 0B       		.uleb128 0xb
 2056 00f1 01       		.uleb128 0x1
 2057 00f2 13       		.uleb128 0x13
 2058 00f3 00       		.byte	0
 2059 00f4 00       		.byte	0
 2060 00f5 14       		.uleb128 0x14
 2061 00f6 17       		.uleb128 0x17
 2062 00f7 01       		.byte	0x1
 2063 00f8 0B       		.uleb128 0xb
 2064 00f9 0B       		.uleb128 0xb
 2065 00fa 3A       		.uleb128 0x3a
 2066 00fb 0B       		.uleb128 0xb
 2067 00fc 3B       		.uleb128 0x3b
 2068 00fd 0B       		.uleb128 0xb
 2069 00fe 01       		.uleb128 0x1
 2070 00ff 13       		.uleb128 0x13
 2071 0100 00       		.byte	0
 2072 0101 00       		.byte	0
 2073 0102 15       		.uleb128 0x15
 2074 0103 0D       		.uleb128 0xd
 2075 0104 00       		.byte	0
 2076 0105 03       		.uleb128 0x3
 2077 0106 0E       		.uleb128 0xe
 2078 0107 3A       		.uleb128 0x3a
 2079 0108 0B       		.uleb128 0xb
 2080 0109 3B       		.uleb128 0x3b
 2081 010a 05       		.uleb128 0x5
 2082 010b 49       		.uleb128 0x49
 2083 010c 13       		.uleb128 0x13
 2084 010d 00       		.byte	0
 2085 010e 00       		.byte	0
 2086 010f 16       		.uleb128 0x16
 2087 0110 26       		.uleb128 0x26
 2088 0111 00       		.byte	0
 2089 0112 49       		.uleb128 0x49
 2090 0113 13       		.uleb128 0x13
 2091 0114 00       		.byte	0
 2092 0115 00       		.byte	0
 2093 0116 17       		.uleb128 0x17
 2094 0117 01       		.uleb128 0x1
 2095 0118 01       		.byte	0x1
 2096 0119 49       		.uleb128 0x49
 2097 011a 13       		.uleb128 0x13
 2098 011b 01       		.uleb128 0x1
 2099 011c 13       		.uleb128 0x13
 2100 011d 00       		.byte	0
 2101 011e 00       		.byte	0
 2102 011f 18       		.uleb128 0x18
 2103 0120 21       		.uleb128 0x21
 2104 0121 00       		.byte	0
 2105 0122 49       		.uleb128 0x49
ARM GAS  /var/folders/qd/4mxf5pkd0zdf0b9dd1hp39180000gn/T//ccdugpM0.s 			page 38


 2106 0123 13       		.uleb128 0x13
 2107 0124 2F       		.uleb128 0x2f
 2108 0125 0B       		.uleb128 0xb
 2109 0126 00       		.byte	0
 2110 0127 00       		.byte	0
 2111 0128 19       		.uleb128 0x19
 2112 0129 34       		.uleb128 0x34
 2113 012a 00       		.byte	0
 2114 012b 03       		.uleb128 0x3
 2115 012c 08       		.uleb128 0x8
 2116 012d 3A       		.uleb128 0x3a
 2117 012e 0B       		.uleb128 0xb
 2118 012f 3B       		.uleb128 0x3b
 2119 0130 05       		.uleb128 0x5
 2120 0131 49       		.uleb128 0x49
 2121 0132 13       		.uleb128 0x13
 2122 0133 3F       		.uleb128 0x3f
 2123 0134 19       		.uleb128 0x19
 2124 0135 3C       		.uleb128 0x3c
 2125 0136 19       		.uleb128 0x19
 2126 0137 00       		.byte	0
 2127 0138 00       		.byte	0
 2128 0139 1A       		.uleb128 0x1a
 2129 013a 15       		.uleb128 0x15
 2130 013b 01       		.byte	0x1
 2131 013c 27       		.uleb128 0x27
 2132 013d 19       		.uleb128 0x19
 2133 013e 49       		.uleb128 0x49
 2134 013f 13       		.uleb128 0x13
 2135 0140 01       		.uleb128 0x1
 2136 0141 13       		.uleb128 0x13
 2137 0142 00       		.byte	0
 2138 0143 00       		.byte	0
 2139 0144 1B       		.uleb128 0x1b
 2140 0145 0D       		.uleb128 0xd
 2141 0146 00       		.byte	0
 2142 0147 03       		.uleb128 0x3
 2143 0148 0E       		.uleb128 0xe
 2144 0149 3A       		.uleb128 0x3a
 2145 014a 0B       		.uleb128 0xb
 2146 014b 3B       		.uleb128 0x3b
 2147 014c 0B       		.uleb128 0xb
 2148 014d 49       		.uleb128 0x49
 2149 014e 13       		.uleb128 0x13
 2150 014f 00       		.byte	0
 2151 0150 00       		.byte	0
 2152 0151 1C       		.uleb128 0x1c
 2153 0152 17       		.uleb128 0x17
 2154 0153 01       		.byte	0x1
 2155 0154 03       		.uleb128 0x3
 2156 0155 0E       		.uleb128 0xe
 2157 0156 0B       		.uleb128 0xb
 2158 0157 0B       		.uleb128 0xb
 2159 0158 3A       		.uleb128 0x3a
 2160 0159 0B       		.uleb128 0xb
 2161 015a 3B       		.uleb128 0x3b
 2162 015b 0B       		.uleb128 0xb
ARM GAS  /var/folders/qd/4mxf5pkd0zdf0b9dd1hp39180000gn/T//ccdugpM0.s 			page 39


 2163 015c 01       		.uleb128 0x1
 2164 015d 13       		.uleb128 0x13
 2165 015e 00       		.byte	0
 2166 015f 00       		.byte	0
 2167 0160 1D       		.uleb128 0x1d
 2168 0161 0D       		.uleb128 0xd
 2169 0162 00       		.byte	0
 2170 0163 03       		.uleb128 0x3
 2171 0164 08       		.uleb128 0x8
 2172 0165 3A       		.uleb128 0x3a
 2173 0166 0B       		.uleb128 0xb
 2174 0167 3B       		.uleb128 0x3b
 2175 0168 0B       		.uleb128 0xb
 2176 0169 49       		.uleb128 0x49
 2177 016a 13       		.uleb128 0x13
 2178 016b 00       		.byte	0
 2179 016c 00       		.byte	0
 2180 016d 1E       		.uleb128 0x1e
 2181 016e 34       		.uleb128 0x34
 2182 016f 00       		.byte	0
 2183 0170 03       		.uleb128 0x3
 2184 0171 0E       		.uleb128 0xe
 2185 0172 3A       		.uleb128 0x3a
 2186 0173 0B       		.uleb128 0xb
 2187 0174 3B       		.uleb128 0x3b
 2188 0175 0B       		.uleb128 0xb
 2189 0176 49       		.uleb128 0x49
 2190 0177 13       		.uleb128 0x13
 2191 0178 02       		.uleb128 0x2
 2192 0179 18       		.uleb128 0x18
 2193 017a 00       		.byte	0
 2194 017b 00       		.byte	0
 2195 017c 1F       		.uleb128 0x1f
 2196 017d 2E       		.uleb128 0x2e
 2197 017e 01       		.byte	0x1
 2198 017f 3F       		.uleb128 0x3f
 2199 0180 19       		.uleb128 0x19
 2200 0181 03       		.uleb128 0x3
 2201 0182 0E       		.uleb128 0xe
 2202 0183 3A       		.uleb128 0x3a
 2203 0184 0B       		.uleb128 0xb
 2204 0185 3B       		.uleb128 0x3b
 2205 0186 05       		.uleb128 0x5
 2206 0187 27       		.uleb128 0x27
 2207 0188 19       		.uleb128 0x19
 2208 0189 49       		.uleb128 0x49
 2209 018a 13       		.uleb128 0x13
 2210 018b 11       		.uleb128 0x11
 2211 018c 01       		.uleb128 0x1
 2212 018d 12       		.uleb128 0x12
 2213 018e 06       		.uleb128 0x6
 2214 018f 40       		.uleb128 0x40
 2215 0190 18       		.uleb128 0x18
 2216 0191 9742     		.uleb128 0x2117
 2217 0193 19       		.uleb128 0x19
 2218 0194 01       		.uleb128 0x1
 2219 0195 13       		.uleb128 0x13
ARM GAS  /var/folders/qd/4mxf5pkd0zdf0b9dd1hp39180000gn/T//ccdugpM0.s 			page 40


 2220 0196 00       		.byte	0
 2221 0197 00       		.byte	0
 2222 0198 20       		.uleb128 0x20
 2223 0199 05       		.uleb128 0x5
 2224 019a 00       		.byte	0
 2225 019b 03       		.uleb128 0x3
 2226 019c 0E       		.uleb128 0xe
 2227 019d 3A       		.uleb128 0x3a
 2228 019e 0B       		.uleb128 0xb
 2229 019f 3B       		.uleb128 0x3b
 2230 01a0 05       		.uleb128 0x5
 2231 01a1 49       		.uleb128 0x49
 2232 01a2 13       		.uleb128 0x13
 2233 01a3 02       		.uleb128 0x2
 2234 01a4 17       		.uleb128 0x17
 2235 01a5 00       		.byte	0
 2236 01a6 00       		.byte	0
 2237 01a7 21       		.uleb128 0x21
 2238 01a8 34       		.uleb128 0x34
 2239 01a9 00       		.byte	0
 2240 01aa 03       		.uleb128 0x3
 2241 01ab 08       		.uleb128 0x8
 2242 01ac 3A       		.uleb128 0x3a
 2243 01ad 0B       		.uleb128 0xb
 2244 01ae 3B       		.uleb128 0x3b
 2245 01af 05       		.uleb128 0x5
 2246 01b0 49       		.uleb128 0x49
 2247 01b1 13       		.uleb128 0x13
 2248 01b2 02       		.uleb128 0x2
 2249 01b3 17       		.uleb128 0x17
 2250 01b4 00       		.byte	0
 2251 01b5 00       		.byte	0
 2252 01b6 22       		.uleb128 0x22
 2253 01b7 898201   		.uleb128 0x4109
 2254 01ba 01       		.byte	0x1
 2255 01bb 11       		.uleb128 0x11
 2256 01bc 01       		.uleb128 0x1
 2257 01bd 31       		.uleb128 0x31
 2258 01be 13       		.uleb128 0x13
 2259 01bf 01       		.uleb128 0x1
 2260 01c0 13       		.uleb128 0x13
 2261 01c1 00       		.byte	0
 2262 01c2 00       		.byte	0
 2263 01c3 23       		.uleb128 0x23
 2264 01c4 8A8201   		.uleb128 0x410a
 2265 01c7 00       		.byte	0
 2266 01c8 02       		.uleb128 0x2
 2267 01c9 18       		.uleb128 0x18
 2268 01ca 9142     		.uleb128 0x2111
 2269 01cc 18       		.uleb128 0x18
 2270 01cd 00       		.byte	0
 2271 01ce 00       		.byte	0
 2272 01cf 24       		.uleb128 0x24
 2273 01d0 898201   		.uleb128 0x4109
 2274 01d3 01       		.byte	0x1
 2275 01d4 11       		.uleb128 0x11
 2276 01d5 01       		.uleb128 0x1
ARM GAS  /var/folders/qd/4mxf5pkd0zdf0b9dd1hp39180000gn/T//ccdugpM0.s 			page 41


 2277 01d6 31       		.uleb128 0x31
 2278 01d7 13       		.uleb128 0x13
 2279 01d8 00       		.byte	0
 2280 01d9 00       		.byte	0
 2281 01da 25       		.uleb128 0x25
 2282 01db 2E       		.uleb128 0x2e
 2283 01dc 01       		.byte	0x1
 2284 01dd 3F       		.uleb128 0x3f
 2285 01de 19       		.uleb128 0x19
 2286 01df 03       		.uleb128 0x3
 2287 01e0 0E       		.uleb128 0xe
 2288 01e1 3A       		.uleb128 0x3a
 2289 01e2 0B       		.uleb128 0xb
 2290 01e3 3B       		.uleb128 0x3b
 2291 01e4 0B       		.uleb128 0xb
 2292 01e5 27       		.uleb128 0x27
 2293 01e6 19       		.uleb128 0x19
 2294 01e7 11       		.uleb128 0x11
 2295 01e8 01       		.uleb128 0x1
 2296 01e9 12       		.uleb128 0x12
 2297 01ea 06       		.uleb128 0x6
 2298 01eb 40       		.uleb128 0x40
 2299 01ec 18       		.uleb128 0x18
 2300 01ed 9742     		.uleb128 0x2117
 2301 01ef 19       		.uleb128 0x19
 2302 01f0 01       		.uleb128 0x1
 2303 01f1 13       		.uleb128 0x13
 2304 01f2 00       		.byte	0
 2305 01f3 00       		.byte	0
 2306 01f4 26       		.uleb128 0x26
 2307 01f5 05       		.uleb128 0x5
 2308 01f6 00       		.byte	0
 2309 01f7 03       		.uleb128 0x3
 2310 01f8 08       		.uleb128 0x8
 2311 01f9 3A       		.uleb128 0x3a
 2312 01fa 0B       		.uleb128 0xb
 2313 01fb 3B       		.uleb128 0x3b
 2314 01fc 0B       		.uleb128 0xb
 2315 01fd 49       		.uleb128 0x49
 2316 01fe 13       		.uleb128 0x13
 2317 01ff 02       		.uleb128 0x2
 2318 0200 17       		.uleb128 0x17
 2319 0201 00       		.byte	0
 2320 0202 00       		.byte	0
 2321 0203 27       		.uleb128 0x27
 2322 0204 34       		.uleb128 0x34
 2323 0205 00       		.byte	0
 2324 0206 03       		.uleb128 0x3
 2325 0207 08       		.uleb128 0x8
 2326 0208 3A       		.uleb128 0x3a
 2327 0209 0B       		.uleb128 0xb
 2328 020a 3B       		.uleb128 0x3b
 2329 020b 0B       		.uleb128 0xb
 2330 020c 49       		.uleb128 0x49
 2331 020d 13       		.uleb128 0x13
 2332 020e 02       		.uleb128 0x2
 2333 020f 17       		.uleb128 0x17
ARM GAS  /var/folders/qd/4mxf5pkd0zdf0b9dd1hp39180000gn/T//ccdugpM0.s 			page 42


 2334 0210 00       		.byte	0
 2335 0211 00       		.byte	0
 2336 0212 28       		.uleb128 0x28
 2337 0213 34       		.uleb128 0x34
 2338 0214 00       		.byte	0
 2339 0215 03       		.uleb128 0x3
 2340 0216 0E       		.uleb128 0xe
 2341 0217 3A       		.uleb128 0x3a
 2342 0218 0B       		.uleb128 0xb
 2343 0219 3B       		.uleb128 0x3b
 2344 021a 0B       		.uleb128 0xb
 2345 021b 49       		.uleb128 0x49
 2346 021c 13       		.uleb128 0x13
 2347 021d 02       		.uleb128 0x2
 2348 021e 17       		.uleb128 0x17
 2349 021f 00       		.byte	0
 2350 0220 00       		.byte	0
 2351 0221 29       		.uleb128 0x29
 2352 0222 34       		.uleb128 0x34
 2353 0223 00       		.byte	0
 2354 0224 03       		.uleb128 0x3
 2355 0225 0E       		.uleb128 0xe
 2356 0226 49       		.uleb128 0x49
 2357 0227 13       		.uleb128 0x13
 2358 0228 34       		.uleb128 0x34
 2359 0229 19       		.uleb128 0x19
 2360 022a 00       		.byte	0
 2361 022b 00       		.byte	0
 2362 022c 2A       		.uleb128 0x2a
 2363 022d 898201   		.uleb128 0x4109
 2364 0230 00       		.byte	0
 2365 0231 11       		.uleb128 0x11
 2366 0232 01       		.uleb128 0x1
 2367 0233 9542     		.uleb128 0x2115
 2368 0235 19       		.uleb128 0x19
 2369 0236 31       		.uleb128 0x31
 2370 0237 13       		.uleb128 0x13
 2371 0238 00       		.byte	0
 2372 0239 00       		.byte	0
 2373 023a 2B       		.uleb128 0x2b
 2374 023b 2E       		.uleb128 0x2e
 2375 023c 01       		.byte	0x1
 2376 023d 3F       		.uleb128 0x3f
 2377 023e 19       		.uleb128 0x19
 2378 023f 03       		.uleb128 0x3
 2379 0240 0E       		.uleb128 0xe
 2380 0241 3A       		.uleb128 0x3a
 2381 0242 0B       		.uleb128 0xb
 2382 0243 3B       		.uleb128 0x3b
 2383 0244 0B       		.uleb128 0xb
 2384 0245 27       		.uleb128 0x27
 2385 0246 19       		.uleb128 0x19
 2386 0247 49       		.uleb128 0x49
 2387 0248 13       		.uleb128 0x13
 2388 0249 11       		.uleb128 0x11
 2389 024a 01       		.uleb128 0x1
 2390 024b 12       		.uleb128 0x12
ARM GAS  /var/folders/qd/4mxf5pkd0zdf0b9dd1hp39180000gn/T//ccdugpM0.s 			page 43


 2391 024c 06       		.uleb128 0x6
 2392 024d 40       		.uleb128 0x40
 2393 024e 18       		.uleb128 0x18
 2394 024f 9742     		.uleb128 0x2117
 2395 0251 19       		.uleb128 0x19
 2396 0252 01       		.uleb128 0x1
 2397 0253 13       		.uleb128 0x13
 2398 0254 00       		.byte	0
 2399 0255 00       		.byte	0
 2400 0256 2C       		.uleb128 0x2c
 2401 0257 05       		.uleb128 0x5
 2402 0258 00       		.byte	0
 2403 0259 03       		.uleb128 0x3
 2404 025a 0E       		.uleb128 0xe
 2405 025b 3A       		.uleb128 0x3a
 2406 025c 0B       		.uleb128 0xb
 2407 025d 3B       		.uleb128 0x3b
 2408 025e 0B       		.uleb128 0xb
 2409 025f 49       		.uleb128 0x49
 2410 0260 13       		.uleb128 0x13
 2411 0261 02       		.uleb128 0x2
 2412 0262 17       		.uleb128 0x17
 2413 0263 00       		.byte	0
 2414 0264 00       		.byte	0
 2415 0265 2D       		.uleb128 0x2d
 2416 0266 898201   		.uleb128 0x4109
 2417 0269 01       		.byte	0x1
 2418 026a 11       		.uleb128 0x11
 2419 026b 01       		.uleb128 0x1
 2420 026c 01       		.uleb128 0x1
 2421 026d 13       		.uleb128 0x13
 2422 026e 00       		.byte	0
 2423 026f 00       		.byte	0
 2424 0270 2E       		.uleb128 0x2e
 2425 0271 898201   		.uleb128 0x4109
 2426 0274 01       		.byte	0x1
 2427 0275 11       		.uleb128 0x11
 2428 0276 01       		.uleb128 0x1
 2429 0277 9542     		.uleb128 0x2115
 2430 0279 19       		.uleb128 0x19
 2431 027a 31       		.uleb128 0x31
 2432 027b 13       		.uleb128 0x13
 2433 027c 00       		.byte	0
 2434 027d 00       		.byte	0
 2435 027e 2F       		.uleb128 0x2f
 2436 027f 2E       		.uleb128 0x2e
 2437 0280 00       		.byte	0
 2438 0281 3F       		.uleb128 0x3f
 2439 0282 19       		.uleb128 0x19
 2440 0283 3C       		.uleb128 0x3c
 2441 0284 19       		.uleb128 0x19
 2442 0285 6E       		.uleb128 0x6e
 2443 0286 0E       		.uleb128 0xe
 2444 0287 03       		.uleb128 0x3
 2445 0288 0E       		.uleb128 0xe
 2446 0289 3A       		.uleb128 0x3a
 2447 028a 0B       		.uleb128 0xb
ARM GAS  /var/folders/qd/4mxf5pkd0zdf0b9dd1hp39180000gn/T//ccdugpM0.s 			page 44


 2448 028b 3B       		.uleb128 0x3b
 2449 028c 0B       		.uleb128 0xb
 2450 028d 00       		.byte	0
 2451 028e 00       		.byte	0
 2452 028f 00       		.byte	0
 2453              		.section	.debug_loc,"",%progbits
 2454              	.Ldebug_loc0:
 2455              	.LLST13:
 2456 0000 00000000 		.4byte	.LVL39
 2457 0004 0A000000 		.4byte	.LVL40
 2458 0008 0100     		.2byte	0x1
 2459 000a 50       		.byte	0x50
 2460 000b 0A000000 		.4byte	.LVL40
 2461 000f 1E000000 		.4byte	.LVL42
 2462 0013 0100     		.2byte	0x1
 2463 0015 54       		.byte	0x54
 2464 0016 1E000000 		.4byte	.LVL42
 2465 001a 38000000 		.4byte	.LVL47
 2466 001e 0300     		.2byte	0x3
 2467 0020 75       		.byte	0x75
 2468 0021 70       		.sleb128 -16
 2469 0022 9F       		.byte	0x9f
 2470 0023 38000000 		.4byte	.LVL47
 2471 0027 3C000000 		.4byte	.LVL48
 2472 002b 0100     		.2byte	0x1
 2473 002d 54       		.byte	0x54
 2474 002e 3C000000 		.4byte	.LVL48
 2475 0032 44000000 		.4byte	.LFE233
 2476 0036 0300     		.2byte	0x3
 2477 0038 75       		.byte	0x75
 2478 0039 70       		.sleb128 -16
 2479 003a 9F       		.byte	0x9f
 2480 003b 00000000 		.4byte	0
 2481 003f 00000000 		.4byte	0
 2482              	.LLST14:
 2483 0043 00000000 		.4byte	.LVL39
 2484 0047 15000000 		.4byte	.LVL41-1
 2485 004b 0100     		.2byte	0x1
 2486 004d 51       		.byte	0x51
 2487 004e 15000000 		.4byte	.LVL41-1
 2488 0052 44000000 		.4byte	.LFE233
 2489 0056 0100     		.2byte	0x1
 2490 0058 56       		.byte	0x56
 2491 0059 00000000 		.4byte	0
 2492 005d 00000000 		.4byte	0
 2493              	.LLST15:
 2494 0061 16000000 		.4byte	.LVL41
 2495 0065 1E000000 		.4byte	.LVL42
 2496 0069 0300     		.2byte	0x3
 2497 006b 74       		.byte	0x74
 2498 006c 08       		.sleb128 8
 2499 006d 9F       		.byte	0x9f
 2500 006e 1E000000 		.4byte	.LVL42
 2501 0072 26000000 		.4byte	.LVL44
 2502 0076 0300     		.2byte	0x3
 2503 0078 75       		.byte	0x75
 2504 0079 78       		.sleb128 -8
ARM GAS  /var/folders/qd/4mxf5pkd0zdf0b9dd1hp39180000gn/T//ccdugpM0.s 			page 45


 2505 007a 9F       		.byte	0x9f
 2506 007b 38000000 		.4byte	.LVL47
 2507 007f 3C000000 		.4byte	.LVL48
 2508 0083 0300     		.2byte	0x3
 2509 0085 74       		.byte	0x74
 2510 0086 08       		.sleb128 8
 2511 0087 9F       		.byte	0x9f
 2512 0088 3C000000 		.4byte	.LVL48
 2513 008c 44000000 		.4byte	.LFE233
 2514 0090 0300     		.2byte	0x3
 2515 0092 75       		.byte	0x75
 2516 0093 78       		.sleb128 -8
 2517 0094 9F       		.byte	0x9f
 2518 0095 00000000 		.4byte	0
 2519 0099 00000000 		.4byte	0
 2520              	.LLST16:
 2521 009d 16000000 		.4byte	.LVL41
 2522 00a1 1E000000 		.4byte	.LVL42
 2523 00a5 0200     		.2byte	0x2
 2524 00a7 30       		.byte	0x30
 2525 00a8 9F       		.byte	0x9f
 2526 00a9 1E000000 		.4byte	.LVL42
 2527 00ad 24000000 		.4byte	.LVL43
 2528 00b1 0100     		.2byte	0x1
 2529 00b3 54       		.byte	0x54
 2530 00b4 24000000 		.4byte	.LVL43
 2531 00b8 26000000 		.4byte	.LVL44
 2532 00bc 0300     		.2byte	0x3
 2533 00be 74       		.byte	0x74
 2534 00bf 7F       		.sleb128 -1
 2535 00c0 9F       		.byte	0x9f
 2536 00c1 26000000 		.4byte	.LVL44
 2537 00c5 2A000000 		.4byte	.LVL45
 2538 00c9 0100     		.2byte	0x1
 2539 00cb 54       		.byte	0x54
 2540 00cc 38000000 		.4byte	.LVL47
 2541 00d0 44000000 		.4byte	.LFE233
 2542 00d4 0200     		.2byte	0x2
 2543 00d6 30       		.byte	0x30
 2544 00d7 9F       		.byte	0x9f
 2545 00d8 00000000 		.4byte	0
 2546 00dc 00000000 		.4byte	0
 2547              	.LLST17:
 2548 00e0 16000000 		.4byte	.LVL41
 2549 00e4 1E000000 		.4byte	.LVL42
 2550 00e8 0200     		.2byte	0x2
 2551 00ea 30       		.byte	0x30
 2552 00eb 9F       		.byte	0x9f
 2553 00ec 1E000000 		.4byte	.LVL42
 2554 00f0 2A000000 		.4byte	.LVL45
 2555 00f4 0100     		.2byte	0x1
 2556 00f6 52       		.byte	0x52
 2557 00f7 38000000 		.4byte	.LVL47
 2558 00fb 44000000 		.4byte	.LFE233
 2559 00ff 0200     		.2byte	0x2
 2560 0101 30       		.byte	0x30
 2561 0102 9F       		.byte	0x9f
ARM GAS  /var/folders/qd/4mxf5pkd0zdf0b9dd1hp39180000gn/T//ccdugpM0.s 			page 46


 2562 0103 00000000 		.4byte	0
 2563 0107 00000000 		.4byte	0
 2564              	.LLST9:
 2565 010b 00000000 		.4byte	.LVL27
 2566 010f 14000000 		.4byte	.LVL30
 2567 0113 0100     		.2byte	0x1
 2568 0115 50       		.byte	0x50
 2569 0116 14000000 		.4byte	.LVL30
 2570 011a 54000000 		.4byte	.LVL35
 2571 011e 0100     		.2byte	0x1
 2572 0120 56       		.byte	0x56
 2573 0121 54000000 		.4byte	.LVL35
 2574 0125 58000000 		.4byte	.LVL36
 2575 0129 0400     		.2byte	0x4
 2576 012b F3       		.byte	0xf3
 2577 012c 01       		.uleb128 0x1
 2578 012d 50       		.byte	0x50
 2579 012e 9F       		.byte	0x9f
 2580 012f 58000000 		.4byte	.LVL36
 2581 0133 86000000 		.4byte	.LVL37
 2582 0137 0100     		.2byte	0x1
 2583 0139 56       		.byte	0x56
 2584 013a 86000000 		.4byte	.LVL37
 2585 013e 8A000000 		.4byte	.LFE232
 2586 0142 0400     		.2byte	0x4
 2587 0144 F3       		.byte	0xf3
 2588 0145 01       		.uleb128 0x1
 2589 0146 50       		.byte	0x50
 2590 0147 9F       		.byte	0x9f
 2591 0148 00000000 		.4byte	0
 2592 014c 00000000 		.4byte	0
 2593              	.LLST10:
 2594 0150 12000000 		.4byte	.LVL29
 2595 0154 1A000000 		.4byte	.LVL32
 2596 0158 0100     		.2byte	0x1
 2597 015a 55       		.byte	0x55
 2598 015b 1A000000 		.4byte	.LVL32
 2599 015f 2C000000 		.4byte	.LVL33
 2600 0163 0100     		.2byte	0x1
 2601 0165 53       		.byte	0x53
 2602 0166 2E000000 		.4byte	.LVL34
 2603 016a 54000000 		.4byte	.LVL35
 2604 016e 0100     		.2byte	0x1
 2605 0170 53       		.byte	0x53
 2606 0171 58000000 		.4byte	.LVL36
 2607 0175 86000000 		.4byte	.LVL37
 2608 0179 0100     		.2byte	0x1
 2609 017b 53       		.byte	0x53
 2610 017c 00000000 		.4byte	0
 2611 0180 00000000 		.4byte	0
 2612              	.LLST11:
 2613 0184 10000000 		.4byte	.LVL28
 2614 0188 54000000 		.4byte	.LVL35
 2615 018c 0100     		.2byte	0x1
 2616 018e 54       		.byte	0x54
 2617 018f 54000000 		.4byte	.LVL35
 2618 0193 58000000 		.4byte	.LVL36
ARM GAS  /var/folders/qd/4mxf5pkd0zdf0b9dd1hp39180000gn/T//ccdugpM0.s 			page 47


 2619 0197 0600     		.2byte	0x6
 2620 0199 F3       		.byte	0xf3
 2621 019a 01       		.uleb128 0x1
 2622 019b 50       		.byte	0x50
 2623 019c 38       		.byte	0x38
 2624 019d 1C       		.byte	0x1c
 2625 019e 9F       		.byte	0x9f
 2626 019f 58000000 		.4byte	.LVL36
 2627 01a3 86000000 		.4byte	.LVL37
 2628 01a7 0100     		.2byte	0x1
 2629 01a9 54       		.byte	0x54
 2630 01aa 86000000 		.4byte	.LVL37
 2631 01ae 8A000000 		.4byte	.LFE232
 2632 01b2 0600     		.2byte	0x6
 2633 01b4 F3       		.byte	0xf3
 2634 01b5 01       		.uleb128 0x1
 2635 01b6 50       		.byte	0x50
 2636 01b7 38       		.byte	0x38
 2637 01b8 1C       		.byte	0x1c
 2638 01b9 9F       		.byte	0x9f
 2639 01ba 00000000 		.4byte	0
 2640 01be 00000000 		.4byte	0
 2641              	.LLST12:
 2642 01c2 10000000 		.4byte	.LVL28
 2643 01c6 12000000 		.4byte	.LVL29
 2644 01ca 0100     		.2byte	0x1
 2645 01cc 55       		.byte	0x55
 2646 01cd 12000000 		.4byte	.LVL29
 2647 01d1 17000000 		.4byte	.LVL31-1
 2648 01d5 0200     		.2byte	0x2
 2649 01d7 74       		.byte	0x74
 2650 01d8 00       		.sleb128 0
 2651 01d9 17000000 		.4byte	.LVL31-1
 2652 01dd 54000000 		.4byte	.LVL35
 2653 01e1 0300     		.2byte	0x3
 2654 01e3 75       		.byte	0x75
 2655 01e4 78       		.sleb128 -8
 2656 01e5 9F       		.byte	0x9f
 2657 01e6 54000000 		.4byte	.LVL35
 2658 01ea 57000000 		.4byte	.LVL36-1
 2659 01ee 0300     		.2byte	0x3
 2660 01f0 70       		.byte	0x70
 2661 01f1 70       		.sleb128 -16
 2662 01f2 9F       		.byte	0x9f
 2663 01f3 58000000 		.4byte	.LVL36
 2664 01f7 86000000 		.4byte	.LVL37
 2665 01fb 0300     		.2byte	0x3
 2666 01fd 75       		.byte	0x75
 2667 01fe 78       		.sleb128 -8
 2668 01ff 9F       		.byte	0x9f
 2669 0200 86000000 		.4byte	.LVL37
 2670 0204 89000000 		.4byte	.LVL38-1
 2671 0208 0300     		.2byte	0x3
 2672 020a 70       		.byte	0x70
 2673 020b 70       		.sleb128 -16
 2674 020c 9F       		.byte	0x9f
 2675 020d 00000000 		.4byte	0
ARM GAS  /var/folders/qd/4mxf5pkd0zdf0b9dd1hp39180000gn/T//ccdugpM0.s 			page 48


 2676 0211 00000000 		.4byte	0
 2677              	.LLST4:
 2678 0215 00000000 		.4byte	.LVL5
 2679 0219 0A000000 		.4byte	.LVL6
 2680 021d 0100     		.2byte	0x1
 2681 021f 50       		.byte	0x50
 2682 0220 0A000000 		.4byte	.LVL6
 2683 0224 88000000 		.4byte	.LFE231
 2684 0228 0100     		.2byte	0x1
 2685 022a 56       		.byte	0x56
 2686 022b 00000000 		.4byte	0
 2687 022f 00000000 		.4byte	0
 2688              	.LLST5:
 2689 0233 00000000 		.4byte	.LVL5
 2690 0237 10000000 		.4byte	.LVL7
 2691 023b 0100     		.2byte	0x1
 2692 023d 51       		.byte	0x51
 2693 023e 10000000 		.4byte	.LVL7
 2694 0242 16000000 		.4byte	.LVL8
 2695 0246 0300     		.2byte	0x3
 2696 0248 71       		.byte	0x71
 2697 0249 79       		.sleb128 -7
 2698 024a 9F       		.byte	0x9f
 2699 024b 16000000 		.4byte	.LVL8
 2700 024f 88000000 		.4byte	.LFE231
 2701 0253 0100     		.2byte	0x1
 2702 0255 55       		.byte	0x55
 2703 0256 00000000 		.4byte	0
 2704 025a 00000000 		.4byte	0
 2705              	.LLST6:
 2706 025e 1A000000 		.4byte	.LVL9
 2707 0262 48000000 		.4byte	.LVL17
 2708 0266 0100     		.2byte	0x1
 2709 0268 54       		.byte	0x54
 2710 0269 4C000000 		.4byte	.LVL18
 2711 026d 5A000000 		.4byte	.LVL19
 2712 0271 0100     		.2byte	0x1
 2713 0273 54       		.byte	0x54
 2714 0274 68000000 		.4byte	.LVL23
 2715 0278 80000000 		.4byte	.LVL26
 2716 027c 0100     		.2byte	0x1
 2717 027e 54       		.byte	0x54
 2718 027f 00000000 		.4byte	0
 2719 0283 00000000 		.4byte	0
 2720              	.LLST7:
 2721 0287 20000000 		.4byte	.LVL11
 2722 028b 28000000 		.4byte	.LVL12
 2723 028f 0100     		.2byte	0x1
 2724 0291 50       		.byte	0x50
 2725 0292 2A000000 		.4byte	.LVL13
 2726 0296 30000000 		.4byte	.LVL14
 2727 029a 0100     		.2byte	0x1
 2728 029c 50       		.byte	0x50
 2729 029d 30000000 		.4byte	.LVL14
 2730 02a1 33000000 		.4byte	.LVL15-1
 2731 02a5 0200     		.2byte	0x2
 2732 02a7 74       		.byte	0x74
ARM GAS  /var/folders/qd/4mxf5pkd0zdf0b9dd1hp39180000gn/T//ccdugpM0.s 			page 49


 2733 02a8 00       		.sleb128 0
 2734 02a9 3E000000 		.4byte	.LVL16
 2735 02ad 48000000 		.4byte	.LVL17
 2736 02b1 0100     		.2byte	0x1
 2737 02b3 50       		.byte	0x50
 2738 02b4 4C000000 		.4byte	.LVL18
 2739 02b8 5C000000 		.4byte	.LVL20
 2740 02bc 0100     		.2byte	0x1
 2741 02be 50       		.byte	0x50
 2742 02bf 5C000000 		.4byte	.LVL20
 2743 02c3 60000000 		.4byte	.LVL21
 2744 02c7 0100     		.2byte	0x1
 2745 02c9 54       		.byte	0x54
 2746 02ca 60000000 		.4byte	.LVL21
 2747 02ce 68000000 		.4byte	.LVL23
 2748 02d2 0300     		.2byte	0x3
 2749 02d4 74       		.byte	0x74
 2750 02d5 78       		.sleb128 -8
 2751 02d6 9F       		.byte	0x9f
 2752 02d7 68000000 		.4byte	.LVL23
 2753 02db 7E000000 		.4byte	.LVL25
 2754 02df 0100     		.2byte	0x1
 2755 02e1 50       		.byte	0x50
 2756 02e2 00000000 		.4byte	0
 2757 02e6 00000000 		.4byte	0
 2758              	.LLST8:
 2759 02ea 6C000000 		.4byte	.LVL24
 2760 02ee 7E000000 		.4byte	.LVL25
 2761 02f2 0100     		.2byte	0x1
 2762 02f4 5C       		.byte	0x5c
 2763 02f5 00000000 		.4byte	0
 2764 02f9 00000000 		.4byte	0
 2765              	.LLST0:
 2766 02fd 00000000 		.4byte	.LVL1
 2767 0301 0C000000 		.4byte	.LVL3
 2768 0305 0100     		.2byte	0x1
 2769 0307 50       		.byte	0x50
 2770 0308 0C000000 		.4byte	.LVL3
 2771 030c 13000000 		.4byte	.LVL4-1
 2772 0310 0300     		.2byte	0x3
 2773 0312 70       		.byte	0x70
 2774 0313 70       		.sleb128 -16
 2775 0314 9F       		.byte	0x9f
 2776 0315 13000000 		.4byte	.LVL4-1
 2777 0319 14000000 		.4byte	.LFE230
 2778 031d 0400     		.2byte	0x4
 2779 031f F3       		.byte	0xf3
 2780 0320 01       		.uleb128 0x1
 2781 0321 50       		.byte	0x50
 2782 0322 9F       		.byte	0x9f
 2783 0323 00000000 		.4byte	0
 2784 0327 00000000 		.4byte	0
 2785              	.LLST1:
 2786 032b 00000000 		.4byte	.LVL1
 2787 032f 13000000 		.4byte	.LVL4-1
 2788 0333 0100     		.2byte	0x1
 2789 0335 51       		.byte	0x51
ARM GAS  /var/folders/qd/4mxf5pkd0zdf0b9dd1hp39180000gn/T//ccdugpM0.s 			page 50


 2790 0336 13000000 		.4byte	.LVL4-1
 2791 033a 14000000 		.4byte	.LFE230
 2792 033e 0400     		.2byte	0x4
 2793 0340 F3       		.byte	0xf3
 2794 0341 01       		.uleb128 0x1
 2795 0342 51       		.byte	0x51
 2796 0343 9F       		.byte	0x9f
 2797 0344 00000000 		.4byte	0
 2798 0348 00000000 		.4byte	0
 2799              	.LLST2:
 2800 034c 00000000 		.4byte	.LVL1
 2801 0350 04000000 		.4byte	.LVL2
 2802 0354 0100     		.2byte	0x1
 2803 0356 52       		.byte	0x52
 2804 0357 04000000 		.4byte	.LVL2
 2805 035b 13000000 		.4byte	.LVL4-1
 2806 035f 0300     		.2byte	0x3
 2807 0361 72       		.byte	0x72
 2808 0362 08       		.sleb128 8
 2809 0363 9F       		.byte	0x9f
 2810 0364 13000000 		.4byte	.LVL4-1
 2811 0368 14000000 		.4byte	.LFE230
 2812 036c 0400     		.2byte	0x4
 2813 036e F3       		.byte	0xf3
 2814 036f 01       		.uleb128 0x1
 2815 0370 52       		.byte	0x52
 2816 0371 9F       		.byte	0x9f
 2817 0372 00000000 		.4byte	0
 2818 0376 00000000 		.4byte	0
 2819              	.LLST3:
 2820 037a 00000000 		.4byte	.LVL1
 2821 037e 13000000 		.4byte	.LVL4-1
 2822 0382 0100     		.2byte	0x1
 2823 0384 51       		.byte	0x51
 2824 0385 13000000 		.4byte	.LVL4-1
 2825 0389 14000000 		.4byte	.LFE230
 2826 038d 0400     		.2byte	0x4
 2827 038f F3       		.byte	0xf3
 2828 0390 01       		.uleb128 0x1
 2829 0391 51       		.byte	0x51
 2830 0392 9F       		.byte	0x9f
 2831 0393 00000000 		.4byte	0
 2832 0397 00000000 		.4byte	0
 2833              		.section	.debug_aranges,"",%progbits
 2834 0000 3C000000 		.4byte	0x3c
 2835 0004 0200     		.2byte	0x2
 2836 0006 00000000 		.4byte	.Ldebug_info0
 2837 000a 04       		.byte	0x4
 2838 000b 00       		.byte	0
 2839 000c 0000     		.2byte	0
 2840 000e 0000     		.2byte	0
 2841 0010 00000000 		.4byte	.LFB229
 2842 0014 1C000000 		.4byte	.LFE229-.LFB229
 2843 0018 00000000 		.4byte	.LFB230
 2844 001c 14000000 		.4byte	.LFE230-.LFB230
 2845 0020 00000000 		.4byte	.LFB231
 2846 0024 88000000 		.4byte	.LFE231-.LFB231
ARM GAS  /var/folders/qd/4mxf5pkd0zdf0b9dd1hp39180000gn/T//ccdugpM0.s 			page 51


 2847 0028 00000000 		.4byte	.LFB232
 2848 002c 8A000000 		.4byte	.LFE232-.LFB232
 2849 0030 00000000 		.4byte	.LFB233
 2850 0034 44000000 		.4byte	.LFE233-.LFB233
 2851 0038 00000000 		.4byte	0
 2852 003c 00000000 		.4byte	0
 2853              		.section	.debug_ranges,"",%progbits
 2854              	.Ldebug_ranges0:
 2855 0000 00000000 		.4byte	.LFB229
 2856 0004 1C000000 		.4byte	.LFE229
 2857 0008 00000000 		.4byte	.LFB230
 2858 000c 14000000 		.4byte	.LFE230
 2859 0010 00000000 		.4byte	.LFB231
 2860 0014 88000000 		.4byte	.LFE231
 2861 0018 00000000 		.4byte	.LFB232
 2862 001c 8A000000 		.4byte	.LFE232
 2863 0020 00000000 		.4byte	.LFB233
 2864 0024 44000000 		.4byte	.LFE233
 2865 0028 00000000 		.4byte	0
 2866 002c 00000000 		.4byte	0
 2867              		.section	.debug_line,"",%progbits
 2868              	.Ldebug_line0:
 2869 0000 06040000 		.section	.debug_str,"MS",%progbits,1
 2869      02002C03 
 2869      00000201 
 2869      FB0E0D00 
 2869      01010101 
 2870              	.LASF54:
 2871 0000 72656164 		.ascii	"ready_list_t\000"
 2871      795F6C69 
 2871      73745F74 
 2871      00
 2872              	.LASF4:
 2873 000d 73697A65 		.ascii	"size_t\000"
 2873      5F7400
 2874              	.LASF132:
 2875 0014 6E657874 		.ascii	"next\000"
 2875      00
 2876              	.LASF90:
 2877 0019 7264796D 		.ascii	"rdymsg\000"
 2877      736700
 2878              	.LASF20:
 2879 0020 75696E74 		.ascii	"uint64_t\000"
 2879      36345F74 
 2879      00
 2880              	.LASF5:
 2881 0029 5F5F7569 		.ascii	"__uint8_t\000"
 2881      6E74385F 
 2881      7400
 2882              	.LASF87:
 2883 0033 706F7274 		.ascii	"port_intctx\000"
 2883      5F696E74 
 2883      63747800 
 2884              	.LASF73:
 2885 003f 73797374 		.ascii	"system_debug_t\000"
 2885      656D5F64 
 2885      65627567 
ARM GAS  /var/folders/qd/4mxf5pkd0zdf0b9dd1hp39180000gn/T//ccdugpM0.s 			page 52


 2885      5F7400
 2886              	.LASF126:
 2887 004e 6D656D67 		.ascii	"memgetfunc_t\000"
 2887      65746675 
 2887      6E635F74 
 2887      00
 2888              	.LASF15:
 2889 005b 6C6F6E67 		.ascii	"long long unsigned int\000"
 2889      206C6F6E 
 2889      6720756E 
 2889      7369676E 
 2889      65642069 
 2890              	.LASF111:
 2891 0072 63685F74 		.ascii	"ch_threadsize\000"
 2891      68726561 
 2891      6473697A 
 2891      6500
 2892              	.LASF91:
 2893 0080 65786974 		.ascii	"exitcode\000"
 2893      636F6465 
 2893      00
 2894              	.LASF130:
 2895 0089 685F6672 		.ascii	"h_free\000"
 2895      656500
 2896              	.LASF70:
 2897 0090 76697274 		.ascii	"virtual_timers_list_t\000"
 2897      75616C5F 
 2897      74696D65 
 2897      72735F6C 
 2897      6973745F 
 2898              	.LASF82:
 2899 00a6 49544D5F 		.ascii	"ITM_RxBuffer\000"
 2899      52784275 
 2899      66666572 
 2899      00
 2900              	.LASF136:
 2901 00b3 68656170 		.ascii	"heapp\000"
 2901      7000
 2902              	.LASF134:
 2903 00b9 616C6967 		.ascii	"align\000"
 2903      6E00
 2904              	.LASF53:
 2905 00bf 63685F74 		.ascii	"ch_threads_queue\000"
 2905      68726561 
 2905      64735F71 
 2905      75657565 
 2905      00
 2906              	.LASF33:
 2907 00d0 705F7072 		.ascii	"p_prio\000"
 2907      696F00
 2908              	.LASF118:
 2909 00d7 63665F6F 		.ascii	"cf_off_state\000"
 2909      66665F73 
 2909      74617465 
 2909      00
 2910              	.LASF146:
 2911 00e4 63684D74 		.ascii	"chMtxUnlock\000"
ARM GAS  /var/folders/qd/4mxf5pkd0zdf0b9dd1hp39180000gn/T//ccdugpM0.s 			page 53


 2911      78556E6C 
 2911      6F636B00 
 2912              	.LASF3:
 2913 00f0 7369676E 		.ascii	"signed char\000"
 2913      65642063 
 2913      68617200 
 2914              	.LASF131:
 2915 00fc 685F6D74 		.ascii	"h_mtx\000"
 2915      7800
 2916              	.LASF117:
 2917 0102 63665F6F 		.ascii	"cf_off_stklimit\000"
 2917      66665F73 
 2917      746B6C69 
 2917      6D697400 
 2918              	.LASF119:
 2919 0112 63665F6F 		.ascii	"cf_off_flags\000"
 2919      66665F66 
 2919      6C616773 
 2919      00
 2920              	.LASF47:
 2921 011f 705F6D70 		.ascii	"p_mpool\000"
 2921      6F6F6C00 
 2922              	.LASF101:
 2923 0127 6D5F7175 		.ascii	"m_queue\000"
 2923      65756500 
 2924              	.LASF141:
 2925 012f 63684865 		.ascii	"chHeapFree\000"
 2925      61704672 
 2925      656500
 2926              	.LASF79:
 2927 013a 76746C69 		.ascii	"vtlist\000"
 2927      737400
 2928              	.LASF93:
 2929 0141 77747472 		.ascii	"wttrp\000"
 2929      7000
 2930              	.LASF77:
 2931 0147 63685F73 		.ascii	"ch_system\000"
 2931      79737465 
 2931      6D00
 2932              	.LASF11:
 2933 0151 6C6F6E67 		.ascii	"long int\000"
 2933      20696E74 
 2933      00
 2934              	.LASF23:
 2935 015a 74737461 		.ascii	"tstate_t\000"
 2935      74655F74 
 2935      00
 2936              	.LASF127:
 2937 0163 6D656D6F 		.ascii	"memory_heap_t\000"
 2937      72795F68 
 2937      6561705F 
 2937      7400
 2938              	.LASF1:
 2939 0171 6C6F6E67 		.ascii	"long long int\000"
 2939      206C6F6E 
 2939      6720696E 
 2939      7400
ARM GAS  /var/folders/qd/4mxf5pkd0zdf0b9dd1hp39180000gn/T//ccdugpM0.s 			page 54


 2940              	.LASF108:
 2941 017f 63685F76 		.ascii	"ch_version\000"
 2941      65727369 
 2941      6F6E00
 2942              	.LASF123:
 2943 018a 63686465 		.ascii	"chdebug_t\000"
 2943      6275675F 
 2943      7400
 2944              	.LASF35:
 2945 0194 705F6E65 		.ascii	"p_newer\000"
 2945      77657200 
 2946              	.LASF98:
 2947 019c 735F7175 		.ascii	"s_queue\000"
 2947      65756500 
 2948              	.LASF59:
 2949 01a4 725F6E65 		.ascii	"r_newer\000"
 2949      77657200 
 2950              	.LASF84:
 2951 01ac 72656761 		.ascii	"regarm_t\000"
 2951      726D5F74 
 2951      00
 2952              	.LASF66:
 2953 01b5 76745F70 		.ascii	"vt_prev\000"
 2953      72657600 
 2954              	.LASF125:
 2955 01bd 6D757465 		.ascii	"mutex_t\000"
 2955      785F7400 
 2956              	.LASF144:
 2957 01c5 5F686561 		.ascii	"_heap_init\000"
 2957      705F696E 
 2957      697400
 2958              	.LASF81:
 2959 01d0 69646C65 		.ascii	"idle_thread_wa\000"
 2959      5F746872 
 2959      6561645F 
 2959      776100
 2960              	.LASF28:
 2961 01df 636E745F 		.ascii	"cnt_t\000"
 2961      7400
 2962              	.LASF0:
 2963 01e5 756E7369 		.ascii	"unsigned int\000"
 2963      676E6564 
 2963      20696E74 
 2963      00
 2964              	.LASF65:
 2965 01f2 76745F6E 		.ascii	"vt_next\000"
 2965      65787400 
 2966              	.LASF17:
 2967 01fa 75696E74 		.ascii	"uint16_t\000"
 2967      31365F74 
 2967      00
 2968              	.LASF83:
 2969 0203 53797374 		.ascii	"SystemCoreClock\000"
 2969      656D436F 
 2969      7265436C 
 2969      6F636B00 
 2970              	.LASF94:
ARM GAS  /var/folders/qd/4mxf5pkd0zdf0b9dd1hp39180000gn/T//ccdugpM0.s 			page 55


 2971 0213 77747365 		.ascii	"wtsemp\000"
 2971      6D7000
 2972              	.LASF115:
 2973 021a 63665F6F 		.ascii	"cf_off_older\000"
 2973      66665F6F 
 2973      6C646572 
 2973      00
 2974              	.LASF42:
 2975 0227 705F6D73 		.ascii	"p_msgqueue\000"
 2975      67717565 
 2975      756500
 2976              	.LASF124:
 2977 0232 63685F64 		.ascii	"ch_debug\000"
 2977      65627567 
 2977      00
 2978              	.LASF99:
 2979 023b 735F636E 		.ascii	"s_cnt\000"
 2979      7400
 2980              	.LASF9:
 2981 0241 73686F72 		.ascii	"short unsigned int\000"
 2981      7420756E 
 2981      7369676E 
 2981      65642069 
 2981      6E7400
 2982              	.LASF50:
 2983 0254 63685F74 		.ascii	"ch_thread\000"
 2983      68726561 
 2983      6400
 2984              	.LASF80:
 2985 025e 6D61696E 		.ascii	"mainthread\000"
 2985      74687265 
 2985      616400
 2986              	.LASF26:
 2987 0269 6D73675F 		.ascii	"msg_t\000"
 2987      7400
 2988              	.LASF76:
 2989 026f 63685F73 		.ascii	"ch_system_t\000"
 2989      79737465 
 2989      6D5F7400 
 2990              	.LASF122:
 2991 027b 63665F6F 		.ascii	"cf_off_time\000"
 2991      66665F74 
 2991      696D6500 
 2992              	.LASF55:
 2993 0287 63685F72 		.ascii	"ch_ready_list\000"
 2993      65616479 
 2993      5F6C6973 
 2993      7400
 2994              	.LASF27:
 2995 0295 6576656E 		.ascii	"eventmask_t\000"
 2995      746D6173 
 2995      6B5F7400 
 2996              	.LASF10:
 2997 02a1 5F5F696E 		.ascii	"__int32_t\000"
 2997      7433325F 
 2997      7400
 2998              	.LASF85:
ARM GAS  /var/folders/qd/4mxf5pkd0zdf0b9dd1hp39180000gn/T//ccdugpM0.s 			page 56


 2999 02ab 73746B61 		.ascii	"stkalign_t\000"
 2999      6C69676E 
 2999      5F7400
 3000              	.LASF142:
 3001 02b6 63684865 		.ascii	"chHeapObjectInit\000"
 3001      61704F62 
 3001      6A656374 
 3001      496E6974 
 3001      00
 3002              	.LASF106:
 3003 02c7 63685F7A 		.ascii	"ch_zero\000"
 3003      65726F00 
 3004              	.LASF120:
 3005 02cf 63665F6F 		.ascii	"cf_off_refs\000"
 3005      66665F72 
 3005      65667300 
 3006              	.LASF41:
 3007 02db 705F7761 		.ascii	"p_waiting\000"
 3007      6974696E 
 3007      6700
 3008              	.LASF21:
 3009 02e5 7274636E 		.ascii	"rtcnt_t\000"
 3009      745F7400 
 3010              	.LASF48:
 3011 02ed 74687265 		.ascii	"thread_reference_t\000"
 3011      61645F72 
 3011      65666572 
 3011      656E6365 
 3011      5F7400
 3012              	.LASF148:
 3013 0300 474E5520 		.ascii	"GNU C11 7.2.1 20170904 (release) [ARM/embedded-7-br"
 3013      43313120 
 3013      372E322E 
 3013      31203230 
 3013      31373039 
 3014 0333 616E6368 		.ascii	"anch revision 255204] -mcpu=cortex-m4 -mno-thumb-in"
 3014      20726576 
 3014      6973696F 
 3014      6E203235 
 3014      35323034 
 3015 0366 74657277 		.ascii	"terwork -mthumb -ggdb -O2 -fomit-frame-pointer -fal"
 3015      6F726B20 
 3015      2D6D7468 
 3015      756D6220 
 3015      2D676764 
 3016 0399 69676E2D 		.ascii	"ign-functions=16 -ffunction-sections -fdata-section"
 3016      66756E63 
 3016      74696F6E 
 3016      733D3136 
 3016      202D6666 
 3017 03cc 73202D66 		.ascii	"s -fno-common\000"
 3017      6E6F2D63 
 3017      6F6D6D6F 
 3017      6E00
 3018              	.LASF71:
 3019 03da 63685F76 		.ascii	"ch_virtual_timers_list\000"
 3019      69727475 
ARM GAS  /var/folders/qd/4mxf5pkd0zdf0b9dd1hp39180000gn/T//ccdugpM0.s 			page 57


 3019      616C5F74 
 3019      696D6572 
 3019      735F6C69 
 3020              	.LASF2:
 3021 03f1 6C6F6E67 		.ascii	"long double\000"
 3021      20646F75 
 3021      626C6500 
 3022              	.LASF110:
 3023 03fd 63685F74 		.ascii	"ch_timesize\000"
 3023      696D6573 
 3023      697A6500 
 3024              	.LASF116:
 3025 0409 63665F6F 		.ascii	"cf_off_name\000"
 3025      66665F6E 
 3025      616D6500 
 3026              	.LASF145:
 3027 0415 63684D74 		.ascii	"chMtxLock\000"
 3027      784C6F63 
 3027      6B00
 3028              	.LASF36:
 3029 041f 705F6F6C 		.ascii	"p_older\000"
 3029      64657200 
 3030              	.LASF58:
 3031 0427 725F6374 		.ascii	"r_ctx\000"
 3031      7800
 3032              	.LASF34:
 3033 042d 705F6374 		.ascii	"p_ctx\000"
 3033      7800
 3034              	.LASF89:
 3035 0433 746D5F63 		.ascii	"tm_calibration_t\000"
 3035      616C6962 
 3035      72617469 
 3035      6F6E5F74 
 3035      00
 3036              	.LASF61:
 3037 0444 725F6375 		.ascii	"r_current\000"
 3037      7272656E 
 3037      7400
 3038              	.LASF60:
 3039 044e 725F6F6C 		.ascii	"r_older\000"
 3039      64657200 
 3040              	.LASF150:
 3041 0456 2F557365 		.ascii	"/Users/nicolas/Library/Mobile Documents/com~apple~C"
 3041      72732F6E 
 3041      69636F6C 
 3041      61732F4C 
 3041      69627261 
 3042 0489 6C6F7564 		.ascii	"loudDocs/Projects/Cours/epuck_project/Sources/lib/C"
 3042      446F6373 
 3042      2F50726F 
 3042      6A656374 
 3042      732F436F 
 3043 04bc 68696269 		.ascii	"hibiOS/demos/STM32/RT-STM32F407-DISCOVERY-G++/\000"
 3043      4F532F64 
 3043      656D6F73 
 3043      2F53544D 
 3043      33322F52 
ARM GAS  /var/folders/qd/4mxf5pkd0zdf0b9dd1hp39180000gn/T//ccdugpM0.s 			page 58


 3044              	.LASF14:
 3045 04eb 5F5F7569 		.ascii	"__uint64_t\000"
 3045      6E743634 
 3045      5F7400
 3046              	.LASF24:
 3047 04f6 74726566 		.ascii	"trefs_t\000"
 3047      735F7400 
 3048              	.LASF109:
 3049 04fe 63685F70 		.ascii	"ch_ptrsize\000"
 3049      74727369 
 3049      7A6500
 3050              	.LASF63:
 3051 0509 76697274 		.ascii	"virtual_timer_t\000"
 3051      75616C5F 
 3051      74696D65 
 3051      725F7400 
 3052              	.LASF32:
 3053 0519 705F7072 		.ascii	"p_prev\000"
 3053      657600
 3054              	.LASF25:
 3055 0520 74707269 		.ascii	"tprio_t\000"
 3055      6F5F7400 
 3056              	.LASF147:
 3057 0528 63684D74 		.ascii	"chMtxObjectInit\000"
 3057      784F626A 
 3057      65637449 
 3057      6E697400 
 3058              	.LASF74:
 3059 0538 63685F73 		.ascii	"ch_system_debug\000"
 3059      79737465 
 3059      6D5F6465 
 3059      62756700 
 3060              	.LASF18:
 3061 0548 696E7433 		.ascii	"int32_t\000"
 3061      325F7400 
 3062              	.LASF6:
 3063 0550 756E7369 		.ascii	"unsigned char\000"
 3063      676E6564 
 3063      20636861 
 3063      7200
 3064              	.LASF151:
 3065 055e 68656170 		.ascii	"heap_header\000"
 3065      5F686561 
 3065      64657200 
 3066              	.LASF45:
 3067 056a 705F6D74 		.ascii	"p_mtxlist\000"
 3067      786C6973 
 3067      7400
 3068              	.LASF7:
 3069 0574 73686F72 		.ascii	"short int\000"
 3069      7420696E 
 3069      7400
 3070              	.LASF38:
 3071 057e 705F7374 		.ascii	"p_state\000"
 3071      61746500 
 3072              	.LASF57:
 3073 0586 725F7072 		.ascii	"r_prio\000"
ARM GAS  /var/folders/qd/4mxf5pkd0zdf0b9dd1hp39180000gn/T//ccdugpM0.s 			page 59


 3073      696F00
 3074              	.LASF96:
 3075 058d 65776D61 		.ascii	"ewmask\000"
 3075      736B00
 3076              	.LASF31:
 3077 0594 705F6E65 		.ascii	"p_next\000"
 3077      787400
 3078              	.LASF22:
 3079 059b 746D6F64 		.ascii	"tmode_t\000"
 3079      655F7400 
 3080              	.LASF121:
 3081 05a3 63665F6F 		.ascii	"cf_off_preempt\000"
 3081      66665F70 
 3081      7265656D 
 3081      707400
 3082              	.LASF39:
 3083 05b2 705F666C 		.ascii	"p_flags\000"
 3083      61677300 
 3084              	.LASF143:
 3085 05ba 5F5F6675 		.ascii	"__func__\000"
 3085      6E635F5F 
 3085      00
 3086              	.LASF52:
 3087 05c3 74687265 		.ascii	"threads_queue_t\000"
 3087      6164735F 
 3087      71756575 
 3087      655F7400 
 3088              	.LASF140:
 3089 05d3 63684865 		.ascii	"chHeapAlloc\000"
 3089      6170416C 
 3089      6C6F6300 
 3090              	.LASF114:
 3091 05df 63665F6F 		.ascii	"cf_off_newer\000"
 3091      66665F6E 
 3091      65776572 
 3091      00
 3092              	.LASF97:
 3093 05ec 63685F73 		.ascii	"ch_semaphore\000"
 3093      656D6170 
 3093      686F7265 
 3093      00
 3094              	.LASF44:
 3095 05f9 705F6570 		.ascii	"p_epending\000"
 3095      656E6469 
 3095      6E6700
 3096              	.LASF19:
 3097 0604 75696E74 		.ascii	"uint32_t\000"
 3097      33325F74 
 3097      00
 3098              	.LASF112:
 3099 060d 63665F6F 		.ascii	"cf_off_prio\000"
 3099      66665F70 
 3099      72696F00 
 3100              	.LASF56:
 3101 0619 725F7175 		.ascii	"r_queue\000"
 3101      65756500 
 3102              	.LASF67:
ARM GAS  /var/folders/qd/4mxf5pkd0zdf0b9dd1hp39180000gn/T//ccdugpM0.s 			page 60


 3103 0621 76745F64 		.ascii	"vt_delta\000"
 3103      656C7461 
 3103      00
 3104              	.LASF51:
 3105 062a 63685F74 		.ascii	"ch_threads_list\000"
 3105      68726561 
 3105      64735F6C 
 3105      69737400 
 3106              	.LASF107:
 3107 063a 63685F73 		.ascii	"ch_size\000"
 3107      697A6500 
 3108              	.LASF133:
 3109 0642 68656170 		.ascii	"heap\000"
 3109      00
 3110              	.LASF13:
 3111 0647 6C6F6E67 		.ascii	"long unsigned int\000"
 3111      20756E73 
 3111      69676E65 
 3111      6420696E 
 3111      7400
 3112              	.LASF138:
 3113 0659 64656661 		.ascii	"default_heap\000"
 3113      756C745F 
 3113      68656170 
 3113      00
 3114              	.LASF104:
 3115 0666 63686172 		.ascii	"char\000"
 3115      00
 3116              	.LASF95:
 3117 066b 77746D74 		.ascii	"wtmtxp\000"
 3117      787000
 3118              	.LASF8:
 3119 0672 5F5F7569 		.ascii	"__uint16_t\000"
 3119      6E743136 
 3119      5F7400
 3120              	.LASF30:
 3121 067d 74687265 		.ascii	"thread_t\000"
 3121      61645F74 
 3121      00
 3122              	.LASF139:
 3123 0686 63684865 		.ascii	"chHeapStatus\000"
 3123      61705374 
 3123      61747573 
 3123      00
 3124              	.LASF103:
 3125 0693 6D5F6E65 		.ascii	"m_next\000"
 3125      787400
 3126              	.LASF29:
 3127 069a 73797374 		.ascii	"systime_t\000"
 3127      696D655F 
 3127      7400
 3128              	.LASF46:
 3129 06a4 705F7265 		.ascii	"p_realprio\000"
 3129      616C7072 
 3129      696F00
 3130              	.LASF62:
 3131 06af 76746675 		.ascii	"vtfunc_t\000"
ARM GAS  /var/folders/qd/4mxf5pkd0zdf0b9dd1hp39180000gn/T//ccdugpM0.s 			page 61


 3131      6E635F74 
 3131      00
 3132              	.LASF12:
 3133 06b8 5F5F7569 		.ascii	"__uint32_t\000"
 3133      6E743332 
 3133      5F7400
 3134              	.LASF75:
 3135 06c3 70616E69 		.ascii	"panic_msg\000"
 3135      635F6D73 
 3135      6700
 3136              	.LASF88:
 3137 06cd 6F666673 		.ascii	"offset\000"
 3137      657400
 3138              	.LASF86:
 3139 06d4 636F6E74 		.ascii	"context\000"
 3139      65787400 
 3140              	.LASF64:
 3141 06dc 63685F76 		.ascii	"ch_virtual_timer\000"
 3141      69727475 
 3141      616C5F74 
 3141      696D6572 
 3141      00
 3142              	.LASF69:
 3143 06ed 76745F70 		.ascii	"vt_par\000"
 3143      617200
 3144              	.LASF113:
 3145 06f4 63665F6F 		.ascii	"cf_off_ctx\000"
 3145      66665F63 
 3145      747800
 3146              	.LASF100:
 3147 06ff 63685F6D 		.ascii	"ch_mutex\000"
 3147      75746578 
 3147      00
 3148              	.LASF40:
 3149 0708 705F7265 		.ascii	"p_refs\000"
 3149      667300
 3150              	.LASF78:
 3151 070f 726C6973 		.ascii	"rlist\000"
 3151      7400
 3152              	.LASF16:
 3153 0715 75696E74 		.ascii	"uint8_t\000"
 3153      385F7400 
 3154              	.LASF129:
 3155 071d 685F7072 		.ascii	"h_provider\000"
 3155      6F766964 
 3155      657200
 3156              	.LASF72:
 3157 0728 76745F6C 		.ascii	"vt_lasttime\000"
 3157      61737474 
 3157      696D6500 
 3158              	.LASF149:
 3159 0734 2E2E2F2E 		.ascii	"../../../os/rt/src/chheap.c\000"
 3159      2E2F2E2E 
 3159      2F6F732F 
 3159      72742F73 
 3159      72632F63 
 3160              	.LASF92:
ARM GAS  /var/folders/qd/4mxf5pkd0zdf0b9dd1hp39180000gn/T//ccdugpM0.s 			page 62


 3161 0750 77746F62 		.ascii	"wtobjp\000"
 3161      6A7000
 3162              	.LASF137:
 3163 0757 73697A65 		.ascii	"sizep\000"
 3163      7000
 3164              	.LASF37:
 3165 075d 705F6E61 		.ascii	"p_name\000"
 3165      6D6500
 3166              	.LASF135:
 3167 0764 73697A65 		.ascii	"size\000"
 3167      00
 3168              	.LASF49:
 3169 0769 74687265 		.ascii	"threads_list_t\000"
 3169      6164735F 
 3169      6C697374 
 3169      5F7400
 3170              	.LASF43:
 3171 0778 705F6D73 		.ascii	"p_msg\000"
 3171      6700
 3172              	.LASF102:
 3173 077e 6D5F6F77 		.ascii	"m_owner\000"
 3173      6E657200 
 3174              	.LASF105:
 3175 0786 63685F69 		.ascii	"ch_identifier\000"
 3175      64656E74 
 3175      69666965 
 3175      7200
 3176              	.LASF68:
 3177 0794 76745F66 		.ascii	"vt_func\000"
 3177      756E6300 
 3178              	.LASF128:
 3179 079c 6D656D6F 		.ascii	"memory_heap\000"
 3179      72795F68 
 3179      65617000 
 3180              		.ident	"GCC: (GNU Tools for Arm Embedded Processors 7-2017-q4-major) 7.2.1 20170904 (release) [ARM
ARM GAS  /var/folders/qd/4mxf5pkd0zdf0b9dd1hp39180000gn/T//ccdugpM0.s 			page 63


DEFINED SYMBOLS
                            *ABS*:0000000000000000 chheap.c
/var/folders/qd/4mxf5pkd0zdf0b9dd1hp39180000gn/T//ccdugpM0.s:16     .text._heap_init:0000000000000000 $t
/var/folders/qd/4mxf5pkd0zdf0b9dd1hp39180000gn/T//ccdugpM0.s:24     .text._heap_init:0000000000000000 _heap_init
/var/folders/qd/4mxf5pkd0zdf0b9dd1hp39180000gn/T//ccdugpM0.s:48     .text._heap_init:0000000000000014 $d
/var/folders/qd/4mxf5pkd0zdf0b9dd1hp39180000gn/T//ccdugpM0.s:54     .text.chHeapObjectInit:0000000000000000 $t
/var/folders/qd/4mxf5pkd0zdf0b9dd1hp39180000gn/T//ccdugpM0.s:62     .text.chHeapObjectInit:0000000000000000 chHeapObjectInit
/var/folders/qd/4mxf5pkd0zdf0b9dd1hp39180000gn/T//ccdugpM0.s:93     .text.chHeapAlloc:0000000000000000 $t
/var/folders/qd/4mxf5pkd0zdf0b9dd1hp39180000gn/T//ccdugpM0.s:101    .text.chHeapAlloc:0000000000000000 chHeapAlloc
/var/folders/qd/4mxf5pkd0zdf0b9dd1hp39180000gn/T//ccdugpM0.s:228    .text.chHeapAlloc:0000000000000084 $d
/var/folders/qd/4mxf5pkd0zdf0b9dd1hp39180000gn/T//ccdugpM0.s:233    .text.chHeapFree:0000000000000000 $t
/var/folders/qd/4mxf5pkd0zdf0b9dd1hp39180000gn/T//ccdugpM0.s:241    .text.chHeapFree:0000000000000000 chHeapFree
/var/folders/qd/4mxf5pkd0zdf0b9dd1hp39180000gn/T//ccdugpM0.s:377    .text.chHeapStatus:0000000000000000 $t
/var/folders/qd/4mxf5pkd0zdf0b9dd1hp39180000gn/T//ccdugpM0.s:385    .text.chHeapStatus:0000000000000000 chHeapStatus
/var/folders/qd/4mxf5pkd0zdf0b9dd1hp39180000gn/T//ccdugpM0.s:457    .text.chHeapStatus:0000000000000040 $d
/var/folders/qd/4mxf5pkd0zdf0b9dd1hp39180000gn/T//ccdugpM0.s:462    .bss.default_heap:0000000000000000 $d
/var/folders/qd/4mxf5pkd0zdf0b9dd1hp39180000gn/T//ccdugpM0.s:466    .bss.default_heap:0000000000000000 default_heap

UNDEFINED SYMBOLS
chMtxObjectInit
chCoreAlloc
chMtxLock
chMtxUnlock
