ARM GAS  /var/folders/qd/4mxf5pkd0zdf0b9dd1hp39180000gn/T//ccRS4Tdl.s 			page 1


   1              		.cpu cortex-m4
   2              		.eabi_attribute 20, 1
   3              		.eabi_attribute 21, 1
   4              		.eabi_attribute 23, 3
   5              		.eabi_attribute 24, 1
   6              		.eabi_attribute 25, 1
   7              		.eabi_attribute 26, 1
   8              		.eabi_attribute 30, 2
   9              		.eabi_attribute 34, 1
  10              		.eabi_attribute 18, 4
  11              		.file	"chmempools.c"
  12              		.text
  13              	.Ltext0:
  14              		.cfi_sections	.debug_frame
  15              		.section	.text.chPoolObjectInit,"ax",%progbits
  16              		.align	1
  17              		.p2align 4,,15
  18              		.global	chPoolObjectInit
  19              		.syntax unified
  20              		.thumb
  21              		.thumb_func
  22              		.fpu softvfp
  23              		.type	chPoolObjectInit, %function
  24              	chPoolObjectInit:
  25              	.LFB229:
  26              		.file 1 "../../../os/rt/src/chmempools.c"
  27              		.loc 1 75 0
  28              		.cfi_startproc
  29              		@ args = 0, pretend = 0, frame = 0
  30              		@ frame_needed = 0, uses_anonymous_args = 0
  31              		@ link register save eliminated.
  32              	.LVL0:
  33              		.loc 1 79 0
  34 0000 0023     		movs	r3, #0
  35              		.loc 1 81 0
  36 0002 C0E90112 		strd	r1, r2, [r0, #4]
  37              		.loc 1 79 0
  38 0006 0360     		str	r3, [r0]
  39              		.loc 1 82 0
  40 0008 7047     		bx	lr
  41              		.cfi_endproc
  42              	.LFE229:
  43              		.size	chPoolObjectInit, .-chPoolObjectInit
  44 000a 00BF     		.section	.text.chPoolLoadArray,"ax",%progbits
  45              		.align	1
  46              		.p2align 4,,15
  47              		.global	chPoolLoadArray
  48              		.syntax unified
  49              		.thumb
  50              		.thumb_func
  51              		.fpu softvfp
  52              		.type	chPoolLoadArray, %function
  53              	chPoolLoadArray:
  54              	.LFB230:
  55              		.loc 1 97 0
  56              		.cfi_startproc
  57              		@ args = 0, pretend = 0, frame = 0
ARM GAS  /var/folders/qd/4mxf5pkd0zdf0b9dd1hp39180000gn/T//ccRS4Tdl.s 			page 2


  58              		@ frame_needed = 0, uses_anonymous_args = 0
  59              		@ link register save eliminated.
  60              	.LVL1:
  61              		.loc 1 101 0
  62 0000 7AB1     		cbz	r2, .L11
  63              		.loc 1 97 0
  64 0002 30B4     		push	{r4, r5}
  65              		.cfi_def_cfa_offset 8
  66              		.cfi_offset 4, -8
  67              		.cfi_offset 5, -4
  68              	.LBB77:
  69              	.LBB78:
  70              	.LBB79:
  71              	.LBB80:
  72              	.LBB81:
  73              	.LBB82:
  74              		.file 2 "../../../os/ext/CMSIS/include/core_cmFunc.h"
  75              		.loc 2 546 0
  76 0004 2025     		movs	r5, #32
  77              	.LBE82:
  78              	.LBE81:
  79              	.LBE80:
  80              	.LBE79:
  81              	.LBB86:
  82              	.LBB87:
  83              	.LBB88:
  84              	.LBB89:
  85              	.LBB90:
  86 0006 0024     		movs	r4, #0
  87              	.LVL2:
  88              	.L5:
  89              	.LBE90:
  90              	.LBE89:
  91              	.LBE88:
  92              	.LBE87:
  93              	.LBE86:
  94              	.LBB95:
  95              	.LBB85:
  96              	.LBB84:
  97              	.LBB83:
  98              		.syntax unified
  99              	@ 546 "../../../os/ext/CMSIS/include/core_cmFunc.h" 1
 100 0008 85F31188 		MSR basepri, r5
 101              	@ 0 "" 2
 102              	.LVL3:
 103              		.thumb
 104              		.syntax unified
 105              	.LBE83:
 106              	.LBE84:
 107              	.LBE85:
 108              	.LBE95:
 109              	.LBB96:
 110              	.LBB97:
 111              		.loc 1 177 0
 112 000c 0368     		ldr	r3, [r0]
 113 000e 0B60     		str	r3, [r1]
 114              		.loc 1 178 0
ARM GAS  /var/folders/qd/4mxf5pkd0zdf0b9dd1hp39180000gn/T//ccRS4Tdl.s 			page 3


 115 0010 0160     		str	r1, [r0]
 116              	.LVL4:
 117              	.LBE97:
 118              	.LBE96:
 119              	.LBB98:
 120              	.LBB94:
 121              	.LBB93:
 122              	.LBB92:
 123              	.LBB91:
 124              		.loc 2 546 0
 125              		.syntax unified
 126              	@ 546 "../../../os/ext/CMSIS/include/core_cmFunc.h" 1
 127 0012 84F31188 		MSR basepri, r4
 128              	@ 0 "" 2
 129              	.LVL5:
 130              		.thumb
 131              		.syntax unified
 132              	.LBE91:
 133              	.LBE92:
 134              	.LBE93:
 135              	.LBE94:
 136              	.LBE98:
 137              	.LBE78:
 138              	.LBE77:
 139              		.loc 1 104 0
 140 0016 4368     		ldr	r3, [r0, #4]
 141              		.loc 1 101 0
 142 0018 013A     		subs	r2, r2, #1
 143              	.LVL6:
 144              		.loc 1 104 0
 145 001a 1944     		add	r1, r1, r3
 146              	.LVL7:
 147              		.loc 1 101 0
 148 001c F4D1     		bne	.L5
 149              		.loc 1 108 0
 150 001e 30BC     		pop	{r4, r5}
 151              		.cfi_restore 5
 152              		.cfi_restore 4
 153              		.cfi_def_cfa_offset 0
 154 0020 7047     		bx	lr
 155              	.LVL8:
 156              	.L11:
 157 0022 7047     		bx	lr
 158              		.cfi_endproc
 159              	.LFE230:
 160              		.size	chPoolLoadArray, .-chPoolLoadArray
 161              		.section	.text.chPoolAllocI,"ax",%progbits
 162              		.align	1
 163              		.p2align 4,,15
 164              		.global	chPoolAllocI
 165              		.syntax unified
 166              		.thumb
 167              		.thumb_func
 168              		.fpu softvfp
 169              		.type	chPoolAllocI, %function
 170              	chPoolAllocI:
 171              	.LFB231:
ARM GAS  /var/folders/qd/4mxf5pkd0zdf0b9dd1hp39180000gn/T//ccRS4Tdl.s 			page 4


 172              		.loc 1 120 0
 173              		.cfi_startproc
 174              		@ args = 0, pretend = 0, frame = 0
 175              		@ frame_needed = 0, uses_anonymous_args = 0
 176              		@ link register save eliminated.
 177              	.LVL9:
 178              		.loc 1 126 0
 179 0000 0368     		ldr	r3, [r0]
 180              	.LVL10:
 181              		.loc 1 128 0
 182 0002 1BB1     		cbz	r3, .L15
 183              		.loc 1 129 0
 184 0004 1A68     		ldr	r2, [r3]
 185 0006 0260     		str	r2, [r0]
 186              	.L14:
 187              		.loc 1 137 0
 188 0008 1846     		mov	r0, r3
 189              	.LVL11:
 190 000a 7047     		bx	lr
 191              	.LVL12:
 192              	.L15:
 193              	.LBB101:
 194              	.LBB102:
 195              		.loc 1 131 0
 196 000c 8268     		ldr	r2, [r0, #8]
 197 000e 002A     		cmp	r2, #0
 198 0010 FAD0     		beq	.L14
 199              		.loc 1 132 0
 200 0012 4068     		ldr	r0, [r0, #4]
 201              	.LVL13:
 202 0014 1047     		bx	r2
 203              	.LVL14:
 204              	.LBE102:
 205              	.LBE101:
 206              		.cfi_endproc
 207              	.LFE231:
 208              		.size	chPoolAllocI, .-chPoolAllocI
 209 0016 00BF     		.section	.text.chPoolAlloc,"ax",%progbits
 210              		.align	1
 211              		.p2align 4,,15
 212              		.global	chPoolAlloc
 213              		.syntax unified
 214              		.thumb
 215              		.thumb_func
 216              		.fpu softvfp
 217              		.type	chPoolAlloc, %function
 218              	chPoolAlloc:
 219              	.LFB232:
 220              		.loc 1 149 0
 221              		.cfi_startproc
 222              		@ args = 0, pretend = 0, frame = 0
 223              		@ frame_needed = 0, uses_anonymous_args = 0
 224              	.LVL15:
 225 0000 08B5     		push	{r3, lr}
 226              		.cfi_def_cfa_offset 8
 227              		.cfi_offset 3, -8
 228              		.cfi_offset 14, -4
ARM GAS  /var/folders/qd/4mxf5pkd0zdf0b9dd1hp39180000gn/T//ccRS4Tdl.s 			page 5


 229              	.LBB116:
 230              	.LBB117:
 231              	.LBB118:
 232              	.LBB119:
 233              		.loc 2 546 0
 234 0002 2022     		movs	r2, #32
 235              	.LBE119:
 236              	.LBE118:
 237              	.LBE117:
 238              	.LBE116:
 239              		.loc 1 149 0
 240 0004 0346     		mov	r3, r0
 241              	.LBB123:
 242              	.LBB122:
 243              	.LBB121:
 244              	.LBB120:
 245              		.loc 2 546 0
 246              		.syntax unified
 247              	@ 546 "../../../os/ext/CMSIS/include/core_cmFunc.h" 1
 248 0006 82F31188 		MSR basepri, r2
 249              	@ 0 "" 2
 250              	.LVL16:
 251              		.thumb
 252              		.syntax unified
 253              	.LBE120:
 254              	.LBE121:
 255              	.LBE122:
 256              	.LBE123:
 257              	.LBB124:
 258              	.LBB125:
 259              		.loc 1 126 0
 260 000a 0068     		ldr	r0, [r0]
 261              	.LVL17:
 262              		.loc 1 128 0
 263 000c 28B1     		cbz	r0, .L21
 264              		.loc 1 129 0
 265 000e 0268     		ldr	r2, [r0]
 266 0010 1A60     		str	r2, [r3]
 267              	.L22:
 268              	.LVL18:
 269              	.LBE125:
 270              	.LBE124:
 271              	.LBB129:
 272              	.LBB130:
 273              	.LBB131:
 274              	.LBB132:
 275              	.LBB133:
 276              		.loc 2 546 0
 277 0012 0023     		movs	r3, #0
 278              	.LVL19:
 279              		.syntax unified
 280              	@ 546 "../../../os/ext/CMSIS/include/core_cmFunc.h" 1
 281 0014 83F31188 		MSR basepri, r3
 282              	@ 0 "" 2
 283              	.LVL20:
 284              		.thumb
 285              		.syntax unified
ARM GAS  /var/folders/qd/4mxf5pkd0zdf0b9dd1hp39180000gn/T//ccRS4Tdl.s 			page 6


 286              	.LBE133:
 287              	.LBE132:
 288              	.LBE131:
 289              	.LBE130:
 290              	.LBE129:
 291              		.loc 1 157 0
 292 0018 08BD     		pop	{r3, pc}
 293              	.LVL21:
 294              	.L21:
 295              	.LBB138:
 296              	.LBB128:
 297              	.LBB126:
 298              	.LBB127:
 299              		.loc 1 131 0
 300 001a 9A68     		ldr	r2, [r3, #8]
 301 001c 002A     		cmp	r2, #0
 302 001e F8D0     		beq	.L22
 303              		.loc 1 132 0
 304 0020 5868     		ldr	r0, [r3, #4]
 305              	.LVL22:
 306 0022 9047     		blx	r2
 307              	.LVL23:
 308              	.LBE127:
 309              	.LBE126:
 310              	.LBE128:
 311              	.LBE138:
 312              	.LBB139:
 313              	.LBB137:
 314              	.LBB136:
 315              	.LBB135:
 316              	.LBB134:
 317              		.loc 2 546 0
 318 0024 0023     		movs	r3, #0
 319              		.syntax unified
 320              	@ 546 "../../../os/ext/CMSIS/include/core_cmFunc.h" 1
 321 0026 83F31188 		MSR basepri, r3
 322              	@ 0 "" 2
 323              	.LVL24:
 324              		.thumb
 325              		.syntax unified
 326              	.LBE134:
 327              	.LBE135:
 328              	.LBE136:
 329              	.LBE137:
 330              	.LBE139:
 331              		.loc 1 157 0
 332 002a 08BD     		pop	{r3, pc}
 333              		.cfi_endproc
 334              	.LFE232:
 335              		.size	chPoolAlloc, .-chPoolAlloc
 336              		.section	.text.chPoolFreeI,"ax",%progbits
 337              		.align	1
 338              		.p2align 4,,15
 339              		.global	chPoolFreeI
 340              		.syntax unified
 341              		.thumb
 342              		.thumb_func
ARM GAS  /var/folders/qd/4mxf5pkd0zdf0b9dd1hp39180000gn/T//ccRS4Tdl.s 			page 7


 343              		.fpu softvfp
 344              		.type	chPoolFreeI, %function
 345              	chPoolFreeI:
 346              	.LFB233:
 347              		.loc 1 171 0
 348              		.cfi_startproc
 349              		@ args = 0, pretend = 0, frame = 0
 350              		@ frame_needed = 0, uses_anonymous_args = 0
 351              		@ link register save eliminated.
 352              	.LVL25:
 353              		.loc 1 177 0
 354 0000 0368     		ldr	r3, [r0]
 355 0002 0B60     		str	r3, [r1]
 356              		.loc 1 178 0
 357 0004 0160     		str	r1, [r0]
 358              		.loc 1 179 0
 359 0006 7047     		bx	lr
 360              		.cfi_endproc
 361              	.LFE233:
 362              		.size	chPoolFreeI, .-chPoolFreeI
 363              		.section	.text.chPoolFree,"ax",%progbits
 364              		.align	1
 365              		.p2align 4,,15
 366              		.global	chPoolFree
 367              		.syntax unified
 368              		.thumb
 369              		.thumb_func
 370              		.fpu softvfp
 371              		.type	chPoolFree, %function
 372              	chPoolFree:
 373              	.LFB234:
 374              		.loc 1 193 0
 375              		.cfi_startproc
 376              		@ args = 0, pretend = 0, frame = 0
 377              		@ frame_needed = 0, uses_anonymous_args = 0
 378              		@ link register save eliminated.
 379              	.LVL26:
 380              	.LBB140:
 381              	.LBB141:
 382              	.LBB142:
 383              	.LBB143:
 384              		.loc 2 546 0
 385 0000 2023     		movs	r3, #32
 386              		.syntax unified
 387              	@ 546 "../../../os/ext/CMSIS/include/core_cmFunc.h" 1
 388 0002 83F31188 		MSR basepri, r3
 389              	@ 0 "" 2
 390              	.LVL27:
 391              		.thumb
 392              		.syntax unified
 393              	.LBE143:
 394              	.LBE142:
 395              	.LBE141:
 396              	.LBE140:
 397              	.LBB144:
 398              	.LBB145:
 399              		.loc 1 177 0
ARM GAS  /var/folders/qd/4mxf5pkd0zdf0b9dd1hp39180000gn/T//ccRS4Tdl.s 			page 8


 400 0006 0368     		ldr	r3, [r0]
 401 0008 0B60     		str	r3, [r1]
 402              	.LBE145:
 403              	.LBE144:
 404              	.LBB147:
 405              	.LBB148:
 406              	.LBB149:
 407              	.LBB150:
 408              	.LBB151:
 409              		.loc 2 546 0
 410 000a 0023     		movs	r3, #0
 411              	.LBE151:
 412              	.LBE150:
 413              	.LBE149:
 414              	.LBE148:
 415              	.LBE147:
 416              	.LBB156:
 417              	.LBB146:
 418              		.loc 1 178 0
 419 000c 0160     		str	r1, [r0]
 420              	.LVL28:
 421              	.LBE146:
 422              	.LBE156:
 423              	.LBB157:
 424              	.LBB155:
 425              	.LBB154:
 426              	.LBB153:
 427              	.LBB152:
 428              		.loc 2 546 0
 429              		.syntax unified
 430              	@ 546 "../../../os/ext/CMSIS/include/core_cmFunc.h" 1
 431 000e 83F31188 		MSR basepri, r3
 432              	@ 0 "" 2
 433              	.LVL29:
 434              		.thumb
 435              		.syntax unified
 436              	.LBE152:
 437              	.LBE153:
 438              	.LBE154:
 439              	.LBE155:
 440              	.LBE157:
 441              		.loc 1 198 0
 442 0012 7047     		bx	lr
 443              		.cfi_endproc
 444              	.LFE234:
 445              		.size	chPoolFree, .-chPoolFree
 446              		.text
 447              	.Letext0:
 448              		.file 3 "/Applications/Eclipse_e-puck2.app/Contents/Eclipse_e-puck2/Tools/gcc-arm-none-eabi-7-2017
 449              		.file 4 "/Applications/Eclipse_e-puck2.app/Contents/Eclipse_e-puck2/Tools/gcc-arm-none-eabi-7-2017
 450              		.file 5 "/Applications/Eclipse_e-puck2.app/Contents/Eclipse_e-puck2/Tools/gcc-arm-none-eabi-7-2017
 451              		.file 6 "../../../os/rt/ports/ARMCMx/compilers/GCC/chtypes.h"
 452              		.file 7 "../../../os/rt/include/chsystypes.h"
 453              		.file 8 "../../../os/rt/include/chschd.h"
 454              		.file 9 "../../../os/ext/CMSIS/include/core_cm4.h"
 455              		.file 10 "../../../os/ext/CMSIS/ST/system_stm32f4xx.h"
 456              		.file 11 "../../../os/rt/ports/ARMCMx/chcore.h"
ARM GAS  /var/folders/qd/4mxf5pkd0zdf0b9dd1hp39180000gn/T//ccRS4Tdl.s 			page 9


 457              		.file 12 "../../../os/rt/ports/ARMCMx/chcore_v7m.h"
 458              		.file 13 "../../../os/rt/include/chtm.h"
 459              		.file 14 "../../../os/rt/include/chsem.h"
 460              		.file 15 "../../../os/rt/include/chmtx.h"
 461              		.file 16 "../../../os/rt/include/chregistry.h"
 462              		.file 17 "../../../os/rt/include/chmemcore.h"
 463              		.file 18 "../../../os/rt/include/chmempools.h"
 464              		.file 19 "../../../os/rt/include/chsys.h"