ARM GAS  /var/folders/qd/4mxf5pkd0zdf0b9dd1hp39180000gn/T//ccXneTGa.s 			page 1


   1              		.cpu cortex-m4
   2              		.eabi_attribute 20, 1
   3              		.eabi_attribute 21, 1
   4              		.eabi_attribute 23, 3
   5              		.eabi_attribute 24, 1
   6              		.eabi_attribute 25, 1
   7              		.eabi_attribute 26, 1
   8              		.eabi_attribute 30, 2
   9              		.eabi_attribute 34, 1
  10              		.eabi_attribute 18, 4
  11              		.file	"chmsg.c"
  12              		.text
  13              	.Ltext0:
  14              		.cfi_sections	.debug_frame
  15              		.section	.text.chMsgSend,"ax",%progbits
  16              		.align	1
  17              		.p2align 4,,15
  18              		.global	chMsgSend
  19              		.syntax unified
  20              		.thumb
  21              		.thumb_func
  22              		.fpu softvfp
  23              		.type	chMsgSend, %function
  24              	chMsgSend:
  25              	.LFB229:
  26              		.file 1 "../../../os/rt/src/chmsg.c"
  27              		.loc 1 87 0
  28              		.cfi_startproc
  29              		@ args = 0, pretend = 0, frame = 0
  30              		@ frame_needed = 0, uses_anonymous_args = 0
  31              	.LVL0:
  32              		.loc 1 88 0
  33 0000 0E4B     		ldr	r3, .L6
  34              		.loc 1 87 0
  35 0002 10B5     		push	{r4, lr}
  36              		.cfi_def_cfa_offset 8
  37              		.cfi_offset 4, -8
  38              		.cfi_offset 14, -4
  39              	.LBB52:
  40              	.LBB53:
  41              	.LBB54:
  42              	.LBB55:
  43              		.file 2 "../../../os/ext/CMSIS/include/core_cmFunc.h"
  44              		.loc 2 546 0
  45 0004 2022     		movs	r2, #32
  46              	.LBE55:
  47              	.LBE54:
  48              	.LBE53:
  49              	.LBE52:
  50              		.loc 1 88 0
  51 0006 9C69     		ldr	r4, [r3, #24]
  52              	.LVL1:
  53              	.LBB59:
  54              	.LBB58:
  55              	.LBB57:
  56              	.LBB56:
  57              		.loc 2 546 0
ARM GAS  /var/folders/qd/4mxf5pkd0zdf0b9dd1hp39180000gn/T//ccXneTGa.s 			page 2


  58              		.syntax unified
  59              	@ 546 "../../../os/ext/CMSIS/include/core_cmFunc.h" 1
  60 0008 82F31188 		MSR basepri, r2
  61              	@ 0 "" 2
  62              	.LVL2:
  63              		.thumb
  64              		.syntax unified
  65              	.LBE56:
  66              	.LBE57:
  67              	.LBE58:
  68              	.LBE59:
  69              	.LBB60:
  70              	.LBB61:
  71              		.file 3 "../../../os/rt/include/chschd.h"
  72              		.loc 3 666 0
  73 000c C26A     		ldr	r2, [r0, #44]
  74              	.LBE61:
  75              	.LBE60:
  76              		.loc 1 93 0
  77 000e 2163     		str	r1, [r4, #48]
  78              		.loc 1 94 0
  79 0010 00F12801 		add	r1, r0, #40
  80              	.LVL3:
  81              	.LBB65:
  82              	.LBB62:
  83              		.loc 3 666 0
  84 0014 6260     		str	r2, [r4, #4]
  85              	.LBE62:
  86              	.LBE65:
  87              		.loc 1 94 0
  88 0016 2162     		str	r1, [r4, #32]
  89              	.LVL4:
  90              	.LBB66:
  91              	.LBB63:
  92              		.loc 3 665 0
  93 0018 2160     		str	r1, [r4]
  94              		.loc 3 667 0
  95 001a 1460     		str	r4, [r2]
  96              	.LBE63:
  97              	.LBE66:
  98              		.loc 1 96 0
  99 001c 027F     		ldrb	r2, [r0, #28]	@ zero_extendqisi2
 100              	.LBB67:
 101              	.LBB64:
 102              		.loc 3 668 0
 103 001e C462     		str	r4, [r0, #44]
 104              	.LVL5:
 105              	.LBE64:
 106              	.LBE67:
 107              		.loc 1 96 0
 108 0020 0E2A     		cmp	r2, #14
 109 0022 07D0     		beq	.L5
 110              	.LVL6:
 111              	.L2:
 112              		.loc 1 99 0
 113 0024 0C20     		movs	r0, #12
 114 0026 FFF7FEFF 		bl	chSchGoSleepS
ARM GAS  /var/folders/qd/4mxf5pkd0zdf0b9dd1hp39180000gn/T//ccXneTGa.s 			page 3


 115              	.LVL7:
 116              		.loc 1 100 0
 117 002a 206A     		ldr	r0, [r4, #32]
 118              	.LVL8:
 119              	.LBB68:
 120              	.LBB69:
 121              	.LBB70:
 122              	.LBB71:
 123              	.LBB72:
 124              		.loc 2 546 0
 125 002c 0023     		movs	r3, #0
 126              		.syntax unified
 127              	@ 546 "../../../os/ext/CMSIS/include/core_cmFunc.h" 1
 128 002e 83F31188 		MSR basepri, r3
 129              	@ 0 "" 2
 130              	.LVL9:
 131              		.thumb
 132              		.syntax unified
 133              	.LBE72:
 134              	.LBE71:
 135              	.LBE70:
 136              	.LBE69:
 137              	.LBE68:
 138              		.loc 1 104 0
 139 0032 10BD     		pop	{r4, pc}
 140              	.LVL10:
 141              	.L5:
 142              		.loc 1 97 0
 143 0034 FFF7FEFF 		bl	chSchReadyI
 144              	.LVL11:
 145 0038 F4E7     		b	.L2
 146              	.L7:
 147 003a 00BF     		.align	2
 148              	.L6:
 149 003c 00000000 		.word	ch
 150              		.cfi_endproc
 151              	.LFE229:
 152              		.size	chMsgSend, .-chMsgSend
 153              		.section	.text.chMsgWait,"ax",%progbits
 154              		.align	1
 155              		.p2align 4,,15
 156              		.global	chMsgWait
 157              		.syntax unified
 158              		.thumb
 159              		.thumb_func
 160              		.fpu softvfp
 161              		.type	chMsgWait, %function
 162              	chMsgWait:
 163              	.LFB230:
 164              		.loc 1 120 0
 165              		.cfi_startproc
 166              		@ args = 0, pretend = 0, frame = 0
 167              		@ frame_needed = 0, uses_anonymous_args = 0
 168              	.LVL12:
 169 0000 10B5     		push	{r4, lr}
 170              		.cfi_def_cfa_offset 8
 171              		.cfi_offset 4, -8
ARM GAS  /var/folders/qd/4mxf5pkd0zdf0b9dd1hp39180000gn/T//ccXneTGa.s 			page 4


 172              		.cfi_offset 14, -4
 173              	.LBB73:
 174              	.LBB74:
 175              	.LBB75:
 176              	.LBB76:
 177              		.loc 2 546 0
 178 0002 2023     		movs	r3, #32
 179              		.syntax unified
 180              	@ 546 "../../../os/ext/CMSIS/include/core_cmFunc.h" 1
 181 0004 83F31188 		MSR basepri, r3
 182              	@ 0 "" 2
 183              	.LVL13:
 184              		.thumb
 185              		.syntax unified
 186              	.LBE76:
 187              	.LBE75:
 188              	.LBE74:
 189              	.LBE73:
 190              		.loc 1 124 0
 191 0008 0B4C     		ldr	r4, .L12
 192 000a A269     		ldr	r2, [r4, #24]
 193              	.LVL14:
 194              	.LBB77:
 195              	.LBB78:
 196              		.file 4 "../../../os/rt/include/chmsg.h"
 197              		.loc 4 83 0
 198 000c 1346     		mov	r3, r2
 199 000e 53F8280F 		ldr	r0, [r3, #40]!
 200              	.LVL15:
 201              	.LBE78:
 202              	.LBE77:
 203              		.loc 1 124 0
 204 0012 9842     		cmp	r0, r3
 205 0014 08D0     		beq	.L11
 206              	.L9:
 207              	.LVL16:
 208              	.LBB79:
 209              	.LBB80:
 210              		.loc 3 674 0
 211 0016 0168     		ldr	r1, [r0]
 212 0018 9162     		str	r1, [r2, #40]
 213              	.LVL17:
 214              	.LBE80:
 215              	.LBE79:
 216              		.loc 1 128 0
 217 001a 0D22     		movs	r2, #13
 218              	.LBB82:
 219              	.LBB81:
 220              		.loc 3 675 0
 221 001c 4B60     		str	r3, [r1, #4]
 222              	.LVL18:
 223              	.LBE81:
 224              	.LBE82:
 225              	.LBB83:
 226              	.LBB84:
 227              	.LBB85:
 228              	.LBB86:
ARM GAS  /var/folders/qd/4mxf5pkd0zdf0b9dd1hp39180000gn/T//ccXneTGa.s 			page 5


 229              	.LBB87:
 230              		.loc 2 546 0
 231 001e 0023     		movs	r3, #0
 232              	.LBE87:
 233              	.LBE86:
 234              	.LBE85:
 235              	.LBE84:
 236              	.LBE83:
 237              		.loc 1 128 0
 238 0020 0277     		strb	r2, [r0, #28]
 239              	.LVL19:
 240              	.LBB92:
 241              	.LBB91:
 242              	.LBB90:
 243              	.LBB89:
 244              	.LBB88:
 245              		.loc 2 546 0
 246              		.syntax unified
 247              	@ 546 "../../../os/ext/CMSIS/include/core_cmFunc.h" 1
 248 0022 83F31188 		MSR basepri, r3
 249              	@ 0 "" 2
 250              	.LVL20:
 251              		.thumb
 252              		.syntax unified
 253              	.LBE88:
 254              	.LBE89:
 255              	.LBE90:
 256              	.LBE91:
 257              	.LBE92:
 258              		.loc 1 132 0
 259 0026 10BD     		pop	{r4, pc}
 260              	.L11:
 261              		.loc 1 125 0
 262 0028 0E20     		movs	r0, #14
 263 002a FFF7FEFF 		bl	chSchGoSleepS
 264              	.LVL21:
 265 002e A269     		ldr	r2, [r4, #24]
 266 0030 906A     		ldr	r0, [r2, #40]
 267 0032 02F12803 		add	r3, r2, #40
 268 0036 EEE7     		b	.L9
 269              	.L13:
 270              		.align	2
 271              	.L12:
 272 0038 00000000 		.word	ch
 273              		.cfi_endproc
 274              	.LFE230:
 275              		.size	chMsgWait, .-chMsgWait
 276              		.section	.text.chMsgRelease,"ax",%progbits
 277              		.align	1
 278              		.p2align 4,,15
 279              		.global	chMsgRelease
 280              		.syntax unified
 281              		.thumb
 282              		.thumb_func
 283              		.fpu softvfp
 284              		.type	chMsgRelease, %function
 285              	chMsgRelease:
ARM GAS  /var/folders/qd/4mxf5pkd0zdf0b9dd1hp39180000gn/T//ccXneTGa.s 			page 6


 286              	.LFB231:
 287              		.loc 1 144 0
 288              		.cfi_startproc
 289              		@ args = 0, pretend = 0, frame = 0
 290              		@ frame_needed = 0, uses_anonymous_args = 0
 291              	.LVL22:
 292 0000 08B5     		push	{r3, lr}
 293              		.cfi_def_cfa_offset 8
 294              		.cfi_offset 3, -8
 295              		.cfi_offset 14, -4
 296              	.LBB93:
 297              	.LBB94:
 298              	.LBB95:
 299              	.LBB96:
 300              		.loc 2 546 0
 301 0002 2023     		movs	r3, #32
 302              		.syntax unified
 303              	@ 546 "../../../os/ext/CMSIS/include/core_cmFunc.h" 1
 304 0004 83F31188 		MSR basepri, r3
 305              	@ 0 "" 2
 306              	.LVL23:
 307              		.thumb
 308              		.syntax unified
 309              	.LBE96:
 310              	.LBE95:
 311              	.LBE94:
 312              	.LBE93:
 313              	.LBB97:
 314              	.LBB98:
 315              		.loc 4 115 0
 316 0008 FFF7FEFF 		bl	chSchWakeupS
 317              	.LVL24:
 318              	.LBE98:
 319              	.LBE97:
 320              	.LBB99:
 321              	.LBB100:
 322              	.LBB101:
 323              	.LBB102:
 324              	.LBB103:
 325              		.loc 2 546 0
 326 000c 0023     		movs	r3, #0
 327              		.syntax unified
 328              	@ 546 "../../../os/ext/CMSIS/include/core_cmFunc.h" 1
 329 000e 83F31188 		MSR basepri, r3
 330              	@ 0 "" 2
 331              	.LVL25:
 332              		.thumb
 333              		.syntax unified
 334              	.LBE103:
 335              	.LBE102:
 336              	.LBE101:
 337              	.LBE100:
 338              	.LBE99:
 339              		.loc 1 150 0
 340 0012 08BD     		pop	{r3, pc}
 341              		.cfi_endproc
 342              	.LFE231:
ARM GAS  /var/folders/qd/4mxf5pkd0zdf0b9dd1hp39180000gn/T//ccXneTGa.s 			page 7


 343              		.size	chMsgRelease, .-chMsgRelease
 344              		.text
 345              	.Letext0:
 346              		.file 5 "/Applications/Eclipse_e-puck2.app/Contents/Eclipse_e-puck2/Tools/gcc-arm-none-eabi-7-2017
 347              		.file 6 "/Applications/Eclipse_e-puck2.app/Contents/Eclipse_e-puck2/Tools/gcc-arm-none-eabi-7-2017
 348              		.file 7 "../../../os/rt/ports/ARMCMx/compilers/GCC/chtypes.h"
 349              		.file 8 "../../../os/rt/include/chsystypes.h"
 350              		.file 9 "../../../os/ext/CMSIS/include/core_cm4.h"
 351              		.file 10 "../../../os/ext/CMSIS/ST/system_stm32f4xx.h"
 352              		.file 11 "../../../os/rt/ports/ARMCMx/chcore.h"
 353              		.file 12 "../../../os/rt/ports/ARMCMx/chcore_v7m.h"
 354              		.file 13 "../../../os/rt/include/chtm.h"
 355              		.file 14 "../../../os/rt/include/chsem.h"
 356              		.file 15 "../../../os/rt/include/chmtx.h"
 357              		.file 16 "../../../os/rt/include/chregistry.h"
 358              		.file 17 "../../../os/rt/include/chsys.h"