ARM GAS  /var/folders/qd/4mxf5pkd0zdf0b9dd1hp39180000gn/T//ccCoboGm.s 			page 1


   1              		.cpu cortex-m4
   2              		.eabi_attribute 20, 1
   3              		.eabi_attribute 21, 1
   4              		.eabi_attribute 23, 3
   5              		.eabi_attribute 24, 1
   6              		.eabi_attribute 25, 1
   7              		.eabi_attribute 26, 1
   8              		.eabi_attribute 30, 2
   9              		.eabi_attribute 34, 1
  10              		.eabi_attribute 18, 4
  11              		.file	"chmtx.c"
  12              		.text
  13              	.Ltext0:
  14              		.cfi_sections	.debug_frame
  15              		.section	.text.chMtxObjectInit,"ax",%progbits
  16              		.align	1
  17              		.p2align 4,,15
  18              		.global	chMtxObjectInit
  19              		.syntax unified
  20              		.thumb
  21              		.thumb_func
  22              		.fpu softvfp
  23              		.type	chMtxObjectInit, %function
  24              	chMtxObjectInit:
  25              	.LFB229:
  26              		.file 1 "../../../os/rt/src/chmtx.c"
  27              		.loc 1 103 0
  28              		.cfi_startproc
  29              		@ args = 0, pretend = 0, frame = 0
  30              		@ frame_needed = 0, uses_anonymous_args = 0
  31              		@ link register save eliminated.
  32              	.LVL0:
  33              		.loc 1 108 0
  34 0000 0023     		movs	r3, #0
  35              	.LBB103:
  36              	.LBB104:
  37              		.file 2 "../../../os/rt/include/chschd.h"
  38              		.loc 2 605 0
  39 0002 C0E90000 		strd	r0, r0, [r0]
  40              	.LVL1:
  41              	.LBE104:
  42              	.LBE103:
  43              		.loc 1 108 0
  44 0006 8360     		str	r3, [r0, #8]
  45              		.loc 1 112 0
  46 0008 7047     		bx	lr
  47              		.cfi_endproc
  48              	.LFE229:
  49              		.size	chMtxObjectInit, .-chMtxObjectInit
  50 000a 00BF     		.section	.text.chMtxLockS,"ax",%progbits
  51              		.align	1
  52              		.p2align 4,,15
  53              		.global	chMtxLockS
  54              		.syntax unified
  55              		.thumb
  56              		.thumb_func
  57              		.fpu softvfp
ARM GAS  /var/folders/qd/4mxf5pkd0zdf0b9dd1hp39180000gn/T//ccCoboGm.s 			page 2


  58              		.type	chMtxLockS, %function
  59              	chMtxLockS:
  60              	.LFB231:
  61              		.loc 1 139 0
  62              		.cfi_startproc
  63              		@ args = 0, pretend = 0, frame = 0
  64              		@ frame_needed = 0, uses_anonymous_args = 0
  65              	.LVL2:
  66 0000 F8B5     		push	{r3, r4, r5, r6, r7, lr}
  67              		.cfi_def_cfa_offset 24
  68              		.cfi_offset 3, -24
  69              		.cfi_offset 4, -20
  70              		.cfi_offset 5, -16
  71              		.cfi_offset 6, -12
  72              		.cfi_offset 7, -8
  73              		.cfi_offset 14, -4
  74              		.loc 1 140 0
  75 0002 364A     		ldr	r2, .L33
  76              		.loc 1 146 0
  77 0004 8368     		ldr	r3, [r0, #8]
  78              		.loc 1 140 0
  79 0006 9569     		ldr	r5, [r2, #24]
  80              	.LVL3:
  81              		.loc 1 146 0
  82 0008 002B     		cmp	r3, #0
  83 000a 3FD0     		beq	.L25
  84              	.LBB105:
  85              		.loc 1 165 0
  86 000c A968     		ldr	r1, [r5, #8]
  87 000e 9A68     		ldr	r2, [r3, #8]
  88 0010 9142     		cmp	r1, r2
  89 0012 0446     		mov	r4, r0
  90              	.LVL4:
  91 0014 06D9     		bls	.L6
  92              	.LVL5:
  93              	.L12:
  94              		.loc 1 170 0
  95 0016 1A7F     		ldrb	r2, [r3, #28]	@ zero_extendqisi2
  96              		.loc 1 167 0
  97 0018 9960     		str	r1, [r3, #8]
  98              		.loc 1 170 0
  99 001a 062A     		cmp	r2, #6
 100 001c 3BD0     		beq	.L7
 101 001e 072A     		cmp	r2, #7
 102 0020 15D0     		beq	.L8
 103 0022 42B3     		cbz	r2, .L26
 104              	.LVL6:
 105              	.L6:
 106              		.loc 1 212 0
 107 0024 2646     		mov	r6, r4
 108              	.LVL7:
 109 0026 2346     		mov	r3, r4
 110 0028 03E0     		b	.L17
 111              	.LVL8:
 112              	.L28:
 113              	.LBB106:
 114              	.LBB107:
ARM GAS  /var/folders/qd/4mxf5pkd0zdf0b9dd1hp39180000gn/T//ccCoboGm.s 			page 3


 115              		.loc 2 656 0
 116 002a 9968     		ldr	r1, [r3, #8]
 117 002c AA68     		ldr	r2, [r5, #8]
 118 002e 9142     		cmp	r1, r2
 119 0030 2AD3     		bcc	.L27
 120              	.L17:
 121              		.loc 2 655 0
 122 0032 1B68     		ldr	r3, [r3]
 123              	.LVL9:
 124              		.loc 2 656 0
 125 0034 9C42     		cmp	r4, r3
 126 0036 F8D1     		bne	.L28
 127              	.L16:
 128              		.loc 2 658 0
 129 0038 7368     		ldr	r3, [r6, #4]
 130              	.LVL10:
 131              	.LBE107:
 132              	.LBE106:
 133              		.loc 1 214 0
 134 003a 0620     		movs	r0, #6
 135              	.LBB110:
 136              	.LBB108:
 137              		.loc 2 658 0
 138 003c C5E90063 		strd	r6, r3, [r5]
 139              		.loc 2 659 0
 140 0040 1D60     		str	r5, [r3]
 141              		.loc 2 660 0
 142 0042 7560     		str	r5, [r6, #4]
 143              	.LVL11:
 144              	.LBE108:
 145              	.LBE110:
 146              		.loc 1 213 0
 147 0044 2C62     		str	r4, [r5, #32]
 148              	.LBE105:
 149              		.loc 1 236 0
 150 0046 BDE8F840 		pop	{r3, r4, r5, r6, r7, lr}
 151              		.cfi_remember_state
 152              		.cfi_restore 14
 153              		.cfi_restore 7
 154              		.cfi_restore 6
 155              		.cfi_restore 5
 156              		.cfi_restore 4
 157              		.cfi_restore 3
 158              		.cfi_def_cfa_offset 0
 159              	.LVL12:
 160              	.LBB136:
 161              		.loc 1 214 0
 162 004a FFF7FEBF 		b	chSchGoSleepS
 163              	.LVL13:
 164              	.L8:
 165              		.cfi_restore_state
 166              	.LBB111:
 167              	.LBB112:
 168              		.loc 2 691 0
 169 004e D3E90002 		ldrd	r0, r2, [r3]
 170 0052 1060     		str	r0, [r2]
 171              	.LBE112:
ARM GAS  /var/folders/qd/4mxf5pkd0zdf0b9dd1hp39180000gn/T//ccCoboGm.s 			page 4


 172              	.LBE111:
 173              		.loc 1 193 0
 174 0054 1E6A     		ldr	r6, [r3, #32]
 175              	.LBB114:
 176              	.LBB113:
 177              		.loc 2 692 0
 178 0056 1868     		ldr	r0, [r3]
 179 0058 4260     		str	r2, [r0, #4]
 180              	.LVL14:
 181              	.LBE113:
 182              	.LBE114:
 183              		.loc 1 193 0
 184 005a 3246     		mov	r2, r6
 185 005c 02E0     		b	.L14
 186              	.LVL15:
 187              	.L30:
 188              	.LBB115:
 189              	.LBB116:
 190              		.loc 2 656 0
 191 005e 9068     		ldr	r0, [r2, #8]
 192 0060 8842     		cmp	r0, r1
 193 0062 32D3     		bcc	.L29
 194              	.LVL16:
 195              	.L14:
 196              		.loc 2 655 0
 197 0064 1268     		ldr	r2, [r2]
 198              	.LVL17:
 199              		.loc 2 656 0
 200 0066 9642     		cmp	r6, r2
 201 0068 F9D1     		bne	.L30
 202              		.loc 2 658 0
 203 006a 7268     		ldr	r2, [r6, #4]
 204              	.LVL18:
 205 006c C3E90062 		strd	r6, r2, [r3]
 206              		.loc 2 659 0
 207 0070 1360     		str	r3, [r2]
 208              		.loc 2 660 0
 209 0072 7360     		str	r3, [r6, #4]
 210 0074 D6E7     		b	.L6
 211              	.LVL19:
 212              	.L26:
 213              	.LBE116:
 214              	.LBE115:
 215              	.LBB118:
 216              	.LBB119:
 217              		.loc 2 691 0
 218 0076 D3E90012 		ldrd	r1, r2, [r3]
 219 007a 1160     		str	r1, [r2]
 220              		.loc 2 692 0
 221 007c 1968     		ldr	r1, [r3]
 222              	.LBE119:
 223              	.LBE118:
 224              		.loc 1 202 0
 225 007e 1846     		mov	r0, r3
 226              	.LBB121:
 227              	.LBB120:
 228              		.loc 2 692 0
ARM GAS  /var/folders/qd/4mxf5pkd0zdf0b9dd1hp39180000gn/T//ccCoboGm.s 			page 5


 229 0080 4A60     		str	r2, [r1, #4]
 230              	.LVL20:
 231              	.LBE120:
 232              	.LBE121:
 233              		.loc 1 202 0
 234 0082 FFF7FEFF 		bl	chSchReadyI
 235              	.LVL21:
 236              		.loc 1 203 0
 237 0086 CDE7     		b	.L6
 238              	.LVL22:
 239              	.L27:
 240              	.LBB122:
 241              	.LBB109:
 242              		.loc 2 655 0
 243 0088 1E46     		mov	r6, r3
 244 008a D5E7     		b	.L16
 245              	.LVL23:
 246              	.L25:
 247              	.LBE109:
 248              	.LBE122:
 249              	.LBE136:
 250              		.loc 1 233 0
 251 008c AB6B     		ldr	r3, [r5, #56]
 252 008e C0E90253 		strd	r5, r3, [r0, #8]
 253              		.loc 1 234 0
 254 0092 A863     		str	r0, [r5, #56]
 255              		.loc 1 236 0
 256 0094 F8BD     		pop	{r3, r4, r5, r6, r7, pc}
 257              	.LVL24:
 258              	.L7:
 259              	.LBB137:
 260              	.LBB123:
 261              	.LBB124:
 262              		.loc 2 691 0
 263 0096 D3E90002 		ldrd	r0, r2, [r3]
 264 009a 1060     		str	r0, [r2]
 265              	.LBE124:
 266              	.LBE123:
 267              		.loc 1 173 0
 268 009c 1E6A     		ldr	r6, [r3, #32]
 269              	.LBB127:
 270              	.LBB125:
 271              		.loc 2 692 0
 272 009e 1868     		ldr	r0, [r3]
 273              	.LBE125:
 274              	.LBE127:
 275              		.loc 1 173 0
 276 00a0 3746     		mov	r7, r6
 277              	.LBB128:
 278              	.LBB126:
 279              		.loc 2 692 0
 280 00a2 4260     		str	r2, [r0, #4]
 281              	.LVL25:
 282              	.LBE126:
 283              	.LBE128:
 284              		.loc 1 173 0
 285 00a4 3246     		mov	r2, r6
ARM GAS  /var/folders/qd/4mxf5pkd0zdf0b9dd1hp39180000gn/T//ccCoboGm.s 			page 6


 286 00a6 02E0     		b	.L11
 287              	.LVL26:
 288              	.L32:
 289              	.LBB129:
 290              	.LBB130:
 291              		.loc 2 656 0
 292 00a8 9068     		ldr	r0, [r2, #8]
 293 00aa 8842     		cmp	r0, r1
 294 00ac 14D3     		bcc	.L31
 295              	.LVL27:
 296              	.L11:
 297              		.loc 2 655 0
 298 00ae 1268     		ldr	r2, [r2]
 299              	.LVL28:
 300              		.loc 2 656 0
 301 00b0 9642     		cmp	r6, r2
 302 00b2 F9D1     		bne	.L32
 303              	.L10:
 304              		.loc 2 658 0
 305 00b4 7A68     		ldr	r2, [r7, #4]
 306              	.LVL29:
 307              	.LBE130:
 308              	.LBE129:
 309              		.loc 1 165 0
 310 00b6 A968     		ldr	r1, [r5, #8]
 311              	.LBB133:
 312              	.LBB131:
 313              		.loc 2 658 0
 314 00b8 C3E90072 		strd	r7, r2, [r3]
 315              		.loc 2 659 0
 316 00bc 1360     		str	r3, [r2]
 317              		.loc 2 660 0
 318 00be 7B60     		str	r3, [r7, #4]
 319              	.LVL30:
 320              	.LBE131:
 321              	.LBE133:
 322              		.loc 1 174 0
 323 00c0 B368     		ldr	r3, [r6, #8]
 324              	.LVL31:
 325              		.loc 1 165 0
 326 00c2 9A68     		ldr	r2, [r3, #8]
 327 00c4 8A42     		cmp	r2, r1
 328 00c6 A6D3     		bcc	.L12
 329 00c8 ACE7     		b	.L6
 330              	.LVL32:
 331              	.L29:
 332              	.LBB134:
 333              	.LBB117:
 334              		.loc 2 655 0
 335 00ca 1646     		mov	r6, r2
 336              	.LVL33:
 337              		.loc 2 658 0
 338 00cc 7268     		ldr	r2, [r6, #4]
 339              	.LVL34:
 340 00ce C3E90062 		strd	r6, r2, [r3]
 341              		.loc 2 659 0
 342 00d2 1360     		str	r3, [r2]
ARM GAS  /var/folders/qd/4mxf5pkd0zdf0b9dd1hp39180000gn/T//ccCoboGm.s 			page 7


 343              		.loc 2 660 0
 344 00d4 7360     		str	r3, [r6, #4]
 345 00d6 A5E7     		b	.L6
 346              	.LVL35:
 347              	.L31:
 348              	.LBE117:
 349              	.LBE134:
 350              	.LBB135:
 351              	.LBB132:
 352              		.loc 2 655 0
 353 00d8 1746     		mov	r7, r2
 354 00da EBE7     		b	.L10
 355              	.L34:
 356              		.align	2
 357              	.L33:
 358 00dc 00000000 		.word	ch
 359              	.LBE132:
 360              	.LBE135:
 361              	.LBE137:
 362              		.cfi_endproc
 363              	.LFE231:
 364              		.size	chMtxLockS, .-chMtxLockS
 365              		.section	.text.chMtxLock,"ax",%progbits
 366              		.align	1
 367              		.p2align 4,,15
 368              		.global	chMtxLock
 369              		.syntax unified
 370              		.thumb
 371              		.thumb_func
 372              		.fpu softvfp
 373              		.type	chMtxLock, %function
 374              	chMtxLock:
 375              	.LFB230:
 376              		.loc 1 123 0
 377              		.cfi_startproc
 378              		@ args = 0, pretend = 0, frame = 0
 379              		@ frame_needed = 0, uses_anonymous_args = 0
 380              	.LVL36:
 381 0000 08B5     		push	{r3, lr}
 382              		.cfi_def_cfa_offset 8
 383              		.cfi_offset 3, -8
 384              		.cfi_offset 14, -4
 385              	.LBB138:
 386              	.LBB139:
 387              	.LBB140:
 388              	.LBB141:
 389              		.file 3 "../../../os/ext/CMSIS/include/core_cmFunc.h"
 390              		.loc 3 546 0
 391 0002 2023     		movs	r3, #32
 392              		.syntax unified
 393              	@ 546 "../../../os/ext/CMSIS/include/core_cmFunc.h" 1
 394 0004 83F31188 		MSR basepri, r3
 395              	@ 0 "" 2
 396              	.LVL37:
 397              		.thumb
 398              		.syntax unified
 399              	.LBE141:
ARM GAS  /var/folders/qd/4mxf5pkd0zdf0b9dd1hp39180000gn/T//ccCoboGm.s 			page 8


 400              	.LBE140:
 401              	.LBE139:
 402              	.LBE138:
 403              		.loc 1 126 0
 404 0008 FFF7FEFF 		bl	chMtxLockS
 405              	.LVL38:
 406              	.LBB142:
 407              	.LBB143:
 408              	.LBB144:
 409              	.LBB145:
 410              	.LBB146:
 411              		.loc 3 546 0
 412 000c 0023     		movs	r3, #0
 413              		.syntax unified
 414              	@ 546 "../../../os/ext/CMSIS/include/core_cmFunc.h" 1
 415 000e 83F31188 		MSR basepri, r3
 416              	@ 0 "" 2
 417              	.LVL39:
 418              		.thumb
 419              		.syntax unified
 420              	.LBE146:
 421              	.LBE145:
 422              	.LBE144:
 423              	.LBE143:
 424              	.LBE142:
 425              		.loc 1 128 0
 426 0012 08BD     		pop	{r3, pc}
 427              		.cfi_endproc
 428              	.LFE230:
 429              		.size	chMtxLock, .-chMtxLock
 430              		.section	.text.chMtxTryLock,"ax",%progbits
 431              		.align	1
 432              		.p2align 4,,15
 433              		.global	chMtxTryLock
 434              		.syntax unified
 435              		.thumb
 436              		.thumb_func
 437              		.fpu softvfp
 438              		.type	chMtxTryLock, %function
 439              	chMtxTryLock:
 440              	.LFB232:
 441              		.loc 1 255 0
 442              		.cfi_startproc
 443              		@ args = 0, pretend = 0, frame = 0
 444              		@ frame_needed = 0, uses_anonymous_args = 0
 445              		@ link register save eliminated.
 446              	.LVL40:
 447              		.loc 1 255 0
 448 0000 0346     		mov	r3, r0
 449              	.LBB160:
 450              	.LBB161:
 451              	.LBB162:
 452              	.LBB163:
 453              		.loc 3 546 0
 454 0002 2022     		movs	r2, #32
 455              		.syntax unified
 456              	@ 546 "../../../os/ext/CMSIS/include/core_cmFunc.h" 1
ARM GAS  /var/folders/qd/4mxf5pkd0zdf0b9dd1hp39180000gn/T//ccCoboGm.s 			page 9


 457 0004 82F31188 		MSR basepri, r2
 458              	@ 0 "" 2
 459              	.LVL41:
 460              		.thumb
 461              		.syntax unified
 462              	.LBE163:
 463              	.LBE162:
 464              	.LBE161:
 465              	.LBE160:
 466              	.LBB164:
 467              	.LBB165:
 468              		.loc 1 287 0
 469 0008 8268     		ldr	r2, [r0, #8]
 470 000a 22B1     		cbz	r2, .L40
 471              		.loc 1 297 0
 472 000c 0020     		movs	r0, #0
 473              	.LVL42:
 474              	.LBE165:
 475              	.LBE164:
 476              	.LBB169:
 477              	.LBB170:
 478              	.LBB171:
 479              	.LBB172:
 480              	.LBB173:
 481              		.loc 3 546 0
 482 000e 0023     		movs	r3, #0
 483              	.LVL43:
 484              		.syntax unified
 485              	@ 546 "../../../os/ext/CMSIS/include/core_cmFunc.h" 1
 486 0010 83F31188 		MSR basepri, r3
 487              	@ 0 "" 2
 488              	.LVL44:
 489              		.thumb
 490              		.syntax unified
 491              	.LBE173:
 492              	.LBE172:
 493              	.LBE171:
 494              	.LBE170:
 495              	.LBE169:
 496              		.loc 1 263 0
 497 0014 7047     		bx	lr
 498              	.LVL45:
 499              	.L40:
 500              	.LBB178:
 501              	.LBB168:
 502              	.LBB166:
 503              	.LBB167:
 504              		.loc 1 305 0
 505 0016 054A     		ldr	r2, .L41
 506 0018 9269     		ldr	r2, [r2, #24]
 507 001a 8260     		str	r2, [r0, #8]
 508              		.loc 1 306 0
 509 001c 916B     		ldr	r1, [r2, #56]
 510 001e C160     		str	r1, [r0, #12]
 511              		.loc 1 307 0
 512 0020 9363     		str	r3, [r2, #56]
 513              	.LVL46:
ARM GAS  /var/folders/qd/4mxf5pkd0zdf0b9dd1hp39180000gn/T//ccCoboGm.s 			page 10


 514 0022 0120     		movs	r0, #1
 515              	.LVL47:
 516              	.LBE167:
 517              	.LBE166:
 518              	.LBE168:
 519              	.LBE178:
 520              	.LBB179:
 521              	.LBB177:
 522              	.LBB176:
 523              	.LBB175:
 524              	.LBB174:
 525              		.loc 3 546 0
 526 0024 0023     		movs	r3, #0
 527              	.LVL48:
 528              		.syntax unified
 529              	@ 546 "../../../os/ext/CMSIS/include/core_cmFunc.h" 1
 530 0026 83F31188 		MSR basepri, r3
 531              	@ 0 "" 2
 532              	.LVL49:
 533              		.thumb
 534              		.syntax unified
 535              	.LBE174:
 536              	.LBE175:
 537              	.LBE176:
 538              	.LBE177:
 539              	.LBE179:
 540              		.loc 1 263 0
 541 002a 7047     		bx	lr
 542              	.L42:
 543              		.align	2
 544              	.L41:
 545 002c 00000000 		.word	ch
 546              		.cfi_endproc
 547              	.LFE232:
 548              		.size	chMtxTryLock, .-chMtxTryLock
 549              		.section	.text.chMtxTryLockS,"ax",%progbits
 550              		.align	1
 551              		.p2align 4,,15
 552              		.global	chMtxTryLockS
 553              		.syntax unified
 554              		.thumb
 555              		.thumb_func
 556              		.fpu softvfp
 557              		.type	chMtxTryLockS, %function
 558              	chMtxTryLockS:
 559              	.LFB233:
 560              		.loc 1 282 0
 561              		.cfi_startproc
 562              		@ args = 0, pretend = 0, frame = 0
 563              		@ frame_needed = 0, uses_anonymous_args = 0
 564              		@ link register save eliminated.
 565              	.LVL50:
 566              		.loc 1 287 0
 567 0000 8268     		ldr	r2, [r0, #8]
 568              		.loc 1 282 0
 569 0002 0346     		mov	r3, r0
 570              		.loc 1 287 0
ARM GAS  /var/folders/qd/4mxf5pkd0zdf0b9dd1hp39180000gn/T//ccCoboGm.s 			page 11


 571 0004 0AB1     		cbz	r2, .L46
 572              		.loc 1 297 0
 573 0006 0020     		movs	r0, #0
 574              	.LVL51:
 575              		.loc 1 309 0
 576 0008 7047     		bx	lr
 577              	.LVL52:
 578              	.L46:
 579              	.LBB182:
 580              	.LBB183:
 581              		.loc 1 305 0
 582 000a 044A     		ldr	r2, .L47
 583 000c 9269     		ldr	r2, [r2, #24]
 584 000e 8260     		str	r2, [r0, #8]
 585              		.loc 1 306 0
 586 0010 916B     		ldr	r1, [r2, #56]
 587 0012 C160     		str	r1, [r0, #12]
 588              		.loc 1 307 0
 589 0014 0120     		movs	r0, #1
 590              	.LVL53:
 591 0016 9363     		str	r3, [r2, #56]
 592              	.LVL54:
 593 0018 7047     		bx	lr
 594              	.L48:
 595 001a 00BF     		.align	2
 596              	.L47:
 597 001c 00000000 		.word	ch
 598              	.LBE183:
 599              	.LBE182:
 600              		.cfi_endproc
 601              	.LFE233:
 602              		.size	chMtxTryLockS, .-chMtxTryLockS
 603              		.section	.text.chMtxUnlock,"ax",%progbits
 604              		.align	1
 605              		.p2align 4,,15
 606              		.global	chMtxUnlock
 607              		.syntax unified
 608              		.thumb
 609              		.thumb_func
 610              		.fpu softvfp
 611              		.type	chMtxUnlock, %function
 612              	chMtxUnlock:
 613              	.LFB234:
 614              		.loc 1 323 0
 615              		.cfi_startproc
 616              		@ args = 0, pretend = 0, frame = 0
 617              		@ frame_needed = 0, uses_anonymous_args = 0
 618              	.LVL55:
 619              		.loc 1 324 0
 620 0000 164B     		ldr	r3, .L60
 621              		.loc 1 323 0
 622 0002 70B5     		push	{r4, r5, r6, lr}
 623              		.cfi_def_cfa_offset 16
 624              		.cfi_offset 4, -16
 625              		.cfi_offset 5, -12
 626              		.cfi_offset 6, -8
 627              		.cfi_offset 14, -4
ARM GAS  /var/folders/qd/4mxf5pkd0zdf0b9dd1hp39180000gn/T//ccCoboGm.s 			page 12


 628              		.loc 1 324 0
 629 0004 9D69     		ldr	r5, [r3, #24]
 630              	.LVL56:
 631              	.LBB184:
 632              	.LBB185:
 633              	.LBB186:
 634              	.LBB187:
 635              		.loc 3 546 0
 636 0006 2023     		movs	r3, #32
 637              		.syntax unified
 638              	@ 546 "../../../os/ext/CMSIS/include/core_cmFunc.h" 1
 639 0008 83F31188 		MSR basepri, r3
 640              	@ 0 "" 2
 641              	.LVL57:
 642              		.thumb
 643              		.syntax unified
 644              	.LBE187:
 645              	.LBE186:
 646              	.LBE185:
 647              	.LBE184:
 648              	.LBB188:
 649              	.LBB189:
 650              	.LBB190:
 651              	.LBB191:
 652              		.loc 2 631 0
 653 000c 0468     		ldr	r4, [r0]
 654              	.LBE191:
 655              	.LBE190:
 656              	.LBE189:
 657              	.LBE188:
 658              		.loc 1 344 0
 659 000e C368     		ldr	r3, [r0, #12]
 660 0010 AB63     		str	r3, [r5, #56]
 661              		.loc 1 347 0
 662 0012 8442     		cmp	r4, r0
 663 0014 1CD0     		beq	.L50
 664              	.LBB192:
 665              		.loc 1 352 0
 666 0016 E96B     		ldr	r1, [r5, #60]
 667              	.LVL58:
 668              		.loc 1 354 0
 669 0018 4BB1     		cbz	r3, .L51
 670              	.L53:
 671              	.LVL59:
 672              	.LBB193:
 673              	.LBB194:
 674              	.LBB195:
 675              	.LBB196:
 676              		.loc 2 631 0
 677 001a 1A68     		ldr	r2, [r3]
 678              	.LVL60:
 679              	.LBE196:
 680              	.LBE195:
 681              	.LBE194:
 682              	.LBE193:
 683              		.loc 1 358 0
 684 001c 9342     		cmp	r3, r2
ARM GAS  /var/folders/qd/4mxf5pkd0zdf0b9dd1hp39180000gn/T//ccCoboGm.s 			page 13


 685 001e 03D0     		beq	.L52
 686 0020 9268     		ldr	r2, [r2, #8]
 687 0022 9142     		cmp	r1, r2
 688 0024 38BF     		it	cc
 689 0026 1146     		movcc	r1, r2
 690              	.LVL61:
 691              	.L52:
 692              		.loc 1 362 0
 693 0028 DB68     		ldr	r3, [r3, #12]
 694              	.LVL62:
 695              		.loc 1 354 0
 696 002a 002B     		cmp	r3, #0
 697 002c F5D1     		bne	.L53
 698              	.L51:
 699 002e 0346     		mov	r3, r0
 700              	.LVL63:
 701              		.loc 1 376 0
 702 0030 A66B     		ldr	r6, [r4, #56]
 703              	.LBB197:
 704              	.LBB198:
 705              		.loc 2 674 0
 706 0032 2268     		ldr	r2, [r4]
 707              	.LBE198:
 708              	.LBE197:
 709              		.loc 1 367 0
 710 0034 A960     		str	r1, [r5, #8]
 711              	.LVL64:
 712              		.loc 1 378 0
 713 0036 2046     		mov	r0, r4
 714              	.LVL65:
 715              	.LBB201:
 716              	.LBB199:
 717              		.loc 2 674 0
 718 0038 1A60     		str	r2, [r3]
 719              	.LBE199:
 720              	.LBE201:
 721              		.loc 1 378 0
 722 003a 0021     		movs	r1, #0
 723              	.LVL66:
 724              	.LBB202:
 725              	.LBB200:
 726              		.loc 2 675 0
 727 003c 5360     		str	r3, [r2, #4]
 728              	.LVL67:
 729              	.LBE200:
 730              	.LBE202:
 731              		.loc 1 376 0
 732 003e C3E90246 		strd	r4, r6, [r3, #8]
 733              		.loc 1 377 0
 734 0042 A363     		str	r3, [r4, #56]
 735              		.loc 1 378 0
 736 0044 FFF7FEFF 		bl	chSchWakeupS
 737              	.LVL68:
 738              	.LBE192:
 739              	.LBB203:
 740              	.LBB204:
 741              	.LBB205:
ARM GAS  /var/folders/qd/4mxf5pkd0zdf0b9dd1hp39180000gn/T//ccCoboGm.s 			page 14


 742              	.LBB206:
 743              	.LBB207:
 744              		.loc 3 546 0
 745 0048 0023     		movs	r3, #0
 746              		.syntax unified
 747              	@ 546 "../../../os/ext/CMSIS/include/core_cmFunc.h" 1
 748 004a 83F31188 		MSR basepri, r3
 749              	@ 0 "" 2
 750              	.LVL69:
 751              		.thumb
 752              		.syntax unified
 753              	.LBE207:
 754              	.LBE206:
 755              	.LBE205:
 756              	.LBE204:
 757              	.LBE203:
 758              		.loc 1 388 0
 759 004e 70BD     		pop	{r4, r5, r6, pc}
 760              	.LVL70:
 761              	.L50:
 762              		.loc 1 381 0
 763 0050 0023     		movs	r3, #0
 764 0052 A360     		str	r3, [r4, #8]
 765              	.LVL71:
 766              	.LBB212:
 767              	.LBB211:
 768              	.LBB210:
 769              	.LBB209:
 770              	.LBB208:
 771              		.loc 3 546 0
 772 0054 0023     		movs	r3, #0
 773              		.syntax unified
 774              	@ 546 "../../../os/ext/CMSIS/include/core_cmFunc.h" 1
 775 0056 83F31188 		MSR basepri, r3
 776              	@ 0 "" 2
 777              	.LVL72:
 778              		.thumb
 779              		.syntax unified
 780              	.LBE208:
 781              	.LBE209:
 782              	.LBE210:
 783              	.LBE211:
 784              	.LBE212:
 785              		.loc 1 388 0
 786 005a 70BD     		pop	{r4, r5, r6, pc}
 787              	.LVL73:
 788              	.L61:
 789              		.align	2
 790              	.L60:
 791 005c 00000000 		.word	ch
 792              		.cfi_endproc
 793              	.LFE234:
 794              		.size	chMtxUnlock, .-chMtxUnlock
 795              		.section	.text.chMtxUnlockS,"ax",%progbits
 796              		.align	1
 797              		.p2align 4,,15
 798              		.global	chMtxUnlockS
ARM GAS  /var/folders/qd/4mxf5pkd0zdf0b9dd1hp39180000gn/T//ccCoboGm.s 			page 15


 799              		.syntax unified
 800              		.thumb
 801              		.thumb_func
 802              		.fpu softvfp
 803              		.type	chMtxUnlockS, %function
 804              	chMtxUnlockS:
 805              	.LFB235:
 806              		.loc 1 404 0
 807              		.cfi_startproc
 808              		@ args = 0, pretend = 0, frame = 0
 809              		@ frame_needed = 0, uses_anonymous_args = 0
 810              		@ link register save eliminated.
 811              	.LVL74:
 812              		.loc 1 405 0
 813 0000 124B     		ldr	r3, .L72
 814              		.loc 1 404 0
 815 0002 30B4     		push	{r4, r5}
 816              		.cfi_def_cfa_offset 8
 817              		.cfi_offset 4, -8
 818              		.cfi_offset 5, -4
 819              	.LBB213:
 820              	.LBB214:
 821              	.LBB215:
 822              	.LBB216:
 823              		.loc 2 631 0
 824 0004 0468     		ldr	r4, [r0]
 825              	.LBE216:
 826              	.LBE215:
 827              	.LBE214:
 828              	.LBE213:
 829              		.loc 1 405 0
 830 0006 9D69     		ldr	r5, [r3, #24]
 831              	.LVL75:
 832              		.loc 1 424 0
 833 0008 C368     		ldr	r3, [r0, #12]
 834 000a AB63     		str	r3, [r5, #56]
 835              		.loc 1 427 0
 836 000c 8442     		cmp	r4, r0
 837 000e 18D0     		beq	.L63
 838 0010 0146     		mov	r1, r0
 839              	.LBB217:
 840              		.loc 1 432 0
 841 0012 E86B     		ldr	r0, [r5, #60]
 842              	.LVL76:
 843              		.loc 1 434 0
 844 0014 4BB1     		cbz	r3, .L64
 845              	.L66:
 846              	.LVL77:
 847              	.LBB218:
 848              	.LBB219:
 849              	.LBB220:
 850              	.LBB221:
 851              		.loc 2 631 0
 852 0016 1A68     		ldr	r2, [r3]
 853              	.LVL78:
 854              	.LBE221:
 855              	.LBE220:
ARM GAS  /var/folders/qd/4mxf5pkd0zdf0b9dd1hp39180000gn/T//ccCoboGm.s 			page 16


 856              	.LBE219:
 857              	.LBE218:
 858              		.loc 1 438 0
 859 0018 9342     		cmp	r3, r2
 860 001a 03D0     		beq	.L65
 861 001c 9268     		ldr	r2, [r2, #8]
 862 001e 9042     		cmp	r0, r2
 863 0020 38BF     		it	cc
 864 0022 1046     		movcc	r0, r2
 865              	.LVL79:
 866              	.L65:
 867              		.loc 1 442 0
 868 0024 DB68     		ldr	r3, [r3, #12]
 869              	.LVL80:
 870              		.loc 1 434 0
 871 0026 002B     		cmp	r3, #0
 872 0028 F5D1     		bne	.L66
 873              	.L64:
 874              		.loc 1 456 0
 875 002a A26B     		ldr	r2, [r4, #56]
 876              	.LBB222:
 877              	.LBB223:
 878              		.loc 2 674 0
 879 002c 2368     		ldr	r3, [r4]
 880              	.LVL81:
 881              	.LBE223:
 882              	.LBE222:
 883              		.loc 1 447 0
 884 002e A860     		str	r0, [r5, #8]
 885              	.LVL82:
 886              	.LBB226:
 887              	.LBB224:
 888              		.loc 2 674 0
 889 0030 0B60     		str	r3, [r1]
 890              	.LBE224:
 891              	.LBE226:
 892              		.loc 1 458 0
 893 0032 2046     		mov	r0, r4
 894              	.LVL83:
 895              	.LBB227:
 896              	.LBB225:
 897              		.loc 2 675 0
 898 0034 5960     		str	r1, [r3, #4]
 899              	.LVL84:
 900              	.LBE225:
 901              	.LBE227:
 902              		.loc 1 456 0
 903 0036 C1E90242 		strd	r4, r2, [r1, #8]
 904              		.loc 1 457 0
 905 003a A163     		str	r1, [r4, #56]
 906              	.LBE217:
 907              		.loc 1 466 0
 908 003c 30BC     		pop	{r4, r5}
 909              		.cfi_remember_state
 910              		.cfi_restore 5
 911              		.cfi_restore 4
 912              		.cfi_def_cfa_offset 0
ARM GAS  /var/folders/qd/4mxf5pkd0zdf0b9dd1hp39180000gn/T//ccCoboGm.s 			page 17


 913              	.LVL85:
 914              	.LBB228:
 915              		.loc 1 458 0
 916 003e FFF7FEBF 		b	chSchReadyI
 917              	.LVL86:
 918              	.L63:
 919              		.cfi_restore_state
 920              	.LBE228:
 921              		.loc 1 461 0
 922 0042 0023     		movs	r3, #0
 923 0044 A360     		str	r3, [r4, #8]
 924              		.loc 1 466 0
 925 0046 30BC     		pop	{r4, r5}
 926              		.cfi_restore 5
 927              		.cfi_restore 4
 928              		.cfi_def_cfa_offset 0
 929              	.LVL87:
 930 0048 7047     		bx	lr
 931              	.L73:
 932 004a 00BF     		.align	2
 933              	.L72:
 934 004c 00000000 		.word	ch
 935              		.cfi_endproc
 936              	.LFE235:
 937              		.size	chMtxUnlockS, .-chMtxUnlockS
 938              		.section	.text.chMtxUnlockAll,"ax",%progbits
 939              		.align	1
 940              		.p2align 4,,15
 941              		.global	chMtxUnlockAll
 942              		.syntax unified
 943              		.thumb
 944              		.thumb_func
 945              		.fpu softvfp
 946              		.type	chMtxUnlockAll, %function
 947              	chMtxUnlockAll:
 948              	.LFB236:
 949              		.loc 1 479 0
 950              		.cfi_startproc
 951              		@ args = 0, pretend = 0, frame = 0
 952              		@ frame_needed = 0, uses_anonymous_args = 0
 953              		.loc 1 480 0
 954 0000 134A     		ldr	r2, .L85
 955              		.loc 1 479 0
 956 0002 70B5     		push	{r4, r5, r6, lr}
 957              		.cfi_def_cfa_offset 16
 958              		.cfi_offset 4, -16
 959              		.cfi_offset 5, -12
 960              		.cfi_offset 6, -8
 961              		.cfi_offset 14, -4
 962              	.LBB229:
 963              	.LBB230:
 964              	.LBB231:
 965              	.LBB232:
 966              		.loc 3 546 0
 967 0004 2023     		movs	r3, #32
 968              	.LBE232:
 969              	.LBE231:
ARM GAS  /var/folders/qd/4mxf5pkd0zdf0b9dd1hp39180000gn/T//ccCoboGm.s 			page 18


 970              	.LBE230:
 971              	.LBE229:
 972              		.loc 1 480 0
 973 0006 9469     		ldr	r4, [r2, #24]
 974              	.LVL88:
 975              	.LBB236:
 976              	.LBB235:
 977              	.LBB234:
 978              	.LBB233:
 979              		.loc 3 546 0
 980              		.syntax unified
 981              	@ 546 "../../../os/ext/CMSIS/include/core_cmFunc.h" 1
 982 0008 83F31188 		MSR basepri, r3
 983              	@ 0 "" 2
 984              	.LVL89:
 985              		.thumb
 986              		.syntax unified
 987              	.LBE233:
 988              	.LBE234:
 989              	.LBE235:
 990              	.LBE236:
 991              		.loc 1 483 0
 992 000c A36B     		ldr	r3, [r4, #56]
 993 000e B3B1     		cbz	r3, .L75
 994              	.LBB237:
 995              		.loc 1 501 0
 996 0010 0026     		movs	r6, #0
 997              	.L78:
 998              	.LVL90:
 999              	.LBB238:
 1000              	.LBB239:
 1001              	.LBB240:
 1002              	.LBB241:
 1003              		.loc 2 631 0
 1004 0012 1A68     		ldr	r2, [r3]
 1005              	.LVL91:
 1006              	.LBE241:
 1007              	.LBE240:
 1008              	.LBE239:
 1009              	.LBE238:
 1010              		.loc 1 486 0
 1011 0014 D968     		ldr	r1, [r3, #12]
 1012 0016 A163     		str	r1, [r4, #56]
 1013              	.LVL92:
 1014              		.loc 1 487 0
 1015 0018 9342     		cmp	r3, r2
 1016              	.LBB242:
 1017              		.loc 1 495 0
 1018 001a 1046     		mov	r0, r2
 1019              	.LBE242:
 1020              		.loc 1 487 0
 1021 001c 13D0     		beq	.L76
 1022              	.LBB245:
 1023              		.loc 1 493 0
 1024 001e 956B     		ldr	r5, [r2, #56]
 1025              	.LBB243:
 1026              	.LBB244:
ARM GAS  /var/folders/qd/4mxf5pkd0zdf0b9dd1hp39180000gn/T//ccCoboGm.s 			page 19


 1027              		.loc 2 674 0
 1028 0020 1168     		ldr	r1, [r2]
 1029 0022 1960     		str	r1, [r3]
 1030              		.loc 2 675 0
 1031 0024 4B60     		str	r3, [r1, #4]
 1032              	.LVL93:
 1033              	.LBE244:
 1034              	.LBE243:
 1035              		.loc 1 493 0
 1036 0026 C3E90225 		strd	r2, r5, [r3, #8]
 1037              		.loc 1 494 0
 1038 002a 9363     		str	r3, [r2, #56]
 1039              		.loc 1 495 0
 1040 002c FFF7FEFF 		bl	chSchReadyI
 1041              	.LVL94:
 1042 0030 A36B     		ldr	r3, [r4, #56]
 1043              	.LBE245:
 1044              	.LBE237:
 1045              		.loc 1 503 0
 1046 0032 002B     		cmp	r3, #0
 1047 0034 EDD1     		bne	.L78
 1048              	.L84:
 1049              		.loc 1 504 0
 1050 0036 E36B     		ldr	r3, [r4, #60]
 1051 0038 A360     		str	r3, [r4, #8]
 1052              		.loc 1 505 0
 1053 003a FFF7FEFF 		bl	chSchRescheduleS
 1054              	.LVL95:
 1055              	.L75:
 1056              	.LBB246:
 1057              	.LBB247:
 1058              	.LBB248:
 1059              	.LBB249:
 1060              	.LBB250:
 1061              		.loc 3 546 0
 1062 003e 0023     		movs	r3, #0
 1063              		.syntax unified
 1064              	@ 546 "../../../os/ext/CMSIS/include/core_cmFunc.h" 1
 1065 0040 83F31188 		MSR basepri, r3
 1066              	@ 0 "" 2
 1067              	.LVL96:
 1068              		.thumb
 1069              		.syntax unified
 1070              	.LBE250:
 1071              	.LBE249:
 1072              	.LBE248:
 1073              	.LBE247:
 1074              	.LBE246:
 1075              		.loc 1 508 0
 1076 0044 70BD     		pop	{r4, r5, r6, pc}
 1077              	.LVL97:
 1078              	.L76:
 1079              	.LBB251:
 1080              		.loc 1 501 0
 1081 0046 9E60     		str	r6, [r3, #8]
 1082 0048 0B46     		mov	r3, r1
 1083              	.LVL98:
ARM GAS  /var/folders/qd/4mxf5pkd0zdf0b9dd1hp39180000gn/T//ccCoboGm.s 			page 20


 1084              	.LBE251:
 1085              		.loc 1 503 0
 1086 004a 002B     		cmp	r3, #0
 1087 004c E1D1     		bne	.L78
 1088 004e F2E7     		b	.L84
 1089              	.L86:
 1090              		.align	2
 1091              	.L85:
 1092 0050 00000000 		.word	ch
 1093              		.cfi_endproc
 1094              	.LFE236:
 1095              		.size	chMtxUnlockAll, .-chMtxUnlockAll
 1096              		.text
 1097              	.Letext0:
 1098              		.file 4 "/Applications/Eclipse_e-puck2.app/Contents/Eclipse_e-puck2/Tools/gcc-arm-none-eabi-7-2017
 1099              		.file 5 "/Applications/Eclipse_e-puck2.app/Contents/Eclipse_e-puck2/Tools/gcc-arm-none-eabi-7-2017
 1100              		.file 6 "../../../os/rt/ports/ARMCMx/compilers/GCC/chtypes.h"
 1101              		.file 7 "../../../os/rt/include/chsystypes.h"
 1102              		.file 8 "../../../os/ext/CMSIS/include/core_cm4.h"
 1103              		.file 9 "../../../os/ext/CMSIS/ST/system_stm32f4xx.h"
 1104              		.file 10 "../../../os/rt/ports/ARMCMx/chcore.h"
 1105              		.file 11 "../../../os/rt/ports/ARMCMx/chcore_v7m.h"
 1106              		.file 12 "../../../os/rt/include/chtm.h"
 1107              		.file 13 "../../../os/rt/include/chsem.h"
 1108              		.file 14 "../../../os/rt/include/chmtx.h"
 1109              		.file 15 "../../../os/rt/include/chregistry.h"
 1110              		.file 16 "../../../os/rt/include/chsys.h"