ARM GAS  /var/folders/qd/4mxf5pkd0zdf0b9dd1hp39180000gn/T//cc0AuJk0.s 			page 1


   1              		.cpu cortex-m4
   2              		.eabi_attribute 20, 1
   3              		.eabi_attribute 21, 1
   4              		.eabi_attribute 23, 3
   5              		.eabi_attribute 24, 1
   6              		.eabi_attribute 25, 1
   7              		.eabi_attribute 26, 1
   8              		.eabi_attribute 30, 2
   9              		.eabi_attribute 34, 1
  10              		.eabi_attribute 18, 4
  11              		.file	"chqueues.c"
  12              		.text
  13              	.Ltext0:
  14              		.cfi_sections	.debug_frame
  15              		.section	.text.chIQObjectInit,"ax",%progbits
  16              		.align	1
  17              		.p2align 4,,15
  18              		.global	chIQObjectInit
  19              		.syntax unified
  20              		.thumb
  21              		.thumb_func
  22              		.fpu softvfp
  23              		.type	chIQObjectInit, %function
  24              	chIQObjectInit:
  25              	.LFB229:
  26              		.file 1 "../../../os/rt/src/chqueues.c"
  27              		.loc 1 88 0
  28              		.cfi_startproc
  29              		@ args = 4, pretend = 0, frame = 0
  30              		@ frame_needed = 0, uses_anonymous_args = 0
  31              		@ link register save eliminated.
  32              	.LVL0:
  33 0000 30B4     		push	{r4, r5}
  34              		.cfi_def_cfa_offset 8
  35              		.cfi_offset 4, -8
  36              		.cfi_offset 5, -4
  37              		.loc 1 88 0
  38 0002 029C     		ldr	r4, [sp, #8]
  39              		.loc 1 97 0
  40 0004 0462     		str	r4, [r0, #32]
  41              		.loc 1 91 0
  42 0006 0025     		movs	r5, #0
  43              		.loc 1 95 0
  44 0008 0A44     		add	r2, r2, r1
  45              	.LVL1:
  46              		.loc 1 91 0
  47 000a 8560     		str	r5, [r0, #8]
  48              		.loc 1 95 0
  49 000c 0261     		str	r2, [r0, #16]
  50              	.LBB108:
  51              	.LBB109:
  52              	.LBB110:
  53              		.file 2 "../../../os/rt/include/chschd.h"
  54              		.loc 2 605 0
  55 000e C0E90000 		strd	r0, r0, [r0]
  56              	.LVL2:
  57              	.LBE110:
ARM GAS  /var/folders/qd/4mxf5pkd0zdf0b9dd1hp39180000gn/T//cc0AuJk0.s 			page 2


  58              	.LBE109:
  59              	.LBE108:
  60              		.loc 1 92 0
  61 0012 C160     		str	r1, [r0, #12]
  62              		.loc 1 94 0
  63 0014 C0E90511 		strd	r1, r1, [r0, #20]
  64              		.loc 1 96 0
  65 0018 C361     		str	r3, [r0, #28]
  66              		.loc 1 98 0
  67 001a 30BC     		pop	{r4, r5}
  68              		.cfi_restore 5
  69              		.cfi_restore 4
  70              		.cfi_def_cfa_offset 0
  71              	.LVL3:
  72 001c 7047     		bx	lr
  73              		.cfi_endproc
  74              	.LFE229:
  75              		.size	chIQObjectInit, .-chIQObjectInit
  76 001e 00BF     		.section	.text.chIQResetI,"ax",%progbits
  77              		.align	1
  78              		.p2align 4,,15
  79              		.global	chIQResetI
  80              		.syntax unified
  81              		.thumb
  82              		.thumb_func
  83              		.fpu softvfp
  84              		.type	chIQResetI, %function
  85              	chIQResetI:
  86              	.LFB230:
  87              		.loc 1 111 0
  88              		.cfi_startproc
  89              		@ args = 0, pretend = 0, frame = 0
  90              		@ frame_needed = 0, uses_anonymous_args = 0
  91              		@ link register save eliminated.
  92              	.LVL4:
  93              		.loc 1 115 0
  94 0000 C268     		ldr	r2, [r0, #12]
  95              		.loc 1 117 0
  96 0002 0021     		movs	r1, #0
  97 0004 8160     		str	r1, [r0, #8]
  98              		.loc 1 116 0
  99 0006 C0E90522 		strd	r2, r2, [r0, #20]
 100              		.loc 1 118 0
 101 000a 6FF00101 		mvn	r1, #1
 102 000e FFF7FEBF 		b	chThdDequeueAllI
 103              	.LVL5:
 104              		.cfi_endproc
 105              	.LFE230:
 106              		.size	chIQResetI, .-chIQResetI
 107 0012 00BF     		.section	.text.chIQPutI,"ax",%progbits
 108              		.align	1
 109              		.p2align 4,,15
 110              		.global	chIQPutI
 111              		.syntax unified
 112              		.thumb
 113              		.thumb_func
 114              		.fpu softvfp
ARM GAS  /var/folders/qd/4mxf5pkd0zdf0b9dd1hp39180000gn/T//cc0AuJk0.s 			page 3


 115              		.type	chIQPutI, %function
 116              	chIQPutI:
 117              	.LFB231:
 118              		.loc 1 134 0
 119              		.cfi_startproc
 120              		@ args = 0, pretend = 0, frame = 0
 121              		@ frame_needed = 0, uses_anonymous_args = 0
 122              	.LVL6:
 123 0000 10B5     		push	{r4, lr}
 124              		.cfi_def_cfa_offset 8
 125              		.cfi_offset 4, -8
 126              		.cfi_offset 14, -4
 127              	.LBB111:
 128              	.LBB112:
 129              		.file 3 "../../../os/rt/include/chqueues.h"
 130              		.loc 3 324 0
 131 0002 D0E90524 		ldrd	r2, r4, [r0, #20]
 132 0006 A242     		cmp	r2, r4
 133 0008 8368     		ldr	r3, [r0, #8]
 134 000a 0FD0     		beq	.L12
 135              	.L6:
 136              	.LVL7:
 137              	.LBE112:
 138              	.LBE111:
 139              		.loc 1 142 0
 140 000c 0133     		adds	r3, r3, #1
 141              		.loc 1 143 0
 142 000e 541C     		adds	r4, r2, #1
 143              		.loc 1 142 0
 144 0010 8360     		str	r3, [r0, #8]
 145              		.loc 1 143 0
 146 0012 4461     		str	r4, [r0, #20]
 147 0014 1170     		strb	r1, [r2]
 148              		.loc 1 144 0
 149 0016 D0E90432 		ldrd	r3, r2, [r0, #16]
 150 001a 9A42     		cmp	r2, r3
 151 001c 01D3     		bcc	.L9
 152              		.loc 1 145 0
 153 001e C368     		ldr	r3, [r0, #12]
 154 0020 4361     		str	r3, [r0, #20]
 155              	.L9:
 156              		.loc 1 148 0
 157 0022 0021     		movs	r1, #0
 158              	.LVL8:
 159 0024 FFF7FEFF 		bl	chThdDequeueNextI
 160              	.LVL9:
 161              		.loc 1 150 0
 162 0028 0020     		movs	r0, #0
 163              		.loc 1 151 0
 164 002a 10BD     		pop	{r4, pc}
 165              	.LVL10:
 166              	.L12:
 167              	.LBB114:
 168              	.LBB113:
 169              		.loc 3 324 0
 170 002c 002B     		cmp	r3, #0
 171 002e EDD0     		beq	.L6
ARM GAS  /var/folders/qd/4mxf5pkd0zdf0b9dd1hp39180000gn/T//cc0AuJk0.s 			page 4


 172              	.LBE113:
 173              	.LBE114:
 174              		.loc 1 139 0
 175 0030 6FF00300 		mvn	r0, #3
 176              	.LVL11:
 177              		.loc 1 151 0
 178 0034 10BD     		pop	{r4, pc}
 179              		.cfi_endproc
 180              	.LFE231:
 181              		.size	chIQPutI, .-chIQPutI
 182 0036 00BF     		.section	.text.chIQGetTimeout,"ax",%progbits
 183              		.align	1
 184              		.p2align 4,,15
 185              		.global	chIQGetTimeout
 186              		.syntax unified
 187              		.thumb
 188              		.thumb_func
 189              		.fpu softvfp
 190              		.type	chIQGetTimeout, %function
 191              	chIQGetTimeout:
 192              	.LFB232:
 193              		.loc 1 173 0
 194              		.cfi_startproc
 195              		@ args = 0, pretend = 0, frame = 0
 196              		@ frame_needed = 0, uses_anonymous_args = 0
 197              	.LVL12:
 198 0000 70B5     		push	{r4, r5, r6, lr}
 199              		.cfi_def_cfa_offset 16
 200              		.cfi_offset 4, -16
 201              		.cfi_offset 5, -12
 202              		.cfi_offset 6, -8
 203              		.cfi_offset 14, -4
 204              	.LBB115:
 205              	.LBB116:
 206              	.LBB117:
 207              	.LBB118:
 208              		.file 4 "../../../os/ext/CMSIS/include/core_cmFunc.h"
 209              		.loc 4 546 0
 210 0002 2023     		movs	r3, #32
 211              	.LBE118:
 212              	.LBE117:
 213              	.LBE116:
 214              	.LBE115:
 215              		.loc 1 173 0
 216 0004 0E46     		mov	r6, r1
 217 0006 0446     		mov	r4, r0
 218              	.LBB122:
 219              	.LBB121:
 220              	.LBB120:
 221              	.LBB119:
 222              		.loc 4 546 0
 223              		.syntax unified
 224              	@ 546 "../../../os/ext/CMSIS/include/core_cmFunc.h" 1
 225 0008 83F31188 		MSR basepri, r3
 226              	@ 0 "" 2
 227              	.LVL13:
 228              		.thumb
ARM GAS  /var/folders/qd/4mxf5pkd0zdf0b9dd1hp39180000gn/T//cc0AuJk0.s 			page 5


 229              		.syntax unified
 230              	.LBE119:
 231              	.LBE120:
 232              	.LBE121:
 233              	.LBE122:
 234              		.loc 1 177 0
 235 000c C369     		ldr	r3, [r0, #28]
 236 000e 2BB1     		cbz	r3, .L15
 237              		.loc 1 178 0
 238 0010 9847     		blx	r3
 239              	.LVL14:
 240 0012 03E0     		b	.L15
 241              	.LVL15:
 242              	.L17:
 243              	.LBB123:
 244              		.loc 1 182 0
 245 0014 FFF7FEFF 		bl	chThdEnqueueTimeoutS
 246              	.LVL16:
 247              		.loc 1 183 0
 248 0018 0028     		cmp	r0, #0
 249 001a 15DB     		blt	.L24
 250              	.LVL17:
 251              	.L15:
 252 001c A568     		ldr	r5, [r4, #8]
 253              	.LVL18:
 254              		.loc 1 182 0
 255 001e 3146     		mov	r1, r6
 256 0020 2046     		mov	r0, r4
 257              	.LBE123:
 258              		.loc 1 181 0
 259 0022 002D     		cmp	r5, #0
 260 0024 F6D0     		beq	.L17
 261              	.LVL19:
 262              		.loc 1 190 0
 263 0026 A269     		ldr	r2, [r4, #24]
 264              		.loc 1 191 0
 265 0028 2169     		ldr	r1, [r4, #16]
 266              	.LVL20:
 267              		.loc 1 190 0
 268 002a 531C     		adds	r3, r2, #1
 269              		.loc 1 191 0
 270 002c 8B42     		cmp	r3, r1
 271              		.loc 1 189 0
 272 002e 05F1FF35 		add	r5, r5, #-1
 273              		.loc 1 190 0
 274 0032 A361     		str	r3, [r4, #24]
 275              		.loc 1 189 0
 276 0034 A560     		str	r5, [r4, #8]
 277              		.loc 1 192 0
 278 0036 28BF     		it	cs
 279 0038 E368     		ldrcs	r3, [r4, #12]
 280              		.loc 1 190 0
 281 003a 1078     		ldrb	r0, [r2]	@ zero_extendqisi2
 282              	.LVL21:
 283              		.loc 1 192 0
 284 003c 28BF     		it	cs
 285 003e A361     		strcs	r3, [r4, #24]
ARM GAS  /var/folders/qd/4mxf5pkd0zdf0b9dd1hp39180000gn/T//cc0AuJk0.s 			page 6


 286              	.LVL22:
 287              	.LBB129:
 288              	.LBB130:
 289              	.LBB131:
 290              	.LBB132:
 291              	.LBB133:
 292              		.loc 4 546 0
 293 0040 0023     		movs	r3, #0
 294              		.syntax unified
 295              	@ 546 "../../../os/ext/CMSIS/include/core_cmFunc.h" 1
 296 0042 83F31188 		MSR basepri, r3
 297              	@ 0 "" 2
 298              	.LVL23:
 299              		.thumb
 300              		.syntax unified
 301              	.LBE133:
 302              	.LBE132:
 303              	.LBE131:
 304              	.LBE130:
 305              	.LBE129:
 306              		.loc 1 197 0
 307 0046 70BD     		pop	{r4, r5, r6, pc}
 308              	.LVL24:
 309              	.L24:
 310              	.LBB134:
 311              	.LBB124:
 312              	.LBB125:
 313              	.LBB126:
 314              	.LBB127:
 315              	.LBB128:
 316              		.loc 4 546 0
 317              		.syntax unified
 318              	@ 546 "../../../os/ext/CMSIS/include/core_cmFunc.h" 1
 319 0048 85F31188 		MSR basepri, r5
 320              	@ 0 "" 2
 321              	.LVL25:
 322              		.thumb
 323              		.syntax unified
 324              	.LBE128:
 325              	.LBE127:
 326              	.LBE126:
 327              	.LBE125:
 328              	.LBE124:
 329              	.LBE134:
 330              		.loc 1 197 0
 331 004c 70BD     		pop	{r4, r5, r6, pc}
 332              		.cfi_endproc
 333              	.LFE232:
 334              		.size	chIQGetTimeout, .-chIQGetTimeout
 335 004e 00BF     		.section	.text.chIQReadTimeout,"ax",%progbits
 336              		.align	1
 337              		.p2align 4,,15
 338              		.global	chIQReadTimeout
 339              		.syntax unified
 340              		.thumb
 341              		.thumb_func
 342              		.fpu softvfp
ARM GAS  /var/folders/qd/4mxf5pkd0zdf0b9dd1hp39180000gn/T//cc0AuJk0.s 			page 7


 343              		.type	chIQReadTimeout, %function
 344              	chIQReadTimeout:
 345              	.LFB233:
 346              		.loc 1 224 0
 347              		.cfi_startproc
 348              		@ args = 0, pretend = 0, frame = 8
 349              		@ frame_needed = 0, uses_anonymous_args = 0
 350              	.LVL26:
 351 0000 2DE9F04F 		push	{r4, r5, r6, r7, r8, r9, r10, fp, lr}
 352              		.cfi_def_cfa_offset 36
 353              		.cfi_offset 4, -36
 354              		.cfi_offset 5, -32
 355              		.cfi_offset 6, -28
 356              		.cfi_offset 7, -24
 357              		.cfi_offset 8, -20
 358              		.cfi_offset 9, -16
 359              		.cfi_offset 10, -12
 360              		.cfi_offset 11, -8
 361              		.cfi_offset 14, -4
 362 0004 0446     		mov	r4, r0
 363 0006 83B0     		sub	sp, sp, #12
 364              		.cfi_def_cfa_offset 48
 365              		.loc 1 224 0
 366 0008 8946     		mov	r9, r1
 367 000a 9346     		mov	fp, r2
 368 000c 1D46     		mov	r5, r3
 369              		.loc 1 225 0
 370 000e D0F81C80 		ldr	r8, [r0, #28]
 371              	.LVL27:
 372              	.LBB135:
 373              	.LBB136:
 374              	.LBB137:
 375              	.LBB138:
 376              		.loc 4 546 0
 377 0012 2027     		movs	r7, #32
 378              		.syntax unified
 379              	@ 546 "../../../os/ext/CMSIS/include/core_cmFunc.h" 1
 380 0014 87F31188 		MSR basepri, r7
 381              	@ 0 "" 2
 382              	.LVL28:
 383              		.thumb
 384              		.syntax unified
 385              	.LBE138:
 386              	.LBE137:
 387              	.LBE136:
 388              	.LBE135:
 389              		.loc 1 226 0
 390 0018 0026     		movs	r6, #0
 391              	.LBB139:
 392              	.LBB140:
 393              	.LBB141:
 394              	.LBB142:
 395              		.loc 4 546 0
 396 001a 0197     		str	r7, [sp, #4]
 397              	.LBE142:
 398              	.LBE141:
 399              	.LBE140:
ARM GAS  /var/folders/qd/4mxf5pkd0zdf0b9dd1hp39180000gn/T//cc0AuJk0.s 			page 8


 400              	.LBE139:
 401              	.LBB146:
 402              	.LBB147:
 403              	.LBB148:
 404              	.LBB149:
 405              	.LBB150:
 406 001c B246     		mov	r10, r6
 407              	.LVL29:
 408              	.L31:
 409              	.LBE150:
 410              	.LBE149:
 411              	.LBE148:
 412              	.LBE147:
 413              	.LBE146:
 414              		.loc 1 232 0
 415 001e B8F1000F 		cmp	r8, #0
 416 0022 05D0     		beq	.L27
 417              		.loc 1 233 0
 418 0024 2046     		mov	r0, r4
 419              	.LVL30:
 420 0026 C047     		blx	r8
 421              	.LVL31:
 422 0028 02E0     		b	.L27
 423              	.LVL32:
 424              	.L29:
 425              		.loc 1 237 0
 426 002a FFF7FEFF 		bl	chThdEnqueueTimeoutS
 427              	.LVL33:
 428 002e D8B9     		cbnz	r0, .L38
 429              	.LVL34:
 430              	.L27:
 431 0030 A768     		ldr	r7, [r4, #8]
 432              	.LVL35:
 433 0032 2946     		mov	r1, r5
 434 0034 2046     		mov	r0, r4
 435              		.loc 1 236 0
 436 0036 002F     		cmp	r7, #0
 437 0038 F7D0     		beq	.L29
 438              	.LVL36:
 439              		.loc 1 244 0
 440 003a A269     		ldr	r2, [r4, #24]
 441              		.loc 1 243 0
 442 003c 013F     		subs	r7, r7, #1
 443              		.loc 1 244 0
 444 003e 511C     		adds	r1, r2, #1
 445              	.LVL37:
 446 0040 A161     		str	r1, [r4, #24]
 447              		.loc 1 243 0
 448 0042 A760     		str	r7, [r4, #8]
 449              		.loc 1 244 0
 450 0044 1378     		ldrb	r3, [r2]	@ zero_extendqisi2
 451 0046 09F8013B 		strb	r3, [r9], #1
 452              	.LVL38:
 453              		.loc 1 245 0
 454 004a 2369     		ldr	r3, [r4, #16]
 455 004c A269     		ldr	r2, [r4, #24]
 456 004e 9A42     		cmp	r2, r3
ARM GAS  /var/folders/qd/4mxf5pkd0zdf0b9dd1hp39180000gn/T//cc0AuJk0.s 			page 9


 457              		.loc 1 246 0
 458 0050 24BF     		itt	cs
 459 0052 E368     		ldrcs	r3, [r4, #12]
 460 0054 A361     		strcs	r3, [r4, #24]
 461              	.LVL39:
 462              	.LBB155:
 463              	.LBB154:
 464              	.LBB153:
 465              	.LBB152:
 466              	.LBB151:
 467              		.loc 4 546 0
 468              		.syntax unified
 469              	@ 546 "../../../os/ext/CMSIS/include/core_cmFunc.h" 1
 470 0056 8AF31188 		MSR basepri, r10
 471              	@ 0 "" 2
 472              	.LVL40:
 473              		.thumb
 474              		.syntax unified
 475              	.LBE151:
 476              	.LBE152:
 477              	.LBE153:
 478              	.LBE154:
 479              	.LBE155:
 480              		.loc 1 250 0
 481 005a 0136     		adds	r6, r6, #1
 482              	.LVL41:
 483              		.loc 1 251 0
 484 005c B345     		cmp	fp, r6
 485 005e 05D0     		beq	.L25
 486              	.LVL42:
 487              	.LBB156:
 488              	.LBB145:
 489              	.LBB144:
 490              	.LBB143:
 491              		.loc 4 546 0
 492 0060 019B     		ldr	r3, [sp, #4]
 493              		.syntax unified
 494              	@ 546 "../../../os/ext/CMSIS/include/core_cmFunc.h" 1
 495 0062 83F31188 		MSR basepri, r3
 496              	@ 0 "" 2
 497              	.LVL43:
 498              		.thumb
 499              		.syntax unified
 500 0066 DAE7     		b	.L31
 501              	.LVL44:
 502              	.L38:
 503              	.LBE143:
 504              	.LBE144:
 505              	.LBE145:
 506              	.LBE156:
 507              	.LBB157:
 508              	.LBB158:
 509              	.LBB159:
 510              	.LBB160:
 511              	.LBB161:
 512              		.syntax unified
 513              	@ 546 "../../../os/ext/CMSIS/include/core_cmFunc.h" 1
ARM GAS  /var/folders/qd/4mxf5pkd0zdf0b9dd1hp39180000gn/T//cc0AuJk0.s 			page 10


 514 0068 87F31188 		MSR basepri, r7
 515              	@ 0 "" 2
 516              	.LVL45:
 517              		.thumb
 518              		.syntax unified
 519              	.L25:
 520              	.LBE161:
 521              	.LBE160:
 522              	.LBE159:
 523              	.LBE158:
 524              	.LBE157:
 525              		.loc 1 257 0
 526 006c 3046     		mov	r0, r6
 527 006e 03B0     		add	sp, sp, #12
 528              		.cfi_def_cfa_offset 36
 529              		@ sp needed
 530 0070 BDE8F08F 		pop	{r4, r5, r6, r7, r8, r9, r10, fp, pc}
 531              		.cfi_endproc
 532              	.LFE233:
 533              		.size	chIQReadTimeout, .-chIQReadTimeout
 534              		.section	.text.chOQObjectInit,"ax",%progbits
 535              		.align	1
 536              		.p2align 4,,15
 537              		.global	chOQObjectInit
 538              		.syntax unified
 539              		.thumb
 540              		.thumb_func
 541              		.fpu softvfp
 542              		.type	chOQObjectInit, %function
 543              	chOQObjectInit:
 544              	.LFB234:
 545              		.loc 1 276 0
 546              		.cfi_startproc
 547              		@ args = 4, pretend = 0, frame = 0
 548              		@ frame_needed = 0, uses_anonymous_args = 0
 549              		@ link register save eliminated.
 550              	.LVL46:
 551 0000 30B4     		push	{r4, r5}
 552              		.cfi_def_cfa_offset 8
 553              		.cfi_offset 4, -8
 554              		.cfi_offset 5, -4
 555              		.loc 1 276 0
 556 0002 029C     		ldr	r4, [sp, #8]
 557              		.loc 1 279 0
 558 0004 8260     		str	r2, [r0, #8]
 559              		.loc 1 283 0
 560 0006 8D18     		adds	r5, r1, r2
 561              		.loc 1 280 0
 562 0008 C0E90315 		strd	r1, r5, [r0, #12]
 563              		.loc 1 285 0
 564 000c C0E90734 		strd	r3, r4, [r0, #28]
 565              	.LBB162:
 566              	.LBB163:
 567              	.LBB164:
 568              		.loc 2 605 0
 569 0010 C0E90000 		strd	r0, r0, [r0]
 570              	.LVL47:
ARM GAS  /var/folders/qd/4mxf5pkd0zdf0b9dd1hp39180000gn/T//cc0AuJk0.s 			page 11


 571              	.LBE164:
 572              	.LBE163:
 573              	.LBE162:
 574              		.loc 1 282 0
 575 0014 C0E90511 		strd	r1, r1, [r0, #20]
 576              		.loc 1 286 0
 577 0018 30BC     		pop	{r4, r5}
 578              		.cfi_restore 5
 579              		.cfi_restore 4
 580              		.cfi_def_cfa_offset 0
 581              	.LVL48:
 582 001a 7047     		bx	lr
 583              		.cfi_endproc
 584              	.LFE234:
 585              		.size	chOQObjectInit, .-chOQObjectInit
 586              		.section	.text.chOQResetI,"ax",%progbits
 587              		.align	1
 588              		.p2align 4,,15
 589              		.global	chOQResetI
 590              		.syntax unified
 591              		.thumb
 592              		.thumb_func
 593              		.fpu softvfp
 594              		.type	chOQResetI, %function
 595              	chOQResetI:
 596              	.LFB235:
 597              		.loc 1 299 0
 598              		.cfi_startproc
 599              		@ args = 0, pretend = 0, frame = 0
 600              		@ frame_needed = 0, uses_anonymous_args = 0
 601              		@ link register save eliminated.
 602              	.LVL49:
 603 0000 10B4     		push	{r4}
 604              		.cfi_def_cfa_offset 4
 605              		.cfi_offset 4, -4
 606              		.loc 1 305 0
 607 0002 D0E90342 		ldrd	r4, r2, [r0, #12]
 608 0006 121B     		subs	r2, r2, r4
 609              		.loc 1 303 0
 610 0008 8461     		str	r4, [r0, #24]
 611              		.loc 1 304 0
 612 000a 4461     		str	r4, [r0, #20]
 613              		.loc 1 306 0
 614 000c 6FF00101 		mvn	r1, #1
 615              		.loc 1 305 0
 616 0010 8260     		str	r2, [r0, #8]
 617              		.loc 1 307 0
 618 0012 10BC     		pop	{r4}
 619              		.cfi_restore 4
 620              		.cfi_def_cfa_offset 0
 621              		.loc 1 306 0
 622 0014 FFF7FEBF 		b	chThdDequeueAllI
 623              	.LVL50:
 624              		.cfi_endproc
 625              	.LFE235:
 626              		.size	chOQResetI, .-chOQResetI
 627              		.section	.text.chOQPutTimeout,"ax",%progbits
ARM GAS  /var/folders/qd/4mxf5pkd0zdf0b9dd1hp39180000gn/T//cc0AuJk0.s 			page 12


 628              		.align	1
 629              		.p2align 4,,15
 630              		.global	chOQPutTimeout
 631              		.syntax unified
 632              		.thumb
 633              		.thumb_func
 634              		.fpu softvfp
 635              		.type	chOQPutTimeout, %function
 636              	chOQPutTimeout:
 637              	.LFB236:
 638              		.loc 1 331 0
 639              		.cfi_startproc
 640              		@ args = 0, pretend = 0, frame = 0
 641              		@ frame_needed = 0, uses_anonymous_args = 0
 642              	.LVL51:
 643 0000 F8B5     		push	{r3, r4, r5, r6, r7, lr}
 644              		.cfi_def_cfa_offset 24
 645              		.cfi_offset 3, -24
 646              		.cfi_offset 4, -20
 647              		.cfi_offset 5, -16
 648              		.cfi_offset 6, -12
 649              		.cfi_offset 7, -8
 650              		.cfi_offset 14, -4
 651              		.loc 1 331 0
 652 0002 0446     		mov	r4, r0
 653 0004 0F46     		mov	r7, r1
 654 0006 1646     		mov	r6, r2
 655              	.LBB165:
 656              	.LBB166:
 657              	.LBB167:
 658              	.LBB168:
 659              		.loc 4 546 0
 660 0008 2023     		movs	r3, #32
 661              		.syntax unified
 662              	@ 546 "../../../os/ext/CMSIS/include/core_cmFunc.h" 1
 663 000a 83F31188 		MSR basepri, r3
 664              	@ 0 "" 2
 665              	.LVL52:
 666              		.thumb
 667              		.syntax unified
 668 000e 03E0     		b	.L44
 669              	.LVL53:
 670              	.L46:
 671              	.LBE168:
 672              	.LBE167:
 673              	.LBE166:
 674              	.LBE165:
 675              	.LBB169:
 676              		.loc 1 335 0
 677 0010 FFF7FEFF 		bl	chThdEnqueueTimeoutS
 678              	.LVL54:
 679              		.loc 1 336 0
 680 0014 0028     		cmp	r0, #0
 681 0016 17DB     		blt	.L54
 682              	.LVL55:
 683              	.L44:
 684 0018 A568     		ldr	r5, [r4, #8]
ARM GAS  /var/folders/qd/4mxf5pkd0zdf0b9dd1hp39180000gn/T//cc0AuJk0.s 			page 13


 685              	.LVL56:
 686              		.loc 1 335 0
 687 001a 3146     		mov	r1, r6
 688 001c 2046     		mov	r0, r4
 689              	.LBE169:
 690              		.loc 1 334 0
 691 001e 002D     		cmp	r5, #0
 692 0020 F6D0     		beq	.L46
 693              	.LVL57:
 694              		.loc 1 343 0
 695 0022 6369     		ldr	r3, [r4, #20]
 696              		.loc 1 342 0
 697 0024 013D     		subs	r5, r5, #1
 698              		.loc 1 343 0
 699 0026 5A1C     		adds	r2, r3, #1
 700 0028 6261     		str	r2, [r4, #20]
 701              		.loc 1 342 0
 702 002a A560     		str	r5, [r4, #8]
 703              		.loc 1 343 0
 704 002c 1F70     		strb	r7, [r3]
 705              		.loc 1 344 0
 706 002e D4E90432 		ldrd	r3, r2, [r4, #16]
 707 0032 9A42     		cmp	r2, r3
 708              		.loc 1 345 0
 709 0034 24BF     		itt	cs
 710 0036 E368     		ldrcs	r3, [r4, #12]
 711 0038 6361     		strcs	r3, [r4, #20]
 712              		.loc 1 348 0
 713 003a E369     		ldr	r3, [r4, #28]
 714 003c 03B1     		cbz	r3, .L48
 715              		.loc 1 349 0
 716 003e 9847     		blx	r3
 717              	.LVL58:
 718              	.L48:
 719              	.LBB175:
 720              	.LBB176:
 721              	.LBB177:
 722              	.LBB178:
 723              	.LBB179:
 724              		.loc 4 546 0
 725 0040 0020     		movs	r0, #0
 726              		.syntax unified
 727              	@ 546 "../../../os/ext/CMSIS/include/core_cmFunc.h" 1
 728 0042 80F31188 		MSR basepri, r0
 729              	@ 0 "" 2
 730              	.LVL59:
 731              		.thumb
 732              		.syntax unified
 733              	.LBE179:
 734              	.LBE178:
 735              	.LBE177:
 736              	.LBE176:
 737              	.LBE175:
 738              		.loc 1 354 0
 739 0046 F8BD     		pop	{r3, r4, r5, r6, r7, pc}
 740              	.LVL60:
 741              	.L54:
ARM GAS  /var/folders/qd/4mxf5pkd0zdf0b9dd1hp39180000gn/T//cc0AuJk0.s 			page 14


 742              	.LBB180:
 743              	.LBB170:
 744              	.LBB171:
 745              	.LBB172:
 746              	.LBB173:
 747              	.LBB174:
 748              		.loc 4 546 0
 749              		.syntax unified
 750              	@ 546 "../../../os/ext/CMSIS/include/core_cmFunc.h" 1
 751 0048 85F31188 		MSR basepri, r5
 752              	@ 0 "" 2
 753              	.LVL61:
 754              		.thumb
 755              		.syntax unified
 756              	.LBE174:
 757              	.LBE173:
 758              	.LBE172:
 759              	.LBE171:
 760              	.LBE170:
 761              	.LBE180:
 762              		.loc 1 354 0
 763 004c F8BD     		pop	{r3, r4, r5, r6, r7, pc}
 764              		.cfi_endproc
 765              	.LFE236:
 766              		.size	chOQPutTimeout, .-chOQPutTimeout
 767 004e 00BF     		.section	.text.chOQGetI,"ax",%progbits
 768              		.align	1
 769              		.p2align 4,,15
 770              		.global	chOQGetI
 771              		.syntax unified
 772              		.thumb
 773              		.thumb_func
 774              		.fpu softvfp
 775              		.type	chOQGetI, %function
 776              	chOQGetI:
 777              	.LFB237:
 778              		.loc 1 366 0
 779              		.cfi_startproc
 780              		@ args = 0, pretend = 0, frame = 0
 781              		@ frame_needed = 0, uses_anonymous_args = 0
 782              	.LVL62:
 783              	.LBB181:
 784              	.LBB182:
 785              		.loc 3 390 0
 786 0000 D0E90512 		ldrd	r1, r2, [r0, #20]
 787 0004 9142     		cmp	r1, r2
 788              	.LBE182:
 789              	.LBE181:
 790              		.loc 1 366 0
 791 0006 38B5     		push	{r3, r4, r5, lr}
 792              		.cfi_def_cfa_offset 16
 793              		.cfi_offset 3, -16
 794              		.cfi_offset 4, -12
 795              		.cfi_offset 5, -8
 796              		.cfi_offset 14, -4
 797 0008 8368     		ldr	r3, [r0, #8]
 798              	.LBB185:
ARM GAS  /var/folders/qd/4mxf5pkd0zdf0b9dd1hp39180000gn/T//cc0AuJk0.s 			page 15


 799              	.LBB183:
 800              		.loc 3 390 0
 801 000a 0ED0     		beq	.L62
 802              	.L56:
 803              	.LVL63:
 804              	.LBE183:
 805              	.LBE185:
 806              		.loc 1 377 0
 807 000c 0569     		ldr	r5, [r0, #16]
 808              		.loc 1 376 0
 809 000e 511C     		adds	r1, r2, #1
 810              		.loc 1 375 0
 811 0010 0133     		adds	r3, r3, #1
 812 0012 8360     		str	r3, [r0, #8]
 813              		.loc 1 376 0
 814 0014 8161     		str	r1, [r0, #24]
 815              		.loc 1 377 0
 816 0016 A942     		cmp	r1, r5
 817              		.loc 1 376 0
 818 0018 1478     		ldrb	r4, [r2]	@ zero_extendqisi2
 819              	.LVL64:
 820              		.loc 1 377 0
 821 001a 01D3     		bcc	.L59
 822              		.loc 1 378 0
 823 001c C368     		ldr	r3, [r0, #12]
 824 001e 8361     		str	r3, [r0, #24]
 825              	.L59:
 826              		.loc 1 381 0
 827 0020 0021     		movs	r1, #0
 828 0022 FFF7FEFF 		bl	chThdDequeueNextI
 829              	.LVL65:
 830              		.loc 1 383 0
 831 0026 2046     		mov	r0, r4
 832              		.loc 1 384 0
 833 0028 38BD     		pop	{r3, r4, r5, pc}
 834              	.LVL66:
 835              	.L62:
 836              	.LBB186:
 837              	.LBB184:
 838              		.loc 3 390 0
 839 002a 002B     		cmp	r3, #0
 840 002c EED0     		beq	.L56
 841              	.LBE184:
 842              	.LBE186:
 843              		.loc 1 372 0
 844 002e 6FF00200 		mvn	r0, #2
 845              	.LVL67:
 846              		.loc 1 384 0
 847 0032 38BD     		pop	{r3, r4, r5, pc}
 848              		.cfi_endproc
 849              	.LFE237:
 850              		.size	chOQGetI, .-chOQGetI
 851              		.section	.text.chOQWriteTimeout,"ax",%progbits
 852              		.align	1
 853              		.p2align 4,,15
 854              		.global	chOQWriteTimeout
 855              		.syntax unified
ARM GAS  /var/folders/qd/4mxf5pkd0zdf0b9dd1hp39180000gn/T//cc0AuJk0.s 			page 16


 856              		.thumb
 857              		.thumb_func
 858              		.fpu softvfp
 859              		.type	chOQWriteTimeout, %function
 860              	chOQWriteTimeout:
 861              	.LFB238:
 862              		.loc 1 411 0
 863              		.cfi_startproc
 864              		@ args = 0, pretend = 0, frame = 8
 865              		@ frame_needed = 0, uses_anonymous_args = 0
 866              	.LVL68:
 867 0000 2DE9F04F 		push	{r4, r5, r6, r7, r8, r9, r10, fp, lr}
 868              		.cfi_def_cfa_offset 36
 869              		.cfi_offset 4, -36
 870              		.cfi_offset 5, -32
 871              		.cfi_offset 6, -28
 872              		.cfi_offset 7, -24
 873              		.cfi_offset 8, -20
 874              		.cfi_offset 9, -16
 875              		.cfi_offset 10, -12
 876              		.cfi_offset 11, -8
 877              		.cfi_offset 14, -4
 878 0004 83B0     		sub	sp, sp, #12
 879              		.cfi_def_cfa_offset 48
 880              		.loc 1 411 0
 881 0006 0446     		mov	r4, r0
 882 0008 0D46     		mov	r5, r1
 883 000a 1646     		mov	r6, r2
 884 000c 0193     		str	r3, [sp, #4]
 885              		.loc 1 412 0
 886 000e D0F81C80 		ldr	r8, [r0, #28]
 887              	.LVL69:
 888              	.LBB187:
 889              	.LBB188:
 890              	.LBB189:
 891              	.LBB190:
 892              		.loc 4 546 0
 893 0012 4FF02009 		mov	r9, #32
 894              		.syntax unified
 895              	@ 546 "../../../os/ext/CMSIS/include/core_cmFunc.h" 1
 896 0016 89F31188 		MSR basepri, r9
 897              	@ 0 "" 2
 898              	.LVL70:
 899              		.thumb
 900              		.syntax unified
 901              	.LBE190:
 902              	.LBE189:
 903              	.LBE188:
 904              	.LBE187:
 905              		.loc 1 413 0
 906 001a 0027     		movs	r7, #0
 907              	.LBB191:
 908              	.LBB192:
 909              	.LBB193:
 910              	.LBB194:
 911              	.LBB195:
 912              		.loc 4 546 0
ARM GAS  /var/folders/qd/4mxf5pkd0zdf0b9dd1hp39180000gn/T//cc0AuJk0.s 			page 17


 913 001c BA46     		mov	r10, r7
 914              	.LVL71:
 915              	.L64:
 916 001e A368     		ldr	r3, [r4, #8]
 917              	.LVL72:
 918              	.LBE195:
 919              	.LBE194:
 920              	.LBE193:
 921              	.LBE192:
 922              	.LBE191:
 923              		.loc 1 427 0
 924 0020 05F1010B 		add	fp, r5, #1
 925              	.LVL73:
 926              		.loc 1 426 0
 927 0024 591E     		subs	r1, r3, #1
 928              		.loc 1 433 0
 929 0026 2046     		mov	r0, r4
 930              		.loc 1 419 0
 931 0028 FBB1     		cbz	r3, .L67
 932              	.LVL74:
 933              	.L80:
 934              		.loc 1 427 0
 935 002a 6369     		ldr	r3, [r4, #20]
 936              		.loc 1 426 0
 937 002c A160     		str	r1, [r4, #8]
 938              		.loc 1 427 0
 939 002e 591C     		adds	r1, r3, #1
 940 0030 6161     		str	r1, [r4, #20]
 941 0032 2978     		ldrb	r1, [r5]	@ zero_extendqisi2
 942 0034 1970     		strb	r1, [r3]
 943              		.loc 1 428 0
 944 0036 D4E90431 		ldrd	r3, r1, [r4, #16]
 945 003a 9942     		cmp	r1, r3
 946              		.loc 1 429 0
 947 003c 24BF     		itt	cs
 948 003e E368     		ldrcs	r3, [r4, #12]
 949 0040 6361     		strcs	r3, [r4, #20]
 950              		.loc 1 432 0
 951 0042 B8F1000F 		cmp	r8, #0
 952 0046 00D0     		beq	.L69
 953              		.loc 1 433 0
 954 0048 C047     		blx	r8
 955              	.LVL75:
 956              	.L69:
 957              	.LBB200:
 958              	.LBB199:
 959              	.LBB198:
 960              	.LBB197:
 961              	.LBB196:
 962              		.loc 4 546 0
 963              		.syntax unified
 964              	@ 546 "../../../os/ext/CMSIS/include/core_cmFunc.h" 1
 965 004a 8AF31188 		MSR basepri, r10
 966              	@ 0 "" 2
 967              	.LVL76:
 968              		.thumb
 969              		.syntax unified
ARM GAS  /var/folders/qd/4mxf5pkd0zdf0b9dd1hp39180000gn/T//cc0AuJk0.s 			page 18


 970              	.LBE196:
 971              	.LBE197:
 972              	.LBE198:
 973              	.LBE199:
 974              	.LBE200:
 975              		.loc 1 438 0
 976 004e 013E     		subs	r6, r6, #1
 977              	.LVL77:
 978              		.loc 1 437 0
 979 0050 07F10107 		add	r7, r7, #1
 980              	.LVL78:
 981              		.loc 1 438 0
 982 0054 13D0     		beq	.L63
 983              	.LBB201:
 984              	.LBB202:
 985              	.LBB203:
 986              	.LBB204:
 987              		.loc 4 546 0
 988              		.syntax unified
 989              	@ 546 "../../../os/ext/CMSIS/include/core_cmFunc.h" 1
 990 0056 89F31188 		MSR basepri, r9
 991              	@ 0 "" 2
 992              	.LVL79:
 993              		.thumb
 994              		.syntax unified
 995 005a A368     		ldr	r3, [r4, #8]
 996              	.LBE204:
 997              	.LBE203:
 998              	.LBE202:
 999              	.LBE201:
 1000              		.loc 1 427 0
 1001 005c 5D46     		mov	r5, fp
 1002              	.LVL80:
 1003              		.loc 1 426 0
 1004 005e 591E     		subs	r1, r3, #1
 1005              		.loc 1 427 0
 1006 0060 05F1010B 		add	fp, r5, #1
 1007              	.LVL81:
 1008              		.loc 1 433 0
 1009 0064 2046     		mov	r0, r4
 1010              		.loc 1 419 0
 1011 0066 002B     		cmp	r3, #0
 1012 0068 DFD1     		bne	.L80
 1013              	.LVL82:
 1014              	.L67:
 1015              		.loc 1 420 0
 1016 006a 0199     		ldr	r1, [sp, #4]
 1017 006c 0093     		str	r3, [sp]
 1018 006e 2046     		mov	r0, r4
 1019              	.LVL83:
 1020 0070 FFF7FEFF 		bl	chThdEnqueueTimeoutS
 1021              	.LVL84:
 1022 0074 009B     		ldr	r3, [sp]
 1023 0076 0028     		cmp	r0, #0
 1024 0078 D1D0     		beq	.L64
 1025              	.LVL85:
 1026              	.LBB205:
ARM GAS  /var/folders/qd/4mxf5pkd0zdf0b9dd1hp39180000gn/T//cc0AuJk0.s 			page 19


 1027              	.LBB206:
 1028              	.LBB207:
 1029              	.LBB208:
 1030              	.LBB209:
 1031              		.loc 4 546 0
 1032              		.syntax unified
 1033              	@ 546 "../../../os/ext/CMSIS/include/core_cmFunc.h" 1
 1034 007a 83F31188 		MSR basepri, r3
 1035              	@ 0 "" 2
 1036              	.LVL86:
 1037              		.thumb
 1038              		.syntax unified
 1039              	.L63:
 1040              	.LBE209:
 1041              	.LBE208:
 1042              	.LBE207:
 1043              	.LBE206:
 1044              	.LBE205:
 1045              		.loc 1 443 0
 1046 007e 3846     		mov	r0, r7
 1047 0080 03B0     		add	sp, sp, #12
 1048              		.cfi_def_cfa_offset 36
 1049              		@ sp needed
 1050 0082 BDE8F08F 		pop	{r4, r5, r6, r7, r8, r9, r10, fp, pc}
 1051              		.cfi_endproc
 1052              	.LFE238:
 1053              		.size	chOQWriteTimeout, .-chOQWriteTimeout
 1054              		.text
 1055              	.Letext0:
 1056              		.file 5 "/Applications/Eclipse_e-puck2.app/Contents/Eclipse_e-puck2/Tools/gcc-arm-none-eabi-7-2017
 1057              		.file 6 "/Applications/Eclipse_e-puck2.app/Contents/Eclipse_e-puck2/Tools/gcc-arm-none-eabi-7-2017
 1058              		.file 7 "/Applications/Eclipse_e-puck2.app/Contents/Eclipse_e-puck2/Tools/gcc-arm-none-eabi-7-2017
 1059              		.file 8 "../../../os/rt/ports/ARMCMx/compilers/GCC/chtypes.h"
 1060              		.file 9 "../../../os/rt/include/chsystypes.h"
 1061              		.file 10 "../../../os/ext/CMSIS/include/core_cm4.h"
 1062              		.file 11 "../../../os/ext/CMSIS/ST/system_stm32f4xx.h"
 1063              		.file 12 "../../../os/rt/ports/ARMCMx/chcore.h"
 1064              		.file 13 "../../../os/rt/ports/ARMCMx/chcore_v7m.h"
 1065              		.file 14 "../../../os/rt/include/chtm.h"
 1066              		.file 15 "../../../os/rt/include/chsem.h"
 1067              		.file 16 "../../../os/rt/include/chmtx.h"
 1068              		.file 17 "../../../os/rt/include/chregistry.h"
 1069              		.file 18 "../../../os/rt/include/chsys.h"
 1070              		.file 19 "../../../os/rt/include/chthreads.h"