ARM GAS  /var/folders/qd/4mxf5pkd0zdf0b9dd1hp39180000gn/T//cc0AuJk0.s 			page 1


   1              		.cpu cortex-m4
   2              		.eabi_attribute 20, 1
   3              		.eabi_attribute 21, 1
   4              		.eabi_attribute 23, 3
   5              		.eabi_attribute 24, 1
   6              		.eabi_attribute 25, 1
   7              		.eabi_attribute 26, 1
   8              		.eabi_attribute 30, 2
   9              		.eabi_attribute 34, 1
  10              		.eabi_attribute 18, 4
  11              		.file	"chqueues.c"
  12              		.text
  13              	.Ltext0:
  14              		.cfi_sections	.debug_frame
  15              		.section	.text.chIQObjectInit,"ax",%progbits
  16              		.align	1
  17              		.p2align 4,,15
  18              		.global	chIQObjectInit
  19              		.syntax unified
  20              		.thumb
  21              		.thumb_func
  22              		.fpu softvfp
  23              		.type	chIQObjectInit, %function
  24              	chIQObjectInit:
  25              	.LFB229:
  26              		.file 1 "../../../os/rt/src/chqueues.c"
  27              		.loc 1 88 0
  28              		.cfi_startproc
  29              		@ args = 4, pretend = 0, frame = 0
  30              		@ frame_needed = 0, uses_anonymous_args = 0
  31              		@ link register save eliminated.
  32              	.LVL0:
  33 0000 30B4     		push	{r4, r5}
  34              		.cfi_def_cfa_offset 8
  35              		.cfi_offset 4, -8
  36              		.cfi_offset 5, -4
  37              		.loc 1 88 0
  38 0002 029C     		ldr	r4, [sp, #8]
  39              		.loc 1 97 0
  40 0004 0462     		str	r4, [r0, #32]
  41              		.loc 1 91 0
  42 0006 0025     		movs	r5, #0
  43              		.loc 1 95 0
  44 0008 0A44     		add	r2, r2, r1
  45              	.LVL1:
  46              		.loc 1 91 0
  47 000a 8560     		str	r5, [r0, #8]
  48              		.loc 1 95 0
  49 000c 0261     		str	r2, [r0, #16]
  50              	.LBB108:
  51              	.LBB109:
  52              	.LBB110:
  53              		.file 2 "../../../os/rt/include/chschd.h"
  54              		.loc 2 605 0
  55 000e C0E90000 		strd	r0, r0, [r0]
  56              	.LVL2:
  57              	.LBE110:
ARM GAS  /var/folders/qd/4mxf5pkd0zdf0b9dd1hp39180000gn/T//cc0AuJk0.s 			page 2


  58              	.LBE109:
  59              	.LBE108:
  60              		.loc 1 92 0
  61 0012 C160     		str	r1, [r0, #12]
  62              		.loc 1 94 0
  63 0014 C0E90511 		strd	r1, r1, [r0, #20]
  64              		.loc 1 96 0
  65 0018 C361     		str	r3, [r0, #28]
  66              		.loc 1 98 0
  67 001a 30BC     		pop	{r4, r5}
  68              		.cfi_restore 5
  69              		.cfi_restore 4
  70              		.cfi_def_cfa_offset 0
  71              	.LVL3:
  72 001c 7047     		bx	lr
  73              		.cfi_endproc
  74              	.LFE229:
  75              		.size	chIQObjectInit, .-chIQObjectInit
  76 001e 00BF     		.section	.text.chIQResetI,"ax",%progbits
  77              		.align	1
  78              		.p2align 4,,15
  79              		.global	chIQResetI
  80              		.syntax unified
  81              		.thumb
  82              		.thumb_func
  83              		.fpu softvfp
  84              		.type	chIQResetI, %function
  85              	chIQResetI:
  86              	.LFB230:
  87              		.loc 1 111 0
  88              		.cfi_startproc
  89              		@ args = 0, pretend = 0, frame = 0
  90              		@ frame_needed = 0, uses_anonymous_args = 0
  91              		@ link register save eliminated.
  92              	.LVL4:
  93              		.loc 1 115 0
  94 0000 C268     		ldr	r2, [r0, #12]
  95              		.loc 1 117 0
  96 0002 0021     		movs	r1, #0
  97 0004 8160     		str	r1, [r0, #8]
  98              		.loc 1 116 0
  99 0006 C0E90522 		strd	r2, r2, [r0, #20]
 100              		.loc 1 118 0
 101 000a 6FF00101 		mvn	r1, #1
 102 000e FFF7FEBF 		b	chThdDequeueAllI
 103              	.LVL5:
 104              		.cfi_endproc
 105              	.LFE230:
 106              		.size	chIQResetI, .-chIQResetI
 107 0012 00BF     		.section	.text.chIQPutI,"ax",%progbits
 108              		.align	1
 109              		.p2align 4,,15
 110              		.global	chIQPutI
 111              		.syntax unified
 112              		.thumb
 113              		.thumb_func
 114              		.fpu softvfp
ARM GAS  /var/folders/qd/4mxf5pkd0zdf0b9dd1hp39180000gn/T//cc0AuJk0.s 			page 3


 115              		.type	chIQPutI, %function
 116              	chIQPutI:
 117              	.LFB231:
 118              		.loc 1 134 0
 119              		.cfi_startproc
 120              		@ args = 0, pretend = 0, frame = 0
 121              		@ frame_needed = 0, uses_anonymous_args = 0
 122              	.LVL6:
 123 0000 10B5     		push	{r4, lr}
 124              		.cfi_def_cfa_offset 8
 125              		.cfi_offset 4, -8
 126              		.cfi_offset 14, -4
 127              	.LBB111:
 128              	.LBB112:
 129              		.file 3 "../../../os/rt/include/chqueues.h"
 130              		.loc 3 324 0
 131 0002 D0E90524 		ldrd	r2, r4, [r0, #20]
 132 0006 A242     		cmp	r2, r4
 133 0008 8368     		ldr	r3, [r0, #8]
 134 000a 0FD0     		beq	.L12
 135              	.L6:
 136              	.LVL7:
 137              	.LBE112:
 138              	.LBE111:
 139              		.loc 1 142 0
 140 000c 0133     		adds	r3, r3, #1
 141              		.loc 1 143 0
 142 000e 541C     		adds	r4, r2, #1
 143              		.loc 1 142 0
 144 0010 8360     		str	r3, [r0, #8]
 145              		.loc 1 143 0
 146 0012 4461     		str	r4, [r0, #20]
 147 0014 1170     		strb	r1, [r2]
 148              		.loc 1 144 0
 149 0016 D0E90432 		ldrd	r3, r2, [r0, #16]
 150 001a 9A42     		cmp	r2, r3
 151 001c 01D3     		bcc	.L9
 152              		.loc 1 145 0
 153 001e C368     		ldr	r3, [r0, #12]
 154 0020 4361     		str	r3, [r0, #20]
 155              	.L9:
 156              		.loc 1 148 0
 157 0022 0021     		movs	r1, #0
 158              	.LVL8:
 159 0024 FFF7FEFF 		bl	chThdDequeueNextI
 160              	.LVL9:
 161              		.loc 1 150 0
 162 0028 0020     		movs	r0, #0
 163              		.loc 1 151 0
 164 002a 10BD     		pop	{r4, pc}
 165              	.LVL10:
 166              	.L12:
 167              	.LBB114:
 168              	.LBB113:
 169              		.loc 3 324 0
 170 002c 002B     		cmp	r3, #0
 171 002e EDD0     		beq	.L6
ARM GAS  /var/folders/qd/4mxf5pkd0zdf0b9dd1hp39180000gn/T//cc0AuJk0.s 			page 4


 172              	.LBE113:
 173              	.LBE114:
 174              		.loc 1 139 0
 175 0030 6FF00300 		mvn	r0, #3
 176              	.LVL11:
 177              		.loc 1 151 0
 178 0034 10BD     		pop	{r4, pc}
 179              		.cfi_endproc
 180              	.LFE231:
 181              		.size	chIQPutI, .-chIQPutI
 182 0036 00BF     		.section	.text.chIQGetTimeout,"ax",%progbits
 183              		.align	1
 184              		.p2align 4,,15
 185              		.global	chIQGetTimeout
 186              		.syntax unified
 187              		.thumb
 188              		.thumb_func
 189              		.fpu softvfp
 190              		.type	chIQGetTimeout, %function
 191              	chIQGetTimeout:
 192              	.LFB232:
 193              		.loc 1 173 0
 194              		.cfi_startproc
 195              		@ args = 0, pretend = 0, frame = 0
 196              		@ frame_needed = 0, uses_anonymous_args = 0
 197              	.LVL12:
 198 0000 70B5     		push	{r4, r5, r6, lr}
 199              		.cfi_def_cfa_offset 16
 200              		.cfi_offset 4, -16
 201              		.cfi_offset 5, -12
 202              		.cfi_offset 6, -8
 203              		.cfi_offset 14, -4
 204              	.LBB115:
 205              	.LBB116:
 206              	.LBB117:
 207              	.LBB118:
 208              		.file 4 "../../../os/ext/CMSIS/include/core_cmFunc.h"
 209              		.loc 4 546 0
 210 0002 2023     		movs	r3, #32
 211              	.LBE118:
 212              	.LBE117:
 213              	.LBE116:
 214              	.LBE115:
 215              		.loc 1 173 0
 216 0004 0E46     		mov	r6, r1
 217 0006 0446     		mov	r4, r0
 218              	.LBB122:
 219              	.LBB121:
 220              	.LBB120:
 221              	.LBB119:
 222              		.loc 4 546 0
 223              		.syntax unified
 224              	@ 546 "../../../os/ext/CMSIS/include/core_cmFunc.h" 1
 225 0008 83F31188 		MSR basepri, r3
 226              	@ 0 "" 2
 227              	.LVL13:
 228              		.thumb
ARM GAS  /var/folders/qd/4mxf5pkd0zdf0b9dd1hp39180000gn/T//cc0AuJk0.s 			page 5


 229              		.syntax unified
 230              	.LBE119:
 231              	.LBE120:
 232              	.LBE121:
 233              	.LBE122:
 234              		.loc 1 177 0
 235 000c C369     		ldr	r3, [r0, #28]
 236 000e 2BB1     		cbz	r3, .L15
 237              		.loc 1 178 0
 238 0010 9847     		blx	r3
 239              	.LVL14:
 240 0012 03E0     		b	.L15
 241              	.LVL15:
 242              	.L17:
 243              	.LBB123:
 244              		.loc 1 182 0
 245 0014 FFF7FEFF 		bl	chThdEnqueueTimeoutS
 246              	.LVL16:
 247              		.loc 1 183 0
 248 0018 0028     		cmp	r0, #0
 249 001a 15DB     		blt	.L24
 250              	.LVL17:
 251              	.L15:
 252 001c A568     		ldr	r5, [r4, #8]
 253              	.LVL18:
 254              		.loc 1 182 0
 255 001e 3146     		mov	r1, r6
 256 0020 2046     		mov	r0, r4
 257              	.LBE123:
 258              		.loc 1 181 0
 259 0022 002D     		cmp	r5, #0
 260 0024 F6D0     		beq	.L17
 261              	.LVL19:
 262              		.loc 1 190 0
 263 0026 A269     		ldr	r2, [r4, #24]
 264              		.loc 1 191 0
 265 0028 2169     		ldr	r1, [r4, #16]
 266              	.LVL20:
 267              		.loc 1 190 0
 268 002a 531C     		adds	r3, r2, #1
 269              		.loc 1 191 0
 270 002c 8B42     		cmp	r3, r1
 271              		.loc 1 189 0
 272 002e 05F1FF35 		add	r5, r5, #-1
 273              		.loc 1 190 0
 274 0032 A361     		str	r3, [r4, #24]
 275              		.loc 1 189 0
 276 0034 A560     		str	r5, [r4, #8]
 277              		.loc 1 192 0
 278 0036 28BF     		it	cs
 279 0038 E368     		ldrcs	r3, [r4, #12]
 280              		.loc 1 190 0
 281 003a 1078     		ldrb	r0, [r2]	@ zero_extendqisi2
 282              	.LVL21:
 283              		.loc 1 192 0
 284 003c 28BF     		it	cs
 285 003e A361     		strcs	r3, [r4, #24]
ARM GAS  /var/folders/qd/4mxf5pkd0zdf0b9dd1hp39180000gn/T//cc0AuJk0.s 			page 6


 286              	.LVL22:
 287              	.LBB129:
 288              	.LBB130:
 289              	.LBB131:
 290              	.LBB132:
 291              	.LBB133:
 292              		.loc 4 546 0
 293 0040 0023     		movs	r3, #0
 294              		.syntax unified
 295              	@ 546 "../../../os/ext/CMSIS/include/core_cmFunc.h" 1
 296 0042 83F31188 		MSR basepri, r3
 297              	@ 0 "" 2
 298              	.LVL23:
 299              		.thumb
 300              		.syntax unified
 301              	.LBE133:
 302              	.LBE132:
 303              	.LBE131:
 304              	.LBE130:
 305              	.LBE129:
 306              		.loc 1 197 0
 307 0046 70BD     		pop	{r4, r5, r6, pc}
 308              	.LVL24:
 309              	.L24:
 310              	.LBB134:
 311              	.LBB124:
 312              	.LBB125:
 313              	.LBB126:
 314              	.LBB127:
 315              	.LBB128:
 316              		.loc 4 546 0
 317              		.syntax unified
 318              	@ 546 "../../../os/ext/CMSIS/include/core_cmFunc.h" 1
 319 0048 85F31188 		MSR basepri, r5
 320              	@ 0 "" 2
 321              	.LVL25:
 322              		.thumb
 323              		.syntax unified
 324              	.LBE128:
 325              	.LBE127:
 326              	.LBE126:
 327              	.LBE125:
 328              	.LBE124:
 329              	.LBE134:
 330              		.loc 1 197 0
 331 004c 70BD     		pop	{r4, r5, r6, pc}
 332              		.cfi_endproc
 333              	.LFE232:
 334              		.size	chIQGetTimeout, .-chIQGetTimeout
 335 004e 00BF     		.section	.text.chIQReadTimeout,"ax",%progbits
 336              		.align	1
 337              		.p2align 4,,15
 338              		.global	chIQReadTimeout
 339              		.syntax unified
 340              		.thumb
 341              		.thumb_func
 342              		.fpu softvfp
ARM GAS  /var/folders/qd/4mxf5pkd0zdf0b9dd1hp39180000gn/T//cc0AuJk0.s 			page 7


 343              		.type	chIQReadTimeout, %function
 344              	chIQReadTimeout:
 345              	.LFB233:
 346              		.loc 1 224 0
 347              		.cfi_startproc
 348              		@ args = 0, pretend = 0, frame = 8
 349              		@ frame_needed = 0, uses_anonymous_args = 0
 350              	.LVL26:
 351 0000 2DE9F04F 		push	{r4, r5, r6, r7, r8, r9, r10, fp, lr}
 352              		.cfi_def_cfa_offset 36
 353              		.cfi_offset 4, -36
 354              		.cfi_offset 5, -32
 355              		.cfi_offset 6, -28
 356              		.cfi_offset 7, -24
 357              		.cfi_offset 8, -20
 358              		.cfi_offset 9, -16
 359              		.cfi_offset 10, -12
 360              		.cfi_offset 11, -8
 361              		.cfi_offset 14, -4
 362 0004 0446     		mov	r4, r0
 363 0006 83B0     		sub	sp, sp, #12
 364              		.cfi_def_cfa_offset 48
 365              		.loc 1 224 0
 366 0008 8946     		mov	r9, r1
 367 000a 9346     		mov	fp, r2
 368 000c 1D46     		mov	r5, r3
 369              		.loc 1 225 0
 370 000e D0F81C80 		ldr	r8, [r0, #28]
 371              	.LVL27:
 372              	.LBB135:
 373              	.LBB136:
 374              	.LBB137:
 375              	.LBB138:
 376              		.loc 4 546 0
 377 0012 2027     		movs	r7, #32
 378              		.syntax unified
 379              	@ 546 "../../../os/ext/CMSIS/include/core_cmFunc.h" 1
 380 0014 87F31188 		MSR basepri, r7
 381              	@ 0 "" 2
 382              	.LVL28:
 383              		.thumb
 384              		.syntax unified
 385              	.LBE138:
 386              	.LBE137:
 387              	.LBE136:
 388              	.LBE135:
 389              		.loc 1 226 0
 390 0018 0026     		movs	r6, #0
 391              	.LBB139:
 392              	.LBB140:
 393              	.LBB141:
 394              	.LBB142:
 395              		.loc 4 546 0
 396 001a 0197     		str	r7, [sp, #4]
 397              	.LBE142:
 398              	.LBE141:
 399              	.LBE140:
ARM GAS  /var/folders/qd/4mxf5pkd0zdf0b9dd1hp39180000gn/T//cc0AuJk0.s 			page 8


 400              	.LBE139:
 401              	.LBB146:
 402              	.LBB147:
 403              	.LBB148:
 404              	.LBB149:
 405              	.LBB150:
 406 001c B246     		mov	r10, r6
 407              	.LVL29:
 408              	.L31:
 409              	.LBE150:
 410              	.LBE149:
 411              	.LBE148:
 412              	.LBE147:
 413              	.LBE146:
 414              		.loc 1 232 0
 415 001e B8F1000F 		cmp	r8, #0
 416 0022 05D0     		beq	.L27
 417              		.loc 1 233 0
 418 0024 2046     		mov	r0, r4
 419              	.LVL30:
 420 0026 C047     		blx	r8
 421              	.LVL31:
 422 0028 02E0     		b	.L27
 423              	.LVL32:
 424              	.L29:
 425              		.loc 1 237 0
 426 002a FFF7FEFF 		bl	chThdEnqueueTimeoutS
 427              	.LVL33:
 428 002e D8B9     		cbnz	r0, .L38
 429              	.LVL34:
 430              	.L27:
 431 0030 A768     		ldr	r7, [r4, #8]
 432              	.LVL35:
 433 0032 2946     		mov	r1, r5
 434 0034 2046     		mov	r0, r4
 435              		.loc 1 236 0
 436 0036 002F     		cmp	r7, #0
 437 0038 F7D0     		beq	.L29
 438              	.LVL36:
 439              		.loc 1 244 0
 440 003a A269     		ldr	r2, [r4, #24]
 441              		.loc 1 243 0
 442 003c 013F     		subs	r7, r7, #1
 443              		.loc 1 244 0
 444 003e 511C     		adds	r1, r2, #1
 445              	.LVL37:
 446 0040 A161     		str	r1, [r4, #24]
 447              		.loc 1 243 0
 448 0042 A760     		str	r7, [r4, #8]
 449              		.loc 1 244 0
 450 0044 1378     		ldrb	r3, [r2]	@ zero_extendqisi2
 451 0046 09F8013B 		strb	r3, [r9], #1
 452              	.LVL38:
 453              		.loc 1 245 0
 454 004a 2369     		ldr	r3, [r4, #16]
 455 004c A269     		ldr	r2, [r4, #24]
 456 004e 9A42     		cmp	r2, r3
ARM GAS  /var/folders/qd/4mxf5pkd0zdf0b9dd1hp39180000gn/T//cc0AuJk0.s 			page 9


 457              		.loc 1 246 0
 458 0050 24BF     		itt	cs
 459 0052 E368     		ldrcs	r3, [r4, #12]
 460 0054 A361     		strcs	r3, [r4, #24]
 461              	.LVL39:
 462              	.LBB155:
 463              	.LBB154:
 464              	.LBB153:
 465              	.LBB152:
 466              	.LBB151:
 467              		.loc 4 546 0
 468              		.syntax unified
 469              	@ 546 "../../../os/ext/CMSIS/include/core_cmFunc.h" 1
 470 0056 8AF31188 		MSR basepri, r10
 471              	@ 0 "" 2
 472              	.LVL40:
 473              		.thumb
 474              		.syntax unified
 475              	.LBE151:
 476              	.LBE152:
 477              	.LBE153:
 478              	.LBE154:
 479              	.LBE155:
 480              		.loc 1 250 0
 481 005a 0136     		adds	r6, r6, #1
 482              	.LVL41:
 483              		.loc 1 251 0
 484 005c B345     		cmp	fp, r6
 485 005e 05D0     		beq	.L25
 486              	.LVL42:
 487              	.LBB156:
 488              	.LBB145:
 489              	.LBB144:
 490              	.LBB143:
 491              		.loc 4 546 0
 492 0060 019B     		ldr	r3, [sp, #4]
 493              		.syntax unified
 494              	@ 546 "../../../os/ext/CMSIS/include/core_cmFunc.h" 1
 495 0062 83F31188 		MSR basepri, r3
 496              	@ 0 "" 2
 497              	.LVL43:
 498              		.thumb
 499              		.syntax unified
 500 0066 DAE7     		b	.L31
 501              	.LVL44:
 502              	.L38:
 503              	.LBE143:
 504              	.LBE144:
 505              	.LBE145:
 506              	.LBE156:
 507              	.LBB157:
 508              	.LBB158:
 509              	.LBB159:
 510              	.LBB160:
 511              	.LBB161:
 512              		.syntax unified
 513              	@ 546 "../../../os/ext/CMSIS/include/core_cmFunc.h" 1
ARM GAS  /var/folders/qd/4mxf5pkd0zdf0b9dd1hp39180000gn/T//cc0AuJk0.s 			page 10


 514 0068 87F31188 		MSR basepri, r7
 515              	@ 0 "" 2
 516              	.LVL45:
 517              		.thumb
 518              		.syntax unified
 519              	.L25:
 520              	.LBE161:
 521              	.LBE160:
 522              	.LBE159:
 523              	.LBE158:
 524              	.LBE157:
 525              		.loc 1 257 0
 526 006c 3046     		mov	r0, r6
 527 006e 03B0     		add	sp, sp, #12
 528              		.cfi_def_cfa_offset 36
 529              		@ sp needed
 530 0070 BDE8F08F 		pop	{r4, r5, r6, r7, r8, r9, r10, fp, pc}
 531              		.cfi_endproc
 532              	.LFE233:
 533              		.size	chIQReadTimeout, .-chIQReadTimeout
 534              		.section	.text.chOQObjectInit,"ax",%progbits
 535              		.align	1
 536              		.p2align 4,,15
 537              		.global	chOQObjectInit
 538              		.syntax unified
 539              		.thumb
 540              		.thumb_func
 541              		.fpu softvfp
 542              		.type	chOQObjectInit, %function
 543              	chOQObjectInit:
 544              	.LFB234:
 545              		.loc 1 276 0
 546              		.cfi_startproc
 547              		@ args = 4, pretend = 0, frame = 0
 548              		@ frame_needed = 0, uses_anonymous_args = 0
 549              		@ link register save eliminated.
 550              	.LVL46:
 551 0000 30B4     		push	{r4, r5}
 552              		.cfi_def_cfa_offset 8
 553              		.cfi_offset 4, -8
 554              		.cfi_offset 5, -4
 555              		.loc 1 276 0
 556 0002 029C     		ldr	r4, [sp, #8]
 557              		.loc 1 279 0
 558 0004 8260     		str	r2, [r0, #8]
 559              		.loc 1 283 0
 560 0006 8D18     		adds	r5, r1, r2
 561              		.loc 1 280 0
 562 0008 C0E90315 		strd	r1, r5, [r0, #12]
 563              		.loc 1 285 0
 564 000c C0E90734 		strd	r3, r4, [r0, #28]
 565              	.LBB162:
 566              	.LBB163:
 567              	.LBB164:
 568              		.loc 2 605 0
 569 0010 C0E90000 		strd	r0, r0, [r0]
 570              	.LVL47:
ARM GAS  /var/folders/qd/4mxf5pkd0zdf0b9dd1hp39180000gn/T//cc0AuJk0.s 			page 11


 571              	.LBE164:
 572              	.LBE163:
 573              	.LBE162:
 574              		.loc 1 282 0
 575 0014 C0E90511 		strd	r1, r1, [r0, #20]
 576              		.loc 1 286 0
 577 0018 30BC     		pop	{r4, r5}
 578              		.cfi_restore 5
 579              		.cfi_restore 4
 580              		.cfi_def_cfa_offset 0
 581              	.LVL48:
 582 001a 7047     		bx	lr
 583              		.cfi_endproc
 584              	.LFE234:
 585              		.size	chOQObjectInit, .-chOQObjectInit
 586              		.section	.text.chOQResetI,"ax",%progbits
 587              		.align	1
 588              		.p2align 4,,15
 589              		.global	chOQResetI
 590              		.syntax unified
 591              		.thumb
 592              		.thumb_func
 593              		.fpu softvfp
 594              		.type	chOQResetI, %function
 595              	chOQResetI:
 596              	.LFB235:
 597              		.loc 1 299 0
 598              		.cfi_startproc
 599              		@ args = 0, pretend = 0, frame = 0
 600              		@ frame_needed = 0, uses_anonymous_args = 0
 601              		@ link register save eliminated.
 602              	.LVL49:
 603 0000 10B4     		push	{r4}
 604              		.cfi_def_cfa_offset 4
 605              		.cfi_offset 4, -4
 606              		.loc 1 305 0
 607 0002 D0E90342 		ldrd	r4, r2, [r0, #12]
 608 0006 121B     		subs	r2, r2, r4
 609              		.loc 1 303 0
 610 0008 8461     		str	r4, [r0, #24]
 611              		.loc 1 304 0
 612 000a 4461     		str	r4, [r0, #20]
 613              		.loc 1 306 0
 614 000c 6FF00101 		mvn	r1, #1
 615              		.loc 1 305 0
 616 0010 8260     		str	r2, [r0, #8]
 617              		.loc 1 307 0
 618 0012 10BC     		pop	{r4}
 619              		.cfi_restore 4
 620              		.cfi_def_cfa_offset 0
 621              		.loc 1 306 0
 622 0014 FFF7FEBF 		b	chThdDequeueAllI
 623              	.LVL50:
 624              		.cfi_endproc
 625              	.LFE235:
 626              		.size	chOQResetI, .-chOQResetI
 627              		.section	.text.chOQPutTimeout,"ax",%progbits
ARM GAS  /var/folders/qd/4mxf5pkd0zdf0b9dd1hp39180000gn/T//cc0AuJk0.s 			page 12


 628              		.align	1
 629              		.p2align 4,,15
 630              		.global	chOQPutTimeout
 631              		.syntax unified
 632              		.thumb
 633              		.thumb_func
 634              		.fpu softvfp
 635              		.type	chOQPutTimeout, %function
 636              	chOQPutTimeout:
 637              	.LFB236:
 638              		.loc 1 331 0
 639              		.cfi_startproc
 640              		@ args = 0, pretend = 0, frame = 0
 641              		@ frame_needed = 0, uses_anonymous_args = 0
 642              	.LVL51:
 643 0000 F8B5     		push	{r3, r4, r5, r6, r7, lr}
 644              		.cfi_def_cfa_offset 24
 645              		.cfi_offset 3, -24
 646              		.cfi_offset 4, -20
 647              		.cfi_offset 5, -16
 648              		.cfi_offset 6, -12
 649              		.cfi_offset 7, -8
 650              		.cfi_offset 14, -4
 651              		.loc 1 331 0
 652 0002 0446     		mov	r4, r0
 653 0004 0F46     		mov	r7, r1
 654 0006 1646     		mov	r6, r2
 655              	.LBB165:
 656              	.LBB166:
 657              	.LBB167:
 658              	.LBB168:
 659              		.loc 4 546 0
 660 0008 2023     		movs	r3, #32
 661              		.syntax unified
 662              	@ 546 "../../../os/ext/CMSIS/include/core_cmFunc.h" 1
 663 000a 83F31188 		MSR basepri, r3
 664              	@ 0 "" 2
 665              	.LVL52:
 666              		.thumb
 667              		.syntax unified
 668 000e 03E0     		b	.L44
 669              	.LVL53:
 670              	.L46:
 671              	.LBE168:
 672              	.LBE167:
 673              	.LBE166:
 674              	.LBE165:
 675              	.LBB169:
 676              		.loc 1 335 0
 677 0010 FFF7FEFF 		bl	chThdEnqueueTimeoutS
 678              	.LVL54:
 679              		.loc 1 336 0
 680 0014 0028     		cmp	r0, #0
 681 0016 17DB     		blt	.L54
 682              	.LVL55:
 683              	.L44:
 684 0018 A568     		ldr	r5, [r4, #8]
ARM GAS  /var/folders/qd/4mxf5pkd0zdf0b9dd1hp39180000gn/T//cc0AuJk0.s 			page 13


 685              	.LVL56:
 686              		.loc 1 335 0
 687 001a 3146     		mov	r1, r6
 688 001c 2046     		mov	r0, r4
 689              	.LBE169:
 690              		.loc 1 334 0
 691 001e 002D     		cmp	r5, #0
 692 0020 F6D0     		beq	.L46
 693              	.LVL57:
 694              		.loc 1 343 0
 695 0022 6369     		ldr	r3, [r4, #20]
 696              		.loc 1 342 0
 697 0024 013D     		subs	r5, r5, #1
 698              		.loc 1 343 0
 699 0026 5A1C     		adds	r2, r3, #1
 700 0028 6261     		str	r2, [r4, #20]
 701              		.loc 1 342 0
 702 002a A560     		str	r5, [r4, #8]
 703              		.loc 1 343 0
 704 002c 1F70     		strb	r7, [r3]
 705              		.loc 1 344 0
 706 002e D4E90432 		ldrd	r3, r2, [r4, #16]
 707 0032 9A42     		cmp	r2, r3
 708              		.loc 1 345 0
 709 0034 24BF     		itt	cs
 710 0036 E368     		ldrcs	r3, [r4, #12]
 711 0038 6361     		strcs	r3, [r4, #20]
 712              		.loc 1 348 0
 713 003a E369     		ldr	r3, [r4, #28]
 714 003c 03B1     		cbz	r3, .L48
 715              		.loc 1 349 0
 716 003e 9847     		blx	r3
 717              	.LVL58:
 718              	.L48:
 719              	.LBB175:
 720              	.LBB176:
 721              	.LBB177:
 722              	.LBB178:
 723              	.LBB179:
 724              		.loc 4 546 0
 725 0040 0020     		movs	r0, #0
 726              		.syntax unified
 727              	@ 546 "../../../os/ext/CMSIS/include/core_cmFunc.h" 1
 728 0042 80F31188 		MSR basepri, r0
 729              	@ 0 "" 2
 730              	.LVL59:
 731              		.thumb
 732              		.syntax unified
 733              	.LBE179:
 734              	.LBE178:
 735              	.LBE177:
 736              	.LBE176:
 737              	.LBE175:
 738              		.loc 1 354 0
 739 0046 F8BD     		pop	{r3, r4, r5, r6, r7, pc}
 740              	.LVL60:
 741              	.L54:
ARM GAS  /var/folders/qd/4mxf5pkd0zdf0b9dd1hp39180000gn/T//cc0AuJk0.s 			page 14


 742              	.LBB180:
 743              	.LBB170:
 744              	.LBB171:
 745              	.LBB172:
 746              	.LBB173:
 747              	.LBB174:
 748              		.loc 4 546 0
 749              		.syntax unified
 750              	@ 546 "../../../os/ext/CMSIS/include/core_cmFunc.h" 1
 751 0048 85F31188 		MSR basepri, r5
 752              	@ 0 "" 2
 753              	.LVL61:
 754              		.thumb
 755              		.syntax unified
 756              	.LBE174:
 757              	.LBE173:
 758              	.LBE172:
 759              	.LBE171:
 760              	.LBE170:
 761              	.LBE180:
 762              		.loc 1 354 0
 763 004c F8BD     		pop	{r3, r4, r5, r6, r7, pc}
 764              		.cfi_endproc
 765              	.LFE236:
 766              		.size	chOQPutTimeout, .-chOQPutTimeout
 767 004e 00BF     		.section	.text.chOQGetI,"ax",%progbits
 768              		.align	1
 769              		.p2align 4,,15
 770              		.global	chOQGetI
 771              		.syntax unified
 772              		.thumb
 773              		.thumb_func
 774              		.fpu softvfp
 775              		.type	chOQGetI, %function
 776              	chOQGetI:
 777              	.LFB237:
 778              		.loc 1 366 0
 779              		.cfi_startproc
 780              		@ args = 0, pretend = 0, frame = 0
 781              		@ frame_needed = 0, uses_anonymous_args = 0
 782              	.LVL62:
 783              	.LBB181:
 784              	.LBB182:
 785              		.loc 3 390 0
 786 0000 D0E90512 		ldrd	r1, r2, [r0, #20]
 787 0004 9142     		cmp	r1, r2
 788              	.LBE182:
 789              	.LBE181:
 790              		.loc 1 366 0
 791 0006 38B5     		push	{r3, r4, r5, lr}
 792              		.cfi_def_cfa_offset 16
 793              		.cfi_offset 3, -16
 794              		.cfi_offset 4, -12
 795              		.cfi_offset 5, -8
 796              		.cfi_offset 14, -4
 797 0008 8368     		ldr	r3, [r0, #8]
 798              	.LBB185:
ARM GAS  /var/folders/qd/4mxf5pkd0zdf0b9dd1hp39180000gn/T//cc0AuJk0.s 			page 15


 799              	.LBB183:
 800              		.loc 3 390 0
 801 000a 0ED0     		beq	.L62
 802              	.L56:
 803              	.LVL63:
 804              	.LBE183:
 805              	.LBE185:
 806              		.loc 1 377 0
 807 000c 0569     		ldr	r5, [r0, #16]
 808              		.loc 1 376 0
 809 000e 511C     		adds	r1, r2, #1
 810              		.loc 1 375 0
 811 0010 0133     		adds	r3, r3, #1
 812 0012 8360     		str	r3, [r0, #8]
 813              		.loc 1 376 0
 814 0014 8161     		str	r1, [r0, #24]
 815              		.loc 1 377 0
 816 0016 A942     		cmp	r1, r5
 817              		.loc 1 376 0
 818 0018 1478     		ldrb	r4, [r2]	@ zero_extendqisi2
 819              	.LVL64:
 820              		.loc 1 377 0
 821 001a 01D3     		bcc	.L59
 822              		.loc 1 378 0
 823 001c C368     		ldr	r3, [r0, #12]
 824 001e 8361     		str	r3, [r0, #24]
 825              	.L59:
 826              		.loc 1 381 0
 827 0020 0021     		movs	r1, #0
 828 0022 FFF7FEFF 		bl	chThdDequeueNextI
 829              	.LVL65:
 830              		.loc 1 383 0
 831 0026 2046     		mov	r0, r4
 832              		.loc 1 384 0
 833 0028 38BD     		pop	{r3, r4, r5, pc}
 834              	.LVL66:
 835              	.L62:
 836              	.LBB186:
 837              	.LBB184:
 838              		.loc 3 390 0
 839 002a 002B     		cmp	r3, #0
 840 002c EED0     		beq	.L56
 841              	.LBE184:
 842              	.LBE186:
 843              		.loc 1 372 0
 844 002e 6FF00200 		mvn	r0, #2
 845              	.LVL67:
 846              		.loc 1 384 0
 847 0032 38BD     		pop	{r3, r4, r5, pc}
 848              		.cfi_endproc
 849              	.LFE237:
 850              		.size	chOQGetI, .-chOQGetI
 851              		.section	.text.chOQWriteTimeout,"ax",%progbits
 852              		.align	1
 853              		.p2align 4,,15
 854              		.global	chOQWriteTimeout
 855              		.syntax unified
ARM GAS  /var/folders/qd/4mxf5pkd0zdf0b9dd1hp39180000gn/T//cc0AuJk0.s 			page 16


 856              		.thumb
 857              		.thumb_func
 858              		.fpu softvfp
 859              		.type	chOQWriteTimeout, %function
 860              	chOQWriteTimeout:
 861              	.LFB238:
 862              		.loc 1 411 0
 863              		.cfi_startproc
 864              		@ args = 0, pretend = 0, frame = 8
 865              		@ frame_needed = 0, uses_anonymous_args = 0
 866              	.LVL68:
 867 0000 2DE9F04F 		push	{r4, r5, r6, r7, r8, r9, r10, fp, lr}
 868              		.cfi_def_cfa_offset 36
 869              		.cfi_offset 4, -36
 870              		.cfi_offset 5, -32
 871              		.cfi_offset 6, -28
 872              		.cfi_offset 7, -24
 873              		.cfi_offset 8, -20
 874              		.cfi_offset 9, -16
 875              		.cfi_offset 10, -12
 876              		.cfi_offset 11, -8
 877              		.cfi_offset 14, -4
 878 0004 83B0     		sub	sp, sp, #12
 879              		.cfi_def_cfa_offset 48
 880              		.loc 1 411 0
 881 0006 0446     		mov	r4, r0
 882 0008 0D46     		mov	r5, r1
 883 000a 1646     		mov	r6, r2
 884 000c 0193     		str	r3, [sp, #4]
 885              		.loc 1 412 0
 886 000e D0F81C80 		ldr	r8, [r0, #28]
 887              	.LVL69:
 888              	.LBB187:
 889              	.LBB188:
 890              	.LBB189:
 891              	.LBB190:
 892              		.loc 4 546 0
 893 0012 4FF02009 		mov	r9, #32
 894              		.syntax unified
 895              	@ 546 "../../../os/ext/CMSIS/include/core_cmFunc.h" 1
 896 0016 89F31188 		MSR basepri, r9
 897              	@ 0 "" 2
 898              	.LVL70:
 899              		.thumb
 900              		.syntax unified
 901              	.LBE190:
 902              	.LBE189:
 903              	.LBE188:
 904              	.LBE187:
 905              		.loc 1 413 0
 906 001a 0027     		movs	r7, #0
 907              	.LBB191:
 908              	.LBB192:
 909              	.LBB193:
 910              	.LBB194:
 911              	.LBB195:
 912              		.loc 4 546 0
ARM GAS  /var/folders/qd/4mxf5pkd0zdf0b9dd1hp39180000gn/T//cc0AuJk0.s 			page 17


 913 001c BA46     		mov	r10, r7
 914              	.LVL71:
 915              	.L64:
 916 001e A368     		ldr	r3, [r4, #8]
 917              	.LVL72:
 918              	.LBE195:
 919              	.LBE194:
 920              	.LBE193:
 921              	.LBE192:
 922              	.LBE191:
 923              		.loc 1 427 0
 924 0020 05F1010B 		add	fp, r5, #1
 925              	.LVL73:
 926              		.loc 1 426 0
 927 0024 591E     		subs	r1, r3, #1
 928              		.loc 1 433 0
 929 0026 2046     		mov	r0, r4
 930              		.loc 1 419 0
 931 0028 FBB1     		cbz	r3, .L67
 932              	.LVL74:
 933              	.L80:
 934              		.loc 1 427 0
 935 002a 6369     		ldr	r3, [r4, #20]
 936              		.loc 1 426 0
 937 002c A160     		str	r1, [r4, #8]
 938              		.loc 1 427 0
 939 002e 591C     		adds	r1, r3, #1
 940 0030 6161     		str	r1, [r4, #20]
 941 0032 2978     		ldrb	r1, [r5]	@ zero_extendqisi2
 942 0034 1970     		strb	r1, [r3]
 943              		.loc 1 428 0
 944 0036 D4E90431 		ldrd	r3, r1, [r4, #16]
 945 003a 9942     		cmp	r1, r3
 946              		.loc 1 429 0
 947 003c 24BF     		itt	cs
 948 003e E368     		ldrcs	r3, [r4, #12]
 949 0040 6361     		strcs	r3, [r4, #20]
 950              		.loc 1 432 0
 951 0042 B8F1000F 		cmp	r8, #0
 952 0046 00D0     		beq	.L69
 953              		.loc 1 433 0
 954 0048 C047     		blx	r8
 955              	.LVL75:
 956              	.L69:
 957              	.LBB200:
 958              	.LBB199:
 959              	.LBB198:
 960              	.LBB197:
 961              	.LBB196:
 962              		.loc 4 546 0
 963              		.syntax unified
 964              	@ 546 "../../../os/ext/CMSIS/include/core_cmFunc.h" 1
 965 004a 8AF31188 		MSR basepri, r10
 966              	@ 0 "" 2
 967              	.LVL76:
 968              		.thumb
 969              		.syntax unified
ARM GAS  /var/folders/qd/4mxf5pkd0zdf0b9dd1hp39180000gn/T//cc0AuJk0.s 			page 18


 970              	.LBE196:
 971              	.LBE197:
 972              	.LBE198:
 973              	.LBE199:
 974              	.LBE200:
 975              		.loc 1 438 0
 976 004e 013E     		subs	r6, r6, #1
 977              	.LVL77:
 978              		.loc 1 437 0
 979 0050 07F10107 		add	r7, r7, #1
 980              	.LVL78:
 981              		.loc 1 438 0
 982 0054 13D0     		beq	.L63
 983              	.LBB201:
 984              	.LBB202:
 985              	.LBB203:
 986              	.LBB204:
 987              		.loc 4 546 0
 988              		.syntax unified
 989              	@ 546 "../../../os/ext/CMSIS/include/core_cmFunc.h" 1
 990 0056 89F31188 		MSR basepri, r9
 991              	@ 0 "" 2
 992              	.LVL79:
 993              		.thumb
 994              		.syntax unified
 995 005a A368     		ldr	r3, [r4, #8]
 996              	.LBE204:
 997              	.LBE203:
 998              	.LBE202:
 999              	.LBE201:
 1000              		.loc 1 427 0
 1001 005c 5D46     		mov	r5, fp
 1002              	.LVL80:
 1003              		.loc 1 426 0
 1004 005e 591E     		subs	r1, r3, #1
 1005              		.loc 1 427 0
 1006 0060 05F1010B 		add	fp, r5, #1
 1007              	.LVL81:
 1008              		.loc 1 433 0
 1009 0064 2046     		mov	r0, r4
 1010              		.loc 1 419 0
 1011 0066 002B     		cmp	r3, #0
 1012 0068 DFD1     		bne	.L80
 1013              	.LVL82:
 1014              	.L67:
 1015              		.loc 1 420 0
 1016 006a 0199     		ldr	r1, [sp, #4]
 1017 006c 0093     		str	r3, [sp]
 1018 006e 2046     		mov	r0, r4
 1019              	.LVL83:
 1020 0070 FFF7FEFF 		bl	chThdEnqueueTimeoutS
 1021              	.LVL84:
 1022 0074 009B     		ldr	r3, [sp]
 1023 0076 0028     		cmp	r0, #0
 1024 0078 D1D0     		beq	.L64
 1025              	.LVL85:
 1026              	.LBB205:
ARM GAS  /var/folders/qd/4mxf5pkd0zdf0b9dd1hp39180000gn/T//cc0AuJk0.s 			page 19


 1027              	.LBB206:
 1028              	.LBB207:
 1029              	.LBB208:
 1030              	.LBB209:
 1031              		.loc 4 546 0
 1032              		.syntax unified
 1033              	@ 546 "../../../os/ext/CMSIS/include/core_cmFunc.h" 1
 1034 007a 83F31188 		MSR basepri, r3
 1035              	@ 0 "" 2
 1036              	.LVL86:
 1037              		.thumb
 1038              		.syntax unified
 1039              	.L63:
 1040              	.LBE209:
 1041              	.LBE208:
 1042              	.LBE207:
 1043              	.LBE206:
 1044              	.LBE205:
 1045              		.loc 1 443 0
 1046 007e 3846     		mov	r0, r7
 1047 0080 03B0     		add	sp, sp, #12
 1048              		.cfi_def_cfa_offset 36
 1049              		@ sp needed
 1050 0082 BDE8F08F 		pop	{r4, r5, r6, r7, r8, r9, r10, fp, pc}
 1051              		.cfi_endproc
 1052              	.LFE238:
 1053              		.size	chOQWriteTimeout, .-chOQWriteTimeout
 1054              		.text
 1055              	.Letext0:
 1056              		.file 5 "/Applications/Eclipse_e-puck2.app/Contents/Eclipse_e-puck2/Tools/gcc-arm-none-eabi-7-2017
 1057              		.file 6 "/Applications/Eclipse_e-puck2.app/Contents/Eclipse_e-puck2/Tools/gcc-arm-none-eabi-7-2017
 1058              		.file 7 "/Applications/Eclipse_e-puck2.app/Contents/Eclipse_e-puck2/Tools/gcc-arm-none-eabi-7-2017
 1059              		.file 8 "../../../os/rt/ports/ARMCMx/compilers/GCC/chtypes.h"
 1060              		.file 9 "../../../os/rt/include/chsystypes.h"
 1061              		.file 10 "../../../os/ext/CMSIS/include/core_cm4.h"
 1062              		.file 11 "../../../os/ext/CMSIS/ST/system_stm32f4xx.h"
 1063              		.file 12 "../../../os/rt/ports/ARMCMx/chcore.h"
 1064              		.file 13 "../../../os/rt/ports/ARMCMx/chcore_v7m.h"
 1065              		.file 14 "../../../os/rt/include/chtm.h"
 1066              		.file 15 "../../../os/rt/include/chsem.h"
 1067              		.file 16 "../../../os/rt/include/chmtx.h"
 1068              		.file 17 "../../../os/rt/include/chregistry.h"
 1069              		.file 18 "../../../os/rt/include/chsys.h"
 1070              		.file 19 "../../../os/rt/include/chthreads.h"
 1071              		.section	.debug_info,"",%progbits
 1072              	.Ldebug_info0:
 1073 0000 F5110000 		.4byte	0x11f5
 1074 0004 0400     		.2byte	0x4
 1075 0006 00000000 		.4byte	.Ldebug_abbrev0
 1076 000a 04       		.byte	0x4
 1077 000b 01       		.uleb128 0x1
 1078 000c B8030000 		.4byte	.LASF171
 1079 0010 0C       		.byte	0xc
 1080 0011 B5000000 		.4byte	.LASF172
 1081 0015 0E050000 		.4byte	.LASF173
 1082 0019 C8000000 		.4byte	.Ldebug_ranges0+0xc8
 1083 001d 00000000 		.4byte	0
ARM GAS  /var/folders/qd/4mxf5pkd0zdf0b9dd1hp39180000gn/T//cc0AuJk0.s 			page 20


 1084 0021 00000000 		.4byte	.Ldebug_line0
 1085 0025 02       		.uleb128 0x2
 1086 0026 04       		.byte	0x4
 1087 0027 05       		.byte	0x5
 1088 0028 696E7400 		.ascii	"int\000"
 1089 002c 03       		.uleb128 0x3
 1090 002d 2E000000 		.4byte	.LASF4
 1091 0031 05       		.byte	0x5
 1092 0032 D8       		.byte	0xd8
 1093 0033 37000000 		.4byte	0x37
 1094 0037 04       		.uleb128 0x4
 1095 0038 04       		.byte	0x4
 1096 0039 07       		.byte	0x7
 1097 003a 8D020000 		.4byte	.LASF0
 1098 003e 04       		.uleb128 0x4
 1099 003f 08       		.byte	0x8
 1100 0040 05       		.byte	0x5
 1101 0041 69010000 		.4byte	.LASF1
 1102 0045 04       		.uleb128 0x4
 1103 0046 08       		.byte	0x8
 1104 0047 04       		.byte	0x4
 1105 0048 B3040000 		.4byte	.LASF2
 1106 004c 04       		.uleb128 0x4
 1107 004d 01       		.byte	0x1
 1108 004e 06       		.byte	0x6
 1109 004f 77010000 		.4byte	.LASF3
 1110 0053 03       		.uleb128 0x3
 1111 0054 56000000 		.4byte	.LASF5
 1112 0058 06       		.byte	0x6
 1113 0059 2B       		.byte	0x2b
 1114 005a 5E000000 		.4byte	0x5e
 1115 005e 04       		.uleb128 0x4
 1116 005f 01       		.byte	0x1
 1117 0060 08       		.byte	0x8
 1118 0061 1C060000 		.4byte	.LASF6
 1119 0065 04       		.uleb128 0x4
 1120 0066 02       		.byte	0x2
 1121 0067 05       		.byte	0x5
 1122 0068 4A060000 		.4byte	.LASF7
 1123 006c 03       		.uleb128 0x3
 1124 006d 46070000 		.4byte	.LASF8
 1125 0071 06       		.byte	0x6
 1126 0072 39       		.byte	0x39
 1127 0073 77000000 		.4byte	0x77
 1128 0077 04       		.uleb128 0x4
 1129 0078 02       		.byte	0x2
 1130 0079 07       		.byte	0x7
 1131 007a EF020000 		.4byte	.LASF9
 1132 007e 03       		.uleb128 0x3
 1133 007f 44030000 		.4byte	.LASF10
 1134 0083 06       		.byte	0x6
 1135 0084 4D       		.byte	0x4d
 1136 0085 89000000 		.4byte	0x89
 1137 0089 04       		.uleb128 0x4
 1138 008a 04       		.byte	0x4
 1139 008b 05       		.byte	0x5
 1140 008c E2010000 		.4byte	.LASF11
ARM GAS  /var/folders/qd/4mxf5pkd0zdf0b9dd1hp39180000gn/T//cc0AuJk0.s 			page 21


 1141 0090 03       		.uleb128 0x3
 1142 0091 7F070000 		.4byte	.LASF12
 1143 0095 06       		.byte	0x6
 1144 0096 4F       		.byte	0x4f
 1145 0097 9B000000 		.4byte	0x9b
 1146 009b 04       		.uleb128 0x4
 1147 009c 04       		.byte	0x4
 1148 009d 07       		.byte	0x7
 1149 009e 28070000 		.4byte	.LASF13
 1150 00a2 03       		.uleb128 0x3
 1151 00a3 A3050000 		.4byte	.LASF14
 1152 00a7 06       		.byte	0x6
 1153 00a8 69       		.byte	0x69
 1154 00a9 AD000000 		.4byte	0xad
 1155 00ad 04       		.uleb128 0x4
 1156 00ae 08       		.byte	0x8
 1157 00af 07       		.byte	0x7
 1158 00b0 D3000000 		.4byte	.LASF15
 1159 00b4 03       		.uleb128 0x3
 1160 00b5 0F080000 		.4byte	.LASF16
 1161 00b9 07       		.byte	0x7
 1162 00ba 18       		.byte	0x18
 1163 00bb 53000000 		.4byte	0x53
 1164 00bf 05       		.uleb128 0x5
 1165 00c0 B4000000 		.4byte	0xb4
 1166 00c4 03       		.uleb128 0x3
 1167 00c5 A2020000 		.4byte	.LASF17
 1168 00c9 07       		.byte	0x7
 1169 00ca 24       		.byte	0x24
 1170 00cb 6C000000 		.4byte	0x6c
 1171 00cf 03       		.uleb128 0x3
 1172 00d0 14060000 		.4byte	.LASF18
 1173 00d4 07       		.byte	0x7
 1174 00d5 2C       		.byte	0x2c
 1175 00d6 7E000000 		.4byte	0x7e
 1176 00da 06       		.uleb128 0x6
 1177 00db CF000000 		.4byte	0xcf
 1178 00df 03       		.uleb128 0x3
 1179 00e0 EA060000 		.4byte	.LASF19
 1180 00e4 07       		.byte	0x7
 1181 00e5 30       		.byte	0x30
 1182 00e6 90000000 		.4byte	0x90
 1183 00ea 03       		.uleb128 0x3
 1184 00eb 3C000000 		.4byte	.LASF20
 1185 00ef 07       		.byte	0x7
 1186 00f0 3C       		.byte	0x3c
 1187 00f1 A2000000 		.4byte	0xa2
 1188 00f5 03       		.uleb128 0x3
 1189 00f6 9D030000 		.4byte	.LASF21
 1190 00fa 08       		.byte	0x8
 1191 00fb 45       		.byte	0x45
 1192 00fc DF000000 		.4byte	0xdf
 1193 0100 03       		.uleb128 0x3
 1194 0101 52080000 		.4byte	.LASF22
 1195 0105 08       		.byte	0x8
 1196 0106 48       		.byte	0x48
 1197 0107 B4000000 		.4byte	0xb4
ARM GAS  /var/folders/qd/4mxf5pkd0zdf0b9dd1hp39180000gn/T//cc0AuJk0.s 			page 22


 1198 010b 03       		.uleb128 0x3
 1199 010c EB010000 		.4byte	.LASF23
 1200 0110 08       		.byte	0x8
 1201 0111 49       		.byte	0x49
 1202 0112 B4000000 		.4byte	0xb4
 1203 0116 03       		.uleb128 0x3
 1204 0117 AE050000 		.4byte	.LASF24
 1205 011b 08       		.byte	0x8
 1206 011c 4A       		.byte	0x4a
 1207 011d B4000000 		.4byte	0xb4
 1208 0121 03       		.uleb128 0x3
 1209 0122 EE050000 		.4byte	.LASF25
 1210 0126 08       		.byte	0x8
 1211 0127 4C       		.byte	0x4c
 1212 0128 DF000000 		.4byte	0xdf
 1213 012c 03       		.uleb128 0x3
 1214 012d 0C030000 		.4byte	.LASF26
 1215 0131 08       		.byte	0x8
 1216 0132 4D       		.byte	0x4d
 1217 0133 CF000000 		.4byte	0xcf
 1218 0137 03       		.uleb128 0x3
 1219 0138 38030000 		.4byte	.LASF27
 1220 013c 08       		.byte	0x8
 1221 013d 4F       		.byte	0x4f
 1222 013e DF000000 		.4byte	0xdf
 1223 0142 03       		.uleb128 0x3
 1224 0143 87020000 		.4byte	.LASF28
 1225 0147 08       		.byte	0x8
 1226 0148 51       		.byte	0x51
 1227 0149 CF000000 		.4byte	0xcf
 1228 014d 03       		.uleb128 0x3
 1229 014e 61070000 		.4byte	.LASF29
 1230 0152 09       		.byte	0x9
 1231 0153 33       		.byte	0x33
 1232 0154 DF000000 		.4byte	0xdf
 1233 0158 03       		.uleb128 0x3
 1234 0159 51070000 		.4byte	.LASF30
 1235 015d 09       		.byte	0x9
 1236 015e 3F       		.byte	0x3f
 1237 015f 63010000 		.4byte	0x163
 1238 0163 07       		.uleb128 0x7
 1239 0164 02030000 		.4byte	.LASF50
 1240 0168 44       		.byte	0x44
 1241 0169 02       		.byte	0x2
 1242 016a C2       		.byte	0xc2
 1243 016b 50020000 		.4byte	0x250
 1244 016f 08       		.uleb128 0x8
 1245 0170 62060000 		.4byte	.LASF31
 1246 0174 02       		.byte	0x2
 1247 0175 C3       		.byte	0xc3
 1248 0176 5B020000 		.4byte	0x25b
 1249 017a 00       		.byte	0
 1250 017b 08       		.uleb128 0x8
 1251 017c DB050000 		.4byte	.LASF32
 1252 0180 02       		.byte	0x2
 1253 0181 C5       		.byte	0xc5
 1254 0182 5B020000 		.4byte	0x25b
ARM GAS  /var/folders/qd/4mxf5pkd0zdf0b9dd1hp39180000gn/T//cc0AuJk0.s 			page 23


 1255 0186 04       		.byte	0x4
 1256 0187 08       		.uleb128 0x8
 1257 0188 4B010000 		.4byte	.LASF33
 1258 018c 02       		.byte	0x2
 1259 018d C7       		.byte	0xc7
 1260 018e 21010000 		.4byte	0x121
 1261 0192 08       		.byte	0x8
 1262 0193 08       		.uleb128 0x8
 1263 0194 E5040000 		.4byte	.LASF34
 1264 0198 02       		.byte	0x2
 1265 0199 C8       		.byte	0xc8
 1266 019a 9B040000 		.4byte	0x49b
 1267 019e 0C       		.byte	0xc
 1268 019f 08       		.uleb128 0x8
 1269 01a0 2A020000 		.4byte	.LASF35
 1270 01a4 02       		.byte	0x2
 1271 01a5 CA       		.byte	0xca
 1272 01a6 5B020000 		.4byte	0x25b
 1273 01aa 10       		.byte	0x10
 1274 01ab 08       		.uleb128 0x8
 1275 01ac D7040000 		.4byte	.LASF36
 1276 01b0 02       		.byte	0x2
 1277 01b1 CB       		.byte	0xcb
 1278 01b2 5B020000 		.4byte	0x25b
 1279 01b6 14       		.byte	0x14
 1280 01b7 08       		.uleb128 0x8
 1281 01b8 2A080000 		.4byte	.LASF37
 1282 01bc 02       		.byte	0x2
 1283 01bd D2       		.byte	0xd2
 1284 01be 1A060000 		.4byte	0x61a
 1285 01c2 18       		.byte	0x18
 1286 01c3 08       		.uleb128 0x8
 1287 01c4 38060000 		.4byte	.LASF38
 1288 01c8 02       		.byte	0x2
 1289 01c9 DD       		.byte	0xdd
 1290 01ca 0B010000 		.4byte	0x10b
 1291 01ce 1C       		.byte	0x1c
 1292 01cf 08       		.uleb128 0x8
 1293 01d0 7D060000 		.4byte	.LASF39
 1294 01d4 02       		.byte	0x2
 1295 01d5 E1       		.byte	0xe1
 1296 01d6 00010000 		.4byte	0x100
 1297 01da 1D       		.byte	0x1d
 1298 01db 08       		.uleb128 0x8
 1299 01dc EC070000 		.4byte	.LASF40
 1300 01e0 02       		.byte	0x2
 1301 01e1 E6       		.byte	0xe6
 1302 01e2 16010000 		.4byte	0x116
 1303 01e6 1E       		.byte	0x1e
 1304 01e7 09       		.uleb128 0x9
 1305 01e8 705F7500 		.ascii	"p_u\000"
 1306 01ec 02       		.byte	0x2
 1307 01ed 3101     		.2byte	0x131
 1308 01ef 55050000 		.4byte	0x555
 1309 01f3 20       		.byte	0x20
 1310 01f4 0A       		.uleb128 0xa
 1311 01f5 93030000 		.4byte	.LASF41
ARM GAS  /var/folders/qd/4mxf5pkd0zdf0b9dd1hp39180000gn/T//cc0AuJk0.s 			page 24


 1312 01f9 02       		.byte	0x2
 1313 01fa 3601     		.2byte	0x136
 1314 01fc 61020000 		.4byte	0x261
 1315 0200 24       		.byte	0x24
 1316 0201 0A       		.uleb128 0xa
 1317 0202 CD020000 		.4byte	.LASF42
 1318 0206 02       		.byte	0x2
 1319 0207 3C01     		.2byte	0x13c
 1320 0209 85020000 		.4byte	0x285
 1321 020d 28       		.byte	0x28
 1322 020e 0A       		.uleb128 0xa
 1323 020f BC070000 		.4byte	.LASF43
 1324 0213 02       		.byte	0x2
 1325 0214 4001     		.2byte	0x140
 1326 0216 2C010000 		.4byte	0x12c
 1327 021a 30       		.byte	0x30
 1328 021b 0A       		.uleb128 0xa
 1329 021c D3060000 		.4byte	.LASF44
 1330 0220 02       		.byte	0x2
 1331 0221 4601     		.2byte	0x146
 1332 0223 37010000 		.4byte	0x137
 1333 0227 34       		.byte	0x34
 1334 0228 0A       		.uleb128 0xa
 1335 0229 40060000 		.4byte	.LASF45
 1336 022d 02       		.byte	0x2
 1337 022e 4D01     		.2byte	0x14d
 1338 0230 14060000 		.4byte	0x614
 1339 0234 38       		.byte	0x38
 1340 0235 0A       		.uleb128 0xa
 1341 0236 6B070000 		.4byte	.LASF46
 1342 023a 02       		.byte	0x2
 1343 023b 5101     		.2byte	0x151
 1344 023d 21010000 		.4byte	0x121
 1345 0241 3C       		.byte	0x3c
 1346 0242 0A       		.uleb128 0xa
 1347 0243 A0010000 		.4byte	.LASF47
 1348 0247 02       		.byte	0x2
 1349 0248 5801     		.2byte	0x158
 1350 024a 38030000 		.4byte	0x338
 1351 024e 40       		.byte	0x40
 1352 024f 00       		.byte	0
 1353 0250 03       		.uleb128 0x3
 1354 0251 A5030000 		.4byte	.LASF48
 1355 0255 09       		.byte	0x9
 1356 0256 44       		.byte	0x44
 1357 0257 5B020000 		.4byte	0x25b
 1358 025b 0B       		.uleb128 0xb
 1359 025c 04       		.byte	0x4
 1360 025d 58010000 		.4byte	0x158
 1361 0261 03       		.uleb128 0x3
 1362 0262 43080000 		.4byte	.LASF49
 1363 0266 09       		.byte	0x9
 1364 0267 49       		.byte	0x49
 1365 0268 6C020000 		.4byte	0x26c
 1366 026c 07       		.uleb128 0x7
 1367 026d 10070000 		.4byte	.LASF51
 1368 0271 04       		.byte	0x4
ARM GAS  /var/folders/qd/4mxf5pkd0zdf0b9dd1hp39180000gn/T//cc0AuJk0.s 			page 25


 1369 0272 02       		.byte	0x2
 1370 0273 B0       		.byte	0xb0
 1371 0274 85020000 		.4byte	0x285
 1372 0278 08       		.uleb128 0x8
 1373 0279 62060000 		.4byte	.LASF31
 1374 027d 02       		.byte	0x2
 1375 027e B1       		.byte	0xb1
 1376 027f 5B020000 		.4byte	0x25b
 1377 0283 00       		.byte	0
 1378 0284 00       		.byte	0
 1379 0285 03       		.uleb128 0x3
 1380 0286 98060000 		.4byte	.LASF52
 1381 028a 09       		.byte	0x9
 1382 028b 50       		.byte	0x50
 1383 028c 90020000 		.4byte	0x290
 1384 0290 07       		.uleb128 0x7
 1385 0291 3A010000 		.4byte	.LASF53
 1386 0295 08       		.byte	0x8
 1387 0296 02       		.byte	0x2
 1388 0297 B7       		.byte	0xb7
 1389 0298 B5020000 		.4byte	0x2b5
 1390 029c 08       		.uleb128 0x8
 1391 029d 62060000 		.4byte	.LASF31
 1392 02a1 02       		.byte	0x2
 1393 02a2 B8       		.byte	0xb8
 1394 02a3 5B020000 		.4byte	0x25b
 1395 02a7 00       		.byte	0
 1396 02a8 08       		.uleb128 0x8
 1397 02a9 DB050000 		.4byte	.LASF32
 1398 02ad 02       		.byte	0x2
 1399 02ae B9       		.byte	0xb9
 1400 02af 5B020000 		.4byte	0x25b
 1401 02b3 04       		.byte	0x4
 1402 02b4 00       		.byte	0
 1403 02b5 03       		.uleb128 0x3
 1404 02b6 1C000000 		.4byte	.LASF54
 1405 02ba 09       		.byte	0x9
 1406 02bb 57       		.byte	0x57
 1407 02bc C0020000 		.4byte	0x2c0
 1408 02c0 0C       		.uleb128 0xc
 1409 02c1 2A030000 		.4byte	.LASF55
 1410 02c5 1C       		.byte	0x1c
 1411 02c6 02       		.byte	0x2
 1412 02c7 9001     		.2byte	0x190
 1413 02c9 1C030000 		.4byte	0x31c
 1414 02cd 0A       		.uleb128 0xa
 1415 02ce FF060000 		.4byte	.LASF56
 1416 02d2 02       		.byte	0x2
 1417 02d3 9101     		.2byte	0x191
 1418 02d5 85020000 		.4byte	0x285
 1419 02d9 00       		.byte	0
 1420 02da 0A       		.uleb128 0xa
 1421 02db 54060000 		.4byte	.LASF57
 1422 02df 02       		.byte	0x2
 1423 02e0 9201     		.2byte	0x192
 1424 02e2 21010000 		.4byte	0x121
 1425 02e6 08       		.byte	0x8
ARM GAS  /var/folders/qd/4mxf5pkd0zdf0b9dd1hp39180000gn/T//cc0AuJk0.s 			page 26


 1426 02e7 0A       		.uleb128 0xa
 1427 02e8 DF040000 		.4byte	.LASF58
 1428 02ec 02       		.byte	0x2
 1429 02ed 9401     		.2byte	0x194
 1430 02ef 9B040000 		.4byte	0x49b
 1431 02f3 0C       		.byte	0xc
 1432 02f4 0A       		.uleb128 0xa
 1433 02f5 3A020000 		.4byte	.LASF59
 1434 02f9 02       		.byte	0x2
 1435 02fa 9701     		.2byte	0x197
 1436 02fc 5B020000 		.4byte	0x25b
 1437 0300 10       		.byte	0x10
 1438 0301 0A       		.uleb128 0xa
 1439 0302 06050000 		.4byte	.LASF60
 1440 0306 02       		.byte	0x2
 1441 0307 9801     		.2byte	0x198
 1442 0309 5B020000 		.4byte	0x25b
 1443 030d 14       		.byte	0x14
 1444 030e 0A       		.uleb128 0xa
 1445 030f FC040000 		.4byte	.LASF61
 1446 0313 02       		.byte	0x2
 1447 0314 9B01     		.2byte	0x19b
 1448 0316 5B020000 		.4byte	0x25b
 1449 031a 18       		.byte	0x18
 1450 031b 00       		.byte	0
 1451 031c 03       		.uleb128 0x3
 1452 031d 76070000 		.4byte	.LASF62
 1453 0321 09       		.byte	0x9
 1454 0322 5C       		.byte	0x5c
 1455 0323 27030000 		.4byte	0x327
 1456 0327 0B       		.uleb128 0xb
 1457 0328 04       		.byte	0x4
 1458 0329 2D030000 		.4byte	0x32d
 1459 032d 0D       		.uleb128 0xd
 1460 032e 38030000 		.4byte	0x338
 1461 0332 0E       		.uleb128 0xe
 1462 0333 38030000 		.4byte	0x338
 1463 0337 00       		.byte	0
 1464 0338 0F       		.uleb128 0xf
 1465 0339 04       		.byte	0x4
 1466 033a 03       		.uleb128 0x3
 1467 033b CB050000 		.4byte	.LASF63
 1468 033f 09       		.byte	0x9
 1469 0340 61       		.byte	0x61
 1470 0341 45030000 		.4byte	0x345
 1471 0345 0C       		.uleb128 0xc
 1472 0346 A8060000 		.4byte	.LASF64
 1473 034a 14       		.byte	0x14
 1474 034b 02       		.byte	0x2
 1475 034c 6B01     		.2byte	0x16b
 1476 034e 94030000 		.4byte	0x394
 1477 0352 0A       		.uleb128 0xa
 1478 0353 9A020000 		.4byte	.LASF65
 1479 0357 02       		.byte	0x2
 1480 0358 6C01     		.2byte	0x16c
 1481 035a 31060000 		.4byte	0x631
 1482 035e 00       		.byte	0
ARM GAS  /var/folders/qd/4mxf5pkd0zdf0b9dd1hp39180000gn/T//cc0AuJk0.s 			page 27


 1483 035f 0A       		.uleb128 0xa
 1484 0360 4B020000 		.4byte	.LASF66
 1485 0364 02       		.byte	0x2
 1486 0365 6D01     		.2byte	0x16d
 1487 0367 31060000 		.4byte	0x631
 1488 036b 04       		.byte	0x4
 1489 036c 0A       		.uleb128 0xa
 1490 036d 07070000 		.4byte	.LASF67
 1491 0371 02       		.byte	0x2
 1492 0372 6E01     		.2byte	0x16e
 1493 0374 4D010000 		.4byte	0x14d
 1494 0378 08       		.byte	0x8
 1495 0379 0A       		.uleb128 0xa
 1496 037a 8E080000 		.4byte	.LASF68
 1497 037e 02       		.byte	0x2
 1498 037f 6F01     		.2byte	0x16f
 1499 0381 1C030000 		.4byte	0x31c
 1500 0385 0C       		.byte	0xc
 1501 0386 0A       		.uleb128 0xa
 1502 0387 C2070000 		.4byte	.LASF69
 1503 038b 02       		.byte	0x2
 1504 038c 7101     		.2byte	0x171
 1505 038e 38030000 		.4byte	0x338
 1506 0392 10       		.byte	0x10
 1507 0393 00       		.byte	0
 1508 0394 03       		.uleb128 0x3
 1509 0395 0C010000 		.4byte	.LASF70
 1510 0399 09       		.byte	0x9
 1511 039a 66       		.byte	0x66
 1512 039b 9F030000 		.4byte	0x39f
 1513 039f 0C       		.uleb128 0xc
 1514 03a0 92040000 		.4byte	.LASF71
 1515 03a4 10       		.byte	0x10
 1516 03a5 02       		.byte	0x2
 1517 03a6 7B01     		.2byte	0x17b
 1518 03a8 E1030000 		.4byte	0x3e1
 1519 03ac 0A       		.uleb128 0xa
 1520 03ad 9A020000 		.4byte	.LASF65
 1521 03b1 02       		.byte	0x2
 1522 03b2 7C01     		.2byte	0x17c
 1523 03b4 31060000 		.4byte	0x631
 1524 03b8 00       		.byte	0
 1525 03b9 0A       		.uleb128 0xa
 1526 03ba 4B020000 		.4byte	.LASF66
 1527 03be 02       		.byte	0x2
 1528 03bf 7E01     		.2byte	0x17e
 1529 03c1 31060000 		.4byte	0x631
 1530 03c5 04       		.byte	0x4
 1531 03c6 0A       		.uleb128 0xa
 1532 03c7 07070000 		.4byte	.LASF67
 1533 03cb 02       		.byte	0x2
 1534 03cc 8001     		.2byte	0x180
 1535 03ce 4D010000 		.4byte	0x14d
 1536 03d2 08       		.byte	0x8
 1537 03d3 0A       		.uleb128 0xa
 1538 03d4 17080000 		.4byte	.LASF72
 1539 03d8 02       		.byte	0x2
ARM GAS  /var/folders/qd/4mxf5pkd0zdf0b9dd1hp39180000gn/T//cc0AuJk0.s 			page 28


 1540 03d9 8801     		.2byte	0x188
 1541 03db 4D010000 		.4byte	0x14d
 1542 03df 0C       		.byte	0xc
 1543 03e0 00       		.byte	0
 1544 03e1 03       		.uleb128 0x3
 1545 03e2 6C000000 		.4byte	.LASF73
 1546 03e6 09       		.byte	0x9
 1547 03e7 6B       		.byte	0x6b
 1548 03e8 EC030000 		.4byte	0x3ec
 1549 03ec 0C       		.uleb128 0xc
 1550 03ed FE050000 		.4byte	.LASF74
 1551 03f1 04       		.byte	0x4
 1552 03f2 02       		.byte	0x2
 1553 03f3 A201     		.2byte	0x1a2
 1554 03f5 07040000 		.4byte	0x407
 1555 03f9 0A       		.uleb128 0xa
 1556 03fa 98070000 		.4byte	.LASF75
 1557 03fe 02       		.byte	0x2
 1558 03ff AA01     		.2byte	0x1aa
 1559 0401 20060000 		.4byte	0x620
 1560 0405 00       		.byte	0
 1561 0406 00       		.byte	0
 1562 0407 03       		.uleb128 0x3
 1563 0408 12030000 		.4byte	.LASF76
 1564 040c 09       		.byte	0x9
 1565 040d 70       		.byte	0x70
 1566 040e 12040000 		.4byte	0x412
 1567 0412 10       		.uleb128 0x10
 1568 0413 D8010000 		.4byte	.LASF77
 1569 0417 5001     		.2byte	0x150
 1570 0419 02       		.byte	0x2
 1571 041a C201     		.2byte	0x1c2
 1572 041c 6E040000 		.4byte	0x46e
 1573 0420 0A       		.uleb128 0xa
 1574 0421 09080000 		.4byte	.LASF78
 1575 0425 02       		.byte	0x2
 1576 0426 C601     		.2byte	0x1c6
 1577 0428 B5020000 		.4byte	0x2b5
 1578 042c 00       		.byte	0
 1579 042d 0A       		.uleb128 0xa
 1580 042e B0010000 		.4byte	.LASF79
 1581 0432 02       		.byte	0x2
 1582 0433 CA01     		.2byte	0x1ca
 1583 0435 94030000 		.4byte	0x394
 1584 0439 1C       		.byte	0x1c
 1585 043a 09       		.uleb128 0x9
 1586 043b 64626700 		.ascii	"dbg\000"
 1587 043f 02       		.byte	0x2
 1588 0440 CE01     		.2byte	0x1ce
 1589 0442 E1030000 		.4byte	0x3e1
 1590 0446 2C       		.byte	0x2c
 1591 0447 0A       		.uleb128 0xa
 1592 0448 01010000 		.4byte	.LASF80
 1593 044c 02       		.byte	0x2
 1594 044d D201     		.2byte	0x1d2
 1595 044f 58010000 		.4byte	0x158
 1596 0453 30       		.byte	0x30
ARM GAS  /var/folders/qd/4mxf5pkd0zdf0b9dd1hp39180000gn/T//cc0AuJk0.s 			page 29


 1597 0454 09       		.uleb128 0x9
 1598 0455 746D00   		.ascii	"tm\000"
 1599 0458 02       		.byte	0x2
 1600 0459 D701     		.2byte	0x1d7
 1601 045b 4A050000 		.4byte	0x54a
 1602 045f 74       		.byte	0x74
 1603 0460 0A       		.uleb128 0xa
 1604 0461 78020000 		.4byte	.LASF81
 1605 0465 02       		.byte	0x2
 1606 0466 E301     		.2byte	0x1e3
 1607 0468 37060000 		.4byte	0x637
 1608 046c 78       		.byte	0x78
 1609 046d 00       		.byte	0
 1610 046e 11       		.uleb128 0x11
 1611 046f 22010000 		.4byte	.LASF82
 1612 0473 0A       		.byte	0xa
 1613 0474 A706     		.2byte	0x6a7
 1614 0476 DA000000 		.4byte	0xda
 1615 047a 12       		.uleb128 0x12
 1616 047b AB020000 		.4byte	.LASF83
 1617 047f 0B       		.byte	0xb
 1618 0480 4C       		.byte	0x4c
 1619 0481 DF000000 		.4byte	0xdf
 1620 0485 03       		.uleb128 0x3
 1621 0486 42020000 		.4byte	.LASF84
 1622 048a 0C       		.byte	0xc
 1623 048b 65       		.byte	0x65
 1624 048c 38030000 		.4byte	0x338
 1625 0490 03       		.uleb128 0x3
 1626 0491 4E030000 		.4byte	.LASF85
 1627 0495 0C       		.byte	0xc
 1628 0496 6D       		.byte	0x6d
 1629 0497 EA000000 		.4byte	0xea
 1630 049b 07       		.uleb128 0x7
 1631 049c B4070000 		.4byte	.LASF86
 1632 04a0 04       		.byte	0x4
 1633 04a1 0C       		.byte	0xc
 1634 04a2 89       		.byte	0x89
 1635 04a3 B4040000 		.4byte	0x4b4
 1636 04a7 13       		.uleb128 0x13
 1637 04a8 72313300 		.ascii	"r13\000"
 1638 04ac 0C       		.byte	0xc
 1639 04ad 8A       		.byte	0x8a
 1640 04ae 2F050000 		.4byte	0x52f
 1641 04b2 00       		.byte	0
 1642 04b3 00       		.byte	0
 1643 04b4 07       		.uleb128 0x7
 1644 04b5 60000000 		.4byte	.LASF87
 1645 04b9 24       		.byte	0x24
 1646 04ba 0D       		.byte	0xd
 1647 04bb F4       		.byte	0xf4
 1648 04bc 2F050000 		.4byte	0x52f
 1649 04c0 09       		.uleb128 0x9
 1650 04c1 723400   		.ascii	"r4\000"
 1651 04c4 0D       		.byte	0xd
 1652 04c5 0701     		.2byte	0x107
 1653 04c7 85040000 		.4byte	0x485
ARM GAS  /var/folders/qd/4mxf5pkd0zdf0b9dd1hp39180000gn/T//cc0AuJk0.s 			page 30


 1654 04cb 00       		.byte	0
 1655 04cc 09       		.uleb128 0x9
 1656 04cd 723500   		.ascii	"r5\000"
 1657 04d0 0D       		.byte	0xd
 1658 04d1 0801     		.2byte	0x108
 1659 04d3 85040000 		.4byte	0x485
 1660 04d7 04       		.byte	0x4
 1661 04d8 09       		.uleb128 0x9
 1662 04d9 723600   		.ascii	"r6\000"
 1663 04dc 0D       		.byte	0xd
 1664 04dd 0901     		.2byte	0x109
 1665 04df 85040000 		.4byte	0x485
 1666 04e3 08       		.byte	0x8
 1667 04e4 09       		.uleb128 0x9
 1668 04e5 723700   		.ascii	"r7\000"
 1669 04e8 0D       		.byte	0xd
 1670 04e9 0A01     		.2byte	0x10a
 1671 04eb 85040000 		.4byte	0x485
 1672 04ef 0C       		.byte	0xc
 1673 04f0 09       		.uleb128 0x9
 1674 04f1 723800   		.ascii	"r8\000"
 1675 04f4 0D       		.byte	0xd
 1676 04f5 0B01     		.2byte	0x10b
 1677 04f7 85040000 		.4byte	0x485
 1678 04fb 10       		.byte	0x10
 1679 04fc 09       		.uleb128 0x9
 1680 04fd 723900   		.ascii	"r9\000"
 1681 0500 0D       		.byte	0xd
 1682 0501 0C01     		.2byte	0x10c
 1683 0503 85040000 		.4byte	0x485
 1684 0507 14       		.byte	0x14
 1685 0508 09       		.uleb128 0x9
 1686 0509 72313000 		.ascii	"r10\000"
 1687 050d 0D       		.byte	0xd
 1688 050e 0D01     		.2byte	0x10d
 1689 0510 85040000 		.4byte	0x485
 1690 0514 18       		.byte	0x18
 1691 0515 09       		.uleb128 0x9
 1692 0516 72313100 		.ascii	"r11\000"
 1693 051a 0D       		.byte	0xd
 1694 051b 0E01     		.2byte	0x10e
 1695 051d 85040000 		.4byte	0x485
 1696 0521 1C       		.byte	0x1c
 1697 0522 09       		.uleb128 0x9
 1698 0523 6C7200   		.ascii	"lr\000"
 1699 0526 0D       		.byte	0xd
 1700 0527 0F01     		.2byte	0x10f
 1701 0529 85040000 		.4byte	0x485
 1702 052d 20       		.byte	0x20
 1703 052e 00       		.byte	0
 1704 052f 0B       		.uleb128 0xb
 1705 0530 04       		.byte	0x4
 1706 0531 B4040000 		.4byte	0x4b4
 1707 0535 14       		.uleb128 0x14
 1708 0536 04       		.byte	0x4
 1709 0537 0E       		.byte	0xe
 1710 0538 38       		.byte	0x38
ARM GAS  /var/folders/qd/4mxf5pkd0zdf0b9dd1hp39180000gn/T//cc0AuJk0.s 			page 31


 1711 0539 4A050000 		.4byte	0x54a
 1712 053d 08       		.uleb128 0x8
 1713 053e A2070000 		.4byte	.LASF88
 1714 0542 0E       		.byte	0xe
 1715 0543 3C       		.byte	0x3c
 1716 0544 F5000000 		.4byte	0xf5
 1717 0548 00       		.byte	0
 1718 0549 00       		.byte	0
 1719 054a 03       		.uleb128 0x3
 1720 054b EB040000 		.4byte	.LASF89
 1721 054f 0E       		.byte	0xe
 1722 0550 3D       		.byte	0x3d
 1723 0551 35050000 		.4byte	0x535
 1724 0555 15       		.uleb128 0x15
 1725 0556 04       		.byte	0x4
 1726 0557 02       		.byte	0x2
 1727 0558 FA       		.byte	0xfa
 1728 0559 B2050000 		.4byte	0x5b2
 1729 055d 16       		.uleb128 0x16
 1730 055e 35000000 		.4byte	.LASF90
 1731 0562 02       		.byte	0x2
 1732 0563 0101     		.2byte	0x101
 1733 0565 2C010000 		.4byte	0x12c
 1734 0569 16       		.uleb128 0x16
 1735 056a F8000000 		.4byte	.LASF91
 1736 056e 02       		.byte	0x2
 1737 056f 0801     		.2byte	0x108
 1738 0571 2C010000 		.4byte	0x12c
 1739 0575 16       		.uleb128 0x16
 1740 0576 23080000 		.4byte	.LASF92
 1741 057a 02       		.byte	0x2
 1742 057b 0F01     		.2byte	0x10f
 1743 057d 38030000 		.4byte	0x338
 1744 0581 16       		.uleb128 0x16
 1745 0582 D2010000 		.4byte	.LASF93
 1746 0586 02       		.byte	0x2
 1747 0587 1601     		.2byte	0x116
 1748 0589 B2050000 		.4byte	0x5b2
 1749 058d 16       		.uleb128 0x16
 1750 058e C6020000 		.4byte	.LASF94
 1751 0592 02       		.byte	0x2
 1752 0593 1E01     		.2byte	0x11e
 1753 0595 DD050000 		.4byte	0x5dd
 1754 0599 16       		.uleb128 0x16
 1755 059a 3F070000 		.4byte	.LASF95
 1756 059e 02       		.byte	0x2
 1757 059f 2701     		.2byte	0x127
 1758 05a1 14060000 		.4byte	0x614
 1759 05a5 16       		.uleb128 0x16
 1760 05a6 5B060000 		.4byte	.LASF96
 1761 05aa 02       		.byte	0x2
 1762 05ab 2F01     		.2byte	0x12f
 1763 05ad 37010000 		.4byte	0x137
 1764 05b1 00       		.byte	0
 1765 05b2 0B       		.uleb128 0xb
 1766 05b3 04       		.byte	0x4
 1767 05b4 50020000 		.4byte	0x250
ARM GAS  /var/folders/qd/4mxf5pkd0zdf0b9dd1hp39180000gn/T//cc0AuJk0.s 			page 32


 1768 05b8 07       		.uleb128 0x7
 1769 05b9 C6060000 		.4byte	.LASF97
 1770 05bd 0C       		.byte	0xc
 1771 05be 0F       		.byte	0xf
 1772 05bf 34       		.byte	0x34
 1773 05c0 DD050000 		.4byte	0x5dd
 1774 05c4 08       		.uleb128 0x8
 1775 05c5 32020000 		.4byte	.LASF98
 1776 05c9 0F       		.byte	0xf
 1777 05ca 35       		.byte	0x35
 1778 05cb 85020000 		.4byte	0x285
 1779 05cf 00       		.byte	0
 1780 05d0 08       		.uleb128 0x8
 1781 05d1 E9020000 		.4byte	.LASF99
 1782 05d5 0F       		.byte	0xf
 1783 05d6 37       		.byte	0x37
 1784 05d7 42010000 		.4byte	0x142
 1785 05db 08       		.byte	0x8
 1786 05dc 00       		.byte	0
 1787 05dd 0B       		.uleb128 0xb
 1788 05de 04       		.byte	0x4
 1789 05df B8050000 		.4byte	0x5b8
 1790 05e3 07       		.uleb128 0x7
 1791 05e4 E3070000 		.4byte	.LASF100
 1792 05e8 10       		.byte	0x10
 1793 05e9 10       		.byte	0x10
 1794 05ea 39       		.byte	0x39
 1795 05eb 14060000 		.4byte	0x614
 1796 05ef 08       		.uleb128 0x8
 1797 05f0 A8010000 		.4byte	.LASF101
 1798 05f4 10       		.byte	0x10
 1799 05f5 3A       		.byte	0x3a
 1800 05f6 85020000 		.4byte	0x285
 1801 05fa 00       		.byte	0
 1802 05fb 08       		.uleb128 0x8
 1803 05fc 78080000 		.4byte	.LASF102
 1804 0600 10       		.byte	0x10
 1805 0601 3C       		.byte	0x3c
 1806 0602 5B020000 		.4byte	0x25b
 1807 0606 08       		.byte	0x8
 1808 0607 08       		.uleb128 0x8
 1809 0608 5A070000 		.4byte	.LASF103
 1810 060c 10       		.byte	0x10
 1811 060d 3E       		.byte	0x3e
 1812 060e 69070000 		.4byte	0x769
 1813 0612 0C       		.byte	0xc
 1814 0613 00       		.byte	0
 1815 0614 0B       		.uleb128 0xb
 1816 0615 04       		.byte	0x4
 1817 0616 E3050000 		.4byte	0x5e3
 1818 061a 0B       		.uleb128 0xb
 1819 061b 04       		.byte	0x4
 1820 061c 2C060000 		.4byte	0x62c
 1821 0620 06       		.uleb128 0x6
 1822 0621 1A060000 		.4byte	0x61a
 1823 0625 04       		.uleb128 0x4
 1824 0626 01       		.byte	0x1
ARM GAS  /var/folders/qd/4mxf5pkd0zdf0b9dd1hp39180000gn/T//cc0AuJk0.s 			page 33


 1825 0627 08       		.byte	0x8
 1826 0628 3A070000 		.4byte	.LASF104
 1827 062c 05       		.uleb128 0x5
 1828 062d 25060000 		.4byte	0x625
 1829 0631 0B       		.uleb128 0xb
 1830 0632 04       		.byte	0x4
 1831 0633 3A030000 		.4byte	0x33a
 1832 0637 17       		.uleb128 0x17
 1833 0638 90040000 		.4byte	0x490
 1834 063c 47060000 		.4byte	0x647
 1835 0640 18       		.uleb128 0x18
 1836 0641 37000000 		.4byte	0x37
 1837 0645 1A       		.byte	0x1a
 1838 0646 00       		.byte	0
 1839 0647 19       		.uleb128 0x19
 1840 0648 636800   		.ascii	"ch\000"
 1841 064b 02       		.byte	0x2
 1842 064c 0902     		.2byte	0x209
 1843 064e 07040000 		.4byte	0x407
 1844 0652 14       		.uleb128 0x14
 1845 0653 16       		.byte	0x16
 1846 0654 11       		.byte	0x11
 1847 0655 34       		.byte	0x34
 1848 0656 33070000 		.4byte	0x733
 1849 065a 08       		.uleb128 0x8
 1850 065b 80080000 		.4byte	.LASF105
 1851 065f 11       		.byte	0x11
 1852 0660 35       		.byte	0x35
 1853 0661 33070000 		.4byte	0x733
 1854 0665 00       		.byte	0
 1855 0666 08       		.uleb128 0x8
 1856 0667 6A030000 		.4byte	.LASF106
 1857 066b 11       		.byte	0x11
 1858 066c 36       		.byte	0x36
 1859 066d B4000000 		.4byte	0xb4
 1860 0671 04       		.byte	0x4
 1861 0672 08       		.uleb128 0x8
 1862 0673 20070000 		.4byte	.LASF107
 1863 0677 11       		.byte	0x11
 1864 0678 37       		.byte	0x37
 1865 0679 B4000000 		.4byte	0xb4
 1866 067d 05       		.byte	0x5
 1867 067e 08       		.uleb128 0x8
 1868 067f 66080000 		.4byte	.LASF108
 1869 0683 11       		.byte	0x11
 1870 0684 38       		.byte	0x38
 1871 0685 C4000000 		.4byte	0xc4
 1872 0689 06       		.byte	0x6
 1873 068a 08       		.uleb128 0x8
 1874 068b B6050000 		.4byte	.LASF109
 1875 068f 11       		.byte	0x11
 1876 0690 39       		.byte	0x39
 1877 0691 B4000000 		.4byte	0xb4
 1878 0695 08       		.byte	0x8
 1879 0696 08       		.uleb128 0x8
 1880 0697 BF040000 		.4byte	.LASF110
 1881 069b 11       		.byte	0x11
ARM GAS  /var/folders/qd/4mxf5pkd0zdf0b9dd1hp39180000gn/T//cc0AuJk0.s 			page 34


 1882 069c 3A       		.byte	0x3a
 1883 069d B4000000 		.4byte	0xb4
 1884 06a1 09       		.byte	0x9
 1885 06a2 08       		.uleb128 0x8
 1886 06a3 EA000000 		.4byte	.LASF111
 1887 06a7 11       		.byte	0x11
 1888 06a8 3B       		.byte	0x3b
 1889 06a9 B4000000 		.4byte	0xb4
 1890 06ad 0A       		.byte	0xa
 1891 06ae 08       		.uleb128 0x8
 1892 06af F3060000 		.4byte	.LASF112
 1893 06b3 11       		.byte	0x11
 1894 06b4 3C       		.byte	0x3c
 1895 06b5 B4000000 		.4byte	0xb4
 1896 06b9 0B       		.byte	0xb
 1897 06ba 08       		.uleb128 0x8
 1898 06bb D8070000 		.4byte	.LASF113
 1899 06bf 11       		.byte	0x11
 1900 06c0 3D       		.byte	0x3d
 1901 06c1 B4000000 		.4byte	0xb4
 1902 06c5 0C       		.byte	0xc
 1903 06c6 08       		.uleb128 0x8
 1904 06c7 B9060000 		.4byte	.LASF114
 1905 06cb 11       		.byte	0x11
 1906 06cc 3E       		.byte	0x3e
 1907 06cd B4000000 		.4byte	0xb4
 1908 06d1 0D       		.byte	0xd
 1909 06d2 08       		.uleb128 0x8
 1910 06d3 0F000000 		.4byte	.LASF115
 1911 06d7 11       		.byte	0x11
 1912 06d8 3F       		.byte	0x3f
 1913 06d9 B4000000 		.4byte	0xb4
 1914 06dd 0E       		.byte	0xe
 1915 06de 08       		.uleb128 0x8
 1916 06df CB040000 		.4byte	.LASF116
 1917 06e3 11       		.byte	0x11
 1918 06e4 40       		.byte	0x40
 1919 06e5 B4000000 		.4byte	0xb4
 1920 06e9 0F       		.byte	0xf
 1921 06ea 08       		.uleb128 0x8
 1922 06eb 83010000 		.4byte	.LASF117
 1923 06ef 11       		.byte	0x11
 1924 06f0 41       		.byte	0x41
 1925 06f1 B4000000 		.4byte	0xb4
 1926 06f5 10       		.byte	0x10
 1927 06f6 08       		.uleb128 0x8
 1928 06f7 52010000 		.4byte	.LASF118
 1929 06fb 11       		.byte	0x11
 1930 06fc 43       		.byte	0x43
 1931 06fd B4000000 		.4byte	0xb4
 1932 0701 11       		.byte	0x11
 1933 0702 08       		.uleb128 0x8
 1934 0703 93010000 		.4byte	.LASF119
 1935 0707 11       		.byte	0x11
 1936 0708 44       		.byte	0x44
 1937 0709 B4000000 		.4byte	0xb4
 1938 070d 12       		.byte	0x12
ARM GAS  /var/folders/qd/4mxf5pkd0zdf0b9dd1hp39180000gn/T//cc0AuJk0.s 			page 35


 1939 070e 08       		.uleb128 0x8
 1940 070f 72030000 		.4byte	.LASF120
 1941 0713 11       		.byte	0x11
 1942 0714 45       		.byte	0x45
 1943 0715 B4000000 		.4byte	0xb4
 1944 0719 13       		.byte	0x13
 1945 071a 08       		.uleb128 0x8
 1946 071b 6E060000 		.4byte	.LASF121
 1947 071f 11       		.byte	0x11
 1948 0720 46       		.byte	0x46
 1949 0721 B4000000 		.4byte	0xb4
 1950 0725 14       		.byte	0x14
 1951 0726 08       		.uleb128 0x8
 1952 0727 1E030000 		.4byte	.LASF122
 1953 072b 11       		.byte	0x11
 1954 072c 48       		.byte	0x48
 1955 072d B4000000 		.4byte	0xb4
 1956 0731 15       		.byte	0x15
 1957 0732 00       		.byte	0
 1958 0733 17       		.uleb128 0x17
 1959 0734 25060000 		.4byte	0x625
 1960 0738 43070000 		.4byte	0x743
 1961 073c 18       		.uleb128 0x18
 1962 073d 37000000 		.4byte	0x37
 1963 0741 03       		.byte	0x3
 1964 0742 00       		.byte	0
 1965 0743 03       		.uleb128 0x3
 1966 0744 0E020000 		.4byte	.LASF123
 1967 0748 11       		.byte	0x11
 1968 0749 49       		.byte	0x49
 1969 074a 52060000 		.4byte	0x652
 1970 074e 05       		.uleb128 0x5
 1971 074f 43070000 		.4byte	0x743
 1972 0753 12       		.uleb128 0x12
 1973 0754 D8020000 		.4byte	.LASF124
 1974 0758 11       		.byte	0x11
 1975 0759 6E       		.byte	0x6e
 1976 075a 4E070000 		.4byte	0x74e
 1977 075e 03       		.uleb128 0x3
 1978 075f 61020000 		.4byte	.LASF125
 1979 0763 10       		.byte	0x10
 1980 0764 34       		.byte	0x34
 1981 0765 E3050000 		.4byte	0x5e3
 1982 0769 0B       		.uleb128 0xb
 1983 076a 04       		.byte	0x4
 1984 076b 5E070000 		.4byte	0x75e
 1985 076f 03       		.uleb128 0x3
 1986 0770 2F010000 		.4byte	.LASF126
 1987 0774 03       		.byte	0x3
 1988 0775 3F       		.byte	0x3f
 1989 0776 7A070000 		.4byte	0x77a
 1990 077a 07       		.uleb128 0x7
 1991 077b 6F020000 		.4byte	.LASF127
 1992 077f 24       		.byte	0x24
 1993 0780 03       		.byte	0x3
 1994 0781 4D       		.byte	0x4d
 1995 0782 E7070000 		.4byte	0x7e7
ARM GAS  /var/folders/qd/4mxf5pkd0zdf0b9dd1hp39180000gn/T//cc0AuJk0.s 			page 36


 1996 0786 08       		.uleb128 0x8
 1997 0787 5F010000 		.4byte	.LASF128
 1998 078b 03       		.byte	0x3
 1999 078c 4E       		.byte	0x4e
 2000 078d 85020000 		.4byte	0x285
 2001 0791 00       		.byte	0
 2002 0792 08       		.uleb128 0x8
 2003 0793 A9040000 		.4byte	.LASF129
 2004 0797 03       		.byte	0x3
 2005 0798 4F       		.byte	0x4f
 2006 0799 2C000000 		.4byte	0x2c
 2007 079d 08       		.byte	0x8
 2008 079e 08       		.uleb128 0x8
 2009 079f FD010000 		.4byte	.LASF130
 2010 07a3 03       		.byte	0x3
 2011 07a4 50       		.byte	0x50
 2012 07a5 09080000 		.4byte	0x809
 2013 07a9 0C       		.byte	0xc
 2014 07aa 08       		.uleb128 0x8
 2015 07ab A0000000 		.4byte	.LASF131
 2016 07af 03       		.byte	0x3
 2017 07b0 51       		.byte	0x51
 2018 07b1 09080000 		.4byte	0x809
 2019 07b5 10       		.byte	0x10
 2020 07b6 08       		.uleb128 0x8
 2021 07b7 06020000 		.4byte	.LASF132
 2022 07bb 03       		.byte	0x3
 2023 07bc 53       		.byte	0x53
 2024 07bd 09080000 		.4byte	0x809
 2025 07c1 14       		.byte	0x14
 2026 07c2 08       		.uleb128 0x8
 2027 07c3 F6050000 		.4byte	.LASF133
 2028 07c7 03       		.byte	0x3
 2029 07c8 54       		.byte	0x54
 2030 07c9 09080000 		.4byte	0x809
 2031 07cd 18       		.byte	0x18
 2032 07ce 08       		.uleb128 0x8
 2033 07cf 00080000 		.4byte	.LASF134
 2034 07d3 03       		.byte	0x3
 2035 07d4 55       		.byte	0x55
 2036 07d5 E7070000 		.4byte	0x7e7
 2037 07d9 1C       		.byte	0x1c
 2038 07da 08       		.uleb128 0x8
 2039 07db 71080000 		.4byte	.LASF135
 2040 07df 03       		.byte	0x3
 2041 07e0 56       		.byte	0x56
 2042 07e1 38030000 		.4byte	0x338
 2043 07e5 20       		.byte	0x20
 2044 07e6 00       		.byte	0
 2045 07e7 03       		.uleb128 0x3
 2046 07e8 C1050000 		.4byte	.LASF136
 2047 07ec 03       		.byte	0x3
 2048 07ed 42       		.byte	0x42
 2049 07ee F2070000 		.4byte	0x7f2
 2050 07f2 0B       		.uleb128 0xb
 2051 07f3 04       		.byte	0x4
 2052 07f4 F8070000 		.4byte	0x7f8
ARM GAS  /var/folders/qd/4mxf5pkd0zdf0b9dd1hp39180000gn/T//cc0AuJk0.s 			page 37


 2053 07f8 0D       		.uleb128 0xd
 2054 07f9 03080000 		.4byte	0x803
 2055 07fd 0E       		.uleb128 0xe
 2056 07fe 03080000 		.4byte	0x803
 2057 0802 00       		.byte	0
 2058 0803 0B       		.uleb128 0xb
 2059 0804 04       		.byte	0x4
 2060 0805 6F070000 		.4byte	0x76f
 2061 0809 0B       		.uleb128 0xb
 2062 080a 04       		.byte	0x4
 2063 080b B4000000 		.4byte	0xb4
 2064 080f 03       		.uleb128 0x3
 2065 0810 2A060000 		.4byte	.LASF137
 2066 0814 03       		.byte	0x3
 2067 0815 64       		.byte	0x64
 2068 0816 6F070000 		.4byte	0x76f
 2069 081a 03       		.uleb128 0x3
 2070 081b C3010000 		.4byte	.LASF138
 2071 081f 03       		.byte	0x3
 2072 0820 71       		.byte	0x71
 2073 0821 6F070000 		.4byte	0x76f
 2074 0825 0B       		.uleb128 0xb
 2075 0826 04       		.byte	0x4
 2076 0827 BF000000 		.4byte	0xbf
 2077 082b 1A       		.uleb128 0x1a
 2078 082c 59030000 		.4byte	.LASF140
 2079 0830 01       		.byte	0x1
 2080 0831 9A01     		.2byte	0x19a
 2081 0833 2C000000 		.4byte	0x2c
 2082 0837 00000000 		.4byte	.LFB238
 2083 083b 86000000 		.4byte	.LFE238-.LFB238
 2084 083f 01       		.uleb128 0x1
 2085 0840 9C       		.byte	0x9c
 2086 0841 D9090000 		.4byte	0x9d9
 2087 0845 1B       		.uleb128 0x1b
 2088 0846 6F717000 		.ascii	"oqp\000"
 2089 084a 01       		.byte	0x1
 2090 084b 9A01     		.2byte	0x19a
 2091 084d D9090000 		.4byte	0x9d9
 2092 0851 00000000 		.4byte	.LLST38
 2093 0855 1B       		.uleb128 0x1b
 2094 0856 627000   		.ascii	"bp\000"
 2095 0859 01       		.byte	0x1
 2096 085a 9A01     		.2byte	0x19a
 2097 085c 25080000 		.4byte	0x825
 2098 0860 4A000000 		.4byte	.LLST39
 2099 0864 1B       		.uleb128 0x1b
 2100 0865 6E00     		.ascii	"n\000"
 2101 0867 01       		.byte	0x1
 2102 0868 9B01     		.2byte	0x19b
 2103 086a 2C000000 		.4byte	0x2c
 2104 086e 89000000 		.4byte	.LLST40
 2105 0872 1C       		.uleb128 0x1c
 2106 0873 E1020000 		.4byte	.LASF139
 2107 0877 01       		.byte	0x1
 2108 0878 9B01     		.2byte	0x19b
 2109 087a 4D010000 		.4byte	0x14d
ARM GAS  /var/folders/qd/4mxf5pkd0zdf0b9dd1hp39180000gn/T//cc0AuJk0.s 			page 38


 2110 087e BF000000 		.4byte	.LLST41
 2111 0882 1D       		.uleb128 0x1d
 2112 0883 6E667900 		.ascii	"nfy\000"
 2113 0887 01       		.byte	0x1
 2114 0888 9C01     		.2byte	0x19c
 2115 088a E7070000 		.4byte	0x7e7
 2116 088e 01       		.uleb128 0x1
 2117 088f 58       		.byte	0x58
 2118 0890 1E       		.uleb128 0x1e
 2119 0891 7700     		.ascii	"w\000"
 2120 0893 01       		.byte	0x1
 2121 0894 9D01     		.2byte	0x19d
 2122 0896 2C000000 		.4byte	0x2c
 2123 089a DE000000 		.4byte	.LLST42
 2124 089e 1F       		.uleb128 0x1f
 2125 089f 85060000 		.4byte	.LASF149
 2126 08a3 EF090000 		.4byte	0x9ef
 2127 08a7 20       		.uleb128 0x20
 2128 08a8 88110000 		.4byte	0x1188
 2129 08ac 12000000 		.4byte	.LBB187
 2130 08b0 08000000 		.4byte	.LBE187-.LBB187
 2131 08b4 01       		.byte	0x1
 2132 08b5 A101     		.2byte	0x1a1
 2133 08b7 E7080000 		.4byte	0x8e7
 2134 08bb 21       		.uleb128 0x21
 2135 08bc B4110000 		.4byte	0x11b4
 2136 08c0 12000000 		.4byte	.LBB188
 2137 08c4 08000000 		.4byte	.LBE188-.LBB188
 2138 08c8 12       		.byte	0x12
 2139 08c9 5C01     		.2byte	0x15c
 2140 08cb 21       		.uleb128 0x21
 2141 08cc BD110000 		.4byte	0x11bd
 2142 08d0 12000000 		.4byte	.LBB189
 2143 08d4 08000000 		.4byte	.LBE189-.LBB189
 2144 08d8 0D       		.byte	0xd
 2145 08d9 BF01     		.2byte	0x1bf
 2146 08db 22       		.uleb128 0x22
 2147 08dc CA110000 		.4byte	0x11ca
 2148 08e0 FD000000 		.4byte	.LLST43
 2149 08e4 00       		.byte	0
 2150 08e5 00       		.byte	0
 2151 08e6 00       		.byte	0
 2152 08e7 23       		.uleb128 0x23
 2153 08e8 58110000 		.4byte	0x1158
 2154 08ec 1C000000 		.4byte	.LBB191
 2155 08f0 B0000000 		.4byte	.Ldebug_ranges0+0xb0
 2156 08f4 01       		.byte	0x1
 2157 08f5 B301     		.2byte	0x1b3
 2158 08f7 32090000 		.4byte	0x932
 2159 08fb 24       		.uleb128 0x24
 2160 08fc B0000000 		.4byte	.Ldebug_ranges0+0xb0
 2161 0900 25       		.uleb128 0x25
 2162 0901 65110000 		.4byte	0x1165
 2163 0905 26       		.uleb128 0x26
 2164 0906 AB110000 		.4byte	0x11ab
 2165 090a 1C000000 		.4byte	.LBB193
 2166 090e B0000000 		.4byte	.Ldebug_ranges0+0xb0
ARM GAS  /var/folders/qd/4mxf5pkd0zdf0b9dd1hp39180000gn/T//cc0AuJk0.s 			page 39


 2167 0912 12       		.byte	0x12
 2168 0913 7301     		.2byte	0x173
 2169 0915 26       		.uleb128 0x26
 2170 0916 BD110000 		.4byte	0x11bd
 2171 091a 1C000000 		.4byte	.LBB194
 2172 091e B0000000 		.4byte	.Ldebug_ranges0+0xb0
 2173 0922 0D       		.byte	0xd
 2174 0923 CD01     		.2byte	0x1cd
 2175 0925 22       		.uleb128 0x22
 2176 0926 CA110000 		.4byte	0x11ca
 2177 092a 12010000 		.4byte	.LLST44
 2178 092e 00       		.byte	0
 2179 092f 00       		.byte	0
 2180 0930 00       		.byte	0
 2181 0931 00       		.byte	0
 2182 0932 20       		.uleb128 0x20
 2183 0933 88110000 		.4byte	0x1188
 2184 0937 56000000 		.4byte	.LBB201
 2185 093b 06000000 		.4byte	.LBE201-.LBB201
 2186 093f 01       		.byte	0x1
 2187 0940 B901     		.2byte	0x1b9
 2188 0942 72090000 		.4byte	0x972
 2189 0946 21       		.uleb128 0x21
 2190 0947 B4110000 		.4byte	0x11b4
 2191 094b 56000000 		.4byte	.LBB202
 2192 094f 06000000 		.4byte	.LBE202-.LBB202
 2193 0953 12       		.byte	0x12
 2194 0954 5C01     		.2byte	0x15c
 2195 0956 21       		.uleb128 0x21
 2196 0957 BD110000 		.4byte	0x11bd
 2197 095b 56000000 		.4byte	.LBB203
 2198 095f 06000000 		.4byte	.LBE203-.LBB203
 2199 0963 0D       		.byte	0xd
 2200 0964 BF01     		.2byte	0x1bf
 2201 0966 22       		.uleb128 0x22
 2202 0967 CA110000 		.4byte	0x11ca
 2203 096b 26010000 		.4byte	.LLST45
 2204 096f 00       		.byte	0
 2205 0970 00       		.byte	0
 2206 0971 00       		.byte	0
 2207 0972 20       		.uleb128 0x20
 2208 0973 58110000 		.4byte	0x1158
 2209 0977 7A000000 		.4byte	.LBB205
 2210 097b 04000000 		.4byte	.LBE205-.LBB205
 2211 097f 01       		.byte	0x1
 2212 0980 A501     		.2byte	0x1a5
 2213 0982 C1090000 		.4byte	0x9c1
 2214 0986 27       		.uleb128 0x27
 2215 0987 7A000000 		.4byte	.LBB206
 2216 098b 04000000 		.4byte	.LBE206-.LBB206
 2217 098f 25       		.uleb128 0x25
 2218 0990 65110000 		.4byte	0x1165
 2219 0994 21       		.uleb128 0x21
 2220 0995 AB110000 		.4byte	0x11ab
 2221 0999 7A000000 		.4byte	.LBB207
 2222 099d 04000000 		.4byte	.LBE207-.LBB207
 2223 09a1 12       		.byte	0x12
ARM GAS  /var/folders/qd/4mxf5pkd0zdf0b9dd1hp39180000gn/T//cc0AuJk0.s 			page 40


 2224 09a2 7301     		.2byte	0x173
 2225 09a4 21       		.uleb128 0x21
 2226 09a5 BD110000 		.4byte	0x11bd
 2227 09a9 7A000000 		.4byte	.LBB208
 2228 09ad 04000000 		.4byte	.LBE208-.LBB208
 2229 09b1 0D       		.byte	0xd
 2230 09b2 CD01     		.2byte	0x1cd
 2231 09b4 22       		.uleb128 0x22
 2232 09b5 CA110000 		.4byte	0x11ca
 2233 09b9 3B010000 		.4byte	.LLST46
 2234 09bd 00       		.byte	0
 2235 09be 00       		.byte	0
 2236 09bf 00       		.byte	0
 2237 09c0 00       		.byte	0
 2238 09c1 28       		.uleb128 0x28
 2239 09c2 74000000 		.4byte	.LVL84
 2240 09c6 D7110000 		.4byte	0x11d7
 2241 09ca 29       		.uleb128 0x29
 2242 09cb 01       		.uleb128 0x1
 2243 09cc 50       		.byte	0x50
 2244 09cd 02       		.uleb128 0x2
 2245 09ce 74       		.byte	0x74
 2246 09cf 00       		.sleb128 0
 2247 09d0 29       		.uleb128 0x29
 2248 09d1 01       		.uleb128 0x1
 2249 09d2 51       		.byte	0x51
 2250 09d3 03       		.uleb128 0x3
 2251 09d4 91       		.byte	0x91
 2252 09d5 54       		.sleb128 -44
 2253 09d6 06       		.byte	0x6
 2254 09d7 00       		.byte	0
 2255 09d8 00       		.byte	0
 2256 09d9 0B       		.uleb128 0xb
 2257 09da 04       		.byte	0x4
 2258 09db 1A080000 		.4byte	0x81a
 2259 09df 17       		.uleb128 0x17
 2260 09e0 2C060000 		.4byte	0x62c
 2261 09e4 EF090000 		.4byte	0x9ef
 2262 09e8 18       		.uleb128 0x18
 2263 09e9 37000000 		.4byte	0x37
 2264 09ed 10       		.byte	0x10
 2265 09ee 00       		.byte	0
 2266 09ef 05       		.uleb128 0x5
 2267 09f0 DF090000 		.4byte	0x9df
 2268 09f4 2A       		.uleb128 0x2a
 2269 09f5 F4010000 		.4byte	.LASF141
 2270 09f9 01       		.byte	0x1
 2271 09fa 6E01     		.2byte	0x16e
 2272 09fc 2C010000 		.4byte	0x12c
 2273 0a00 00000000 		.4byte	.LFB237
 2274 0a04 34000000 		.4byte	.LFE237-.LFB237
 2275 0a08 01       		.uleb128 0x1
 2276 0a09 9C       		.byte	0x9c
 2277 0a0a 5A0A0000 		.4byte	0xa5a
 2278 0a0e 1B       		.uleb128 0x1b
 2279 0a0f 6F717000 		.ascii	"oqp\000"
 2280 0a13 01       		.byte	0x1
ARM GAS  /var/folders/qd/4mxf5pkd0zdf0b9dd1hp39180000gn/T//cc0AuJk0.s 			page 41


 2281 0a14 6E01     		.2byte	0x16e
 2282 0a16 D9090000 		.4byte	0x9d9
 2283 0a1a 4F010000 		.4byte	.LLST35
 2284 0a1e 1E       		.uleb128 0x1e
 2285 0a1f 6200     		.ascii	"b\000"
 2286 0a21 01       		.byte	0x1
 2287 0a22 6F01     		.2byte	0x16f
 2288 0a24 B4000000 		.4byte	0xb4
 2289 0a28 89010000 		.4byte	.LLST36
 2290 0a2c 23       		.uleb128 0x23
 2291 0a2d DE100000 		.4byte	0x10de
 2292 0a31 00000000 		.4byte	.LBB181
 2293 0a35 90000000 		.4byte	.Ldebug_ranges0+0x90
 2294 0a39 01       		.byte	0x1
 2295 0a3a 7301     		.2byte	0x173
 2296 0a3c 4A0A0000 		.4byte	0xa4a
 2297 0a40 22       		.uleb128 0x22
 2298 0a41 EF100000 		.4byte	0x10ef
 2299 0a45 9C010000 		.4byte	.LLST37
 2300 0a49 00       		.byte	0
 2301 0a4a 28       		.uleb128 0x28
 2302 0a4b 26000000 		.4byte	.LVL65
 2303 0a4f E2110000 		.4byte	0x11e2
 2304 0a53 29       		.uleb128 0x29
 2305 0a54 01       		.uleb128 0x1
 2306 0a55 51       		.byte	0x51
 2307 0a56 01       		.uleb128 0x1
 2308 0a57 30       		.byte	0x30
 2309 0a58 00       		.byte	0
 2310 0a59 00       		.byte	0
 2311 0a5a 2A       		.uleb128 0x2a
 2312 0a5b 00000000 		.4byte	.LASF142
 2313 0a5f 01       		.byte	0x1
 2314 0a60 4B01     		.2byte	0x14b
 2315 0a62 2C010000 		.4byte	0x12c
 2316 0a66 00000000 		.4byte	.LFB236
 2317 0a6a 4E000000 		.4byte	.LFE236-.LFB236
 2318 0a6e 01       		.uleb128 0x1
 2319 0a6f 9C       		.byte	0x9c
 2320 0a70 B00B0000 		.4byte	0xbb0
 2321 0a74 1B       		.uleb128 0x1b
 2322 0a75 6F717000 		.ascii	"oqp\000"
 2323 0a79 01       		.byte	0x1
 2324 0a7a 4B01     		.2byte	0x14b
 2325 0a7c D9090000 		.4byte	0x9d9
 2326 0a80 C8010000 		.4byte	.LLST28
 2327 0a84 1B       		.uleb128 0x1b
 2328 0a85 6200     		.ascii	"b\000"
 2329 0a87 01       		.byte	0x1
 2330 0a88 4B01     		.2byte	0x14b
 2331 0a8a B4000000 		.4byte	0xb4
 2332 0a8e FC010000 		.4byte	.LLST29
 2333 0a92 1C       		.uleb128 0x1c
 2334 0a93 E1020000 		.4byte	.LASF139
 2335 0a97 01       		.byte	0x1
 2336 0a98 4B01     		.2byte	0x14b
 2337 0a9a 4D010000 		.4byte	0x14d
ARM GAS  /var/folders/qd/4mxf5pkd0zdf0b9dd1hp39180000gn/T//cc0AuJk0.s 			page 42


 2338 0a9e 1D020000 		.4byte	.LLST30
 2339 0aa2 2B       		.uleb128 0x2b
 2340 0aa3 78000000 		.4byte	.Ldebug_ranges0+0x78
 2341 0aa7 140B0000 		.4byte	0xb14
 2342 0aab 1E       		.uleb128 0x1e
 2343 0aac 6D736700 		.ascii	"msg\000"
 2344 0ab0 01       		.byte	0x1
 2345 0ab1 4F01     		.2byte	0x14f
 2346 0ab3 2C010000 		.4byte	0x12c
 2347 0ab7 5C020000 		.4byte	.LLST32
 2348 0abb 20       		.uleb128 0x20
 2349 0abc 58110000 		.4byte	0x1158
 2350 0ac0 48000000 		.4byte	.LBB170
 2351 0ac4 04000000 		.4byte	.LBE170-.LBB170
 2352 0ac8 01       		.byte	0x1
 2353 0ac9 5101     		.2byte	0x151
 2354 0acb 0A0B0000 		.4byte	0xb0a
 2355 0acf 27       		.uleb128 0x27
 2356 0ad0 48000000 		.4byte	.LBB171
 2357 0ad4 04000000 		.4byte	.LBE171-.LBB171
 2358 0ad8 25       		.uleb128 0x25
 2359 0ad9 65110000 		.4byte	0x1165
 2360 0add 21       		.uleb128 0x21
 2361 0ade AB110000 		.4byte	0x11ab
 2362 0ae2 48000000 		.4byte	.LBB172
 2363 0ae6 04000000 		.4byte	.LBE172-.LBB172
 2364 0aea 12       		.byte	0x12
 2365 0aeb 7301     		.2byte	0x173
 2366 0aed 21       		.uleb128 0x21
 2367 0aee BD110000 		.4byte	0x11bd
 2368 0af2 48000000 		.4byte	.LBB173
 2369 0af6 04000000 		.4byte	.LBE173-.LBB173
 2370 0afa 0D       		.byte	0xd
 2371 0afb CD01     		.2byte	0x1cd
 2372 0afd 22       		.uleb128 0x22
 2373 0afe CA110000 		.4byte	0x11ca
 2374 0b02 7A020000 		.4byte	.LLST33
 2375 0b06 00       		.byte	0
 2376 0b07 00       		.byte	0
 2377 0b08 00       		.byte	0
 2378 0b09 00       		.byte	0
 2379 0b0a 2C       		.uleb128 0x2c
 2380 0b0b 14000000 		.4byte	.LVL54
 2381 0b0f D7110000 		.4byte	0x11d7
 2382 0b13 00       		.byte	0
 2383 0b14 20       		.uleb128 0x20
 2384 0b15 88110000 		.4byte	0x1188
 2385 0b19 08000000 		.4byte	.LBB165
 2386 0b1d 08000000 		.4byte	.LBE165-.LBB165
 2387 0b21 01       		.byte	0x1
 2388 0b22 4D01     		.2byte	0x14d
 2389 0b24 540B0000 		.4byte	0xb54
 2390 0b28 21       		.uleb128 0x21
 2391 0b29 B4110000 		.4byte	0x11b4
 2392 0b2d 08000000 		.4byte	.LBB166
 2393 0b31 08000000 		.4byte	.LBE166-.LBB166
 2394 0b35 12       		.byte	0x12
ARM GAS  /var/folders/qd/4mxf5pkd0zdf0b9dd1hp39180000gn/T//cc0AuJk0.s 			page 43


 2395 0b36 5C01     		.2byte	0x15c
 2396 0b38 21       		.uleb128 0x21
 2397 0b39 BD110000 		.4byte	0x11bd
 2398 0b3d 08000000 		.4byte	.LBB167
 2399 0b41 08000000 		.4byte	.LBE167-.LBB167
 2400 0b45 0D       		.byte	0xd
 2401 0b46 BF01     		.2byte	0x1bf
 2402 0b48 22       		.uleb128 0x22
 2403 0b49 CA110000 		.4byte	0x11ca
 2404 0b4d 8E020000 		.4byte	.LLST31
 2405 0b51 00       		.byte	0
 2406 0b52 00       		.byte	0
 2407 0b53 00       		.byte	0
 2408 0b54 20       		.uleb128 0x20
 2409 0b55 58110000 		.4byte	0x1158
 2410 0b59 40000000 		.4byte	.LBB175
 2411 0b5d 06000000 		.4byte	.LBE175-.LBB175
 2412 0b61 01       		.byte	0x1
 2413 0b62 5F01     		.2byte	0x15f
 2414 0b64 A30B0000 		.4byte	0xba3
 2415 0b68 27       		.uleb128 0x27
 2416 0b69 40000000 		.4byte	.LBB176
 2417 0b6d 06000000 		.4byte	.LBE176-.LBB176
 2418 0b71 25       		.uleb128 0x25
 2419 0b72 65110000 		.4byte	0x1165
 2420 0b76 21       		.uleb128 0x21
 2421 0b77 AB110000 		.4byte	0x11ab
 2422 0b7b 40000000 		.4byte	.LBB177
 2423 0b7f 06000000 		.4byte	.LBE177-.LBB177
 2424 0b83 12       		.byte	0x12
 2425 0b84 7301     		.2byte	0x173
 2426 0b86 21       		.uleb128 0x21
 2427 0b87 BD110000 		.4byte	0x11bd
 2428 0b8b 40000000 		.4byte	.LBB178
 2429 0b8f 06000000 		.4byte	.LBE178-.LBB178
 2430 0b93 0D       		.byte	0xd
 2431 0b94 CD01     		.2byte	0x1cd
 2432 0b96 22       		.uleb128 0x22
 2433 0b97 CA110000 		.4byte	0x11ca
 2434 0b9b A3020000 		.4byte	.LLST34
 2435 0b9f 00       		.byte	0
 2436 0ba0 00       		.byte	0
 2437 0ba1 00       		.byte	0
 2438 0ba2 00       		.byte	0
 2439 0ba3 2D       		.uleb128 0x2d
 2440 0ba4 40000000 		.4byte	.LVL58
 2441 0ba8 29       		.uleb128 0x29
 2442 0ba9 01       		.uleb128 0x1
 2443 0baa 50       		.byte	0x50
 2444 0bab 02       		.uleb128 0x2
 2445 0bac 74       		.byte	0x74
 2446 0bad 00       		.sleb128 0
 2447 0bae 00       		.byte	0
 2448 0baf 00       		.byte	0
 2449 0bb0 2E       		.uleb128 0x2e
 2450 0bb1 A9070000 		.4byte	.LASF143
 2451 0bb5 01       		.byte	0x1
ARM GAS  /var/folders/qd/4mxf5pkd0zdf0b9dd1hp39180000gn/T//cc0AuJk0.s 			page 44


 2452 0bb6 2B01     		.2byte	0x12b
 2453 0bb8 00000000 		.4byte	.LFB235
 2454 0bbc 18000000 		.4byte	.LFE235-.LFB235
 2455 0bc0 01       		.uleb128 0x1
 2456 0bc1 9C       		.byte	0x9c
 2457 0bc2 EE0B0000 		.4byte	0xbee
 2458 0bc6 1B       		.uleb128 0x1b
 2459 0bc7 6F717000 		.ascii	"oqp\000"
 2460 0bcb 01       		.byte	0x1
 2461 0bcc 2B01     		.2byte	0x12b
 2462 0bce D9090000 		.4byte	0x9d9
 2463 0bd2 B7020000 		.4byte	.LLST27
 2464 0bd6 2F       		.uleb128 0x2f
 2465 0bd7 18000000 		.4byte	.LVL50
 2466 0bdb ED110000 		.4byte	0x11ed
 2467 0bdf 29       		.uleb128 0x29
 2468 0be0 01       		.uleb128 0x1
 2469 0be1 50       		.byte	0x50
 2470 0be2 03       		.uleb128 0x3
 2471 0be3 F3       		.byte	0xf3
 2472 0be4 01       		.uleb128 0x1
 2473 0be5 50       		.byte	0x50
 2474 0be6 29       		.uleb128 0x29
 2475 0be7 01       		.uleb128 0x1
 2476 0be8 51       		.byte	0x51
 2477 0be9 02       		.uleb128 0x2
 2478 0bea 09       		.byte	0x9
 2479 0beb FE       		.byte	0xfe
 2480 0bec 00       		.byte	0
 2481 0bed 00       		.byte	0
 2482 0bee 2E       		.uleb128 0x2e
 2483 0bef C9070000 		.4byte	.LASF144
 2484 0bf3 01       		.byte	0x1
 2485 0bf4 1301     		.2byte	0x113
 2486 0bf6 00000000 		.4byte	.LFB234
 2487 0bfa 1C000000 		.4byte	.LFE234-.LFB234
 2488 0bfe 01       		.uleb128 0x1
 2489 0bff 9C       		.byte	0x9c
 2490 0c00 800C0000 		.4byte	0xc80
 2491 0c04 30       		.uleb128 0x30
 2492 0c05 6F717000 		.ascii	"oqp\000"
 2493 0c09 01       		.byte	0x1
 2494 0c0a 1301     		.2byte	0x113
 2495 0c0c D9090000 		.4byte	0x9d9
 2496 0c10 01       		.uleb128 0x1
 2497 0c11 50       		.byte	0x50
 2498 0c12 30       		.uleb128 0x30
 2499 0c13 627000   		.ascii	"bp\000"
 2500 0c16 01       		.byte	0x1
 2501 0c17 1301     		.2byte	0x113
 2502 0c19 09080000 		.4byte	0x809
 2503 0c1d 01       		.uleb128 0x1
 2504 0c1e 51       		.byte	0x51
 2505 0c1f 31       		.uleb128 0x31
 2506 0c20 31080000 		.4byte	.LASF145
 2507 0c24 01       		.byte	0x1
 2508 0c25 1301     		.2byte	0x113
ARM GAS  /var/folders/qd/4mxf5pkd0zdf0b9dd1hp39180000gn/T//cc0AuJk0.s 			page 45


 2509 0c27 2C000000 		.4byte	0x2c
 2510 0c2b 01       		.uleb128 0x1
 2511 0c2c 52       		.byte	0x52
 2512 0c2d 31       		.uleb128 0x31
 2513 0c2e 29000000 		.4byte	.LASF146
 2514 0c32 01       		.byte	0x1
 2515 0c33 1401     		.2byte	0x114
 2516 0c35 E7070000 		.4byte	0x7e7
 2517 0c39 01       		.uleb128 0x1
 2518 0c3a 53       		.byte	0x53
 2519 0c3b 1C       		.uleb128 0x1c
 2520 0c3c 53020000 		.4byte	.LASF147
 2521 0c40 01       		.byte	0x1
 2522 0c41 1401     		.2byte	0x114
 2523 0c43 38030000 		.4byte	0x338
 2524 0c47 D8020000 		.4byte	.LLST24
 2525 0c4b 21       		.uleb128 0x21
 2526 0c4c 38110000 		.4byte	0x1138
 2527 0c50 10000000 		.4byte	.LBB162
 2528 0c54 04000000 		.4byte	.LBE162-.LBB162
 2529 0c58 01       		.byte	0x1
 2530 0c59 1601     		.2byte	0x116
 2531 0c5b 22       		.uleb128 0x22
 2532 0c5c 45110000 		.4byte	0x1145
 2533 0c60 F8020000 		.4byte	.LLST25
 2534 0c64 21       		.uleb128 0x21
 2535 0c65 91110000 		.4byte	0x1191
 2536 0c69 10000000 		.4byte	.LBB163
 2537 0c6d 04000000 		.4byte	.LBE163-.LBB163
 2538 0c71 13       		.byte	0x13
 2539 0c72 1801     		.2byte	0x118
 2540 0c74 22       		.uleb128 0x22
 2541 0c75 9E110000 		.4byte	0x119e
 2542 0c79 F8020000 		.4byte	.LLST25
 2543 0c7d 00       		.byte	0
 2544 0c7e 00       		.byte	0
 2545 0c7f 00       		.byte	0
 2546 0c80 32       		.uleb128 0x32
 2547 0c81 7B000000 		.4byte	.LASF148
 2548 0c85 01       		.byte	0x1
 2549 0c86 DF       		.byte	0xdf
 2550 0c87 2C000000 		.4byte	0x2c
 2551 0c8b 00000000 		.4byte	.LFB233
 2552 0c8f 74000000 		.4byte	.LFE233-.LFB233
 2553 0c93 01       		.uleb128 0x1
 2554 0c94 9C       		.byte	0x9c
 2555 0c95 250E0000 		.4byte	0xe25
 2556 0c99 33       		.uleb128 0x33
 2557 0c9a 69717000 		.ascii	"iqp\000"
 2558 0c9e 01       		.byte	0x1
 2559 0c9f DF       		.byte	0xdf
 2560 0ca0 250E0000 		.4byte	0xe25
 2561 0ca4 0B030000 		.4byte	.LLST15
 2562 0ca8 33       		.uleb128 0x33
 2563 0ca9 627000   		.ascii	"bp\000"
 2564 0cac 01       		.byte	0x1
 2565 0cad DF       		.byte	0xdf
ARM GAS  /var/folders/qd/4mxf5pkd0zdf0b9dd1hp39180000gn/T//cc0AuJk0.s 			page 46


 2566 0cae 09080000 		.4byte	0x809
 2567 0cb2 55030000 		.4byte	.LLST16
 2568 0cb6 33       		.uleb128 0x33
 2569 0cb7 6E00     		.ascii	"n\000"
 2570 0cb9 01       		.byte	0x1
 2571 0cba E0       		.byte	0xe0
 2572 0cbb 2C000000 		.4byte	0x2c
 2573 0cbf 8B030000 		.4byte	.LLST17
 2574 0cc3 34       		.uleb128 0x34
 2575 0cc4 E1020000 		.4byte	.LASF139
 2576 0cc8 01       		.byte	0x1
 2577 0cc9 E0       		.byte	0xe0
 2578 0cca 4D010000 		.4byte	0x14d
 2579 0cce AE030000 		.4byte	.LLST18
 2580 0cd2 35       		.uleb128 0x35
 2581 0cd3 6E667900 		.ascii	"nfy\000"
 2582 0cd7 01       		.byte	0x1
 2583 0cd8 E1       		.byte	0xe1
 2584 0cd9 E7070000 		.4byte	0x7e7
 2585 0cdd 01       		.uleb128 0x1
 2586 0cde 58       		.byte	0x58
 2587 0cdf 36       		.uleb128 0x36
 2588 0ce0 7200     		.ascii	"r\000"
 2589 0ce2 01       		.byte	0x1
 2590 0ce3 E2       		.byte	0xe2
 2591 0ce4 2C000000 		.4byte	0x2c
 2592 0ce8 F8030000 		.4byte	.LLST19
 2593 0cec 1F       		.uleb128 0x1f
 2594 0ced 85060000 		.4byte	.LASF149
 2595 0cf1 3B0E0000 		.4byte	0xe3b
 2596 0cf5 37       		.uleb128 0x37
 2597 0cf6 88110000 		.4byte	0x1188
 2598 0cfa 12000000 		.4byte	.LBB135
 2599 0cfe 06000000 		.4byte	.LBE135-.LBB135
 2600 0d02 01       		.byte	0x1
 2601 0d03 E6       		.byte	0xe6
 2602 0d04 340D0000 		.4byte	0xd34
 2603 0d08 21       		.uleb128 0x21
 2604 0d09 B4110000 		.4byte	0x11b4
 2605 0d0d 12000000 		.4byte	.LBB136
 2606 0d11 06000000 		.4byte	.LBE136-.LBB136
 2607 0d15 12       		.byte	0x12
 2608 0d16 5C01     		.2byte	0x15c
 2609 0d18 21       		.uleb128 0x21
 2610 0d19 BD110000 		.4byte	0x11bd
 2611 0d1d 12000000 		.4byte	.LBB137
 2612 0d21 06000000 		.4byte	.LBE137-.LBB137
 2613 0d25 0D       		.byte	0xd
 2614 0d26 BF01     		.2byte	0x1bf
 2615 0d28 22       		.uleb128 0x22
 2616 0d29 CA110000 		.4byte	0x11ca
 2617 0d2d 17040000 		.4byte	.LLST20
 2618 0d31 00       		.byte	0
 2619 0d32 00       		.byte	0
 2620 0d33 00       		.byte	0
 2621 0d34 38       		.uleb128 0x38
 2622 0d35 88110000 		.4byte	0x1188
ARM GAS  /var/folders/qd/4mxf5pkd0zdf0b9dd1hp39180000gn/T//cc0AuJk0.s 			page 47


 2623 0d39 1A000000 		.4byte	.LBB139
 2624 0d3d 48000000 		.4byte	.Ldebug_ranges0+0x48
 2625 0d41 01       		.byte	0x1
 2626 0d42 FF       		.byte	0xff
 2627 0d43 730D0000 		.4byte	0xd73
 2628 0d47 26       		.uleb128 0x26
 2629 0d48 B4110000 		.4byte	0x11b4
 2630 0d4c 1A000000 		.4byte	.LBB140
 2631 0d50 48000000 		.4byte	.Ldebug_ranges0+0x48
 2632 0d54 12       		.byte	0x12
 2633 0d55 5C01     		.2byte	0x15c
 2634 0d57 26       		.uleb128 0x26
 2635 0d58 BD110000 		.4byte	0x11bd
 2636 0d5c 1A000000 		.4byte	.LBB141
 2637 0d60 48000000 		.4byte	.Ldebug_ranges0+0x48
 2638 0d64 0D       		.byte	0xd
 2639 0d65 BF01     		.2byte	0x1bf
 2640 0d67 22       		.uleb128 0x22
 2641 0d68 CA110000 		.4byte	0x11ca
 2642 0d6c 2C040000 		.4byte	.LLST21
 2643 0d70 00       		.byte	0
 2644 0d71 00       		.byte	0
 2645 0d72 00       		.byte	0
 2646 0d73 38       		.uleb128 0x38
 2647 0d74 58110000 		.4byte	0x1158
 2648 0d78 1C000000 		.4byte	.LBB146
 2649 0d7c 60000000 		.4byte	.Ldebug_ranges0+0x60
 2650 0d80 01       		.byte	0x1
 2651 0d81 F8       		.byte	0xf8
 2652 0d82 BD0D0000 		.4byte	0xdbd
 2653 0d86 24       		.uleb128 0x24
 2654 0d87 60000000 		.4byte	.Ldebug_ranges0+0x60
 2655 0d8b 25       		.uleb128 0x25
 2656 0d8c 65110000 		.4byte	0x1165
 2657 0d90 26       		.uleb128 0x26
 2658 0d91 AB110000 		.4byte	0x11ab
 2659 0d95 1C000000 		.4byte	.LBB148
 2660 0d99 60000000 		.4byte	.Ldebug_ranges0+0x60
 2661 0d9d 12       		.byte	0x12
 2662 0d9e 7301     		.2byte	0x173
 2663 0da0 26       		.uleb128 0x26
 2664 0da1 BD110000 		.4byte	0x11bd
 2665 0da5 1C000000 		.4byte	.LBB149
 2666 0da9 60000000 		.4byte	.Ldebug_ranges0+0x60
 2667 0dad 0D       		.byte	0xd
 2668 0dae CD01     		.2byte	0x1cd
 2669 0db0 22       		.uleb128 0x22
 2670 0db1 CA110000 		.4byte	0x11ca
 2671 0db5 41040000 		.4byte	.LLST22
 2672 0db9 00       		.byte	0
 2673 0dba 00       		.byte	0
 2674 0dbb 00       		.byte	0
 2675 0dbc 00       		.byte	0
 2676 0dbd 37       		.uleb128 0x37
 2677 0dbe 58110000 		.4byte	0x1158
 2678 0dc2 68000000 		.4byte	.LBB157
 2679 0dc6 04000000 		.4byte	.LBE157-.LBB157
ARM GAS  /var/folders/qd/4mxf5pkd0zdf0b9dd1hp39180000gn/T//cc0AuJk0.s 			page 48


 2680 0dca 01       		.byte	0x1
 2681 0dcb EE       		.byte	0xee
 2682 0dcc 0B0E0000 		.4byte	0xe0b
 2683 0dd0 27       		.uleb128 0x27
 2684 0dd1 68000000 		.4byte	.LBB158
 2685 0dd5 04000000 		.4byte	.LBE158-.LBB158
 2686 0dd9 25       		.uleb128 0x25
 2687 0dda 65110000 		.4byte	0x1165
 2688 0dde 21       		.uleb128 0x21
 2689 0ddf AB110000 		.4byte	0x11ab
 2690 0de3 68000000 		.4byte	.LBB159
 2691 0de7 04000000 		.4byte	.LBE159-.LBB159
 2692 0deb 12       		.byte	0x12
 2693 0dec 7301     		.2byte	0x173
 2694 0dee 21       		.uleb128 0x21
 2695 0def BD110000 		.4byte	0x11bd
 2696 0df3 68000000 		.4byte	.LBB160
 2697 0df7 04000000 		.4byte	.LBE160-.LBB160
 2698 0dfb 0D       		.byte	0xd
 2699 0dfc CD01     		.2byte	0x1cd
 2700 0dfe 22       		.uleb128 0x22
 2701 0dff CA110000 		.4byte	0x11ca
 2702 0e03 55040000 		.4byte	.LLST23
 2703 0e07 00       		.byte	0
 2704 0e08 00       		.byte	0
 2705 0e09 00       		.byte	0
 2706 0e0a 00       		.byte	0
 2707 0e0b 39       		.uleb128 0x39
 2708 0e0c 28000000 		.4byte	.LVL31
 2709 0e10 1B0E0000 		.4byte	0xe1b
 2710 0e14 29       		.uleb128 0x29
 2711 0e15 01       		.uleb128 0x1
 2712 0e16 50       		.byte	0x50
 2713 0e17 02       		.uleb128 0x2
 2714 0e18 74       		.byte	0x74
 2715 0e19 00       		.sleb128 0
 2716 0e1a 00       		.byte	0
 2717 0e1b 2C       		.uleb128 0x2c
 2718 0e1c 2E000000 		.4byte	.LVL33
 2719 0e20 D7110000 		.4byte	0x11d7
 2720 0e24 00       		.byte	0
 2721 0e25 0B       		.uleb128 0xb
 2722 0e26 04       		.byte	0x4
 2723 0e27 0F080000 		.4byte	0x80f
 2724 0e2b 17       		.uleb128 0x17
 2725 0e2c 2C060000 		.4byte	0x62c
 2726 0e30 3B0E0000 		.4byte	0xe3b
 2727 0e34 18       		.uleb128 0x18
 2728 0e35 37000000 		.4byte	0x37
 2729 0e39 0F       		.byte	0xf
 2730 0e3a 00       		.byte	0
 2731 0e3b 05       		.uleb128 0x5
 2732 0e3c 2B0E0000 		.4byte	0xe2b
 2733 0e40 32       		.uleb128 0x32
 2734 0e41 96080000 		.4byte	.LASF150
 2735 0e45 01       		.byte	0x1
 2736 0e46 AD       		.byte	0xad
ARM GAS  /var/folders/qd/4mxf5pkd0zdf0b9dd1hp39180000gn/T//cc0AuJk0.s 			page 49


 2737 0e47 2C010000 		.4byte	0x12c
 2738 0e4b 00000000 		.4byte	.LFB232
 2739 0e4f 4E000000 		.4byte	.LFE232-.LFB232
 2740 0e53 01       		.uleb128 0x1
 2741 0e54 9C       		.byte	0x9c
 2742 0e55 8E0F0000 		.4byte	0xf8e
 2743 0e59 33       		.uleb128 0x33
 2744 0e5a 69717000 		.ascii	"iqp\000"
 2745 0e5e 01       		.byte	0x1
 2746 0e5f AD       		.byte	0xad
 2747 0e60 250E0000 		.4byte	0xe25
 2748 0e64 69040000 		.4byte	.LLST8
 2749 0e68 34       		.uleb128 0x34
 2750 0e69 E1020000 		.4byte	.LASF139
 2751 0e6d 01       		.byte	0x1
 2752 0e6e AD       		.byte	0xad
 2753 0e6f 4D010000 		.4byte	0x14d
 2754 0e73 B3040000 		.4byte	.LLST9
 2755 0e77 36       		.uleb128 0x36
 2756 0e78 6200     		.ascii	"b\000"
 2757 0e7a 01       		.byte	0x1
 2758 0e7b AE       		.byte	0xae
 2759 0e7c B4000000 		.4byte	0xb4
 2760 0e80 FD040000 		.4byte	.LLST10
 2761 0e84 2B       		.uleb128 0x2b
 2762 0e85 30000000 		.4byte	.Ldebug_ranges0+0x30
 2763 0e89 F40E0000 		.4byte	0xef4
 2764 0e8d 36       		.uleb128 0x36
 2765 0e8e 6D736700 		.ascii	"msg\000"
 2766 0e92 01       		.byte	0x1
 2767 0e93 B6       		.byte	0xb6
 2768 0e94 2C010000 		.4byte	0x12c
 2769 0e98 10050000 		.4byte	.LLST12
 2770 0e9c 37       		.uleb128 0x37
 2771 0e9d 58110000 		.4byte	0x1158
 2772 0ea1 48000000 		.4byte	.LBB124
 2773 0ea5 04000000 		.4byte	.LBE124-.LBB124
 2774 0ea9 01       		.byte	0x1
 2775 0eaa B8       		.byte	0xb8
 2776 0eab EA0E0000 		.4byte	0xeea
 2777 0eaf 27       		.uleb128 0x27
 2778 0eb0 48000000 		.4byte	.LBB125
 2779 0eb4 04000000 		.4byte	.LBE125-.LBB125
 2780 0eb8 25       		.uleb128 0x25
 2781 0eb9 65110000 		.4byte	0x1165
 2782 0ebd 21       		.uleb128 0x21
 2783 0ebe AB110000 		.4byte	0x11ab
 2784 0ec2 48000000 		.4byte	.LBB126
 2785 0ec6 04000000 		.4byte	.LBE126-.LBB126
 2786 0eca 12       		.byte	0x12
 2787 0ecb 7301     		.2byte	0x173
 2788 0ecd 21       		.uleb128 0x21
 2789 0ece BD110000 		.4byte	0x11bd
 2790 0ed2 48000000 		.4byte	.LBB127
 2791 0ed6 04000000 		.4byte	.LBE127-.LBB127
 2792 0eda 0D       		.byte	0xd
 2793 0edb CD01     		.2byte	0x1cd
ARM GAS  /var/folders/qd/4mxf5pkd0zdf0b9dd1hp39180000gn/T//cc0AuJk0.s 			page 50


 2794 0edd 22       		.uleb128 0x22
 2795 0ede CA110000 		.4byte	0x11ca
 2796 0ee2 2E050000 		.4byte	.LLST13
 2797 0ee6 00       		.byte	0
 2798 0ee7 00       		.byte	0
 2799 0ee8 00       		.byte	0
 2800 0ee9 00       		.byte	0
 2801 0eea 2C       		.uleb128 0x2c
 2802 0eeb 18000000 		.4byte	.LVL16
 2803 0eef D7110000 		.4byte	0x11d7
 2804 0ef3 00       		.byte	0
 2805 0ef4 38       		.uleb128 0x38
 2806 0ef5 88110000 		.4byte	0x1188
 2807 0ef9 02000000 		.4byte	.LBB115
 2808 0efd 18000000 		.4byte	.Ldebug_ranges0+0x18
 2809 0f01 01       		.byte	0x1
 2810 0f02 B0       		.byte	0xb0
 2811 0f03 330F0000 		.4byte	0xf33
 2812 0f07 26       		.uleb128 0x26
 2813 0f08 B4110000 		.4byte	0x11b4
 2814 0f0c 02000000 		.4byte	.LBB116
 2815 0f10 18000000 		.4byte	.Ldebug_ranges0+0x18
 2816 0f14 12       		.byte	0x12
 2817 0f15 5C01     		.2byte	0x15c
 2818 0f17 26       		.uleb128 0x26
 2819 0f18 BD110000 		.4byte	0x11bd
 2820 0f1c 02000000 		.4byte	.LBB117
 2821 0f20 18000000 		.4byte	.Ldebug_ranges0+0x18
 2822 0f24 0D       		.byte	0xd
 2823 0f25 BF01     		.2byte	0x1bf
 2824 0f27 22       		.uleb128 0x22
 2825 0f28 CA110000 		.4byte	0x11ca
 2826 0f2c 42050000 		.4byte	.LLST11
 2827 0f30 00       		.byte	0
 2828 0f31 00       		.byte	0
 2829 0f32 00       		.byte	0
 2830 0f33 37       		.uleb128 0x37
 2831 0f34 58110000 		.4byte	0x1158
 2832 0f38 40000000 		.4byte	.LBB129
 2833 0f3c 06000000 		.4byte	.LBE129-.LBB129
 2834 0f40 01       		.byte	0x1
 2835 0f41 C2       		.byte	0xc2
 2836 0f42 810F0000 		.4byte	0xf81
 2837 0f46 27       		.uleb128 0x27
 2838 0f47 40000000 		.4byte	.LBB130
 2839 0f4b 06000000 		.4byte	.LBE130-.LBB130
 2840 0f4f 25       		.uleb128 0x25
 2841 0f50 65110000 		.4byte	0x1165
 2842 0f54 21       		.uleb128 0x21
 2843 0f55 AB110000 		.4byte	0x11ab
 2844 0f59 40000000 		.4byte	.LBB131
 2845 0f5d 06000000 		.4byte	.LBE131-.LBB131
 2846 0f61 12       		.byte	0x12
 2847 0f62 7301     		.2byte	0x173
 2848 0f64 21       		.uleb128 0x21
 2849 0f65 BD110000 		.4byte	0x11bd
 2850 0f69 40000000 		.4byte	.LBB132
ARM GAS  /var/folders/qd/4mxf5pkd0zdf0b9dd1hp39180000gn/T//cc0AuJk0.s 			page 51


 2851 0f6d 06000000 		.4byte	.LBE132-.LBB132
 2852 0f71 0D       		.byte	0xd
 2853 0f72 CD01     		.2byte	0x1cd
 2854 0f74 22       		.uleb128 0x22
 2855 0f75 CA110000 		.4byte	0x11ca
 2856 0f79 57050000 		.4byte	.LLST14
 2857 0f7d 00       		.byte	0
 2858 0f7e 00       		.byte	0
 2859 0f7f 00       		.byte	0
 2860 0f80 00       		.byte	0
 2861 0f81 2D       		.uleb128 0x2d
 2862 0f82 12000000 		.4byte	.LVL14
 2863 0f86 29       		.uleb128 0x29
 2864 0f87 01       		.uleb128 0x1
 2865 0f88 50       		.byte	0x50
 2866 0f89 02       		.uleb128 0x2
 2867 0f8a 74       		.byte	0x74
 2868 0f8b 00       		.sleb128 0
 2869 0f8c 00       		.byte	0
 2870 0f8d 00       		.byte	0
 2871 0f8e 32       		.uleb128 0x32
 2872 0f8f 58020000 		.4byte	.LASF151
 2873 0f93 01       		.byte	0x1
 2874 0f94 86       		.byte	0x86
 2875 0f95 2C010000 		.4byte	0x12c
 2876 0f99 00000000 		.4byte	.LFB231
 2877 0f9d 36000000 		.4byte	.LFE231-.LFB231
 2878 0fa1 01       		.uleb128 0x1
 2879 0fa2 9C       		.byte	0x9c
 2880 0fa3 F00F0000 		.4byte	0xff0
 2881 0fa7 33       		.uleb128 0x33
 2882 0fa8 69717000 		.ascii	"iqp\000"
 2883 0fac 01       		.byte	0x1
 2884 0fad 86       		.byte	0x86
 2885 0fae 250E0000 		.4byte	0xe25
 2886 0fb2 6B050000 		.4byte	.LLST5
 2887 0fb6 33       		.uleb128 0x33
 2888 0fb7 6200     		.ascii	"b\000"
 2889 0fb9 01       		.byte	0x1
 2890 0fba 86       		.byte	0x86
 2891 0fbb B4000000 		.4byte	0xb4
 2892 0fbf A5050000 		.4byte	.LLST6
 2893 0fc3 38       		.uleb128 0x38
 2894 0fc4 FC100000 		.4byte	0x10fc
 2895 0fc8 02000000 		.4byte	.LBB111
 2896 0fcc 00000000 		.4byte	.Ldebug_ranges0+0
 2897 0fd0 01       		.byte	0x1
 2898 0fd1 8A       		.byte	0x8a
 2899 0fd2 E00F0000 		.4byte	0xfe0
 2900 0fd6 22       		.uleb128 0x22
 2901 0fd7 0D110000 		.4byte	0x110d
 2902 0fdb D1050000 		.4byte	.LLST7
 2903 0fdf 00       		.byte	0
 2904 0fe0 28       		.uleb128 0x28
 2905 0fe1 28000000 		.4byte	.LVL9
 2906 0fe5 E2110000 		.4byte	0x11e2
 2907 0fe9 29       		.uleb128 0x29
ARM GAS  /var/folders/qd/4mxf5pkd0zdf0b9dd1hp39180000gn/T//cc0AuJk0.s 			page 52


 2908 0fea 01       		.uleb128 0x1
 2909 0feb 51       		.byte	0x51
 2910 0fec 01       		.uleb128 0x1
 2911 0fed 30       		.byte	0x30
 2912 0fee 00       		.byte	0
 2913 0fef 00       		.byte	0
 2914 0ff0 3A       		.uleb128 0x3a
 2915 0ff1 BB020000 		.4byte	.LASF152
 2916 0ff5 01       		.byte	0x1
 2917 0ff6 6F       		.byte	0x6f
 2918 0ff7 00000000 		.4byte	.LFB230
 2919 0ffb 12000000 		.4byte	.LFE230-.LFB230
 2920 0fff 01       		.uleb128 0x1
 2921 1000 9C       		.byte	0x9c
 2922 1001 2C100000 		.4byte	0x102c
 2923 1005 33       		.uleb128 0x33
 2924 1006 69717000 		.ascii	"iqp\000"
 2925 100a 01       		.byte	0x1
 2926 100b 6F       		.byte	0x6f
 2927 100c 250E0000 		.4byte	0xe25
 2928 1010 FD050000 		.4byte	.LLST4
 2929 1014 2F       		.uleb128 0x2f
 2930 1015 12000000 		.4byte	.LVL5
 2931 1019 ED110000 		.4byte	0x11ed
 2932 101d 29       		.uleb128 0x29
 2933 101e 01       		.uleb128 0x1
 2934 101f 50       		.byte	0x50
 2935 1020 03       		.uleb128 0x3
 2936 1021 F3       		.byte	0xf3
 2937 1022 01       		.uleb128 0x1
 2938 1023 50       		.byte	0x50
 2939 1024 29       		.uleb128 0x29
 2940 1025 01       		.uleb128 0x1
 2941 1026 51       		.byte	0x51
 2942 1027 02       		.uleb128 0x2
 2943 1028 09       		.byte	0x9
 2944 1029 FE       		.byte	0xfe
 2945 102a 00       		.byte	0
 2946 102b 00       		.byte	0
 2947 102c 3A       		.uleb128 0x3a
 2948 102d A6000000 		.4byte	.LASF153
 2949 1031 01       		.byte	0x1
 2950 1032 57       		.byte	0x57
 2951 1033 00000000 		.4byte	.LFB229
 2952 1037 1E000000 		.4byte	.LFE229-.LFB229
 2953 103b 01       		.uleb128 0x1
 2954 103c 9C       		.byte	0x9c
 2955 103d B9100000 		.4byte	0x10b9
 2956 1041 3B       		.uleb128 0x3b
 2957 1042 69717000 		.ascii	"iqp\000"
 2958 1046 01       		.byte	0x1
 2959 1047 57       		.byte	0x57
 2960 1048 250E0000 		.4byte	0xe25
 2961 104c 01       		.uleb128 0x1
 2962 104d 50       		.byte	0x50
 2963 104e 3B       		.uleb128 0x3b
 2964 104f 627000   		.ascii	"bp\000"
ARM GAS  /var/folders/qd/4mxf5pkd0zdf0b9dd1hp39180000gn/T//cc0AuJk0.s 			page 53


 2965 1052 01       		.byte	0x1
 2966 1053 57       		.byte	0x57
 2967 1054 09080000 		.4byte	0x809
 2968 1058 01       		.uleb128 0x1
 2969 1059 51       		.byte	0x51
 2970 105a 34       		.uleb128 0x34
 2971 105b 31080000 		.4byte	.LASF145
 2972 105f 01       		.byte	0x1
 2973 1060 57       		.byte	0x57
 2974 1061 2C000000 		.4byte	0x2c
 2975 1065 1E060000 		.4byte	.LLST0
 2976 1069 3C       		.uleb128 0x3c
 2977 106a 69060000 		.4byte	.LASF154
 2978 106e 01       		.byte	0x1
 2979 106f 58       		.byte	0x58
 2980 1070 E7070000 		.4byte	0x7e7
 2981 1074 01       		.uleb128 0x1
 2982 1075 53       		.byte	0x53
 2983 1076 34       		.uleb128 0x34
 2984 1077 53020000 		.4byte	.LASF147
 2985 107b 01       		.byte	0x1
 2986 107c 58       		.byte	0x58
 2987 107d 38030000 		.4byte	0x338
 2988 1081 3F060000 		.4byte	.LLST1
 2989 1085 3D       		.uleb128 0x3d
 2990 1086 38110000 		.4byte	0x1138
 2991 108a 0E000000 		.4byte	.LBB108
 2992 108e 04000000 		.4byte	.LBE108-.LBB108
 2993 1092 01       		.byte	0x1
 2994 1093 5A       		.byte	0x5a
 2995 1094 22       		.uleb128 0x22
 2996 1095 45110000 		.4byte	0x1145
 2997 1099 5F060000 		.4byte	.LLST2
 2998 109d 21       		.uleb128 0x21
 2999 109e 91110000 		.4byte	0x1191
 3000 10a2 0E000000 		.4byte	.LBB109
 3001 10a6 04000000 		.4byte	.LBE109-.LBB109
 3002 10aa 13       		.byte	0x13
 3003 10ab 1801     		.2byte	0x118
 3004 10ad 22       		.uleb128 0x22
 3005 10ae 9E110000 		.4byte	0x119e
 3006 10b2 5F060000 		.4byte	.LLST2
 3007 10b6 00       		.byte	0
 3008 10b7 00       		.byte	0
 3009 10b8 00       		.byte	0
 3010 10b9 3E       		.uleb128 0x3e
 3011 10ba E2050000 		.4byte	.LASF156
 3012 10be 03       		.byte	0x3
 3013 10bf 9301     		.2byte	0x193
 3014 10c1 D7100000 		.4byte	0x10d7
 3015 10c5 03       		.byte	0x3
 3016 10c6 D7100000 		.4byte	0x10d7
 3017 10ca 3F       		.uleb128 0x3f
 3018 10cb 6F717000 		.ascii	"oqp\000"
 3019 10cf 03       		.byte	0x3
 3020 10d0 9301     		.2byte	0x193
 3021 10d2 D9090000 		.4byte	0x9d9
ARM GAS  /var/folders/qd/4mxf5pkd0zdf0b9dd1hp39180000gn/T//cc0AuJk0.s 			page 54


 3022 10d6 00       		.byte	0
 3023 10d7 04       		.uleb128 0x4
 3024 10d8 01       		.byte	0x1
 3025 10d9 02       		.byte	0x2
 3026 10da 0E060000 		.4byte	.LASF155
 3027 10de 3E       		.uleb128 0x3e
 3028 10df 36080000 		.4byte	.LASF157
 3029 10e3 03       		.byte	0x3
 3030 10e4 8201     		.2byte	0x182
 3031 10e6 D7100000 		.4byte	0x10d7
 3032 10ea 03       		.byte	0x3
 3033 10eb FC100000 		.4byte	0x10fc
 3034 10ef 3F       		.uleb128 0x3f
 3035 10f0 6F717000 		.ascii	"oqp\000"
 3036 10f4 03       		.byte	0x3
 3037 10f5 8201     		.2byte	0x182
 3038 10f7 D9090000 		.4byte	0x9d9
 3039 10fb 00       		.byte	0
 3040 10fc 3E       		.uleb128 0x3e
 3041 10fd DE060000 		.4byte	.LASF158
 3042 1101 03       		.byte	0x3
 3043 1102 4001     		.2byte	0x140
 3044 1104 D7100000 		.4byte	0x10d7
 3045 1108 03       		.byte	0x3
 3046 1109 1A110000 		.4byte	0x111a
 3047 110d 3F       		.uleb128 0x3f
 3048 110e 69717000 		.ascii	"iqp\000"
 3049 1112 03       		.byte	0x3
 3050 1113 4001     		.2byte	0x140
 3051 1115 250E0000 		.4byte	0xe25
 3052 1119 00       		.byte	0
 3053 111a 3E       		.uleb128 0x3e
 3054 111b F3070000 		.4byte	.LASF159
 3055 111f 03       		.byte	0x3
 3056 1120 2F01     		.2byte	0x12f
 3057 1122 D7100000 		.4byte	0x10d7
 3058 1126 03       		.byte	0x3
 3059 1127 38110000 		.4byte	0x1138
 3060 112b 3F       		.uleb128 0x3f
 3061 112c 69717000 		.ascii	"iqp\000"
 3062 1130 03       		.byte	0x3
 3063 1131 2F01     		.2byte	0x12f
 3064 1133 250E0000 		.4byte	0xe25
 3065 1137 00       		.byte	0
 3066 1138 40       		.uleb128 0x40
 3067 1139 7E030000 		.4byte	.LASF160
 3068 113d 13       		.byte	0x13
 3069 113e 1601     		.2byte	0x116
 3070 1140 03       		.byte	0x3
 3071 1141 52110000 		.4byte	0x1152
 3072 1145 3F       		.uleb128 0x3f
 3073 1146 74717000 		.ascii	"tqp\000"
 3074 114a 13       		.byte	0x13
 3075 114b 1601     		.2byte	0x116
 3076 114d 52110000 		.4byte	0x1152
 3077 1151 00       		.byte	0
 3078 1152 0B       		.uleb128 0xb
ARM GAS  /var/folders/qd/4mxf5pkd0zdf0b9dd1hp39180000gn/T//cc0AuJk0.s 			page 55


 3079 1153 04       		.byte	0x4
 3080 1154 85020000 		.4byte	0x285
 3081 1158 40       		.uleb128 0x40
 3082 1159 5A080000 		.4byte	.LASF161
 3083 115d 12       		.byte	0x12
 3084 115e 6601     		.2byte	0x166
 3085 1160 03       		.byte	0x3
 3086 1161 73110000 		.4byte	0x1173
 3087 1165 41       		.uleb128 0x41
 3088 1166 85060000 		.4byte	.LASF149
 3089 116a 83110000 		.4byte	0x1183
 3090 116e 5A080000 		.4byte	.LASF161
 3091 1172 00       		.byte	0
 3092 1173 17       		.uleb128 0x17
 3093 1174 2C060000 		.4byte	0x62c
 3094 1178 83110000 		.4byte	0x1183
 3095 117c 18       		.uleb128 0x18
 3096 117d 37000000 		.4byte	0x37
 3097 1181 0B       		.byte	0xb
 3098 1182 00       		.byte	0
 3099 1183 05       		.uleb128 0x5
 3100 1184 73110000 		.4byte	0x1173
 3101 1188 42       		.uleb128 0x42
 3102 1189 8E060000 		.4byte	.LASF163
 3103 118d 12       		.byte	0x12
 3104 118e 5A01     		.2byte	0x15a
 3105 1190 03       		.byte	0x3
 3106 1191 40       		.uleb128 0x40
 3107 1192 8B000000 		.4byte	.LASF162
 3108 1196 02       		.byte	0x2
 3109 1197 5A02     		.2byte	0x25a
 3110 1199 03       		.byte	0x3
 3111 119a AB110000 		.4byte	0x11ab
 3112 119e 3F       		.uleb128 0x3f
 3113 119f 74717000 		.ascii	"tqp\000"
 3114 11a3 02       		.byte	0x2
 3115 11a4 5A02     		.2byte	0x25a
 3116 11a6 52110000 		.4byte	0x1152
 3117 11aa 00       		.byte	0
 3118 11ab 42       		.uleb128 0x42
 3119 11ac B7010000 		.4byte	.LASF164
 3120 11b0 0D       		.byte	0xd
 3121 11b1 CA01     		.2byte	0x1ca
 3122 11b3 03       		.byte	0x3
 3123 11b4 42       		.uleb128 0x42
 3124 11b5 96000000 		.4byte	.LASF165
 3125 11b9 0D       		.byte	0xd
 3126 11ba BC01     		.2byte	0x1bc
 3127 11bc 03       		.byte	0x3
 3128 11bd 40       		.uleb128 0x40
 3129 11be 8A070000 		.4byte	.LASF166
 3130 11c2 04       		.byte	0x4
 3131 11c3 2002     		.2byte	0x220
 3132 11c5 03       		.byte	0x3
 3133 11c6 D7110000 		.4byte	0x11d7
 3134 11ca 43       		.uleb128 0x43
 3135 11cb 69020000 		.4byte	.LASF167
ARM GAS  /var/folders/qd/4mxf5pkd0zdf0b9dd1hp39180000gn/T//cc0AuJk0.s 			page 56


 3136 11cf 04       		.byte	0x4
 3137 11d0 2002     		.2byte	0x220
 3138 11d2 DF000000 		.4byte	0xdf
 3139 11d6 00       		.byte	0
 3140 11d7 44       		.uleb128 0x44
 3141 11d8 A5080000 		.4byte	.LASF168
 3142 11dc A5080000 		.4byte	.LASF168
 3143 11e0 13       		.byte	0x13
 3144 11e1 92       		.byte	0x92
 3145 11e2 44       		.uleb128 0x44
 3146 11e3 18020000 		.4byte	.LASF169
 3147 11e7 18020000 		.4byte	.LASF169
 3148 11eb 13       		.byte	0x13
 3149 11ec 93       		.byte	0x93
 3150 11ed 44       		.uleb128 0x44
 3151 11ee 45000000 		.4byte	.LASF170
 3152 11f2 45000000 		.4byte	.LASF170
 3153 11f6 13       		.byte	0x13
 3154 11f7 94       		.byte	0x94
 3155 11f8 00       		.byte	0
 3156              		.section	.debug_abbrev,"",%progbits
 3157              	.Ldebug_abbrev0:
 3158 0000 01       		.uleb128 0x1
 3159 0001 11       		.uleb128 0x11
 3160 0002 01       		.byte	0x1
 3161 0003 25       		.uleb128 0x25
 3162 0004 0E       		.uleb128 0xe
 3163 0005 13       		.uleb128 0x13
 3164 0006 0B       		.uleb128 0xb
 3165 0007 03       		.uleb128 0x3
 3166 0008 0E       		.uleb128 0xe
 3167 0009 1B       		.uleb128 0x1b
 3168 000a 0E       		.uleb128 0xe
 3169 000b 55       		.uleb128 0x55
 3170 000c 17       		.uleb128 0x17
 3171 000d 11       		.uleb128 0x11
 3172 000e 01       		.uleb128 0x1
 3173 000f 10       		.uleb128 0x10
 3174 0010 17       		.uleb128 0x17
 3175 0011 00       		.byte	0
 3176 0012 00       		.byte	0
 3177 0013 02       		.uleb128 0x2
 3178 0014 24       		.uleb128 0x24
 3179 0015 00       		.byte	0
 3180 0016 0B       		.uleb128 0xb
 3181 0017 0B       		.uleb128 0xb
 3182 0018 3E       		.uleb128 0x3e
 3183 0019 0B       		.uleb128 0xb
 3184 001a 03       		.uleb128 0x3
 3185 001b 08       		.uleb128 0x8
 3186 001c 00       		.byte	0
 3187 001d 00       		.byte	0
 3188 001e 03       		.uleb128 0x3
 3189 001f 16       		.uleb128 0x16
 3190 0020 00       		.byte	0
 3191 0021 03       		.uleb128 0x3
 3192 0022 0E       		.uleb128 0xe
ARM GAS  /var/folders/qd/4mxf5pkd0zdf0b9dd1hp39180000gn/T//cc0AuJk0.s 			page 57


 3193 0023 3A       		.uleb128 0x3a
 3194 0024 0B       		.uleb128 0xb
 3195 0025 3B       		.uleb128 0x3b
 3196 0026 0B       		.uleb128 0xb
 3197 0027 49       		.uleb128 0x49
 3198 0028 13       		.uleb128 0x13
 3199 0029 00       		.byte	0
 3200 002a 00       		.byte	0
 3201 002b 04       		.uleb128 0x4
 3202 002c 24       		.uleb128 0x24
 3203 002d 00       		.byte	0
 3204 002e 0B       		.uleb128 0xb
 3205 002f 0B       		.uleb128 0xb
 3206 0030 3E       		.uleb128 0x3e
 3207 0031 0B       		.uleb128 0xb
 3208 0032 03       		.uleb128 0x3
 3209 0033 0E       		.uleb128 0xe
 3210 0034 00       		.byte	0
 3211 0035 00       		.byte	0
 3212 0036 05       		.uleb128 0x5
 3213 0037 26       		.uleb128 0x26
 3214 0038 00       		.byte	0
 3215 0039 49       		.uleb128 0x49
 3216 003a 13       		.uleb128 0x13
 3217 003b 00       		.byte	0
 3218 003c 00       		.byte	0
 3219 003d 06       		.uleb128 0x6
 3220 003e 35       		.uleb128 0x35
 3221 003f 00       		.byte	0
 3222 0040 49       		.uleb128 0x49
 3223 0041 13       		.uleb128 0x13
 3224 0042 00       		.byte	0
 3225 0043 00       		.byte	0
 3226 0044 07       		.uleb128 0x7
 3227 0045 13       		.uleb128 0x13
 3228 0046 01       		.byte	0x1
 3229 0047 03       		.uleb128 0x3
 3230 0048 0E       		.uleb128 0xe
 3231 0049 0B       		.uleb128 0xb
 3232 004a 0B       		.uleb128 0xb
 3233 004b 3A       		.uleb128 0x3a
 3234 004c 0B       		.uleb128 0xb
 3235 004d 3B       		.uleb128 0x3b
 3236 004e 0B       		.uleb128 0xb
 3237 004f 01       		.uleb128 0x1
 3238 0050 13       		.uleb128 0x13
 3239 0051 00       		.byte	0
 3240 0052 00       		.byte	0
 3241 0053 08       		.uleb128 0x8
 3242 0054 0D       		.uleb128 0xd
 3243 0055 00       		.byte	0
 3244 0056 03       		.uleb128 0x3
 3245 0057 0E       		.uleb128 0xe
 3246 0058 3A       		.uleb128 0x3a
 3247 0059 0B       		.uleb128 0xb
 3248 005a 3B       		.uleb128 0x3b
 3249 005b 0B       		.uleb128 0xb
ARM GAS  /var/folders/qd/4mxf5pkd0zdf0b9dd1hp39180000gn/T//cc0AuJk0.s 			page 58


 3250 005c 49       		.uleb128 0x49
 3251 005d 13       		.uleb128 0x13
 3252 005e 38       		.uleb128 0x38
 3253 005f 0B       		.uleb128 0xb
 3254 0060 00       		.byte	0
 3255 0061 00       		.byte	0
 3256 0062 09       		.uleb128 0x9
 3257 0063 0D       		.uleb128 0xd
 3258 0064 00       		.byte	0
 3259 0065 03       		.uleb128 0x3
 3260 0066 08       		.uleb128 0x8
 3261 0067 3A       		.uleb128 0x3a
 3262 0068 0B       		.uleb128 0xb
 3263 0069 3B       		.uleb128 0x3b
 3264 006a 05       		.uleb128 0x5
 3265 006b 49       		.uleb128 0x49
 3266 006c 13       		.uleb128 0x13
 3267 006d 38       		.uleb128 0x38
 3268 006e 0B       		.uleb128 0xb
 3269 006f 00       		.byte	0
 3270 0070 00       		.byte	0
 3271 0071 0A       		.uleb128 0xa
 3272 0072 0D       		.uleb128 0xd
 3273 0073 00       		.byte	0
 3274 0074 03       		.uleb128 0x3
 3275 0075 0E       		.uleb128 0xe
 3276 0076 3A       		.uleb128 0x3a
 3277 0077 0B       		.uleb128 0xb
 3278 0078 3B       		.uleb128 0x3b
 3279 0079 05       		.uleb128 0x5
 3280 007a 49       		.uleb128 0x49
 3281 007b 13       		.uleb128 0x13
 3282 007c 38       		.uleb128 0x38
 3283 007d 0B       		.uleb128 0xb
 3284 007e 00       		.byte	0
 3285 007f 00       		.byte	0
 3286 0080 0B       		.uleb128 0xb
 3287 0081 0F       		.uleb128 0xf
 3288 0082 00       		.byte	0
 3289 0083 0B       		.uleb128 0xb
 3290 0084 0B       		.uleb128 0xb
 3291 0085 49       		.uleb128 0x49
 3292 0086 13       		.uleb128 0x13
 3293 0087 00       		.byte	0
 3294 0088 00       		.byte	0
 3295 0089 0C       		.uleb128 0xc
 3296 008a 13       		.uleb128 0x13
 3297 008b 01       		.byte	0x1
 3298 008c 03       		.uleb128 0x3
 3299 008d 0E       		.uleb128 0xe
 3300 008e 0B       		.uleb128 0xb
 3301 008f 0B       		.uleb128 0xb
 3302 0090 3A       		.uleb128 0x3a
 3303 0091 0B       		.uleb128 0xb
 3304 0092 3B       		.uleb128 0x3b
 3305 0093 05       		.uleb128 0x5
 3306 0094 01       		.uleb128 0x1
ARM GAS  /var/folders/qd/4mxf5pkd0zdf0b9dd1hp39180000gn/T//cc0AuJk0.s 			page 59


 3307 0095 13       		.uleb128 0x13
 3308 0096 00       		.byte	0
 3309 0097 00       		.byte	0
 3310 0098 0D       		.uleb128 0xd
 3311 0099 15       		.uleb128 0x15
 3312 009a 01       		.byte	0x1
 3313 009b 27       		.uleb128 0x27
 3314 009c 19       		.uleb128 0x19
 3315 009d 01       		.uleb128 0x1
 3316 009e 13       		.uleb128 0x13
 3317 009f 00       		.byte	0
 3318 00a0 00       		.byte	0
 3319 00a1 0E       		.uleb128 0xe
 3320 00a2 05       		.uleb128 0x5
 3321 00a3 00       		.byte	0
 3322 00a4 49       		.uleb128 0x49
 3323 00a5 13       		.uleb128 0x13
 3324 00a6 00       		.byte	0
 3325 00a7 00       		.byte	0
 3326 00a8 0F       		.uleb128 0xf
 3327 00a9 0F       		.uleb128 0xf
 3328 00aa 00       		.byte	0
 3329 00ab 0B       		.uleb128 0xb
 3330 00ac 0B       		.uleb128 0xb
 3331 00ad 00       		.byte	0
 3332 00ae 00       		.byte	0
 3333 00af 10       		.uleb128 0x10
 3334 00b0 13       		.uleb128 0x13
 3335 00b1 01       		.byte	0x1
 3336 00b2 03       		.uleb128 0x3
 3337 00b3 0E       		.uleb128 0xe
 3338 00b4 0B       		.uleb128 0xb
 3339 00b5 05       		.uleb128 0x5
 3340 00b6 3A       		.uleb128 0x3a
 3341 00b7 0B       		.uleb128 0xb
 3342 00b8 3B       		.uleb128 0x3b
 3343 00b9 05       		.uleb128 0x5
 3344 00ba 01       		.uleb128 0x1
 3345 00bb 13       		.uleb128 0x13
 3346 00bc 00       		.byte	0
 3347 00bd 00       		.byte	0
 3348 00be 11       		.uleb128 0x11
 3349 00bf 34       		.uleb128 0x34
 3350 00c0 00       		.byte	0
 3351 00c1 03       		.uleb128 0x3
 3352 00c2 0E       		.uleb128 0xe
 3353 00c3 3A       		.uleb128 0x3a
 3354 00c4 0B       		.uleb128 0xb
 3355 00c5 3B       		.uleb128 0x3b
 3356 00c6 05       		.uleb128 0x5
 3357 00c7 49       		.uleb128 0x49
 3358 00c8 13       		.uleb128 0x13
 3359 00c9 3F       		.uleb128 0x3f
 3360 00ca 19       		.uleb128 0x19
 3361 00cb 3C       		.uleb128 0x3c
 3362 00cc 19       		.uleb128 0x19
 3363 00cd 00       		.byte	0
ARM GAS  /var/folders/qd/4mxf5pkd0zdf0b9dd1hp39180000gn/T//cc0AuJk0.s 			page 60


 3364 00ce 00       		.byte	0
 3365 00cf 12       		.uleb128 0x12
 3366 00d0 34       		.uleb128 0x34
 3367 00d1 00       		.byte	0
 3368 00d2 03       		.uleb128 0x3
 3369 00d3 0E       		.uleb128 0xe
 3370 00d4 3A       		.uleb128 0x3a
 3371 00d5 0B       		.uleb128 0xb
 3372 00d6 3B       		.uleb128 0x3b
 3373 00d7 0B       		.uleb128 0xb
 3374 00d8 49       		.uleb128 0x49
 3375 00d9 13       		.uleb128 0x13
 3376 00da 3F       		.uleb128 0x3f
 3377 00db 19       		.uleb128 0x19
 3378 00dc 3C       		.uleb128 0x3c
 3379 00dd 19       		.uleb128 0x19
 3380 00de 00       		.byte	0
 3381 00df 00       		.byte	0
 3382 00e0 13       		.uleb128 0x13
 3383 00e1 0D       		.uleb128 0xd
 3384 00e2 00       		.byte	0
 3385 00e3 03       		.uleb128 0x3
 3386 00e4 08       		.uleb128 0x8
 3387 00e5 3A       		.uleb128 0x3a
 3388 00e6 0B       		.uleb128 0xb
 3389 00e7 3B       		.uleb128 0x3b
 3390 00e8 0B       		.uleb128 0xb
 3391 00e9 49       		.uleb128 0x49
 3392 00ea 13       		.uleb128 0x13
 3393 00eb 38       		.uleb128 0x38
 3394 00ec 0B       		.uleb128 0xb
 3395 00ed 00       		.byte	0
 3396 00ee 00       		.byte	0
 3397 00ef 14       		.uleb128 0x14
 3398 00f0 13       		.uleb128 0x13
 3399 00f1 01       		.byte	0x1
 3400 00f2 0B       		.uleb128 0xb
 3401 00f3 0B       		.uleb128 0xb
 3402 00f4 3A       		.uleb128 0x3a
 3403 00f5 0B       		.uleb128 0xb
 3404 00f6 3B       		.uleb128 0x3b
 3405 00f7 0B       		.uleb128 0xb
 3406 00f8 01       		.uleb128 0x1
 3407 00f9 13       		.uleb128 0x13
 3408 00fa 00       		.byte	0
 3409 00fb 00       		.byte	0
 3410 00fc 15       		.uleb128 0x15
 3411 00fd 17       		.uleb128 0x17
 3412 00fe 01       		.byte	0x1
 3413 00ff 0B       		.uleb128 0xb
 3414 0100 0B       		.uleb128 0xb
 3415 0101 3A       		.uleb128 0x3a
 3416 0102 0B       		.uleb128 0xb
 3417 0103 3B       		.uleb128 0x3b
 3418 0104 0B       		.uleb128 0xb
 3419 0105 01       		.uleb128 0x1
 3420 0106 13       		.uleb128 0x13
ARM GAS  /var/folders/qd/4mxf5pkd0zdf0b9dd1hp39180000gn/T//cc0AuJk0.s 			page 61


 3421 0107 00       		.byte	0
 3422 0108 00       		.byte	0
 3423 0109 16       		.uleb128 0x16
 3424 010a 0D       		.uleb128 0xd
 3425 010b 00       		.byte	0
 3426 010c 03       		.uleb128 0x3
 3427 010d 0E       		.uleb128 0xe
 3428 010e 3A       		.uleb128 0x3a
 3429 010f 0B       		.uleb128 0xb
 3430 0110 3B       		.uleb128 0x3b
 3431 0111 05       		.uleb128 0x5
 3432 0112 49       		.uleb128 0x49
 3433 0113 13       		.uleb128 0x13
 3434 0114 00       		.byte	0
 3435 0115 00       		.byte	0
 3436 0116 17       		.uleb128 0x17
 3437 0117 01       		.uleb128 0x1
 3438 0118 01       		.byte	0x1
 3439 0119 49       		.uleb128 0x49
 3440 011a 13       		.uleb128 0x13
 3441 011b 01       		.uleb128 0x1
 3442 011c 13       		.uleb128 0x13
 3443 011d 00       		.byte	0
 3444 011e 00       		.byte	0
 3445 011f 18       		.uleb128 0x18
 3446 0120 21       		.uleb128 0x21
 3447 0121 00       		.byte	0
 3448 0122 49       		.uleb128 0x49
 3449 0123 13       		.uleb128 0x13
 3450 0124 2F       		.uleb128 0x2f
 3451 0125 0B       		.uleb128 0xb
 3452 0126 00       		.byte	0
 3453 0127 00       		.byte	0
 3454 0128 19       		.uleb128 0x19
 3455 0129 34       		.uleb128 0x34
 3456 012a 00       		.byte	0
 3457 012b 03       		.uleb128 0x3
 3458 012c 08       		.uleb128 0x8
 3459 012d 3A       		.uleb128 0x3a
 3460 012e 0B       		.uleb128 0xb
 3461 012f 3B       		.uleb128 0x3b
 3462 0130 05       		.uleb128 0x5
 3463 0131 49       		.uleb128 0x49
 3464 0132 13       		.uleb128 0x13
 3465 0133 3F       		.uleb128 0x3f
 3466 0134 19       		.uleb128 0x19
 3467 0135 3C       		.uleb128 0x3c
 3468 0136 19       		.uleb128 0x19
 3469 0137 00       		.byte	0
 3470 0138 00       		.byte	0
 3471 0139 1A       		.uleb128 0x1a
 3472 013a 2E       		.uleb128 0x2e
 3473 013b 01       		.byte	0x1
 3474 013c 3F       		.uleb128 0x3f
 3475 013d 19       		.uleb128 0x19
 3476 013e 03       		.uleb128 0x3
 3477 013f 0E       		.uleb128 0xe
ARM GAS  /var/folders/qd/4mxf5pkd0zdf0b9dd1hp39180000gn/T//cc0AuJk0.s 			page 62


 3478 0140 3A       		.uleb128 0x3a
 3479 0141 0B       		.uleb128 0xb
 3480 0142 3B       		.uleb128 0x3b
 3481 0143 05       		.uleb128 0x5
 3482 0144 27       		.uleb128 0x27
 3483 0145 19       		.uleb128 0x19
 3484 0146 49       		.uleb128 0x49
 3485 0147 13       		.uleb128 0x13
 3486 0148 11       		.uleb128 0x11
 3487 0149 01       		.uleb128 0x1
 3488 014a 12       		.uleb128 0x12
 3489 014b 06       		.uleb128 0x6
 3490 014c 40       		.uleb128 0x40
 3491 014d 18       		.uleb128 0x18
 3492 014e 9642     		.uleb128 0x2116
 3493 0150 19       		.uleb128 0x19
 3494 0151 01       		.uleb128 0x1
 3495 0152 13       		.uleb128 0x13
 3496 0153 00       		.byte	0
 3497 0154 00       		.byte	0
 3498 0155 1B       		.uleb128 0x1b
 3499 0156 05       		.uleb128 0x5
 3500 0157 00       		.byte	0
 3501 0158 03       		.uleb128 0x3
 3502 0159 08       		.uleb128 0x8
 3503 015a 3A       		.uleb128 0x3a
 3504 015b 0B       		.uleb128 0xb
 3505 015c 3B       		.uleb128 0x3b
 3506 015d 05       		.uleb128 0x5
 3507 015e 49       		.uleb128 0x49
 3508 015f 13       		.uleb128 0x13
 3509 0160 02       		.uleb128 0x2
 3510 0161 17       		.uleb128 0x17
 3511 0162 00       		.byte	0
 3512 0163 00       		.byte	0
 3513 0164 1C       		.uleb128 0x1c
 3514 0165 05       		.uleb128 0x5
 3515 0166 00       		.byte	0
 3516 0167 03       		.uleb128 0x3
 3517 0168 0E       		.uleb128 0xe
 3518 0169 3A       		.uleb128 0x3a
 3519 016a 0B       		.uleb128 0xb
 3520 016b 3B       		.uleb128 0x3b
 3521 016c 05       		.uleb128 0x5
 3522 016d 49       		.uleb128 0x49
 3523 016e 13       		.uleb128 0x13
 3524 016f 02       		.uleb128 0x2
 3525 0170 17       		.uleb128 0x17
 3526 0171 00       		.byte	0
 3527 0172 00       		.byte	0
 3528 0173 1D       		.uleb128 0x1d
 3529 0174 34       		.uleb128 0x34
 3530 0175 00       		.byte	0
 3531 0176 03       		.uleb128 0x3
 3532 0177 08       		.uleb128 0x8
 3533 0178 3A       		.uleb128 0x3a
 3534 0179 0B       		.uleb128 0xb
ARM GAS  /var/folders/qd/4mxf5pkd0zdf0b9dd1hp39180000gn/T//cc0AuJk0.s 			page 63


 3535 017a 3B       		.uleb128 0x3b
 3536 017b 05       		.uleb128 0x5
 3537 017c 49       		.uleb128 0x49
 3538 017d 13       		.uleb128 0x13
 3539 017e 02       		.uleb128 0x2
 3540 017f 18       		.uleb128 0x18
 3541 0180 00       		.byte	0
 3542 0181 00       		.byte	0
 3543 0182 1E       		.uleb128 0x1e
 3544 0183 34       		.uleb128 0x34
 3545 0184 00       		.byte	0
 3546 0185 03       		.uleb128 0x3
 3547 0186 08       		.uleb128 0x8
 3548 0187 3A       		.uleb128 0x3a
 3549 0188 0B       		.uleb128 0xb
 3550 0189 3B       		.uleb128 0x3b
 3551 018a 05       		.uleb128 0x5
 3552 018b 49       		.uleb128 0x49
 3553 018c 13       		.uleb128 0x13
 3554 018d 02       		.uleb128 0x2
 3555 018e 17       		.uleb128 0x17
 3556 018f 00       		.byte	0
 3557 0190 00       		.byte	0
 3558 0191 1F       		.uleb128 0x1f
 3559 0192 34       		.uleb128 0x34
 3560 0193 00       		.byte	0
 3561 0194 03       		.uleb128 0x3
 3562 0195 0E       		.uleb128 0xe
 3563 0196 49       		.uleb128 0x49
 3564 0197 13       		.uleb128 0x13
 3565 0198 34       		.uleb128 0x34
 3566 0199 19       		.uleb128 0x19
 3567 019a 00       		.byte	0
 3568 019b 00       		.byte	0
 3569 019c 20       		.uleb128 0x20
 3570 019d 1D       		.uleb128 0x1d
 3571 019e 01       		.byte	0x1
 3572 019f 31       		.uleb128 0x31
 3573 01a0 13       		.uleb128 0x13
 3574 01a1 11       		.uleb128 0x11
 3575 01a2 01       		.uleb128 0x1
 3576 01a3 12       		.uleb128 0x12
 3577 01a4 06       		.uleb128 0x6
 3578 01a5 58       		.uleb128 0x58
 3579 01a6 0B       		.uleb128 0xb
 3580 01a7 59       		.uleb128 0x59
 3581 01a8 05       		.uleb128 0x5
 3582 01a9 01       		.uleb128 0x1
 3583 01aa 13       		.uleb128 0x13
 3584 01ab 00       		.byte	0
 3585 01ac 00       		.byte	0
 3586 01ad 21       		.uleb128 0x21
 3587 01ae 1D       		.uleb128 0x1d
 3588 01af 01       		.byte	0x1
 3589 01b0 31       		.uleb128 0x31
 3590 01b1 13       		.uleb128 0x13
 3591 01b2 11       		.uleb128 0x11
ARM GAS  /var/folders/qd/4mxf5pkd0zdf0b9dd1hp39180000gn/T//cc0AuJk0.s 			page 64


 3592 01b3 01       		.uleb128 0x1
 3593 01b4 12       		.uleb128 0x12
 3594 01b5 06       		.uleb128 0x6
 3595 01b6 58       		.uleb128 0x58
 3596 01b7 0B       		.uleb128 0xb
 3597 01b8 59       		.uleb128 0x59
 3598 01b9 05       		.uleb128 0x5
 3599 01ba 00       		.byte	0
 3600 01bb 00       		.byte	0
 3601 01bc 22       		.uleb128 0x22
 3602 01bd 05       		.uleb128 0x5
 3603 01be 00       		.byte	0
 3604 01bf 31       		.uleb128 0x31
 3605 01c0 13       		.uleb128 0x13
 3606 01c1 02       		.uleb128 0x2
 3607 01c2 17       		.uleb128 0x17
 3608 01c3 00       		.byte	0
 3609 01c4 00       		.byte	0
 3610 01c5 23       		.uleb128 0x23
 3611 01c6 1D       		.uleb128 0x1d
 3612 01c7 01       		.byte	0x1
 3613 01c8 31       		.uleb128 0x31
 3614 01c9 13       		.uleb128 0x13
 3615 01ca 52       		.uleb128 0x52
 3616 01cb 01       		.uleb128 0x1
 3617 01cc 55       		.uleb128 0x55
 3618 01cd 17       		.uleb128 0x17
 3619 01ce 58       		.uleb128 0x58
 3620 01cf 0B       		.uleb128 0xb
 3621 01d0 59       		.uleb128 0x59
 3622 01d1 05       		.uleb128 0x5
 3623 01d2 01       		.uleb128 0x1
 3624 01d3 13       		.uleb128 0x13
 3625 01d4 00       		.byte	0
 3626 01d5 00       		.byte	0
 3627 01d6 24       		.uleb128 0x24
 3628 01d7 0B       		.uleb128 0xb
 3629 01d8 01       		.byte	0x1
 3630 01d9 55       		.uleb128 0x55
 3631 01da 17       		.uleb128 0x17
 3632 01db 00       		.byte	0
 3633 01dc 00       		.byte	0
 3634 01dd 25       		.uleb128 0x25
 3635 01de 34       		.uleb128 0x34
 3636 01df 00       		.byte	0
 3637 01e0 31       		.uleb128 0x31
 3638 01e1 13       		.uleb128 0x13
 3639 01e2 00       		.byte	0
 3640 01e3 00       		.byte	0
 3641 01e4 26       		.uleb128 0x26
 3642 01e5 1D       		.uleb128 0x1d
 3643 01e6 01       		.byte	0x1
 3644 01e7 31       		.uleb128 0x31
 3645 01e8 13       		.uleb128 0x13
 3646 01e9 52       		.uleb128 0x52
 3647 01ea 01       		.uleb128 0x1
 3648 01eb 55       		.uleb128 0x55
ARM GAS  /var/folders/qd/4mxf5pkd0zdf0b9dd1hp39180000gn/T//cc0AuJk0.s 			page 65


 3649 01ec 17       		.uleb128 0x17
 3650 01ed 58       		.uleb128 0x58
 3651 01ee 0B       		.uleb128 0xb
 3652 01ef 59       		.uleb128 0x59
 3653 01f0 05       		.uleb128 0x5
 3654 01f1 00       		.byte	0
 3655 01f2 00       		.byte	0
 3656 01f3 27       		.uleb128 0x27
 3657 01f4 0B       		.uleb128 0xb
 3658 01f5 01       		.byte	0x1
 3659 01f6 11       		.uleb128 0x11
 3660 01f7 01       		.uleb128 0x1
 3661 01f8 12       		.uleb128 0x12
 3662 01f9 06       		.uleb128 0x6
 3663 01fa 00       		.byte	0
 3664 01fb 00       		.byte	0
 3665 01fc 28       		.uleb128 0x28
 3666 01fd 898201   		.uleb128 0x4109
 3667 0200 01       		.byte	0x1
 3668 0201 11       		.uleb128 0x11
 3669 0202 01       		.uleb128 0x1
 3670 0203 31       		.uleb128 0x31
 3671 0204 13       		.uleb128 0x13
 3672 0205 00       		.byte	0
 3673 0206 00       		.byte	0
 3674 0207 29       		.uleb128 0x29
 3675 0208 8A8201   		.uleb128 0x410a
 3676 020b 00       		.byte	0
 3677 020c 02       		.uleb128 0x2
 3678 020d 18       		.uleb128 0x18
 3679 020e 9142     		.uleb128 0x2111
 3680 0210 18       		.uleb128 0x18
 3681 0211 00       		.byte	0
 3682 0212 00       		.byte	0
 3683 0213 2A       		.uleb128 0x2a
 3684 0214 2E       		.uleb128 0x2e
 3685 0215 01       		.byte	0x1
 3686 0216 3F       		.uleb128 0x3f
 3687 0217 19       		.uleb128 0x19
 3688 0218 03       		.uleb128 0x3
 3689 0219 0E       		.uleb128 0xe
 3690 021a 3A       		.uleb128 0x3a
 3691 021b 0B       		.uleb128 0xb
 3692 021c 3B       		.uleb128 0x3b
 3693 021d 05       		.uleb128 0x5
 3694 021e 27       		.uleb128 0x27
 3695 021f 19       		.uleb128 0x19
 3696 0220 49       		.uleb128 0x49
 3697 0221 13       		.uleb128 0x13
 3698 0222 11       		.uleb128 0x11
 3699 0223 01       		.uleb128 0x1
 3700 0224 12       		.uleb128 0x12
 3701 0225 06       		.uleb128 0x6
 3702 0226 40       		.uleb128 0x40
 3703 0227 18       		.uleb128 0x18
 3704 0228 9742     		.uleb128 0x2117
 3705 022a 19       		.uleb128 0x19
ARM GAS  /var/folders/qd/4mxf5pkd0zdf0b9dd1hp39180000gn/T//cc0AuJk0.s 			page 66


 3706 022b 01       		.uleb128 0x1
 3707 022c 13       		.uleb128 0x13
 3708 022d 00       		.byte	0
 3709 022e 00       		.byte	0
 3710 022f 2B       		.uleb128 0x2b
 3711 0230 0B       		.uleb128 0xb
 3712 0231 01       		.byte	0x1
 3713 0232 55       		.uleb128 0x55
 3714 0233 17       		.uleb128 0x17
 3715 0234 01       		.uleb128 0x1
 3716 0235 13       		.uleb128 0x13
 3717 0236 00       		.byte	0
 3718 0237 00       		.byte	0
 3719 0238 2C       		.uleb128 0x2c
 3720 0239 898201   		.uleb128 0x4109
 3721 023c 00       		.byte	0
 3722 023d 11       		.uleb128 0x11
 3723 023e 01       		.uleb128 0x1
 3724 023f 31       		.uleb128 0x31
 3725 0240 13       		.uleb128 0x13
 3726 0241 00       		.byte	0
 3727 0242 00       		.byte	0
 3728 0243 2D       		.uleb128 0x2d
 3729 0244 898201   		.uleb128 0x4109
 3730 0247 01       		.byte	0x1
 3731 0248 11       		.uleb128 0x11
 3732 0249 01       		.uleb128 0x1
 3733 024a 00       		.byte	0
 3734 024b 00       		.byte	0
 3735 024c 2E       		.uleb128 0x2e
 3736 024d 2E       		.uleb128 0x2e
 3737 024e 01       		.byte	0x1
 3738 024f 3F       		.uleb128 0x3f
 3739 0250 19       		.uleb128 0x19
 3740 0251 03       		.uleb128 0x3
 3741 0252 0E       		.uleb128 0xe
 3742 0253 3A       		.uleb128 0x3a
 3743 0254 0B       		.uleb128 0xb
 3744 0255 3B       		.uleb128 0x3b
 3745 0256 05       		.uleb128 0x5
 3746 0257 27       		.uleb128 0x27
 3747 0258 19       		.uleb128 0x19
 3748 0259 11       		.uleb128 0x11
 3749 025a 01       		.uleb128 0x1
 3750 025b 12       		.uleb128 0x12
 3751 025c 06       		.uleb128 0x6
 3752 025d 40       		.uleb128 0x40
 3753 025e 18       		.uleb128 0x18
 3754 025f 9742     		.uleb128 0x2117
 3755 0261 19       		.uleb128 0x19
 3756 0262 01       		.uleb128 0x1
 3757 0263 13       		.uleb128 0x13
 3758 0264 00       		.byte	0
 3759 0265 00       		.byte	0
 3760 0266 2F       		.uleb128 0x2f
 3761 0267 898201   		.uleb128 0x4109
 3762 026a 01       		.byte	0x1
ARM GAS  /var/folders/qd/4mxf5pkd0zdf0b9dd1hp39180000gn/T//cc0AuJk0.s 			page 67


 3763 026b 11       		.uleb128 0x11
 3764 026c 01       		.uleb128 0x1
 3765 026d 9542     		.uleb128 0x2115
 3766 026f 19       		.uleb128 0x19
 3767 0270 31       		.uleb128 0x31
 3768 0271 13       		.uleb128 0x13
 3769 0272 00       		.byte	0
 3770 0273 00       		.byte	0
 3771 0274 30       		.uleb128 0x30
 3772 0275 05       		.uleb128 0x5
 3773 0276 00       		.byte	0
 3774 0277 03       		.uleb128 0x3
 3775 0278 08       		.uleb128 0x8
 3776 0279 3A       		.uleb128 0x3a
 3777 027a 0B       		.uleb128 0xb
 3778 027b 3B       		.uleb128 0x3b
 3779 027c 05       		.uleb128 0x5
 3780 027d 49       		.uleb128 0x49
 3781 027e 13       		.uleb128 0x13
 3782 027f 02       		.uleb128 0x2
 3783 0280 18       		.uleb128 0x18
 3784 0281 00       		.byte	0
 3785 0282 00       		.byte	0
 3786 0283 31       		.uleb128 0x31
 3787 0284 05       		.uleb128 0x5
 3788 0285 00       		.byte	0
 3789 0286 03       		.uleb128 0x3
 3790 0287 0E       		.uleb128 0xe
 3791 0288 3A       		.uleb128 0x3a
 3792 0289 0B       		.uleb128 0xb
 3793 028a 3B       		.uleb128 0x3b
 3794 028b 05       		.uleb128 0x5
 3795 028c 49       		.uleb128 0x49
 3796 028d 13       		.uleb128 0x13
 3797 028e 02       		.uleb128 0x2
 3798 028f 18       		.uleb128 0x18
 3799 0290 00       		.byte	0
 3800 0291 00       		.byte	0
 3801 0292 32       		.uleb128 0x32
 3802 0293 2E       		.uleb128 0x2e
 3803 0294 01       		.byte	0x1
 3804 0295 3F       		.uleb128 0x3f
 3805 0296 19       		.uleb128 0x19
 3806 0297 03       		.uleb128 0x3
 3807 0298 0E       		.uleb128 0xe
 3808 0299 3A       		.uleb128 0x3a
 3809 029a 0B       		.uleb128 0xb
 3810 029b 3B       		.uleb128 0x3b
 3811 029c 0B       		.uleb128 0xb
 3812 029d 27       		.uleb128 0x27
 3813 029e 19       		.uleb128 0x19
 3814 029f 49       		.uleb128 0x49
 3815 02a0 13       		.uleb128 0x13
 3816 02a1 11       		.uleb128 0x11
 3817 02a2 01       		.uleb128 0x1
 3818 02a3 12       		.uleb128 0x12
 3819 02a4 06       		.uleb128 0x6
ARM GAS  /var/folders/qd/4mxf5pkd0zdf0b9dd1hp39180000gn/T//cc0AuJk0.s 			page 68


 3820 02a5 40       		.uleb128 0x40
 3821 02a6 18       		.uleb128 0x18
 3822 02a7 9742     		.uleb128 0x2117
 3823 02a9 19       		.uleb128 0x19
 3824 02aa 01       		.uleb128 0x1
 3825 02ab 13       		.uleb128 0x13
 3826 02ac 00       		.byte	0
 3827 02ad 00       		.byte	0
 3828 02ae 33       		.uleb128 0x33
 3829 02af 05       		.uleb128 0x5
 3830 02b0 00       		.byte	0
 3831 02b1 03       		.uleb128 0x3
 3832 02b2 08       		.uleb128 0x8
 3833 02b3 3A       		.uleb128 0x3a
 3834 02b4 0B       		.uleb128 0xb
 3835 02b5 3B       		.uleb128 0x3b
 3836 02b6 0B       		.uleb128 0xb
 3837 02b7 49       		.uleb128 0x49
 3838 02b8 13       		.uleb128 0x13
 3839 02b9 02       		.uleb128 0x2
 3840 02ba 17       		.uleb128 0x17
 3841 02bb 00       		.byte	0
 3842 02bc 00       		.byte	0
 3843 02bd 34       		.uleb128 0x34
 3844 02be 05       		.uleb128 0x5
 3845 02bf 00       		.byte	0
 3846 02c0 03       		.uleb128 0x3
 3847 02c1 0E       		.uleb128 0xe
 3848 02c2 3A       		.uleb128 0x3a
 3849 02c3 0B       		.uleb128 0xb
 3850 02c4 3B       		.uleb128 0x3b
 3851 02c5 0B       		.uleb128 0xb
 3852 02c6 49       		.uleb128 0x49
 3853 02c7 13       		.uleb128 0x13
 3854 02c8 02       		.uleb128 0x2
 3855 02c9 17       		.uleb128 0x17
 3856 02ca 00       		.byte	0
 3857 02cb 00       		.byte	0
 3858 02cc 35       		.uleb128 0x35
 3859 02cd 34       		.uleb128 0x34
 3860 02ce 00       		.byte	0
 3861 02cf 03       		.uleb128 0x3
 3862 02d0 08       		.uleb128 0x8
 3863 02d1 3A       		.uleb128 0x3a
 3864 02d2 0B       		.uleb128 0xb
 3865 02d3 3B       		.uleb128 0x3b
 3866 02d4 0B       		.uleb128 0xb
 3867 02d5 49       		.uleb128 0x49
 3868 02d6 13       		.uleb128 0x13
 3869 02d7 02       		.uleb128 0x2
 3870 02d8 18       		.uleb128 0x18
 3871 02d9 00       		.byte	0
 3872 02da 00       		.byte	0
 3873 02db 36       		.uleb128 0x36
 3874 02dc 34       		.uleb128 0x34
 3875 02dd 00       		.byte	0
 3876 02de 03       		.uleb128 0x3
ARM GAS  /var/folders/qd/4mxf5pkd0zdf0b9dd1hp39180000gn/T//cc0AuJk0.s 			page 69


 3877 02df 08       		.uleb128 0x8
 3878 02e0 3A       		.uleb128 0x3a
 3879 02e1 0B       		.uleb128 0xb
 3880 02e2 3B       		.uleb128 0x3b
 3881 02e3 0B       		.uleb128 0xb
 3882 02e4 49       		.uleb128 0x49
 3883 02e5 13       		.uleb128 0x13
 3884 02e6 02       		.uleb128 0x2
 3885 02e7 17       		.uleb128 0x17
 3886 02e8 00       		.byte	0
 3887 02e9 00       		.byte	0
 3888 02ea 37       		.uleb128 0x37
 3889 02eb 1D       		.uleb128 0x1d
 3890 02ec 01       		.byte	0x1
 3891 02ed 31       		.uleb128 0x31
 3892 02ee 13       		.uleb128 0x13
 3893 02ef 11       		.uleb128 0x11
 3894 02f0 01       		.uleb128 0x1
 3895 02f1 12       		.uleb128 0x12
 3896 02f2 06       		.uleb128 0x6
 3897 02f3 58       		.uleb128 0x58
 3898 02f4 0B       		.uleb128 0xb
 3899 02f5 59       		.uleb128 0x59
 3900 02f6 0B       		.uleb128 0xb
 3901 02f7 01       		.uleb128 0x1
 3902 02f8 13       		.uleb128 0x13
 3903 02f9 00       		.byte	0
 3904 02fa 00       		.byte	0
 3905 02fb 38       		.uleb128 0x38
 3906 02fc 1D       		.uleb128 0x1d
 3907 02fd 01       		.byte	0x1
 3908 02fe 31       		.uleb128 0x31
 3909 02ff 13       		.uleb128 0x13
 3910 0300 52       		.uleb128 0x52
 3911 0301 01       		.uleb128 0x1
 3912 0302 55       		.uleb128 0x55
 3913 0303 17       		.uleb128 0x17
 3914 0304 58       		.uleb128 0x58
 3915 0305 0B       		.uleb128 0xb
 3916 0306 59       		.uleb128 0x59
 3917 0307 0B       		.uleb128 0xb
 3918 0308 01       		.uleb128 0x1
 3919 0309 13       		.uleb128 0x13
 3920 030a 00       		.byte	0
 3921 030b 00       		.byte	0
 3922 030c 39       		.uleb128 0x39
 3923 030d 898201   		.uleb128 0x4109
 3924 0310 01       		.byte	0x1
 3925 0311 11       		.uleb128 0x11
 3926 0312 01       		.uleb128 0x1
 3927 0313 01       		.uleb128 0x1
 3928 0314 13       		.uleb128 0x13
 3929 0315 00       		.byte	0
 3930 0316 00       		.byte	0
 3931 0317 3A       		.uleb128 0x3a
 3932 0318 2E       		.uleb128 0x2e
 3933 0319 01       		.byte	0x1
ARM GAS  /var/folders/qd/4mxf5pkd0zdf0b9dd1hp39180000gn/T//cc0AuJk0.s 			page 70


 3934 031a 3F       		.uleb128 0x3f
 3935 031b 19       		.uleb128 0x19
 3936 031c 03       		.uleb128 0x3
 3937 031d 0E       		.uleb128 0xe
 3938 031e 3A       		.uleb128 0x3a
 3939 031f 0B       		.uleb128 0xb
 3940 0320 3B       		.uleb128 0x3b
 3941 0321 0B       		.uleb128 0xb
 3942 0322 27       		.uleb128 0x27
 3943 0323 19       		.uleb128 0x19
 3944 0324 11       		.uleb128 0x11
 3945 0325 01       		.uleb128 0x1
 3946 0326 12       		.uleb128 0x12
 3947 0327 06       		.uleb128 0x6
 3948 0328 40       		.uleb128 0x40
 3949 0329 18       		.uleb128 0x18
 3950 032a 9742     		.uleb128 0x2117
 3951 032c 19       		.uleb128 0x19
 3952 032d 01       		.uleb128 0x1
 3953 032e 13       		.uleb128 0x13
 3954 032f 00       		.byte	0
 3955 0330 00       		.byte	0
 3956 0331 3B       		.uleb128 0x3b
 3957 0332 05       		.uleb128 0x5
 3958 0333 00       		.byte	0
 3959 0334 03       		.uleb128 0x3
 3960 0335 08       		.uleb128 0x8
 3961 0336 3A       		.uleb128 0x3a
 3962 0337 0B       		.uleb128 0xb
 3963 0338 3B       		.uleb128 0x3b
 3964 0339 0B       		.uleb128 0xb
 3965 033a 49       		.uleb128 0x49
 3966 033b 13       		.uleb128 0x13
 3967 033c 02       		.uleb128 0x2
 3968 033d 18       		.uleb128 0x18
 3969 033e 00       		.byte	0
 3970 033f 00       		.byte	0
 3971 0340 3C       		.uleb128 0x3c
 3972 0341 05       		.uleb128 0x5
 3973 0342 00       		.byte	0
 3974 0343 03       		.uleb128 0x3
 3975 0344 0E       		.uleb128 0xe
 3976 0345 3A       		.uleb128 0x3a
 3977 0346 0B       		.uleb128 0xb
 3978 0347 3B       		.uleb128 0x3b
 3979 0348 0B       		.uleb128 0xb
 3980 0349 49       		.uleb128 0x49
 3981 034a 13       		.uleb128 0x13
 3982 034b 02       		.uleb128 0x2
 3983 034c 18       		.uleb128 0x18
 3984 034d 00       		.byte	0
 3985 034e 00       		.byte	0
 3986 034f 3D       		.uleb128 0x3d
 3987 0350 1D       		.uleb128 0x1d
 3988 0351 01       		.byte	0x1
 3989 0352 31       		.uleb128 0x31
 3990 0353 13       		.uleb128 0x13
ARM GAS  /var/folders/qd/4mxf5pkd0zdf0b9dd1hp39180000gn/T//cc0AuJk0.s 			page 71


 3991 0354 11       		.uleb128 0x11
 3992 0355 01       		.uleb128 0x1
 3993 0356 12       		.uleb128 0x12
 3994 0357 06       		.uleb128 0x6
 3995 0358 58       		.uleb128 0x58
 3996 0359 0B       		.uleb128 0xb
 3997 035a 59       		.uleb128 0x59
 3998 035b 0B       		.uleb128 0xb
 3999 035c 00       		.byte	0
 4000 035d 00       		.byte	0
 4001 035e 3E       		.uleb128 0x3e
 4002 035f 2E       		.uleb128 0x2e
 4003 0360 01       		.byte	0x1
 4004 0361 03       		.uleb128 0x3
 4005 0362 0E       		.uleb128 0xe
 4006 0363 3A       		.uleb128 0x3a
 4007 0364 0B       		.uleb128 0xb
 4008 0365 3B       		.uleb128 0x3b
 4009 0366 05       		.uleb128 0x5
 4010 0367 27       		.uleb128 0x27
 4011 0368 19       		.uleb128 0x19
 4012 0369 49       		.uleb128 0x49
 4013 036a 13       		.uleb128 0x13
 4014 036b 20       		.uleb128 0x20
 4015 036c 0B       		.uleb128 0xb
 4016 036d 01       		.uleb128 0x1
 4017 036e 13       		.uleb128 0x13
 4018 036f 00       		.byte	0
 4019 0370 00       		.byte	0
 4020 0371 3F       		.uleb128 0x3f
 4021 0372 05       		.uleb128 0x5
 4022 0373 00       		.byte	0
 4023 0374 03       		.uleb128 0x3
 4024 0375 08       		.uleb128 0x8
 4025 0376 3A       		.uleb128 0x3a
 4026 0377 0B       		.uleb128 0xb
 4027 0378 3B       		.uleb128 0x3b
 4028 0379 05       		.uleb128 0x5
 4029 037a 49       		.uleb128 0x49
 4030 037b 13       		.uleb128 0x13
 4031 037c 00       		.byte	0
 4032 037d 00       		.byte	0
 4033 037e 40       		.uleb128 0x40
 4034 037f 2E       		.uleb128 0x2e
 4035 0380 01       		.byte	0x1
 4036 0381 03       		.uleb128 0x3
 4037 0382 0E       		.uleb128 0xe
 4038 0383 3A       		.uleb128 0x3a
 4039 0384 0B       		.uleb128 0xb
 4040 0385 3B       		.uleb128 0x3b
 4041 0386 05       		.uleb128 0x5
 4042 0387 27       		.uleb128 0x27
 4043 0388 19       		.uleb128 0x19
 4044 0389 20       		.uleb128 0x20
 4045 038a 0B       		.uleb128 0xb
 4046 038b 01       		.uleb128 0x1
 4047 038c 13       		.uleb128 0x13
ARM GAS  /var/folders/qd/4mxf5pkd0zdf0b9dd1hp39180000gn/T//cc0AuJk0.s 			page 72


 4048 038d 00       		.byte	0
 4049 038e 00       		.byte	0
 4050 038f 41       		.uleb128 0x41
 4051 0390 34       		.uleb128 0x34
 4052 0391 00       		.byte	0
 4053 0392 03       		.uleb128 0x3
 4054 0393 0E       		.uleb128 0xe
 4055 0394 49       		.uleb128 0x49
 4056 0395 13       		.uleb128 0x13
 4057 0396 34       		.uleb128 0x34
 4058 0397 19       		.uleb128 0x19
 4059 0398 1C       		.uleb128 0x1c
 4060 0399 0E       		.uleb128 0xe
 4061 039a 00       		.byte	0
 4062 039b 00       		.byte	0
 4063 039c 42       		.uleb128 0x42
 4064 039d 2E       		.uleb128 0x2e
 4065 039e 00       		.byte	0
 4066 039f 03       		.uleb128 0x3
 4067 03a0 0E       		.uleb128 0xe
 4068 03a1 3A       		.uleb128 0x3a
 4069 03a2 0B       		.uleb128 0xb
 4070 03a3 3B       		.uleb128 0x3b
 4071 03a4 05       		.uleb128 0x5
 4072 03a5 27       		.uleb128 0x27
 4073 03a6 19       		.uleb128 0x19
 4074 03a7 20       		.uleb128 0x20
 4075 03a8 0B       		.uleb128 0xb
 4076 03a9 00       		.byte	0
 4077 03aa 00       		.byte	0
 4078 03ab 43       		.uleb128 0x43
 4079 03ac 05       		.uleb128 0x5
 4080 03ad 00       		.byte	0
 4081 03ae 03       		.uleb128 0x3
 4082 03af 0E       		.uleb128 0xe
 4083 03b0 3A       		.uleb128 0x3a
 4084 03b1 0B       		.uleb128 0xb
 4085 03b2 3B       		.uleb128 0x3b
 4086 03b3 05       		.uleb128 0x5
 4087 03b4 49       		.uleb128 0x49
 4088 03b5 13       		.uleb128 0x13
 4089 03b6 00       		.byte	0
 4090 03b7 00       		.byte	0
 4091 03b8 44       		.uleb128 0x44
 4092 03b9 2E       		.uleb128 0x2e
 4093 03ba 00       		.byte	0
 4094 03bb 3F       		.uleb128 0x3f
 4095 03bc 19       		.uleb128 0x19
 4096 03bd 3C       		.uleb128 0x3c
 4097 03be 19       		.uleb128 0x19
 4098 03bf 6E       		.uleb128 0x6e
 4099 03c0 0E       		.uleb128 0xe
 4100 03c1 03       		.uleb128 0x3
 4101 03c2 0E       		.uleb128 0xe
 4102 03c3 3A       		.uleb128 0x3a
 4103 03c4 0B       		.uleb128 0xb
 4104 03c5 3B       		.uleb128 0x3b
ARM GAS  /var/folders/qd/4mxf5pkd0zdf0b9dd1hp39180000gn/T//cc0AuJk0.s 			page 73


 4105 03c6 0B       		.uleb128 0xb
 4106 03c7 00       		.byte	0
 4107 03c8 00       		.byte	0
 4108 03c9 00       		.byte	0
 4109              		.section	.debug_loc,"",%progbits
 4110              	.Ldebug_loc0:
 4111              	.LLST38:
 4112 0000 00000000 		.4byte	.LVL68
 4113 0004 1E000000 		.4byte	.LVL71
 4114 0008 0100     		.2byte	0x1
 4115 000a 50       		.byte	0x50
 4116 000b 1E000000 		.4byte	.LVL71
 4117 000f 2A000000 		.4byte	.LVL74
 4118 0013 0100     		.2byte	0x1
 4119 0015 54       		.byte	0x54
 4120 0016 2A000000 		.4byte	.LVL74
 4121 001a 49000000 		.4byte	.LVL75-1
 4122 001e 0100     		.2byte	0x1
 4123 0020 50       		.byte	0x50
 4124 0021 49000000 		.4byte	.LVL75-1
 4125 0025 6A000000 		.4byte	.LVL82
 4126 0029 0100     		.2byte	0x1
 4127 002b 54       		.byte	0x54
 4128 002c 6A000000 		.4byte	.LVL82
 4129 0030 70000000 		.4byte	.LVL83
 4130 0034 0100     		.2byte	0x1
 4131 0036 50       		.byte	0x50
 4132 0037 70000000 		.4byte	.LVL83
 4133 003b 86000000 		.4byte	.LFE238
 4134 003f 0100     		.2byte	0x1
 4135 0041 54       		.byte	0x54
 4136 0042 00000000 		.4byte	0
 4137 0046 00000000 		.4byte	0
 4138              	.LLST39:
 4139 004a 00000000 		.4byte	.LVL68
 4140 004e 1E000000 		.4byte	.LVL71
 4141 0052 0100     		.2byte	0x1
 4142 0054 51       		.byte	0x51
 4143 0055 1E000000 		.4byte	.LVL71
 4144 0059 24000000 		.4byte	.LVL73
 4145 005d 0100     		.2byte	0x1
 4146 005f 55       		.byte	0x55
 4147 0060 24000000 		.4byte	.LVL73
 4148 0064 5E000000 		.4byte	.LVL80
 4149 0068 0100     		.2byte	0x1
 4150 006a 5B       		.byte	0x5b
 4151 006b 5E000000 		.4byte	.LVL80
 4152 006f 64000000 		.4byte	.LVL81
 4153 0073 0100     		.2byte	0x1
 4154 0075 55       		.byte	0x55
 4155 0076 64000000 		.4byte	.LVL81
 4156 007a 86000000 		.4byte	.LFE238
 4157 007e 0100     		.2byte	0x1
 4158 0080 5B       		.byte	0x5b
 4159 0081 00000000 		.4byte	0
 4160 0085 00000000 		.4byte	0
 4161              	.LLST40:
ARM GAS  /var/folders/qd/4mxf5pkd0zdf0b9dd1hp39180000gn/T//cc0AuJk0.s 			page 74


 4162 0089 00000000 		.4byte	.LVL68
 4163 008d 1E000000 		.4byte	.LVL71
 4164 0091 0100     		.2byte	0x1
 4165 0093 52       		.byte	0x52
 4166 0094 1E000000 		.4byte	.LVL71
 4167 0098 50000000 		.4byte	.LVL77
 4168 009c 0100     		.2byte	0x1
 4169 009e 56       		.byte	0x56
 4170 009f 50000000 		.4byte	.LVL77
 4171 00a3 54000000 		.4byte	.LVL78
 4172 00a7 0300     		.2byte	0x3
 4173 00a9 76       		.byte	0x76
 4174 00aa 01       		.sleb128 1
 4175 00ab 9F       		.byte	0x9f
 4176 00ac 5E000000 		.4byte	.LVL80
 4177 00b0 7E000000 		.4byte	.LVL86
 4178 00b4 0100     		.2byte	0x1
 4179 00b6 56       		.byte	0x56
 4180 00b7 00000000 		.4byte	0
 4181 00bb 00000000 		.4byte	0
 4182              	.LLST41:
 4183 00bf 00000000 		.4byte	.LVL68
 4184 00c3 1E000000 		.4byte	.LVL71
 4185 00c7 0100     		.2byte	0x1
 4186 00c9 53       		.byte	0x53
 4187 00ca 1E000000 		.4byte	.LVL71
 4188 00ce 86000000 		.4byte	.LFE238
 4189 00d2 0200     		.2byte	0x2
 4190 00d4 91       		.byte	0x91
 4191 00d5 54       		.sleb128 -44
 4192 00d6 00000000 		.4byte	0
 4193 00da 00000000 		.4byte	0
 4194              	.LLST42:
 4195 00de 12000000 		.4byte	.LVL69
 4196 00e2 1E000000 		.4byte	.LVL71
 4197 00e6 0200     		.2byte	0x2
 4198 00e8 30       		.byte	0x30
 4199 00e9 9F       		.byte	0x9f
 4200 00ea 1E000000 		.4byte	.LVL71
 4201 00ee 86000000 		.4byte	.LFE238
 4202 00f2 0100     		.2byte	0x1
 4203 00f4 57       		.byte	0x57
 4204 00f5 00000000 		.4byte	0
 4205 00f9 00000000 		.4byte	0
 4206              	.LLST43:
 4207 00fd 12000000 		.4byte	.LVL69
 4208 0101 1A000000 		.4byte	.LVL70
 4209 0105 0300     		.2byte	0x3
 4210 0107 08       		.byte	0x8
 4211 0108 20       		.byte	0x20
 4212 0109 9F       		.byte	0x9f
 4213 010a 00000000 		.4byte	0
 4214 010e 00000000 		.4byte	0
 4215              	.LLST44:
 4216 0112 4A000000 		.4byte	.LVL75
 4217 0116 4E000000 		.4byte	.LVL76
 4218 011a 0200     		.2byte	0x2
ARM GAS  /var/folders/qd/4mxf5pkd0zdf0b9dd1hp39180000gn/T//cc0AuJk0.s 			page 75


 4219 011c 30       		.byte	0x30
 4220 011d 9F       		.byte	0x9f
 4221 011e 00000000 		.4byte	0
 4222 0122 00000000 		.4byte	0
 4223              	.LLST45:
 4224 0126 4E000000 		.4byte	.LVL76
 4225 012a 5A000000 		.4byte	.LVL79
 4226 012e 0300     		.2byte	0x3
 4227 0130 08       		.byte	0x8
 4228 0131 20       		.byte	0x20
 4229 0132 9F       		.byte	0x9f
 4230 0133 00000000 		.4byte	0
 4231 0137 00000000 		.4byte	0
 4232              	.LLST46:
 4233 013b 7A000000 		.4byte	.LVL85
 4234 013f 7E000000 		.4byte	.LVL86
 4235 0143 0200     		.2byte	0x2
 4236 0145 30       		.byte	0x30
 4237 0146 9F       		.byte	0x9f
 4238 0147 00000000 		.4byte	0
 4239 014b 00000000 		.4byte	0
 4240              	.LLST35:
 4241 014f 00000000 		.4byte	.LVL62
 4242 0153 25000000 		.4byte	.LVL65-1
 4243 0157 0100     		.2byte	0x1
 4244 0159 50       		.byte	0x50
 4245 015a 25000000 		.4byte	.LVL65-1
 4246 015e 2A000000 		.4byte	.LVL66
 4247 0162 0400     		.2byte	0x4
 4248 0164 F3       		.byte	0xf3
 4249 0165 01       		.uleb128 0x1
 4250 0166 50       		.byte	0x50
 4251 0167 9F       		.byte	0x9f
 4252 0168 2A000000 		.4byte	.LVL66
 4253 016c 32000000 		.4byte	.LVL67
 4254 0170 0100     		.2byte	0x1
 4255 0172 50       		.byte	0x50
 4256 0173 32000000 		.4byte	.LVL67
 4257 0177 34000000 		.4byte	.LFE237
 4258 017b 0400     		.2byte	0x4
 4259 017d F3       		.byte	0xf3
 4260 017e 01       		.uleb128 0x1
 4261 017f 50       		.byte	0x50
 4262 0180 9F       		.byte	0x9f
 4263 0181 00000000 		.4byte	0
 4264 0185 00000000 		.4byte	0
 4265              	.LLST36:
 4266 0189 1A000000 		.4byte	.LVL64
 4267 018d 2A000000 		.4byte	.LVL66
 4268 0191 0100     		.2byte	0x1
 4269 0193 54       		.byte	0x54
 4270 0194 00000000 		.4byte	0
 4271 0198 00000000 		.4byte	0
 4272              	.LLST37:
 4273 019c 00000000 		.4byte	.LVL62
 4274 01a0 0C000000 		.4byte	.LVL63
 4275 01a4 0100     		.2byte	0x1
ARM GAS  /var/folders/qd/4mxf5pkd0zdf0b9dd1hp39180000gn/T//cc0AuJk0.s 			page 76


 4276 01a6 50       		.byte	0x50
 4277 01a7 2A000000 		.4byte	.LVL66
 4278 01ab 32000000 		.4byte	.LVL67
 4279 01af 0100     		.2byte	0x1
 4280 01b1 50       		.byte	0x50
 4281 01b2 32000000 		.4byte	.LVL67
 4282 01b6 34000000 		.4byte	.LFE237
 4283 01ba 0400     		.2byte	0x4
 4284 01bc F3       		.byte	0xf3
 4285 01bd 01       		.uleb128 0x1
 4286 01be 50       		.byte	0x50
 4287 01bf 9F       		.byte	0x9f
 4288 01c0 00000000 		.4byte	0
 4289 01c4 00000000 		.4byte	0
 4290              	.LLST28:
 4291 01c8 00000000 		.4byte	.LVL51
 4292 01cc 13000000 		.4byte	.LVL54-1
 4293 01d0 0100     		.2byte	0x1
 4294 01d2 50       		.byte	0x50
 4295 01d3 13000000 		.4byte	.LVL54-1
 4296 01d7 22000000 		.4byte	.LVL57
 4297 01db 0100     		.2byte	0x1
 4298 01dd 54       		.byte	0x54
 4299 01de 22000000 		.4byte	.LVL57
 4300 01e2 3F000000 		.4byte	.LVL58-1
 4301 01e6 0100     		.2byte	0x1
 4302 01e8 50       		.byte	0x50
 4303 01e9 3F000000 		.4byte	.LVL58-1
 4304 01ed 4E000000 		.4byte	.LFE236
 4305 01f1 0100     		.2byte	0x1
 4306 01f3 54       		.byte	0x54
 4307 01f4 00000000 		.4byte	0
 4308 01f8 00000000 		.4byte	0
 4309              	.LLST29:
 4310 01fc 00000000 		.4byte	.LVL51
 4311 0200 10000000 		.4byte	.LVL53
 4312 0204 0100     		.2byte	0x1
 4313 0206 51       		.byte	0x51
 4314 0207 10000000 		.4byte	.LVL53
 4315 020b 4E000000 		.4byte	.LFE236
 4316 020f 0400     		.2byte	0x4
 4317 0211 F3       		.byte	0xf3
 4318 0212 01       		.uleb128 0x1
 4319 0213 51       		.byte	0x51
 4320 0214 9F       		.byte	0x9f
 4321 0215 00000000 		.4byte	0
 4322 0219 00000000 		.4byte	0
 4323              	.LLST30:
 4324 021d 00000000 		.4byte	.LVL51
 4325 0221 10000000 		.4byte	.LVL53
 4326 0225 0100     		.2byte	0x1
 4327 0227 52       		.byte	0x52
 4328 0228 10000000 		.4byte	.LVL53
 4329 022c 13000000 		.4byte	.LVL54-1
 4330 0230 0100     		.2byte	0x1
 4331 0232 51       		.byte	0x51
 4332 0233 13000000 		.4byte	.LVL54-1
ARM GAS  /var/folders/qd/4mxf5pkd0zdf0b9dd1hp39180000gn/T//cc0AuJk0.s 			page 77


 4333 0237 22000000 		.4byte	.LVL57
 4334 023b 0100     		.2byte	0x1
 4335 023d 56       		.byte	0x56
 4336 023e 22000000 		.4byte	.LVL57
 4337 0242 3F000000 		.4byte	.LVL58-1
 4338 0246 0100     		.2byte	0x1
 4339 0248 51       		.byte	0x51
 4340 0249 3F000000 		.4byte	.LVL58-1
 4341 024d 4E000000 		.4byte	.LFE236
 4342 0251 0100     		.2byte	0x1
 4343 0253 56       		.byte	0x56
 4344 0254 00000000 		.4byte	0
 4345 0258 00000000 		.4byte	0
 4346              	.LLST32:
 4347 025c 14000000 		.4byte	.LVL54
 4348 0260 18000000 		.4byte	.LVL55
 4349 0264 0100     		.2byte	0x1
 4350 0266 50       		.byte	0x50
 4351 0267 48000000 		.4byte	.LVL60
 4352 026b 4E000000 		.4byte	.LFE236
 4353 026f 0100     		.2byte	0x1
 4354 0271 50       		.byte	0x50
 4355 0272 00000000 		.4byte	0
 4356 0276 00000000 		.4byte	0
 4357              	.LLST33:
 4358 027a 48000000 		.4byte	.LVL60
 4359 027e 4C000000 		.4byte	.LVL61
 4360 0282 0200     		.2byte	0x2
 4361 0284 30       		.byte	0x30
 4362 0285 9F       		.byte	0x9f
 4363 0286 00000000 		.4byte	0
 4364 028a 00000000 		.4byte	0
 4365              	.LLST31:
 4366 028e 00000000 		.4byte	.LVL51
 4367 0292 0E000000 		.4byte	.LVL52
 4368 0296 0300     		.2byte	0x3
 4369 0298 08       		.byte	0x8
 4370 0299 20       		.byte	0x20
 4371 029a 9F       		.byte	0x9f
 4372 029b 00000000 		.4byte	0
 4373 029f 00000000 		.4byte	0
 4374              	.LLST34:
 4375 02a3 40000000 		.4byte	.LVL58
 4376 02a7 46000000 		.4byte	.LVL59
 4377 02ab 0200     		.2byte	0x2
 4378 02ad 30       		.byte	0x30
 4379 02ae 9F       		.byte	0x9f
 4380 02af 00000000 		.4byte	0
 4381 02b3 00000000 		.4byte	0
 4382              	.LLST27:
 4383 02b7 00000000 		.4byte	.LVL49
 4384 02bb 17000000 		.4byte	.LVL50-1
 4385 02bf 0100     		.2byte	0x1
 4386 02c1 50       		.byte	0x50
 4387 02c2 17000000 		.4byte	.LVL50-1
 4388 02c6 18000000 		.4byte	.LFE235
 4389 02ca 0400     		.2byte	0x4
ARM GAS  /var/folders/qd/4mxf5pkd0zdf0b9dd1hp39180000gn/T//cc0AuJk0.s 			page 78


 4390 02cc F3       		.byte	0xf3
 4391 02cd 01       		.uleb128 0x1
 4392 02ce 50       		.byte	0x50
 4393 02cf 9F       		.byte	0x9f
 4394 02d0 00000000 		.4byte	0
 4395 02d4 00000000 		.4byte	0
 4396              	.LLST24:
 4397 02d8 00000000 		.4byte	.LVL46
 4398 02dc 1A000000 		.4byte	.LVL48
 4399 02e0 0200     		.2byte	0x2
 4400 02e2 91       		.byte	0x91
 4401 02e3 00       		.sleb128 0
 4402 02e4 1A000000 		.4byte	.LVL48
 4403 02e8 1C000000 		.4byte	.LFE234
 4404 02ec 0200     		.2byte	0x2
 4405 02ee 7D       		.byte	0x7d
 4406 02ef 00       		.sleb128 0
 4407 02f0 00000000 		.4byte	0
 4408 02f4 00000000 		.4byte	0
 4409              	.LLST25:
 4410 02f8 00000000 		.4byte	.LVL46
 4411 02fc 14000000 		.4byte	.LVL47
 4412 0300 0100     		.2byte	0x1
 4413 0302 50       		.byte	0x50
 4414 0303 00000000 		.4byte	0
 4415 0307 00000000 		.4byte	0
 4416              	.LLST15:
 4417 030b 00000000 		.4byte	.LVL26
 4418 030f 26000000 		.4byte	.LVL30
 4419 0313 0100     		.2byte	0x1
 4420 0315 50       		.byte	0x50
 4421 0316 26000000 		.4byte	.LVL30
 4422 031a 2A000000 		.4byte	.LVL32
 4423 031e 0100     		.2byte	0x1
 4424 0320 54       		.byte	0x54
 4425 0321 2A000000 		.4byte	.LVL32
 4426 0325 2D000000 		.4byte	.LVL33-1
 4427 0329 0100     		.2byte	0x1
 4428 032b 50       		.byte	0x50
 4429 032c 2D000000 		.4byte	.LVL33-1
 4430 0330 3A000000 		.4byte	.LVL36
 4431 0334 0100     		.2byte	0x1
 4432 0336 54       		.byte	0x54
 4433 0337 3A000000 		.4byte	.LVL36
 4434 033b 68000000 		.4byte	.LVL44
 4435 033f 0100     		.2byte	0x1
 4436 0341 50       		.byte	0x50
 4437 0342 68000000 		.4byte	.LVL44
 4438 0346 74000000 		.4byte	.LFE233
 4439 034a 0100     		.2byte	0x1
 4440 034c 54       		.byte	0x54
 4441 034d 00000000 		.4byte	0
 4442 0351 00000000 		.4byte	0
 4443              	.LLST16:
 4444 0355 00000000 		.4byte	.LVL26
 4445 0359 1E000000 		.4byte	.LVL29
 4446 035d 0100     		.2byte	0x1
ARM GAS  /var/folders/qd/4mxf5pkd0zdf0b9dd1hp39180000gn/T//cc0AuJk0.s 			page 79


 4447 035f 51       		.byte	0x51
 4448 0360 1E000000 		.4byte	.LVL29
 4449 0364 4A000000 		.4byte	.LVL38
 4450 0368 0100     		.2byte	0x1
 4451 036a 59       		.byte	0x59
 4452 036b 4A000000 		.4byte	.LVL38
 4453 036f 68000000 		.4byte	.LVL44
 4454 0373 0300     		.2byte	0x3
 4455 0375 79       		.byte	0x79
 4456 0376 7F       		.sleb128 -1
 4457 0377 9F       		.byte	0x9f
 4458 0378 68000000 		.4byte	.LVL44
 4459 037c 6C000000 		.4byte	.LVL45
 4460 0380 0100     		.2byte	0x1
 4461 0382 59       		.byte	0x59
 4462 0383 00000000 		.4byte	0
 4463 0387 00000000 		.4byte	0
 4464              	.LLST17:
 4465 038b 00000000 		.4byte	.LVL26
 4466 038f 1E000000 		.4byte	.LVL29
 4467 0393 0100     		.2byte	0x1
 4468 0395 52       		.byte	0x52
 4469 0396 5C000000 		.4byte	.LVL41
 4470 039a 68000000 		.4byte	.LVL44
 4471 039e 0600     		.2byte	0x6
 4472 03a0 7B       		.byte	0x7b
 4473 03a1 00       		.sleb128 0
 4474 03a2 76       		.byte	0x76
 4475 03a3 00       		.sleb128 0
 4476 03a4 1C       		.byte	0x1c
 4477 03a5 9F       		.byte	0x9f
 4478 03a6 00000000 		.4byte	0
 4479 03aa 00000000 		.4byte	0
 4480              	.LLST18:
 4481 03ae 00000000 		.4byte	.LVL26
 4482 03b2 1E000000 		.4byte	.LVL29
 4483 03b6 0100     		.2byte	0x1
 4484 03b8 53       		.byte	0x53
 4485 03b9 1E000000 		.4byte	.LVL29
 4486 03bd 2A000000 		.4byte	.LVL32
 4487 03c1 0100     		.2byte	0x1
 4488 03c3 55       		.byte	0x55
 4489 03c4 2A000000 		.4byte	.LVL32
 4490 03c8 2D000000 		.4byte	.LVL33-1
 4491 03cc 0100     		.2byte	0x1
 4492 03ce 51       		.byte	0x51
 4493 03cf 2D000000 		.4byte	.LVL33-1
 4494 03d3 3A000000 		.4byte	.LVL36
 4495 03d7 0100     		.2byte	0x1
 4496 03d9 55       		.byte	0x55
 4497 03da 3A000000 		.4byte	.LVL36
 4498 03de 40000000 		.4byte	.LVL37
 4499 03e2 0100     		.2byte	0x1
 4500 03e4 51       		.byte	0x51
 4501 03e5 40000000 		.4byte	.LVL37
 4502 03e9 74000000 		.4byte	.LFE233
 4503 03ed 0100     		.2byte	0x1
ARM GAS  /var/folders/qd/4mxf5pkd0zdf0b9dd1hp39180000gn/T//cc0AuJk0.s 			page 80


 4504 03ef 55       		.byte	0x55
 4505 03f0 00000000 		.4byte	0
 4506 03f4 00000000 		.4byte	0
 4507              	.LLST19:
 4508 03f8 12000000 		.4byte	.LVL27
 4509 03fc 1E000000 		.4byte	.LVL29
 4510 0400 0200     		.2byte	0x2
 4511 0402 30       		.byte	0x30
 4512 0403 9F       		.byte	0x9f
 4513 0404 1E000000 		.4byte	.LVL29
 4514 0408 74000000 		.4byte	.LFE233
 4515 040c 0100     		.2byte	0x1
 4516 040e 56       		.byte	0x56
 4517 040f 00000000 		.4byte	0
 4518 0413 00000000 		.4byte	0
 4519              	.LLST20:
 4520 0417 12000000 		.4byte	.LVL27
 4521 041b 18000000 		.4byte	.LVL28
 4522 041f 0300     		.2byte	0x3
 4523 0421 08       		.byte	0x8
 4524 0422 20       		.byte	0x20
 4525 0423 9F       		.byte	0x9f
 4526 0424 00000000 		.4byte	0
 4527 0428 00000000 		.4byte	0
 4528              	.LLST21:
 4529 042c 60000000 		.4byte	.LVL42
 4530 0430 66000000 		.4byte	.LVL43
 4531 0434 0300     		.2byte	0x3
 4532 0436 08       		.byte	0x8
 4533 0437 20       		.byte	0x20
 4534 0438 9F       		.byte	0x9f
 4535 0439 00000000 		.4byte	0
 4536 043d 00000000 		.4byte	0
 4537              	.LLST22:
 4538 0441 56000000 		.4byte	.LVL39
 4539 0445 5A000000 		.4byte	.LVL40
 4540 0449 0200     		.2byte	0x2
 4541 044b 30       		.byte	0x30
 4542 044c 9F       		.byte	0x9f
 4543 044d 00000000 		.4byte	0
 4544 0451 00000000 		.4byte	0
 4545              	.LLST23:
 4546 0455 68000000 		.4byte	.LVL44
 4547 0459 6C000000 		.4byte	.LVL45
 4548 045d 0200     		.2byte	0x2
 4549 045f 30       		.byte	0x30
 4550 0460 9F       		.byte	0x9f
 4551 0461 00000000 		.4byte	0
 4552 0465 00000000 		.4byte	0
 4553              	.LLST8:
 4554 0469 00000000 		.4byte	.LVL12
 4555 046d 11000000 		.4byte	.LVL14-1
 4556 0471 0100     		.2byte	0x1
 4557 0473 50       		.byte	0x50
 4558 0474 11000000 		.4byte	.LVL14-1
 4559 0478 14000000 		.4byte	.LVL15
 4560 047c 0100     		.2byte	0x1
ARM GAS  /var/folders/qd/4mxf5pkd0zdf0b9dd1hp39180000gn/T//cc0AuJk0.s 			page 81


 4561 047e 54       		.byte	0x54
 4562 047f 14000000 		.4byte	.LVL15
 4563 0483 17000000 		.4byte	.LVL16-1
 4564 0487 0100     		.2byte	0x1
 4565 0489 50       		.byte	0x50
 4566 048a 17000000 		.4byte	.LVL16-1
 4567 048e 26000000 		.4byte	.LVL19
 4568 0492 0100     		.2byte	0x1
 4569 0494 54       		.byte	0x54
 4570 0495 26000000 		.4byte	.LVL19
 4571 0499 3C000000 		.4byte	.LVL21
 4572 049d 0100     		.2byte	0x1
 4573 049f 50       		.byte	0x50
 4574 04a0 3C000000 		.4byte	.LVL21
 4575 04a4 4E000000 		.4byte	.LFE232
 4576 04a8 0100     		.2byte	0x1
 4577 04aa 54       		.byte	0x54
 4578 04ab 00000000 		.4byte	0
 4579 04af 00000000 		.4byte	0
 4580              	.LLST9:
 4581 04b3 00000000 		.4byte	.LVL12
 4582 04b7 11000000 		.4byte	.LVL14-1
 4583 04bb 0100     		.2byte	0x1
 4584 04bd 51       		.byte	0x51
 4585 04be 11000000 		.4byte	.LVL14-1
 4586 04c2 14000000 		.4byte	.LVL15
 4587 04c6 0100     		.2byte	0x1
 4588 04c8 56       		.byte	0x56
 4589 04c9 14000000 		.4byte	.LVL15
 4590 04cd 17000000 		.4byte	.LVL16-1
 4591 04d1 0100     		.2byte	0x1
 4592 04d3 51       		.byte	0x51
 4593 04d4 17000000 		.4byte	.LVL16-1
 4594 04d8 26000000 		.4byte	.LVL19
 4595 04dc 0100     		.2byte	0x1
 4596 04de 56       		.byte	0x56
 4597 04df 26000000 		.4byte	.LVL19
 4598 04e3 2A000000 		.4byte	.LVL20
 4599 04e7 0100     		.2byte	0x1
 4600 04e9 51       		.byte	0x51
 4601 04ea 2A000000 		.4byte	.LVL20
 4602 04ee 4E000000 		.4byte	.LFE232
 4603 04f2 0100     		.2byte	0x1
 4604 04f4 56       		.byte	0x56
 4605 04f5 00000000 		.4byte	0
 4606 04f9 00000000 		.4byte	0
 4607              	.LLST10:
 4608 04fd 3C000000 		.4byte	.LVL21
 4609 0501 48000000 		.4byte	.LVL24
 4610 0505 0100     		.2byte	0x1
 4611 0507 50       		.byte	0x50
 4612 0508 00000000 		.4byte	0
 4613 050c 00000000 		.4byte	0
 4614              	.LLST12:
 4615 0510 18000000 		.4byte	.LVL16
 4616 0514 1C000000 		.4byte	.LVL17
 4617 0518 0100     		.2byte	0x1
ARM GAS  /var/folders/qd/4mxf5pkd0zdf0b9dd1hp39180000gn/T//cc0AuJk0.s 			page 82


 4618 051a 50       		.byte	0x50
 4619 051b 48000000 		.4byte	.LVL24
 4620 051f 4E000000 		.4byte	.LFE232
 4621 0523 0100     		.2byte	0x1
 4622 0525 50       		.byte	0x50
 4623 0526 00000000 		.4byte	0
 4624 052a 00000000 		.4byte	0
 4625              	.LLST13:
 4626 052e 48000000 		.4byte	.LVL24
 4627 0532 4C000000 		.4byte	.LVL25
 4628 0536 0200     		.2byte	0x2
 4629 0538 30       		.byte	0x30
 4630 0539 9F       		.byte	0x9f
 4631 053a 00000000 		.4byte	0
 4632 053e 00000000 		.4byte	0
 4633              	.LLST11:
 4634 0542 00000000 		.4byte	.LVL12
 4635 0546 0C000000 		.4byte	.LVL13
 4636 054a 0300     		.2byte	0x3
 4637 054c 08       		.byte	0x8
 4638 054d 20       		.byte	0x20
 4639 054e 9F       		.byte	0x9f
 4640 054f 00000000 		.4byte	0
 4641 0553 00000000 		.4byte	0
 4642              	.LLST14:
 4643 0557 40000000 		.4byte	.LVL22
 4644 055b 46000000 		.4byte	.LVL23
 4645 055f 0200     		.2byte	0x2
 4646 0561 30       		.byte	0x30
 4647 0562 9F       		.byte	0x9f
 4648 0563 00000000 		.4byte	0
 4649 0567 00000000 		.4byte	0
 4650              	.LLST5:
 4651 056b 00000000 		.4byte	.LVL6
 4652 056f 27000000 		.4byte	.LVL9-1
 4653 0573 0100     		.2byte	0x1
 4654 0575 50       		.byte	0x50
 4655 0576 27000000 		.4byte	.LVL9-1
 4656 057a 2C000000 		.4byte	.LVL10
 4657 057e 0400     		.2byte	0x4
 4658 0580 F3       		.byte	0xf3
 4659 0581 01       		.uleb128 0x1
 4660 0582 50       		.byte	0x50
 4661 0583 9F       		.byte	0x9f
 4662 0584 2C000000 		.4byte	.LVL10
 4663 0588 34000000 		.4byte	.LVL11
 4664 058c 0100     		.2byte	0x1
 4665 058e 50       		.byte	0x50
 4666 058f 34000000 		.4byte	.LVL11
 4667 0593 36000000 		.4byte	.LFE231
 4668 0597 0400     		.2byte	0x4
 4669 0599 F3       		.byte	0xf3
 4670 059a 01       		.uleb128 0x1
 4671 059b 50       		.byte	0x50
 4672 059c 9F       		.byte	0x9f
 4673 059d 00000000 		.4byte	0
 4674 05a1 00000000 		.4byte	0
ARM GAS  /var/folders/qd/4mxf5pkd0zdf0b9dd1hp39180000gn/T//cc0AuJk0.s 			page 83


 4675              	.LLST6:
 4676 05a5 00000000 		.4byte	.LVL6
 4677 05a9 24000000 		.4byte	.LVL8
 4678 05ad 0100     		.2byte	0x1
 4679 05af 51       		.byte	0x51
 4680 05b0 24000000 		.4byte	.LVL8
 4681 05b4 2C000000 		.4byte	.LVL10
 4682 05b8 0400     		.2byte	0x4
 4683 05ba F3       		.byte	0xf3
 4684 05bb 01       		.uleb128 0x1
 4685 05bc 51       		.byte	0x51
 4686 05bd 9F       		.byte	0x9f
 4687 05be 2C000000 		.4byte	.LVL10
 4688 05c2 36000000 		.4byte	.LFE231
 4689 05c6 0100     		.2byte	0x1
 4690 05c8 51       		.byte	0x51
 4691 05c9 00000000 		.4byte	0
 4692 05cd 00000000 		.4byte	0
 4693              	.LLST7:
 4694 05d1 00000000 		.4byte	.LVL6
 4695 05d5 0C000000 		.4byte	.LVL7
 4696 05d9 0100     		.2byte	0x1
 4697 05db 50       		.byte	0x50
 4698 05dc 2C000000 		.4byte	.LVL10
 4699 05e0 34000000 		.4byte	.LVL11
 4700 05e4 0100     		.2byte	0x1
 4701 05e6 50       		.byte	0x50
 4702 05e7 34000000 		.4byte	.LVL11
 4703 05eb 36000000 		.4byte	.LFE231
 4704 05ef 0400     		.2byte	0x4
 4705 05f1 F3       		.byte	0xf3
 4706 05f2 01       		.uleb128 0x1
 4707 05f3 50       		.byte	0x50
 4708 05f4 9F       		.byte	0x9f
 4709 05f5 00000000 		.4byte	0
 4710 05f9 00000000 		.4byte	0
 4711              	.LLST4:
 4712 05fd 00000000 		.4byte	.LVL4
 4713 0601 11000000 		.4byte	.LVL5-1
 4714 0605 0100     		.2byte	0x1
 4715 0607 50       		.byte	0x50
 4716 0608 11000000 		.4byte	.LVL5-1
 4717 060c 12000000 		.4byte	.LFE230
 4718 0610 0400     		.2byte	0x4
 4719 0612 F3       		.byte	0xf3
 4720 0613 01       		.uleb128 0x1
 4721 0614 50       		.byte	0x50
 4722 0615 9F       		.byte	0x9f
 4723 0616 00000000 		.4byte	0
 4724 061a 00000000 		.4byte	0
 4725              	.LLST0:
 4726 061e 00000000 		.4byte	.LVL0
 4727 0622 0A000000 		.4byte	.LVL1
 4728 0626 0100     		.2byte	0x1
 4729 0628 52       		.byte	0x52
 4730 0629 0A000000 		.4byte	.LVL1
 4731 062d 1E000000 		.4byte	.LFE229
ARM GAS  /var/folders/qd/4mxf5pkd0zdf0b9dd1hp39180000gn/T//cc0AuJk0.s 			page 84


 4732 0631 0400     		.2byte	0x4
 4733 0633 F3       		.byte	0xf3
 4734 0634 01       		.uleb128 0x1
 4735 0635 52       		.byte	0x52
 4736 0636 9F       		.byte	0x9f
 4737 0637 00000000 		.4byte	0
 4738 063b 00000000 		.4byte	0
 4739              	.LLST1:
 4740 063f 00000000 		.4byte	.LVL0
 4741 0643 1C000000 		.4byte	.LVL3
 4742 0647 0200     		.2byte	0x2
 4743 0649 91       		.byte	0x91
 4744 064a 00       		.sleb128 0
 4745 064b 1C000000 		.4byte	.LVL3
 4746 064f 1E000000 		.4byte	.LFE229
 4747 0653 0200     		.2byte	0x2
 4748 0655 7D       		.byte	0x7d
 4749 0656 00       		.sleb128 0
 4750 0657 00000000 		.4byte	0
 4751 065b 00000000 		.4byte	0
 4752              	.LLST2:
 4753 065f 00000000 		.4byte	.LVL0
 4754 0663 12000000 		.4byte	.LVL2
 4755 0667 0100     		.2byte	0x1
 4756 0669 50       		.byte	0x50
 4757 066a 00000000 		.4byte	0
 4758 066e 00000000 		.4byte	0
 4759              		.section	.debug_aranges,"",%progbits
 4760 0000 64000000 		.4byte	0x64
 4761 0004 0200     		.2byte	0x2
 4762 0006 00000000 		.4byte	.Ldebug_info0
 4763 000a 04       		.byte	0x4
 4764 000b 00       		.byte	0
 4765 000c 0000     		.2byte	0
 4766 000e 0000     		.2byte	0
 4767 0010 00000000 		.4byte	.LFB229
 4768 0014 1E000000 		.4byte	.LFE229-.LFB229
 4769 0018 00000000 		.4byte	.LFB230
 4770 001c 12000000 		.4byte	.LFE230-.LFB230
 4771 0020 00000000 		.4byte	.LFB231
 4772 0024 36000000 		.4byte	.LFE231-.LFB231
 4773 0028 00000000 		.4byte	.LFB232
 4774 002c 4E000000 		.4byte	.LFE232-.LFB232
 4775 0030 00000000 		.4byte	.LFB233
 4776 0034 74000000 		.4byte	.LFE233-.LFB233
 4777 0038 00000000 		.4byte	.LFB234
 4778 003c 1C000000 		.4byte	.LFE234-.LFB234
 4779 0040 00000000 		.4byte	.LFB235
 4780 0044 18000000 		.4byte	.LFE235-.LFB235
 4781 0048 00000000 		.4byte	.LFB236
 4782 004c 4E000000 		.4byte	.LFE236-.LFB236
 4783 0050 00000000 		.4byte	.LFB237
 4784 0054 34000000 		.4byte	.LFE237-.LFB237
 4785 0058 00000000 		.4byte	.LFB238
 4786 005c 86000000 		.4byte	.LFE238-.LFB238
 4787 0060 00000000 		.4byte	0
 4788 0064 00000000 		.4byte	0
ARM GAS  /var/folders/qd/4mxf5pkd0zdf0b9dd1hp39180000gn/T//cc0AuJk0.s 			page 85


 4789              		.section	.debug_ranges,"",%progbits
 4790              	.Ldebug_ranges0:
 4791 0000 02000000 		.4byte	.LBB111
 4792 0004 0C000000 		.4byte	.LBE111
 4793 0008 2C000000 		.4byte	.LBB114
 4794 000c 30000000 		.4byte	.LBE114
 4795 0010 00000000 		.4byte	0
 4796 0014 00000000 		.4byte	0
 4797 0018 02000000 		.4byte	.LBB115
 4798 001c 04000000 		.4byte	.LBE115
 4799 0020 08000000 		.4byte	.LBB122
 4800 0024 0C000000 		.4byte	.LBE122
 4801 0028 00000000 		.4byte	0
 4802 002c 00000000 		.4byte	0
 4803 0030 14000000 		.4byte	.LBB123
 4804 0034 22000000 		.4byte	.LBE123
 4805 0038 48000000 		.4byte	.LBB134
 4806 003c 4C000000 		.4byte	.LBE134
 4807 0040 00000000 		.4byte	0
 4808 0044 00000000 		.4byte	0
 4809 0048 1A000000 		.4byte	.LBB139
 4810 004c 1C000000 		.4byte	.LBE139
 4811 0050 60000000 		.4byte	.LBB156
 4812 0054 68000000 		.4byte	.LBE156
 4813 0058 00000000 		.4byte	0
 4814 005c 00000000 		.4byte	0
 4815 0060 1C000000 		.4byte	.LBB146
 4816 0064 1E000000 		.4byte	.LBE146
 4817 0068 56000000 		.4byte	.LBB155
 4818 006c 5A000000 		.4byte	.LBE155
 4819 0070 00000000 		.4byte	0
 4820 0074 00000000 		.4byte	0
 4821 0078 10000000 		.4byte	.LBB169
 4822 007c 1E000000 		.4byte	.LBE169
 4823 0080 48000000 		.4byte	.LBB180
 4824 0084 4C000000 		.4byte	.LBE180
 4825 0088 00000000 		.4byte	0
 4826 008c 00000000 		.4byte	0
 4827 0090 00000000 		.4byte	.LBB181
 4828 0094 06000000 		.4byte	.LBE181
 4829 0098 0A000000 		.4byte	.LBB185
 4830 009c 0C000000 		.4byte	.LBE185
 4831 00a0 2A000000 		.4byte	.LBB186
 4832 00a4 2E000000 		.4byte	.LBE186
 4833 00a8 00000000 		.4byte	0
 4834 00ac 00000000 		.4byte	0
 4835 00b0 1C000000 		.4byte	.LBB191
 4836 00b4 20000000 		.4byte	.LBE191
 4837 00b8 4A000000 		.4byte	.LBB200
 4838 00bc 4E000000 		.4byte	.LBE200
 4839 00c0 00000000 		.4byte	0
 4840 00c4 00000000 		.4byte	0
 4841 00c8 00000000 		.4byte	.LFB229
 4842 00cc 1E000000 		.4byte	.LFE229
 4843 00d0 00000000 		.4byte	.LFB230
 4844 00d4 12000000 		.4byte	.LFE230
 4845 00d8 00000000 		.4byte	.LFB231
ARM GAS  /var/folders/qd/4mxf5pkd0zdf0b9dd1hp39180000gn/T//cc0AuJk0.s 			page 86


 4846 00dc 36000000 		.4byte	.LFE231
 4847 00e0 00000000 		.4byte	.LFB232
 4848 00e4 4E000000 		.4byte	.LFE232
 4849 00e8 00000000 		.4byte	.LFB233
 4850 00ec 74000000 		.4byte	.LFE233
 4851 00f0 00000000 		.4byte	.LFB234
 4852 00f4 1C000000 		.4byte	.LFE234
 4853 00f8 00000000 		.4byte	.LFB235
 4854 00fc 18000000 		.4byte	.LFE235
 4855 0100 00000000 		.4byte	.LFB236
 4856 0104 4E000000 		.4byte	.LFE236
 4857 0108 00000000 		.4byte	.LFB237
 4858 010c 34000000 		.4byte	.LFE237
 4859 0110 00000000 		.4byte	.LFB238
 4860 0114 86000000 		.4byte	.LFE238
 4861 0118 00000000 		.4byte	0
 4862 011c 00000000 		.4byte	0
 4863              		.section	.debug_line,"",%progbits
 4864              	.Ldebug_line0:
 4865 0000 78050000 		.section	.debug_str,"MS",%progbits,1
 4865      02004C03 
 4865      00000201 
 4865      FB0E0D00 
 4865      01010101 
 4866              	.LASF142:
 4867 0000 63684F51 		.ascii	"chOQPutTimeout\000"
 4867      50757454 
 4867      696D656F 
 4867      757400
 4868              	.LASF115:
 4869 000f 63665F6F 		.ascii	"cf_off_older\000"
 4869      66665F6F 
 4869      6C646572 
 4869      00
 4870              	.LASF54:
 4871 001c 72656164 		.ascii	"ready_list_t\000"
 4871      795F6C69 
 4871      73745F74 
 4871      00
 4872              	.LASF146:
 4873 0029 6F6E6679 		.ascii	"onfy\000"
 4873      00
 4874              	.LASF4:
 4875 002e 73697A65 		.ascii	"size_t\000"
 4875      5F7400
 4876              	.LASF90:
 4877 0035 7264796D 		.ascii	"rdymsg\000"
 4877      736700
 4878              	.LASF20:
 4879 003c 75696E74 		.ascii	"uint64_t\000"
 4879      36345F74 
 4879      00
 4880              	.LASF170:
 4881 0045 63685468 		.ascii	"chThdDequeueAllI\000"
 4881      64446571 
 4881      75657565 
 4881      416C6C49 
ARM GAS  /var/folders/qd/4mxf5pkd0zdf0b9dd1hp39180000gn/T//cc0AuJk0.s 			page 87


 4881      00
 4882              	.LASF5:
 4883 0056 5F5F7569 		.ascii	"__uint8_t\000"
 4883      6E74385F 
 4883      7400
 4884              	.LASF87:
 4885 0060 706F7274 		.ascii	"port_intctx\000"
 4885      5F696E74 
 4885      63747800 
 4886              	.LASF73:
 4887 006c 73797374 		.ascii	"system_debug_t\000"
 4887      656D5F64 
 4887      65627567 
 4887      5F7400
 4888              	.LASF148:
 4889 007b 63684951 		.ascii	"chIQReadTimeout\000"
 4889      52656164 
 4889      54696D65 
 4889      6F757400 
 4890              	.LASF162:
 4891 008b 71756575 		.ascii	"queue_init\000"
 4891      655F696E 
 4891      697400
 4892              	.LASF165:
 4893 0096 706F7274 		.ascii	"port_lock\000"
 4893      5F6C6F63 
 4893      6B00
 4894              	.LASF131:
 4895 00a0 715F746F 		.ascii	"q_top\000"
 4895      7000
 4896              	.LASF153:
 4897 00a6 63684951 		.ascii	"chIQObjectInit\000"
 4897      4F626A65 
 4897      6374496E 
 4897      697400
 4898              	.LASF172:
 4899 00b5 2E2E2F2E 		.ascii	"../../../os/rt/src/chqueues.c\000"
 4899      2E2F2E2E 
 4899      2F6F732F 
 4899      72742F73 
 4899      72632F63 
 4900              	.LASF15:
 4901 00d3 6C6F6E67 		.ascii	"long long unsigned int\000"
 4901      206C6F6E 
 4901      6720756E 
 4901      7369676E 
 4901      65642069 
 4902              	.LASF111:
 4903 00ea 63685F74 		.ascii	"ch_threadsize\000"
 4903      68726561 
 4903      6473697A 
 4903      6500
 4904              	.LASF91:
 4905 00f8 65786974 		.ascii	"exitcode\000"
 4905      636F6465 
 4905      00
 4906              	.LASF80:
ARM GAS  /var/folders/qd/4mxf5pkd0zdf0b9dd1hp39180000gn/T//cc0AuJk0.s 			page 88


 4907 0101 6D61696E 		.ascii	"mainthread\000"
 4907      74687265 
 4907      616400
 4908              	.LASF70:
 4909 010c 76697274 		.ascii	"virtual_timers_list_t\000"
 4909      75616C5F 
 4909      74696D65 
 4909      72735F6C 
 4909      6973745F 
 4910              	.LASF82:
 4911 0122 49544D5F 		.ascii	"ITM_RxBuffer\000"
 4911      52784275 
 4911      66666572 
 4911      00
 4912              	.LASF126:
 4913 012f 696F5F71 		.ascii	"io_queue_t\000"
 4913      75657565 
 4913      5F7400
 4914              	.LASF53:
 4915 013a 63685F74 		.ascii	"ch_threads_queue\000"
 4915      68726561 
 4915      64735F71 
 4915      75657565 
 4915      00
 4916              	.LASF33:
 4917 014b 705F7072 		.ascii	"p_prio\000"
 4917      696F00
 4918              	.LASF118:
 4919 0152 63665F6F 		.ascii	"cf_off_state\000"
 4919      66665F73 
 4919      74617465 
 4919      00
 4920              	.LASF128:
 4921 015f 715F7761 		.ascii	"q_waiting\000"
 4921      6974696E 
 4921      6700
 4922              	.LASF1:
 4923 0169 6C6F6E67 		.ascii	"long long int\000"
 4923      206C6F6E 
 4923      6720696E 
 4923      7400
 4924              	.LASF3:
 4925 0177 7369676E 		.ascii	"signed char\000"
 4925      65642063 
 4925      68617200 
 4926              	.LASF117:
 4927 0183 63665F6F 		.ascii	"cf_off_stklimit\000"
 4927      66665F73 
 4927      746B6C69 
 4927      6D697400 
 4928              	.LASF119:
 4929 0193 63665F6F 		.ascii	"cf_off_flags\000"
 4929      66665F66 
 4929      6C616773 
 4929      00
 4930              	.LASF47:
 4931 01a0 705F6D70 		.ascii	"p_mpool\000"
ARM GAS  /var/folders/qd/4mxf5pkd0zdf0b9dd1hp39180000gn/T//cc0AuJk0.s 			page 89


 4931      6F6F6C00 
 4932              	.LASF101:
 4933 01a8 6D5F7175 		.ascii	"m_queue\000"
 4933      65756500 
 4934              	.LASF79:
 4935 01b0 76746C69 		.ascii	"vtlist\000"
 4935      737400
 4936              	.LASF164:
 4937 01b7 706F7274 		.ascii	"port_unlock\000"
 4937      5F756E6C 
 4937      6F636B00 
 4938              	.LASF138:
 4939 01c3 6F757470 		.ascii	"output_queue_t\000"
 4939      75745F71 
 4939      75657565 
 4939      5F7400
 4940              	.LASF93:
 4941 01d2 77747472 		.ascii	"wttrp\000"
 4941      7000
 4942              	.LASF77:
 4943 01d8 63685F73 		.ascii	"ch_system\000"
 4943      79737465 
 4943      6D00
 4944              	.LASF11:
 4945 01e2 6C6F6E67 		.ascii	"long int\000"
 4945      20696E74 
 4945      00
 4946              	.LASF23:
 4947 01eb 74737461 		.ascii	"tstate_t\000"
 4947      74655F74 
 4947      00
 4948              	.LASF141:
 4949 01f4 63684F51 		.ascii	"chOQGetI\000"
 4949      47657449 
 4949      00
 4950              	.LASF130:
 4951 01fd 715F6275 		.ascii	"q_buffer\000"
 4951      66666572 
 4951      00
 4952              	.LASF132:
 4953 0206 715F7772 		.ascii	"q_wrptr\000"
 4953      70747200 
 4954              	.LASF123:
 4955 020e 63686465 		.ascii	"chdebug_t\000"
 4955      6275675F 
 4955      7400
 4956              	.LASF169:
 4957 0218 63685468 		.ascii	"chThdDequeueNextI\000"
 4957      64446571 
 4957      75657565 
 4957      4E657874 
 4957      4900
 4958              	.LASF35:
 4959 022a 705F6E65 		.ascii	"p_newer\000"
 4959      77657200 
 4960              	.LASF98:
 4961 0232 735F7175 		.ascii	"s_queue\000"
ARM GAS  /var/folders/qd/4mxf5pkd0zdf0b9dd1hp39180000gn/T//cc0AuJk0.s 			page 90


 4961      65756500 
 4962              	.LASF59:
 4963 023a 725F6E65 		.ascii	"r_newer\000"
 4963      77657200 
 4964              	.LASF84:
 4965 0242 72656761 		.ascii	"regarm_t\000"
 4965      726D5F74 
 4965      00
 4966              	.LASF66:
 4967 024b 76745F70 		.ascii	"vt_prev\000"
 4967      72657600 
 4968              	.LASF147:
 4969 0253 6C696E6B 		.ascii	"link\000"
 4969      00
 4970              	.LASF151:
 4971 0258 63684951 		.ascii	"chIQPutI\000"
 4971      50757449 
 4971      00
 4972              	.LASF125:
 4973 0261 6D757465 		.ascii	"mutex_t\000"
 4973      785F7400 
 4974              	.LASF167:
 4975 0269 76616C75 		.ascii	"value\000"
 4975      6500
 4976              	.LASF127:
 4977 026f 696F5F71 		.ascii	"io_queue\000"
 4977      75657565 
 4977      00
 4978              	.LASF81:
 4979 0278 69646C65 		.ascii	"idle_thread_wa\000"
 4979      5F746872 
 4979      6561645F 
 4979      776100
 4980              	.LASF28:
 4981 0287 636E745F 		.ascii	"cnt_t\000"
 4981      7400
 4982              	.LASF0:
 4983 028d 756E7369 		.ascii	"unsigned int\000"
 4983      676E6564 
 4983      20696E74 
 4983      00
 4984              	.LASF65:
 4985 029a 76745F6E 		.ascii	"vt_next\000"
 4985      65787400 
 4986              	.LASF17:
 4987 02a2 75696E74 		.ascii	"uint16_t\000"
 4987      31365F74 
 4987      00
 4988              	.LASF83:
 4989 02ab 53797374 		.ascii	"SystemCoreClock\000"
 4989      656D436F 
 4989      7265436C 
 4989      6F636B00 
 4990              	.LASF152:
 4991 02bb 63684951 		.ascii	"chIQResetI\000"
 4991      52657365 
 4991      744900
ARM GAS  /var/folders/qd/4mxf5pkd0zdf0b9dd1hp39180000gn/T//cc0AuJk0.s 			page 91


 4992              	.LASF94:
 4993 02c6 77747365 		.ascii	"wtsemp\000"
 4993      6D7000
 4994              	.LASF42:
 4995 02cd 705F6D73 		.ascii	"p_msgqueue\000"
 4995      67717565 
 4995      756500
 4996              	.LASF124:
 4997 02d8 63685F64 		.ascii	"ch_debug\000"
 4997      65627567 
 4997      00
 4998              	.LASF139:
 4999 02e1 74696D65 		.ascii	"timeout\000"
 4999      6F757400 
 5000              	.LASF99:
 5001 02e9 735F636E 		.ascii	"s_cnt\000"
 5001      7400
 5002              	.LASF9:
 5003 02ef 73686F72 		.ascii	"short unsigned int\000"
 5003      7420756E 
 5003      7369676E 
 5003      65642069 
 5003      6E7400
 5004              	.LASF50:
 5005 0302 63685F74 		.ascii	"ch_thread\000"
 5005      68726561 
 5005      6400
 5006              	.LASF26:
 5007 030c 6D73675F 		.ascii	"msg_t\000"
 5007      7400
 5008              	.LASF76:
 5009 0312 63685F73 		.ascii	"ch_system_t\000"
 5009      79737465 
 5009      6D5F7400 
 5010              	.LASF122:
 5011 031e 63665F6F 		.ascii	"cf_off_time\000"
 5011      66665F74 
 5011      696D6500 
 5012              	.LASF55:
 5013 032a 63685F72 		.ascii	"ch_ready_list\000"
 5013      65616479 
 5013      5F6C6973 
 5013      7400
 5014              	.LASF27:
 5015 0338 6576656E 		.ascii	"eventmask_t\000"
 5015      746D6173 
 5015      6B5F7400 
 5016              	.LASF10:
 5017 0344 5F5F696E 		.ascii	"__int32_t\000"
 5017      7433325F 
 5017      7400
 5018              	.LASF85:
 5019 034e 73746B61 		.ascii	"stkalign_t\000"
 5019      6C69676E 
 5019      5F7400
 5020              	.LASF140:
 5021 0359 63684F51 		.ascii	"chOQWriteTimeout\000"
ARM GAS  /var/folders/qd/4mxf5pkd0zdf0b9dd1hp39180000gn/T//cc0AuJk0.s 			page 92


 5021      57726974 
 5021      6554696D 
 5021      656F7574 
 5021      00
 5022              	.LASF106:
 5023 036a 63685F7A 		.ascii	"ch_zero\000"
 5023      65726F00 
 5024              	.LASF120:
 5025 0372 63665F6F 		.ascii	"cf_off_refs\000"
 5025      66665F72 
 5025      65667300 
 5026              	.LASF160:
 5027 037e 63685468 		.ascii	"chThdQueueObjectInit\000"
 5027      64517565 
 5027      75654F62 
 5027      6A656374 
 5027      496E6974 
 5028              	.LASF41:
 5029 0393 705F7761 		.ascii	"p_waiting\000"
 5029      6974696E 
 5029      6700
 5030              	.LASF21:
 5031 039d 7274636E 		.ascii	"rtcnt_t\000"
 5031      745F7400 
 5032              	.LASF48:
 5033 03a5 74687265 		.ascii	"thread_reference_t\000"
 5033      61645F72 
 5033      65666572 
 5033      656E6365 
 5033      5F7400
 5034              	.LASF171:
 5035 03b8 474E5520 		.ascii	"GNU C11 7.2.1 20170904 (release) [ARM/embedded-7-br"
 5035      43313120 
 5035      372E322E 
 5035      31203230 
 5035      31373039 
 5036 03eb 616E6368 		.ascii	"anch revision 255204] -mcpu=cortex-m4 -mno-thumb-in"
 5036      20726576 
 5036      6973696F 
 5036      6E203235 
 5036      35323034 
 5037 041e 74657277 		.ascii	"terwork -mthumb -ggdb -O2 -fomit-frame-pointer -fal"
 5037      6F726B20 
 5037      2D6D7468 
 5037      756D6220 
 5037      2D676764 
 5038 0451 69676E2D 		.ascii	"ign-functions=16 -ffunction-sections -fdata-section"
 5038      66756E63 
 5038      74696F6E 
 5038      733D3136 
 5038      202D6666 
 5039 0484 73202D66 		.ascii	"s -fno-common\000"
 5039      6E6F2D63 
 5039      6F6D6D6F 
 5039      6E00
 5040              	.LASF71:
 5041 0492 63685F76 		.ascii	"ch_virtual_timers_list\000"
ARM GAS  /var/folders/qd/4mxf5pkd0zdf0b9dd1hp39180000gn/T//cc0AuJk0.s 			page 93


 5041      69727475 
 5041      616C5F74 
 5041      696D6572 
 5041      735F6C69 
 5042              	.LASF129:
 5043 04a9 715F636F 		.ascii	"q_counter\000"
 5043      756E7465 
 5043      7200
 5044              	.LASF2:
 5045 04b3 6C6F6E67 		.ascii	"long double\000"
 5045      20646F75 
 5045      626C6500 
 5046              	.LASF110:
 5047 04bf 63685F74 		.ascii	"ch_timesize\000"
 5047      696D6573 
 5047      697A6500 
 5048              	.LASF116:
 5049 04cb 63665F6F 		.ascii	"cf_off_name\000"
 5049      66665F6E 
 5049      616D6500 
 5050              	.LASF36:
 5051 04d7 705F6F6C 		.ascii	"p_older\000"
 5051      64657200 
 5052              	.LASF58:
 5053 04df 725F6374 		.ascii	"r_ctx\000"
 5053      7800
 5054              	.LASF34:
 5055 04e5 705F6374 		.ascii	"p_ctx\000"
 5055      7800
 5056              	.LASF89:
 5057 04eb 746D5F63 		.ascii	"tm_calibration_t\000"
 5057      616C6962 
 5057      72617469 
 5057      6F6E5F74 
 5057      00
 5058              	.LASF61:
 5059 04fc 725F6375 		.ascii	"r_current\000"
 5059      7272656E 
 5059      7400
 5060              	.LASF60:
 5061 0506 725F6F6C 		.ascii	"r_older\000"
 5061      64657200 
 5062              	.LASF173:
 5063 050e 2F557365 		.ascii	"/Users/nicolas/Library/Mobile Documents/com~apple~C"
 5063      72732F6E 
 5063      69636F6C 
 5063      61732F4C 
 5063      69627261 
 5064 0541 6C6F7564 		.ascii	"loudDocs/Projects/Cours/epuck_project/Sources/lib/C"
 5064      446F6373 
 5064      2F50726F 
 5064      6A656374 
 5064      732F436F 
 5065 0574 68696269 		.ascii	"hibiOS/demos/STM32/RT-STM32F407-DISCOVERY-G++/\000"
 5065      4F532F64 
 5065      656D6F73 
 5065      2F53544D 
ARM GAS  /var/folders/qd/4mxf5pkd0zdf0b9dd1hp39180000gn/T//cc0AuJk0.s 			page 94


 5065      33322F52 
 5066              	.LASF14:
 5067 05a3 5F5F7569 		.ascii	"__uint64_t\000"
 5067      6E743634 
 5067      5F7400
 5068              	.LASF24:
 5069 05ae 74726566 		.ascii	"trefs_t\000"
 5069      735F7400 
 5070              	.LASF109:
 5071 05b6 63685F70 		.ascii	"ch_ptrsize\000"
 5071      74727369 
 5071      7A6500
 5072              	.LASF136:
 5073 05c1 716E6F74 		.ascii	"qnotify_t\000"
 5073      6966795F 
 5073      7400
 5074              	.LASF63:
 5075 05cb 76697274 		.ascii	"virtual_timer_t\000"
 5075      75616C5F 
 5075      74696D65 
 5075      725F7400 
 5076              	.LASF32:
 5077 05db 705F7072 		.ascii	"p_prev\000"
 5077      657600
 5078              	.LASF156:
 5079 05e2 63684F51 		.ascii	"chOQIsFullI\000"
 5079      49734675 
 5079      6C6C4900 
 5080              	.LASF25:
 5081 05ee 74707269 		.ascii	"tprio_t\000"
 5081      6F5F7400 
 5082              	.LASF133:
 5083 05f6 715F7264 		.ascii	"q_rdptr\000"
 5083      70747200 
 5084              	.LASF74:
 5085 05fe 63685F73 		.ascii	"ch_system_debug\000"
 5085      79737465 
 5085      6D5F6465 
 5085      62756700 
 5086              	.LASF155:
 5087 060e 5F426F6F 		.ascii	"_Bool\000"
 5087      6C00
 5088              	.LASF18:
 5089 0614 696E7433 		.ascii	"int32_t\000"
 5089      325F7400 
 5090              	.LASF6:
 5091 061c 756E7369 		.ascii	"unsigned char\000"
 5091      676E6564 
 5091      20636861 
 5091      7200
 5092              	.LASF137:
 5093 062a 696E7075 		.ascii	"input_queue_t\000"
 5093      745F7175 
 5093      6575655F 
 5093      7400
 5094              	.LASF38:
 5095 0638 705F7374 		.ascii	"p_state\000"
ARM GAS  /var/folders/qd/4mxf5pkd0zdf0b9dd1hp39180000gn/T//cc0AuJk0.s 			page 95


 5095      61746500 
 5096              	.LASF45:
 5097 0640 705F6D74 		.ascii	"p_mtxlist\000"
 5097      786C6973 
 5097      7400
 5098              	.LASF7:
 5099 064a 73686F72 		.ascii	"short int\000"
 5099      7420696E 
 5099      7400
 5100              	.LASF57:
 5101 0654 725F7072 		.ascii	"r_prio\000"
 5101      696F00
 5102              	.LASF96:
 5103 065b 65776D61 		.ascii	"ewmask\000"
 5103      736B00
 5104              	.LASF31:
 5105 0662 705F6E65 		.ascii	"p_next\000"
 5105      787400
 5106              	.LASF154:
 5107 0669 696E6679 		.ascii	"infy\000"
 5107      00
 5108              	.LASF121:
 5109 066e 63665F6F 		.ascii	"cf_off_preempt\000"
 5109      66665F70 
 5109      7265656D 
 5109      707400
 5110              	.LASF39:
 5111 067d 705F666C 		.ascii	"p_flags\000"
 5111      61677300 
 5112              	.LASF149:
 5113 0685 5F5F6675 		.ascii	"__func__\000"
 5113      6E635F5F 
 5113      00
 5114              	.LASF163:
 5115 068e 63685379 		.ascii	"chSysLock\000"
 5115      734C6F63 
 5115      6B00
 5116              	.LASF52:
 5117 0698 74687265 		.ascii	"threads_queue_t\000"
 5117      6164735F 
 5117      71756575 
 5117      655F7400 
 5118              	.LASF64:
 5119 06a8 63685F76 		.ascii	"ch_virtual_timer\000"
 5119      69727475 
 5119      616C5F74 
 5119      696D6572 
 5119      00
 5120              	.LASF114:
 5121 06b9 63665F6F 		.ascii	"cf_off_newer\000"
 5121      66665F6E 
 5121      65776572 
 5121      00
 5122              	.LASF97:
 5123 06c6 63685F73 		.ascii	"ch_semaphore\000"
 5123      656D6170 
 5123      686F7265 
ARM GAS  /var/folders/qd/4mxf5pkd0zdf0b9dd1hp39180000gn/T//cc0AuJk0.s 			page 96


 5123      00
 5124              	.LASF44:
 5125 06d3 705F6570 		.ascii	"p_epending\000"
 5125      656E6469 
 5125      6E6700
 5126              	.LASF158:
 5127 06de 63684951 		.ascii	"chIQIsFullI\000"
 5127      49734675 
 5127      6C6C4900 
 5128              	.LASF19:
 5129 06ea 75696E74 		.ascii	"uint32_t\000"
 5129      33325F74 
 5129      00
 5130              	.LASF112:
 5131 06f3 63665F6F 		.ascii	"cf_off_prio\000"
 5131      66665F70 
 5131      72696F00 
 5132              	.LASF56:
 5133 06ff 725F7175 		.ascii	"r_queue\000"
 5133      65756500 
 5134              	.LASF67:
 5135 0707 76745F64 		.ascii	"vt_delta\000"
 5135      656C7461 
 5135      00
 5136              	.LASF51:
 5137 0710 63685F74 		.ascii	"ch_threads_list\000"
 5137      68726561 
 5137      64735F6C 
 5137      69737400 
 5138              	.LASF107:
 5139 0720 63685F73 		.ascii	"ch_size\000"
 5139      697A6500 
 5140              	.LASF13:
 5141 0728 6C6F6E67 		.ascii	"long unsigned int\000"
 5141      20756E73 
 5141      69676E65 
 5141      6420696E 
 5141      7400
 5142              	.LASF104:
 5143 073a 63686172 		.ascii	"char\000"
 5143      00
 5144              	.LASF95:
 5145 073f 77746D74 		.ascii	"wtmtxp\000"
 5145      787000
 5146              	.LASF8:
 5147 0746 5F5F7569 		.ascii	"__uint16_t\000"
 5147      6E743136 
 5147      5F7400
 5148              	.LASF30:
 5149 0751 74687265 		.ascii	"thread_t\000"
 5149      61645F74 
 5149      00
 5150              	.LASF103:
 5151 075a 6D5F6E65 		.ascii	"m_next\000"
 5151      787400
 5152              	.LASF29:
 5153 0761 73797374 		.ascii	"systime_t\000"
ARM GAS  /var/folders/qd/4mxf5pkd0zdf0b9dd1hp39180000gn/T//cc0AuJk0.s 			page 97


 5153      696D655F 
 5153      7400
 5154              	.LASF46:
 5155 076b 705F7265 		.ascii	"p_realprio\000"
 5155      616C7072 
 5155      696F00
 5156              	.LASF62:
 5157 0776 76746675 		.ascii	"vtfunc_t\000"
 5157      6E635F74 
 5157      00
 5158              	.LASF12:
 5159 077f 5F5F7569 		.ascii	"__uint32_t\000"
 5159      6E743332 
 5159      5F7400
 5160              	.LASF166:
 5161 078a 5F5F7365 		.ascii	"__set_BASEPRI\000"
 5161      745F4241 
 5161      53455052 
 5161      4900
 5162              	.LASF75:
 5163 0798 70616E69 		.ascii	"panic_msg\000"
 5163      635F6D73 
 5163      6700
 5164              	.LASF88:
 5165 07a2 6F666673 		.ascii	"offset\000"
 5165      657400
 5166              	.LASF143:
 5167 07a9 63684F51 		.ascii	"chOQResetI\000"
 5167      52657365 
 5167      744900
 5168              	.LASF86:
 5169 07b4 636F6E74 		.ascii	"context\000"
 5169      65787400 
 5170              	.LASF43:
 5171 07bc 705F6D73 		.ascii	"p_msg\000"
 5171      6700
 5172              	.LASF69:
 5173 07c2 76745F70 		.ascii	"vt_par\000"
 5173      617200
 5174              	.LASF144:
 5175 07c9 63684F51 		.ascii	"chOQObjectInit\000"
 5175      4F626A65 
 5175      6374496E 
 5175      697400
 5176              	.LASF113:
 5177 07d8 63665F6F 		.ascii	"cf_off_ctx\000"
 5177      66665F63 
 5177      747800
 5178              	.LASF100:
 5179 07e3 63685F6D 		.ascii	"ch_mutex\000"
 5179      75746578 
 5179      00
 5180              	.LASF40:
 5181 07ec 705F7265 		.ascii	"p_refs\000"
 5181      667300
 5182              	.LASF159:
 5183 07f3 63684951 		.ascii	"chIQIsEmptyI\000"
ARM GAS  /var/folders/qd/4mxf5pkd0zdf0b9dd1hp39180000gn/T//cc0AuJk0.s 			page 98


 5183      4973456D 
 5183      70747949 
 5183      00
 5184              	.LASF134:
 5185 0800 715F6E6F 		.ascii	"q_notify\000"
 5185      74696679 
 5185      00
 5186              	.LASF78:
 5187 0809 726C6973 		.ascii	"rlist\000"
 5187      7400
 5188              	.LASF16:
 5189 080f 75696E74 		.ascii	"uint8_t\000"
 5189      385F7400 
 5190              	.LASF72:
 5191 0817 76745F6C 		.ascii	"vt_lasttime\000"
 5191      61737474 
 5191      696D6500 
 5192              	.LASF92:
 5193 0823 77746F62 		.ascii	"wtobjp\000"
 5193      6A7000
 5194              	.LASF37:
 5195 082a 705F6E61 		.ascii	"p_name\000"
 5195      6D6500
 5196              	.LASF145:
 5197 0831 73697A65 		.ascii	"size\000"
 5197      00
 5198              	.LASF157:
 5199 0836 63684F51 		.ascii	"chOQIsEmptyI\000"
 5199      4973456D 
 5199      70747949 
 5199      00
 5200              	.LASF49:
 5201 0843 74687265 		.ascii	"threads_list_t\000"
 5201      6164735F 
 5201      6C697374 
 5201      5F7400
 5202              	.LASF22:
 5203 0852 746D6F64 		.ascii	"tmode_t\000"
 5203      655F7400 
 5204              	.LASF161:
 5205 085a 63685379 		.ascii	"chSysUnlock\000"
 5205      73556E6C 
 5205      6F636B00 
 5206              	.LASF108:
 5207 0866 63685F76 		.ascii	"ch_version\000"
 5207      65727369 
 5207      6F6E00
 5208              	.LASF135:
 5209 0871 715F6C69 		.ascii	"q_link\000"
 5209      6E6B00
 5210              	.LASF102:
 5211 0878 6D5F6F77 		.ascii	"m_owner\000"
 5211      6E657200 
 5212              	.LASF105:
 5213 0880 63685F69 		.ascii	"ch_identifier\000"
 5213      64656E74 
 5213      69666965 
ARM GAS  /var/folders/qd/4mxf5pkd0zdf0b9dd1hp39180000gn/T//cc0AuJk0.s 			page 99


 5213      7200
 5214              	.LASF68:
 5215 088e 76745F66 		.ascii	"vt_func\000"
 5215      756E6300 
 5216              	.LASF150:
 5217 0896 63684951 		.ascii	"chIQGetTimeout\000"
 5217      47657454 
 5217      696D656F 
 5217      757400
 5218              	.LASF168:
 5219 08a5 63685468 		.ascii	"chThdEnqueueTimeoutS\000"
 5219      64456E71 
 5219      75657565 
 5219      54696D65 
 5219      6F757453 
 5220              		.ident	"GCC: (GNU Tools for Arm Embedded Processors 7-2017-q4-major) 7.2.1 20170904 (release) [ARM
ARM GAS  /var/folders/qd/4mxf5pkd0zdf0b9dd1hp39180000gn/T//cc0AuJk0.s 			page 100


DEFINED SYMBOLS
                            *ABS*:0000000000000000 chqueues.c
/var/folders/qd/4mxf5pkd0zdf0b9dd1hp39180000gn/T//cc0AuJk0.s:16     .text.chIQObjectInit:0000000000000000 $t
/var/folders/qd/4mxf5pkd0zdf0b9dd1hp39180000gn/T//cc0AuJk0.s:24     .text.chIQObjectInit:0000000000000000 chIQObjectInit
/var/folders/qd/4mxf5pkd0zdf0b9dd1hp39180000gn/T//cc0AuJk0.s:77     .text.chIQResetI:0000000000000000 $t
/var/folders/qd/4mxf5pkd0zdf0b9dd1hp39180000gn/T//cc0AuJk0.s:85     .text.chIQResetI:0000000000000000 chIQResetI
/var/folders/qd/4mxf5pkd0zdf0b9dd1hp39180000gn/T//cc0AuJk0.s:108    .text.chIQPutI:0000000000000000 $t
/var/folders/qd/4mxf5pkd0zdf0b9dd1hp39180000gn/T//cc0AuJk0.s:116    .text.chIQPutI:0000000000000000 chIQPutI
/var/folders/qd/4mxf5pkd0zdf0b9dd1hp39180000gn/T//cc0AuJk0.s:183    .text.chIQGetTimeout:0000000000000000 $t
/var/folders/qd/4mxf5pkd0zdf0b9dd1hp39180000gn/T//cc0AuJk0.s:191    .text.chIQGetTimeout:0000000000000000 chIQGetTimeout
/var/folders/qd/4mxf5pkd0zdf0b9dd1hp39180000gn/T//cc0AuJk0.s:336    .text.chIQReadTimeout:0000000000000000 $t
/var/folders/qd/4mxf5pkd0zdf0b9dd1hp39180000gn/T//cc0AuJk0.s:344    .text.chIQReadTimeout:0000000000000000 chIQReadTimeout
/var/folders/qd/4mxf5pkd0zdf0b9dd1hp39180000gn/T//cc0AuJk0.s:535    .text.chOQObjectInit:0000000000000000 $t
/var/folders/qd/4mxf5pkd0zdf0b9dd1hp39180000gn/T//cc0AuJk0.s:543    .text.chOQObjectInit:0000000000000000 chOQObjectInit
/var/folders/qd/4mxf5pkd0zdf0b9dd1hp39180000gn/T//cc0AuJk0.s:587    .text.chOQResetI:0000000000000000 $t
/var/folders/qd/4mxf5pkd0zdf0b9dd1hp39180000gn/T//cc0AuJk0.s:595    .text.chOQResetI:0000000000000000 chOQResetI
/var/folders/qd/4mxf5pkd0zdf0b9dd1hp39180000gn/T//cc0AuJk0.s:628    .text.chOQPutTimeout:0000000000000000 $t
/var/folders/qd/4mxf5pkd0zdf0b9dd1hp39180000gn/T//cc0AuJk0.s:636    .text.chOQPutTimeout:0000000000000000 chOQPutTimeout
/var/folders/qd/4mxf5pkd0zdf0b9dd1hp39180000gn/T//cc0AuJk0.s:768    .text.chOQGetI:0000000000000000 $t
/var/folders/qd/4mxf5pkd0zdf0b9dd1hp39180000gn/T//cc0AuJk0.s:776    .text.chOQGetI:0000000000000000 chOQGetI
/var/folders/qd/4mxf5pkd0zdf0b9dd1hp39180000gn/T//cc0AuJk0.s:852    .text.chOQWriteTimeout:0000000000000000 $t
/var/folders/qd/4mxf5pkd0zdf0b9dd1hp39180000gn/T//cc0AuJk0.s:860    .text.chOQWriteTimeout:0000000000000000 chOQWriteTimeout

UNDEFINED SYMBOLS
chThdDequeueAllI
chThdDequeueNextI
chThdEnqueueTimeoutS
