ARM GAS  /var/folders/qd/4mxf5pkd0zdf0b9dd1hp39180000gn/T//cc17QTwq.s 			page 1


   1              		.cpu cortex-m4
   2              		.eabi_attribute 20, 1
   3              		.eabi_attribute 21, 1
   4              		.eabi_attribute 23, 3
   5              		.eabi_attribute 24, 1
   6              		.eabi_attribute 25, 1
   7              		.eabi_attribute 26, 1
   8              		.eabi_attribute 30, 2
   9              		.eabi_attribute 34, 1
  10              		.eabi_attribute 18, 4
  11              		.file	"chthreads.c"
  12              		.text
  13              	.Ltext0:
  14              		.cfi_sections	.debug_frame
  15              		.section	.text._thread_init,"ax",%progbits
  16              		.align	1
  17              		.p2align 4,,15
  18              		.global	_thread_init
  19              		.syntax unified
  20              		.thumb
  21              		.thumb_func
  22              		.fpu softvfp
  23              		.type	_thread_init, %function
  24              	_thread_init:
  25              	.LFB229:
  26              		.file 1 "../../../os/rt/src/chthreads.c"
  27              		.loc 1 91 0
  28              		.cfi_startproc
  29              		@ args = 0, pretend = 0, frame = 0
  30              		@ frame_needed = 0, uses_anonymous_args = 0
  31              		@ link register save eliminated.
  32              	.LVL0:
  33 0000 70B4     		push	{r4, r5, r6}
  34              		.cfi_def_cfa_offset 12
  35              		.cfi_offset 4, -12
  36              		.cfi_offset 5, -8
  37              		.cfi_offset 6, -4
  38              		.loc 1 114 0
  39 0002 0C4A     		ldr	r2, .L4
  40              		.loc 1 100 0
  41 0004 C163     		str	r1, [r0, #60]
  42              		.loc 1 114 0
  43 0006 5469     		ldr	r4, [r2, #20]
  44              		.loc 1 93 0
  45 0008 8160     		str	r1, [r0, #8]
  46              		.loc 1 95 0
  47 000a 0125     		movs	r5, #1
  48              		.loc 1 101 0
  49 000c 0021     		movs	r1, #0
  50              	.LVL1:
  51              		.loc 1 113 0
  52 000e 0226     		movs	r6, #2
  53              		.loc 1 95 0
  54 0010 8577     		strb	r5, [r0, #30]
  55              		.loc 1 104 0
  56 0012 C0E90D11 		strd	r1, r1, [r0, #52]
  57              		.loc 1 117 0
ARM GAS  /var/folders/qd/4mxf5pkd0zdf0b9dd1hp39180000gn/T//cc17QTwq.s 			page 2


  58 0016 00F12405 		add	r5, r0, #36
  59              		.loc 1 113 0
  60 001a 8161     		str	r1, [r0, #24]
  61              		.loc 1 120 0
  62 001c 00F12801 		add	r1, r0, #40
  63              		.loc 1 114 0
  64 0020 4461     		str	r4, [r0, #20]
  65 0022 0261     		str	r2, [r0, #16]
  66              		.loc 1 113 0
  67 0024 8683     		strh	r6, [r0, #28]	@ movhi
  68              		.loc 1 114 0
  69 0026 2061     		str	r0, [r4, #16]
  70              	.LBB200:
  71              	.LBB201:
  72              		.file 2 "../../../os/rt/include/chschd.h"
  73              		.loc 2 604 0
  74 0028 C0E90951 		strd	r5, r1, [r0, #36]
  75              	.LBE201:
  76              	.LBE200:
  77              		.loc 1 114 0
  78 002c 5061     		str	r0, [r2, #20]
  79              	.LVL2:
  80              	.LBB203:
  81              	.LBB202:
  82              		.loc 2 605 0
  83 002e C162     		str	r1, [r0, #44]
  84              	.LBE202:
  85              	.LBE203:
  86              		.loc 1 133 0
  87 0030 70BC     		pop	{r4, r5, r6}
  88              		.cfi_restore 6
  89              		.cfi_restore 5
  90              		.cfi_restore 4
  91              		.cfi_def_cfa_offset 0
  92              	.LVL3:
  93 0032 7047     		bx	lr
  94              	.L5:
  95              		.align	2
  96              	.L4:
  97 0034 00000000 		.word	ch
  98              		.cfi_endproc
  99              	.LFE229:
 100              		.size	_thread_init, .-_thread_init
 101              		.section	.text.chThdCreateI,"ax",%progbits
 102              		.align	1
 103              		.p2align 4,,15
 104              		.global	chThdCreateI
 105              		.syntax unified
 106              		.thumb
 107              		.thumb_func
 108              		.fpu softvfp
 109              		.type	chThdCreateI, %function
 110              	chThdCreateI:
 111              	.LFB230:
 112              		.loc 1 178 0
 113              		.cfi_startproc
 114              		@ args = 4, pretend = 0, frame = 0
ARM GAS  /var/folders/qd/4mxf5pkd0zdf0b9dd1hp39180000gn/T//cc17QTwq.s 			page 3


 115              		@ frame_needed = 0, uses_anonymous_args = 0
 116              		@ link register save eliminated.
 117              	.LVL4:
 118 0000 F0B4     		push	{r4, r5, r6, r7}
 119              		.cfi_def_cfa_offset 16
 120              		.cfi_offset 4, -16
 121              		.cfi_offset 5, -12
 122              		.cfi_offset 6, -8
 123              		.cfi_offset 7, -4
 124              	.LBB204:
 125              	.LBB205:
 126              		.loc 1 114 0
 127 0002 104D     		ldr	r5, .L8
 128              	.LBE205:
 129              	.LBE204:
 130              		.loc 1 187 0
 131 0004 2439     		subs	r1, r1, #36
 132              	.LVL5:
 133 0006 4618     		adds	r6, r0, r1
 134              	.LBB212:
 135              	.LBB210:
 136              		.loc 1 114 0
 137 0008 6F69     		ldr	r7, [r5, #20]
 138              	.LBE210:
 139              	.LBE212:
 140              		.loc 1 187 0
 141 000a C660     		str	r6, [r0, #12]
 142 000c 4350     		str	r3, [r0, r1]
 143              		.loc 1 178 0
 144 000e 049B     		ldr	r3, [sp, #16]
 145              	.LVL6:
 146              		.loc 1 187 0
 147 0010 7360     		str	r3, [r6, #4]
 148 0012 0D4B     		ldr	r3, .L8+4
 149 0014 3362     		str	r3, [r6, #32]
 150              	.LVL7:
 151              	.LBB213:
 152              	.LBB211:
 153              		.loc 1 113 0
 154 0016 0223     		movs	r3, #2
 155              		.loc 1 93 0
 156 0018 8260     		str	r2, [r0, #8]
 157              		.loc 1 95 0
 158 001a 0126     		movs	r6, #1
 159              	.LVL8:
 160              		.loc 1 100 0
 161 001c C263     		str	r2, [r0, #60]
 162              		.loc 1 113 0
 163 001e 8383     		strh	r3, [r0, #28]	@ movhi
 164              	.LVL9:
 165              		.loc 1 117 0
 166 0020 00F12401 		add	r1, r0, #36
 167              	.LVL10:
 168              		.loc 1 101 0
 169 0024 0023     		movs	r3, #0
 170              		.loc 1 120 0
 171 0026 00F12802 		add	r2, r0, #40
ARM GAS  /var/folders/qd/4mxf5pkd0zdf0b9dd1hp39180000gn/T//cc17QTwq.s 			page 4


 172              	.LVL11:
 173              		.loc 1 114 0
 174 002a C0E90457 		strd	r5, r7, [r0, #16]
 175              		.loc 1 95 0
 176 002e 8677     		strb	r6, [r0, #30]
 177              		.loc 1 104 0
 178 0030 C0E90D33 		strd	r3, r3, [r0, #52]
 179              		.loc 1 113 0
 180 0034 8361     		str	r3, [r0, #24]
 181              		.loc 1 114 0
 182 0036 3861     		str	r0, [r7, #16]
 183 0038 6861     		str	r0, [r5, #20]
 184              	.LVL12:
 185              	.LBB206:
 186              	.LBB207:
 187              		.loc 2 566 0
 188 003a 4162     		str	r1, [r0, #36]
 189              	.LBE207:
 190              	.LBE206:
 191              	.LBB208:
 192              	.LBB209:
 193              		.loc 2 605 0
 194 003c C0E90A22 		strd	r2, r2, [r0, #40]
 195              	.LVL13:
 196              	.LBE209:
 197              	.LBE208:
 198              	.LBE211:
 199              	.LBE213:
 200              		.loc 1 190 0
 201 0040 F0BC     		pop	{r4, r5, r6, r7}
 202              		.cfi_restore 7
 203              		.cfi_restore 6
 204              		.cfi_restore 5
 205              		.cfi_restore 4
 206              		.cfi_def_cfa_offset 0
 207              	.LVL14:
 208 0042 7047     		bx	lr
 209              	.L9:
 210              		.align	2
 211              	.L8:
 212 0044 00000000 		.word	ch
 213 0048 00000000 		.word	_port_thread_start
 214              		.cfi_endproc
 215              	.LFE230:
 216              		.size	chThdCreateI, .-chThdCreateI
 217              		.section	.text.chThdCreateStatic,"ax",%progbits
 218              		.align	1
 219              		.p2align 4,,15
 220              		.global	chThdCreateStatic
 221              		.syntax unified
 222              		.thumb
 223              		.thumb_func
 224              		.fpu softvfp
 225              		.type	chThdCreateStatic, %function
 226              	chThdCreateStatic:
 227              	.LFB231:
 228              		.loc 1 209 0
ARM GAS  /var/folders/qd/4mxf5pkd0zdf0b9dd1hp39180000gn/T//cc17QTwq.s 			page 5


 229              		.cfi_startproc
 230              		@ args = 4, pretend = 0, frame = 0
 231              		@ frame_needed = 0, uses_anonymous_args = 0
 232              	.LVL15:
 233 0000 F8B5     		push	{r3, r4, r5, r6, r7, lr}
 234              		.cfi_def_cfa_offset 24
 235              		.cfi_offset 3, -24
 236              		.cfi_offset 4, -20
 237              		.cfi_offset 5, -16
 238              		.cfi_offset 6, -12
 239              		.cfi_offset 7, -8
 240              		.cfi_offset 14, -4
 241              		.loc 1 209 0
 242 0002 0446     		mov	r4, r0
 243              	.LBB214:
 244              	.LBB215:
 245              	.LBB216:
 246              	.LBB217:
 247              		.file 3 "../../../os/ext/CMSIS/include/core_cmFunc.h"
 248              		.loc 3 546 0
 249 0004 2025     		movs	r5, #32
 250              		.syntax unified
 251              	@ 546 "../../../os/ext/CMSIS/include/core_cmFunc.h" 1
 252 0006 85F31188 		MSR basepri, r5
 253              	@ 0 "" 2
 254              	.LVL16:
 255              		.thumb
 256              		.syntax unified
 257              	.LBE217:
 258              	.LBE216:
 259              	.LBE215:
 260              	.LBE214:
 261              	.LBB218:
 262              	.LBB219:
 263              	.LBB220:
 264              	.LBB221:
 265              		.loc 1 114 0
 266 000a 134E     		ldr	r6, .L12
 267              	.LBE221:
 268              	.LBE220:
 269              		.loc 1 187 0
 270 000c 2439     		subs	r1, r1, #36
 271              	.LVL17:
 272 000e 4518     		adds	r5, r0, r1
 273              	.LBB227:
 274              	.LBB224:
 275              		.loc 1 114 0
 276 0010 7769     		ldr	r7, [r6, #20]
 277              	.LBE224:
 278              	.LBE227:
 279              		.loc 1 187 0
 280 0012 C560     		str	r5, [r0, #12]
 281 0014 4350     		str	r3, [r0, r1]
 282 0016 069B     		ldr	r3, [sp, #24]
 283              	.LVL18:
 284 0018 6B60     		str	r3, [r5, #4]
 285 001a 1049     		ldr	r1, .L12+4
ARM GAS  /var/folders/qd/4mxf5pkd0zdf0b9dd1hp39180000gn/T//cc17QTwq.s 			page 6


 286              	.LVL19:
 287 001c 2962     		str	r1, [r5, #32]
 288              	.LVL20:
 289              	.LBB228:
 290              	.LBB225:
 291              		.loc 1 113 0
 292 001e 0223     		movs	r3, #2
 293              		.loc 1 101 0
 294 0020 0025     		movs	r5, #0
 295              	.LVL21:
 296              		.loc 1 113 0
 297 0022 8383     		strh	r3, [r0, #28]	@ movhi
 298              	.LVL22:
 299              		.loc 1 117 0
 300 0024 00F1240C 		add	ip, r0, #36
 301              		.loc 1 120 0
 302 0028 00F12803 		add	r3, r0, #40
 303              		.loc 1 95 0
 304 002c 0121     		movs	r1, #1
 305              		.loc 1 93 0
 306 002e 8260     		str	r2, [r0, #8]
 307              		.loc 1 95 0
 308 0030 8177     		strb	r1, [r0, #30]
 309              		.loc 1 114 0
 310 0032 C0E90467 		strd	r6, r7, [r0, #16]
 311              		.loc 1 100 0
 312 0036 C263     		str	r2, [r0, #60]
 313              		.loc 1 104 0
 314 0038 C0E90D55 		strd	r5, r5, [r0, #52]
 315              		.loc 1 113 0
 316 003c 8561     		str	r5, [r0, #24]
 317              	.LBE225:
 318              	.LBE228:
 319              	.LBE219:
 320              	.LBE218:
 321              		.loc 1 223 0
 322 003e 2946     		mov	r1, r5
 323              	.LBB231:
 324              	.LBB230:
 325              	.LBB229:
 326              	.LBB226:
 327              		.loc 1 114 0
 328 0040 3861     		str	r0, [r7, #16]
 329              	.LBB222:
 330              	.LBB223:
 331              		.loc 2 604 0
 332 0042 C0E909C3 		strd	ip, r3, [r0, #36]
 333              		.loc 2 605 0
 334 0046 C362     		str	r3, [r0, #44]
 335              	.LBE223:
 336              	.LBE222:
 337              		.loc 1 114 0
 338 0048 7061     		str	r0, [r6, #20]
 339              	.LVL23:
 340              	.LBE226:
 341              	.LBE229:
 342              	.LBE230:
ARM GAS  /var/folders/qd/4mxf5pkd0zdf0b9dd1hp39180000gn/T//cc17QTwq.s 			page 7


 343              	.LBE231:
 344              		.loc 1 223 0
 345 004a FFF7FEFF 		bl	chSchWakeupS
 346              	.LVL24:
 347              	.LBB232:
 348              	.LBB233:
 349              	.LBB234:
 350              	.LBB235:
 351              	.LBB236:
 352              		.loc 3 546 0
 353              		.syntax unified
 354              	@ 546 "../../../os/ext/CMSIS/include/core_cmFunc.h" 1
 355 004e 85F31188 		MSR basepri, r5
 356              	@ 0 "" 2
 357              	.LVL25:
 358              		.thumb
 359              		.syntax unified
 360              	.LBE236:
 361              	.LBE235:
 362              	.LBE234:
 363              	.LBE233:
 364              	.LBE232:
 365              		.loc 1 227 0
 366 0052 2046     		mov	r0, r4
 367 0054 F8BD     		pop	{r3, r4, r5, r6, r7, pc}
 368              	.LVL26:
 369              	.L13:
 370 0056 00BF     		.align	2
 371              	.L12:
 372 0058 00000000 		.word	ch
 373 005c 00000000 		.word	_port_thread_start
 374              		.cfi_endproc
 375              	.LFE231:
 376              		.size	chThdCreateStatic, .-chThdCreateStatic
 377              		.section	.text.chThdStart,"ax",%progbits
 378              		.align	1
 379              		.p2align 4,,15
 380              		.global	chThdStart
 381              		.syntax unified
 382              		.thumb
 383              		.thumb_func
 384              		.fpu softvfp
 385              		.type	chThdStart, %function
 386              	chThdStart:
 387              	.LFB232:
 388              		.loc 1 238 0
 389              		.cfi_startproc
 390              		@ args = 0, pretend = 0, frame = 0
 391              		@ frame_needed = 0, uses_anonymous_args = 0
 392              	.LVL27:
 393 0000 08B5     		push	{r3, lr}
 394              		.cfi_def_cfa_offset 8
 395              		.cfi_offset 3, -8
 396              		.cfi_offset 14, -4
 397              	.LBB237:
 398              	.LBB238:
 399              	.LBB239:
ARM GAS  /var/folders/qd/4mxf5pkd0zdf0b9dd1hp39180000gn/T//cc17QTwq.s 			page 8


 400              	.LBB240:
 401              		.loc 3 546 0
 402 0002 2023     		movs	r3, #32
 403              		.syntax unified
 404              	@ 546 "../../../os/ext/CMSIS/include/core_cmFunc.h" 1
 405 0004 83F31188 		MSR basepri, r3
 406              	@ 0 "" 2
 407              	.LVL28:
 408              		.thumb
 409              		.syntax unified
 410              	.LBE240:
 411              	.LBE239:
 412              	.LBE238:
 413              	.LBE237:
 414              	.LBB241:
 415              	.LBB242:
 416              		.file 4 "../../../os/rt/include/chthreads.h"
 417              		.loc 4 249 0
 418 0008 FFF7FEFF 		bl	chSchReadyI
 419              	.LVL29:
 420              	.LBE242:
 421              	.LBE241:
 422              	.LBB243:
 423              	.LBB244:
 424              	.LBB245:
 425              	.LBB246:
 426              	.LBB247:
 427              		.loc 3 546 0
 428 000c 0023     		movs	r3, #0
 429              		.syntax unified
 430              	@ 546 "../../../os/ext/CMSIS/include/core_cmFunc.h" 1
 431 000e 83F31188 		MSR basepri, r3
 432              	@ 0 "" 2
 433              	.LVL30:
 434              		.thumb
 435              		.syntax unified
 436              	.LBE247:
 437              	.LBE246:
 438              	.LBE245:
 439              	.LBE244:
 440              	.LBE243:
 441              		.loc 1 245 0
 442 0012 08BD     		pop	{r3, pc}
 443              		.cfi_endproc
 444              	.LFE232:
 445              		.size	chThdStart, .-chThdStart
 446              		.section	.text.chThdSetPriority,"ax",%progbits
 447              		.align	1
 448              		.p2align 4,,15
 449              		.global	chThdSetPriority
 450              		.syntax unified
 451              		.thumb
 452              		.thumb_func
 453              		.fpu softvfp
 454              		.type	chThdSetPriority, %function
 455              	chThdSetPriority:
 456              	.LFB233:
ARM GAS  /var/folders/qd/4mxf5pkd0zdf0b9dd1hp39180000gn/T//cc17QTwq.s 			page 9


 457              		.loc 1 259 0
 458              		.cfi_startproc
 459              		@ args = 0, pretend = 0, frame = 0
 460              		@ frame_needed = 0, uses_anonymous_args = 0
 461              	.LVL31:
 462 0000 10B5     		push	{r4, lr}
 463              		.cfi_def_cfa_offset 8
 464              		.cfi_offset 4, -8
 465              		.cfi_offset 14, -4
 466              	.LBB248:
 467              	.LBB249:
 468              	.LBB250:
 469              	.LBB251:
 470              		.loc 3 546 0
 471 0002 2023     		movs	r3, #32
 472              		.syntax unified
 473              	@ 546 "../../../os/ext/CMSIS/include/core_cmFunc.h" 1
 474 0004 83F31188 		MSR basepri, r3
 475              	@ 0 "" 2
 476              	.LVL32:
 477              		.thumb
 478              		.syntax unified
 479              	.LBE251:
 480              	.LBE250:
 481              	.LBE249:
 482              	.LBE248:
 483              		.loc 1 266 0
 484 0008 084B     		ldr	r3, .L20
 485 000a 9B69     		ldr	r3, [r3, #24]
 486 000c DC6B     		ldr	r4, [r3, #60]
 487              	.LVL33:
 488              		.loc 1 267 0
 489 000e 9968     		ldr	r1, [r3, #8]
 490 0010 A142     		cmp	r1, r4
 491 0012 01D0     		beq	.L17
 492              		.loc 1 267 0 is_stmt 0 discriminator 1
 493 0014 8142     		cmp	r1, r0
 494 0016 00D2     		bcs	.L18
 495              	.L17:
 496              		.loc 1 268 0 is_stmt 1
 497 0018 9860     		str	r0, [r3, #8]
 498              	.L18:
 499              		.loc 1 270 0
 500 001a D863     		str	r0, [r3, #60]
 501              		.loc 1 275 0
 502 001c FFF7FEFF 		bl	chSchRescheduleS
 503              	.LVL34:
 504              	.LBB252:
 505              	.LBB253:
 506              	.LBB254:
 507              	.LBB255:
 508              	.LBB256:
 509              		.loc 3 546 0
 510 0020 0023     		movs	r3, #0
 511              		.syntax unified
 512              	@ 546 "../../../os/ext/CMSIS/include/core_cmFunc.h" 1
 513 0022 83F31188 		MSR basepri, r3
ARM GAS  /var/folders/qd/4mxf5pkd0zdf0b9dd1hp39180000gn/T//cc17QTwq.s 			page 10


 514              	@ 0 "" 2
 515              	.LVL35:
 516              		.thumb
 517              		.syntax unified
 518              	.LBE256:
 519              	.LBE255:
 520              	.LBE254:
 521              	.LBE253:
 522              	.LBE252:
 523              		.loc 1 279 0
 524 0026 2046     		mov	r0, r4
 525 0028 10BD     		pop	{r4, pc}
 526              	.LVL36:
 527              	.L21:
 528 002a 00BF     		.align	2
 529              	.L20:
 530 002c 00000000 		.word	ch
 531              		.cfi_endproc
 532              	.LFE233:
 533              		.size	chThdSetPriority, .-chThdSetPriority
 534              		.section	.text.chThdTerminate,"ax",%progbits
 535              		.align	1
 536              		.p2align 4,,15
 537              		.global	chThdTerminate
 538              		.syntax unified
 539              		.thumb
 540              		.thumb_func
 541              		.fpu softvfp
 542              		.type	chThdTerminate, %function
 543              	chThdTerminate:
 544              	.LFB234:
 545              		.loc 1 293 0
 546              		.cfi_startproc
 547              		@ args = 0, pretend = 0, frame = 0
 548              		@ frame_needed = 0, uses_anonymous_args = 0
 549              		@ link register save eliminated.
 550              	.LVL37:
 551              	.LBB257:
 552              	.LBB258:
 553              	.LBB259:
 554              	.LBB260:
 555              		.loc 3 546 0
 556 0000 2023     		movs	r3, #32
 557              		.syntax unified
 558              	@ 546 "../../../os/ext/CMSIS/include/core_cmFunc.h" 1
 559 0002 83F31188 		MSR basepri, r3
 560              	@ 0 "" 2
 561              	.LVL38:
 562              		.thumb
 563              		.syntax unified
 564              	.LBE260:
 565              	.LBE259:
 566              	.LBE258:
 567              	.LBE257:
 568              		.loc 1 296 0
 569 0006 437F     		ldrb	r3, [r0, #29]	@ zero_extendqisi2
 570 0008 43F00403 		orr	r3, r3, #4
ARM GAS  /var/folders/qd/4mxf5pkd0zdf0b9dd1hp39180000gn/T//cc17QTwq.s 			page 11


 571 000c 4377     		strb	r3, [r0, #29]
 572              	.LVL39:
 573              	.LBB261:
 574              	.LBB262:
 575              	.LBB263:
 576              	.LBB264:
 577              	.LBB265:
 578              		.loc 3 546 0
 579 000e 0023     		movs	r3, #0
 580              		.syntax unified
 581              	@ 546 "../../../os/ext/CMSIS/include/core_cmFunc.h" 1
 582 0010 83F31188 		MSR basepri, r3
 583              	@ 0 "" 2
 584              	.LVL40:
 585              		.thumb
 586              		.syntax unified
 587              	.LBE265:
 588              	.LBE264:
 589              	.LBE263:
 590              	.LBE262:
 591              	.LBE261:
 592              		.loc 1 298 0
 593 0014 7047     		bx	lr
 594              		.cfi_endproc
 595              	.LFE234:
 596              		.size	chThdTerminate, .-chThdTerminate
 597 0016 00BF     		.section	.text.chThdSleep,"ax",%progbits
 598              		.align	1
 599              		.p2align 4,,15
 600              		.global	chThdSleep
 601              		.syntax unified
 602              		.thumb
 603              		.thumb_func
 604              		.fpu softvfp
 605              		.type	chThdSleep, %function
 606              	chThdSleep:
 607              	.LFB235:
 608              		.loc 1 312 0
 609              		.cfi_startproc
 610              		@ args = 0, pretend = 0, frame = 0
 611              		@ frame_needed = 0, uses_anonymous_args = 0
 612              	.LVL41:
 613 0000 08B5     		push	{r3, lr}
 614              		.cfi_def_cfa_offset 8
 615              		.cfi_offset 3, -8
 616              		.cfi_offset 14, -4
 617              		.loc 1 312 0
 618 0002 0146     		mov	r1, r0
 619              	.LBB266:
 620              	.LBB267:
 621              	.LBB268:
 622              	.LBB269:
 623              		.loc 3 546 0
 624 0004 2023     		movs	r3, #32
 625              		.syntax unified
 626              	@ 546 "../../../os/ext/CMSIS/include/core_cmFunc.h" 1
 627 0006 83F31188 		MSR basepri, r3
ARM GAS  /var/folders/qd/4mxf5pkd0zdf0b9dd1hp39180000gn/T//cc17QTwq.s 			page 12


 628              	@ 0 "" 2
 629              	.LVL42:
 630              		.thumb
 631              		.syntax unified
 632              	.LBE269:
 633              	.LBE268:
 634              	.LBE267:
 635              	.LBE266:
 636              	.LBB270:
 637              	.LBB271:
 638              		.loc 4 268 0
 639 000a 0820     		movs	r0, #8
 640              	.LVL43:
 641 000c FFF7FEFF 		bl	chSchGoSleepTimeoutS
 642              	.LVL44:
 643              	.LBE271:
 644              	.LBE270:
 645              	.LBB272:
 646              	.LBB273:
 647              	.LBB274:
 648              	.LBB275:
 649              	.LBB276:
 650              		.loc 3 546 0
 651 0010 0023     		movs	r3, #0
 652              		.syntax unified
 653              	@ 546 "../../../os/ext/CMSIS/include/core_cmFunc.h" 1
 654 0012 83F31188 		MSR basepri, r3
 655              	@ 0 "" 2
 656              	.LVL45:
 657              		.thumb
 658              		.syntax unified
 659              	.LBE276:
 660              	.LBE275:
 661              	.LBE274:
 662              	.LBE273:
 663              	.LBE272:
 664              		.loc 1 317 0
 665 0016 08BD     		pop	{r3, pc}
 666              		.cfi_endproc
 667              	.LFE235:
 668              		.size	chThdSleep, .-chThdSleep
 669              		.section	.text.chThdSleepUntil,"ax",%progbits
 670              		.align	1
 671              		.p2align 4,,15
 672              		.global	chThdSleepUntil
 673              		.syntax unified
 674              		.thumb
 675              		.thumb_func
 676              		.fpu softvfp
 677              		.type	chThdSleepUntil, %function
 678              	chThdSleepUntil:
 679              	.LFB236:
 680              		.loc 1 332 0
 681              		.cfi_startproc
 682              		@ args = 0, pretend = 0, frame = 0
 683              		@ frame_needed = 0, uses_anonymous_args = 0
 684              	.LVL46:
ARM GAS  /var/folders/qd/4mxf5pkd0zdf0b9dd1hp39180000gn/T//cc17QTwq.s 			page 13


 685 0000 08B5     		push	{r3, lr}
 686              		.cfi_def_cfa_offset 8
 687              		.cfi_offset 3, -8
 688              		.cfi_offset 14, -4
 689              	.LBB277:
 690              	.LBB278:
 691              	.LBB279:
 692              	.LBB280:
 693              		.loc 3 546 0
 694 0002 2023     		movs	r3, #32
 695              		.syntax unified
 696              	@ 546 "../../../os/ext/CMSIS/include/core_cmFunc.h" 1
 697 0004 83F31188 		MSR basepri, r3
 698              	@ 0 "" 2
 699              	.LVL47:
 700              		.thumb
 701              		.syntax unified
 702              	.LBE280:
 703              	.LBE279:
 704              	.LBE278:
 705              	.LBE277:
 706              	.LBB281:
 707              	.LBB282:
 708              	.LBB283:
 709              	.LBB284:
 710              		.file 5 "../../../os/hal/ports/STM32/LLD/TIMv1/st_lld.h"
 711              		.loc 5 129 0
 712 0008 4FF08043 		mov	r3, #1073741824
 713 000c 596A     		ldr	r1, [r3, #36]
 714              	.LVL48:
 715              	.LBE284:
 716              	.LBE283:
 717              	.LBE282:
 718              	.LBE281:
 719              		.loc 1 336 0
 720 000e 411A     		subs	r1, r0, r1
 721              	.LVL49:
 722 0010 02D0     		beq	.L26
 723              	.LVL50:
 724              	.LBB285:
 725              	.LBB286:
 726              		.loc 4 268 0
 727 0012 0820     		movs	r0, #8
 728 0014 FFF7FEFF 		bl	chSchGoSleepTimeoutS
 729              	.LVL51:
 730              	.L26:
 731              	.LBE286:
 732              	.LBE285:
 733              	.LBB287:
 734              	.LBB288:
 735              	.LBB289:
 736              	.LBB290:
 737              	.LBB291:
 738              		.loc 3 546 0
 739 0018 0023     		movs	r3, #0
 740              		.syntax unified
 741              	@ 546 "../../../os/ext/CMSIS/include/core_cmFunc.h" 1
ARM GAS  /var/folders/qd/4mxf5pkd0zdf0b9dd1hp39180000gn/T//cc17QTwq.s 			page 14


 742 001a 83F31188 		MSR basepri, r3
 743              	@ 0 "" 2
 744              	.LVL52:
 745              		.thumb
 746              		.syntax unified
 747              	.LBE291:
 748              	.LBE290:
 749              	.LBE289:
 750              	.LBE288:
 751              	.LBE287:
 752              		.loc 1 340 0
 753 001e 08BD     		pop	{r3, pc}
 754              		.cfi_endproc
 755              	.LFE236:
 756              		.size	chThdSleepUntil, .-chThdSleepUntil
 757              		.section	.text.chThdSleepUntilWindowed,"ax",%progbits
 758              		.align	1
 759              		.p2align 4,,15
 760              		.global	chThdSleepUntilWindowed
 761              		.syntax unified
 762              		.thumb
 763              		.thumb_func
 764              		.fpu softvfp
 765              		.type	chThdSleepUntilWindowed, %function
 766              	chThdSleepUntilWindowed:
 767              	.LFB237:
 768              		.loc 1 356 0
 769              		.cfi_startproc
 770              		@ args = 0, pretend = 0, frame = 0
 771              		@ frame_needed = 0, uses_anonymous_args = 0
 772              	.LVL53:
 773 0000 10B5     		push	{r4, lr}
 774              		.cfi_def_cfa_offset 8
 775              		.cfi_offset 4, -8
 776              		.cfi_offset 14, -4
 777              	.LBB292:
 778              	.LBB293:
 779              	.LBB294:
 780              	.LBB295:
 781              		.loc 3 546 0
 782 0002 2023     		movs	r3, #32
 783              	.LBE295:
 784              	.LBE294:
 785              	.LBE293:
 786              	.LBE292:
 787              		.loc 1 356 0
 788 0004 0C46     		mov	r4, r1
 789              	.LBB299:
 790              	.LBB298:
 791              	.LBB297:
 792              	.LBB296:
 793              		.loc 3 546 0
 794              		.syntax unified
 795              	@ 546 "../../../os/ext/CMSIS/include/core_cmFunc.h" 1
 796 0006 83F31188 		MSR basepri, r3
 797              	@ 0 "" 2
 798              	.LVL54:
ARM GAS  /var/folders/qd/4mxf5pkd0zdf0b9dd1hp39180000gn/T//cc17QTwq.s 			page 15


 799              		.thumb
 800              		.syntax unified
 801              	.LBE296:
 802              	.LBE297:
 803              	.LBE298:
 804              	.LBE299:
 805              	.LBB300:
 806              	.LBB301:
 807              	.LBB302:
 808              	.LBB303:
 809              		.loc 5 129 0
 810 000a 4FF08042 		mov	r2, #1073741824
 811              	.LBE303:
 812              	.LBE302:
 813              	.LBE301:
 814              	.LBE300:
 815              	.LBB307:
 816              	.LBB308:
 817              		.file 6 "../../../os/rt/include/chvt.h"
 818              		.loc 6 288 0
 819 000e 0B1A     		subs	r3, r1, r0
 820              	.LBE308:
 821              	.LBE307:
 822              	.LBB310:
 823              	.LBB306:
 824              	.LBB305:
 825              	.LBB304:
 826              		.loc 5 129 0
 827 0010 516A     		ldr	r1, [r2, #36]
 828              	.LVL55:
 829              	.LBE304:
 830              	.LBE305:
 831              	.LBE306:
 832              	.LBE310:
 833              	.LBB311:
 834              	.LBB309:
 835              		.loc 6 288 0
 836 0012 081A     		subs	r0, r1, r0
 837              	.LVL56:
 838              	.LBE309:
 839              	.LBE311:
 840              		.loc 1 361 0
 841 0014 9842     		cmp	r0, r3
 842 0016 03D2     		bcs	.L32
 843              	.LVL57:
 844              	.LBB312:
 845              	.LBB313:
 846              		.loc 4 268 0
 847 0018 611A     		subs	r1, r4, r1
 848              	.LVL58:
 849 001a 0820     		movs	r0, #8
 850 001c FFF7FEFF 		bl	chSchGoSleepTimeoutS
 851              	.LVL59:
 852              	.L32:
 853              	.LBE313:
 854              	.LBE312:
 855              	.LBB314:
ARM GAS  /var/folders/qd/4mxf5pkd0zdf0b9dd1hp39180000gn/T//cc17QTwq.s 			page 16


 856              	.LBB315:
 857              	.LBB316:
 858              	.LBB317:
 859              	.LBB318:
 860              		.loc 3 546 0
 861 0020 0023     		movs	r3, #0
 862              		.syntax unified
 863              	@ 546 "../../../os/ext/CMSIS/include/core_cmFunc.h" 1
 864 0022 83F31188 		MSR basepri, r3
 865              	@ 0 "" 2
 866              	.LVL60:
 867              		.thumb
 868              		.syntax unified
 869              	.LBE318:
 870              	.LBE317:
 871              	.LBE316:
 872              	.LBE315:
 873              	.LBE314:
 874              		.loc 1 367 0
 875 0026 2046     		mov	r0, r4
 876 0028 10BD     		pop	{r4, pc}
 877              		.cfi_endproc
 878              	.LFE237:
 879              		.size	chThdSleepUntilWindowed, .-chThdSleepUntilWindowed
 880 002a 00BF     		.section	.text.chThdYield,"ax",%progbits
 881              		.align	1
 882              		.p2align 4,,15
 883              		.global	chThdYield
 884              		.syntax unified
 885              		.thumb
 886              		.thumb_func
 887              		.fpu softvfp
 888              		.type	chThdYield, %function
 889              	chThdYield:
 890              	.LFB238:
 891              		.loc 1 376 0
 892              		.cfi_startproc
 893              		@ args = 0, pretend = 0, frame = 0
 894              		@ frame_needed = 0, uses_anonymous_args = 0
 895              	.LVL61:
 896 0000 08B5     		push	{r3, lr}
 897              		.cfi_def_cfa_offset 8
 898              		.cfi_offset 3, -8
 899              		.cfi_offset 14, -4
 900              	.LBB319:
 901              	.LBB320:
 902              	.LBB321:
 903              	.LBB322:
 904              		.loc 3 546 0
 905 0002 2023     		movs	r3, #32
 906              		.syntax unified
 907              	@ 546 "../../../os/ext/CMSIS/include/core_cmFunc.h" 1
 908 0004 83F31188 		MSR basepri, r3
 909              	@ 0 "" 2
 910              	.LVL62:
 911              		.thumb
 912              		.syntax unified
ARM GAS  /var/folders/qd/4mxf5pkd0zdf0b9dd1hp39180000gn/T//cc17QTwq.s 			page 17


 913              	.LBE322:
 914              	.LBE321:
 915              	.LBE320:
 916              	.LBE319:
 917              	.LBB323:
 918              	.LBB324:
 919              	.LBB325:
 920              	.LBB326:
 921              		.loc 2 731 0
 922 0008 064B     		ldr	r3, .L37
 923 000a 1A68     		ldr	r2, [r3]
 924 000c 9B69     		ldr	r3, [r3, #24]
 925              	.LBE326:
 926              	.LBE325:
 927              		.loc 2 745 0
 928 000e 9268     		ldr	r2, [r2, #8]
 929 0010 9B68     		ldr	r3, [r3, #8]
 930 0012 9A42     		cmp	r2, r3
 931 0014 01D3     		bcc	.L35
 932              		.loc 2 746 0
 933 0016 FFF7FEFF 		bl	chSchDoRescheduleBehind
 934              	.LVL63:
 935              	.L35:
 936              	.LBE324:
 937              	.LBE323:
 938              	.LBB327:
 939              	.LBB328:
 940              	.LBB329:
 941              	.LBB330:
 942              	.LBB331:
 943              		.loc 3 546 0
 944 001a 0023     		movs	r3, #0
 945              		.syntax unified
 946              	@ 546 "../../../os/ext/CMSIS/include/core_cmFunc.h" 1
 947 001c 83F31188 		MSR basepri, r3
 948              	@ 0 "" 2
 949              	.LVL64:
 950              		.thumb
 951              		.syntax unified
 952              	.LBE331:
 953              	.LBE330:
 954              	.LBE329:
 955              	.LBE328:
 956              	.LBE327:
 957              		.loc 1 381 0
 958 0020 08BD     		pop	{r3, pc}
 959              	.L38:
 960 0022 00BF     		.align	2
 961              	.L37:
 962 0024 00000000 		.word	ch
 963              		.cfi_endproc
 964              	.LFE238:
 965              		.size	chThdYield, .-chThdYield
 966              		.section	.text.chThdExitS,"ax",%progbits
 967              		.align	1
 968              		.p2align 4,,15
 969              		.global	chThdExitS
ARM GAS  /var/folders/qd/4mxf5pkd0zdf0b9dd1hp39180000gn/T//cc17QTwq.s 			page 18


 970              		.syntax unified
 971              		.thumb
 972              		.thumb_func
 973              		.fpu softvfp
 974              		.type	chThdExitS, %function
 975              	chThdExitS:
 976              	.LFB240:
 977              		.loc 1 418 0
 978              		.cfi_startproc
 979              		@ args = 0, pretend = 0, frame = 0
 980              		@ frame_needed = 0, uses_anonymous_args = 0
 981              	.LVL65:
 982 0000 38B5     		push	{r3, r4, r5, lr}
 983              		.cfi_def_cfa_offset 16
 984              		.cfi_offset 3, -16
 985              		.cfi_offset 4, -12
 986              		.cfi_offset 5, -8
 987              		.cfi_offset 14, -4
 988              		.loc 1 419 0
 989 0002 0E4B     		ldr	r3, .L45
 990 0004 9C69     		ldr	r4, [r3, #24]
 991              	.LVL66:
 992              	.LBB332:
 993              	.LBB333:
 994              		.loc 2 592 0
 995 0006 636A     		ldr	r3, [r4, #36]
 996              	.LBE333:
 997              	.LBE332:
 998              		.loc 1 421 0
 999 0008 2062     		str	r0, [r4, #32]
 1000              		.loc 1 426 0
 1001 000a 04F12405 		add	r5, r4, #36
 1002 000e AB42     		cmp	r3, r5
 1003 0010 07D0     		beq	.L40
 1004              	.LVL67:
 1005              	.L41:
 1006              	.LBB335:
 1007              	.LBB336:
 1008              		.loc 2 646 0
 1009 0012 1A68     		ldr	r2, [r3]
 1010 0014 6262     		str	r2, [r4, #36]
 1011              	.LVL68:
 1012              	.LBE336:
 1013              	.LBE335:
 1014              		.loc 1 427 0
 1015 0016 1846     		mov	r0, r3
 1016 0018 FFF7FEFF 		bl	chSchReadyI
 1017              	.LVL69:
 1018              	.LBB337:
 1019              	.LBB334:
 1020              		.loc 2 592 0
 1021 001c 636A     		ldr	r3, [r4, #36]
 1022              	.LVL70:
 1023              	.LBE334:
 1024              	.LBE337:
 1025              		.loc 1 426 0
 1026 001e AB42     		cmp	r3, r5
ARM GAS  /var/folders/qd/4mxf5pkd0zdf0b9dd1hp39180000gn/T//cc17QTwq.s 			page 19


 1027 0020 F7D1     		bne	.L41
 1028              	.L40:
 1029              		.loc 1 433 0
 1030 0022 637F     		ldrb	r3, [r4, #29]	@ zero_extendqisi2
 1031 0024 9B07     		lsls	r3, r3, #30
 1032 0026 04D1     		bne	.L42
 1033              		.loc 1 434 0
 1034 0028 D4E90423 		ldrd	r2, r3, [r4, #16]
 1035 002c 1A61     		str	r2, [r3, #16]
 1036 002e 2269     		ldr	r2, [r4, #16]
 1037 0030 5361     		str	r3, [r2, #20]
 1038              	.L42:
 1039              		.loc 1 437 0
 1040 0032 0F20     		movs	r0, #15
 1041              		.loc 1 441 0
 1042 0034 BDE83840 		pop	{r3, r4, r5, lr}
 1043              		.cfi_restore 14
 1044              		.cfi_restore 5
 1045              		.cfi_restore 4
 1046              		.cfi_restore 3
 1047              		.cfi_def_cfa_offset 0
 1048              	.LVL71:
 1049              		.loc 1 437 0
 1050 0038 FFF7FEBF 		b	chSchGoSleepS
 1051              	.LVL72:
 1052              	.L46:
 1053              		.align	2
 1054              	.L45:
 1055 003c 00000000 		.word	ch
 1056              		.cfi_endproc
 1057              	.LFE240:
 1058              		.size	chThdExitS, .-chThdExitS
 1059              		.section	.text.chThdExit,"ax",%progbits
 1060              		.align	1
 1061              		.p2align 4,,15
 1062              		.global	chThdExit
 1063              		.syntax unified
 1064              		.thumb
 1065              		.thumb_func
 1066              		.fpu softvfp
 1067              		.type	chThdExit, %function
 1068              	chThdExit:
 1069              	.LFB239:
 1070              		.loc 1 397 0
 1071              		.cfi_startproc
 1072              		@ args = 0, pretend = 0, frame = 0
 1073              		@ frame_needed = 0, uses_anonymous_args = 0
 1074              		@ link register save eliminated.
 1075              	.LVL73:
 1076              	.LBB338:
 1077              	.LBB339:
 1078              	.LBB340:
 1079              	.LBB341:
 1080              		.loc 3 546 0
 1081 0000 2023     		movs	r3, #32
 1082              		.syntax unified
 1083              	@ 546 "../../../os/ext/CMSIS/include/core_cmFunc.h" 1
ARM GAS  /var/folders/qd/4mxf5pkd0zdf0b9dd1hp39180000gn/T//cc17QTwq.s 			page 20


 1084 0002 83F31188 		MSR basepri, r3
 1085              	@ 0 "" 2
 1086              	.LVL74:
 1087              		.thumb
 1088              		.syntax unified
 1089              	.LBE341:
 1090              	.LBE340:
 1091              	.LBE339:
 1092              	.LBE338:
 1093              		.loc 1 400 0
 1094 0006 FFF7FEBF 		b	chThdExitS
 1095              	.LVL75:
 1096              		.cfi_endproc
 1097              	.LFE239:
 1098              		.size	chThdExit, .-chThdExit
 1099 000a 00BF     		.section	.text.chThdWait,"ax",%progbits
 1100              		.align	1
 1101              		.p2align 4,,15
 1102              		.global	chThdWait
 1103              		.syntax unified
 1104              		.thumb
 1105              		.thumb_func
 1106              		.fpu softvfp
 1107              		.type	chThdWait, %function
 1108              	chThdWait:
 1109              	.LFB241:
 1110              		.loc 1 475 0
 1111              		.cfi_startproc
 1112              		@ args = 0, pretend = 0, frame = 0
 1113              		@ frame_needed = 0, uses_anonymous_args = 0
 1114              	.LVL76:
 1115 0000 38B5     		push	{r3, r4, r5, lr}
 1116              		.cfi_def_cfa_offset 16
 1117              		.cfi_offset 3, -16
 1118              		.cfi_offset 4, -12
 1119              		.cfi_offset 5, -8
 1120              		.cfi_offset 14, -4
 1121              		.loc 1 475 0
 1122 0002 0446     		mov	r4, r0
 1123              	.LBB342:
 1124              	.LBB343:
 1125              	.LBB344:
 1126              	.LBB345:
 1127              		.loc 3 546 0
 1128 0004 2023     		movs	r3, #32
 1129              		.syntax unified
 1130              	@ 546 "../../../os/ext/CMSIS/include/core_cmFunc.h" 1
 1131 0006 83F31188 		MSR basepri, r3
 1132              	@ 0 "" 2
 1133              	.LVL77:
 1134              		.thumb
 1135              		.syntax unified
 1136              	.LBE345:
 1137              	.LBE344:
 1138              	.LBE343:
 1139              	.LBE342:
 1140              		.loc 1 485 0
ARM GAS  /var/folders/qd/4mxf5pkd0zdf0b9dd1hp39180000gn/T//cc17QTwq.s 			page 21


 1141 000a 037F     		ldrb	r3, [r0, #28]	@ zero_extendqisi2
 1142 000c 0F2B     		cmp	r3, #15
 1143 000e 07D0     		beq	.L49
 1144              		.loc 1 486 0
 1145 0010 084B     		ldr	r3, .L54
 1146              	.LBB346:
 1147              	.LBB347:
 1148              		.loc 2 639 0
 1149 0012 426A     		ldr	r2, [r0, #36]
 1150              	.LBE347:
 1151              	.LBE346:
 1152              		.loc 1 486 0
 1153 0014 9B69     		ldr	r3, [r3, #24]
 1154              	.LVL78:
 1155              		.loc 1 487 0
 1156 0016 0920     		movs	r0, #9
 1157              	.LVL79:
 1158              	.LBB349:
 1159              	.LBB348:
 1160              		.loc 2 639 0
 1161 0018 1A60     		str	r2, [r3]
 1162              		.loc 2 640 0
 1163 001a 6362     		str	r3, [r4, #36]
 1164              	.LVL80:
 1165              	.LBE348:
 1166              	.LBE349:
 1167              		.loc 1 487 0
 1168 001c FFF7FEFF 		bl	chSchGoSleepS
 1169              	.LVL81:
 1170              	.L49:
 1171              		.loc 1 489 0
 1172 0020 256A     		ldr	r5, [r4, #32]
 1173              	.LVL82:
 1174              	.LBB350:
 1175              	.LBB351:
 1176              	.LBB352:
 1177              	.LBB353:
 1178              	.LBB354:
 1179              		.loc 3 546 0
 1180 0022 0023     		movs	r3, #0
 1181              		.syntax unified
 1182              	@ 546 "../../../os/ext/CMSIS/include/core_cmFunc.h" 1
 1183 0024 83F31188 		MSR basepri, r3
 1184              	@ 0 "" 2
 1185              	.LVL83:
 1186              		.thumb
 1187              		.syntax unified
 1188              	.LBE354:
 1189              	.LBE353:
 1190              	.LBE352:
 1191              	.LBE351:
 1192              	.LBE350:
 1193              		.loc 1 494 0
 1194 0028 2046     		mov	r0, r4
 1195 002a FFF7FEFF 		bl	chThdRelease
 1196              	.LVL84:
 1197              		.loc 1 498 0
ARM GAS  /var/folders/qd/4mxf5pkd0zdf0b9dd1hp39180000gn/T//cc17QTwq.s 			page 22


 1198 002e 2846     		mov	r0, r5
 1199 0030 38BD     		pop	{r3, r4, r5, pc}
 1200              	.LVL85:
 1201              	.L55:
 1202 0032 00BF     		.align	2
 1203              	.L54:
 1204 0034 00000000 		.word	ch
 1205              		.cfi_endproc
 1206              	.LFE241:
 1207              		.size	chThdWait, .-chThdWait
 1208              		.section	.text.chThdSuspendS,"ax",%progbits
 1209              		.align	1
 1210              		.p2align 4,,15
 1211              		.global	chThdSuspendS
 1212              		.syntax unified
 1213              		.thumb
 1214              		.thumb_func
 1215              		.fpu softvfp
 1216              		.type	chThdSuspendS, %function
 1217              	chThdSuspendS:
 1218              	.LFB242:
 1219              		.loc 1 511 0
 1220              		.cfi_startproc
 1221              		@ args = 0, pretend = 0, frame = 0
 1222              		@ frame_needed = 0, uses_anonymous_args = 0
 1223              	.LVL86:
 1224 0000 10B5     		push	{r4, lr}
 1225              		.cfi_def_cfa_offset 8
 1226              		.cfi_offset 4, -8
 1227              		.cfi_offset 14, -4
 1228              	.LBB355:
 1229              	.LBB356:
 1230              		.loc 4 176 0
 1231 0002 054C     		ldr	r4, .L58
 1232 0004 A369     		ldr	r3, [r4, #24]
 1233              	.LBE356:
 1234              	.LBE355:
 1235              		.loc 1 516 0
 1236 0006 0360     		str	r3, [r0]
 1237              		.loc 1 511 0
 1238 0008 0246     		mov	r2, r0
 1239              		.loc 1 517 0
 1240 000a 1A62     		str	r2, [r3, #32]
 1241              		.loc 1 518 0
 1242 000c 0320     		movs	r0, #3
 1243              	.LVL87:
 1244 000e FFF7FEFF 		bl	chSchGoSleepS
 1245              	.LVL88:
 1246              		.loc 1 520 0
 1247 0012 A369     		ldr	r3, [r4, #24]
 1248              		.loc 1 521 0
 1249 0014 186A     		ldr	r0, [r3, #32]
 1250 0016 10BD     		pop	{r4, pc}
 1251              	.L59:
 1252              		.align	2
 1253              	.L58:
 1254 0018 00000000 		.word	ch
ARM GAS  /var/folders/qd/4mxf5pkd0zdf0b9dd1hp39180000gn/T//cc17QTwq.s 			page 23


 1255              		.cfi_endproc
 1256              	.LFE242:
 1257              		.size	chThdSuspendS, .-chThdSuspendS
 1258              		.section	.text.chThdSuspendTimeoutS,"ax",%progbits
 1259              		.align	1
 1260              		.p2align 4,,15
 1261              		.global	chThdSuspendTimeoutS
 1262              		.syntax unified
 1263              		.thumb
 1264              		.thumb_func
 1265              		.fpu softvfp
 1266              		.type	chThdSuspendTimeoutS, %function
 1267              	chThdSuspendTimeoutS:
 1268              	.LFB243:
 1269              		.loc 1 542 0
 1270              		.cfi_startproc
 1271              		@ args = 0, pretend = 0, frame = 0
 1272              		@ frame_needed = 0, uses_anonymous_args = 0
 1273              		@ link register save eliminated.
 1274              	.LVL89:
 1275              	.LBB357:
 1276              	.LBB358:
 1277              		.loc 4 176 0
 1278 0000 054B     		ldr	r3, .L62
 1279              	.LBE358:
 1280              	.LBE357:
 1281              		.loc 1 542 0
 1282 0002 0246     		mov	r2, r0
 1283              	.LBB360:
 1284              	.LBB359:
 1285              		.loc 4 176 0
 1286 0004 9B69     		ldr	r3, [r3, #24]
 1287              	.LBE359:
 1288              	.LBE360:
 1289              		.loc 1 547 0
 1290 0006 21B1     		cbz	r1, .L61
 1291              		.loc 1 551 0
 1292 0008 0360     		str	r3, [r0]
 1293              		.loc 1 554 0
 1294 000a 0320     		movs	r0, #3
 1295              	.LVL90:
 1296              		.loc 1 552 0
 1297 000c 1A62     		str	r2, [r3, #32]
 1298              		.loc 1 554 0
 1299 000e FFF7FEBF 		b	chSchGoSleepTimeoutS
 1300              	.LVL91:
 1301              	.L61:
 1302              		.loc 1 555 0
 1303 0012 4FF0FF30 		mov	r0, #-1
 1304              	.LVL92:
 1305 0016 7047     		bx	lr
 1306              	.L63:
 1307              		.align	2
 1308              	.L62:
 1309 0018 00000000 		.word	ch
 1310              		.cfi_endproc
 1311              	.LFE243:
ARM GAS  /var/folders/qd/4mxf5pkd0zdf0b9dd1hp39180000gn/T//cc17QTwq.s 			page 24


 1312              		.size	chThdSuspendTimeoutS, .-chThdSuspendTimeoutS
 1313              		.section	.text.chThdResumeI,"ax",%progbits
 1314              		.align	1
 1315              		.p2align 4,,15
 1316              		.global	chThdResumeI
 1317              		.syntax unified
 1318              		.thumb
 1319              		.thumb_func
 1320              		.fpu softvfp
 1321              		.type	chThdResumeI, %function
 1322              	chThdResumeI:
 1323              	.LFB244:
 1324              		.loc 1 567 0
 1325              		.cfi_startproc
 1326              		@ args = 0, pretend = 0, frame = 0
 1327              		@ frame_needed = 0, uses_anonymous_args = 0
 1328              		@ link register save eliminated.
 1329              	.LVL93:
 1330              		.loc 1 569 0
 1331 0000 0368     		ldr	r3, [r0]
 1332 0002 2BB1     		cbz	r3, .L64
 1333              	.LVL94:
 1334              	.LBB361:
 1335              		.loc 1 575 0
 1336 0004 0022     		movs	r2, #0
 1337 0006 0260     		str	r2, [r0]
 1338              		.loc 1 577 0
 1339 0008 1846     		mov	r0, r3
 1340              	.LVL95:
 1341              		.loc 1 576 0
 1342 000a 1962     		str	r1, [r3, #32]
 1343              		.loc 1 577 0
 1344 000c FFF7FEBF 		b	chSchReadyI
 1345              	.LVL96:
 1346              	.L64:
 1347              	.LBE361:
 1348              		.loc 1 579 0
 1349 0010 7047     		bx	lr
 1350              		.cfi_endproc
 1351              	.LFE244:
 1352              		.size	chThdResumeI, .-chThdResumeI
 1353 0012 00BF     		.section	.text.chThdResumeS,"ax",%progbits
 1354              		.align	1
 1355              		.p2align 4,,15
 1356              		.global	chThdResumeS
 1357              		.syntax unified
 1358              		.thumb
 1359              		.thumb_func
 1360              		.fpu softvfp
 1361              		.type	chThdResumeS, %function
 1362              	chThdResumeS:
 1363              	.LFB245:
 1364              		.loc 1 591 0
 1365              		.cfi_startproc
 1366              		@ args = 0, pretend = 0, frame = 0
 1367              		@ frame_needed = 0, uses_anonymous_args = 0
 1368              		@ link register save eliminated.
ARM GAS  /var/folders/qd/4mxf5pkd0zdf0b9dd1hp39180000gn/T//cc17QTwq.s 			page 25


 1369              	.LVL97:
 1370              		.loc 1 591 0
 1371 0000 0346     		mov	r3, r0
 1372              		.loc 1 593 0
 1373 0002 0068     		ldr	r0, [r0]
 1374              	.LVL98:
 1375 0004 18B1     		cbz	r0, .L66
 1376              	.LVL99:
 1377              	.LBB362:
 1378              		.loc 1 599 0
 1379 0006 0022     		movs	r2, #0
 1380 0008 1A60     		str	r2, [r3]
 1381              		.loc 1 600 0
 1382 000a FFF7FEBF 		b	chSchWakeupS
 1383              	.LVL100:
 1384              	.L66:
 1385              	.LBE362:
 1386              		.loc 1 602 0
 1387 000e 7047     		bx	lr
 1388              		.cfi_endproc
 1389              	.LFE245:
 1390              		.size	chThdResumeS, .-chThdResumeS
 1391              		.section	.text.chThdResume,"ax",%progbits
 1392              		.align	1
 1393              		.p2align 4,,15
 1394              		.global	chThdResume
 1395              		.syntax unified
 1396              		.thumb
 1397              		.thumb_func
 1398              		.fpu softvfp
 1399              		.type	chThdResume, %function
 1400              	chThdResume:
 1401              	.LFB246:
 1402              		.loc 1 614 0
 1403              		.cfi_startproc
 1404              		@ args = 0, pretend = 0, frame = 0
 1405              		@ frame_needed = 0, uses_anonymous_args = 0
 1406              	.LVL101:
 1407              	.LBB363:
 1408              	.LBB364:
 1409              	.LBB365:
 1410              	.LBB366:
 1411              		.loc 3 546 0
 1412 0000 2023     		movs	r3, #32
 1413              		.syntax unified
 1414              	@ 546 "../../../os/ext/CMSIS/include/core_cmFunc.h" 1
 1415 0002 83F31188 		MSR basepri, r3
 1416              	@ 0 "" 2
 1417              	.LVL102:
 1418              		.thumb
 1419              		.syntax unified
 1420              	.LBE366:
 1421              	.LBE365:
 1422              	.LBE364:
 1423              	.LBE363:
 1424              	.LBB367:
 1425              	.LBB368:
ARM GAS  /var/folders/qd/4mxf5pkd0zdf0b9dd1hp39180000gn/T//cc17QTwq.s 			page 26


 1426              		.loc 1 593 0
 1427 0006 0268     		ldr	r2, [r0]
 1428 0008 52B1     		cbz	r2, .L74
 1429 000a 0346     		mov	r3, r0
 1430              	.LVL103:
 1431              	.LBE368:
 1432              	.LBE367:
 1433              		.loc 1 614 0
 1434 000c 10B5     		push	{r4, lr}
 1435              		.cfi_def_cfa_offset 8
 1436              		.cfi_offset 4, -8
 1437              		.cfi_offset 14, -4
 1438              	.LBB371:
 1439              	.LBB370:
 1440              	.LBB369:
 1441              		.loc 1 599 0
 1442 000e 0024     		movs	r4, #0
 1443 0010 1C60     		str	r4, [r3]
 1444              		.loc 1 600 0
 1445 0012 1046     		mov	r0, r2
 1446              	.LVL104:
 1447 0014 FFF7FEFF 		bl	chSchWakeupS
 1448              	.LVL105:
 1449              	.LBE369:
 1450              	.LBE370:
 1451              	.LBE371:
 1452              	.LBB372:
 1453              	.LBB373:
 1454              	.LBB374:
 1455              	.LBB375:
 1456              	.LBB376:
 1457              		.loc 3 546 0
 1458 0018 0023     		movs	r3, #0
 1459              		.syntax unified
 1460              	@ 546 "../../../os/ext/CMSIS/include/core_cmFunc.h" 1
 1461 001a 83F31188 		MSR basepri, r3
 1462              	@ 0 "" 2
 1463              	.LVL106:
 1464              		.thumb
 1465              		.syntax unified
 1466              	.LBE376:
 1467              	.LBE375:
 1468              	.LBE374:
 1469              	.LBE373:
 1470              	.LBE372:
 1471              		.loc 1 619 0
 1472 001e 10BD     		pop	{r4, pc}
 1473              	.LVL107:
 1474              	.L74:
 1475              		.cfi_def_cfa_offset 0
 1476              		.cfi_restore 4
 1477              		.cfi_restore 14
 1478              	.LBB381:
 1479              	.LBB380:
 1480              	.LBB379:
 1481              	.LBB378:
 1482              	.LBB377:
ARM GAS  /var/folders/qd/4mxf5pkd0zdf0b9dd1hp39180000gn/T//cc17QTwq.s 			page 27


 1483              		.loc 3 546 0
 1484 0020 0023     		movs	r3, #0
 1485              		.syntax unified
 1486              	@ 546 "../../../os/ext/CMSIS/include/core_cmFunc.h" 1
 1487 0022 83F31188 		MSR basepri, r3
 1488              	@ 0 "" 2
 1489              	.LVL108:
 1490              		.thumb
 1491              		.syntax unified
 1492 0026 7047     		bx	lr
 1493              	.LBE377:
 1494              	.LBE378:
 1495              	.LBE379:
 1496              	.LBE380:
 1497              	.LBE381:
 1498              		.cfi_endproc
 1499              	.LFE246:
 1500              		.size	chThdResume, .-chThdResume
 1501              		.section	.text.chThdEnqueueTimeoutS,"ax",%progbits
 1502              		.align	1
 1503              		.p2align 4,,15
 1504              		.global	chThdEnqueueTimeoutS
 1505              		.syntax unified
 1506              		.thumb
 1507              		.thumb_func
 1508              		.fpu softvfp
 1509              		.type	chThdEnqueueTimeoutS, %function
 1510              	chThdEnqueueTimeoutS:
 1511              	.LFB247:
 1512              		.loc 1 644 0
 1513              		.cfi_startproc
 1514              		@ args = 0, pretend = 0, frame = 0
 1515              		@ frame_needed = 0, uses_anonymous_args = 0
 1516              		@ link register save eliminated.
 1517              	.LVL109:
 1518              		.loc 1 646 0
 1519 0000 61B1     		cbz	r1, .L78
 1520              		.loc 1 650 0
 1521 0002 084B     		ldr	r3, .L82
 1522              		.loc 1 644 0
 1523 0004 10B4     		push	{r4}
 1524              		.cfi_def_cfa_offset 4
 1525              		.cfi_offset 4, -4
 1526 0006 0246     		mov	r2, r0
 1527              	.LBB382:
 1528              	.LBB383:
 1529              		.loc 2 666 0
 1530 0008 4468     		ldr	r4, [r0, #4]
 1531              	.LBE383:
 1532              	.LBE382:
 1533              		.loc 1 650 0
 1534 000a 9B69     		ldr	r3, [r3, #24]
 1535              	.LVL110:
 1536              		.loc 1 652 0
 1537 000c 0420     		movs	r0, #4
 1538              	.LVL111:
 1539              	.LBB385:
ARM GAS  /var/folders/qd/4mxf5pkd0zdf0b9dd1hp39180000gn/T//cc17QTwq.s 			page 28


 1540              	.LBB384:
 1541              		.loc 2 666 0
 1542 000e C3E90024 		strd	r2, r4, [r3]
 1543              		.loc 2 667 0
 1544 0012 2360     		str	r3, [r4]
 1545              		.loc 2 668 0
 1546 0014 5360     		str	r3, [r2, #4]
 1547              	.LVL112:
 1548              	.LBE384:
 1549              	.LBE385:
 1550              		.loc 1 653 0
 1551 0016 10BC     		pop	{r4}
 1552              		.cfi_restore 4
 1553              		.cfi_def_cfa_offset 0
 1554              		.loc 1 652 0
 1555 0018 FFF7FEBF 		b	chSchGoSleepTimeoutS
 1556              	.LVL113:
 1557              	.L78:
 1558              		.loc 1 653 0
 1559 001c 4FF0FF30 		mov	r0, #-1
 1560              	.LVL114:
 1561 0020 7047     		bx	lr
 1562              	.L83:
 1563 0022 00BF     		.align	2
 1564              	.L82:
 1565 0024 00000000 		.word	ch
 1566              		.cfi_endproc
 1567              	.LFE247:
 1568              		.size	chThdEnqueueTimeoutS, .-chThdEnqueueTimeoutS
 1569              		.section	.text.chThdDequeueNextI,"ax",%progbits
 1570              		.align	1
 1571              		.p2align 4,,15
 1572              		.global	chThdDequeueNextI
 1573              		.syntax unified
 1574              		.thumb
 1575              		.thumb_func
 1576              		.fpu softvfp
 1577              		.type	chThdDequeueNextI, %function
 1578              	chThdDequeueNextI:
 1579              	.LFB248:
 1580              		.loc 1 664 0
 1581              		.cfi_startproc
 1582              		@ args = 0, pretend = 0, frame = 0
 1583              		@ frame_needed = 0, uses_anonymous_args = 0
 1584              		@ link register save eliminated.
 1585              	.LVL115:
 1586              	.LBB386:
 1587              	.LBB387:
 1588              		.loc 2 631 0
 1589 0000 0268     		ldr	r2, [r0]
 1590              	.LVL116:
 1591              	.LBE387:
 1592              	.LBE386:
 1593              		.loc 1 666 0
 1594 0002 9042     		cmp	r0, r2
 1595 0004 09D0     		beq	.L84
 1596              		.loc 1 664 0
ARM GAS  /var/folders/qd/4mxf5pkd0zdf0b9dd1hp39180000gn/T//cc17QTwq.s 			page 29


 1597 0006 10B4     		push	{r4}
 1598              		.cfi_def_cfa_offset 4
 1599              		.cfi_offset 4, -4
 1600              	.LBB388:
 1601              	.LBB389:
 1602              	.LBB390:
 1603              	.LBB391:
 1604              		.loc 2 674 0
 1605 0008 1468     		ldr	r4, [r2]
 1606 000a 0460     		str	r4, [r0]
 1607 000c 0346     		mov	r3, r0
 1608              	.LVL117:
 1609              		.loc 2 675 0
 1610 000e 6360     		str	r3, [r4, #4]
 1611              	.LVL118:
 1612              	.LBE391:
 1613              	.LBE390:
 1614              		.loc 4 322 0
 1615 0010 1046     		mov	r0, r2
 1616              	.LVL119:
 1617              		.loc 4 321 0
 1618 0012 1162     		str	r1, [r2, #32]
 1619              	.LBE389:
 1620              	.LBE388:
 1621              		.loc 1 669 0
 1622 0014 10BC     		pop	{r4}
 1623              		.cfi_restore 4
 1624              		.cfi_def_cfa_offset 0
 1625              	.LBB393:
 1626              	.LBB392:
 1627              		.loc 4 322 0
 1628 0016 FFF7FEBF 		b	chSchReadyI
 1629              	.LVL120:
 1630              	.L84:
 1631 001a 7047     		bx	lr
 1632              	.LBE392:
 1633              	.LBE393:
 1634              		.cfi_endproc
 1635              	.LFE248:
 1636              		.size	chThdDequeueNextI, .-chThdDequeueNextI
 1637              		.section	.text.chThdDequeueAllI,"ax",%progbits
 1638              		.align	1
 1639              		.p2align 4,,15
 1640              		.global	chThdDequeueAllI
 1641              		.syntax unified
 1642              		.thumb
 1643              		.thumb_func
 1644              		.fpu softvfp
 1645              		.type	chThdDequeueAllI, %function
 1646              	chThdDequeueAllI:
 1647              	.LFB249:
 1648              		.loc 1 679 0
 1649              		.cfi_startproc
 1650              		@ args = 0, pretend = 0, frame = 0
 1651              		@ frame_needed = 0, uses_anonymous_args = 0
 1652              	.LVL121:
 1653 0000 38B5     		push	{r3, r4, r5, lr}
ARM GAS  /var/folders/qd/4mxf5pkd0zdf0b9dd1hp39180000gn/T//cc17QTwq.s 			page 30


 1654              		.cfi_def_cfa_offset 16
 1655              		.cfi_offset 3, -16
 1656              		.cfi_offset 4, -12
 1657              		.cfi_offset 5, -8
 1658              		.cfi_offset 14, -4
 1659              	.LBB394:
 1660              	.LBB395:
 1661              		.loc 2 631 0
 1662 0002 0368     		ldr	r3, [r0]
 1663              	.LVL122:
 1664              	.LBE395:
 1665              	.LBE394:
 1666              		.loc 1 681 0
 1667 0004 9842     		cmp	r0, r3
 1668 0006 0BD0     		beq	.L89
 1669 0008 0446     		mov	r4, r0
 1670 000a 0D46     		mov	r5, r1
 1671              	.LVL123:
 1672              	.L91:
 1673              	.LBB397:
 1674              	.LBB398:
 1675              	.LBB399:
 1676              	.LBB400:
 1677              		.loc 2 674 0
 1678 000c 1A68     		ldr	r2, [r3]
 1679 000e 2260     		str	r2, [r4]
 1680              	.LBE400:
 1681              	.LBE399:
 1682              		.loc 4 322 0
 1683 0010 1846     		mov	r0, r3
 1684              	.LBB402:
 1685              	.LBB401:
 1686              		.loc 2 675 0
 1687 0012 5460     		str	r4, [r2, #4]
 1688              	.LVL124:
 1689              	.LBE401:
 1690              	.LBE402:
 1691              		.loc 4 321 0
 1692 0014 1D62     		str	r5, [r3, #32]
 1693              		.loc 4 322 0
 1694 0016 FFF7FEFF 		bl	chSchReadyI
 1695              	.LVL125:
 1696              	.LBE398:
 1697              	.LBE397:
 1698              	.LBB403:
 1699              	.LBB396:
 1700              		.loc 2 631 0
 1701 001a 2368     		ldr	r3, [r4]
 1702              	.LVL126:
 1703              	.LBE396:
 1704              	.LBE403:
 1705              		.loc 1 681 0
 1706 001c 9C42     		cmp	r4, r3
 1707 001e F5D1     		bne	.L91
 1708              	.LVL127:
 1709              	.L89:
 1710              		.loc 1 684 0
ARM GAS  /var/folders/qd/4mxf5pkd0zdf0b9dd1hp39180000gn/T//cc17QTwq.s 			page 31


 1711 0020 38BD     		pop	{r3, r4, r5, pc}
 1712              		.cfi_endproc
 1713              	.LFE249:
 1714              		.size	chThdDequeueAllI, .-chThdDequeueAllI
 1715 0022 00BF     		.text
 1716              	.Letext0:
 1717              		.file 7 "/Applications/Eclipse_e-puck2.app/Contents/Eclipse_e-puck2/Tools/gcc-arm-none-eabi-7-2017
 1718              		.file 8 "/Applications/Eclipse_e-puck2.app/Contents/Eclipse_e-puck2/Tools/gcc-arm-none-eabi-7-2017
 1719              		.file 9 "/Applications/Eclipse_e-puck2.app/Contents/Eclipse_e-puck2/Tools/gcc-arm-none-eabi-7-2017
 1720              		.file 10 "../../../os/rt/ports/ARMCMx/compilers/GCC/chtypes.h"
 1721              		.file 11 "../../../os/rt/include/chsystypes.h"
 1722              		.file 12 "../../../os/ext/CMSIS/include/core_cm4.h"
 1723              		.file 13 "../../../os/ext/CMSIS/ST/system_stm32f4xx.h"
 1724              		.file 14 "../../../os/rt/ports/ARMCMx/chcore.h"
 1725              		.file 15 "../../../os/rt/ports/ARMCMx/chcore_v7m.h"
 1726              		.file 16 "../../../os/hal/ports/STM32/LLD/TIMv1/stm32_tim.h"
 1727              		.file 17 "../../../os/rt/include/chtm.h"
 1728              		.file 18 "../../../os/rt/include/chsem.h"
 1729              		.file 19 "../../../os/rt/include/chmtx.h"
 1730              		.file 20 "../../../os/rt/include/chregistry.h"
 1731              		.file 21 "../../../os/rt/include/chsys.h"
 1732              		.file 22 "../../../os/rt/ports/ARMCMx/chcore_timer.h"
 1733              		.file 23 "../../../os/rt/include/chdynamic.h"