ARM GAS  /var/folders/qd/4mxf5pkd0zdf0b9dd1hp39180000gn/T//cc0Vz3J6.s 			page 1


   1              		.cpu cortex-m4
   2              		.eabi_attribute 20, 1
   3              		.eabi_attribute 21, 1
   4              		.eabi_attribute 23, 3
   5              		.eabi_attribute 24, 1
   6              		.eabi_attribute 25, 1
   7              		.eabi_attribute 26, 1
   8              		.eabi_attribute 30, 2
   9              		.eabi_attribute 34, 1
  10              		.eabi_attribute 18, 4
  11              		.file	"hal_lld.c"
  12              		.text
  13              	.Ltext0:
  14              		.cfi_sections	.debug_frame
  15              		.section	.text.hal_lld_init,"ax",%progbits
  16              		.align	1
  17              		.p2align 4,,15
  18              		.global	hal_lld_init
  19              		.syntax unified
  20              		.thumb
  21              		.thumb_func
  22              		.fpu softvfp
  23              		.type	hal_lld_init, %function
  24              	hal_lld_init:
  25              	.LFB261:
  26              		.file 1 "../../../os/hal/ports/STM32/STM32F4xx/hal_lld.c"
  27              		.loc 1 114 0
  28              		.cfi_startproc
  29              		@ args = 0, pretend = 0, frame = 0
  30              		@ frame_needed = 0, uses_anonymous_args = 0
  31              		@ link register save eliminated.
  32              		.loc 1 118 0
  33 0000 164B     		ldr	r3, .L8
  34 0002 4FF0FF31 		mov	r1, #-1
  35 0006 1A69     		ldr	r2, [r3, #16]
  36 0008 0022     		movs	r2, #0
  37              		.loc 1 114 0
  38 000a 10B4     		push	{r4}
  39              		.cfi_def_cfa_offset 4
  40              		.cfi_offset 4, -4
  41              		.loc 1 118 0
  42 000c 1961     		str	r1, [r3, #16]
  43 000e 1A61     		str	r2, [r3, #16]
  44              		.loc 1 119 0
  45 0010 5869     		ldr	r0, [r3, #20]
  46 0012 5961     		str	r1, [r3, #20]
  47 0014 5A61     		str	r2, [r3, #20]
  48              		.loc 1 120 0
  49 0016 186A     		ldr	r0, [r3, #32]
  50              	.LBB4:
  51              	.LBB5:
  52              		.loc 1 57 0
  53 0018 114C     		ldr	r4, .L8+4
  54              	.LBE5:
  55              	.LBE4:
  56              		.loc 1 120 0
  57 001a 60F08050 		orn	r0, r0, #268435456
ARM GAS  /var/folders/qd/4mxf5pkd0zdf0b9dd1hp39180000gn/T//cc0Vz3J6.s 			page 2


  58 001e 1862     		str	r0, [r3, #32]
  59 0020 1A62     		str	r2, [r3, #32]
  60              		.loc 1 121 0
  61 0022 586A     		ldr	r0, [r3, #36]
  62 0024 5962     		str	r1, [r3, #36]
  63 0026 5A62     		str	r2, [r3, #36]
  64              		.loc 1 124 0
  65 0028 196C     		ldr	r1, [r3, #64]
  66 002a 41F08051 		orr	r1, r1, #268435456
  67 002e 1964     		str	r1, [r3, #64]
  68              	.LBB8:
  69              	.LBB6:
  70              		.loc 1 57 0
  71 0030 2168     		ldr	r1, [r4]
  72 0032 41F48071 		orr	r1, r1, #256
  73 0036 2160     		str	r1, [r4]
  74              		.loc 1 60 0
  75 0038 196F     		ldr	r1, [r3, #112]
  76 003a 01F44071 		and	r1, r1, #768
  77 003e B1F5007F 		cmp	r1, #512
  78 0042 03D0     		beq	.L2
  79              		.loc 1 62 0
  80 0044 4FF48031 		mov	r1, #65536
  81 0048 1967     		str	r1, [r3, #112]
  82              		.loc 1 63 0
  83 004a 1A67     		str	r2, [r3, #112]
  84              	.L2:
  85              		.loc 1 97 0
  86 004c 044A     		ldr	r2, .L8+4
  87              	.LBE6:
  88              	.LBE8:
  89              		.loc 1 137 0
  90 004e 10BC     		pop	{r4}
  91              		.cfi_restore 4
  92              		.cfi_def_cfa_offset 0
  93              	.LBB9:
  94              	.LBB7:
  95              		.loc 1 97 0
  96 0050 5368     		ldr	r3, [r2, #4]
  97 0052 23F40073 		bic	r3, r3, #512
  98 0056 5360     		str	r3, [r2, #4]
  99              	.LBE7:
 100              	.LBE9:
 101              		.loc 1 130 0
 102 0058 FFF7FEBF 		b	dmaInit
 103              	.LVL0:
 104              	.L9:
 105              		.align	2
 106              	.L8:
 107 005c 00380240 		.word	1073887232
 108 0060 00700040 		.word	1073770496
 109              		.cfi_endproc
 110              	.LFE261:
 111              		.size	hal_lld_init, .-hal_lld_init
 112              		.section	.text.stm32_clock_init,"ax",%progbits
 113              		.align	1
 114              		.p2align 4,,15
ARM GAS  /var/folders/qd/4mxf5pkd0zdf0b9dd1hp39180000gn/T//cc0Vz3J6.s 			page 3


 115              		.global	stm32_clock_init
 116              		.syntax unified
 117              		.thumb
 118              		.thumb_func
 119              		.fpu softvfp
 120              		.type	stm32_clock_init, %function
 121              	stm32_clock_init:
 122              	.LFB262:
 123              		.loc 1 146 0
 124              		.cfi_startproc
 125              		@ args = 0, pretend = 0, frame = 0
 126              		@ frame_needed = 0, uses_anonymous_args = 0
 127              		@ link register save eliminated.
 128              		.loc 1 150 0
 129 0000 2A4B     		ldr	r3, .L30
 130              		.loc 1 154 0
 131 0002 2B4A     		ldr	r2, .L30+4
 132              		.loc 1 150 0
 133 0004 4FF08050 		mov	r0, #268435456
 134              		.loc 1 154 0
 135 0008 4FF44041 		mov	r1, #49152
 136              		.loc 1 150 0
 137 000c 1864     		str	r0, [r3, #64]
 138              		.loc 1 154 0
 139 000e 1160     		str	r1, [r2]
 140              		.loc 1 161 0
 141 0010 1A68     		ldr	r2, [r3]
 142 0012 42F00102 		orr	r2, r2, #1
 143 0016 1A60     		str	r2, [r3]
 144              	.L11:
 145              		.loc 1 162 0 discriminator 1
 146 0018 1A68     		ldr	r2, [r3]
 147 001a 9207     		lsls	r2, r2, #30
 148 001c FCD5     		bpl	.L11
 149              		.loc 1 168 0
 150 001e 9968     		ldr	r1, [r3, #8]
 151              		.loc 1 170 0
 152 0020 224A     		ldr	r2, .L30
 153              		.loc 1 168 0
 154 0022 21F00301 		bic	r1, r1, #3
 155 0026 9960     		str	r1, [r3, #8]
 156              		.loc 1 169 0
 157 0028 9968     		ldr	r1, [r3, #8]
 158 002a 9960     		str	r1, [r3, #8]
 159              	.L12:
 160              		.loc 1 170 0 discriminator 1
 161 002c 9368     		ldr	r3, [r2, #8]
 162 002e 13F00C03 		ands	r3, r3, #12
 163 0032 FBD1     		bne	.L12
 164              		.loc 1 174 0
 165 0034 1068     		ldr	r0, [r2]
 166              		.loc 1 186 0
 167 0036 1D49     		ldr	r1, .L30
 168              		.loc 1 174 0
 169 0038 00F0F900 		and	r0, r0, #249
 170 003c 1060     		str	r0, [r2]
 171              		.loc 1 175 0
ARM GAS  /var/folders/qd/4mxf5pkd0zdf0b9dd1hp39180000gn/T//cc0Vz3J6.s 			page 4


 172 003e 9360     		str	r3, [r2, #8]
 173              		.loc 1 184 0
 174 0040 1368     		ldr	r3, [r2]
 175 0042 43F48033 		orr	r3, r3, #65536
 176 0046 1360     		str	r3, [r2]
 177              	.L13:
 178              		.loc 1 186 0 discriminator 1
 179 0048 0B68     		ldr	r3, [r1]
 180 004a 9803     		lsls	r0, r3, #14
 181 004c FCD5     		bpl	.L13
 182              		.loc 1 192 0
 183 004e 4B6F     		ldr	r3, [r1, #116]
 184              		.loc 1 193 0
 185 0050 164A     		ldr	r2, .L30
 186              		.loc 1 192 0
 187 0052 43F00103 		orr	r3, r3, #1
 188 0056 4B67     		str	r3, [r1, #116]
 189              	.L14:
 190              		.loc 1 193 0 discriminator 1
 191 0058 536F     		ldr	r3, [r2, #116]
 192 005a 9907     		lsls	r1, r3, #30
 193 005c FCD5     		bpl	.L14
 194              		.loc 1 199 0
 195 005e 154B     		ldr	r3, .L30+8
 196 0060 5360     		str	r3, [r2, #4]
 197              		.loc 1 201 0
 198 0062 1368     		ldr	r3, [r2]
 199              		.loc 1 205 0
 200 0064 1249     		ldr	r1, .L30+4
 201              		.loc 1 201 0
 202 0066 43F08073 		orr	r3, r3, #16777216
 203 006a 1360     		str	r3, [r2]
 204              	.L15:
 205              		.loc 1 205 0 discriminator 1
 206 006c 4B68     		ldr	r3, [r1, #4]
 207 006e 5A04     		lsls	r2, r3, #17
 208 0070 FCD5     		bpl	.L15
 209              		.loc 1 221 0
 210 0072 0E49     		ldr	r1, .L30
 211              	.L16:
 212              		.loc 1 221 0 is_stmt 0 discriminator 1
 213 0074 0B68     		ldr	r3, [r1]
 214 0076 9B01     		lsls	r3, r3, #6
 215 0078 FCD5     		bpl	.L16
 216              		.loc 1 260 0 is_stmt 1
 217 007a 0F4B     		ldr	r3, .L30+12
 218              		.loc 1 247 0
 219 007c 0F4A     		ldr	r2, .L30+16
 220 007e 8A60     		str	r2, [r1, #8]
 221              		.loc 1 260 0
 222 0080 40F20572 		movw	r2, #1797
 223 0084 1A60     		str	r2, [r3]
 224              		.loc 1 266 0
 225 0086 8B68     		ldr	r3, [r1, #8]
 226              		.loc 1 267 0
 227 0088 084A     		ldr	r2, .L30
 228              		.loc 1 266 0
ARM GAS  /var/folders/qd/4mxf5pkd0zdf0b9dd1hp39180000gn/T//cc0Vz3J6.s 			page 5


 229 008a 43F00203 		orr	r3, r3, #2
 230 008e 8B60     		str	r3, [r1, #8]
 231              	.L17:
 232              		.loc 1 267 0 discriminator 1
 233 0090 9368     		ldr	r3, [r2, #8]
 234 0092 03F00C03 		and	r3, r3, #12
 235 0096 082B     		cmp	r3, #8
 236 0098 FAD1     		bne	.L17
 237              		.loc 1 274 0
 238 009a 536C     		ldr	r3, [r2, #68]
 239 009c 43F48043 		orr	r3, r3, #16384
 240 00a0 5364     		str	r3, [r2, #68]
 241 00a2 536E     		ldr	r3, [r2, #100]
 242 00a4 43F48043 		orr	r3, r3, #16384
 243 00a8 5366     		str	r3, [r2, #100]
 244              		.loc 1 275 0
 245 00aa 7047     		bx	lr
 246              	.L31:
 247              		.align	2
 248              	.L30:
 249 00ac 00380240 		.word	1073887232
 250 00b0 00700040 		.word	1073770496
 251 00b4 08544007 		.word	121656328
 252 00b8 003C0240 		.word	1073888256
 253 00bc 00940838 		.word	940086272
 254              		.cfi_endproc
 255              	.LFE262:
 256              		.size	stm32_clock_init, .-stm32_clock_init
 257              		.global	SystemCoreClock
 258              		.section	.data.SystemCoreClock,"aw",%progbits
 259              		.align	2
 260              		.type	SystemCoreClock, %object
 261              		.size	SystemCoreClock, 4
 262              	SystemCoreClock:
 263 0000 007A030A 		.word	168000000
 264              		.text
 265              	.Letext0:
 266              		.file 2 "/Applications/Eclipse_e-puck2.app/Contents/Eclipse_e-puck2/Tools/gcc-arm-none-eabi-7-2017
 267              		.file 3 "/Applications/Eclipse_e-puck2.app/Contents/Eclipse_e-puck2/Tools/gcc-arm-none-eabi-7-2017
 268              		.file 4 "/Applications/Eclipse_e-puck2.app/Contents/Eclipse_e-puck2/Tools/gcc-arm-none-eabi-7-2017
 269              		.file 5 "../../../os/rt/ports/ARMCMx/compilers/GCC/chtypes.h"
 270              		.file 6 "../../../os/rt/include/chsystypes.h"
 271              		.file 7 "../../../os/rt/include/chschd.h"
 272              		.file 8 "../../../os/ext/CMSIS/include/core_cm4.h"
 273              		.file 9 "../../../os/ext/CMSIS/ST/system_stm32f4xx.h"
 274              		.file 10 "../../../os/ext/CMSIS/ST/stm32f407xx.h"
 275              		.file 11 "../../../os/rt/ports/ARMCMx/chcore.h"
 276              		.file 12 "../../../os/rt/ports/ARMCMx/chcore_v7m.h"
 277              		.file 13 "../../../os/hal/ports/STM32/LLD/TIMv1/stm32_tim.h"
 278              		.file 14 "../../../os/rt/include/chtm.h"
 279              		.file 15 "../../../os/rt/include/chsem.h"
 280              		.file 16 "../../../os/rt/include/chmtx.h"
 281              		.file 17 "../../../os/rt/include/chregistry.h"
 282              		.file 18 "../../../os/rt/include/chevents.h"
 283              		.file 19 "../../../os/rt/include/chqueues.h"
 284              		.file 20 "../../../os/hal/ports/STM32/STM32F4xx/stm32_dma.h"
 285              		.file 21 "../../../os/hal/ports/STM32/LLD/GPIOv2/pal_lld.h"
ARM GAS  /var/folders/qd/4mxf5pkd0zdf0b9dd1hp39180000gn/T//cc0Vz3J6.s 			page 6


 286              		.file 22 "../../../os/hal/include/pwm.h"
 287              		.file 23 "../../../os/hal/ports/STM32/LLD/TIMv1/pwm_lld.h"
 288              		.file 24 "../../../os/hal/include/serial.h"
 289              		.file 25 "../../../os/hal/ports/STM32/LLD/USARTv1/serial_lld.h"
 290              		.file 26 "../../../os/hal/include/spi.h"
 291              		.file 27 "../../../os/hal/ports/STM32/LLD/SPIv1/spi_lld.h"
 292              		.section	.debug_info,"",%progbits
 293              	.Ldebug_info0:
 294 0000 A6150000 		.4byte	0x15a6
 295 0004 0400     		.2byte	0x4
 296 0006 00000000 		.4byte	.Ldebug_abbrev0
 297 000a 04       		.byte	0x4
 298 000b 01       		.uleb128 0x1
 299 000c C4050000 		.4byte	.LASF302
 300 0010 0C       		.byte	0xc
 301 0011 5B040000 		.4byte	.LASF303
 302 0015 6A0C0000 		.4byte	.LASF304
 303 0019 20000000 		.4byte	.Ldebug_ranges0+0x20
 304 001d 00000000 		.4byte	0
 305 0021 00000000 		.4byte	.Ldebug_line0
 306 0025 02       		.uleb128 0x2
 307 0026 04       		.byte	0x4
 308 0027 05       		.byte	0x5
 309 0028 696E7400 		.ascii	"int\000"
 310 002c 03       		.uleb128 0x3
 311 002d 18000000 		.4byte	.LASF4
 312 0031 02       		.byte	0x2
 313 0032 D8       		.byte	0xd8
 314 0033 37000000 		.4byte	0x37
 315 0037 04       		.uleb128 0x4
 316 0038 04       		.byte	0x4
 317 0039 07       		.byte	0x7
 318 003a B5070000 		.4byte	.LASF0
 319 003e 04       		.uleb128 0x4
 320 003f 08       		.byte	0x8
 321 0040 05       		.byte	0x5
 322 0041 C8060000 		.4byte	.LASF1
 323 0045 04       		.uleb128 0x4
 324 0046 08       		.byte	0x8
 325 0047 04       		.byte	0x4
 326 0048 8A080000 		.4byte	.LASF2
 327 004c 04       		.uleb128 0x4
 328 004d 01       		.byte	0x1
 329 004e 06       		.byte	0x6
 330 004f 80020000 		.4byte	.LASF3
 331 0053 03       		.uleb128 0x3
 332 0054 6C010000 		.4byte	.LASF5
 333 0058 03       		.byte	0x3
 334 0059 2B       		.byte	0x2b
 335 005a 5E000000 		.4byte	0x5e
 336 005e 04       		.uleb128 0x4
 337 005f 01       		.byte	0x1
 338 0060 08       		.byte	0x8
 339 0061 DF020000 		.4byte	.LASF6
 340 0065 04       		.uleb128 0x4
 341 0066 02       		.byte	0x2
 342 0067 05       		.byte	0x5
ARM GAS  /var/folders/qd/4mxf5pkd0zdf0b9dd1hp39180000gn/T//cc0Vz3J6.s 			page 7


 343 0068 AC0A0000 		.4byte	.LASF7
 344 006c 03       		.uleb128 0x3
 345 006d B0030000 		.4byte	.LASF8
 346 0071 03       		.byte	0x3
 347 0072 39       		.byte	0x39
 348 0073 77000000 		.4byte	0x77
 349 0077 04       		.uleb128 0x4
 350 0078 02       		.byte	0x2
 351 0079 07       		.byte	0x7
 352 007a E50B0000 		.4byte	.LASF9
 353 007e 03       		.uleb128 0x3
 354 007f 300C0000 		.4byte	.LASF10
 355 0083 03       		.byte	0x3
 356 0084 4D       		.byte	0x4d
 357 0085 89000000 		.4byte	0x89
 358 0089 04       		.uleb128 0x4
 359 008a 04       		.byte	0x4
 360 008b 05       		.byte	0x5
 361 008c C3010000 		.4byte	.LASF11
 362 0090 03       		.uleb128 0x3
 363 0091 B3060000 		.4byte	.LASF12
 364 0095 03       		.byte	0x3
 365 0096 4F       		.byte	0x4f
 366 0097 9B000000 		.4byte	0x9b
 367 009b 04       		.uleb128 0x4
 368 009c 04       		.byte	0x4
 369 009d 07       		.byte	0x7
 370 009e E5040000 		.4byte	.LASF13
 371 00a2 03       		.uleb128 0x3
 372 00a3 DA040000 		.4byte	.LASF14
 373 00a7 03       		.byte	0x3
 374 00a8 69       		.byte	0x69
 375 00a9 AD000000 		.4byte	0xad
 376 00ad 04       		.uleb128 0x4
 377 00ae 08       		.byte	0x8
 378 00af 07       		.byte	0x7
 379 00b0 32090000 		.4byte	.LASF15
 380 00b4 03       		.uleb128 0x3
 381 00b5 93020000 		.4byte	.LASF16
 382 00b9 04       		.byte	0x4
 383 00ba 18       		.byte	0x18
 384 00bb 53000000 		.4byte	0x53
 385 00bf 05       		.uleb128 0x5
 386 00c0 B4000000 		.4byte	0xb4
 387 00c4 03       		.uleb128 0x3
 388 00c5 61090000 		.4byte	.LASF17
 389 00c9 04       		.byte	0x4
 390 00ca 24       		.byte	0x24
 391 00cb 6C000000 		.4byte	0x6c
 392 00cf 03       		.uleb128 0x3
 393 00d0 7D000000 		.4byte	.LASF18
 394 00d4 04       		.byte	0x4
 395 00d5 2C       		.byte	0x2c
 396 00d6 7E000000 		.4byte	0x7e
 397 00da 06       		.uleb128 0x6
 398 00db CF000000 		.4byte	0xcf
 399 00df 03       		.uleb128 0x3
ARM GAS  /var/folders/qd/4mxf5pkd0zdf0b9dd1hp39180000gn/T//cc0Vz3J6.s 			page 8


 400 00e0 8D0B0000 		.4byte	.LASF19
 401 00e4 04       		.byte	0x4
 402 00e5 30       		.byte	0x30
 403 00e6 90000000 		.4byte	0x90
 404 00ea 06       		.uleb128 0x6
 405 00eb DF000000 		.4byte	0xdf
 406 00ef 03       		.uleb128 0x3
 407 00f0 C30A0000 		.4byte	.LASF20
 408 00f4 04       		.byte	0x4
 409 00f5 3C       		.byte	0x3c
 410 00f6 A2000000 		.4byte	0xa2
 411 00fa 03       		.uleb128 0x3
 412 00fb D7070000 		.4byte	.LASF21
 413 00ff 05       		.byte	0x5
 414 0100 45       		.byte	0x45
 415 0101 DF000000 		.4byte	0xdf
 416 0105 03       		.uleb128 0x3
 417 0106 2A0A0000 		.4byte	.LASF22
 418 010a 05       		.byte	0x5
 419 010b 48       		.byte	0x48
 420 010c B4000000 		.4byte	0xb4
 421 0110 03       		.uleb128 0x3
 422 0111 05020000 		.4byte	.LASF23
 423 0115 05       		.byte	0x5
 424 0116 49       		.byte	0x49
 425 0117 B4000000 		.4byte	0xb4
 426 011b 03       		.uleb128 0x3
 427 011c 380B0000 		.4byte	.LASF24
 428 0120 05       		.byte	0x5
 429 0121 4A       		.byte	0x4a
 430 0122 B4000000 		.4byte	0xb4
 431 0126 03       		.uleb128 0x3
 432 0127 5B000000 		.4byte	.LASF25
 433 012b 05       		.byte	0x5
 434 012c 4C       		.byte	0x4c
 435 012d DF000000 		.4byte	0xdf
 436 0131 03       		.uleb128 0x3
 437 0132 6A090000 		.4byte	.LASF26
 438 0136 05       		.byte	0x5
 439 0137 4D       		.byte	0x4d
 440 0138 CF000000 		.4byte	0xcf
 441 013c 03       		.uleb128 0x3
 442 013d A8020000 		.4byte	.LASF27
 443 0141 05       		.byte	0x5
 444 0142 4F       		.byte	0x4f
 445 0143 DF000000 		.4byte	0xdf
 446 0147 03       		.uleb128 0x3
 447 0148 81090000 		.4byte	.LASF28
 448 014c 05       		.byte	0x5
 449 014d 50       		.byte	0x50
 450 014e DF000000 		.4byte	0xdf
 451 0152 03       		.uleb128 0x3
 452 0153 35040000 		.4byte	.LASF29
 453 0157 05       		.byte	0x5
 454 0158 51       		.byte	0x51
 455 0159 CF000000 		.4byte	0xcf
 456 015d 03       		.uleb128 0x3
ARM GAS  /var/folders/qd/4mxf5pkd0zdf0b9dd1hp39180000gn/T//cc0Vz3J6.s 			page 9


 457 015e 32000000 		.4byte	.LASF30
 458 0162 06       		.byte	0x6
 459 0163 33       		.byte	0x33
 460 0164 DF000000 		.4byte	0xdf
 461 0168 03       		.uleb128 0x3
 462 0169 81080000 		.4byte	.LASF31
 463 016d 06       		.byte	0x6
 464 016e 3F       		.byte	0x3f
 465 016f 73010000 		.4byte	0x173
 466 0173 07       		.uleb128 0x7
 467 0174 28050000 		.4byte	.LASF51
 468 0178 44       		.byte	0x44
 469 0179 07       		.byte	0x7
 470 017a C2       		.byte	0xc2
 471 017b 60020000 		.4byte	0x260
 472 017f 08       		.uleb128 0x8
 473 0180 D7010000 		.4byte	.LASF32
 474 0184 07       		.byte	0x7
 475 0185 C3       		.byte	0xc3
 476 0186 6B020000 		.4byte	0x26b
 477 018a 00       		.byte	0
 478 018b 08       		.uleb128 0x8
 479 018c F3010000 		.4byte	.LASF33
 480 0190 07       		.byte	0x7
 481 0191 C5       		.byte	0xc5
 482 0192 6B020000 		.4byte	0x26b
 483 0196 04       		.byte	0x4
 484 0197 08       		.uleb128 0x8
 485 0198 9F030000 		.4byte	.LASF34
 486 019c 07       		.byte	0x7
 487 019d C7       		.byte	0xc7
 488 019e 26010000 		.4byte	0x126
 489 01a2 08       		.byte	0x8
 490 01a3 08       		.uleb128 0x8
 491 01a4 55000000 		.4byte	.LASF35
 492 01a8 07       		.byte	0x7
 493 01a9 C8       		.byte	0xc8
 494 01aa 79080000 		.4byte	0x879
 495 01ae 0C       		.byte	0xc
 496 01af 08       		.uleb128 0x8
 497 01b0 B2010000 		.4byte	.LASF36
 498 01b4 07       		.byte	0x7
 499 01b5 CA       		.byte	0xca
 500 01b6 6B020000 		.4byte	0x26b
 501 01ba 10       		.byte	0x10
 502 01bb 08       		.uleb128 0x8
 503 01bc 59090000 		.4byte	.LASF37
 504 01c0 07       		.byte	0x7
 505 01c1 CB       		.byte	0xcb
 506 01c2 6B020000 		.4byte	0x26b
 507 01c6 14       		.byte	0x14
 508 01c7 08       		.uleb128 0x8
 509 01c8 520C0000 		.4byte	.LASF38
 510 01cc 07       		.byte	0x7
 511 01cd D2       		.byte	0xd2
 512 01ce 100B0000 		.4byte	0xb10
 513 01d2 18       		.byte	0x18
ARM GAS  /var/folders/qd/4mxf5pkd0zdf0b9dd1hp39180000gn/T//cc0Vz3J6.s 			page 10


 514 01d3 08       		.uleb128 0x8
 515 01d4 110D0000 		.4byte	.LASF39
 516 01d8 07       		.byte	0x7
 517 01d9 DD       		.byte	0xdd
 518 01da 10010000 		.4byte	0x110
 519 01de 1C       		.byte	0x1c
 520 01df 08       		.uleb128 0x8
 521 01e0 99070000 		.4byte	.LASF40
 522 01e4 07       		.byte	0x7
 523 01e5 E1       		.byte	0xe1
 524 01e6 05010000 		.4byte	0x105
 525 01ea 1D       		.byte	0x1d
 526 01eb 08       		.uleb128 0x8
 527 01ec F0070000 		.4byte	.LASF41
 528 01f0 07       		.byte	0x7
 529 01f1 E6       		.byte	0xe6
 530 01f2 1B010000 		.4byte	0x11b
 531 01f6 1E       		.byte	0x1e
 532 01f7 09       		.uleb128 0x9
 533 01f8 705F7500 		.ascii	"p_u\000"
 534 01fc 07       		.byte	0x7
 535 01fd 3101     		.2byte	0x131
 536 01ff 4B0A0000 		.4byte	0xa4b
 537 0203 20       		.byte	0x20
 538 0204 0A       		.uleb128 0xa
 539 0205 7D070000 		.4byte	.LASF42
 540 0209 07       		.byte	0x7
 541 020a 3601     		.2byte	0x136
 542 020c 71020000 		.4byte	0x271
 543 0210 24       		.byte	0x24
 544 0211 0A       		.uleb128 0xa
 545 0212 6C000000 		.4byte	.LASF43
 546 0216 07       		.byte	0x7
 547 0217 3C01     		.2byte	0x13c
 548 0219 95020000 		.4byte	0x295
 549 021d 28       		.byte	0x28
 550 021e 0A       		.uleb128 0xa
 551 021f FF0C0000 		.4byte	.LASF44
 552 0223 07       		.byte	0x7
 553 0224 4001     		.2byte	0x140
 554 0226 31010000 		.4byte	0x131
 555 022a 30       		.byte	0x30
 556 022b 0A       		.uleb128 0xa
 557 022c 49040000 		.4byte	.LASF45
 558 0230 07       		.byte	0x7
 559 0231 4601     		.2byte	0x146
 560 0233 3C010000 		.4byte	0x13c
 561 0237 34       		.byte	0x34
 562 0238 0A       		.uleb128 0xa
 563 0239 1E020000 		.4byte	.LASF46
 564 023d 07       		.byte	0x7
 565 023e 4D01     		.2byte	0x14d
 566 0240 0A0B0000 		.4byte	0xb0a
 567 0244 38       		.byte	0x38
 568 0245 0A       		.uleb128 0xa
 569 0246 B0080000 		.4byte	.LASF47
 570 024a 07       		.byte	0x7
ARM GAS  /var/folders/qd/4mxf5pkd0zdf0b9dd1hp39180000gn/T//cc0Vz3J6.s 			page 11


 571 024b 5101     		.2byte	0x151
 572 024d 26010000 		.4byte	0x126
 573 0251 3C       		.byte	0x3c
 574 0252 0A       		.uleb128 0xa
 575 0253 DF070000 		.4byte	.LASF48
 576 0257 07       		.byte	0x7
 577 0258 5801     		.2byte	0x158
 578 025a 48030000 		.4byte	0x348
 579 025e 40       		.byte	0x40
 580 025f 00       		.byte	0
 581 0260 03       		.uleb128 0x3
 582 0261 96080000 		.4byte	.LASF49
 583 0265 06       		.byte	0x6
 584 0266 44       		.byte	0x44
 585 0267 6B020000 		.4byte	0x26b
 586 026b 0B       		.uleb128 0xb
 587 026c 04       		.byte	0x4
 588 026d 68010000 		.4byte	0x168
 589 0271 03       		.uleb128 0x3
 590 0272 5E0B0000 		.4byte	.LASF50
 591 0276 06       		.byte	0x6
 592 0277 49       		.byte	0x49
 593 0278 7C020000 		.4byte	0x27c
 594 027c 07       		.uleb128 0x7
 595 027d A6050000 		.4byte	.LASF52
 596 0281 04       		.byte	0x4
 597 0282 07       		.byte	0x7
 598 0283 B0       		.byte	0xb0
 599 0284 95020000 		.4byte	0x295
 600 0288 08       		.uleb128 0x8
 601 0289 D7010000 		.4byte	.LASF32
 602 028d 07       		.byte	0x7
 603 028e B1       		.byte	0xb1
 604 028f 6B020000 		.4byte	0x26b
 605 0293 00       		.byte	0
 606 0294 00       		.byte	0
 607 0295 03       		.uleb128 0x3
 608 0296 0E020000 		.4byte	.LASF53
 609 029a 06       		.byte	0x6
 610 029b 50       		.byte	0x50
 611 029c A0020000 		.4byte	0x2a0
 612 02a0 07       		.uleb128 0x7
 613 02a1 70090000 		.4byte	.LASF54
 614 02a5 08       		.byte	0x8
 615 02a6 07       		.byte	0x7
 616 02a7 B7       		.byte	0xb7
 617 02a8 C5020000 		.4byte	0x2c5
 618 02ac 08       		.uleb128 0x8
 619 02ad D7010000 		.4byte	.LASF32
 620 02b1 07       		.byte	0x7
 621 02b2 B8       		.byte	0xb8
 622 02b3 6B020000 		.4byte	0x26b
 623 02b7 00       		.byte	0
 624 02b8 08       		.uleb128 0x8
 625 02b9 F3010000 		.4byte	.LASF33
 626 02bd 07       		.byte	0x7
 627 02be B9       		.byte	0xb9
ARM GAS  /var/folders/qd/4mxf5pkd0zdf0b9dd1hp39180000gn/T//cc0Vz3J6.s 			page 12


 628 02bf 6B020000 		.4byte	0x26b
 629 02c3 04       		.byte	0x4
 630 02c4 00       		.byte	0
 631 02c5 03       		.uleb128 0x3
 632 02c6 73050000 		.4byte	.LASF55
 633 02ca 06       		.byte	0x6
 634 02cb 57       		.byte	0x57
 635 02cc D0020000 		.4byte	0x2d0
 636 02d0 0C       		.uleb128 0xc
 637 02d1 8B040000 		.4byte	.LASF56
 638 02d5 1C       		.byte	0x1c
 639 02d6 07       		.byte	0x7
 640 02d7 9001     		.2byte	0x190
 641 02d9 2C030000 		.4byte	0x32c
 642 02dd 0A       		.uleb128 0xa
 643 02de E4090000 		.4byte	.LASF57
 644 02e2 07       		.byte	0x7
 645 02e3 9101     		.2byte	0x191
 646 02e5 95020000 		.4byte	0x295
 647 02e9 00       		.byte	0
 648 02ea 0A       		.uleb128 0xa
 649 02eb E10A0000 		.4byte	.LASF58
 650 02ef 07       		.byte	0x7
 651 02f0 9201     		.2byte	0x192
 652 02f2 26010000 		.4byte	0x126
 653 02f6 08       		.byte	0x8
 654 02f7 0A       		.uleb128 0xa
 655 02f8 77000000 		.4byte	.LASF59
 656 02fc 07       		.byte	0x7
 657 02fd 9401     		.2byte	0x194
 658 02ff 79080000 		.4byte	0x879
 659 0303 0C       		.byte	0xc
 660 0304 0A       		.uleb128 0xa
 661 0305 41030000 		.4byte	.LASF60
 662 0309 07       		.byte	0x7
 663 030a 9701     		.2byte	0x197
 664 030c 6B020000 		.4byte	0x26b
 665 0310 10       		.byte	0x10
 666 0311 0A       		.uleb128 0xa
 667 0312 5B0A0000 		.4byte	.LASF61
 668 0316 07       		.byte	0x7
 669 0317 9801     		.2byte	0x198
 670 0319 6B020000 		.4byte	0x26b
 671 031d 14       		.byte	0x14
 672 031e 0A       		.uleb128 0xa
 673 031f A0090000 		.4byte	.LASF62
 674 0323 07       		.byte	0x7
 675 0324 9B01     		.2byte	0x19b
 676 0326 6B020000 		.4byte	0x26b
 677 032a 18       		.byte	0x18
 678 032b 00       		.byte	0
 679 032c 03       		.uleb128 0x3
 680 032d 97000000 		.4byte	.LASF63
 681 0331 06       		.byte	0x6
 682 0332 5C       		.byte	0x5c
 683 0333 37030000 		.4byte	0x337
 684 0337 0B       		.uleb128 0xb
ARM GAS  /var/folders/qd/4mxf5pkd0zdf0b9dd1hp39180000gn/T//cc0Vz3J6.s 			page 13


 685 0338 04       		.byte	0x4
 686 0339 3D030000 		.4byte	0x33d
 687 033d 0D       		.uleb128 0xd
 688 033e 48030000 		.4byte	0x348
 689 0342 0E       		.uleb128 0xe
 690 0343 48030000 		.4byte	0x348
 691 0347 00       		.byte	0
 692 0348 0F       		.uleb128 0xf
 693 0349 04       		.byte	0x4
 694 034a 03       		.uleb128 0x3
 695 034b 63050000 		.4byte	.LASF64
 696 034f 06       		.byte	0x6
 697 0350 61       		.byte	0x61
 698 0351 55030000 		.4byte	0x355
 699 0355 0C       		.uleb128 0xc
 700 0356 11090000 		.4byte	.LASF65
 701 035a 14       		.byte	0x14
 702 035b 07       		.byte	0x7
 703 035c 6B01     		.2byte	0x16b
 704 035e A4030000 		.4byte	0x3a4
 705 0362 0A       		.uleb128 0xa
 706 0363 EF060000 		.4byte	.LASF66
 707 0367 07       		.byte	0x7
 708 0368 6C01     		.2byte	0x16c
 709 036a 270B0000 		.4byte	0xb27
 710 036e 00       		.byte	0
 711 036f 0A       		.uleb128 0xa
 712 0370 FF060000 		.4byte	.LASF67
 713 0374 07       		.byte	0x7
 714 0375 6D01     		.2byte	0x16d
 715 0377 270B0000 		.4byte	0xb27
 716 037b 04       		.byte	0x4
 717 037c 0A       		.uleb128 0xa
 718 037d FF080000 		.4byte	.LASF68
 719 0381 07       		.byte	0x7
 720 0382 6E01     		.2byte	0x16e
 721 0384 5D010000 		.4byte	0x15d
 722 0388 08       		.byte	0x8
 723 0389 0A       		.uleb128 0xa
 724 038a 41040000 		.4byte	.LASF69
 725 038e 07       		.byte	0x7
 726 038f 6F01     		.2byte	0x16f
 727 0391 2C030000 		.4byte	0x32c
 728 0395 0C       		.byte	0xc
 729 0396 0A       		.uleb128 0xa
 730 0397 4D010000 		.4byte	.LASF70
 731 039b 07       		.byte	0x7
 732 039c 7101     		.2byte	0x171
 733 039e 48030000 		.4byte	0x348
 734 03a2 10       		.byte	0x10
 735 03a3 00       		.byte	0
 736 03a4 03       		.uleb128 0x3
 737 03a5 32050000 		.4byte	.LASF71
 738 03a9 06       		.byte	0x6
 739 03aa 66       		.byte	0x66
 740 03ab AF030000 		.4byte	0x3af
 741 03af 0C       		.uleb128 0xc
ARM GAS  /var/folders/qd/4mxf5pkd0zdf0b9dd1hp39180000gn/T//cc0Vz3J6.s 			page 14


 742 03b0 A0000000 		.4byte	.LASF72
 743 03b4 10       		.byte	0x10
 744 03b5 07       		.byte	0x7
 745 03b6 7B01     		.2byte	0x17b
 746 03b8 F1030000 		.4byte	0x3f1
 747 03bc 0A       		.uleb128 0xa
 748 03bd EF060000 		.4byte	.LASF66
 749 03c1 07       		.byte	0x7
 750 03c2 7C01     		.2byte	0x17c
 751 03c4 270B0000 		.4byte	0xb27
 752 03c8 00       		.byte	0
 753 03c9 0A       		.uleb128 0xa
 754 03ca FF060000 		.4byte	.LASF67
 755 03ce 07       		.byte	0x7
 756 03cf 7E01     		.2byte	0x17e
 757 03d1 270B0000 		.4byte	0xb27
 758 03d5 04       		.byte	0x4
 759 03d6 0A       		.uleb128 0xa
 760 03d7 FF080000 		.4byte	.LASF68
 761 03db 07       		.byte	0x7
 762 03dc 8001     		.2byte	0x180
 763 03de 5D010000 		.4byte	0x15d
 764 03e2 08       		.byte	0x8
 765 03e3 0A       		.uleb128 0xa
 766 03e4 D90B0000 		.4byte	.LASF73
 767 03e8 07       		.byte	0x7
 768 03e9 8801     		.2byte	0x188
 769 03eb 5D010000 		.4byte	0x15d
 770 03ef 0C       		.byte	0xc
 771 03f0 00       		.byte	0
 772 03f1 03       		.uleb128 0x3
 773 03f2 49030000 		.4byte	.LASF74
 774 03f6 06       		.byte	0x6
 775 03f7 6B       		.byte	0x6b
 776 03f8 FC030000 		.4byte	0x3fc
 777 03fc 0C       		.uleb128 0xc
 778 03fd E80A0000 		.4byte	.LASF75
 779 0401 04       		.byte	0x4
 780 0402 07       		.byte	0x7
 781 0403 A201     		.2byte	0x1a2
 782 0405 17040000 		.4byte	0x417
 783 0409 0A       		.uleb128 0xa
 784 040a 37030000 		.4byte	.LASF76
 785 040e 07       		.byte	0x7
 786 040f AA01     		.2byte	0x1aa
 787 0411 160B0000 		.4byte	0xb16
 788 0415 00       		.byte	0
 789 0416 00       		.byte	0
 790 0417 03       		.uleb128 0x3
 791 0418 F80B0000 		.4byte	.LASF77
 792 041c 06       		.byte	0x6
 793 041d 70       		.byte	0x70
 794 041e 22040000 		.4byte	0x422
 795 0422 10       		.uleb128 0x10
 796 0423 730B0000 		.4byte	.LASF78
 797 0427 5001     		.2byte	0x150
 798 0429 07       		.byte	0x7
ARM GAS  /var/folders/qd/4mxf5pkd0zdf0b9dd1hp39180000gn/T//cc0Vz3J6.s 			page 15


 799 042a C201     		.2byte	0x1c2
 800 042c 7E040000 		.4byte	0x47e
 801 0430 0A       		.uleb128 0xa
 802 0431 240A0000 		.4byte	.LASF79
 803 0435 07       		.byte	0x7
 804 0436 C601     		.2byte	0x1c6
 805 0438 C5020000 		.4byte	0x2c5
 806 043c 00       		.byte	0
 807 043d 0A       		.uleb128 0xa
 808 043e 1F0B0000 		.4byte	.LASF80
 809 0442 07       		.byte	0x7
 810 0443 CA01     		.2byte	0x1ca
 811 0445 A4030000 		.4byte	0x3a4
 812 0449 1C       		.byte	0x1c
 813 044a 09       		.uleb128 0x9
 814 044b 64626700 		.ascii	"dbg\000"
 815 044f 07       		.byte	0x7
 816 0450 CE01     		.2byte	0x1ce
 817 0452 F1030000 		.4byte	0x3f1
 818 0456 2C       		.byte	0x2c
 819 0457 0A       		.uleb128 0xa
 820 0458 C3090000 		.4byte	.LASF81
 821 045c 07       		.byte	0x7
 822 045d D201     		.2byte	0x1d2
 823 045f 68010000 		.4byte	0x168
 824 0463 30       		.byte	0x30
 825 0464 09       		.uleb128 0x9
 826 0465 746D00   		.ascii	"tm\000"
 827 0468 07       		.byte	0x7
 828 0469 D701     		.2byte	0x1d7
 829 046b 400A0000 		.4byte	0xa40
 830 046f 74       		.byte	0x74
 831 0470 0A       		.uleb128 0xa
 832 0471 A6070000 		.4byte	.LASF82
 833 0475 07       		.byte	0x7
 834 0476 E301     		.2byte	0x1e3
 835 0478 2D0B0000 		.4byte	0xb2d
 836 047c 78       		.byte	0x78
 837 047d 00       		.byte	0
 838 047e 11       		.uleb128 0x11
 839 047f DF000000 		.4byte	0xdf
 840 0483 8E040000 		.4byte	0x48e
 841 0487 12       		.uleb128 0x12
 842 0488 37000000 		.4byte	0x37
 843 048c 01       		.byte	0x1
 844 048d 00       		.byte	0
 845 048e 13       		.uleb128 0x13
 846 048f 3A070000 		.4byte	.LASF83
 847 0493 08       		.byte	0x8
 848 0494 A706     		.2byte	0x6a7
 849 0496 DA000000 		.4byte	0xda
 850 049a 14       		.uleb128 0x14
 851 049b 0B050000 		.4byte	.LASF84
 852 049f 09       		.byte	0x9
 853 04a0 4C       		.byte	0x4c
 854 04a1 DF000000 		.4byte	0xdf
 855 04a5 15       		.uleb128 0x15
ARM GAS  /var/folders/qd/4mxf5pkd0zdf0b9dd1hp39180000gn/T//cc0Vz3J6.s 			page 16


 856 04a6 18       		.byte	0x18
 857 04a7 0A       		.byte	0xa
 858 04a8 6B01     		.2byte	0x16b
 859 04aa FC040000 		.4byte	0x4fc
 860 04ae 09       		.uleb128 0x9
 861 04af 435200   		.ascii	"CR\000"
 862 04b2 0A       		.byte	0xa
 863 04b3 6D01     		.2byte	0x16d
 864 04b5 EA000000 		.4byte	0xea
 865 04b9 00       		.byte	0
 866 04ba 0A       		.uleb128 0xa
 867 04bb 420C0000 		.4byte	.LASF85
 868 04bf 0A       		.byte	0xa
 869 04c0 6E01     		.2byte	0x16e
 870 04c2 EA000000 		.4byte	0xea
 871 04c6 04       		.byte	0x4
 872 04c7 09       		.uleb128 0x9
 873 04c8 50415200 		.ascii	"PAR\000"
 874 04cc 0A       		.byte	0xa
 875 04cd 6F01     		.2byte	0x16f
 876 04cf EA000000 		.4byte	0xea
 877 04d3 08       		.byte	0x8
 878 04d4 0A       		.uleb128 0xa
 879 04d5 840A0000 		.4byte	.LASF86
 880 04d9 0A       		.byte	0xa
 881 04da 7001     		.2byte	0x170
 882 04dc EA000000 		.4byte	0xea
 883 04e0 0C       		.byte	0xc
 884 04e1 0A       		.uleb128 0xa
 885 04e2 00000000 		.4byte	.LASF87
 886 04e6 0A       		.byte	0xa
 887 04e7 7101     		.2byte	0x171
 888 04e9 EA000000 		.4byte	0xea
 889 04ed 10       		.byte	0x10
 890 04ee 09       		.uleb128 0x9
 891 04ef 46435200 		.ascii	"FCR\000"
 892 04f3 0A       		.byte	0xa
 893 04f4 7201     		.2byte	0x172
 894 04f6 EA000000 		.4byte	0xea
 895 04fa 14       		.byte	0x14
 896 04fb 00       		.byte	0
 897 04fc 16       		.uleb128 0x16
 898 04fd 47080000 		.4byte	.LASF88
 899 0501 0A       		.byte	0xa
 900 0502 7301     		.2byte	0x173
 901 0504 A5040000 		.4byte	0x4a5
 902 0508 15       		.uleb128 0x15
 903 0509 1C       		.byte	0x1c
 904 050a 0A       		.byte	0xa
 905 050b DA01     		.2byte	0x1da
 906 050d 6B050000 		.4byte	0x56b
 907 0511 09       		.uleb128 0x9
 908 0512 41435200 		.ascii	"ACR\000"
 909 0516 0A       		.byte	0xa
 910 0517 DC01     		.2byte	0x1dc
 911 0519 EA000000 		.4byte	0xea
 912 051d 00       		.byte	0
ARM GAS  /var/folders/qd/4mxf5pkd0zdf0b9dd1hp39180000gn/T//cc0Vz3J6.s 			page 17


 913 051e 0A       		.uleb128 0xa
 914 051f 9B0A0000 		.4byte	.LASF89
 915 0523 0A       		.byte	0xa
 916 0524 DD01     		.2byte	0x1dd
 917 0526 EA000000 		.4byte	0xea
 918 052a 04       		.byte	0x4
 919 052b 0A       		.uleb128 0xa
 920 052c CD040000 		.4byte	.LASF90
 921 0530 0A       		.byte	0xa
 922 0531 DE01     		.2byte	0x1de
 923 0533 EA000000 		.4byte	0xea
 924 0537 08       		.byte	0x8
 925 0538 09       		.uleb128 0x9
 926 0539 535200   		.ascii	"SR\000"
 927 053c 0A       		.byte	0xa
 928 053d DF01     		.2byte	0x1df
 929 053f EA000000 		.4byte	0xea
 930 0543 0C       		.byte	0xc
 931 0544 09       		.uleb128 0x9
 932 0545 435200   		.ascii	"CR\000"
 933 0548 0A       		.byte	0xa
 934 0549 E001     		.2byte	0x1e0
 935 054b EA000000 		.4byte	0xea
 936 054f 10       		.byte	0x10
 937 0550 0A       		.uleb128 0xa
 938 0551 960B0000 		.4byte	.LASF91
 939 0555 0A       		.byte	0xa
 940 0556 E101     		.2byte	0x1e1
 941 0558 EA000000 		.4byte	0xea
 942 055c 14       		.byte	0x14
 943 055d 0A       		.uleb128 0xa
 944 055e A9080000 		.4byte	.LASF92
 945 0562 0A       		.byte	0xa
 946 0563 E201     		.2byte	0x1e2
 947 0565 EA000000 		.4byte	0xea
 948 0569 18       		.byte	0x18
 949 056a 00       		.byte	0
 950 056b 16       		.uleb128 0x16
 951 056c 500B0000 		.4byte	.LASF93
 952 0570 0A       		.byte	0xa
 953 0571 E301     		.2byte	0x1e3
 954 0573 08050000 		.4byte	0x508
 955 0577 11       		.uleb128 0x11
 956 0578 EA000000 		.4byte	0xea
 957 057c 87050000 		.4byte	0x587
 958 0580 12       		.uleb128 0x12
 959 0581 37000000 		.4byte	0x37
 960 0585 01       		.byte	0x1
 961 0586 00       		.byte	0
 962 0587 06       		.uleb128 0x6
 963 0588 77050000 		.4byte	0x577
 964 058c 11       		.uleb128 0x11
 965 058d EA000000 		.4byte	0xea
 966 0591 9C050000 		.4byte	0x59c
 967 0595 12       		.uleb128 0x12
 968 0596 37000000 		.4byte	0x37
 969 059a 03       		.byte	0x3
ARM GAS  /var/folders/qd/4mxf5pkd0zdf0b9dd1hp39180000gn/T//cc0Vz3J6.s 			page 18


 970 059b 00       		.byte	0
 971 059c 06       		.uleb128 0x6
 972 059d 8C050000 		.4byte	0x58c
 973 05a1 15       		.uleb128 0x15
 974 05a2 08       		.byte	0x8
 975 05a3 0A       		.byte	0xa
 976 05a4 5D02     		.2byte	0x25d
 977 05a6 C4050000 		.4byte	0x5c4
 978 05aa 09       		.uleb128 0x9
 979 05ab 435200   		.ascii	"CR\000"
 980 05ae 0A       		.byte	0xa
 981 05af 5F02     		.2byte	0x25f
 982 05b1 EA000000 		.4byte	0xea
 983 05b5 00       		.byte	0
 984 05b6 09       		.uleb128 0x9
 985 05b7 43535200 		.ascii	"CSR\000"
 986 05bb 0A       		.byte	0xa
 987 05bc 6002     		.2byte	0x260
 988 05be EA000000 		.4byte	0xea
 989 05c2 04       		.byte	0x4
 990 05c3 00       		.byte	0
 991 05c4 16       		.uleb128 0x16
 992 05c5 B00B0000 		.4byte	.LASF94
 993 05c9 0A       		.byte	0xa
 994 05ca 6102     		.2byte	0x261
 995 05cc A1050000 		.4byte	0x5a1
 996 05d0 15       		.uleb128 0x15
 997 05d1 88       		.byte	0x88
 998 05d2 0A       		.byte	0xa
 999 05d3 6702     		.2byte	0x267
 1000 05d5 5F070000 		.4byte	0x75f
 1001 05d9 09       		.uleb128 0x9
 1002 05da 435200   		.ascii	"CR\000"
 1003 05dd 0A       		.byte	0xa
 1004 05de 6902     		.2byte	0x269
 1005 05e0 EA000000 		.4byte	0xea
 1006 05e4 00       		.byte	0
 1007 05e5 0A       		.uleb128 0xa
 1008 05e6 F7060000 		.4byte	.LASF95
 1009 05ea 0A       		.byte	0xa
 1010 05eb 6A02     		.2byte	0x26a
 1011 05ed EA000000 		.4byte	0xea
 1012 05f1 04       		.byte	0x4
 1013 05f2 0A       		.uleb128 0xa
 1014 05f3 9F040000 		.4byte	.LASF96
 1015 05f7 0A       		.byte	0xa
 1016 05f8 6B02     		.2byte	0x26b
 1017 05fa EA000000 		.4byte	0xea
 1018 05fe 08       		.byte	0x8
 1019 05ff 09       		.uleb128 0x9
 1020 0600 43495200 		.ascii	"CIR\000"
 1021 0604 0A       		.byte	0xa
 1022 0605 6C02     		.2byte	0x26c
 1023 0607 EA000000 		.4byte	0xea
 1024 060b 0C       		.byte	0xc
 1025 060c 0A       		.uleb128 0xa
 1026 060d 96030000 		.4byte	.LASF97
ARM GAS  /var/folders/qd/4mxf5pkd0zdf0b9dd1hp39180000gn/T//cc0Vz3J6.s 			page 19


 1027 0611 0A       		.byte	0xa
 1028 0612 6D02     		.2byte	0x26d
 1029 0614 EA000000 		.4byte	0xea
 1030 0618 10       		.byte	0x10
 1031 0619 0A       		.uleb128 0xa
 1032 061a 740A0000 		.4byte	.LASF98
 1033 061e 0A       		.byte	0xa
 1034 061f 6E02     		.2byte	0x26e
 1035 0621 EA000000 		.4byte	0xea
 1036 0625 14       		.byte	0x14
 1037 0626 0A       		.uleb128 0xa
 1038 0627 78080000 		.4byte	.LASF99
 1039 062b 0A       		.byte	0xa
 1040 062c 6F02     		.2byte	0x26f
 1041 062e EA000000 		.4byte	0xea
 1042 0632 18       		.byte	0x18
 1043 0633 0A       		.uleb128 0xa
 1044 0634 CB020000 		.4byte	.LASF100
 1045 0638 0A       		.byte	0xa
 1046 0639 7002     		.2byte	0x270
 1047 063b DF000000 		.4byte	0xdf
 1048 063f 1C       		.byte	0x1c
 1049 0640 0A       		.uleb128 0xa
 1050 0641 08090000 		.4byte	.LASF101
 1051 0645 0A       		.byte	0xa
 1052 0646 7102     		.2byte	0x271
 1053 0648 EA000000 		.4byte	0xea
 1054 064c 20       		.byte	0x20
 1055 064d 0A       		.uleb128 0xa
 1056 064e 0C070000 		.4byte	.LASF102
 1057 0652 0A       		.byte	0xa
 1058 0653 7202     		.2byte	0x272
 1059 0655 EA000000 		.4byte	0xea
 1060 0659 24       		.byte	0x24
 1061 065a 0A       		.uleb128 0xa
 1062 065b D5020000 		.4byte	.LASF103
 1063 065f 0A       		.byte	0xa
 1064 0660 7302     		.2byte	0x273
 1065 0662 7E040000 		.4byte	0x47e
 1066 0666 28       		.byte	0x28
 1067 0667 0A       		.uleb128 0xa
 1068 0668 420A0000 		.4byte	.LASF104
 1069 066c 0A       		.byte	0xa
 1070 066d 7402     		.2byte	0x274
 1071 066f EA000000 		.4byte	0xea
 1072 0673 30       		.byte	0x30
 1073 0674 0A       		.uleb128 0xa
 1074 0675 BB030000 		.4byte	.LASF105
 1075 0679 0A       		.byte	0xa
 1076 067a 7502     		.2byte	0x275
 1077 067c EA000000 		.4byte	0xea
 1078 0680 34       		.byte	0x34
 1079 0681 0A       		.uleb128 0xa
 1080 0682 530A0000 		.4byte	.LASF106
 1081 0686 0A       		.byte	0xa
 1082 0687 7602     		.2byte	0x276
 1083 0689 EA000000 		.4byte	0xea
ARM GAS  /var/folders/qd/4mxf5pkd0zdf0b9dd1hp39180000gn/T//cc0Vz3J6.s 			page 20


 1084 068d 38       		.byte	0x38
 1085 068e 0A       		.uleb128 0xa
 1086 068f 68030000 		.4byte	.LASF107
 1087 0693 0A       		.byte	0xa
 1088 0694 7702     		.2byte	0x277
 1089 0696 DF000000 		.4byte	0xdf
 1090 069a 3C       		.byte	0x3c
 1091 069b 0A       		.uleb128 0xa
 1092 069c F7040000 		.4byte	.LASF108
 1093 06a0 0A       		.byte	0xa
 1094 06a1 7802     		.2byte	0x278
 1095 06a3 EA000000 		.4byte	0xea
 1096 06a7 40       		.byte	0x40
 1097 06a8 0A       		.uleb128 0xa
 1098 06a9 45020000 		.4byte	.LASF109
 1099 06ad 0A       		.byte	0xa
 1100 06ae 7902     		.2byte	0x279
 1101 06b0 EA000000 		.4byte	0xea
 1102 06b4 44       		.byte	0x44
 1103 06b5 0A       		.uleb128 0xa
 1104 06b6 ED020000 		.4byte	.LASF110
 1105 06ba 0A       		.byte	0xa
 1106 06bb 7A02     		.2byte	0x27a
 1107 06bd 7E040000 		.4byte	0x47e
 1108 06c1 48       		.byte	0x48
 1109 06c2 0A       		.uleb128 0xa
 1110 06c3 56020000 		.4byte	.LASF111
 1111 06c7 0A       		.byte	0xa
 1112 06c8 7B02     		.2byte	0x27b
 1113 06ca EA000000 		.4byte	0xea
 1114 06ce 50       		.byte	0x50
 1115 06cf 0A       		.uleb128 0xa
 1116 06d0 7C010000 		.4byte	.LASF112
 1117 06d4 0A       		.byte	0xa
 1118 06d5 7C02     		.2byte	0x27c
 1119 06d7 EA000000 		.4byte	0xea
 1120 06db 54       		.byte	0x54
 1121 06dc 0A       		.uleb128 0xa
 1122 06dd DA090000 		.4byte	.LASF113
 1123 06e1 0A       		.byte	0xa
 1124 06e2 7D02     		.2byte	0x27d
 1125 06e4 EA000000 		.4byte	0xea
 1126 06e8 58       		.byte	0x58
 1127 06e9 0A       		.uleb128 0xa
 1128 06ea F7020000 		.4byte	.LASF114
 1129 06ee 0A       		.byte	0xa
 1130 06ef 7E02     		.2byte	0x27e
 1131 06f1 DF000000 		.4byte	0xdf
 1132 06f5 5C       		.byte	0x5c
 1133 06f6 0A       		.uleb128 0xa
 1134 06f7 36080000 		.4byte	.LASF115
 1135 06fb 0A       		.byte	0xa
 1136 06fc 7F02     		.2byte	0x27f
 1137 06fe EA000000 		.4byte	0xea
 1138 0702 60       		.byte	0x60
 1139 0703 0A       		.uleb128 0xa
 1140 0704 69070000 		.4byte	.LASF116
ARM GAS  /var/folders/qd/4mxf5pkd0zdf0b9dd1hp39180000gn/T//cc0Vz3J6.s 			page 21


 1141 0708 0A       		.byte	0xa
 1142 0709 8002     		.2byte	0x280
 1143 070b EA000000 		.4byte	0xea
 1144 070f 64       		.byte	0x64
 1145 0710 0A       		.uleb128 0xa
 1146 0711 01030000 		.4byte	.LASF117
 1147 0715 0A       		.byte	0xa
 1148 0716 8102     		.2byte	0x281
 1149 0718 7E040000 		.4byte	0x47e
 1150 071c 68       		.byte	0x68
 1151 071d 0A       		.uleb128 0xa
 1152 071e 26040000 		.4byte	.LASF118
 1153 0722 0A       		.byte	0xa
 1154 0723 8202     		.2byte	0x282
 1155 0725 EA000000 		.4byte	0xea
 1156 0729 70       		.byte	0x70
 1157 072a 09       		.uleb128 0x9
 1158 072b 43535200 		.ascii	"CSR\000"
 1159 072f 0A       		.byte	0xa
 1160 0730 8302     		.2byte	0x283
 1161 0732 EA000000 		.4byte	0xea
 1162 0736 74       		.byte	0x74
 1163 0737 0A       		.uleb128 0xa
 1164 0738 0B030000 		.4byte	.LASF119
 1165 073c 0A       		.byte	0xa
 1166 073d 8402     		.2byte	0x284
 1167 073f 7E040000 		.4byte	0x47e
 1168 0743 78       		.byte	0x78
 1169 0744 0A       		.uleb128 0xa
 1170 0745 E9060000 		.4byte	.LASF120
 1171 0749 0A       		.byte	0xa
 1172 074a 8502     		.2byte	0x285
 1173 074c EA000000 		.4byte	0xea
 1174 0750 80       		.byte	0x80
 1175 0751 0A       		.uleb128 0xa
 1176 0752 3C000000 		.4byte	.LASF121
 1177 0756 0A       		.byte	0xa
 1178 0757 8602     		.2byte	0x286
 1179 0759 EA000000 		.4byte	0xea
 1180 075d 84       		.byte	0x84
 1181 075e 00       		.byte	0
 1182 075f 16       		.uleb128 0x16
 1183 0760 A00A0000 		.4byte	.LASF122
 1184 0764 0A       		.byte	0xa
 1185 0765 8802     		.2byte	0x288
 1186 0767 D0050000 		.4byte	0x5d0
 1187 076b 15       		.uleb128 0x15
 1188 076c 24       		.byte	0x24
 1189 076d 0A       		.byte	0xa
 1190 076e DB02     		.2byte	0x2db
 1191 0770 E8070000 		.4byte	0x7e8
 1192 0774 09       		.uleb128 0x9
 1193 0775 43523100 		.ascii	"CR1\000"
 1194 0779 0A       		.byte	0xa
 1195 077a DD02     		.2byte	0x2dd
 1196 077c EA000000 		.4byte	0xea
 1197 0780 00       		.byte	0
ARM GAS  /var/folders/qd/4mxf5pkd0zdf0b9dd1hp39180000gn/T//cc0Vz3J6.s 			page 22


 1198 0781 09       		.uleb128 0x9
 1199 0782 43523200 		.ascii	"CR2\000"
 1200 0786 0A       		.byte	0xa
 1201 0787 DE02     		.2byte	0x2de
 1202 0789 EA000000 		.4byte	0xea
 1203 078d 04       		.byte	0x4
 1204 078e 09       		.uleb128 0x9
 1205 078f 535200   		.ascii	"SR\000"
 1206 0792 0A       		.byte	0xa
 1207 0793 DF02     		.2byte	0x2df
 1208 0795 EA000000 		.4byte	0xea
 1209 0799 08       		.byte	0x8
 1210 079a 09       		.uleb128 0x9
 1211 079b 445200   		.ascii	"DR\000"
 1212 079e 0A       		.byte	0xa
 1213 079f E002     		.2byte	0x2e0
 1214 07a1 EA000000 		.4byte	0xea
 1215 07a5 0C       		.byte	0xc
 1216 07a6 0A       		.uleb128 0xa
 1217 07a7 320A0000 		.4byte	.LASF123
 1218 07ab 0A       		.byte	0xa
 1219 07ac E102     		.2byte	0x2e1
 1220 07ae EA000000 		.4byte	0xea
 1221 07b2 10       		.byte	0x10
 1222 07b3 0A       		.uleb128 0xa
 1223 07b4 47070000 		.4byte	.LASF124
 1224 07b8 0A       		.byte	0xa
 1225 07b9 E202     		.2byte	0x2e2
 1226 07bb EA000000 		.4byte	0xea
 1227 07bf 14       		.byte	0x14
 1228 07c0 0A       		.uleb128 0xa
 1229 07c1 110A0000 		.4byte	.LASF125
 1230 07c5 0A       		.byte	0xa
 1231 07c6 E302     		.2byte	0x2e3
 1232 07c8 EA000000 		.4byte	0xea
 1233 07cc 18       		.byte	0x18
 1234 07cd 0A       		.uleb128 0xa
 1235 07ce 64010000 		.4byte	.LASF126
 1236 07d2 0A       		.byte	0xa
 1237 07d3 E402     		.2byte	0x2e4
 1238 07d5 EA000000 		.4byte	0xea
 1239 07d9 1C       		.byte	0x1c
 1240 07da 0A       		.uleb128 0xa
 1241 07db 9C0B0000 		.4byte	.LASF127
 1242 07df 0A       		.byte	0xa
 1243 07e0 E502     		.2byte	0x2e5
 1244 07e2 EA000000 		.4byte	0xea
 1245 07e6 20       		.byte	0x20
 1246 07e7 00       		.byte	0
 1247 07e8 16       		.uleb128 0x16
 1248 07e9 180A0000 		.4byte	.LASF128
 1249 07ed 0A       		.byte	0xa
 1250 07ee E602     		.2byte	0x2e6
 1251 07f0 6B070000 		.4byte	0x76b
 1252 07f4 15       		.uleb128 0x15
 1253 07f5 1C       		.byte	0x1c
 1254 07f6 0A       		.byte	0xa
ARM GAS  /var/folders/qd/4mxf5pkd0zdf0b9dd1hp39180000gn/T//cc0Vz3J6.s 			page 23


 1255 07f7 0903     		.2byte	0x309
 1256 07f9 57080000 		.4byte	0x857
 1257 07fd 09       		.uleb128 0x9
 1258 07fe 535200   		.ascii	"SR\000"
 1259 0801 0A       		.byte	0xa
 1260 0802 0B03     		.2byte	0x30b
 1261 0804 EA000000 		.4byte	0xea
 1262 0808 00       		.byte	0
 1263 0809 09       		.uleb128 0x9
 1264 080a 445200   		.ascii	"DR\000"
 1265 080d 0A       		.byte	0xa
 1266 080e 0C03     		.2byte	0x30c
 1267 0810 EA000000 		.4byte	0xea
 1268 0814 04       		.byte	0x4
 1269 0815 09       		.uleb128 0x9
 1270 0816 42525200 		.ascii	"BRR\000"
 1271 081a 0A       		.byte	0xa
 1272 081b 0D03     		.2byte	0x30d
 1273 081d EA000000 		.4byte	0xea
 1274 0821 08       		.byte	0x8
 1275 0822 09       		.uleb128 0x9
 1276 0823 43523100 		.ascii	"CR1\000"
 1277 0827 0A       		.byte	0xa
 1278 0828 0E03     		.2byte	0x30e
 1279 082a EA000000 		.4byte	0xea
 1280 082e 0C       		.byte	0xc
 1281 082f 09       		.uleb128 0x9
 1282 0830 43523200 		.ascii	"CR2\000"
 1283 0834 0A       		.byte	0xa
 1284 0835 0F03     		.2byte	0x30f
 1285 0837 EA000000 		.4byte	0xea
 1286 083b 10       		.byte	0x10
 1287 083c 09       		.uleb128 0x9
 1288 083d 43523300 		.ascii	"CR3\000"
 1289 0841 0A       		.byte	0xa
 1290 0842 1003     		.2byte	0x310
 1291 0844 EA000000 		.4byte	0xea
 1292 0848 14       		.byte	0x14
 1293 0849 0A       		.uleb128 0xa
 1294 084a 07070000 		.4byte	.LASF129
 1295 084e 0A       		.byte	0xa
 1296 084f 1103     		.2byte	0x311
 1297 0851 EA000000 		.4byte	0xea
 1298 0855 18       		.byte	0x18
 1299 0856 00       		.byte	0
 1300 0857 16       		.uleb128 0x16
 1301 0858 E7030000 		.4byte	.LASF130
 1302 085c 0A       		.byte	0xa
 1303 085d 1203     		.2byte	0x312
 1304 085f F4070000 		.4byte	0x7f4
 1305 0863 03       		.uleb128 0x3
 1306 0864 2F020000 		.4byte	.LASF131
 1307 0868 0B       		.byte	0xb
 1308 0869 65       		.byte	0x65
 1309 086a 48030000 		.4byte	0x348
 1310 086e 03       		.uleb128 0x3
 1311 086f DC030000 		.4byte	.LASF132
ARM GAS  /var/folders/qd/4mxf5pkd0zdf0b9dd1hp39180000gn/T//cc0Vz3J6.s 			page 24


 1312 0873 0B       		.byte	0xb
 1313 0874 6D       		.byte	0x6d
 1314 0875 EF000000 		.4byte	0xef
 1315 0879 07       		.uleb128 0x7
 1316 087a B4020000 		.4byte	.LASF133
 1317 087e 04       		.byte	0x4
 1318 087f 0B       		.byte	0xb
 1319 0880 89       		.byte	0x89
 1320 0881 92080000 		.4byte	0x892
 1321 0885 17       		.uleb128 0x17
 1322 0886 72313300 		.ascii	"r13\000"
 1323 088a 0B       		.byte	0xb
 1324 088b 8A       		.byte	0x8a
 1325 088c 0D090000 		.4byte	0x90d
 1326 0890 00       		.byte	0
 1327 0891 00       		.byte	0
 1328 0892 07       		.uleb128 0x7
 1329 0893 D6080000 		.4byte	.LASF134
 1330 0897 24       		.byte	0x24
 1331 0898 0C       		.byte	0xc
 1332 0899 F4       		.byte	0xf4
 1333 089a 0D090000 		.4byte	0x90d
 1334 089e 09       		.uleb128 0x9
 1335 089f 723400   		.ascii	"r4\000"
 1336 08a2 0C       		.byte	0xc
 1337 08a3 0701     		.2byte	0x107
 1338 08a5 63080000 		.4byte	0x863
 1339 08a9 00       		.byte	0
 1340 08aa 09       		.uleb128 0x9
 1341 08ab 723500   		.ascii	"r5\000"
 1342 08ae 0C       		.byte	0xc
 1343 08af 0801     		.2byte	0x108
 1344 08b1 63080000 		.4byte	0x863
 1345 08b5 04       		.byte	0x4
 1346 08b6 09       		.uleb128 0x9
 1347 08b7 723600   		.ascii	"r6\000"
 1348 08ba 0C       		.byte	0xc
 1349 08bb 0901     		.2byte	0x109
 1350 08bd 63080000 		.4byte	0x863
 1351 08c1 08       		.byte	0x8
 1352 08c2 09       		.uleb128 0x9
 1353 08c3 723700   		.ascii	"r7\000"
 1354 08c6 0C       		.byte	0xc
 1355 08c7 0A01     		.2byte	0x10a
 1356 08c9 63080000 		.4byte	0x863
 1357 08cd 0C       		.byte	0xc
 1358 08ce 09       		.uleb128 0x9
 1359 08cf 723800   		.ascii	"r8\000"
 1360 08d2 0C       		.byte	0xc
 1361 08d3 0B01     		.2byte	0x10b
 1362 08d5 63080000 		.4byte	0x863
 1363 08d9 10       		.byte	0x10
 1364 08da 09       		.uleb128 0x9
 1365 08db 723900   		.ascii	"r9\000"
 1366 08de 0C       		.byte	0xc
 1367 08df 0C01     		.2byte	0x10c
 1368 08e1 63080000 		.4byte	0x863
ARM GAS  /var/folders/qd/4mxf5pkd0zdf0b9dd1hp39180000gn/T//cc0Vz3J6.s 			page 25


 1369 08e5 14       		.byte	0x14
 1370 08e6 09       		.uleb128 0x9
 1371 08e7 72313000 		.ascii	"r10\000"
 1372 08eb 0C       		.byte	0xc
 1373 08ec 0D01     		.2byte	0x10d
 1374 08ee 63080000 		.4byte	0x863
 1375 08f2 18       		.byte	0x18
 1376 08f3 09       		.uleb128 0x9
 1377 08f4 72313100 		.ascii	"r11\000"
 1378 08f8 0C       		.byte	0xc
 1379 08f9 0E01     		.2byte	0x10e
 1380 08fb 63080000 		.4byte	0x863
 1381 08ff 1C       		.byte	0x1c
 1382 0900 09       		.uleb128 0x9
 1383 0901 6C7200   		.ascii	"lr\000"
 1384 0904 0C       		.byte	0xc
 1385 0905 0F01     		.2byte	0x10f
 1386 0907 63080000 		.4byte	0x863
 1387 090b 20       		.byte	0x20
 1388 090c 00       		.byte	0
 1389 090d 0B       		.uleb128 0xb
 1390 090e 04       		.byte	0x4
 1391 090f 92080000 		.4byte	0x892
 1392 0913 15       		.uleb128 0x15
 1393 0914 60       		.byte	0x60
 1394 0915 0D       		.byte	0xd
 1395 0916 9E01     		.2byte	0x19e
 1396 0918 1F0A0000 		.4byte	0xa1f
 1397 091c 09       		.uleb128 0x9
 1398 091d 43523100 		.ascii	"CR1\000"
 1399 0921 0D       		.byte	0xd
 1400 0922 9F01     		.2byte	0x19f
 1401 0924 EA000000 		.4byte	0xea
 1402 0928 00       		.byte	0
 1403 0929 09       		.uleb128 0x9
 1404 092a 43523200 		.ascii	"CR2\000"
 1405 092e 0D       		.byte	0xd
 1406 092f A001     		.2byte	0x1a0
 1407 0931 EA000000 		.4byte	0xea
 1408 0935 04       		.byte	0x4
 1409 0936 0A       		.uleb128 0xa
 1410 0937 CE090000 		.4byte	.LASF135
 1411 093b 0D       		.byte	0xd
 1412 093c A101     		.2byte	0x1a1
 1413 093e EA000000 		.4byte	0xea
 1414 0942 08       		.byte	0x8
 1415 0943 0A       		.uleb128 0xa
 1416 0944 FF040000 		.4byte	.LASF136
 1417 0948 0D       		.byte	0xd
 1418 0949 A201     		.2byte	0x1a2
 1419 094b EA000000 		.4byte	0xea
 1420 094f 0C       		.byte	0xc
 1421 0950 09       		.uleb128 0x9
 1422 0951 535200   		.ascii	"SR\000"
 1423 0954 0D       		.byte	0xd
 1424 0955 A301     		.2byte	0x1a3
 1425 0957 EA000000 		.4byte	0xea
ARM GAS  /var/folders/qd/4mxf5pkd0zdf0b9dd1hp39180000gn/T//cc0Vz3J6.s 			page 26


 1426 095b 10       		.byte	0x10
 1427 095c 09       		.uleb128 0x9
 1428 095d 45475200 		.ascii	"EGR\000"
 1429 0961 0D       		.byte	0xd
 1430 0962 A401     		.2byte	0x1a4
 1431 0964 EA000000 		.4byte	0xea
 1432 0968 14       		.byte	0x14
 1433 0969 0A       		.uleb128 0xa
 1434 096a 72030000 		.4byte	.LASF137
 1435 096e 0D       		.byte	0xd
 1436 096f A501     		.2byte	0x1a5
 1437 0971 EA000000 		.4byte	0xea
 1438 0975 18       		.byte	0x18
 1439 0976 0A       		.uleb128 0xa
 1440 0977 78030000 		.4byte	.LASF138
 1441 097b 0D       		.byte	0xd
 1442 097c A601     		.2byte	0x1a6
 1443 097e EA000000 		.4byte	0xea
 1444 0982 1C       		.byte	0x1c
 1445 0983 0A       		.uleb128 0xa
 1446 0984 9B090000 		.4byte	.LASF139
 1447 0988 0D       		.byte	0xd
 1448 0989 A701     		.2byte	0x1a7
 1449 098b EA000000 		.4byte	0xea
 1450 098f 20       		.byte	0x20
 1451 0990 09       		.uleb128 0x9
 1452 0991 434E5400 		.ascii	"CNT\000"
 1453 0995 0D       		.byte	0xd
 1454 0996 A801     		.2byte	0x1a8
 1455 0998 EA000000 		.4byte	0xea
 1456 099c 24       		.byte	0x24
 1457 099d 09       		.uleb128 0x9
 1458 099e 50534300 		.ascii	"PSC\000"
 1459 09a2 0D       		.byte	0xd
 1460 09a3 A901     		.2byte	0x1a9
 1461 09a5 EA000000 		.4byte	0xea
 1462 09a9 28       		.byte	0x28
 1463 09aa 09       		.uleb128 0x9
 1464 09ab 41525200 		.ascii	"ARR\000"
 1465 09af 0D       		.byte	0xd
 1466 09b0 AA01     		.2byte	0x1aa
 1467 09b2 EA000000 		.4byte	0xea
 1468 09b6 2C       		.byte	0x2c
 1469 09b7 09       		.uleb128 0x9
 1470 09b8 52435200 		.ascii	"RCR\000"
 1471 09bc 0D       		.byte	0xd
 1472 09bd AB01     		.2byte	0x1ab
 1473 09bf EA000000 		.4byte	0xea
 1474 09c3 30       		.byte	0x30
 1475 09c4 09       		.uleb128 0x9
 1476 09c5 43435200 		.ascii	"CCR\000"
 1477 09c9 0D       		.byte	0xd
 1478 09ca AC01     		.2byte	0x1ac
 1479 09cc 9C050000 		.4byte	0x59c
 1480 09d0 34       		.byte	0x34
 1481 09d1 0A       		.uleb128 0xa
 1482 09d2 880B0000 		.4byte	.LASF140
ARM GAS  /var/folders/qd/4mxf5pkd0zdf0b9dd1hp39180000gn/T//cc0Vz3J6.s 			page 27


 1483 09d6 0D       		.byte	0xd
 1484 09d7 AD01     		.2byte	0x1ad
 1485 09d9 EA000000 		.4byte	0xea
 1486 09dd 44       		.byte	0x44
 1487 09de 09       		.uleb128 0x9
 1488 09df 44435200 		.ascii	"DCR\000"
 1489 09e3 0D       		.byte	0xd
 1490 09e4 AE01     		.2byte	0x1ae
 1491 09e6 EA000000 		.4byte	0xea
 1492 09ea 48       		.byte	0x48
 1493 09eb 0A       		.uleb128 0xa
 1494 09ec 14010000 		.4byte	.LASF141
 1495 09f0 0D       		.byte	0xd
 1496 09f1 AF01     		.2byte	0x1af
 1497 09f3 EA000000 		.4byte	0xea
 1498 09f7 4C       		.byte	0x4c
 1499 09f8 09       		.uleb128 0x9
 1500 09f9 4F5200   		.ascii	"OR\000"
 1501 09fc 0D       		.byte	0xd
 1502 09fd B001     		.2byte	0x1b0
 1503 09ff EA000000 		.4byte	0xea
 1504 0a03 50       		.byte	0x50
 1505 0a04 0A       		.uleb128 0xa
 1506 0a05 7E030000 		.4byte	.LASF142
 1507 0a09 0D       		.byte	0xd
 1508 0a0a B101     		.2byte	0x1b1
 1509 0a0c EA000000 		.4byte	0xea
 1510 0a10 54       		.byte	0x54
 1511 0a11 0A       		.uleb128 0xa
 1512 0a12 21040000 		.4byte	.LASF143
 1513 0a16 0D       		.byte	0xd
 1514 0a17 B201     		.2byte	0x1b2
 1515 0a19 87050000 		.4byte	0x587
 1516 0a1d 58       		.byte	0x58
 1517 0a1e 00       		.byte	0
 1518 0a1f 16       		.uleb128 0x16
 1519 0a20 8D050000 		.4byte	.LASF144
 1520 0a24 0D       		.byte	0xd
 1521 0a25 B301     		.2byte	0x1b3
 1522 0a27 13090000 		.4byte	0x913
 1523 0a2b 18       		.uleb128 0x18
 1524 0a2c 04       		.byte	0x4
 1525 0a2d 0E       		.byte	0xe
 1526 0a2e 38       		.byte	0x38
 1527 0a2f 400A0000 		.4byte	0xa40
 1528 0a33 08       		.uleb128 0x8
 1529 0a34 2F080000 		.4byte	.LASF145
 1530 0a38 0E       		.byte	0xe
 1531 0a39 3C       		.byte	0x3c
 1532 0a3a FA000000 		.4byte	0xfa
 1533 0a3e 00       		.byte	0
 1534 0a3f 00       		.byte	0
 1535 0a40 03       		.uleb128 0x3
 1536 0a41 630A0000 		.4byte	.LASF146
 1537 0a45 0E       		.byte	0xe
 1538 0a46 3D       		.byte	0x3d
 1539 0a47 2B0A0000 		.4byte	0xa2b
ARM GAS  /var/folders/qd/4mxf5pkd0zdf0b9dd1hp39180000gn/T//cc0Vz3J6.s 			page 28


 1540 0a4b 19       		.uleb128 0x19
 1541 0a4c 04       		.byte	0x4
 1542 0a4d 07       		.byte	0x7
 1543 0a4e FA       		.byte	0xfa
 1544 0a4f A80A0000 		.4byte	0xaa8
 1545 0a53 1A       		.uleb128 0x1a
 1546 0a54 D20B0000 		.4byte	.LASF147
 1547 0a58 07       		.byte	0x7
 1548 0a59 0101     		.2byte	0x101
 1549 0a5b 31010000 		.4byte	0x131
 1550 0a5f 1A       		.uleb128 0x1a
 1551 0a60 5B010000 		.4byte	.LASF148
 1552 0a64 07       		.byte	0x7
 1553 0a65 0801     		.2byte	0x108
 1554 0a67 31010000 		.4byte	0x131
 1555 0a6b 1A       		.uleb128 0x1a
 1556 0a6c C3030000 		.4byte	.LASF149
 1557 0a70 07       		.byte	0x7
 1558 0a71 0F01     		.2byte	0x10f
 1559 0a73 48030000 		.4byte	0x348
 1560 0a77 1A       		.uleb128 0x1a
 1561 0a78 BC020000 		.4byte	.LASF150
 1562 0a7c 07       		.byte	0x7
 1563 0a7d 1601     		.2byte	0x116
 1564 0a7f A80A0000 		.4byte	0xaa8
 1565 0a83 1A       		.uleb128 0x1a
 1566 0a84 1F000000 		.4byte	.LASF151
 1567 0a88 07       		.byte	0x7
 1568 0a89 1E01     		.2byte	0x11e
 1569 0a8b D30A0000 		.4byte	0xad3
 1570 0a8f 1A       		.uleb128 0x1a
 1571 0a90 54040000 		.4byte	.LASF152
 1572 0a94 07       		.byte	0x7
 1573 0a95 2701     		.2byte	0x127
 1574 0a97 0A0B0000 		.4byte	0xb0a
 1575 0a9b 1A       		.uleb128 0x1a
 1576 0a9c 8C020000 		.4byte	.LASF153
 1577 0aa0 07       		.byte	0x7
 1578 0aa1 2F01     		.2byte	0x12f
 1579 0aa3 3C010000 		.4byte	0x13c
 1580 0aa7 00       		.byte	0
 1581 0aa8 0B       		.uleb128 0xb
 1582 0aa9 04       		.byte	0x4
 1583 0aaa 60020000 		.4byte	0x260
 1584 0aae 07       		.uleb128 0x7
 1585 0aaf 1B050000 		.4byte	.LASF154
 1586 0ab3 0C       		.byte	0xc
 1587 0ab4 0F       		.byte	0xf
 1588 0ab5 34       		.byte	0x34
 1589 0ab6 D30A0000 		.4byte	0xad3
 1590 0aba 08       		.uleb128 0x8
 1591 0abb 890A0000 		.4byte	.LASF155
 1592 0abf 0F       		.byte	0xf
 1593 0ac0 35       		.byte	0x35
 1594 0ac1 95020000 		.4byte	0x295
 1595 0ac5 00       		.byte	0
 1596 0ac6 08       		.uleb128 0x8
ARM GAS  /var/folders/qd/4mxf5pkd0zdf0b9dd1hp39180000gn/T//cc0Vz3J6.s 			page 29


 1597 0ac7 22090000 		.4byte	.LASF156
 1598 0acb 0F       		.byte	0xf
 1599 0acc 37       		.byte	0x37
 1600 0acd 52010000 		.4byte	0x152
 1601 0ad1 08       		.byte	0x8
 1602 0ad2 00       		.byte	0
 1603 0ad3 0B       		.uleb128 0xb
 1604 0ad4 04       		.byte	0x4
 1605 0ad5 AE0A0000 		.4byte	0xaae
 1606 0ad9 07       		.uleb128 0x7
 1607 0ada D10A0000 		.4byte	.LASF157
 1608 0ade 10       		.byte	0x10
 1609 0adf 10       		.byte	0x10
 1610 0ae0 39       		.byte	0x39
 1611 0ae1 0A0B0000 		.4byte	0xb0a
 1612 0ae5 08       		.uleb128 0x8
 1613 0ae6 E1060000 		.4byte	.LASF158
 1614 0aea 10       		.byte	0x10
 1615 0aeb 3A       		.byte	0x3a
 1616 0aec 95020000 		.4byte	0x295
 1617 0af0 00       		.byte	0
 1618 0af1 08       		.uleb128 0x8
 1619 0af2 45010000 		.4byte	.LASF159
 1620 0af6 10       		.byte	0x10
 1621 0af7 3C       		.byte	0x3c
 1622 0af8 6B020000 		.4byte	0x26b
 1623 0afc 08       		.byte	0x8
 1624 0afd 08       		.uleb128 0x8
 1625 0afe 590C0000 		.4byte	.LASF160
 1626 0b02 10       		.byte	0x10
 1627 0b03 3E       		.byte	0x3e
 1628 0b04 5F0C0000 		.4byte	0xc5f
 1629 0b08 0C       		.byte	0xc
 1630 0b09 00       		.byte	0
 1631 0b0a 0B       		.uleb128 0xb
 1632 0b0b 04       		.byte	0x4
 1633 0b0c D90A0000 		.4byte	0xad9
 1634 0b10 0B       		.uleb128 0xb
 1635 0b11 04       		.byte	0x4
 1636 0b12 220B0000 		.4byte	0xb22
 1637 0b16 06       		.uleb128 0x6
 1638 0b17 100B0000 		.4byte	0xb10
 1639 0b1b 04       		.uleb128 0x4
 1640 0b1c 01       		.byte	0x1
 1641 0b1d 08       		.byte	0x8
 1642 0b1e 84030000 		.4byte	.LASF161
 1643 0b22 05       		.uleb128 0x5
 1644 0b23 1B0B0000 		.4byte	0xb1b
 1645 0b27 0B       		.uleb128 0xb
 1646 0b28 04       		.byte	0x4
 1647 0b29 4A030000 		.4byte	0x34a
 1648 0b2d 11       		.uleb128 0x11
 1649 0b2e 6E080000 		.4byte	0x86e
 1650 0b32 3D0B0000 		.4byte	0xb3d
 1651 0b36 12       		.uleb128 0x12
 1652 0b37 37000000 		.4byte	0x37
 1653 0b3b 1A       		.byte	0x1a
ARM GAS  /var/folders/qd/4mxf5pkd0zdf0b9dd1hp39180000gn/T//cc0Vz3J6.s 			page 30


 1654 0b3c 00       		.byte	0
 1655 0b3d 1B       		.uleb128 0x1b
 1656 0b3e 636800   		.ascii	"ch\000"
 1657 0b41 07       		.byte	0x7
 1658 0b42 0902     		.2byte	0x209
 1659 0b44 17040000 		.4byte	0x417
 1660 0b48 18       		.uleb128 0x18
 1661 0b49 16       		.byte	0x16
 1662 0b4a 11       		.byte	0x11
 1663 0b4b 34       		.byte	0x34
 1664 0b4c 290C0000 		.4byte	0xc29
 1665 0b50 08       		.uleb128 0x8
 1666 0b51 47000000 		.4byte	.LASF162
 1667 0b55 11       		.byte	0x11
 1668 0b56 35       		.byte	0x35
 1669 0b57 290C0000 		.4byte	0xc29
 1670 0b5b 00       		.byte	0
 1671 0b5c 08       		.uleb128 0x8
 1672 0b5d BB090000 		.4byte	.LASF163
 1673 0b61 11       		.byte	0x11
 1674 0b62 36       		.byte	0x36
 1675 0b63 B4000000 		.4byte	0xb4
 1676 0b67 04       		.byte	0x4
 1677 0b68 08       		.uleb128 0x8
 1678 0b69 190C0000 		.4byte	.LASF164
 1679 0b6d 11       		.byte	0x11
 1680 0b6e 37       		.byte	0x37
 1681 0b6f B4000000 		.4byte	0xb4
 1682 0b73 05       		.byte	0x5
 1683 0b74 08       		.uleb128 0x8
 1684 0b75 D6060000 		.4byte	.LASF165
 1685 0b79 11       		.byte	0x11
 1686 0b7a 38       		.byte	0x38
 1687 0b7b C4000000 		.4byte	0xc4
 1688 0b7f 06       		.byte	0x6
 1689 0b80 08       		.uleb128 0x8
 1690 0b81 09010000 		.4byte	.LASF166
 1691 0b85 11       		.byte	0x11
 1692 0b86 39       		.byte	0x39
 1693 0b87 B4000000 		.4byte	0xb4
 1694 0b8b 08       		.byte	0x8
 1695 0b8c 08       		.uleb128 0x8
 1696 0b8d F7070000 		.4byte	.LASF167
 1697 0b91 11       		.byte	0x11
 1698 0b92 3A       		.byte	0x3a
 1699 0b93 B4000000 		.4byte	0xb4
 1700 0b97 09       		.byte	0x9
 1701 0b98 08       		.uleb128 0x8
 1702 0b99 86010000 		.4byte	.LASF168
 1703 0b9d 11       		.byte	0x11
 1704 0b9e 3B       		.byte	0x3b
 1705 0b9f B4000000 		.4byte	0xb4
 1706 0ba3 0A       		.byte	0xa
 1707 0ba4 08       		.uleb128 0x8
 1708 0ba5 F5030000 		.4byte	.LASF169
 1709 0ba9 11       		.byte	0x11
 1710 0baa 3C       		.byte	0x3c
ARM GAS  /var/folders/qd/4mxf5pkd0zdf0b9dd1hp39180000gn/T//cc0Vz3J6.s 			page 31


 1711 0bab B4000000 		.4byte	0xb4
 1712 0baf 0B       		.byte	0xb
 1713 0bb0 08       		.uleb128 0x8
 1714 0bb1 8C000000 		.4byte	.LASF170
 1715 0bb5 11       		.byte	0x11
 1716 0bb6 3D       		.byte	0x3d
 1717 0bb7 B4000000 		.4byte	0xb4
 1718 0bbb 0C       		.byte	0xc
 1719 0bbc 08       		.uleb128 0x8
 1720 0bbd CA030000 		.4byte	.LASF171
 1721 0bc1 11       		.byte	0x11
 1722 0bc2 3E       		.byte	0x3e
 1723 0bc3 B4000000 		.4byte	0xb4
 1724 0bc7 0D       		.byte	0xd
 1725 0bc8 08       		.uleb128 0x8
 1726 0bc9 F80A0000 		.4byte	.LASF172
 1727 0bcd 11       		.byte	0x11
 1728 0bce 3F       		.byte	0x3f
 1729 0bcf B4000000 		.4byte	0xb4
 1730 0bd3 0E       		.byte	0xe
 1731 0bd4 08       		.uleb128 0x8
 1732 0bd5 26000000 		.4byte	.LASF173
 1733 0bd9 11       		.byte	0x11
 1734 0bda 40       		.byte	0x40
 1735 0bdb B4000000 		.4byte	0xb4
 1736 0bdf 0F       		.byte	0xf
 1737 0be0 08       		.uleb128 0x8
 1738 0be1 400B0000 		.4byte	.LASF174
 1739 0be5 11       		.byte	0x11
 1740 0be6 41       		.byte	0x41
 1741 0be7 B4000000 		.4byte	0xb4
 1742 0beb 10       		.byte	0x10
 1743 0bec 08       		.uleb128 0x8
 1744 0bed E6010000 		.4byte	.LASF175
 1745 0bf1 11       		.byte	0x11
 1746 0bf2 43       		.byte	0x43
 1747 0bf3 B4000000 		.4byte	0xb4
 1748 0bf7 11       		.byte	0x11
 1749 0bf8 08       		.uleb128 0x8
 1750 0bf9 8E090000 		.4byte	.LASF176
 1751 0bfd 11       		.byte	0x11
 1752 0bfe 44       		.byte	0x44
 1753 0bff B4000000 		.4byte	0xb4
 1754 0c03 12       		.byte	0x12
 1755 0c04 08       		.uleb128 0x8
 1756 0c05 67080000 		.4byte	.LASF177
 1757 0c09 11       		.byte	0x11
 1758 0c0a 45       		.byte	0x45
 1759 0c0b B4000000 		.4byte	0xb4
 1760 0c0f 13       		.byte	0x13
 1761 0c10 08       		.uleb128 0x8
 1762 0c11 9E060000 		.4byte	.LASF178
 1763 0c15 11       		.byte	0x11
 1764 0c16 46       		.byte	0x46
 1765 0c17 B4000000 		.4byte	0xb4
 1766 0c1b 14       		.byte	0x14
 1767 0c1c 08       		.uleb128 0x8
ARM GAS  /var/folders/qd/4mxf5pkd0zdf0b9dd1hp39180000gn/T//cc0Vz3J6.s 			page 32


 1768 0c1d E2080000 		.4byte	.LASF179
 1769 0c21 11       		.byte	0x11
 1770 0c22 48       		.byte	0x48
 1771 0c23 B4000000 		.4byte	0xb4
 1772 0c27 15       		.byte	0x15
 1773 0c28 00       		.byte	0
 1774 0c29 11       		.uleb128 0x11
 1775 0c2a 1B0B0000 		.4byte	0xb1b
 1776 0c2e 390C0000 		.4byte	0xc39
 1777 0c32 12       		.uleb128 0x12
 1778 0c33 37000000 		.4byte	0x37
 1779 0c37 03       		.byte	0x3
 1780 0c38 00       		.byte	0
 1781 0c39 03       		.uleb128 0x3
 1782 0c3a 040C0000 		.4byte	.LASF180
 1783 0c3e 11       		.byte	0x11
 1784 0c3f 49       		.byte	0x49
 1785 0c40 480B0000 		.4byte	0xb48
 1786 0c44 05       		.uleb128 0x5
 1787 0c45 390C0000 		.4byte	0xc39
 1788 0c49 14       		.uleb128 0x14
 1789 0c4a 63000000 		.4byte	.LASF181
 1790 0c4e 11       		.byte	0x11
 1791 0c4f 6E       		.byte	0x6e
 1792 0c50 440C0000 		.4byte	0xc44
 1793 0c54 03       		.uleb128 0x3
 1794 0c55 300B0000 		.4byte	.LASF182
 1795 0c59 10       		.byte	0x10
 1796 0c5a 34       		.byte	0x34
 1797 0c5b D90A0000 		.4byte	0xad9
 1798 0c5f 0B       		.uleb128 0xb
 1799 0c60 04       		.byte	0x4
 1800 0c61 540C0000 		.4byte	0xc54
 1801 0c65 03       		.uleb128 0x3
 1802 0c66 10040000 		.4byte	.LASF183
 1803 0c6a 12       		.byte	0x12
 1804 0c6b 34       		.byte	0x34
 1805 0c6c 700C0000 		.4byte	0xc70
 1806 0c70 07       		.uleb128 0x7
 1807 0c71 C30B0000 		.4byte	.LASF184
 1808 0c75 14       		.byte	0x14
 1809 0c76 12       		.byte	0x12
 1810 0c77 39       		.byte	0x39
 1811 0c78 B90C0000 		.4byte	0xcb9
 1812 0c7c 08       		.uleb128 0x8
 1813 0c7d 5B050000 		.4byte	.LASF185
 1814 0c81 12       		.byte	0x12
 1815 0c82 3A       		.byte	0x3a
 1816 0c83 B90C0000 		.4byte	0xcb9
 1817 0c87 00       		.byte	0
 1818 0c88 08       		.uleb128 0x8
 1819 0c89 050D0000 		.4byte	.LASF186
 1820 0c8d 12       		.byte	0x12
 1821 0c8e 3D       		.byte	0x3d
 1822 0c8f 6B020000 		.4byte	0x26b
 1823 0c93 04       		.byte	0x4
 1824 0c94 08       		.uleb128 0x8
ARM GAS  /var/folders/qd/4mxf5pkd0zdf0b9dd1hp39180000gn/T//cc0Vz3J6.s 			page 33


 1825 0c95 1B080000 		.4byte	.LASF187
 1826 0c99 12       		.byte	0x12
 1827 0c9a 3F       		.byte	0x3f
 1828 0c9b 3C010000 		.4byte	0x13c
 1829 0c9f 08       		.byte	0x8
 1830 0ca0 08       		.uleb128 0x8
 1831 0ca1 D0000000 		.4byte	.LASF188
 1832 0ca5 12       		.byte	0x12
 1833 0ca6 41       		.byte	0x41
 1834 0ca7 47010000 		.4byte	0x147
 1835 0cab 0C       		.byte	0xc
 1836 0cac 08       		.uleb128 0x8
 1837 0cad 03080000 		.4byte	.LASF189
 1838 0cb1 12       		.byte	0x12
 1839 0cb2 43       		.byte	0x43
 1840 0cb3 47010000 		.4byte	0x147
 1841 0cb7 10       		.byte	0x10
 1842 0cb8 00       		.byte	0
 1843 0cb9 0B       		.uleb128 0xb
 1844 0cba 04       		.byte	0x4
 1845 0cbb 650C0000 		.4byte	0xc65
 1846 0cbf 07       		.uleb128 0x7
 1847 0cc0 B60A0000 		.4byte	.LASF190
 1848 0cc4 04       		.byte	0x4
 1849 0cc5 12       		.byte	0x12
 1850 0cc6 4A       		.byte	0x4a
 1851 0cc7 D80C0000 		.4byte	0xcd8
 1852 0ccb 08       		.uleb128 0x8
 1853 0ccc B3040000 		.4byte	.LASF191
 1854 0cd0 12       		.byte	0x12
 1855 0cd1 4B       		.byte	0x4b
 1856 0cd2 B90C0000 		.4byte	0xcb9
 1857 0cd6 00       		.byte	0
 1858 0cd7 00       		.byte	0
 1859 0cd8 03       		.uleb128 0x3
 1860 0cd9 15070000 		.4byte	.LASF192
 1861 0cdd 12       		.byte	0x12
 1862 0cde 4E       		.byte	0x4e
 1863 0cdf BF0C0000 		.4byte	0xcbf
 1864 0ce3 03       		.uleb128 0x3
 1865 0ce4 050B0000 		.4byte	.LASF193
 1866 0ce8 13       		.byte	0x13
 1867 0ce9 3F       		.byte	0x3f
 1868 0cea EE0C0000 		.4byte	0xcee
 1869 0cee 07       		.uleb128 0x7
 1870 0cef 4D020000 		.4byte	.LASF194
 1871 0cf3 24       		.byte	0x24
 1872 0cf4 13       		.byte	0x13
 1873 0cf5 4D       		.byte	0x4d
 1874 0cf6 5B0D0000 		.4byte	0xd5b
 1875 0cfa 08       		.uleb128 0x8
 1876 0cfb 070A0000 		.4byte	.LASF195
 1877 0cff 13       		.byte	0x13
 1878 0d00 4E       		.byte	0x4e
 1879 0d01 95020000 		.4byte	0x295
 1880 0d05 00       		.byte	0
 1881 0d06 08       		.uleb128 0x8
ARM GAS  /var/folders/qd/4mxf5pkd0zdf0b9dd1hp39180000gn/T//cc0Vz3J6.s 			page 34


 1882 0d07 BB040000 		.4byte	.LASF196
 1883 0d0b 13       		.byte	0x13
 1884 0d0c 4F       		.byte	0x4f
 1885 0d0d 2C000000 		.4byte	0x2c
 1886 0d11 08       		.byte	0x8
 1887 0d12 08       		.uleb128 0x8
 1888 0d13 A0010000 		.4byte	.LASF197
 1889 0d17 13       		.byte	0x13
 1890 0d18 50       		.byte	0x50
 1891 0d19 7D0D0000 		.4byte	0xd7d
 1892 0d1d 0C       		.byte	0xc
 1893 0d1e 08       		.uleb128 0x8
 1894 0d1f 76010000 		.4byte	.LASF198
 1895 0d23 13       		.byte	0x13
 1896 0d24 51       		.byte	0x51
 1897 0d25 7D0D0000 		.4byte	0xd7d
 1898 0d29 10       		.byte	0x10
 1899 0d2a 08       		.uleb128 0x8
 1900 0d2b 80050000 		.4byte	.LASF199
 1901 0d2f 13       		.byte	0x13
 1902 0d30 53       		.byte	0x53
 1903 0d31 7D0D0000 		.4byte	0xd7d
 1904 0d35 14       		.byte	0x14
 1905 0d36 08       		.uleb128 0x8
 1906 0d37 DE010000 		.4byte	.LASF200
 1907 0d3b 13       		.byte	0x13
 1908 0d3c 54       		.byte	0x54
 1909 0d3d 7D0D0000 		.4byte	0xd7d
 1910 0d41 18       		.byte	0x18
 1911 0d42 08       		.uleb128 0x8
 1912 0d43 A9010000 		.4byte	.LASF201
 1913 0d47 13       		.byte	0x13
 1914 0d48 55       		.byte	0x55
 1915 0d49 5B0D0000 		.4byte	0xd5b
 1916 0d4d 1C       		.byte	0x1c
 1917 0d4e 08       		.uleb128 0x8
 1918 0d4f 79020000 		.4byte	.LASF202
 1919 0d53 13       		.byte	0x13
 1920 0d54 56       		.byte	0x56
 1921 0d55 48030000 		.4byte	0x348
 1922 0d59 20       		.byte	0x20
 1923 0d5a 00       		.byte	0
 1924 0d5b 03       		.uleb128 0x3
 1925 0d5c 73070000 		.4byte	.LASF203
 1926 0d60 13       		.byte	0x13
 1927 0d61 42       		.byte	0x42
 1928 0d62 660D0000 		.4byte	0xd66
 1929 0d66 0B       		.uleb128 0xb
 1930 0d67 04       		.byte	0x4
 1931 0d68 6C0D0000 		.4byte	0xd6c
 1932 0d6c 0D       		.uleb128 0xd
 1933 0d6d 770D0000 		.4byte	0xd77
 1934 0d71 0E       		.uleb128 0xe
 1935 0d72 770D0000 		.4byte	0xd77
 1936 0d76 00       		.byte	0
 1937 0d77 0B       		.uleb128 0xb
 1938 0d78 04       		.byte	0x4
ARM GAS  /var/folders/qd/4mxf5pkd0zdf0b9dd1hp39180000gn/T//cc0Vz3J6.s 			page 35


 1939 0d79 E30C0000 		.4byte	0xce3
 1940 0d7d 0B       		.uleb128 0xb
 1941 0d7e 04       		.byte	0x4
 1942 0d7f B4000000 		.4byte	0xb4
 1943 0d83 03       		.uleb128 0x3
 1944 0d84 A20B0000 		.4byte	.LASF204
 1945 0d88 13       		.byte	0x13
 1946 0d89 64       		.byte	0x64
 1947 0d8a E30C0000 		.4byte	0xce3
 1948 0d8e 03       		.uleb128 0x3
 1949 0d8f 210C0000 		.4byte	.LASF205
 1950 0d93 13       		.byte	0x13
 1951 0d94 71       		.byte	0x71
 1952 0d95 E30C0000 		.4byte	0xce3
 1953 0d99 1C       		.uleb128 0x1c
 1954 0d9a 2C000000 		.4byte	0x2c
 1955 0d9e B20D0000 		.4byte	0xdb2
 1956 0da2 0E       		.uleb128 0xe
 1957 0da3 48030000 		.4byte	0x348
 1958 0da7 0E       		.uleb128 0xe
 1959 0da8 B20D0000 		.4byte	0xdb2
 1960 0dac 0E       		.uleb128 0xe
 1961 0dad 2C000000 		.4byte	0x2c
 1962 0db1 00       		.byte	0
 1963 0db2 0B       		.uleb128 0xb
 1964 0db3 04       		.byte	0x4
 1965 0db4 BF000000 		.4byte	0xbf
 1966 0db8 0B       		.uleb128 0xb
 1967 0db9 04       		.byte	0x4
 1968 0dba 990D0000 		.4byte	0xd99
 1969 0dbe 1C       		.uleb128 0x1c
 1970 0dbf 2C000000 		.4byte	0x2c
 1971 0dc3 D70D0000 		.4byte	0xdd7
 1972 0dc7 0E       		.uleb128 0xe
 1973 0dc8 48030000 		.4byte	0x348
 1974 0dcc 0E       		.uleb128 0xe
 1975 0dcd 7D0D0000 		.4byte	0xd7d
 1976 0dd1 0E       		.uleb128 0xe
 1977 0dd2 2C000000 		.4byte	0x2c
 1978 0dd6 00       		.byte	0
 1979 0dd7 0B       		.uleb128 0xb
 1980 0dd8 04       		.byte	0x4
 1981 0dd9 BE0D0000 		.4byte	0xdbe
 1982 0ddd 1C       		.uleb128 0x1c
 1983 0dde 31010000 		.4byte	0x131
 1984 0de2 F10D0000 		.4byte	0xdf1
 1985 0de6 0E       		.uleb128 0xe
 1986 0de7 48030000 		.4byte	0x348
 1987 0deb 0E       		.uleb128 0xe
 1988 0dec B4000000 		.4byte	0xb4
 1989 0df0 00       		.byte	0
 1990 0df1 0B       		.uleb128 0xb
 1991 0df2 04       		.byte	0x4
 1992 0df3 DD0D0000 		.4byte	0xddd
 1993 0df7 1C       		.uleb128 0x1c
 1994 0df8 31010000 		.4byte	0x131
 1995 0dfc 060E0000 		.4byte	0xe06
ARM GAS  /var/folders/qd/4mxf5pkd0zdf0b9dd1hp39180000gn/T//cc0Vz3J6.s 			page 36


 1996 0e00 0E       		.uleb128 0xe
 1997 0e01 48030000 		.4byte	0x348
 1998 0e05 00       		.byte	0
 1999 0e06 0B       		.uleb128 0xb
 2000 0e07 04       		.byte	0x4
 2001 0e08 F70D0000 		.4byte	0xdf7
 2002 0e0c 18       		.uleb128 0x18
 2003 0e0d 0C       		.byte	0xc
 2004 0e0e 14       		.byte	0x14
 2005 0e0f DA       		.byte	0xda
 2006 0e10 510E0000 		.4byte	0xe51
 2007 0e14 08       		.uleb128 0x8
 2008 0e15 01040000 		.4byte	.LASF206
 2009 0e19 14       		.byte	0x14
 2010 0e1a DB       		.byte	0xdb
 2011 0e1b 510E0000 		.4byte	0xe51
 2012 0e1f 00       		.byte	0
 2013 0e20 08       		.uleb128 0x8
 2014 0e21 470C0000 		.4byte	.LASF207
 2015 0e25 14       		.byte	0x14
 2016 0e26 DC       		.byte	0xdc
 2017 0e27 570E0000 		.4byte	0xe57
 2018 0e2b 04       		.byte	0x4
 2019 0e2c 08       		.uleb128 0x8
 2020 0e2d 8F030000 		.4byte	.LASF208
 2021 0e31 14       		.byte	0x14
 2022 0e32 DD       		.byte	0xdd
 2023 0e33 B4000000 		.4byte	0xb4
 2024 0e37 08       		.byte	0x8
 2025 0e38 08       		.uleb128 0x8
 2026 0e39 28090000 		.4byte	.LASF209
 2027 0e3d 14       		.byte	0x14
 2028 0e3e DF       		.byte	0xdf
 2029 0e3f B4000000 		.4byte	0xb4
 2030 0e43 09       		.byte	0x9
 2031 0e44 08       		.uleb128 0x8
 2032 0e45 B4090000 		.4byte	.LASF210
 2033 0e49 14       		.byte	0x14
 2034 0e4a E0       		.byte	0xe0
 2035 0e4b B4000000 		.4byte	0xb4
 2036 0e4f 0A       		.byte	0xa
 2037 0e50 00       		.byte	0
 2038 0e51 0B       		.uleb128 0xb
 2039 0e52 04       		.byte	0x4
 2040 0e53 FC040000 		.4byte	0x4fc
 2041 0e57 0B       		.uleb128 0xb
 2042 0e58 04       		.byte	0x4
 2043 0e59 EA000000 		.4byte	0xea
 2044 0e5d 03       		.uleb128 0x3
 2045 0e5e 05000000 		.4byte	.LASF211
 2046 0e62 14       		.byte	0x14
 2047 0e63 E1       		.byte	0xe1
 2048 0e64 0C0E0000 		.4byte	0xe0c
 2049 0e68 05       		.uleb128 0x5
 2050 0e69 5D0E0000 		.4byte	0xe5d
 2051 0e6d 11       		.uleb128 0x11
 2052 0e6e 680E0000 		.4byte	0xe68
ARM GAS  /var/folders/qd/4mxf5pkd0zdf0b9dd1hp39180000gn/T//cc0Vz3J6.s 			page 37


 2053 0e72 7D0E0000 		.4byte	0xe7d
 2054 0e76 12       		.uleb128 0x12
 2055 0e77 37000000 		.4byte	0x37
 2056 0e7b 0F       		.byte	0xf
 2057 0e7c 00       		.byte	0
 2058 0e7d 05       		.uleb128 0x5
 2059 0e7e 6D0E0000 		.4byte	0xe6d
 2060 0e82 13       		.uleb128 0x13
 2061 0e83 48050000 		.4byte	.LASF212
 2062 0e87 14       		.byte	0x14
 2063 0e88 BB01     		.2byte	0x1bb
 2064 0e8a 7D0E0000 		.4byte	0xe7d
 2065 0e8e 1C       		.uleb128 0x1c
 2066 0e8f 31010000 		.4byte	0x131
 2067 0e93 A70E0000 		.4byte	0xea7
 2068 0e97 0E       		.uleb128 0xe
 2069 0e98 48030000 		.4byte	0x348
 2070 0e9c 0E       		.uleb128 0xe
 2071 0e9d B4000000 		.4byte	0xb4
 2072 0ea1 0E       		.uleb128 0xe
 2073 0ea2 5D010000 		.4byte	0x15d
 2074 0ea6 00       		.byte	0
 2075 0ea7 0B       		.uleb128 0xb
 2076 0ea8 04       		.byte	0x4
 2077 0ea9 8E0E0000 		.4byte	0xe8e
 2078 0ead 1C       		.uleb128 0x1c
 2079 0eae 31010000 		.4byte	0x131
 2080 0eb2 C10E0000 		.4byte	0xec1
 2081 0eb6 0E       		.uleb128 0xe
 2082 0eb7 48030000 		.4byte	0x348
 2083 0ebb 0E       		.uleb128 0xe
 2084 0ebc 5D010000 		.4byte	0x15d
 2085 0ec0 00       		.byte	0
 2086 0ec1 0B       		.uleb128 0xb
 2087 0ec2 04       		.byte	0x4
 2088 0ec3 AD0E0000 		.4byte	0xead
 2089 0ec7 1C       		.uleb128 0x1c
 2090 0ec8 2C000000 		.4byte	0x2c
 2091 0ecc E50E0000 		.4byte	0xee5
 2092 0ed0 0E       		.uleb128 0xe
 2093 0ed1 48030000 		.4byte	0x348
 2094 0ed5 0E       		.uleb128 0xe
 2095 0ed6 B20D0000 		.4byte	0xdb2
 2096 0eda 0E       		.uleb128 0xe
 2097 0edb 2C000000 		.4byte	0x2c
 2098 0edf 0E       		.uleb128 0xe
 2099 0ee0 5D010000 		.4byte	0x15d
 2100 0ee4 00       		.byte	0
 2101 0ee5 0B       		.uleb128 0xb
 2102 0ee6 04       		.byte	0x4
 2103 0ee7 C70E0000 		.4byte	0xec7
 2104 0eeb 1C       		.uleb128 0x1c
 2105 0eec 2C000000 		.4byte	0x2c
 2106 0ef0 090F0000 		.4byte	0xf09
 2107 0ef4 0E       		.uleb128 0xe
 2108 0ef5 48030000 		.4byte	0x348
 2109 0ef9 0E       		.uleb128 0xe
ARM GAS  /var/folders/qd/4mxf5pkd0zdf0b9dd1hp39180000gn/T//cc0Vz3J6.s 			page 38


 2110 0efa 7D0D0000 		.4byte	0xd7d
 2111 0efe 0E       		.uleb128 0xe
 2112 0eff 2C000000 		.4byte	0x2c
 2113 0f03 0E       		.uleb128 0xe
 2114 0f04 5D010000 		.4byte	0x15d
 2115 0f08 00       		.byte	0
 2116 0f09 0B       		.uleb128 0xb
 2117 0f0a 04       		.byte	0x4
 2118 0f0b EB0E0000 		.4byte	0xeeb
 2119 0f0f 04       		.uleb128 0x4
 2120 0f10 01       		.byte	0x1
 2121 0f11 02       		.byte	0x2
 2122 0f12 62030000 		.4byte	.LASF213
 2123 0f16 18       		.uleb128 0x18
 2124 0f17 04       		.byte	0x4
 2125 0f18 15       		.byte	0x15
 2126 0f19 B3       		.byte	0xb3
 2127 0f1a 370F0000 		.4byte	0xf37
 2128 0f1e 17       		.uleb128 0x17
 2129 0f1f 73657400 		.ascii	"set\000"
 2130 0f23 15       		.byte	0x15
 2131 0f24 B4       		.byte	0xb4
 2132 0f25 C4000000 		.4byte	0xc4
 2133 0f29 00       		.byte	0
 2134 0f2a 08       		.uleb128 0x8
 2135 0f2b 99040000 		.4byte	.LASF214
 2136 0f2f 15       		.byte	0x15
 2137 0f30 B5       		.byte	0xb5
 2138 0f31 C4000000 		.4byte	0xc4
 2139 0f35 02       		.byte	0x2
 2140 0f36 00       		.byte	0
 2141 0f37 19       		.uleb128 0x19
 2142 0f38 04       		.byte	0x4
 2143 0f39 15       		.byte	0x15
 2144 0f3a B1       		.byte	0xb1
 2145 0f3b 520F0000 		.4byte	0xf52
 2146 0f3f 1D       		.uleb128 0x1d
 2147 0f40 5700     		.ascii	"W\000"
 2148 0f42 15       		.byte	0x15
 2149 0f43 B2       		.byte	0xb2
 2150 0f44 DF000000 		.4byte	0xdf
 2151 0f48 1D       		.uleb128 0x1d
 2152 0f49 4800     		.ascii	"H\000"
 2153 0f4b 15       		.byte	0x15
 2154 0f4c B6       		.byte	0xb6
 2155 0f4d 160F0000 		.4byte	0xf16
 2156 0f51 00       		.byte	0
 2157 0f52 06       		.uleb128 0x6
 2158 0f53 370F0000 		.4byte	0xf37
 2159 0f57 18       		.uleb128 0x18
 2160 0f58 2C       		.byte	0x2c
 2161 0f59 15       		.byte	0x15
 2162 0f5a A9       		.byte	0xa9
 2163 0f5b E40F0000 		.4byte	0xfe4
 2164 0f5f 08       		.uleb128 0x8
 2165 0f60 93070000 		.4byte	.LASF215
 2166 0f64 15       		.byte	0x15
ARM GAS  /var/folders/qd/4mxf5pkd0zdf0b9dd1hp39180000gn/T//cc0Vz3J6.s 			page 39


 2167 0f65 AB       		.byte	0xab
 2168 0f66 EA000000 		.4byte	0xea
 2169 0f6a 00       		.byte	0
 2170 0f6b 08       		.uleb128 0x8
 2171 0f6c F9090000 		.4byte	.LASF216
 2172 0f70 15       		.byte	0x15
 2173 0f71 AC       		.byte	0xac
 2174 0f72 EA000000 		.4byte	0xea
 2175 0f76 04       		.byte	0x4
 2176 0f77 08       		.uleb128 0x8
 2177 0f78 BC050000 		.4byte	.LASF217
 2178 0f7c 15       		.byte	0x15
 2179 0f7d AD       		.byte	0xad
 2180 0f7e EA000000 		.4byte	0xea
 2181 0f82 08       		.byte	0x8
 2182 0f83 08       		.uleb128 0x8
 2183 0f84 94010000 		.4byte	.LASF218
 2184 0f88 15       		.byte	0x15
 2185 0f89 AE       		.byte	0xae
 2186 0f8a EA000000 		.4byte	0xea
 2187 0f8e 0C       		.byte	0xc
 2188 0f8f 17       		.uleb128 0x17
 2189 0f90 49445200 		.ascii	"IDR\000"
 2190 0f94 15       		.byte	0x15
 2191 0f95 AF       		.byte	0xaf
 2192 0f96 EA000000 		.4byte	0xea
 2193 0f9a 10       		.byte	0x10
 2194 0f9b 17       		.uleb128 0x17
 2195 0f9c 4F445200 		.ascii	"ODR\000"
 2196 0fa0 15       		.byte	0x15
 2197 0fa1 B0       		.byte	0xb0
 2198 0fa2 EA000000 		.4byte	0xea
 2199 0fa6 14       		.byte	0x14
 2200 0fa7 08       		.uleb128 0x8
 2201 0fa8 100B0000 		.4byte	.LASF219
 2202 0fac 15       		.byte	0x15
 2203 0fad B7       		.byte	0xb7
 2204 0fae 520F0000 		.4byte	0xf52
 2205 0fb2 18       		.byte	0x18
 2206 0fb3 08       		.uleb128 0x8
 2207 0fb4 88050000 		.4byte	.LASF220
 2208 0fb8 15       		.byte	0x15
 2209 0fb9 B8       		.byte	0xb8
 2210 0fba EA000000 		.4byte	0xea
 2211 0fbe 1C       		.byte	0x1c
 2212 0fbf 08       		.uleb128 0x8
 2213 0fc0 AF090000 		.4byte	.LASF221
 2214 0fc4 15       		.byte	0x15
 2215 0fc5 B9       		.byte	0xb9
 2216 0fc6 EA000000 		.4byte	0xea
 2217 0fca 20       		.byte	0x20
 2218 0fcb 08       		.uleb128 0x8
 2219 0fcc AA090000 		.4byte	.LASF222
 2220 0fd0 15       		.byte	0x15
 2221 0fd1 BA       		.byte	0xba
 2222 0fd2 EA000000 		.4byte	0xea
 2223 0fd6 24       		.byte	0x24
ARM GAS  /var/folders/qd/4mxf5pkd0zdf0b9dd1hp39180000gn/T//cc0Vz3J6.s 			page 40


 2224 0fd7 17       		.uleb128 0x17
 2225 0fd8 42525200 		.ascii	"BRR\000"
 2226 0fdc 15       		.byte	0x15
 2227 0fdd BB       		.byte	0xbb
 2228 0fde EA000000 		.4byte	0xea
 2229 0fe2 28       		.byte	0x28
 2230 0fe3 00       		.byte	0
 2231 0fe4 03       		.uleb128 0x3
 2232 0fe5 15030000 		.4byte	.LASF223
 2233 0fe9 15       		.byte	0x15
 2234 0fea BC       		.byte	0xbc
 2235 0feb 570F0000 		.4byte	0xf57
 2236 0fef 18       		.uleb128 0x18
 2237 0ff0 1C       		.byte	0x1c
 2238 0ff1 15       		.byte	0x15
 2239 0ff2 C1       		.byte	0xc1
 2240 0ff3 4C100000 		.4byte	0x104c
 2241 0ff7 08       		.uleb128 0x8
 2242 0ff8 89030000 		.4byte	.LASF224
 2243 0ffc 15       		.byte	0x15
 2244 0ffd C3       		.byte	0xc3
 2245 0ffe DF000000 		.4byte	0xdf
 2246 1002 00       		.byte	0
 2247 1003 08       		.uleb128 0x8
 2248 1004 04050000 		.4byte	.LASF225
 2249 1008 15       		.byte	0x15
 2250 1009 C5       		.byte	0xc5
 2251 100a DF000000 		.4byte	0xdf
 2252 100e 04       		.byte	0x4
 2253 100f 08       		.uleb128 0x8
 2254 1010 A4040000 		.4byte	.LASF226
 2255 1014 15       		.byte	0x15
 2256 1015 C7       		.byte	0xc7
 2257 1016 DF000000 		.4byte	0xdf
 2258 101a 08       		.byte	0x8
 2259 101b 08       		.uleb128 0x8
 2260 101c B6050000 		.4byte	.LASF227
 2261 1020 15       		.byte	0x15
 2262 1021 C9       		.byte	0xc9
 2263 1022 DF000000 		.4byte	0xdf
 2264 1026 0C       		.byte	0xc
 2265 1027 17       		.uleb128 0x17
 2266 1028 6F647200 		.ascii	"odr\000"
 2267 102c 15       		.byte	0x15
 2268 102d CB       		.byte	0xcb
 2269 102e DF000000 		.4byte	0xdf
 2270 1032 10       		.byte	0x10
 2271 1033 08       		.uleb128 0x8
 2272 1034 73080000 		.4byte	.LASF228
 2273 1038 15       		.byte	0x15
 2274 1039 CD       		.byte	0xcd
 2275 103a DF000000 		.4byte	0xdf
 2276 103e 14       		.byte	0x14
 2277 103f 08       		.uleb128 0x8
 2278 1040 D5040000 		.4byte	.LASF229
 2279 1044 15       		.byte	0x15
 2280 1045 CF       		.byte	0xcf
ARM GAS  /var/folders/qd/4mxf5pkd0zdf0b9dd1hp39180000gn/T//cc0Vz3J6.s 			page 41


 2281 1046 DF000000 		.4byte	0xdf
 2282 104a 18       		.byte	0x18
 2283 104b 00       		.byte	0
 2284 104c 03       		.uleb128 0x3
 2285 104d 32010000 		.4byte	.LASF230
 2286 1051 15       		.byte	0x15
 2287 1052 D0       		.byte	0xd0
 2288 1053 EF0F0000 		.4byte	0xfef
 2289 1057 18       		.uleb128 0x18
 2290 1058 FC       		.byte	0xfc
 2291 1059 15       		.byte	0x15
 2292 105a D9       		.byte	0xd9
 2293 105b CC100000 		.4byte	0x10cc
 2294 105f 08       		.uleb128 0x8
 2295 1060 52090000 		.4byte	.LASF231
 2296 1064 15       		.byte	0x15
 2297 1065 DC       		.byte	0xdc
 2298 1066 4C100000 		.4byte	0x104c
 2299 106a 00       		.byte	0
 2300 106b 08       		.uleb128 0x8
 2301 106c 58070000 		.4byte	.LASF232
 2302 1070 15       		.byte	0x15
 2303 1071 E0       		.byte	0xe0
 2304 1072 4C100000 		.4byte	0x104c
 2305 1076 1C       		.byte	0x1c
 2306 1077 08       		.uleb128 0x8
 2307 1078 AC040000 		.4byte	.LASF233
 2308 107c 15       		.byte	0x15
 2309 107d E4       		.byte	0xe4
 2310 107e 4C100000 		.4byte	0x104c
 2311 1082 38       		.byte	0x38
 2312 1083 08       		.uleb128 0x8
 2313 1084 30030000 		.4byte	.LASF234
 2314 1088 15       		.byte	0x15
 2315 1089 E8       		.byte	0xe8
 2316 108a 4C100000 		.4byte	0x104c
 2317 108e 54       		.byte	0x54
 2318 108f 08       		.uleb128 0x8
 2319 1090 E6000000 		.4byte	.LASF235
 2320 1094 15       		.byte	0x15
 2321 1095 EC       		.byte	0xec
 2322 1096 4C100000 		.4byte	0x104c
 2323 109a 70       		.byte	0x70
 2324 109b 08       		.uleb128 0x8
 2325 109c BC0B0000 		.4byte	.LASF236
 2326 10a0 15       		.byte	0x15
 2327 10a1 F0       		.byte	0xf0
 2328 10a2 4C100000 		.4byte	0x104c
 2329 10a6 8C       		.byte	0x8c
 2330 10a7 08       		.uleb128 0x8
 2331 10a8 000A0000 		.4byte	.LASF237
 2332 10ac 15       		.byte	0x15
 2333 10ad F4       		.byte	0xf4
 2334 10ae 4C100000 		.4byte	0x104c
 2335 10b2 A8       		.byte	0xa8
 2336 10b3 08       		.uleb128 0x8
 2337 10b4 40080000 		.4byte	.LASF238
ARM GAS  /var/folders/qd/4mxf5pkd0zdf0b9dd1hp39180000gn/T//cc0Vz3J6.s 			page 42


 2338 10b8 15       		.byte	0x15
 2339 10b9 F8       		.byte	0xf8
 2340 10ba 4C100000 		.4byte	0x104c
 2341 10be C4       		.byte	0xc4
 2342 10bf 08       		.uleb128 0x8
 2343 10c0 99050000 		.4byte	.LASF239
 2344 10c4 15       		.byte	0x15
 2345 10c5 FC       		.byte	0xfc
 2346 10c6 4C100000 		.4byte	0x104c
 2347 10ca E0       		.byte	0xe0
 2348 10cb 00       		.byte	0
 2349 10cc 03       		.uleb128 0x3
 2350 10cd 150B0000 		.4byte	.LASF240
 2351 10d1 15       		.byte	0x15
 2352 10d2 FE       		.byte	0xfe
 2353 10d3 57100000 		.4byte	0x1057
 2354 10d7 05       		.uleb128 0x5
 2355 10d8 CC100000 		.4byte	0x10cc
 2356 10dc 16       		.uleb128 0x16
 2357 10dd FA010000 		.4byte	.LASF241
 2358 10e1 15       		.byte	0x15
 2359 10e2 1B01     		.2byte	0x11b
 2360 10e4 E8100000 		.4byte	0x10e8
 2361 10e8 0B       		.uleb128 0xb
 2362 10e9 04       		.byte	0x4
 2363 10ea E40F0000 		.4byte	0xfe4
 2364 10ee 13       		.uleb128 0x13
 2365 10ef 66020000 		.4byte	.LASF242
 2366 10f3 15       		.byte	0x15
 2367 10f4 DA01     		.2byte	0x1da
 2368 10f6 D7100000 		.4byte	0x10d7
 2369 10fa 1E       		.uleb128 0x1e
 2370 10fb 07       		.byte	0x7
 2371 10fc 01       		.byte	0x1
 2372 10fd 5E000000 		.4byte	0x5e
 2373 1101 16       		.byte	0x16
 2374 1102 4A       		.byte	0x4a
 2375 1103 1A110000 		.4byte	0x111a
 2376 1107 1F       		.uleb128 0x1f
 2377 1108 1E010000 		.4byte	.LASF243
 2378 110c 00       		.byte	0
 2379 110d 1F       		.uleb128 0x1f
 2380 110e 49090000 		.4byte	.LASF244
 2381 1112 01       		.byte	0x1
 2382 1113 1F       		.uleb128 0x1f
 2383 1114 910A0000 		.4byte	.LASF245
 2384 1118 02       		.byte	0x2
 2385 1119 00       		.byte	0
 2386 111a 03       		.uleb128 0x3
 2387 111b 7D0B0000 		.4byte	.LASF246
 2388 111f 16       		.byte	0x16
 2389 1120 4E       		.byte	0x4e
 2390 1121 FA100000 		.4byte	0x10fa
 2391 1125 03       		.uleb128 0x3
 2392 1126 25080000 		.4byte	.LASF247
 2393 112a 16       		.byte	0x16
 2394 112b 53       		.byte	0x53
ARM GAS  /var/folders/qd/4mxf5pkd0zdf0b9dd1hp39180000gn/T//cc0Vz3J6.s 			page 43


 2395 112c 30110000 		.4byte	0x1130
 2396 1130 0C       		.uleb128 0xc
 2397 1131 25080000 		.4byte	.LASF247
 2398 1135 1C       		.byte	0x1c
 2399 1136 17       		.byte	0x17
 2400 1137 7901     		.2byte	0x179
 2401 1139 99110000 		.4byte	0x1199
 2402 113d 0A       		.uleb128 0xa
 2403 113e E0000000 		.4byte	.LASF248
 2404 1142 17       		.byte	0x17
 2405 1143 7D01     		.2byte	0x17d
 2406 1145 1A110000 		.4byte	0x111a
 2407 1149 00       		.byte	0
 2408 114a 0A       		.uleb128 0xa
 2409 114b D9000000 		.4byte	.LASF249
 2410 114f 17       		.byte	0x17
 2411 1150 8101     		.2byte	0x181
 2412 1152 94120000 		.4byte	0x1294
 2413 1156 04       		.byte	0x4
 2414 1157 0A       		.uleb128 0xa
 2415 1158 D3090000 		.4byte	.LASF250
 2416 115c 17       		.byte	0x17
 2417 115d 8501     		.2byte	0x185
 2418 115f DF110000 		.4byte	0x11df
 2419 1163 08       		.byte	0x8
 2420 1164 0A       		.uleb128 0xa
 2421 1165 C5040000 		.4byte	.LASF251
 2422 1169 17       		.byte	0x17
 2423 116a 8901     		.2byte	0x189
 2424 116c D3110000 		.4byte	0x11d3
 2425 1170 0C       		.byte	0xc
 2426 1171 0A       		.uleb128 0xa
 2427 1172 E7070000 		.4byte	.LASF252
 2428 1176 17       		.byte	0x17
 2429 1177 8D01     		.2byte	0x18d
 2430 1179 C7110000 		.4byte	0x11c7
 2431 117d 10       		.byte	0x10
 2432 117e 0A       		.uleb128 0xa
 2433 117f A0050000 		.4byte	.LASF253
 2434 1183 17       		.byte	0x17
 2435 1184 9501     		.2byte	0x195
 2436 1186 DF000000 		.4byte	0xdf
 2437 118a 14       		.byte	0x14
 2438 118b 09       		.uleb128 0x9
 2439 118c 74696D00 		.ascii	"tim\000"
 2440 1190 17       		.byte	0x17
 2441 1191 9901     		.2byte	0x199
 2442 1193 9A120000 		.4byte	0x129a
 2443 1197 18       		.byte	0x18
 2444 1198 00       		.byte	0
 2445 1199 03       		.uleb128 0x3
 2446 119a 0D080000 		.4byte	.LASF254
 2447 119e 16       		.byte	0x16
 2448 119f 5A       		.byte	0x5a
 2449 11a0 A4110000 		.4byte	0x11a4
 2450 11a4 0B       		.uleb128 0xb
 2451 11a5 04       		.byte	0x4
ARM GAS  /var/folders/qd/4mxf5pkd0zdf0b9dd1hp39180000gn/T//cc0Vz3J6.s 			page 44


 2452 11a6 AA110000 		.4byte	0x11aa
 2453 11aa 0D       		.uleb128 0xd
 2454 11ab B5110000 		.4byte	0x11b5
 2455 11af 0E       		.uleb128 0xe
 2456 11b0 B5110000 		.4byte	0x11b5
 2457 11b4 00       		.byte	0
 2458 11b5 0B       		.uleb128 0xb
 2459 11b6 04       		.byte	0x4
 2460 11b7 25110000 		.4byte	0x1125
 2461 11bb 16       		.uleb128 0x16
 2462 11bc 2B040000 		.4byte	.LASF255
 2463 11c0 17       		.byte	0x17
 2464 11c1 2501     		.2byte	0x125
 2465 11c3 DF000000 		.4byte	0xdf
 2466 11c7 16       		.uleb128 0x16
 2467 11c8 38020000 		.4byte	.LASF256
 2468 11cc 17       		.byte	0x17
 2469 11cd 2A01     		.2byte	0x12a
 2470 11cf B4000000 		.4byte	0xb4
 2471 11d3 16       		.uleb128 0x16
 2472 11d4 C4000000 		.4byte	.LASF257
 2473 11d8 17       		.byte	0x17
 2474 11d9 2F01     		.2byte	0x12f
 2475 11db DF000000 		.4byte	0xdf
 2476 11df 16       		.uleb128 0x16
 2477 11e0 C2020000 		.4byte	.LASF258
 2478 11e4 17       		.byte	0x17
 2479 11e5 3401     		.2byte	0x134
 2480 11e7 DF000000 		.4byte	0xdf
 2481 11eb 15       		.uleb128 0x15
 2482 11ec 08       		.byte	0x8
 2483 11ed 17       		.byte	0x17
 2484 11ee 3901     		.2byte	0x139
 2485 11f0 0F120000 		.4byte	0x120f
 2486 11f4 0A       		.uleb128 0xa
 2487 11f5 CC0A0000 		.4byte	.LASF259
 2488 11f9 17       		.byte	0x17
 2489 11fa 3D01     		.2byte	0x13d
 2490 11fc BB110000 		.4byte	0x11bb
 2491 1200 00       		.byte	0
 2492 1201 0A       		.uleb128 0xa
 2493 1202 29010000 		.4byte	.LASF260
 2494 1206 17       		.byte	0x17
 2495 1207 4301     		.2byte	0x143
 2496 1209 99110000 		.4byte	0x1199
 2497 120d 04       		.byte	0x4
 2498 120e 00       		.byte	0
 2499 120f 16       		.uleb128 0x16
 2500 1210 F8000000 		.4byte	.LASF261
 2501 1214 17       		.byte	0x17
 2502 1215 4501     		.2byte	0x145
 2503 1217 EB110000 		.4byte	0x11eb
 2504 121b 15       		.uleb128 0x15
 2505 121c 34       		.byte	0x34
 2506 121d 17       		.byte	0x17
 2507 121e 4A01     		.2byte	0x14a
 2508 1220 73120000 		.4byte	0x1273
ARM GAS  /var/folders/qd/4mxf5pkd0zdf0b9dd1hp39180000gn/T//cc0Vz3J6.s 			page 45


 2509 1224 0A       		.uleb128 0xa
 2510 1225 4E070000 		.4byte	.LASF262
 2511 1229 17       		.byte	0x17
 2512 122a 5001     		.2byte	0x150
 2513 122c DF000000 		.4byte	0xdf
 2514 1230 00       		.byte	0
 2515 1231 0A       		.uleb128 0xa
 2516 1232 D3090000 		.4byte	.LASF250
 2517 1236 17       		.byte	0x17
 2518 1237 5601     		.2byte	0x156
 2519 1239 DF110000 		.4byte	0x11df
 2520 123d 04       		.byte	0x4
 2521 123e 0A       		.uleb128 0xa
 2522 123f 29010000 		.4byte	.LASF260
 2523 1243 17       		.byte	0x17
 2524 1244 5C01     		.2byte	0x15c
 2525 1246 99110000 		.4byte	0x1199
 2526 124a 08       		.byte	0x8
 2527 124b 0A       		.uleb128 0xa
 2528 124c E7070000 		.4byte	.LASF252
 2529 1250 17       		.byte	0x17
 2530 1251 6001     		.2byte	0x160
 2531 1253 73120000 		.4byte	0x1273
 2532 1257 0C       		.byte	0xc
 2533 1258 09       		.uleb128 0x9
 2534 1259 63723200 		.ascii	"cr2\000"
 2535 125d 17       		.byte	0x17
 2536 125e 6601     		.2byte	0x166
 2537 1260 DF000000 		.4byte	0xdf
 2538 1264 2C       		.byte	0x2c
 2539 1265 0A       		.uleb128 0xa
 2540 1266 19010000 		.4byte	.LASF263
 2541 126a 17       		.byte	0x17
 2542 126b 7301     		.2byte	0x173
 2543 126d DF000000 		.4byte	0xdf
 2544 1271 30       		.byte	0x30
 2545 1272 00       		.byte	0
 2546 1273 11       		.uleb128 0x11
 2547 1274 0F120000 		.4byte	0x120f
 2548 1278 83120000 		.4byte	0x1283
 2549 127c 12       		.uleb128 0x12
 2550 127d 37000000 		.4byte	0x37
 2551 1281 03       		.byte	0x3
 2552 1282 00       		.byte	0
 2553 1283 16       		.uleb128 0x16
 2554 1284 260B0000 		.4byte	.LASF264
 2555 1288 17       		.byte	0x17
 2556 1289 7401     		.2byte	0x174
 2557 128b 1B120000 		.4byte	0x121b
 2558 128f 05       		.uleb128 0x5
 2559 1290 83120000 		.4byte	0x1283
 2560 1294 0B       		.uleb128 0xb
 2561 1295 04       		.byte	0x4
 2562 1296 8F120000 		.4byte	0x128f
 2563 129a 0B       		.uleb128 0xb
 2564 129b 04       		.byte	0x4
 2565 129c 1F0A0000 		.4byte	0xa1f
ARM GAS  /var/folders/qd/4mxf5pkd0zdf0b9dd1hp39180000gn/T//cc0Vz3J6.s 			page 46


 2566 12a0 13       		.uleb128 0x13
 2567 12a1 6D0B0000 		.4byte	.LASF265
 2568 12a5 17       		.byte	0x17
 2569 12a6 C401     		.2byte	0x1c4
 2570 12a8 25110000 		.4byte	0x1125
 2571 12ac 1E       		.uleb128 0x1e
 2572 12ad 07       		.byte	0x7
 2573 12ae 01       		.byte	0x1
 2574 12af 5E000000 		.4byte	0x5e
 2575 12b3 18       		.byte	0x18
 2576 12b4 55       		.byte	0x55
 2577 12b5 CC120000 		.4byte	0x12cc
 2578 12b9 1F       		.uleb128 0x1f
 2579 12ba 58030000 		.4byte	.LASF266
 2580 12be 00       		.byte	0
 2581 12bf 1F       		.uleb128 0x1f
 2582 12c0 3A0C0000 		.4byte	.LASF267
 2583 12c4 01       		.byte	0x1
 2584 12c5 1F       		.uleb128 0x1f
 2585 12c6 4A0A0000 		.4byte	.LASF268
 2586 12ca 02       		.byte	0x2
 2587 12cb 00       		.byte	0
 2588 12cc 03       		.uleb128 0x3
 2589 12cd 380A0000 		.4byte	.LASF269
 2590 12d1 18       		.byte	0x18
 2591 12d2 59       		.byte	0x59
 2592 12d3 AC120000 		.4byte	0x12ac
 2593 12d7 03       		.uleb128 0x3
 2594 12d8 EC090000 		.4byte	.LASF270
 2595 12dc 18       		.byte	0x18
 2596 12dd 5E       		.byte	0x5e
 2597 12de E2120000 		.4byte	0x12e2
 2598 12e2 07       		.uleb128 0x7
 2599 12e3 EC090000 		.4byte	.LASF270
 2600 12e7 78       		.byte	0x78
 2601 12e8 18       		.byte	0x18
 2602 12e9 78       		.byte	0x78
 2603 12ea 4D130000 		.4byte	0x134d
 2604 12ee 17       		.uleb128 0x17
 2605 12ef 766D7400 		.ascii	"vmt\000"
 2606 12f3 18       		.byte	0x18
 2607 12f4 7A       		.byte	0x7a
 2608 12f5 CB130000 		.4byte	0x13cb
 2609 12f9 00       		.byte	0
 2610 12fa 08       		.uleb128 0x8
 2611 12fb 87070000 		.4byte	.LASF271
 2612 12ff 18       		.byte	0x18
 2613 1300 7B       		.byte	0x7b
 2614 1301 D80C0000 		.4byte	0xcd8
 2615 1305 04       		.byte	0x4
 2616 1306 08       		.uleb128 0x8
 2617 1307 E0000000 		.4byte	.LASF248
 2618 130b 18       		.byte	0x18
 2619 130c 7B       		.byte	0x7b
 2620 130d CC120000 		.4byte	0x12cc
 2621 1311 08       		.byte	0x8
 2622 1312 08       		.uleb128 0x8
ARM GAS  /var/folders/qd/4mxf5pkd0zdf0b9dd1hp39180000gn/T//cc0Vz3J6.s 			page 47


 2623 1313 DA0A0000 		.4byte	.LASF272
 2624 1317 18       		.byte	0x18
 2625 1318 7B       		.byte	0x7b
 2626 1319 830D0000 		.4byte	0xd83
 2627 131d 0C       		.byte	0xc
 2628 131e 08       		.uleb128 0x8
 2629 131f 28020000 		.4byte	.LASF273
 2630 1323 18       		.byte	0x18
 2631 1324 7B       		.byte	0x7b
 2632 1325 8E0D0000 		.4byte	0xd8e
 2633 1329 30       		.byte	0x30
 2634 132a 17       		.uleb128 0x17
 2635 132b 696200   		.ascii	"ib\000"
 2636 132e 18       		.byte	0x18
 2637 132f 7B       		.byte	0x7b
 2638 1330 D1130000 		.4byte	0x13d1
 2639 1334 54       		.byte	0x54
 2640 1335 17       		.uleb128 0x17
 2641 1336 6F6200   		.ascii	"ob\000"
 2642 1339 18       		.byte	0x18
 2643 133a 7B       		.byte	0x7b
 2644 133b D1130000 		.4byte	0x13d1
 2645 133f 64       		.byte	0x64
 2646 1340 08       		.uleb128 0x8
 2647 1341 60020000 		.4byte	.LASF274
 2648 1345 18       		.byte	0x18
 2649 1346 7B       		.byte	0x7b
 2650 1347 E1130000 		.4byte	0x13e1
 2651 134b 74       		.byte	0x74
 2652 134c 00       		.byte	0
 2653 134d 1B       		.uleb128 0x1b
 2654 134e 53443200 		.ascii	"SD2\000"
 2655 1352 19       		.byte	0x19
 2656 1353 1201     		.2byte	0x112
 2657 1355 D7120000 		.4byte	0x12d7
 2658 1359 07       		.uleb128 0x7
 2659 135a 24070000 		.4byte	.LASF275
 2660 135e 20       		.byte	0x20
 2661 135f 18       		.byte	0x18
 2662 1360 6D       		.byte	0x6d
 2663 1361 C6130000 		.4byte	0x13c6
 2664 1365 08       		.uleb128 0x8
 2665 1366 BE000000 		.4byte	.LASF276
 2666 136a 18       		.byte	0x18
 2667 136b 6E       		.byte	0x6e
 2668 136c B80D0000 		.4byte	0xdb8
 2669 1370 00       		.byte	0
 2670 1371 08       		.uleb128 0x8
 2671 1372 A1070000 		.4byte	.LASF277
 2672 1376 18       		.byte	0x18
 2673 1377 6E       		.byte	0x6e
 2674 1378 D70D0000 		.4byte	0xdd7
 2675 137c 04       		.byte	0x4
 2676 137d 17       		.uleb128 0x17
 2677 137e 70757400 		.ascii	"put\000"
 2678 1382 18       		.byte	0x18
 2679 1383 6E       		.byte	0x6e
ARM GAS  /var/folders/qd/4mxf5pkd0zdf0b9dd1hp39180000gn/T//cc0Vz3J6.s 			page 48


 2680 1384 F10D0000 		.4byte	0xdf1
 2681 1388 08       		.byte	0x8
 2682 1389 17       		.uleb128 0x17
 2683 138a 67657400 		.ascii	"get\000"
 2684 138e 18       		.byte	0x18
 2685 138f 6E       		.byte	0x6e
 2686 1390 060E0000 		.4byte	0xe06
 2687 1394 0C       		.byte	0xc
 2688 1395 08       		.uleb128 0x8
 2689 1396 ED000000 		.4byte	.LASF278
 2690 139a 18       		.byte	0x18
 2691 139b 6E       		.byte	0x6e
 2692 139c A70E0000 		.4byte	0xea7
 2693 13a0 10       		.byte	0x10
 2694 13a1 08       		.uleb128 0x8
 2695 13a2 D7030000 		.4byte	.LASF279
 2696 13a6 18       		.byte	0x18
 2697 13a7 6E       		.byte	0x6e
 2698 13a8 C10E0000 		.4byte	0xec1
 2699 13ac 14       		.byte	0x14
 2700 13ad 08       		.uleb128 0x8
 2701 13ae 85000000 		.4byte	.LASF280
 2702 13b2 18       		.byte	0x18
 2703 13b3 6E       		.byte	0x6e
 2704 13b4 E50E0000 		.4byte	0xee5
 2705 13b8 18       		.byte	0x18
 2706 13b9 08       		.uleb128 0x8
 2707 13ba 9A010000 		.4byte	.LASF281
 2708 13be 18       		.byte	0x18
 2709 13bf 6E       		.byte	0x6e
 2710 13c0 090F0000 		.4byte	0xf09
 2711 13c4 1C       		.byte	0x1c
 2712 13c5 00       		.byte	0
 2713 13c6 05       		.uleb128 0x5
 2714 13c7 59130000 		.4byte	0x1359
 2715 13cb 0B       		.uleb128 0xb
 2716 13cc 04       		.byte	0x4
 2717 13cd C6130000 		.4byte	0x13c6
 2718 13d1 11       		.uleb128 0x11
 2719 13d2 B4000000 		.4byte	0xb4
 2720 13d6 E1130000 		.4byte	0x13e1
 2721 13da 12       		.uleb128 0x12
 2722 13db 37000000 		.4byte	0x37
 2723 13df 0F       		.byte	0xf
 2724 13e0 00       		.byte	0
 2725 13e1 0B       		.uleb128 0xb
 2726 13e2 04       		.byte	0x4
 2727 13e3 57080000 		.4byte	0x857
 2728 13e7 1E       		.uleb128 0x1e
 2729 13e8 07       		.byte	0x7
 2730 13e9 01       		.byte	0x1
 2731 13ea 5E000000 		.4byte	0x5e
 2732 13ee 1A       		.byte	0x1a
 2733 13ef 46       		.byte	0x46
 2734 13f0 13140000 		.4byte	0x1413
 2735 13f4 1F       		.uleb128 0x1f
 2736 13f5 CC010000 		.4byte	.LASF282
ARM GAS  /var/folders/qd/4mxf5pkd0zdf0b9dd1hp39180000gn/T//cc0Vz3J6.s 			page 49


 2737 13f9 00       		.byte	0
 2738 13fa 1F       		.uleb128 0x1f
 2739 13fb BA010000 		.4byte	.LASF283
 2740 13ff 01       		.byte	0x1
 2741 1400 1F       		.uleb128 0x1f
 2742 1401 BE060000 		.4byte	.LASF284
 2743 1405 02       		.byte	0x2
 2744 1406 1F       		.uleb128 0x1f
 2745 1407 CC070000 		.4byte	.LASF285
 2746 140b 03       		.byte	0x3
 2747 140c 1F       		.uleb128 0x1f
 2748 140d 5A080000 		.4byte	.LASF286
 2749 1411 04       		.byte	0x4
 2750 1412 00       		.byte	0
 2751 1413 03       		.uleb128 0x3
 2752 1414 0E0C0000 		.4byte	.LASF287
 2753 1418 1A       		.byte	0x1a
 2754 1419 4C       		.byte	0x4c
 2755 141a E7130000 		.4byte	0x13e7
 2756 141e 16       		.uleb128 0x16
 2757 141f A6030000 		.4byte	.LASF288
 2758 1423 1B       		.byte	0x1b
 2759 1424 9601     		.2byte	0x196
 2760 1426 2A140000 		.4byte	0x142a
 2761 142a 0C       		.uleb128 0xc
 2762 142b A6030000 		.4byte	.LASF288
 2763 142f 30       		.byte	0x30
 2764 1430 1B       		.byte	0x1b
 2765 1431 BA01     		.2byte	0x1ba
 2766 1433 AD140000 		.4byte	0x14ad
 2767 1437 0A       		.uleb128 0xa
 2768 1438 E0000000 		.4byte	.LASF248
 2769 143c 1B       		.byte	0x1b
 2770 143d BE01     		.2byte	0x1be
 2771 143f 13140000 		.4byte	0x1413
 2772 1443 00       		.byte	0
 2773 1444 0A       		.uleb128 0xa
 2774 1445 D9000000 		.4byte	.LASF249
 2775 1449 1B       		.byte	0x1b
 2776 144a C201     		.2byte	0x1c2
 2777 144c 1F150000 		.4byte	0x151f
 2778 1450 04       		.byte	0x4
 2779 1451 0A       		.uleb128 0xa
 2780 1452 7D0A0000 		.4byte	.LASF289
 2781 1456 1B       		.byte	0x1b
 2782 1457 C701     		.2byte	0x1c7
 2783 1459 60020000 		.4byte	0x260
 2784 145d 08       		.byte	0x8
 2785 145e 0A       		.uleb128 0xa
 2786 145f 34070000 		.4byte	.LASF290
 2787 1463 1B       		.byte	0x1b
 2788 1464 CD01     		.2byte	0x1cd
 2789 1466 540C0000 		.4byte	0xc54
 2790 146a 0C       		.byte	0xc
 2791 146b 09       		.uleb128 0x9
 2792 146c 73706900 		.ascii	"spi\000"
 2793 1470 1B       		.byte	0x1b
ARM GAS  /var/folders/qd/4mxf5pkd0zdf0b9dd1hp39180000gn/T//cc0Vz3J6.s 			page 50


 2794 1471 D601     		.2byte	0x1d6
 2795 1473 25150000 		.4byte	0x1525
 2796 1477 1C       		.byte	0x1c
 2797 1478 0A       		.uleb128 0xa
 2798 1479 AD060000 		.4byte	.LASF291
 2799 147d 1B       		.byte	0x1b
 2800 147e DA01     		.2byte	0x1da
 2801 1480 2B150000 		.4byte	0x152b
 2802 1484 20       		.byte	0x20
 2803 1485 0A       		.uleb128 0xa
 2804 1486 8D070000 		.4byte	.LASF292
 2805 148a 1B       		.byte	0x1b
 2806 148b DE01     		.2byte	0x1de
 2807 148d 2B150000 		.4byte	0x152b
 2808 1491 24       		.byte	0x24
 2809 1492 0A       		.uleb128 0xa
 2810 1493 5F070000 		.4byte	.LASF293
 2811 1497 1B       		.byte	0x1b
 2812 1498 E201     		.2byte	0x1e2
 2813 149a DF000000 		.4byte	0xdf
 2814 149e 28       		.byte	0x28
 2815 149f 0A       		.uleb128 0xa
 2816 14a0 600C0000 		.4byte	.LASF294
 2817 14a4 1B       		.byte	0x1b
 2818 14a5 E601     		.2byte	0x1e6
 2819 14a7 DF000000 		.4byte	0xdf
 2820 14ab 2C       		.byte	0x2c
 2821 14ac 00       		.byte	0
 2822 14ad 16       		.uleb128 0x16
 2823 14ae 22030000 		.4byte	.LASF295
 2824 14b2 1B       		.byte	0x1b
 2825 14b3 9E01     		.2byte	0x19e
 2826 14b5 B9140000 		.4byte	0x14b9
 2827 14b9 0B       		.uleb128 0xb
 2828 14ba 04       		.byte	0x4
 2829 14bb BF140000 		.4byte	0x14bf
 2830 14bf 0D       		.uleb128 0xd
 2831 14c0 CA140000 		.4byte	0x14ca
 2832 14c4 0E       		.uleb128 0xe
 2833 14c5 CA140000 		.4byte	0x14ca
 2834 14c9 00       		.byte	0
 2835 14ca 0B       		.uleb128 0xb
 2836 14cb 04       		.byte	0x4
 2837 14cc 1E140000 		.4byte	0x141e
 2838 14d0 15       		.uleb128 0x15
 2839 14d1 0C       		.byte	0xc
 2840 14d2 1B       		.byte	0x1b
 2841 14d3 A301     		.2byte	0x1a3
 2842 14d5 0E150000 		.4byte	0x150e
 2843 14d9 0A       		.uleb128 0xa
 2844 14da 54010000 		.4byte	.LASF296
 2845 14de 1B       		.byte	0x1b
 2846 14df A701     		.2byte	0x1a7
 2847 14e1 AD140000 		.4byte	0x14ad
 2848 14e5 00       		.byte	0
 2849 14e6 0A       		.uleb128 0xa
 2850 14e7 B7000000 		.4byte	.LASF297
ARM GAS  /var/folders/qd/4mxf5pkd0zdf0b9dd1hp39180000gn/T//cc0Vz3J6.s 			page 51


 2851 14eb 1B       		.byte	0x1b
 2852 14ec AC01     		.2byte	0x1ac
 2853 14ee DC100000 		.4byte	0x10dc
 2854 14f2 04       		.byte	0x4
 2855 14f3 0A       		.uleb128 0xa
 2856 14f4 4C0C0000 		.4byte	.LASF298
 2857 14f8 1B       		.byte	0x1b
 2858 14f9 B001     		.2byte	0x1b0
 2859 14fb C4000000 		.4byte	0xc4
 2860 14ff 08       		.byte	0x8
 2861 1500 09       		.uleb128 0x9
 2862 1501 63723100 		.ascii	"cr1\000"
 2863 1505 1B       		.byte	0x1b
 2864 1506 B401     		.2byte	0x1b4
 2865 1508 C4000000 		.4byte	0xc4
 2866 150c 0A       		.byte	0xa
 2867 150d 00       		.byte	0
 2868 150e 16       		.uleb128 0x16
 2869 150f C2070000 		.4byte	.LASF299
 2870 1513 1B       		.byte	0x1b
 2871 1514 B501     		.2byte	0x1b5
 2872 1516 D0140000 		.4byte	0x14d0
 2873 151a 05       		.uleb128 0x5
 2874 151b 0E150000 		.4byte	0x150e
 2875 151f 0B       		.uleb128 0xb
 2876 1520 04       		.byte	0x4
 2877 1521 1A150000 		.4byte	0x151a
 2878 1525 0B       		.uleb128 0xb
 2879 1526 04       		.byte	0x4
 2880 1527 E8070000 		.4byte	0x7e8
 2881 152b 0B       		.uleb128 0xb
 2882 152c 04       		.byte	0x4
 2883 152d 680E0000 		.4byte	0xe68
 2884 1531 13       		.uleb128 0x13
 2885 1532 F2000000 		.4byte	.LASF300
 2886 1536 1B       		.byte	0x1b
 2887 1537 F201     		.2byte	0x1f2
 2888 1539 1E140000 		.4byte	0x141e
 2889 153d 13       		.uleb128 0x13
 2890 153e 3B040000 		.4byte	.LASF301
 2891 1542 1B       		.byte	0x1b
 2892 1543 F601     		.2byte	0x1f6
 2893 1545 1E140000 		.4byte	0x141e
 2894 1549 20       		.uleb128 0x20
 2895 154a 9A040000 		.4byte	0x49a
 2896 154e 01       		.byte	0x1
 2897 154f 27       		.byte	0x27
 2898 1550 05       		.uleb128 0x5
 2899 1551 03       		.byte	0x3
 2900 1552 00000000 		.4byte	SystemCoreClock
 2901 1556 21       		.uleb128 0x21
 2902 1557 EE080000 		.4byte	.LASF305
 2903 155b 01       		.byte	0x1
 2904 155c 92       		.byte	0x92
 2905 155d 00000000 		.4byte	.LFB262
 2906 1561 C0000000 		.4byte	.LFE262-.LFB262
 2907 1565 01       		.uleb128 0x1
ARM GAS  /var/folders/qd/4mxf5pkd0zdf0b9dd1hp39180000gn/T//cc0Vz3J6.s 			page 52


 2908 1566 9C       		.byte	0x9c
 2909 1567 22       		.uleb128 0x22
 2910 1568 9B020000 		.4byte	.LASF306
 2911 156c 01       		.byte	0x1
 2912 156d 72       		.byte	0x72
 2913 156e 00000000 		.4byte	.LFB261
 2914 1572 64000000 		.4byte	.LFE261-.LFB261
 2915 1576 01       		.uleb128 0x1
 2916 1577 9C       		.byte	0x9c
 2917 1578 95150000 		.4byte	0x1595
 2918 157c 23       		.uleb128 0x23
 2919 157d 95150000 		.4byte	0x1595
 2920 1581 18000000 		.4byte	.LBB4
 2921 1585 00000000 		.4byte	.Ldebug_ranges0+0
 2922 1589 01       		.byte	0x1
 2923 158a 7F       		.byte	0x7f
 2924 158b 24       		.uleb128 0x24
 2925 158c 5C000000 		.4byte	.LVL0
 2926 1590 9D150000 		.4byte	0x159d
 2927 1594 00       		.byte	0
 2928 1595 25       		.uleb128 0x25
 2929 1596 BB080000 		.4byte	.LASF307
 2930 159a 01       		.byte	0x1
 2931 159b 36       		.byte	0x36
 2932 159c 01       		.byte	0x1
 2933 159d 26       		.uleb128 0x26
 2934 159e 08040000 		.4byte	.LASF308
 2935 15a2 08040000 		.4byte	.LASF308
 2936 15a6 14       		.byte	0x14
 2937 15a7 C101     		.2byte	0x1c1
 2938 15a9 00       		.byte	0
 2939              		.section	.debug_abbrev,"",%progbits
 2940              	.Ldebug_abbrev0:
 2941 0000 01       		.uleb128 0x1
 2942 0001 11       		.uleb128 0x11
 2943 0002 01       		.byte	0x1
 2944 0003 25       		.uleb128 0x25
 2945 0004 0E       		.uleb128 0xe
 2946 0005 13       		.uleb128 0x13
 2947 0006 0B       		.uleb128 0xb
 2948 0007 03       		.uleb128 0x3
 2949 0008 0E       		.uleb128 0xe
 2950 0009 1B       		.uleb128 0x1b
 2951 000a 0E       		.uleb128 0xe
 2952 000b 55       		.uleb128 0x55
 2953 000c 17       		.uleb128 0x17
 2954 000d 11       		.uleb128 0x11
 2955 000e 01       		.uleb128 0x1
 2956 000f 10       		.uleb128 0x10
 2957 0010 17       		.uleb128 0x17
 2958 0011 00       		.byte	0
 2959 0012 00       		.byte	0
 2960 0013 02       		.uleb128 0x2
 2961 0014 24       		.uleb128 0x24
 2962 0015 00       		.byte	0
 2963 0016 0B       		.uleb128 0xb
 2964 0017 0B       		.uleb128 0xb
ARM GAS  /var/folders/qd/4mxf5pkd0zdf0b9dd1hp39180000gn/T//cc0Vz3J6.s 			page 53


 2965 0018 3E       		.uleb128 0x3e
 2966 0019 0B       		.uleb128 0xb
 2967 001a 03       		.uleb128 0x3
 2968 001b 08       		.uleb128 0x8
 2969 001c 00       		.byte	0
 2970 001d 00       		.byte	0
 2971 001e 03       		.uleb128 0x3
 2972 001f 16       		.uleb128 0x16
 2973 0020 00       		.byte	0
 2974 0021 03       		.uleb128 0x3
 2975 0022 0E       		.uleb128 0xe
 2976 0023 3A       		.uleb128 0x3a
 2977 0024 0B       		.uleb128 0xb
 2978 0025 3B       		.uleb128 0x3b
 2979 0026 0B       		.uleb128 0xb
 2980 0027 49       		.uleb128 0x49
 2981 0028 13       		.uleb128 0x13
 2982 0029 00       		.byte	0
 2983 002a 00       		.byte	0
 2984 002b 04       		.uleb128 0x4
 2985 002c 24       		.uleb128 0x24
 2986 002d 00       		.byte	0
 2987 002e 0B       		.uleb128 0xb
 2988 002f 0B       		.uleb128 0xb
 2989 0030 3E       		.uleb128 0x3e
 2990 0031 0B       		.uleb128 0xb
 2991 0032 03       		.uleb128 0x3
 2992 0033 0E       		.uleb128 0xe
 2993 0034 00       		.byte	0
 2994 0035 00       		.byte	0
 2995 0036 05       		.uleb128 0x5
 2996 0037 26       		.uleb128 0x26
 2997 0038 00       		.byte	0
 2998 0039 49       		.uleb128 0x49
 2999 003a 13       		.uleb128 0x13
 3000 003b 00       		.byte	0
 3001 003c 00       		.byte	0
 3002 003d 06       		.uleb128 0x6
 3003 003e 35       		.uleb128 0x35
 3004 003f 00       		.byte	0
 3005 0040 49       		.uleb128 0x49
 3006 0041 13       		.uleb128 0x13
 3007 0042 00       		.byte	0
 3008 0043 00       		.byte	0
 3009 0044 07       		.uleb128 0x7
 3010 0045 13       		.uleb128 0x13
 3011 0046 01       		.byte	0x1
 3012 0047 03       		.uleb128 0x3
 3013 0048 0E       		.uleb128 0xe
 3014 0049 0B       		.uleb128 0xb
 3015 004a 0B       		.uleb128 0xb
 3016 004b 3A       		.uleb128 0x3a
 3017 004c 0B       		.uleb128 0xb
 3018 004d 3B       		.uleb128 0x3b
 3019 004e 0B       		.uleb128 0xb
 3020 004f 01       		.uleb128 0x1
 3021 0050 13       		.uleb128 0x13
ARM GAS  /var/folders/qd/4mxf5pkd0zdf0b9dd1hp39180000gn/T//cc0Vz3J6.s 			page 54


 3022 0051 00       		.byte	0
 3023 0052 00       		.byte	0
 3024 0053 08       		.uleb128 0x8
 3025 0054 0D       		.uleb128 0xd
 3026 0055 00       		.byte	0
 3027 0056 03       		.uleb128 0x3
 3028 0057 0E       		.uleb128 0xe
 3029 0058 3A       		.uleb128 0x3a
 3030 0059 0B       		.uleb128 0xb
 3031 005a 3B       		.uleb128 0x3b
 3032 005b 0B       		.uleb128 0xb
 3033 005c 49       		.uleb128 0x49
 3034 005d 13       		.uleb128 0x13
 3035 005e 38       		.uleb128 0x38
 3036 005f 0B       		.uleb128 0xb
 3037 0060 00       		.byte	0
 3038 0061 00       		.byte	0
 3039 0062 09       		.uleb128 0x9
 3040 0063 0D       		.uleb128 0xd
 3041 0064 00       		.byte	0
 3042 0065 03       		.uleb128 0x3
 3043 0066 08       		.uleb128 0x8
 3044 0067 3A       		.uleb128 0x3a
 3045 0068 0B       		.uleb128 0xb
 3046 0069 3B       		.uleb128 0x3b
 3047 006a 05       		.uleb128 0x5
 3048 006b 49       		.uleb128 0x49
 3049 006c 13       		.uleb128 0x13
 3050 006d 38       		.uleb128 0x38
 3051 006e 0B       		.uleb128 0xb
 3052 006f 00       		.byte	0
 3053 0070 00       		.byte	0
 3054 0071 0A       		.uleb128 0xa
 3055 0072 0D       		.uleb128 0xd
 3056 0073 00       		.byte	0
 3057 0074 03       		.uleb128 0x3
 3058 0075 0E       		.uleb128 0xe
 3059 0076 3A       		.uleb128 0x3a
 3060 0077 0B       		.uleb128 0xb
 3061 0078 3B       		.uleb128 0x3b
 3062 0079 05       		.uleb128 0x5
 3063 007a 49       		.uleb128 0x49
 3064 007b 13       		.uleb128 0x13
 3065 007c 38       		.uleb128 0x38
 3066 007d 0B       		.uleb128 0xb
 3067 007e 00       		.byte	0
 3068 007f 00       		.byte	0
 3069 0080 0B       		.uleb128 0xb
 3070 0081 0F       		.uleb128 0xf
 3071 0082 00       		.byte	0
 3072 0083 0B       		.uleb128 0xb
 3073 0084 0B       		.uleb128 0xb
 3074 0085 49       		.uleb128 0x49
 3075 0086 13       		.uleb128 0x13
 3076 0087 00       		.byte	0
 3077 0088 00       		.byte	0
 3078 0089 0C       		.uleb128 0xc
ARM GAS  /var/folders/qd/4mxf5pkd0zdf0b9dd1hp39180000gn/T//cc0Vz3J6.s 			page 55


 3079 008a 13       		.uleb128 0x13
 3080 008b 01       		.byte	0x1
 3081 008c 03       		.uleb128 0x3
 3082 008d 0E       		.uleb128 0xe
 3083 008e 0B       		.uleb128 0xb
 3084 008f 0B       		.uleb128 0xb
 3085 0090 3A       		.uleb128 0x3a
 3086 0091 0B       		.uleb128 0xb
 3087 0092 3B       		.uleb128 0x3b
 3088 0093 05       		.uleb128 0x5
 3089 0094 01       		.uleb128 0x1
 3090 0095 13       		.uleb128 0x13
 3091 0096 00       		.byte	0
 3092 0097 00       		.byte	0
 3093 0098 0D       		.uleb128 0xd
 3094 0099 15       		.uleb128 0x15
 3095 009a 01       		.byte	0x1
 3096 009b 27       		.uleb128 0x27
 3097 009c 19       		.uleb128 0x19
 3098 009d 01       		.uleb128 0x1
 3099 009e 13       		.uleb128 0x13
 3100 009f 00       		.byte	0
 3101 00a0 00       		.byte	0
 3102 00a1 0E       		.uleb128 0xe
 3103 00a2 05       		.uleb128 0x5
 3104 00a3 00       		.byte	0
 3105 00a4 49       		.uleb128 0x49
 3106 00a5 13       		.uleb128 0x13
 3107 00a6 00       		.byte	0
 3108 00a7 00       		.byte	0
 3109 00a8 0F       		.uleb128 0xf
 3110 00a9 0F       		.uleb128 0xf
 3111 00aa 00       		.byte	0
 3112 00ab 0B       		.uleb128 0xb
 3113 00ac 0B       		.uleb128 0xb
 3114 00ad 00       		.byte	0
 3115 00ae 00       		.byte	0
 3116 00af 10       		.uleb128 0x10
 3117 00b0 13       		.uleb128 0x13
 3118 00b1 01       		.byte	0x1
 3119 00b2 03       		.uleb128 0x3
 3120 00b3 0E       		.uleb128 0xe
 3121 00b4 0B       		.uleb128 0xb
 3122 00b5 05       		.uleb128 0x5
 3123 00b6 3A       		.uleb128 0x3a
 3124 00b7 0B       		.uleb128 0xb
 3125 00b8 3B       		.uleb128 0x3b
 3126 00b9 05       		.uleb128 0x5
 3127 00ba 01       		.uleb128 0x1
 3128 00bb 13       		.uleb128 0x13
 3129 00bc 00       		.byte	0
 3130 00bd 00       		.byte	0
 3131 00be 11       		.uleb128 0x11
 3132 00bf 01       		.uleb128 0x1
 3133 00c0 01       		.byte	0x1
 3134 00c1 49       		.uleb128 0x49
 3135 00c2 13       		.uleb128 0x13
ARM GAS  /var/folders/qd/4mxf5pkd0zdf0b9dd1hp39180000gn/T//cc0Vz3J6.s 			page 56


 3136 00c3 01       		.uleb128 0x1
 3137 00c4 13       		.uleb128 0x13
 3138 00c5 00       		.byte	0
 3139 00c6 00       		.byte	0
 3140 00c7 12       		.uleb128 0x12
 3141 00c8 21       		.uleb128 0x21
 3142 00c9 00       		.byte	0
 3143 00ca 49       		.uleb128 0x49
 3144 00cb 13       		.uleb128 0x13
 3145 00cc 2F       		.uleb128 0x2f
 3146 00cd 0B       		.uleb128 0xb
 3147 00ce 00       		.byte	0
 3148 00cf 00       		.byte	0
 3149 00d0 13       		.uleb128 0x13
 3150 00d1 34       		.uleb128 0x34
 3151 00d2 00       		.byte	0
 3152 00d3 03       		.uleb128 0x3
 3153 00d4 0E       		.uleb128 0xe
 3154 00d5 3A       		.uleb128 0x3a
 3155 00d6 0B       		.uleb128 0xb
 3156 00d7 3B       		.uleb128 0x3b
 3157 00d8 05       		.uleb128 0x5
 3158 00d9 49       		.uleb128 0x49
 3159 00da 13       		.uleb128 0x13
 3160 00db 3F       		.uleb128 0x3f
 3161 00dc 19       		.uleb128 0x19
 3162 00dd 3C       		.uleb128 0x3c
 3163 00de 19       		.uleb128 0x19
 3164 00df 00       		.byte	0
 3165 00e0 00       		.byte	0
 3166 00e1 14       		.uleb128 0x14
 3167 00e2 34       		.uleb128 0x34
 3168 00e3 00       		.byte	0
 3169 00e4 03       		.uleb128 0x3
 3170 00e5 0E       		.uleb128 0xe
 3171 00e6 3A       		.uleb128 0x3a
 3172 00e7 0B       		.uleb128 0xb
 3173 00e8 3B       		.uleb128 0x3b
 3174 00e9 0B       		.uleb128 0xb
 3175 00ea 49       		.uleb128 0x49
 3176 00eb 13       		.uleb128 0x13
 3177 00ec 3F       		.uleb128 0x3f
 3178 00ed 19       		.uleb128 0x19
 3179 00ee 3C       		.uleb128 0x3c
 3180 00ef 19       		.uleb128 0x19
 3181 00f0 00       		.byte	0
 3182 00f1 00       		.byte	0
 3183 00f2 15       		.uleb128 0x15
 3184 00f3 13       		.uleb128 0x13
 3185 00f4 01       		.byte	0x1
 3186 00f5 0B       		.uleb128 0xb
 3187 00f6 0B       		.uleb128 0xb
 3188 00f7 3A       		.uleb128 0x3a
 3189 00f8 0B       		.uleb128 0xb
 3190 00f9 3B       		.uleb128 0x3b
 3191 00fa 05       		.uleb128 0x5
 3192 00fb 01       		.uleb128 0x1
ARM GAS  /var/folders/qd/4mxf5pkd0zdf0b9dd1hp39180000gn/T//cc0Vz3J6.s 			page 57


 3193 00fc 13       		.uleb128 0x13
 3194 00fd 00       		.byte	0
 3195 00fe 00       		.byte	0
 3196 00ff 16       		.uleb128 0x16
 3197 0100 16       		.uleb128 0x16
 3198 0101 00       		.byte	0
 3199 0102 03       		.uleb128 0x3
 3200 0103 0E       		.uleb128 0xe
 3201 0104 3A       		.uleb128 0x3a
 3202 0105 0B       		.uleb128 0xb
 3203 0106 3B       		.uleb128 0x3b
 3204 0107 05       		.uleb128 0x5
 3205 0108 49       		.uleb128 0x49
 3206 0109 13       		.uleb128 0x13
 3207 010a 00       		.byte	0
 3208 010b 00       		.byte	0
 3209 010c 17       		.uleb128 0x17
 3210 010d 0D       		.uleb128 0xd
 3211 010e 00       		.byte	0
 3212 010f 03       		.uleb128 0x3
 3213 0110 08       		.uleb128 0x8
 3214 0111 3A       		.uleb128 0x3a
 3215 0112 0B       		.uleb128 0xb
 3216 0113 3B       		.uleb128 0x3b
 3217 0114 0B       		.uleb128 0xb
 3218 0115 49       		.uleb128 0x49
 3219 0116 13       		.uleb128 0x13
 3220 0117 38       		.uleb128 0x38
 3221 0118 0B       		.uleb128 0xb
 3222 0119 00       		.byte	0
 3223 011a 00       		.byte	0
 3224 011b 18       		.uleb128 0x18
 3225 011c 13       		.uleb128 0x13
 3226 011d 01       		.byte	0x1
 3227 011e 0B       		.uleb128 0xb
 3228 011f 0B       		.uleb128 0xb
 3229 0120 3A       		.uleb128 0x3a
 3230 0121 0B       		.uleb128 0xb
 3231 0122 3B       		.uleb128 0x3b
 3232 0123 0B       		.uleb128 0xb
 3233 0124 01       		.uleb128 0x1
 3234 0125 13       		.uleb128 0x13
 3235 0126 00       		.byte	0
 3236 0127 00       		.byte	0
 3237 0128 19       		.uleb128 0x19
 3238 0129 17       		.uleb128 0x17
 3239 012a 01       		.byte	0x1
 3240 012b 0B       		.uleb128 0xb
 3241 012c 0B       		.uleb128 0xb
 3242 012d 3A       		.uleb128 0x3a
 3243 012e 0B       		.uleb128 0xb
 3244 012f 3B       		.uleb128 0x3b
 3245 0130 0B       		.uleb128 0xb
 3246 0131 01       		.uleb128 0x1
 3247 0132 13       		.uleb128 0x13
 3248 0133 00       		.byte	0
 3249 0134 00       		.byte	0
ARM GAS  /var/folders/qd/4mxf5pkd0zdf0b9dd1hp39180000gn/T//cc0Vz3J6.s 			page 58


 3250 0135 1A       		.uleb128 0x1a
 3251 0136 0D       		.uleb128 0xd
 3252 0137 00       		.byte	0
 3253 0138 03       		.uleb128 0x3
 3254 0139 0E       		.uleb128 0xe
 3255 013a 3A       		.uleb128 0x3a
 3256 013b 0B       		.uleb128 0xb
 3257 013c 3B       		.uleb128 0x3b
 3258 013d 05       		.uleb128 0x5
 3259 013e 49       		.uleb128 0x49
 3260 013f 13       		.uleb128 0x13
 3261 0140 00       		.byte	0
 3262 0141 00       		.byte	0
 3263 0142 1B       		.uleb128 0x1b
 3264 0143 34       		.uleb128 0x34
 3265 0144 00       		.byte	0
 3266 0145 03       		.uleb128 0x3
 3267 0146 08       		.uleb128 0x8
 3268 0147 3A       		.uleb128 0x3a
 3269 0148 0B       		.uleb128 0xb
 3270 0149 3B       		.uleb128 0x3b
 3271 014a 05       		.uleb128 0x5
 3272 014b 49       		.uleb128 0x49
 3273 014c 13       		.uleb128 0x13
 3274 014d 3F       		.uleb128 0x3f
 3275 014e 19       		.uleb128 0x19
 3276 014f 3C       		.uleb128 0x3c
 3277 0150 19       		.uleb128 0x19
 3278 0151 00       		.byte	0
 3279 0152 00       		.byte	0
 3280 0153 1C       		.uleb128 0x1c
 3281 0154 15       		.uleb128 0x15
 3282 0155 01       		.byte	0x1
 3283 0156 27       		.uleb128 0x27
 3284 0157 19       		.uleb128 0x19
 3285 0158 49       		.uleb128 0x49
 3286 0159 13       		.uleb128 0x13
 3287 015a 01       		.uleb128 0x1
 3288 015b 13       		.uleb128 0x13
 3289 015c 00       		.byte	0
 3290 015d 00       		.byte	0
 3291 015e 1D       		.uleb128 0x1d
 3292 015f 0D       		.uleb128 0xd
 3293 0160 00       		.byte	0
 3294 0161 03       		.uleb128 0x3
 3295 0162 08       		.uleb128 0x8
 3296 0163 3A       		.uleb128 0x3a
 3297 0164 0B       		.uleb128 0xb
 3298 0165 3B       		.uleb128 0x3b
 3299 0166 0B       		.uleb128 0xb
 3300 0167 49       		.uleb128 0x49
 3301 0168 13       		.uleb128 0x13
 3302 0169 00       		.byte	0
 3303 016a 00       		.byte	0
 3304 016b 1E       		.uleb128 0x1e
 3305 016c 04       		.uleb128 0x4
 3306 016d 01       		.byte	0x1
ARM GAS  /var/folders/qd/4mxf5pkd0zdf0b9dd1hp39180000gn/T//cc0Vz3J6.s 			page 59


 3307 016e 3E       		.uleb128 0x3e
 3308 016f 0B       		.uleb128 0xb
 3309 0170 0B       		.uleb128 0xb
 3310 0171 0B       		.uleb128 0xb
 3311 0172 49       		.uleb128 0x49
 3312 0173 13       		.uleb128 0x13
 3313 0174 3A       		.uleb128 0x3a
 3314 0175 0B       		.uleb128 0xb
 3315 0176 3B       		.uleb128 0x3b
 3316 0177 0B       		.uleb128 0xb
 3317 0178 01       		.uleb128 0x1
 3318 0179 13       		.uleb128 0x13
 3319 017a 00       		.byte	0
 3320 017b 00       		.byte	0
 3321 017c 1F       		.uleb128 0x1f
 3322 017d 28       		.uleb128 0x28
 3323 017e 00       		.byte	0
 3324 017f 03       		.uleb128 0x3
 3325 0180 0E       		.uleb128 0xe
 3326 0181 1C       		.uleb128 0x1c
 3327 0182 0B       		.uleb128 0xb
 3328 0183 00       		.byte	0
 3329 0184 00       		.byte	0
 3330 0185 20       		.uleb128 0x20
 3331 0186 34       		.uleb128 0x34
 3332 0187 00       		.byte	0
 3333 0188 47       		.uleb128 0x47
 3334 0189 13       		.uleb128 0x13
 3335 018a 3A       		.uleb128 0x3a
 3336 018b 0B       		.uleb128 0xb
 3337 018c 3B       		.uleb128 0x3b
 3338 018d 0B       		.uleb128 0xb
 3339 018e 02       		.uleb128 0x2
 3340 018f 18       		.uleb128 0x18
 3341 0190 00       		.byte	0
 3342 0191 00       		.byte	0
 3343 0192 21       		.uleb128 0x21
 3344 0193 2E       		.uleb128 0x2e
 3345 0194 00       		.byte	0
 3346 0195 3F       		.uleb128 0x3f
 3347 0196 19       		.uleb128 0x19
 3348 0197 03       		.uleb128 0x3
 3349 0198 0E       		.uleb128 0xe
 3350 0199 3A       		.uleb128 0x3a
 3351 019a 0B       		.uleb128 0xb
 3352 019b 3B       		.uleb128 0x3b
 3353 019c 0B       		.uleb128 0xb
 3354 019d 27       		.uleb128 0x27
 3355 019e 19       		.uleb128 0x19
 3356 019f 11       		.uleb128 0x11
 3357 01a0 01       		.uleb128 0x1
 3358 01a1 12       		.uleb128 0x12
 3359 01a2 06       		.uleb128 0x6
 3360 01a3 40       		.uleb128 0x40
 3361 01a4 18       		.uleb128 0x18
 3362 01a5 9742     		.uleb128 0x2117
 3363 01a7 19       		.uleb128 0x19
ARM GAS  /var/folders/qd/4mxf5pkd0zdf0b9dd1hp39180000gn/T//cc0Vz3J6.s 			page 60


 3364 01a8 00       		.byte	0
 3365 01a9 00       		.byte	0
 3366 01aa 22       		.uleb128 0x22
 3367 01ab 2E       		.uleb128 0x2e
 3368 01ac 01       		.byte	0x1
 3369 01ad 3F       		.uleb128 0x3f
 3370 01ae 19       		.uleb128 0x19
 3371 01af 03       		.uleb128 0x3
 3372 01b0 0E       		.uleb128 0xe
 3373 01b1 3A       		.uleb128 0x3a
 3374 01b2 0B       		.uleb128 0xb
 3375 01b3 3B       		.uleb128 0x3b
 3376 01b4 0B       		.uleb128 0xb
 3377 01b5 27       		.uleb128 0x27
 3378 01b6 19       		.uleb128 0x19
 3379 01b7 11       		.uleb128 0x11
 3380 01b8 01       		.uleb128 0x1
 3381 01b9 12       		.uleb128 0x12
 3382 01ba 06       		.uleb128 0x6
 3383 01bb 40       		.uleb128 0x40
 3384 01bc 18       		.uleb128 0x18
 3385 01bd 9742     		.uleb128 0x2117
 3386 01bf 19       		.uleb128 0x19
 3387 01c0 01       		.uleb128 0x1
 3388 01c1 13       		.uleb128 0x13
 3389 01c2 00       		.byte	0
 3390 01c3 00       		.byte	0
 3391 01c4 23       		.uleb128 0x23
 3392 01c5 1D       		.uleb128 0x1d
 3393 01c6 00       		.byte	0
 3394 01c7 31       		.uleb128 0x31
 3395 01c8 13       		.uleb128 0x13
 3396 01c9 52       		.uleb128 0x52
 3397 01ca 01       		.uleb128 0x1
 3398 01cb 55       		.uleb128 0x55
 3399 01cc 17       		.uleb128 0x17
 3400 01cd 58       		.uleb128 0x58
 3401 01ce 0B       		.uleb128 0xb
 3402 01cf 59       		.uleb128 0x59
 3403 01d0 0B       		.uleb128 0xb
 3404 01d1 00       		.byte	0
 3405 01d2 00       		.byte	0
 3406 01d3 24       		.uleb128 0x24
 3407 01d4 898201   		.uleb128 0x4109
 3408 01d7 00       		.byte	0
 3409 01d8 11       		.uleb128 0x11
 3410 01d9 01       		.uleb128 0x1
 3411 01da 9542     		.uleb128 0x2115
 3412 01dc 19       		.uleb128 0x19
 3413 01dd 31       		.uleb128 0x31
 3414 01de 13       		.uleb128 0x13
 3415 01df 00       		.byte	0
 3416 01e0 00       		.byte	0
 3417 01e1 25       		.uleb128 0x25
 3418 01e2 2E       		.uleb128 0x2e
 3419 01e3 00       		.byte	0
 3420 01e4 03       		.uleb128 0x3
ARM GAS  /var/folders/qd/4mxf5pkd0zdf0b9dd1hp39180000gn/T//cc0Vz3J6.s 			page 61


 3421 01e5 0E       		.uleb128 0xe
 3422 01e6 3A       		.uleb128 0x3a
 3423 01e7 0B       		.uleb128 0xb
 3424 01e8 3B       		.uleb128 0x3b
 3425 01e9 0B       		.uleb128 0xb
 3426 01ea 27       		.uleb128 0x27
 3427 01eb 19       		.uleb128 0x19
 3428 01ec 20       		.uleb128 0x20
 3429 01ed 0B       		.uleb128 0xb
 3430 01ee 00       		.byte	0
 3431 01ef 00       		.byte	0
 3432 01f0 26       		.uleb128 0x26
 3433 01f1 2E       		.uleb128 0x2e
 3434 01f2 00       		.byte	0
 3435 01f3 3F       		.uleb128 0x3f
 3436 01f4 19       		.uleb128 0x19
 3437 01f5 3C       		.uleb128 0x3c
 3438 01f6 19       		.uleb128 0x19
 3439 01f7 6E       		.uleb128 0x6e
 3440 01f8 0E       		.uleb128 0xe
 3441 01f9 03       		.uleb128 0x3
 3442 01fa 0E       		.uleb128 0xe
 3443 01fb 3A       		.uleb128 0x3a
 3444 01fc 0B       		.uleb128 0xb
 3445 01fd 3B       		.uleb128 0x3b
 3446 01fe 05       		.uleb128 0x5
 3447 01ff 00       		.byte	0
 3448 0200 00       		.byte	0
 3449 0201 00       		.byte	0
 3450              		.section	.debug_aranges,"",%progbits
 3451 0000 24000000 		.4byte	0x24
 3452 0004 0200     		.2byte	0x2
 3453 0006 00000000 		.4byte	.Ldebug_info0
 3454 000a 04       		.byte	0x4
 3455 000b 00       		.byte	0
 3456 000c 0000     		.2byte	0
 3457 000e 0000     		.2byte	0
 3458 0010 00000000 		.4byte	.LFB261
 3459 0014 64000000 		.4byte	.LFE261-.LFB261
 3460 0018 00000000 		.4byte	.LFB262
 3461 001c C0000000 		.4byte	.LFE262-.LFB262
 3462 0020 00000000 		.4byte	0
 3463 0024 00000000 		.4byte	0
 3464              		.section	.debug_ranges,"",%progbits
 3465              	.Ldebug_ranges0:
 3466 0000 18000000 		.4byte	.LBB4
 3467 0004 1A000000 		.4byte	.LBE4
 3468 0008 30000000 		.4byte	.LBB8
 3469 000c 4E000000 		.4byte	.LBE8
 3470 0010 50000000 		.4byte	.LBB9
 3471 0014 58000000 		.4byte	.LBE9
 3472 0018 00000000 		.4byte	0
 3473 001c 00000000 		.4byte	0
 3474 0020 00000000 		.4byte	.LFB261
 3475 0024 64000000 		.4byte	.LFE261
 3476 0028 00000000 		.4byte	.LFB262
 3477 002c C0000000 		.4byte	.LFE262
ARM GAS  /var/folders/qd/4mxf5pkd0zdf0b9dd1hp39180000gn/T//cc0Vz3J6.s 			page 62


 3478 0030 00000000 		.4byte	0
 3479 0034 00000000 		.4byte	0
 3480              		.section	.debug_line,"",%progbits
 3481              	.Ldebug_line0:
 3482 0000 11050000 		.section	.debug_str,"MS",%progbits,1
 3482      02007804 
 3482      00000201 
 3482      FB0E0D00 
 3482      01010101 
 3483              	.LASF87:
 3484 0000 4D314152 		.ascii	"M1AR\000"
 3484      00
 3485              	.LASF211:
 3486 0005 73746D33 		.ascii	"stm32_dma_stream_t\000"
 3486      325F646D 
 3486      615F7374 
 3486      7265616D 
 3486      5F7400
 3487              	.LASF4:
 3488 0018 73697A65 		.ascii	"size_t\000"
 3488      5F7400
 3489              	.LASF151:
 3490 001f 77747365 		.ascii	"wtsemp\000"
 3490      6D7000
 3491              	.LASF173:
 3492 0026 63665F6F 		.ascii	"cf_off_name\000"
 3492      66665F6E 
 3492      616D6500 
 3493              	.LASF30:
 3494 0032 73797374 		.ascii	"systime_t\000"
 3494      696D655F 
 3494      7400
 3495              	.LASF121:
 3496 003c 504C4C49 		.ascii	"PLLI2SCFGR\000"
 3496      32534346 
 3496      475200
 3497              	.LASF162:
 3498 0047 63685F69 		.ascii	"ch_identifier\000"
 3498      64656E74 
 3498      69666965 
 3498      7200
 3499              	.LASF35:
 3500 0055 705F6374 		.ascii	"p_ctx\000"
 3500      7800
 3501              	.LASF25:
 3502 005b 74707269 		.ascii	"tprio_t\000"
 3502      6F5F7400 
 3503              	.LASF181:
 3504 0063 63685F64 		.ascii	"ch_debug\000"
 3504      65627567 
 3504      00
 3505              	.LASF43:
 3506 006c 705F6D73 		.ascii	"p_msgqueue\000"
 3506      67717565 
 3506      756500
 3507              	.LASF59:
 3508 0077 725F6374 		.ascii	"r_ctx\000"
ARM GAS  /var/folders/qd/4mxf5pkd0zdf0b9dd1hp39180000gn/T//cc0Vz3J6.s 			page 63


 3508      7800
 3509              	.LASF18:
 3510 007d 696E7433 		.ascii	"int32_t\000"
 3510      325F7400 
 3511              	.LASF280:
 3512 0085 77726974 		.ascii	"writet\000"
 3512      657400
 3513              	.LASF170:
 3514 008c 63665F6F 		.ascii	"cf_off_ctx\000"
 3514      66665F63 
 3514      747800
 3515              	.LASF63:
 3516 0097 76746675 		.ascii	"vtfunc_t\000"
 3516      6E635F74 
 3516      00
 3517              	.LASF72:
 3518 00a0 63685F76 		.ascii	"ch_virtual_timers_list\000"
 3518      69727475 
 3518      616C5F74 
 3518      696D6572 
 3518      735F6C69 
 3519              	.LASF297:
 3520 00b7 7373706F 		.ascii	"ssport\000"
 3520      727400
 3521              	.LASF276:
 3522 00be 77726974 		.ascii	"write\000"
 3522      6500
 3523              	.LASF257:
 3524 00c4 70776D63 		.ascii	"pwmchnmsk_t\000"
 3524      686E6D73 
 3524      6B5F7400 
 3525              	.LASF188:
 3526 00d0 656C5F66 		.ascii	"el_flags\000"
 3526      6C616773 
 3526      00
 3527              	.LASF249:
 3528 00d9 636F6E66 		.ascii	"config\000"
 3528      696700
 3529              	.LASF248:
 3530 00e0 73746174 		.ascii	"state\000"
 3530      6500
 3531              	.LASF235:
 3532 00e6 50454461 		.ascii	"PEData\000"
 3532      746100
 3533              	.LASF278:
 3534 00ed 70757474 		.ascii	"putt\000"
 3534      00
 3535              	.LASF300:
 3536 00f2 53504944 		.ascii	"SPID1\000"
 3536      3100
 3537              	.LASF261:
 3538 00f8 50574D43 		.ascii	"PWMChannelConfig\000"
 3538      68616E6E 
 3538      656C436F 
 3538      6E666967 
 3538      00
 3539              	.LASF166:
ARM GAS  /var/folders/qd/4mxf5pkd0zdf0b9dd1hp39180000gn/T//cc0Vz3J6.s 			page 64


 3540 0109 63685F70 		.ascii	"ch_ptrsize\000"
 3540      74727369 
 3540      7A6500
 3541              	.LASF141:
 3542 0114 444D4152 		.ascii	"DMAR\000"
 3542      00
 3543              	.LASF263:
 3544 0119 64696572 		.ascii	"dier\000"
 3544      00
 3545              	.LASF243:
 3546 011e 50574D5F 		.ascii	"PWM_UNINIT\000"
 3546      554E494E 
 3546      495400
 3547              	.LASF260:
 3548 0129 63616C6C 		.ascii	"callback\000"
 3548      6261636B 
 3548      00
 3549              	.LASF230:
 3550 0132 73746D33 		.ascii	"stm32_gpio_setup_t\000"
 3550      325F6770 
 3550      696F5F73 
 3550      65747570 
 3550      5F7400
 3551              	.LASF159:
 3552 0145 6D5F6F77 		.ascii	"m_owner\000"
 3552      6E657200 
 3553              	.LASF70:
 3554 014d 76745F70 		.ascii	"vt_par\000"
 3554      617200
 3555              	.LASF296:
 3556 0154 656E645F 		.ascii	"end_cb\000"
 3556      636200
 3557              	.LASF148:
 3558 015b 65786974 		.ascii	"exitcode\000"
 3558      636F6465 
 3558      00
 3559              	.LASF126:
 3560 0164 49325343 		.ascii	"I2SCFGR\000"
 3560      46475200 
 3561              	.LASF5:
 3562 016c 5F5F7569 		.ascii	"__uint8_t\000"
 3562      6E74385F 
 3562      7400
 3563              	.LASF198:
 3564 0176 715F746F 		.ascii	"q_top\000"
 3564      7000
 3565              	.LASF112:
 3566 017c 41484232 		.ascii	"AHB2LPENR\000"
 3566      4C50454E 
 3566      5200
 3567              	.LASF168:
 3568 0186 63685F74 		.ascii	"ch_threadsize\000"
 3568      68726561 
 3568      6473697A 
 3568      6500
 3569              	.LASF218:
 3570 0194 50555044 		.ascii	"PUPDR\000"
ARM GAS  /var/folders/qd/4mxf5pkd0zdf0b9dd1hp39180000gn/T//cc0Vz3J6.s 			page 65


 3570      5200
 3571              	.LASF281:
 3572 019a 72656164 		.ascii	"readt\000"
 3572      7400
 3573              	.LASF197:
 3574 01a0 715F6275 		.ascii	"q_buffer\000"
 3574      66666572 
 3574      00
 3575              	.LASF201:
 3576 01a9 715F6E6F 		.ascii	"q_notify\000"
 3576      74696679 
 3576      00
 3577              	.LASF36:
 3578 01b2 705F6E65 		.ascii	"p_newer\000"
 3578      77657200 
 3579              	.LASF283:
 3580 01ba 5350495F 		.ascii	"SPI_STOP\000"
 3580      53544F50 
 3580      00
 3581              	.LASF11:
 3582 01c3 6C6F6E67 		.ascii	"long int\000"
 3582      20696E74 
 3582      00
 3583              	.LASF282:
 3584 01cc 5350495F 		.ascii	"SPI_UNINIT\000"
 3584      554E494E 
 3584      495400
 3585              	.LASF32:
 3586 01d7 705F6E65 		.ascii	"p_next\000"
 3586      787400
 3587              	.LASF200:
 3588 01de 715F7264 		.ascii	"q_rdptr\000"
 3588      70747200 
 3589              	.LASF175:
 3590 01e6 63665F6F 		.ascii	"cf_off_state\000"
 3590      66665F73 
 3590      74617465 
 3590      00
 3591              	.LASF33:
 3592 01f3 705F7072 		.ascii	"p_prev\000"
 3592      657600
 3593              	.LASF241:
 3594 01fa 696F706F 		.ascii	"ioportid_t\000"
 3594      72746964 
 3594      5F7400
 3595              	.LASF23:
 3596 0205 74737461 		.ascii	"tstate_t\000"
 3596      74655F74 
 3596      00
 3597              	.LASF53:
 3598 020e 74687265 		.ascii	"threads_queue_t\000"
 3598      6164735F 
 3598      71756575 
 3598      655F7400 
 3599              	.LASF46:
 3600 021e 705F6D74 		.ascii	"p_mtxlist\000"
 3600      786C6973 
ARM GAS  /var/folders/qd/4mxf5pkd0zdf0b9dd1hp39180000gn/T//cc0Vz3J6.s 			page 66


 3600      7400
 3601              	.LASF273:
 3602 0228 6F717565 		.ascii	"oqueue\000"
 3602      756500
 3603              	.LASF131:
 3604 022f 72656761 		.ascii	"regarm_t\000"
 3604      726D5F74 
 3604      00
 3605              	.LASF256:
 3606 0238 70776D63 		.ascii	"pwmchannel_t\000"
 3606      68616E6E 
 3606      656C5F74 
 3606      00
 3607              	.LASF109:
 3608 0245 41504232 		.ascii	"APB2ENR\000"
 3608      454E5200 
 3609              	.LASF194:
 3610 024d 696F5F71 		.ascii	"io_queue\000"
 3610      75657565 
 3610      00
 3611              	.LASF111:
 3612 0256 41484231 		.ascii	"AHB1LPENR\000"
 3612      4C50454E 
 3612      5200
 3613              	.LASF274:
 3614 0260 75736172 		.ascii	"usart\000"
 3614      7400
 3615              	.LASF242:
 3616 0266 70616C5F 		.ascii	"pal_default_config\000"
 3616      64656661 
 3616      756C745F 
 3616      636F6E66 
 3616      696700
 3617              	.LASF202:
 3618 0279 715F6C69 		.ascii	"q_link\000"
 3618      6E6B00
 3619              	.LASF3:
 3620 0280 7369676E 		.ascii	"signed char\000"
 3620      65642063 
 3620      68617200 
 3621              	.LASF153:
 3622 028c 65776D61 		.ascii	"ewmask\000"
 3622      736B00
 3623              	.LASF16:
 3624 0293 75696E74 		.ascii	"uint8_t\000"
 3624      385F7400 
 3625              	.LASF306:
 3626 029b 68616C5F 		.ascii	"hal_lld_init\000"
 3626      6C6C645F 
 3626      696E6974 
 3626      00
 3627              	.LASF27:
 3628 02a8 6576656E 		.ascii	"eventmask_t\000"
 3628      746D6173 
 3628      6B5F7400 
 3629              	.LASF133:
 3630 02b4 636F6E74 		.ascii	"context\000"
ARM GAS  /var/folders/qd/4mxf5pkd0zdf0b9dd1hp39180000gn/T//cc0Vz3J6.s 			page 67


 3630      65787400 
 3631              	.LASF150:
 3632 02bc 77747472 		.ascii	"wttrp\000"
 3632      7000
 3633              	.LASF258:
 3634 02c2 70776D63 		.ascii	"pwmcnt_t\000"
 3634      6E745F74 
 3634      00
 3635              	.LASF100:
 3636 02cb 52455345 		.ascii	"RESERVED0\000"
 3636      52564544 
 3636      3000
 3637              	.LASF103:
 3638 02d5 52455345 		.ascii	"RESERVED1\000"
 3638      52564544 
 3638      3100
 3639              	.LASF6:
 3640 02df 756E7369 		.ascii	"unsigned char\000"
 3640      676E6564 
 3640      20636861 
 3640      7200
 3641              	.LASF110:
 3642 02ed 52455345 		.ascii	"RESERVED3\000"
 3642      52564544 
 3642      3300
 3643              	.LASF114:
 3644 02f7 52455345 		.ascii	"RESERVED4\000"
 3644      52564544 
 3644      3400
 3645              	.LASF117:
 3646 0301 52455345 		.ascii	"RESERVED5\000"
 3646      52564544 
 3646      3500
 3647              	.LASF119:
 3648 030b 52455345 		.ascii	"RESERVED6\000"
 3648      52564544 
 3648      3600
 3649              	.LASF223:
 3650 0315 73746D33 		.ascii	"stm32_gpio_t\000"
 3650      325F6770 
 3650      696F5F74 
 3650      00
 3651              	.LASF295:
 3652 0322 73706963 		.ascii	"spicallback_t\000"
 3652      616C6C62 
 3652      61636B5F 
 3652      7400
 3653              	.LASF234:
 3654 0330 50444461 		.ascii	"PDData\000"
 3654      746100
 3655              	.LASF76:
 3656 0337 70616E69 		.ascii	"panic_msg\000"
 3656      635F6D73 
 3656      6700
 3657              	.LASF60:
 3658 0341 725F6E65 		.ascii	"r_newer\000"
 3658      77657200 
ARM GAS  /var/folders/qd/4mxf5pkd0zdf0b9dd1hp39180000gn/T//cc0Vz3J6.s 			page 68


 3659              	.LASF74:
 3660 0349 73797374 		.ascii	"system_debug_t\000"
 3660      656D5F64 
 3660      65627567 
 3660      5F7400
 3661              	.LASF266:
 3662 0358 53445F55 		.ascii	"SD_UNINIT\000"
 3662      4E494E49 
 3662      5400
 3663              	.LASF213:
 3664 0362 5F426F6F 		.ascii	"_Bool\000"
 3664      6C00
 3665              	.LASF107:
 3666 0368 52455345 		.ascii	"RESERVED2\000"
 3666      52564544 
 3666      3200
 3667              	.LASF137:
 3668 0372 43434D52 		.ascii	"CCMR1\000"
 3668      3100
 3669              	.LASF138:
 3670 0378 43434D52 		.ascii	"CCMR2\000"
 3670      3200
 3671              	.LASF142:
 3672 037e 43434D52 		.ascii	"CCMR3\000"
 3672      3300
 3673              	.LASF161:
 3674 0384 63686172 		.ascii	"char\000"
 3674      00
 3675              	.LASF224:
 3676 0389 6D6F6465 		.ascii	"moder\000"
 3676      7200
 3677              	.LASF208:
 3678 038f 69736869 		.ascii	"ishift\000"
 3678      667400
 3679              	.LASF97:
 3680 0396 41484231 		.ascii	"AHB1RSTR\000"
 3680      52535452 
 3680      00
 3681              	.LASF34:
 3682 039f 705F7072 		.ascii	"p_prio\000"
 3682      696F00
 3683              	.LASF288:
 3684 03a6 53504944 		.ascii	"SPIDriver\000"
 3684      72697665 
 3684      7200
 3685              	.LASF8:
 3686 03b0 5F5F7569 		.ascii	"__uint16_t\000"
 3686      6E743136 
 3686      5F7400
 3687              	.LASF105:
 3688 03bb 41484232 		.ascii	"AHB2ENR\000"
 3688      454E5200 
 3689              	.LASF149:
 3690 03c3 77746F62 		.ascii	"wtobjp\000"
 3690      6A7000
 3691              	.LASF171:
 3692 03ca 63665F6F 		.ascii	"cf_off_newer\000"
ARM GAS  /var/folders/qd/4mxf5pkd0zdf0b9dd1hp39180000gn/T//cc0Vz3J6.s 			page 69


 3692      66665F6E 
 3692      65776572 
 3692      00
 3693              	.LASF279:
 3694 03d7 67657474 		.ascii	"gett\000"
 3694      00
 3695              	.LASF132:
 3696 03dc 73746B61 		.ascii	"stkalign_t\000"
 3696      6C69676E 
 3696      5F7400
 3697              	.LASF130:
 3698 03e7 55534152 		.ascii	"USART_TypeDef\000"
 3698      545F5479 
 3698      70654465 
 3698      6600
 3699              	.LASF169:
 3700 03f5 63665F6F 		.ascii	"cf_off_prio\000"
 3700      66665F70 
 3700      72696F00 
 3701              	.LASF206:
 3702 0401 73747265 		.ascii	"stream\000"
 3702      616D00
 3703              	.LASF308:
 3704 0408 646D6149 		.ascii	"dmaInit\000"
 3704      6E697400 
 3705              	.LASF183:
 3706 0410 6576656E 		.ascii	"event_listener_t\000"
 3706      745F6C69 
 3706      7374656E 
 3706      65725F74 
 3706      00
 3707              	.LASF143:
 3708 0421 43435852 		.ascii	"CCXR\000"
 3708      00
 3709              	.LASF118:
 3710 0426 42444352 		.ascii	"BDCR\000"
 3710      00
 3711              	.LASF255:
 3712 042b 70776D6D 		.ascii	"pwmmode_t\000"
 3712      6F64655F 
 3712      7400
 3713              	.LASF29:
 3714 0435 636E745F 		.ascii	"cnt_t\000"
 3714      7400
 3715              	.LASF301:
 3716 043b 53504944 		.ascii	"SPID2\000"
 3716      3200
 3717              	.LASF69:
 3718 0441 76745F66 		.ascii	"vt_func\000"
 3718      756E6300 
 3719              	.LASF45:
 3720 0449 705F6570 		.ascii	"p_epending\000"
 3720      656E6469 
 3720      6E6700
 3721              	.LASF152:
 3722 0454 77746D74 		.ascii	"wtmtxp\000"
 3722      787000
ARM GAS  /var/folders/qd/4mxf5pkd0zdf0b9dd1hp39180000gn/T//cc0Vz3J6.s 			page 70


 3723              	.LASF303:
 3724 045b 2E2E2F2E 		.ascii	"../../../os/hal/ports/STM32/STM32F4xx/hal_lld.c\000"
 3724      2E2F2E2E 
 3724      2F6F732F 
 3724      68616C2F 
 3724      706F7274 
 3725              	.LASF56:
 3726 048b 63685F72 		.ascii	"ch_ready_list\000"
 3726      65616479 
 3726      5F6C6973 
 3726      7400
 3727              	.LASF214:
 3728 0499 636C6561 		.ascii	"clear\000"
 3728      7200
 3729              	.LASF96:
 3730 049f 43464752 		.ascii	"CFGR\000"
 3730      00
 3731              	.LASF226:
 3732 04a4 6F737065 		.ascii	"ospeedr\000"
 3732      65647200 
 3733              	.LASF233:
 3734 04ac 50434461 		.ascii	"PCData\000"
 3734      746100
 3735              	.LASF191:
 3736 04b3 65735F6E 		.ascii	"es_next\000"
 3736      65787400 
 3737              	.LASF196:
 3738 04bb 715F636F 		.ascii	"q_counter\000"
 3738      756E7465 
 3738      7200
 3739              	.LASF251:
 3740 04c5 656E6162 		.ascii	"enabled\000"
 3740      6C656400 
 3741              	.LASF90:
 3742 04cd 4F50544B 		.ascii	"OPTKEYR\000"
 3742      45595200 
 3743              	.LASF229:
 3744 04d5 61667268 		.ascii	"afrh\000"
 3744      00
 3745              	.LASF14:
 3746 04da 5F5F7569 		.ascii	"__uint64_t\000"
 3746      6E743634 
 3746      5F7400
 3747              	.LASF13:
 3748 04e5 6C6F6E67 		.ascii	"long unsigned int\000"
 3748      20756E73 
 3748      69676E65 
 3748      6420696E 
 3748      7400
 3749              	.LASF108:
 3750 04f7 41504231 		.ascii	"APB1ENR\000"
 3750      454E5200 
 3751              	.LASF136:
 3752 04ff 44494552 		.ascii	"DIER\000"
 3752      00
 3753              	.LASF225:
 3754 0504 6F747970 		.ascii	"otyper\000"
ARM GAS  /var/folders/qd/4mxf5pkd0zdf0b9dd1hp39180000gn/T//cc0Vz3J6.s 			page 71


 3754      657200
 3755              	.LASF84:
 3756 050b 53797374 		.ascii	"SystemCoreClock\000"
 3756      656D436F 
 3756      7265436C 
 3756      6F636B00 
 3757              	.LASF154:
 3758 051b 63685F73 		.ascii	"ch_semaphore\000"
 3758      656D6170 
 3758      686F7265 
 3758      00
 3759              	.LASF51:
 3760 0528 63685F74 		.ascii	"ch_thread\000"
 3760      68726561 
 3760      6400
 3761              	.LASF71:
 3762 0532 76697274 		.ascii	"virtual_timers_list_t\000"
 3762      75616C5F 
 3762      74696D65 
 3762      72735F6C 
 3762      6973745F 
 3763              	.LASF212:
 3764 0548 5F73746D 		.ascii	"_stm32_dma_streams\000"
 3764      33325F64 
 3764      6D615F73 
 3764      74726561 
 3764      6D7300
 3765              	.LASF185:
 3766 055b 656C5F6E 		.ascii	"el_next\000"
 3766      65787400 
 3767              	.LASF64:
 3768 0563 76697274 		.ascii	"virtual_timer_t\000"
 3768      75616C5F 
 3768      74696D65 
 3768      725F7400 
 3769              	.LASF55:
 3770 0573 72656164 		.ascii	"ready_list_t\000"
 3770      795F6C69 
 3770      73745F74 
 3770      00
 3771              	.LASF199:
 3772 0580 715F7772 		.ascii	"q_wrptr\000"
 3772      70747200 
 3773              	.LASF220:
 3774 0588 4C434B52 		.ascii	"LCKR\000"
 3774      00
 3775              	.LASF144:
 3776 058d 73746D33 		.ascii	"stm32_tim_t\000"
 3776      325F7469 
 3776      6D5F7400 
 3777              	.LASF239:
 3778 0599 50494461 		.ascii	"PIData\000"
 3778      746100
 3779              	.LASF253:
 3780 05a0 636C6F63 		.ascii	"clock\000"
 3780      6B00
 3781              	.LASF52:
ARM GAS  /var/folders/qd/4mxf5pkd0zdf0b9dd1hp39180000gn/T//cc0Vz3J6.s 			page 72


 3782 05a6 63685F74 		.ascii	"ch_threads_list\000"
 3782      68726561 
 3782      64735F6C 
 3782      69737400 
 3783              	.LASF227:
 3784 05b6 70757064 		.ascii	"pupdr\000"
 3784      7200
 3785              	.LASF217:
 3786 05bc 4F535045 		.ascii	"OSPEEDR\000"
 3786      45445200 
 3787              	.LASF302:
 3788 05c4 474E5520 		.ascii	"GNU C11 7.2.1 20170904 (release) [ARM/embedded-7-br"
 3788      43313120 
 3788      372E322E 
 3788      31203230 
 3788      31373039 
 3789 05f7 616E6368 		.ascii	"anch revision 255204] -mcpu=cortex-m4 -mno-thumb-in"
 3789      20726576 
 3789      6973696F 
 3789      6E203235 
 3789      35323034 
 3790 062a 74657277 		.ascii	"terwork -mthumb -ggdb -O2 -fomit-frame-pointer -fal"
 3790      6F726B20 
 3790      2D6D7468 
 3790      756D6220 
 3790      2D676764 
 3791 065d 69676E2D 		.ascii	"ign-functions=16 -ffunction-sections -fdata-section"
 3791      66756E63 
 3791      74696F6E 
 3791      733D3136 
 3791      202D6666 
 3792 0690 73202D66 		.ascii	"s -fno-common\000"
 3792      6E6F2D63 
 3792      6F6D6D6F 
 3792      6E00
 3793              	.LASF178:
 3794 069e 63665F6F 		.ascii	"cf_off_preempt\000"
 3794      66665F70 
 3794      7265656D 
 3794      707400
 3795              	.LASF291:
 3796 06ad 646D6172 		.ascii	"dmarx\000"
 3796      7800
 3797              	.LASF12:
 3798 06b3 5F5F7569 		.ascii	"__uint32_t\000"
 3798      6E743332 
 3798      5F7400
 3799              	.LASF284:
 3800 06be 5350495F 		.ascii	"SPI_READY\000"
 3800      52454144 
 3800      5900
 3801              	.LASF1:
 3802 06c8 6C6F6E67 		.ascii	"long long int\000"
 3802      206C6F6E 
 3802      6720696E 
 3802      7400
 3803              	.LASF165:
ARM GAS  /var/folders/qd/4mxf5pkd0zdf0b9dd1hp39180000gn/T//cc0Vz3J6.s 			page 73


 3804 06d6 63685F76 		.ascii	"ch_version\000"
 3804      65727369 
 3804      6F6E00
 3805              	.LASF158:
 3806 06e1 6D5F7175 		.ascii	"m_queue\000"
 3806      65756500 
 3807              	.LASF120:
 3808 06e9 53534347 		.ascii	"SSCGR\000"
 3808      5200
 3809              	.LASF66:
 3810 06ef 76745F6E 		.ascii	"vt_next\000"
 3810      65787400 
 3811              	.LASF95:
 3812 06f7 504C4C43 		.ascii	"PLLCFGR\000"
 3812      46475200 
 3813              	.LASF67:
 3814 06ff 76745F70 		.ascii	"vt_prev\000"
 3814      72657600 
 3815              	.LASF129:
 3816 0707 47545052 		.ascii	"GTPR\000"
 3816      00
 3817              	.LASF102:
 3818 070c 41504232 		.ascii	"APB2RSTR\000"
 3818      52535452 
 3818      00
 3819              	.LASF192:
 3820 0715 6576656E 		.ascii	"event_source_t\000"
 3820      745F736F 
 3820      75726365 
 3820      5F7400
 3821              	.LASF275:
 3822 0724 53657269 		.ascii	"SerialDriverVMT\000"
 3822      616C4472 
 3822      69766572 
 3822      564D5400 
 3823              	.LASF290:
 3824 0734 6D757465 		.ascii	"mutex\000"
 3824      7800
 3825              	.LASF83:
 3826 073a 49544D5F 		.ascii	"ITM_RxBuffer\000"
 3826      52784275 
 3826      66666572 
 3826      00
 3827              	.LASF124:
 3828 0747 52584352 		.ascii	"RXCRCR\000"
 3828      435200
 3829              	.LASF262:
 3830 074e 66726571 		.ascii	"frequency\000"
 3830      75656E63 
 3830      7900
 3831              	.LASF232:
 3832 0758 50424461 		.ascii	"PBData\000"
 3832      746100
 3833              	.LASF293:
 3834 075f 7278646D 		.ascii	"rxdmamode\000"
 3834      616D6F64 
 3834      6500
ARM GAS  /var/folders/qd/4mxf5pkd0zdf0b9dd1hp39180000gn/T//cc0Vz3J6.s 			page 74


 3835              	.LASF116:
 3836 0769 41504232 		.ascii	"APB2LPENR\000"
 3836      4C50454E 
 3836      5200
 3837              	.LASF203:
 3838 0773 716E6F74 		.ascii	"qnotify_t\000"
 3838      6966795F 
 3838      7400
 3839              	.LASF42:
 3840 077d 705F7761 		.ascii	"p_waiting\000"
 3840      6974696E 
 3840      6700
 3841              	.LASF271:
 3842 0787 6576656E 		.ascii	"event\000"
 3842      7400
 3843              	.LASF292:
 3844 078d 646D6174 		.ascii	"dmatx\000"
 3844      7800
 3845              	.LASF215:
 3846 0793 4D4F4445 		.ascii	"MODER\000"
 3846      5200
 3847              	.LASF40:
 3848 0799 705F666C 		.ascii	"p_flags\000"
 3848      61677300 
 3849              	.LASF277:
 3850 07a1 72656164 		.ascii	"read\000"
 3850      00
 3851              	.LASF82:
 3852 07a6 69646C65 		.ascii	"idle_thread_wa\000"
 3852      5F746872 
 3852      6561645F 
 3852      776100
 3853              	.LASF0:
 3854 07b5 756E7369 		.ascii	"unsigned int\000"
 3854      676E6564 
 3854      20696E74 
 3854      00
 3855              	.LASF299:
 3856 07c2 53504943 		.ascii	"SPIConfig\000"
 3856      6F6E6669 
 3856      6700
 3857              	.LASF285:
 3858 07cc 5350495F 		.ascii	"SPI_ACTIVE\000"
 3858      41435449 
 3858      564500
 3859              	.LASF21:
 3860 07d7 7274636E 		.ascii	"rtcnt_t\000"
 3860      745F7400 
 3861              	.LASF48:
 3862 07df 705F6D70 		.ascii	"p_mpool\000"
 3862      6F6F6C00 
 3863              	.LASF252:
 3864 07e7 6368616E 		.ascii	"channels\000"
 3864      6E656C73 
 3864      00
 3865              	.LASF41:
 3866 07f0 705F7265 		.ascii	"p_refs\000"
ARM GAS  /var/folders/qd/4mxf5pkd0zdf0b9dd1hp39180000gn/T//cc0Vz3J6.s 			page 75


 3866      667300
 3867              	.LASF167:
 3868 07f7 63685F74 		.ascii	"ch_timesize\000"
 3868      696D6573 
 3868      697A6500 
 3869              	.LASF189:
 3870 0803 656C5F77 		.ascii	"el_wflags\000"
 3870      666C6167 
 3870      7300
 3871              	.LASF254:
 3872 080d 70776D63 		.ascii	"pwmcallback_t\000"
 3872      616C6C62 
 3872      61636B5F 
 3872      7400
 3873              	.LASF187:
 3874 081b 656C5F65 		.ascii	"el_events\000"
 3874      76656E74 
 3874      7300
 3875              	.LASF247:
 3876 0825 50574D44 		.ascii	"PWMDriver\000"
 3876      72697665 
 3876      7200
 3877              	.LASF145:
 3878 082f 6F666673 		.ascii	"offset\000"
 3878      657400
 3879              	.LASF115:
 3880 0836 41504231 		.ascii	"APB1LPENR\000"
 3880      4C50454E 
 3880      5200
 3881              	.LASF238:
 3882 0840 50484461 		.ascii	"PHData\000"
 3882      746100
 3883              	.LASF88:
 3884 0847 444D415F 		.ascii	"DMA_Stream_TypeDef\000"
 3884      53747265 
 3884      616D5F54 
 3884      79706544 
 3884      656600
 3885              	.LASF286:
 3886 085a 5350495F 		.ascii	"SPI_COMPLETE\000"
 3886      434F4D50 
 3886      4C455445 
 3886      00
 3887              	.LASF177:
 3888 0867 63665F6F 		.ascii	"cf_off_refs\000"
 3888      66665F72 
 3888      65667300 
 3889              	.LASF228:
 3890 0873 6166726C 		.ascii	"afrl\000"
 3890      00
 3891              	.LASF99:
 3892 0878 41484233 		.ascii	"AHB3RSTR\000"
 3892      52535452 
 3892      00
 3893              	.LASF31:
 3894 0881 74687265 		.ascii	"thread_t\000"
 3894      61645F74 
ARM GAS  /var/folders/qd/4mxf5pkd0zdf0b9dd1hp39180000gn/T//cc0Vz3J6.s 			page 76


 3894      00
 3895              	.LASF2:
 3896 088a 6C6F6E67 		.ascii	"long double\000"
 3896      20646F75 
 3896      626C6500 
 3897              	.LASF49:
 3898 0896 74687265 		.ascii	"thread_reference_t\000"
 3898      61645F72 
 3898      65666572 
 3898      656E6365 
 3898      5F7400
 3899              	.LASF92:
 3900 08a9 4F505443 		.ascii	"OPTCR1\000"
 3900      523100
 3901              	.LASF47:
 3902 08b0 705F7265 		.ascii	"p_realprio\000"
 3902      616C7072 
 3902      696F00
 3903              	.LASF307:
 3904 08bb 68616C5F 		.ascii	"hal_lld_backup_domain_init\000"
 3904      6C6C645F 
 3904      6261636B 
 3904      75705F64 
 3904      6F6D6169 
 3905              	.LASF134:
 3906 08d6 706F7274 		.ascii	"port_intctx\000"
 3906      5F696E74 
 3906      63747800 
 3907              	.LASF179:
 3908 08e2 63665F6F 		.ascii	"cf_off_time\000"
 3908      66665F74 
 3908      696D6500 
 3909              	.LASF305:
 3910 08ee 73746D33 		.ascii	"stm32_clock_init\000"
 3910      325F636C 
 3910      6F636B5F 
 3910      696E6974 
 3910      00
 3911              	.LASF68:
 3912 08ff 76745F64 		.ascii	"vt_delta\000"
 3912      656C7461 
 3912      00
 3913              	.LASF101:
 3914 0908 41504231 		.ascii	"APB1RSTR\000"
 3914      52535452 
 3914      00
 3915              	.LASF65:
 3916 0911 63685F76 		.ascii	"ch_virtual_timer\000"
 3916      69727475 
 3916      616C5F74 
 3916      696D6572 
 3916      00
 3917              	.LASF156:
 3918 0922 735F636E 		.ascii	"s_cnt\000"
 3918      7400
 3919              	.LASF209:
 3920 0928 73656C66 		.ascii	"selfindex\000"
ARM GAS  /var/folders/qd/4mxf5pkd0zdf0b9dd1hp39180000gn/T//cc0Vz3J6.s 			page 77


 3920      696E6465 
 3920      7800
 3921              	.LASF15:
 3922 0932 6C6F6E67 		.ascii	"long long unsigned int\000"
 3922      206C6F6E 
 3922      6720756E 
 3922      7369676E 
 3922      65642069 
 3923              	.LASF244:
 3924 0949 50574D5F 		.ascii	"PWM_STOP\000"
 3924      53544F50 
 3924      00
 3925              	.LASF231:
 3926 0952 50414461 		.ascii	"PAData\000"
 3926      746100
 3927              	.LASF37:
 3928 0959 705F6F6C 		.ascii	"p_older\000"
 3928      64657200 
 3929              	.LASF17:
 3930 0961 75696E74 		.ascii	"uint16_t\000"
 3930      31365F74 
 3930      00
 3931              	.LASF26:
 3932 096a 6D73675F 		.ascii	"msg_t\000"
 3932      7400
 3933              	.LASF54:
 3934 0970 63685F74 		.ascii	"ch_threads_queue\000"
 3934      68726561 
 3934      64735F71 
 3934      75657565 
 3934      00
 3935              	.LASF28:
 3936 0981 6576656E 		.ascii	"eventflags_t\000"
 3936      74666C61 
 3936      67735F74 
 3936      00
 3937              	.LASF176:
 3938 098e 63665F6F 		.ascii	"cf_off_flags\000"
 3938      66665F66 
 3938      6C616773 
 3938      00
 3939              	.LASF139:
 3940 099b 43434552 		.ascii	"CCER\000"
 3940      00
 3941              	.LASF62:
 3942 09a0 725F6375 		.ascii	"r_current\000"
 3942      7272656E 
 3942      7400
 3943              	.LASF222:
 3944 09aa 41465248 		.ascii	"AFRH\000"
 3944      00
 3945              	.LASF221:
 3946 09af 4146524C 		.ascii	"AFRL\000"
 3946      00
 3947              	.LASF210:
 3948 09b4 76656374 		.ascii	"vector\000"
 3948      6F7200
ARM GAS  /var/folders/qd/4mxf5pkd0zdf0b9dd1hp39180000gn/T//cc0Vz3J6.s 			page 78


 3949              	.LASF163:
 3950 09bb 63685F7A 		.ascii	"ch_zero\000"
 3950      65726F00 
 3951              	.LASF81:
 3952 09c3 6D61696E 		.ascii	"mainthread\000"
 3952      74687265 
 3952      616400
 3953              	.LASF135:
 3954 09ce 534D4352 		.ascii	"SMCR\000"
 3954      00
 3955              	.LASF250:
 3956 09d3 70657269 		.ascii	"period\000"
 3956      6F6400
 3957              	.LASF113:
 3958 09da 41484233 		.ascii	"AHB3LPENR\000"
 3958      4C50454E 
 3958      5200
 3959              	.LASF57:
 3960 09e4 725F7175 		.ascii	"r_queue\000"
 3960      65756500 
 3961              	.LASF270:
 3962 09ec 53657269 		.ascii	"SerialDriver\000"
 3962      616C4472 
 3962      69766572 
 3962      00
 3963              	.LASF216:
 3964 09f9 4F545950 		.ascii	"OTYPER\000"
 3964      455200
 3965              	.LASF237:
 3966 0a00 50474461 		.ascii	"PGData\000"
 3966      746100
 3967              	.LASF195:
 3968 0a07 715F7761 		.ascii	"q_waiting\000"
 3968      6974696E 
 3968      6700
 3969              	.LASF125:
 3970 0a11 54584352 		.ascii	"TXCRCR\000"
 3970      435200
 3971              	.LASF128:
 3972 0a18 5350495F 		.ascii	"SPI_TypeDef\000"
 3972      54797065 
 3972      44656600 
 3973              	.LASF79:
 3974 0a24 726C6973 		.ascii	"rlist\000"
 3974      7400
 3975              	.LASF22:
 3976 0a2a 746D6F64 		.ascii	"tmode_t\000"
 3976      655F7400 
 3977              	.LASF123:
 3978 0a32 43524350 		.ascii	"CRCPR\000"
 3978      5200
 3979              	.LASF269:
 3980 0a38 73647374 		.ascii	"sdstate_t\000"
 3980      6174655F 
 3980      7400
 3981              	.LASF104:
 3982 0a42 41484231 		.ascii	"AHB1ENR\000"
ARM GAS  /var/folders/qd/4mxf5pkd0zdf0b9dd1hp39180000gn/T//cc0Vz3J6.s 			page 79


 3982      454E5200 
 3983              	.LASF268:
 3984 0a4a 53445F52 		.ascii	"SD_READY\000"
 3984      45414459 
 3984      00
 3985              	.LASF106:
 3986 0a53 41484233 		.ascii	"AHB3ENR\000"
 3986      454E5200 
 3987              	.LASF61:
 3988 0a5b 725F6F6C 		.ascii	"r_older\000"
 3988      64657200 
 3989              	.LASF146:
 3990 0a63 746D5F63 		.ascii	"tm_calibration_t\000"
 3990      616C6962 
 3990      72617469 
 3990      6F6E5F74 
 3990      00
 3991              	.LASF98:
 3992 0a74 41484232 		.ascii	"AHB2RSTR\000"
 3992      52535452 
 3992      00
 3993              	.LASF289:
 3994 0a7d 74687265 		.ascii	"thread\000"
 3994      616400
 3995              	.LASF86:
 3996 0a84 4D304152 		.ascii	"M0AR\000"
 3996      00
 3997              	.LASF155:
 3998 0a89 735F7175 		.ascii	"s_queue\000"
 3998      65756500 
 3999              	.LASF245:
 4000 0a91 50574D5F 		.ascii	"PWM_READY\000"
 4000      52454144 
 4000      5900
 4001              	.LASF89:
 4002 0a9b 4B455952 		.ascii	"KEYR\000"
 4002      00
 4003              	.LASF122:
 4004 0aa0 5243435F 		.ascii	"RCC_TypeDef\000"
 4004      54797065 
 4004      44656600 
 4005              	.LASF7:
 4006 0aac 73686F72 		.ascii	"short int\000"
 4006      7420696E 
 4006      7400
 4007              	.LASF190:
 4008 0ab6 6576656E 		.ascii	"event_source\000"
 4008      745F736F 
 4008      75726365 
 4008      00
 4009              	.LASF20:
 4010 0ac3 75696E74 		.ascii	"uint64_t\000"
 4010      36345F74 
 4010      00
 4011              	.LASF259:
 4012 0acc 6D6F6465 		.ascii	"mode\000"
 4012      00
ARM GAS  /var/folders/qd/4mxf5pkd0zdf0b9dd1hp39180000gn/T//cc0Vz3J6.s 			page 80


 4013              	.LASF157:
 4014 0ad1 63685F6D 		.ascii	"ch_mutex\000"
 4014      75746578 
 4014      00
 4015              	.LASF272:
 4016 0ada 69717565 		.ascii	"iqueue\000"
 4016      756500
 4017              	.LASF58:
 4018 0ae1 725F7072 		.ascii	"r_prio\000"
 4018      696F00
 4019              	.LASF75:
 4020 0ae8 63685F73 		.ascii	"ch_system_debug\000"
 4020      79737465 
 4020      6D5F6465 
 4020      62756700 
 4021              	.LASF172:
 4022 0af8 63665F6F 		.ascii	"cf_off_older\000"
 4022      66665F6F 
 4022      6C646572 
 4022      00
 4023              	.LASF193:
 4024 0b05 696F5F71 		.ascii	"io_queue_t\000"
 4024      75657565 
 4024      5F7400
 4025              	.LASF219:
 4026 0b10 42535252 		.ascii	"BSRR\000"
 4026      00
 4027              	.LASF240:
 4028 0b15 50414C43 		.ascii	"PALConfig\000"
 4028      6F6E6669 
 4028      6700
 4029              	.LASF80:
 4030 0b1f 76746C69 		.ascii	"vtlist\000"
 4030      737400
 4031              	.LASF264:
 4032 0b26 50574D43 		.ascii	"PWMConfig\000"
 4032      6F6E6669 
 4032      6700
 4033              	.LASF182:
 4034 0b30 6D757465 		.ascii	"mutex_t\000"
 4034      785F7400 
 4035              	.LASF24:
 4036 0b38 74726566 		.ascii	"trefs_t\000"
 4036      735F7400 
 4037              	.LASF174:
 4038 0b40 63665F6F 		.ascii	"cf_off_stklimit\000"
 4038      66665F73 
 4038      746B6C69 
 4038      6D697400 
 4039              	.LASF93:
 4040 0b50 464C4153 		.ascii	"FLASH_TypeDef\000"
 4040      485F5479 
 4040      70654465 
 4040      6600
 4041              	.LASF50:
 4042 0b5e 74687265 		.ascii	"threads_list_t\000"
 4042      6164735F 
ARM GAS  /var/folders/qd/4mxf5pkd0zdf0b9dd1hp39180000gn/T//cc0Vz3J6.s 			page 81


 4042      6C697374 
 4042      5F7400
 4043              	.LASF265:
 4044 0b6d 50574D44 		.ascii	"PWMD4\000"
 4044      3400
 4045              	.LASF78:
 4046 0b73 63685F73 		.ascii	"ch_system\000"
 4046      79737465 
 4046      6D00
 4047              	.LASF246:
 4048 0b7d 70776D73 		.ascii	"pwmstate_t\000"
 4048      74617465 
 4048      5F7400
 4049              	.LASF140:
 4050 0b88 42445452 		.ascii	"BDTR\000"
 4050      00
 4051              	.LASF19:
 4052 0b8d 75696E74 		.ascii	"uint32_t\000"
 4052      33325F74 
 4052      00
 4053              	.LASF91:
 4054 0b96 4F505443 		.ascii	"OPTCR\000"
 4054      5200
 4055              	.LASF127:
 4056 0b9c 49325350 		.ascii	"I2SPR\000"
 4056      5200
 4057              	.LASF204:
 4058 0ba2 696E7075 		.ascii	"input_queue_t\000"
 4058      745F7175 
 4058      6575655F 
 4058      7400
 4059              	.LASF94:
 4060 0bb0 5057525F 		.ascii	"PWR_TypeDef\000"
 4060      54797065 
 4060      44656600 
 4061              	.LASF236:
 4062 0bbc 50464461 		.ascii	"PFData\000"
 4062      746100
 4063              	.LASF184:
 4064 0bc3 6576656E 		.ascii	"event_listener\000"
 4064      745F6C69 
 4064      7374656E 
 4064      657200
 4065              	.LASF147:
 4066 0bd2 7264796D 		.ascii	"rdymsg\000"
 4066      736700
 4067              	.LASF73:
 4068 0bd9 76745F6C 		.ascii	"vt_lasttime\000"
 4068      61737474 
 4068      696D6500 
 4069              	.LASF9:
 4070 0be5 73686F72 		.ascii	"short unsigned int\000"
 4070      7420756E 
 4070      7369676E 
 4070      65642069 
 4070      6E7400
 4071              	.LASF77:
ARM GAS  /var/folders/qd/4mxf5pkd0zdf0b9dd1hp39180000gn/T//cc0Vz3J6.s 			page 82


 4072 0bf8 63685F73 		.ascii	"ch_system_t\000"
 4072      79737465 
 4072      6D5F7400 
 4073              	.LASF180:
 4074 0c04 63686465 		.ascii	"chdebug_t\000"
 4074      6275675F 
 4074      7400
 4075              	.LASF287:
 4076 0c0e 73706973 		.ascii	"spistate_t\000"
 4076      74617465 
 4076      5F7400
 4077              	.LASF164:
 4078 0c19 63685F73 		.ascii	"ch_size\000"
 4078      697A6500 
 4079              	.LASF205:
 4080 0c21 6F757470 		.ascii	"output_queue_t\000"
 4080      75745F71 
 4080      75657565 
 4080      5F7400
 4081              	.LASF10:
 4082 0c30 5F5F696E 		.ascii	"__int32_t\000"
 4082      7433325F 
 4082      7400
 4083              	.LASF267:
 4084 0c3a 53445F53 		.ascii	"SD_STOP\000"
 4084      544F5000 
 4085              	.LASF85:
 4086 0c42 4E445452 		.ascii	"NDTR\000"
 4086      00
 4087              	.LASF207:
 4088 0c47 69666372 		.ascii	"ifcr\000"
 4088      00
 4089              	.LASF298:
 4090 0c4c 73737061 		.ascii	"sspad\000"
 4090      6400
 4091              	.LASF38:
 4092 0c52 705F6E61 		.ascii	"p_name\000"
 4092      6D6500
 4093              	.LASF160:
 4094 0c59 6D5F6E65 		.ascii	"m_next\000"
 4094      787400
 4095              	.LASF294:
 4096 0c60 7478646D 		.ascii	"txdmamode\000"
 4096      616D6F64 
 4096      6500
 4097              	.LASF304:
 4098 0c6a 2F557365 		.ascii	"/Users/nicolas/Library/Mobile Documents/com~apple~C"
 4098      72732F6E 
 4098      69636F6C 
 4098      61732F4C 
 4098      69627261 
 4099 0c9d 6C6F7564 		.ascii	"loudDocs/Projects/Cours/epuck_project/Sources/lib/C"
 4099      446F6373 
 4099      2F50726F 
 4099      6A656374 
 4099      732F436F 
 4100 0cd0 68696269 		.ascii	"hibiOS/demos/STM32/RT-STM32F407-DISCOVERY-G++/\000"
ARM GAS  /var/folders/qd/4mxf5pkd0zdf0b9dd1hp39180000gn/T//cc0Vz3J6.s 			page 83


 4100      4F532F64 
 4100      656D6F73 
 4100      2F53544D 
 4100      33322F52 
 4101              	.LASF44:
 4102 0cff 705F6D73 		.ascii	"p_msg\000"
 4102      6700
 4103              	.LASF186:
 4104 0d05 656C5F6C 		.ascii	"el_listener\000"
 4104      69737465 
 4104      6E657200 
 4105              	.LASF39:
 4106 0d11 705F7374 		.ascii	"p_state\000"
 4106      61746500 
 4107              		.ident	"GCC: (GNU Tools for Arm Embedded Processors 7-2017-q4-major) 7.2.1 20170904 (release) [ARM
ARM GAS  /var/folders/qd/4mxf5pkd0zdf0b9dd1hp39180000gn/T//cc0Vz3J6.s 			page 84


DEFINED SYMBOLS
                            *ABS*:0000000000000000 hal_lld.c
/var/folders/qd/4mxf5pkd0zdf0b9dd1hp39180000gn/T//cc0Vz3J6.s:16     .text.hal_lld_init:0000000000000000 $t
/var/folders/qd/4mxf5pkd0zdf0b9dd1hp39180000gn/T//cc0Vz3J6.s:24     .text.hal_lld_init:0000000000000000 hal_lld_init
/var/folders/qd/4mxf5pkd0zdf0b9dd1hp39180000gn/T//cc0Vz3J6.s:107    .text.hal_lld_init:000000000000005c $d
/var/folders/qd/4mxf5pkd0zdf0b9dd1hp39180000gn/T//cc0Vz3J6.s:113    .text.stm32_clock_init:0000000000000000 $t
/var/folders/qd/4mxf5pkd0zdf0b9dd1hp39180000gn/T//cc0Vz3J6.s:121    .text.stm32_clock_init:0000000000000000 stm32_clock_init
/var/folders/qd/4mxf5pkd0zdf0b9dd1hp39180000gn/T//cc0Vz3J6.s:249    .text.stm32_clock_init:00000000000000ac $d
/var/folders/qd/4mxf5pkd0zdf0b9dd1hp39180000gn/T//cc0Vz3J6.s:262    .data.SystemCoreClock:0000000000000000 SystemCoreClock
/var/folders/qd/4mxf5pkd0zdf0b9dd1hp39180000gn/T//cc0Vz3J6.s:259    .data.SystemCoreClock:0000000000000000 $d

UNDEFINED SYMBOLS
dmaInit
