ARM GAS  /var/folders/qd/4mxf5pkd0zdf0b9dd1hp39180000gn/T//ccLoQrsQ.s 			page 1


   1              		.cpu cortex-m4
   2              		.eabi_attribute 20, 1
   3              		.eabi_attribute 21, 1
   4              		.eabi_attribute 23, 3
   5              		.eabi_attribute 24, 1
   6              		.eabi_attribute 25, 1
   7              		.eabi_attribute 26, 1
   8              		.eabi_attribute 30, 2
   9              		.eabi_attribute 34, 1
  10              		.eabi_attribute 18, 4
  11              		.file	"main.cpp"
  12              		.text
  13              	.Ltext0:
  14              		.cfi_sections	.debug_frame
  15              		.section	.text._ZN10chibios_rt16BaseStaticThreadILi128EE5startEm,"axG",%progbits,_ZN10chibios_rt16
  16              		.align	1
  17              		.p2align 4,,15
  18              		.weak	_ZN10chibios_rt16BaseStaticThreadILi128EE5startEm
  19              		.syntax unified
  20              		.thumb
  21              		.thumb_func
  22              		.fpu softvfp
  23              		.type	_ZN10chibios_rt16BaseStaticThreadILi128EE5startEm, %function
  24              	_ZN10chibios_rt16BaseStaticThreadILi128EE5startEm:
  25              		.fnstart
  26              	.LFB310:
  27              		.file 1 "../../../os/various/cpp_wrappers/ch.hpp"
  28              		.loc 1 905 0
  29              		.cfi_startproc
  30              		@ args = 0, pretend = 0, frame = 0
  31              		@ frame_needed = 0, uses_anonymous_args = 0
  32              	.LVL0:
  33 0000 30B5     		push	{r4, r5, lr}
  34              		.save {r4, r5, lr}
  35              		.cfi_def_cfa_offset 12
  36              		.cfi_offset 4, -12
  37              		.cfi_offset 5, -8
  38              		.cfi_offset 14, -4
  39              		.pad #12
  40 0002 83B0     		sub	sp, sp, #12
  41              		.cfi_def_cfa_offset 24
  42              		.loc 1 905 0
  43 0004 0446     		mov	r4, r0
  44 0006 0D46     		mov	r5, r1
  45              		.loc 1 908 0
  46 0008 0091     		str	r1, [sp]
  47 000a 074B     		ldr	r3, .L4
  48 000c 01F10800 		add	r0, r1, #8
  49              	.LVL1:
  50 0010 4FF4A471 		mov	r1, #328
  51              	.LVL2:
  52 0014 FFF7FEFF 		bl	chThdCreateStatic
  53              	.LVL3:
  54              	.LBB97:
  55              	.LBB98:
  56              		.loc 1 397 0
  57 0018 044A     		ldr	r2, .L4+4
ARM GAS  /var/folders/qd/4mxf5pkd0zdf0b9dd1hp39180000gn/T//ccLoQrsQ.s 			page 2


  58              	.LBE98:
  59              	.LBE97:
  60              		.loc 1 908 0
  61 001a 6860     		str	r0, [r5, #4]
  62              	.LVL4:
  63 001c 0346     		mov	r3, r0
  64              		.loc 1 910 0
  65 001e 2046     		mov	r0, r4
  66              	.LBB100:
  67              	.LBB99:
  68              		.loc 1 397 0
  69 0020 C4E90023 		strd	r2, r3, [r4]
  70              	.LBE99:
  71              	.LBE100:
  72              		.loc 1 910 0
  73 0024 03B0     		add	sp, sp, #12
  74              		.cfi_def_cfa_offset 12
  75              		@ sp needed
  76 0026 30BD     		pop	{r4, r5, pc}
  77              	.LVL5:
  78              	.L5:
  79              		.align	2
  80              	.L4:
  81 0028 00000000 		.word	_ZN10chibios_rt10_thd_startEPv
  82 002c 08000000 		.word	_ZTVN10chibios_rt15ThreadReferenceE+8
  83              		.cfi_endproc
  84              	.LFE310:
  85              		.fnend
  86              		.size	_ZN10chibios_rt16BaseStaticThreadILi128EE5startEm, .-_ZN10chibios_rt16BaseStaticThreadILi128
  87              		.section	.text._ZN10chibios_rt16BaseStaticThreadILi256EE5startEm,"axG",%progbits,_ZN10chibios_rt16
  88              		.align	1
  89              		.p2align 4,,15
  90              		.weak	_ZN10chibios_rt16BaseStaticThreadILi256EE5startEm
  91              		.syntax unified
  92              		.thumb
  93              		.thumb_func
  94              		.fpu softvfp
  95              		.type	_ZN10chibios_rt16BaseStaticThreadILi256EE5startEm, %function
  96              	_ZN10chibios_rt16BaseStaticThreadILi256EE5startEm:
  97              		.fnstart
  98              	.LFB314:
  99              		.loc 1 905 0
 100              		.cfi_startproc
 101              		@ args = 0, pretend = 0, frame = 0
 102              		@ frame_needed = 0, uses_anonymous_args = 0
 103              	.LVL6:
 104 0000 30B5     		push	{r4, r5, lr}
 105              		.save {r4, r5, lr}
 106              		.cfi_def_cfa_offset 12
 107              		.cfi_offset 4, -12
 108              		.cfi_offset 5, -8
 109              		.cfi_offset 14, -4
 110              		.pad #12
 111 0002 83B0     		sub	sp, sp, #12
 112              		.cfi_def_cfa_offset 24
 113              		.loc 1 905 0
 114 0004 0446     		mov	r4, r0
ARM GAS  /var/folders/qd/4mxf5pkd0zdf0b9dd1hp39180000gn/T//ccLoQrsQ.s 			page 3


 115 0006 0D46     		mov	r5, r1
 116              		.loc 1 908 0
 117 0008 0091     		str	r1, [sp]
 118 000a 074B     		ldr	r3, .L8
 119 000c 01F10800 		add	r0, r1, #8
 120              	.LVL7:
 121 0010 4FF4E471 		mov	r1, #456
 122              	.LVL8:
 123 0014 FFF7FEFF 		bl	chThdCreateStatic
 124              	.LVL9:
 125              	.LBB101:
 126              	.LBB102:
 127              		.loc 1 397 0
 128 0018 044A     		ldr	r2, .L8+4
 129              	.LBE102:
 130              	.LBE101:
 131              		.loc 1 908 0
 132 001a 6860     		str	r0, [r5, #4]
 133              	.LVL10:
 134 001c 0346     		mov	r3, r0
 135              		.loc 1 910 0
 136 001e 2046     		mov	r0, r4
 137              	.LBB104:
 138              	.LBB103:
 139              		.loc 1 397 0
 140 0020 C4E90023 		strd	r2, r3, [r4]
 141              	.LBE103:
 142              	.LBE104:
 143              		.loc 1 910 0
 144 0024 03B0     		add	sp, sp, #12
 145              		.cfi_def_cfa_offset 12
 146              		@ sp needed
 147 0026 30BD     		pop	{r4, r5, pc}
 148              	.LVL11:
 149              	.L9:
 150              		.align	2
 151              	.L8:
 152 0028 00000000 		.word	_ZN10chibios_rt10_thd_startEPv
 153 002c 08000000 		.word	_ZTVN10chibios_rt15ThreadReferenceE+8
 154              		.cfi_endproc
 155              	.LFE314:
 156              		.fnend
 157              		.size	_ZN10chibios_rt16BaseStaticThreadILi256EE5startEm, .-_ZN10chibios_rt16BaseStaticThreadILi256
 158              		.section	.text.startup._ZN15SequencerThread4mainEv,"axG",%progbits,_ZN15SequencerThread4mainEv,com
 159              		.align	1
 160              		.p2align 4,,15
 161              		.weak	_ZN15SequencerThread4mainEv
 162              		.syntax unified
 163              		.thumb
 164              		.thumb_func
 165              		.fpu softvfp
 166              		.type	_ZN15SequencerThread4mainEv, %function
 167              	_ZN15SequencerThread4mainEv:
 168              		.fnstart
 169              	.LFB295:
 170              		.file 2 "main.cpp"
 171              		.loc 2 90 0
ARM GAS  /var/folders/qd/4mxf5pkd0zdf0b9dd1hp39180000gn/T//ccLoQrsQ.s 			page 4


 172              		.cfi_startproc
 173              		@ args = 0, pretend = 0, frame = 0
 174              		@ frame_needed = 0, uses_anonymous_args = 0
 175              	.LVL12:
 176 0000 F8B5     		push	{r3, r4, r5, r6, r7, lr}
 177              		.save {r3, r4, r5, r6, r7, lr}
 178              		.cfi_def_cfa_offset 24
 179              		.cfi_offset 3, -24
 180              		.cfi_offset 4, -20
 181              		.cfi_offset 5, -16
 182              		.cfi_offset 6, -12
 183              		.cfi_offset 7, -8
 184              		.cfi_offset 14, -4
 185              		.loc 2 90 0
 186 0002 0446     		mov	r4, r0
 187              		.loc 2 92 0
 188 0004 1748     		ldr	r0, .L21
 189              	.LVL13:
 190              		.loc 2 108 0
 191 0006 184D     		ldr	r5, .L21+4
 192              		.loc 2 97 0
 193 0008 184E     		ldr	r6, .L21+8
 194              		.loc 2 92 0
 195 000a FFF7FEFF 		bl	_ZN10chibios_rt10BaseThread7setNameEPKc
 196              	.LVL14:
 197 000e D4F85431 		ldr	r3, [r4, #340]
 198              		.loc 2 97 0
 199 0012 42F21077 		movw	r7, #10000
 200              	.L11:
 201              		.loc 2 95 0
 202 0016 1A78     		ldrb	r2, [r3]	@ zero_extendqisi2
 203 0018 042A     		cmp	r2, #4
 204 001a 06D8     		bhi	.L12
 205 001c DFE802F0 		tbb	[pc, r2]
 206              	.L14:
 207 0020 0D       		.byte	(.L13-.L14)/2
 208 0021 1A       		.byte	(.L15-.L14)/2
 209 0022 0C       		.byte	(.L10-.L14)/2
 210 0023 09       		.byte	(.L17-.L14)/2
 211 0024 03       		.byte	(.L18-.L14)/2
 212 0025 00       		.p2align 1
 213              	.L18:
 214              		.loc 2 108 0
 215 0026 9A88     		ldrh	r2, [r3, #4]
 216 0028 2A83     		strh	r2, [r5, #24]	@ movhi
 217              	.L12:
 218              		.loc 2 111 0
 219 002a 0833     		adds	r3, r3, #8
 220 002c C4F85431 		str	r3, [r4, #340]
 221 0030 F1E7     		b	.L11
 222              	.L17:
 223              		.loc 2 105 0
 224 0032 9A88     		ldrh	r2, [r3, #4]
 225 0034 6A83     		strh	r2, [r5, #26]	@ movhi
 226              		.loc 2 106 0
 227 0036 F8E7     		b	.L12
 228              	.L10:
ARM GAS  /var/folders/qd/4mxf5pkd0zdf0b9dd1hp39180000gn/T//ccLoQrsQ.s 			page 5


 229              		.loc 2 113 0
 230 0038 F8BD     		pop	{r3, r4, r5, r6, r7, pc}
 231              	.LVL15:
 232              	.L13:
 233              		.loc 2 97 0
 234 003a 5868     		ldr	r0, [r3, #4]
 235 003c 07FB00F0 		mul	r0, r7, r0
 236 0040 00F2E730 		addw	r0, r0, #999
 237 0044 A6FB0030 		umull	r3, r0, r6, r0
 238 0048 8009     		lsrs	r0, r0, #6
 239 004a FFF7FEFF 		bl	_ZN10chibios_rt10BaseThread5sleepEm
 240              	.LVL16:
 241 004e D4F85431 		ldr	r3, [r4, #340]
 242              		.loc 2 98 0
 243 0052 EAE7     		b	.L12
 244              	.L15:
 245              		.loc 2 100 0 discriminator 1
 246 0054 5A68     		ldr	r2, [r3, #4]
 247 0056 D4F85031 		ldr	r3, [r4, #336]
 248 005a 03EBC203 		add	r3, r3, r2, lsl #3
 249 005e C4F85431 		str	r3, [r4, #340]
 250              		.loc 2 101 0 discriminator 1
 251 0062 D8E7     		b	.L11
 252              	.L22:
 253              		.align	2
 254              	.L21:
 255 0064 00000000 		.word	.LC0
 256 0068 000C0240 		.word	1073875968
 257 006c D34D6210 		.word	274877907
 258              		.cfi_endproc
 259              	.LFE295:
 260              		.fnend
 261              		.size	_ZN15SequencerThread4mainEv, .-_ZN15SequencerThread4mainEv
 262              		.section	.text.startup._ZN12TesterThread4mainEv,"axG",%progbits,_ZN12TesterThread4mainEv,comdat
 263              		.align	1
 264              		.p2align 4,,15
 265              		.weak	_ZN12TesterThread4mainEv
 266              		.syntax unified
 267              		.thumb
 268              		.thumb_func
 269              		.fpu softvfp
 270              		.type	_ZN12TesterThread4mainEv, %function
 271              	_ZN12TesterThread4mainEv:
 272              		.fnstart
 273              	.LFB299:
 274              		.loc 2 128 0
 275              		.cfi_startproc
 276              		@ args = 0, pretend = 0, frame = 0
 277              		@ frame_needed = 0, uses_anonymous_args = 0
 278              	.LVL17:
 279 0000 08B5     		push	{r3, lr}
 280              		.save {r3, lr}
 281              		.cfi_def_cfa_offset 8
 282              		.cfi_offset 3, -8
 283              		.cfi_offset 14, -4
 284              		.loc 2 130 0
 285 0002 0648     		ldr	r0, .L25
ARM GAS  /var/folders/qd/4mxf5pkd0zdf0b9dd1hp39180000gn/T//ccLoQrsQ.s 			page 6


 286              	.LVL18:
 287 0004 FFF7FEFF 		bl	_ZN10chibios_rt10BaseThread7setNameEPKc
 288              	.LVL19:
 289              		.loc 2 132 0
 290 0008 0548     		ldr	r0, .L25+4
 291 000a FFF7FEFF 		bl	TestThread
 292              	.LVL20:
 293              		.loc 2 133 0
 294 000e 054B     		ldr	r3, .L25+8
 295 0010 1878     		ldrb	r0, [r3]	@ zero_extendqisi2
 296              		.loc 2 134 0
 297 0012 BDE80840 		pop	{r3, lr}
 298              		.cfi_restore 14
 299              		.cfi_restore 3
 300              		.cfi_def_cfa_offset 0
 301              		.loc 2 133 0
 302 0016 FFF7FEBF 		b	_ZN10chibios_rt10BaseThread4exitEl
 303              	.LVL21:
 304              	.L26:
 305 001a 00BF     		.align	2
 306              	.L25:
 307 001c 00000000 		.word	.LC1
 308 0020 00000000 		.word	SD2
 309 0024 00000000 		.word	test_global_fail
 310              		.cfi_endproc
 311              	.LFE299:
 312              		.fnend
 313              		.size	_ZN12TesterThread4mainEv, .-_ZN12TesterThread4mainEv
 314              		.section	.text.startup.main,"ax",%progbits
 315              		.align	1
 316              		.p2align 4,,15
 317              		.global	main
 318              		.syntax unified
 319              		.thumb
 320              		.thumb_func
 321              		.fpu softvfp
 322              		.type	main, %function
 323              	main:
 324              		.fnstart
 325              	.LFB303:
 326              		.loc 2 151 0
 327              		.cfi_startproc
 328              		@ args = 0, pretend = 0, frame = 0
 329              		@ frame_needed = 0, uses_anonymous_args = 0
 330 0000 F0B5     		push	{r4, r5, r6, r7, lr}
 331              		.save {r4, r5, r6, r7, lr}
 332              		.cfi_def_cfa_offset 20
 333              		.cfi_offset 4, -20
 334              		.cfi_offset 5, -16
 335              		.cfi_offset 6, -12
 336              		.cfi_offset 7, -8
 337              		.cfi_offset 14, -4
 338              		.pad #12
 339 0002 83B0     		sub	sp, sp, #12
 340              		.cfi_def_cfa_offset 32
 341              		.loc 2 160 0
 342 0004 FFF7FEFF 		bl	halInit
ARM GAS  /var/folders/qd/4mxf5pkd0zdf0b9dd1hp39180000gn/T//ccLoQrsQ.s 			page 7


 343              	.LVL22:
 344              	.LBB105:
 345              	.LBB106:
 346              		.loc 1 60 0
 347 0008 FFF7FEFF 		bl	chSysInit
 348              	.LVL23:
 349              	.LBE106:
 350              	.LBE105:
 351              		.loc 2 167 0
 352 000c 0021     		movs	r1, #0
 353 000e 2A48     		ldr	r0, .L34
 354              	.LBB107:
 355              	.LBB108:
 356              		.loc 1 908 0
 357 0010 2A4C     		ldr	r4, .L34+4
 358              	.LBE108:
 359              	.LBE107:
 360              	.LBB111:
 361              	.LBB112:
 362 0012 2B4D     		ldr	r5, .L34+8
 363              	.LBE112:
 364              	.LBE111:
 365              	.LBB116:
 366              	.LBB117:
 367 0014 2B4E     		ldr	r6, .L34+12
 368              	.LBE117:
 369              	.LBE116:
 370              	.LBB120:
 371              	.LBB121:
 372 0016 2C4F     		ldr	r7, .L34+16
 373              	.LBE121:
 374              	.LBE120:
 375              		.loc 2 167 0
 376 0018 FFF7FEFF 		bl	sdStart
 377              	.LVL24:
 378              		.loc 2 168 0
 379 001c 40F28232 		movw	r2, #898
 380 0020 0421     		movs	r1, #4
 381 0022 2A48     		ldr	r0, .L34+20
 382 0024 FFF7FEFF 		bl	_pal_lld_setgroupmode
 383              	.LVL25:
 384              		.loc 2 169 0
 385 0028 40F28232 		movw	r2, #898
 386 002c 0821     		movs	r1, #8
 387 002e 2748     		ldr	r0, .L34+20
 388 0030 FFF7FEFF 		bl	_pal_lld_setgroupmode
 389              	.LVL26:
 390              	.LBB124:
 391              	.LBB109:
 392              		.loc 1 908 0
 393 0034 0094     		str	r4, [sp]
 394 0036 04F10800 		add	r0, r4, #8
 395 003a 234B     		ldr	r3, .L34+16
 396 003c 4A22     		movs	r2, #74
 397 003e 4FF4A471 		mov	r1, #328
 398 0042 FFF7FEFF 		bl	chThdCreateStatic
 399              	.LVL27:
ARM GAS  /var/folders/qd/4mxf5pkd0zdf0b9dd1hp39180000gn/T//ccLoQrsQ.s 			page 8


 400              	.LBE109:
 401              	.LBE124:
 402              	.LBB125:
 403              	.LBB113:
 404 0046 0095     		str	r5, [sp]
 405 0048 1F4B     		ldr	r3, .L34+16
 406              	.LBE113:
 407              	.LBE125:
 408              	.LBB126:
 409              	.LBB110:
 410 004a 6060     		str	r0, [r4, #4]
 411              	.LVL28:
 412              	.LBE110:
 413              	.LBE126:
 414              	.LBB127:
 415              	.LBB114:
 416 004c 4A22     		movs	r2, #74
 417 004e 05F10800 		add	r0, r5, #8
 418 0052 4FF4A471 		mov	r1, #328
 419 0056 FFF7FEFF 		bl	chThdCreateStatic
 420              	.LVL29:
 421              	.LBE114:
 422              	.LBE127:
 423              	.LBB128:
 424              	.LBB129:
 425 005a 1D4C     		ldr	r4, .L34+24
 426 005c 0094     		str	r4, [sp]
 427 005e 1A4B     		ldr	r3, .L34+16
 428              	.LBE129:
 429              	.LBE128:
 430              	.LBB132:
 431              	.LBB115:
 432 0060 6860     		str	r0, [r5, #4]
 433              	.LVL30:
 434              	.LBE115:
 435              	.LBE132:
 436              	.LBB133:
 437              	.LBB130:
 438 0062 4A22     		movs	r2, #74
 439 0064 04F10800 		add	r0, r4, #8
 440 0068 4FF4A471 		mov	r1, #328
 441 006c FFF7FEFF 		bl	chThdCreateStatic
 442              	.LVL31:
 443              	.LBE130:
 444              	.LBE133:
 445              	.LBB134:
 446              	.LBB118:
 447 0070 0096     		str	r6, [sp]
 448 0072 154B     		ldr	r3, .L34+16
 449              	.LBE118:
 450              	.LBE134:
 451              	.LBB135:
 452              	.LBB131:
 453 0074 6060     		str	r0, [r4, #4]
 454              	.LVL32:
 455              	.LBE131:
 456              	.LBE135:
ARM GAS  /var/folders/qd/4mxf5pkd0zdf0b9dd1hp39180000gn/T//ccLoQrsQ.s 			page 9


 457              	.LBB136:
 458              	.LBB119:
 459 0076 4A22     		movs	r2, #74
 460 0078 06F10800 		add	r0, r6, #8
 461 007c 4FF4A471 		mov	r1, #328
 462 0080 FFF7FEFF 		bl	chThdCreateStatic
 463              	.LVL33:
 464 0084 134D     		ldr	r5, .L34+28
 465 0086 7060     		str	r0, [r6, #4]
 466              	.LVL34:
 467              	.LBE119:
 468              	.LBE136:
 469              		.loc 2 184 0
 470 0088 104C     		ldr	r4, .L34+20
 471              	.LBB137:
 472              	.LBB122:
 473              		.loc 1 908 0
 474 008a 05F10806 		add	r6, r5, #8
 475 008e 03E0     		b	.L29
 476              	.L28:
 477              	.LBE122:
 478              	.LBE137:
 479              		.loc 2 188 0
 480 0090 41F28830 		movw	r0, #5000
 481 0094 FFF7FEFF 		bl	_ZN10chibios_rt10BaseThread5sleepEm
 482              	.LVL35:
 483              	.L29:
 484              		.loc 2 184 0
 485 0098 2369     		ldr	r3, [r4, #16]
 486 009a DB07     		lsls	r3, r3, #31
 487 009c F8D5     		bpl	.L28
 488              	.LVL36:
 489              	.LBB138:
 490              	.LBB123:
 491              		.loc 1 908 0
 492 009e 0095     		str	r5, [sp]
 493 00a0 3B46     		mov	r3, r7
 494 00a2 4022     		movs	r2, #64
 495 00a4 4FF4E471 		mov	r1, #456
 496 00a8 3046     		mov	r0, r6
 497 00aa FFF7FEFF 		bl	chThdCreateStatic
 498              	.LVL37:
 499 00ae 6860     		str	r0, [r5, #4]
 500              	.LVL38:
 501              	.LBE123:
 502              	.LBE138:
 503              		.loc 2 186 0
 504 00b0 0848     		ldr	r0, .L34+28
 505 00b2 FFF7FEFF 		bl	_ZN10chibios_rt15ThreadReference4waitEv
 506              	.LVL39:
 507 00b6 EBE7     		b	.L28
 508              	.L35:
 509              		.align	2
 510              	.L34:
 511 00b8 00000000 		.word	SD2
 512 00bc 00000000 		.word	.LANCHOR0
 513 00c0 00000000 		.word	.LANCHOR1
ARM GAS  /var/folders/qd/4mxf5pkd0zdf0b9dd1hp39180000gn/T//ccLoQrsQ.s 			page 10


 514 00c4 00000000 		.word	.LANCHOR3
 515 00c8 00000000 		.word	_ZN10chibios_rt10_thd_startEPv
 516 00cc 00000240 		.word	1073872896
 517 00d0 00000000 		.word	.LANCHOR2
 518 00d4 00000000 		.word	.LANCHOR4
 519              		.cfi_endproc
 520              	.LFE303:
 521              		.fnend
 522              		.size	main, .-main
 523              		.section	.text.startup._GLOBAL__sub_I_main,"ax",%progbits
 524              		.align	1
 525              		.p2align 4,,15
 526              		.syntax unified
 527              		.thumb
 528              		.thumb_func
 529              		.fpu softvfp
 530              		.type	_GLOBAL__sub_I_main, %function
 531              	_GLOBAL__sub_I_main:
 532              		.fnstart
 533              	.LFB316:
 534              		.loc 2 192 0
 535              		.cfi_startproc
 536              		@ args = 0, pretend = 0, frame = 0
 537              		@ frame_needed = 0, uses_anonymous_args = 0
 538              	.LVL40:
 539 0000 2DE9F041 		push	{r4, r5, r6, r7, r8, lr}
 540              		.cfi_def_cfa_offset 24
 541              		.cfi_offset 4, -24
 542              		.cfi_offset 5, -20
 543              		.cfi_offset 6, -16
 544              		.cfi_offset 7, -12
 545              		.cfi_offset 8, -8
 546              		.cfi_offset 14, -4
 547              	.LBB170:
 548              	.LBB171:
 549              	.LBB172:
 550              	.LBB173:
 551              	.LBB174:
 552              	.LBB175:
 553              	.LBB176:
 554              		.loc 1 892 0
 555 0004 194C     		ldr	r4, .L38
 556              	.LBE176:
 557              	.LBE175:
 558              	.LBE174:
 559              	.LBE173:
 560              	.LBE172:
 561              	.LBB181:
 562              	.LBB182:
 563              	.LBB183:
 564              	.LBB184:
 565              	.LBB185:
 566              	.LBB186:
 567 0006 DFF88C80 		ldr	r8, .L38+40
 568              	.LBE186:
 569              	.LBE185:
 570              	.LBE184:
ARM GAS  /var/folders/qd/4mxf5pkd0zdf0b9dd1hp39180000gn/T//ccLoQrsQ.s 			page 11


 571              	.LBE183:
 572              	.LBE182:
 573              	.LBE181:
 574              	.LBB198:
 575              	.LBB199:
 576              	.LBB200:
 577              	.LBB201:
 578              	.LBB202:
 579              	.LBB203:
 580 000a 194F     		ldr	r7, .L38+4
 581              	.LBE203:
 582              	.LBE202:
 583              	.LBE201:
 584              	.LBE200:
 585              	.LBE199:
 586              	.LBE198:
 587              	.LBB216:
 588              	.LBB217:
 589              	.LBB218:
 590              	.LBB219:
 591              	.LBB220:
 592              	.LBB221:
 593 000c 194E     		ldr	r6, .L38+8
 594              	.LBE221:
 595              	.LBE220:
 596              	.LBE219:
 597              	.LBE218:
 598              	.LBE217:
 599              	.LBE216:
 600              	.LBB234:
 601              	.LBB194:
 602              	.LBB190:
 603              		.loc 2 116 0
 604 000e 1A4D     		ldr	r5, .L38+12
 605              	.LBE190:
 606              	.LBE194:
 607              	.LBE234:
 608              	.LBB235:
 609              	.LBB180:
 610              	.LBB179:
 611              	.LBB178:
 612              	.LBB177:
 613              		.loc 1 892 0
 614 0010 2046     		mov	r0, r4
 615 0012 FFF7FEFF 		bl	_ZN10chibios_rt10BaseThreadC2Ev
 616              	.LVL41:
 617              	.LBE177:
 618              	.LBE178:
 619              	.LBE179:
 620              		.loc 2 137 0
 621 0016 194B     		ldr	r3, .L38+16
 622 0018 2360     		str	r3, [r4]
 623              	.LVL42:
 624              	.LBE180:
 625              	.LBE235:
 626              	.LBB236:
 627              	.LBB195:
ARM GAS  /var/folders/qd/4mxf5pkd0zdf0b9dd1hp39180000gn/T//ccLoQrsQ.s 			page 12


 628              	.LBB191:
 629              	.LBB189:
 630              	.LBB188:
 631              	.LBB187:
 632              		.loc 1 892 0
 633 001a 4046     		mov	r0, r8
 634 001c FFF7FEFF 		bl	_ZN10chibios_rt10BaseThreadC2Ev
 635              	.LVL43:
 636              	.LBE187:
 637              	.LBE188:
 638              	.LBE189:
 639              	.LBE191:
 640              	.LBE195:
 641              	.LBE236:
 642              	.LBB237:
 643              	.LBB238:
 644              	.LBB239:
 645              	.LBB240:
 646              	.LBB241:
 647              	.LBB242:
 648 0020 174C     		ldr	r4, .L38+20
 649              	.LBE242:
 650              	.LBE241:
 651              	.LBE240:
 652              	.LBE239:
 653              	.LBE238:
 654              	.LBE237:
 655              	.LBB253:
 656              	.LBB196:
 657              	.LBB192:
 658              		.loc 2 118 0
 659 0022 184B     		ldr	r3, .L38+24
 660 0024 C8F85431 		str	r3, [r8, #340]
 661              	.LBE192:
 662              	.LBE196:
 663              	.LBE253:
 664              	.LBB254:
 665              	.LBB213:
 666              	.LBB210:
 667              	.LBB208:
 668              	.LBB206:
 669              	.LBB204:
 670              		.loc 1 892 0
 671 0028 3846     		mov	r0, r7
 672              	.LBE204:
 673              	.LBE206:
 674              	.LBE208:
 675              	.LBE210:
 676              	.LBE213:
 677              	.LBE254:
 678              	.LBB255:
 679              	.LBB197:
 680              	.LBB193:
 681              		.loc 2 118 0
 682 002a C8F85031 		str	r3, [r8, #336]
 683              	.LVL44:
 684              		.loc 2 116 0
ARM GAS  /var/folders/qd/4mxf5pkd0zdf0b9dd1hp39180000gn/T//ccLoQrsQ.s 			page 13


 685 002e C8F80050 		str	r5, [r8]
 686              	.LBE193:
 687              	.LBE197:
 688              	.LBE255:
 689              	.LBB256:
 690              	.LBB214:
 691              	.LBB211:
 692              	.LBB209:
 693              	.LBB207:
 694              	.LBB205:
 695              		.loc 1 892 0
 696 0032 FFF7FEFF 		bl	_ZN10chibios_rt10BaseThreadC2Ev
 697              	.LVL45:
 698              	.LBE205:
 699              	.LBE207:
 700              	.LBE209:
 701              		.loc 2 118 0
 702 0036 144B     		ldr	r3, .L38+28
 703 0038 C7F85431 		str	r3, [r7, #340]
 704              	.LBE211:
 705              	.LBE214:
 706              	.LBE256:
 707              	.LBB257:
 708              	.LBB231:
 709              	.LBB228:
 710              	.LBB226:
 711              	.LBB224:
 712              	.LBB222:
 713              		.loc 1 892 0
 714 003c 3046     		mov	r0, r6
 715              	.LBE222:
 716              	.LBE224:
 717              	.LBE226:
 718              	.LBE228:
 719              	.LBE231:
 720              	.LBE257:
 721              	.LBB258:
 722              	.LBB215:
 723              	.LBB212:
 724              		.loc 2 118 0
 725 003e C7F85031 		str	r3, [r7, #336]
 726              	.LVL46:
 727              		.loc 2 116 0
 728 0042 3D60     		str	r5, [r7]
 729              	.LBE212:
 730              	.LBE215:
 731              	.LBE258:
 732              	.LBB259:
 733              	.LBB232:
 734              	.LBB229:
 735              	.LBB227:
 736              	.LBB225:
 737              	.LBB223:
 738              		.loc 1 892 0
 739 0044 FFF7FEFF 		bl	_ZN10chibios_rt10BaseThreadC2Ev
 740              	.LVL47:
 741              	.LBE223:
ARM GAS  /var/folders/qd/4mxf5pkd0zdf0b9dd1hp39180000gn/T//ccLoQrsQ.s 			page 14


 742              	.LBE225:
 743              	.LBE227:
 744              		.loc 2 118 0
 745 0048 104B     		ldr	r3, .L38+32
 746 004a C6F85431 		str	r3, [r6, #340]
 747              	.LBE229:
 748              	.LBE232:
 749              	.LBE259:
 750              	.LBB260:
 751              	.LBB251:
 752              	.LBB249:
 753              	.LBB247:
 754              	.LBB245:
 755              	.LBB243:
 756              		.loc 1 892 0
 757 004e 2046     		mov	r0, r4
 758              	.LBE243:
 759              	.LBE245:
 760              	.LBE247:
 761              	.LBE249:
 762              	.LBE251:
 763              	.LBE260:
 764              	.LBB261:
 765              	.LBB233:
 766              	.LBB230:
 767              		.loc 2 118 0
 768 0050 C6F85031 		str	r3, [r6, #336]
 769              	.LVL48:
 770              		.loc 2 116 0
 771 0054 3560     		str	r5, [r6]
 772              	.LBE230:
 773              	.LBE233:
 774              	.LBE261:
 775              	.LBB262:
 776              	.LBB252:
 777              	.LBB250:
 778              	.LBB248:
 779              	.LBB246:
 780              	.LBB244:
 781              		.loc 1 892 0
 782 0056 FFF7FEFF 		bl	_ZN10chibios_rt10BaseThreadC2Ev
 783              	.LVL49:
 784              	.LBE244:
 785              	.LBE246:
 786              	.LBE248:
 787              		.loc 2 118 0
 788 005a 0D4B     		ldr	r3, .L38+36
 789              		.loc 2 116 0
 790 005c 2560     		str	r5, [r4]
 791              		.loc 2 118 0
 792 005e C4F85431 		str	r3, [r4, #340]
 793 0062 C4F85031 		str	r3, [r4, #336]
 794              	.LVL50:
 795              	.LBE250:
 796              	.LBE252:
 797              	.LBE262:
 798              	.LBE171:
ARM GAS  /var/folders/qd/4mxf5pkd0zdf0b9dd1hp39180000gn/T//ccLoQrsQ.s 			page 15


 799              	.LBE170:
 800              		.loc 2 192 0
 801 0066 BDE8F081 		pop	{r4, r5, r6, r7, r8, pc}
 802              	.L39:
 803 006a 00BF     		.align	2
 804              	.L38:
 805 006c 00000000 		.word	.LANCHOR4
 806 0070 00000000 		.word	.LANCHOR1
 807 0074 00000000 		.word	.LANCHOR2
 808 0078 08000000 		.word	_ZTV15SequencerThread+8
 809 007c 08000000 		.word	_ZTV12TesterThread+8
 810 0080 00000000 		.word	.LANCHOR3
 811 0084 00000000 		.word	.LANCHOR5
 812 0088 00000000 		.word	.LANCHOR6
 813 008c 00000000 		.word	.LANCHOR7
 814 0090 00000000 		.word	.LANCHOR8
 815 0094 00000000 		.word	.LANCHOR0
 816              		.cfi_endproc
 817              	.LFE316:
 818              		.cantunwind
 819              		.fnend
 820              		.size	_GLOBAL__sub_I_main, .-_GLOBAL__sub_I_main
 821              		.section	.init_array,"aw",%init_array
 822              		.align	2
 823 0000 00000000 		.word	_GLOBAL__sub_I_main(target1)
 824              		.weak	_ZTV15SequencerThread
 825              		.section	.rodata._ZTV15SequencerThread,"aG",%progbits,_ZTV15SequencerThread,comdat
 826              		.align	2
 827              		.type	_ZTV15SequencerThread, %object
 828              		.size	_ZTV15SequencerThread, 20
 829              	_ZTV15SequencerThread:
 830 0000 00000000 		.word	0
 831 0004 00000000 		.word	0
 832 0008 00000000 		.word	_ZN10chibios_rt15ThreadReference4stopEv
 833 000c 00000000 		.word	_ZN15SequencerThread4mainEv
 834 0010 00000000 		.word	_ZN10chibios_rt16BaseStaticThreadILi128EE5startEm
 835              		.weak	_ZTV12TesterThread
 836              		.section	.rodata._ZTV12TesterThread,"aG",%progbits,_ZTV12TesterThread,comdat
 837              		.align	2
 838              		.type	_ZTV12TesterThread, %object
 839              		.size	_ZTV12TesterThread, 20
 840              	_ZTV12TesterThread:
 841 0000 00000000 		.word	0
 842 0004 00000000 		.word	0
 843 0008 00000000 		.word	_ZN10chibios_rt15ThreadReference4stopEv
 844 000c 00000000 		.word	_ZN12TesterThread4mainEv
 845 0010 00000000 		.word	_ZN10chibios_rt16BaseStaticThreadILi256EE5startEm
 846              		.section	.bss._ZL6tester,"aw",%nobits
 847              		.align	3
 848              		.set	.LANCHOR4,. + 0
 849              		.type	_ZL6tester, %object
 850              		.size	_ZL6tester, 464
 851              	_ZL6tester:
 852 0000 00000000 		.space	464
 852      00000000 
 852      00000000 
 852      00000000 
ARM GAS  /var/folders/qd/4mxf5pkd0zdf0b9dd1hp39180000gn/T//ccLoQrsQ.s 			page 16


 852      00000000 
 853              		.section	.bss._ZL8blinker1,"aw",%nobits
 854              		.align	3
 855              		.set	.LANCHOR0,. + 0
 856              		.type	_ZL8blinker1, %object
 857              		.size	_ZL8blinker1, 344
 858              	_ZL8blinker1:
 859 0000 00000000 		.space	344
 859      00000000 
 859      00000000 
 859      00000000 
 859      00000000 
 860              		.section	.bss._ZL8blinker2,"aw",%nobits
 861              		.align	3
 862              		.set	.LANCHOR1,. + 0
 863              		.type	_ZL8blinker2, %object
 864              		.size	_ZL8blinker2, 344
 865              	_ZL8blinker2:
 866 0000 00000000 		.space	344
 866      00000000 
 866      00000000 
 866      00000000 
 866      00000000 
 867              		.section	.bss._ZL8blinker3,"aw",%nobits
 868              		.align	3
 869              		.set	.LANCHOR2,. + 0
 870              		.type	_ZL8blinker3, %object
 871              		.size	_ZL8blinker3, 344
 872              	_ZL8blinker3:
 873 0000 00000000 		.space	344
 873      00000000 
 873      00000000 
 873      00000000 
 873      00000000 
 874              		.section	.bss._ZL8blinker4,"aw",%nobits
 875              		.align	3
 876              		.set	.LANCHOR3,. + 0
 877              		.type	_ZL8blinker4, %object
 878              		.size	_ZL8blinker4, 344
 879              	_ZL8blinker4:
 880 0000 00000000 		.space	344
 880      00000000 
 880      00000000 
 880      00000000 
 880      00000000 
 881              		.section	.rodata._ZL13LED3_sequence,"a",%progbits
 882              		.align	2
 883              		.set	.LANCHOR5,. + 0
 884              		.type	_ZL13LED3_sequence, %object
 885              		.size	_ZL13LED3_sequence, 40
 886              	_ZL13LED3_sequence:
 887 0000 04       		.byte	4
 888 0001 000000   		.space	3
 889 0004 00200000 		.word	8192
 890 0008 00       		.byte	0
 891 0009 000000   		.space	3
 892 000c 20030000 		.word	800
ARM GAS  /var/folders/qd/4mxf5pkd0zdf0b9dd1hp39180000gn/T//ccLoQrsQ.s 			page 17


 893 0010 03       		.byte	3
 894 0011 000000   		.space	3
 895 0014 00200000 		.word	8192
 896 0018 00       		.byte	0
 897 0019 000000   		.space	3
 898 001c C8000000 		.word	200
 899 0020 01       		.byte	1
 900 0021 000000   		.space	3
 901 0024 00000000 		.word	0
 902              		.section	.rodata._ZL13LED4_sequence,"a",%progbits
 903              		.align	2
 904              		.set	.LANCHOR6,. + 0
 905              		.type	_ZL13LED4_sequence, %object
 906              		.size	_ZL13LED4_sequence, 40
 907              	_ZL13LED4_sequence:
 908 0000 04       		.byte	4
 909 0001 000000   		.space	3
 910 0004 00100000 		.word	4096
 911 0008 00       		.byte	0
 912 0009 000000   		.space	3
 913 000c 58020000 		.word	600
 914 0010 03       		.byte	3
 915 0011 000000   		.space	3
 916 0014 00100000 		.word	4096
 917 0018 00       		.byte	0
 918 0019 000000   		.space	3
 919 001c 90010000 		.word	400
 920 0020 01       		.byte	1
 921 0021 000000   		.space	3
 922 0024 00000000 		.word	0
 923              		.section	.rodata._ZL13LED5_sequence,"a",%progbits
 924              		.align	2
 925              		.set	.LANCHOR7,. + 0
 926              		.type	_ZL13LED5_sequence, %object
 927              		.size	_ZL13LED5_sequence, 40
 928              	_ZL13LED5_sequence:
 929 0000 04       		.byte	4
 930 0001 000000   		.space	3
 931 0004 00400000 		.word	16384
 932 0008 00       		.byte	0
 933 0009 000000   		.space	3
 934 000c 90010000 		.word	400
 935 0010 03       		.byte	3
 936 0011 000000   		.space	3
 937 0014 00400000 		.word	16384
 938 0018 00       		.byte	0
 939 0019 000000   		.space	3
 940 001c 58020000 		.word	600
 941 0020 01       		.byte	1
 942 0021 000000   		.space	3
 943 0024 00000000 		.word	0
 944              		.section	.rodata._ZL13LED6_sequence,"a",%progbits
 945              		.align	2
 946              		.set	.LANCHOR8,. + 0
 947              		.type	_ZL13LED6_sequence, %object
 948              		.size	_ZL13LED6_sequence, 40
 949              	_ZL13LED6_sequence:
ARM GAS  /var/folders/qd/4mxf5pkd0zdf0b9dd1hp39180000gn/T//ccLoQrsQ.s 			page 18


 950 0000 04       		.byte	4
 951 0001 000000   		.space	3
 952 0004 00800000 		.word	32768
 953 0008 00       		.byte	0
 954 0009 000000   		.space	3
 955 000c C8000000 		.word	200
 956 0010 03       		.byte	3
 957 0011 000000   		.space	3
 958 0014 00800000 		.word	32768
 959 0018 00       		.byte	0
 960 0019 000000   		.space	3
 961 001c 20030000 		.word	800
 962 0020 01       		.byte	1
 963 0021 000000   		.space	3
 964 0024 00000000 		.word	0
 965              		.section	.rodata._ZN12TesterThread4mainEv.str1.4,"aMS",%progbits,1
 966              		.align	2
 967              	.LC1:
 968 0000 74657374 		.ascii	"tester\000"
 968      657200
 969              		.section	.rodata._ZN15SequencerThread4mainEv.str1.4,"aMS",%progbits,1
 970              		.align	2
 971              	.LC0:
 972 0000 73657175 		.ascii	"sequencer\000"
 972      656E6365 
 972      7200
 973              		.text
 974              	.Letext0:
 975              		.file 3 "/Applications/Eclipse_e-puck2.app/Contents/Eclipse_e-puck2/Tools/gcc-arm-none-eabi-7-2017
 976              		.file 4 "/Applications/Eclipse_e-puck2.app/Contents/Eclipse_e-puck2/Tools/gcc-arm-none-eabi-7-2017
 977              		.file 5 "/Applications/Eclipse_e-puck2.app/Contents/Eclipse_e-puck2/Tools/gcc-arm-none-eabi-7-2017
 978              		.file 6 "../../../os/rt/ports/ARMCMx/compilers/GCC/chtypes.h"
 979              		.file 7 "../../../os/rt/include/chsystypes.h"
 980              		.file 8 "../../../os/rt/include/chschd.h"
 981              		.file 9 "../../../os/ext/CMSIS/include/core_cm4.h"
 982              		.file 10 "../../../os/ext/CMSIS/ST/system_stm32f4xx.h"
 983              		.file 11 "../../../os/ext/CMSIS/ST/stm32f407xx.h"
 984              		.file 12 "../../../os/ext/CMSIS/ST/stm32f4xx.h"
 985              		.file 13 "../../../os/rt/ports/ARMCMx/chcore.h"
 986              		.file 14 "../../../os/rt/ports/ARMCMx/chcore_v7m.h"
 987              		.file 15 "../../../os/hal/ports/STM32/LLD/TIMv1/stm32_tim.h"
 988              		.file 16 "../../../os/rt/include/chtm.h"
 989              		.file 17 "../../../os/rt/include/chsem.h"
 990              		.file 18 "../../../os/rt/include/chmtx.h"
 991              		.file 19 "../../../os/rt/include/chregistry.h"
 992              		.file 20 "../../../os/rt/include/chevents.h"
 993              		.file 21 "../../../os/rt/include/chqueues.h"
 994              		.file 22 "../../../os/hal/ports/STM32/STM32F4xx/stm32_dma.h"
 995              		.file 23 "../../../os/hal/ports/STM32/LLD/GPIOv2/pal_lld.h"
 996              		.file 24 "../../../os/hal/include/pwm.h"
 997              		.file 25 "../../../os/hal/ports/STM32/LLD/TIMv1/pwm_lld.h"
 998              		.file 26 "../../../os/hal/include/serial.h"
 999              		.file 27 "../../../os/hal/ports/STM32/LLD/USARTv1/serial_lld.h"
 1000              		.file 28 "../../../os/hal/include/spi.h"
 1001              		.file 29 "../../../os/hal/ports/STM32/LLD/SPIv1/spi_lld.h"
 1002              		.file 30 "../../../test/rt/test.h"
 1003              		.file 31 "../../../os/rt/include/chsys.h"
ARM GAS  /var/folders/qd/4mxf5pkd0zdf0b9dd1hp39180000gn/T//ccLoQrsQ.s 			page 19


 1004              		.file 32 "../../../os/rt/include/chthreads.h"
 1005              		.file 33 "../../../os/hal/include/hal.h"