ARM GAS  /var/folders/qd/4mxf5pkd0zdf0b9dd1hp39180000gn/T//ccOenxqv.s 			page 1


   1              		.cpu cortex-m4
   2              		.eabi_attribute 20, 1
   3              		.eabi_attribute 21, 1
   4              		.eabi_attribute 23, 3
   5              		.eabi_attribute 24, 1
   6              		.eabi_attribute 25, 1
   7              		.eabi_attribute 26, 1
   8              		.eabi_attribute 30, 2
   9              		.eabi_attribute 34, 1
  10              		.eabi_attribute 18, 4
  11              		.file	"nvic.c"
  12              		.text
  13              	.Ltext0:
  14              		.cfi_sections	.debug_frame
  15              		.section	.text.nvicEnableVector,"ax",%progbits
  16              		.align	1
  17              		.p2align 4,,15
  18              		.global	nvicEnableVector
  19              		.syntax unified
  20              		.thumb
  21              		.thumb_func
  22              		.fpu softvfp
  23              		.type	nvicEnableVector, %function
  24              	nvicEnableVector:
  25              	.LFB260:
  26              		.file 1 "../../../os/hal/ports/common/ARMCMx/nvic.c"
  27              		.loc 1 57 0
  28              		.cfi_startproc
  29              		@ args = 0, pretend = 0, frame = 0
  30              		@ frame_needed = 0, uses_anonymous_args = 0
  31              		@ link register save eliminated.
  32              	.LVL0:
  33              		.loc 1 60 0
  34 0000 4309     		lsrs	r3, r0, #5
  35              		.loc 1 57 0
  36 0002 10B4     		push	{r4}
  37              		.cfi_def_cfa_offset 4
  38              		.cfi_offset 4, -4
  39 0004 9B00     		lsls	r3, r3, #2
  40              		.loc 1 59 0
  41 0006 00F16044 		add	r4, r0, #-536870912
  42 000a 04F56144 		add	r4, r4, #57600
  43 000e 03F16043 		add	r3, r3, #-536870912
  44 0012 0901     		lsls	r1, r1, #4
  45              	.LVL1:
  46 0014 03F56143 		add	r3, r3, #57600
  47              		.loc 1 60 0
  48 0018 00F01F00 		and	r0, r0, #31
  49              	.LVL2:
  50 001c 0122     		movs	r2, #1
  51              		.loc 1 59 0
  52 001e C9B2     		uxtb	r1, r1
  53 0020 84F80013 		strb	r1, [r4, #768]
  54              		.loc 1 60 0
  55 0024 02FA00F0 		lsl	r0, r2, r0
  56 0028 C3F88001 		str	r0, [r3, #384]
  57              		.loc 1 62 0
ARM GAS  /var/folders/qd/4mxf5pkd0zdf0b9dd1hp39180000gn/T//ccOenxqv.s 			page 2


  58 002c 10BC     		pop	{r4}
  59              		.cfi_restore 4
  60              		.cfi_def_cfa_offset 0
  61              	.LVL3:
  62              		.loc 1 61 0
  63 002e 1860     		str	r0, [r3]
  64              		.loc 1 62 0
  65 0030 7047     		bx	lr
  66              		.cfi_endproc
  67              	.LFE260:
  68              		.size	nvicEnableVector, .-nvicEnableVector
  69 0032 00BF     		.section	.text.nvicDisableVector,"ax",%progbits
  70              		.align	1
  71              		.p2align 4,,15
  72              		.global	nvicDisableVector
  73              		.syntax unified
  74              		.thumb
  75              		.thumb_func
  76              		.fpu softvfp
  77              		.type	nvicDisableVector, %function
  78              	nvicDisableVector:
  79              	.LFB261:
  80              		.loc 1 69 0
  81              		.cfi_startproc
  82              		@ args = 0, pretend = 0, frame = 0
  83              		@ frame_needed = 0, uses_anonymous_args = 0
  84              		@ link register save eliminated.
  85              	.LVL4:
  86              		.loc 1 71 0
  87 0000 0749     		ldr	r1, .L6
  88 0002 4309     		lsrs	r3, r0, #5
  89              		.loc 1 69 0
  90 0004 10B4     		push	{r4}
  91              		.cfi_def_cfa_offset 4
  92              		.cfi_offset 4, -4
  93              		.loc 1 71 0
  94 0006 2033     		adds	r3, r3, #32
  95 0008 00F01F04 		and	r4, r0, #31
  96 000c 0122     		movs	r2, #1
  97              		.loc 1 72 0
  98 000e 0844     		add	r0, r0, r1
  99              	.LVL5:
 100              		.loc 1 71 0
 101 0010 A240     		lsls	r2, r2, r4
 102              		.loc 1 72 0
 103 0012 0024     		movs	r4, #0
 104              		.loc 1 71 0
 105 0014 41F82320 		str	r2, [r1, r3, lsl #2]
 106              		.loc 1 72 0
 107 0018 80F80043 		strb	r4, [r0, #768]
 108              		.loc 1 73 0
 109 001c 10BC     		pop	{r4}
 110              		.cfi_restore 4
 111              		.cfi_def_cfa_offset 0
 112 001e 7047     		bx	lr
 113              	.L7:
 114              		.align	2
ARM GAS  /var/folders/qd/4mxf5pkd0zdf0b9dd1hp39180000gn/T//ccOenxqv.s 			page 3


 115              	.L6:
 116 0020 00E100E0 		.word	-536813312
 117              		.cfi_endproc
 118              	.LFE261:
 119              		.size	nvicDisableVector, .-nvicDisableVector
 120              		.section	.text.nvicSetSystemHandlerPriority,"ax",%progbits
 121              		.align	1
 122              		.p2align 4,,15
 123              		.global	nvicSetSystemHandlerPriority
 124              		.syntax unified
 125              		.thumb
 126              		.thumb_func
 127              		.fpu softvfp
 128              		.type	nvicSetSystemHandlerPriority, %function
 129              	nvicSetSystemHandlerPriority:
 130              	.LFB262:
 131              		.loc 1 81 0
 132              		.cfi_startproc
 133              		@ args = 0, pretend = 0, frame = 0
 134              		@ frame_needed = 0, uses_anonymous_args = 0
 135              		@ link register save eliminated.
 136              	.LVL6:
 137              		.loc 1 85 0
 138 0000 00F16040 		add	r0, r0, #-536870912
 139              	.LVL7:
 140 0004 00F56D40 		add	r0, r0, #60672
 141              	.LVL8:
 142 0008 0901     		lsls	r1, r1, #4
 143              	.LVL9:
 144 000a C9B2     		uxtb	r1, r1
 145 000c 0176     		strb	r1, [r0, #24]
 146              		.loc 1 86 0
 147 000e 7047     		bx	lr
 148              		.cfi_endproc
 149              	.LFE262:
 150              		.size	nvicSetSystemHandlerPriority, .-nvicSetSystemHandlerPriority
 151              		.section	.text.nvicClearPending,"ax",%progbits
 152              		.align	1
 153              		.p2align 4,,15
 154              		.global	nvicClearPending
 155              		.syntax unified
 156              		.thumb
 157              		.thumb_func
 158              		.fpu softvfp
 159              		.type	nvicClearPending, %function
 160              	nvicClearPending:
 161              	.LFB263:
 162              		.loc 1 93 0
 163              		.cfi_startproc
 164              		@ args = 0, pretend = 0, frame = 0
 165              		@ frame_needed = 0, uses_anonymous_args = 0
 166              		@ link register save eliminated.
 167              	.LVL10:
 168              		.loc 1 95 0
 169 0000 4309     		lsrs	r3, r0, #5
 170 0002 6033     		adds	r3, r3, #96
 171 0004 00F01F00 		and	r0, r0, #31
ARM GAS  /var/folders/qd/4mxf5pkd0zdf0b9dd1hp39180000gn/T//ccOenxqv.s 			page 4


 172              	.LVL11:
 173 0008 0122     		movs	r2, #1
 174 000a 0349     		ldr	r1, .L10
 175 000c 02FA00F0 		lsl	r0, r2, r0
 176 0010 41F82300 		str	r0, [r1, r3, lsl #2]
 177              		.loc 1 96 0
 178 0014 7047     		bx	lr
 179              	.L11:
 180 0016 00BF     		.align	2
 181              	.L10:
 182 0018 00E100E0 		.word	-536813312
 183              		.cfi_endproc
 184              	.LFE263:
 185              		.size	nvicClearPending, .-nvicClearPending
 186              		.text
 187              	.Letext0:
 188              		.file 2 "/Applications/Eclipse_e-puck2.app/Contents/Eclipse_e-puck2/Tools/gcc-arm-none-eabi-7-2017
 189              		.file 3 "/Applications/Eclipse_e-puck2.app/Contents/Eclipse_e-puck2/Tools/gcc-arm-none-eabi-7-2017
 190              		.file 4 "/Applications/Eclipse_e-puck2.app/Contents/Eclipse_e-puck2/Tools/gcc-arm-none-eabi-7-2017
 191              		.file 5 "../../../os/rt/ports/ARMCMx/compilers/GCC/chtypes.h"
 192              		.file 6 "../../../os/rt/include/chsystypes.h"
 193              		.file 7 "../../../os/rt/include/chschd.h"
 194              		.file 8 "../../../os/ext/CMSIS/include/core_cm4.h"
 195              		.file 9 "../../../os/ext/CMSIS/ST/system_stm32f4xx.h"
 196              		.file 10 "../../../os/ext/CMSIS/ST/stm32f407xx.h"
 197              		.file 11 "../../../os/rt/ports/ARMCMx/chcore.h"
 198              		.file 12 "../../../os/rt/ports/ARMCMx/chcore_v7m.h"
 199              		.file 13 "../../../os/hal/ports/STM32/LLD/TIMv1/stm32_tim.h"
 200              		.file 14 "../../../os/rt/include/chtm.h"
 201              		.file 15 "../../../os/rt/include/chsem.h"
 202              		.file 16 "../../../os/rt/include/chmtx.h"
 203              		.file 17 "../../../os/rt/include/chregistry.h"
 204              		.file 18 "../../../os/rt/include/chevents.h"
 205              		.file 19 "../../../os/rt/include/chqueues.h"
 206              		.file 20 "../../../os/hal/ports/STM32/STM32F4xx/stm32_dma.h"
 207              		.file 21 "../../../os/hal/ports/STM32/LLD/GPIOv2/pal_lld.h"
 208              		.file 22 "../../../os/hal/include/pwm.h"
 209              		.file 23 "../../../os/hal/ports/STM32/LLD/TIMv1/pwm_lld.h"
 210              		.file 24 "../../../os/hal/include/serial.h"
 211              		.file 25 "../../../os/hal/ports/STM32/LLD/USARTv1/serial_lld.h"
 212              		.file 26 "../../../os/hal/include/spi.h"
 213              		.file 27 "../../../os/hal/ports/STM32/LLD/SPIv1/spi_lld.h"
 214              		.section	.debug_info,"",%progbits
 215              	.Ldebug_info0:
 216 0000 8A160000 		.4byte	0x168a
 217 0004 0400     		.2byte	0x4
 218 0006 00000000 		.4byte	.Ldebug_abbrev0
 219 000a 04       		.byte	0x4
 220 000b 01       		.uleb128 0x1
 221 000c C7050000 		.4byte	.LASF301
 222 0010 0C       		.byte	0xc
 223 0011 52050000 		.4byte	.LASF302
 224 0015 120C0000 		.4byte	.LASF303
 225 0019 00000000 		.4byte	.Ldebug_ranges0+0
 226 001d 00000000 		.4byte	0
 227 0021 00000000 		.4byte	.Ldebug_line0
 228 0025 02       		.uleb128 0x2
ARM GAS  /var/folders/qd/4mxf5pkd0zdf0b9dd1hp39180000gn/T//ccOenxqv.s 			page 5


 229 0026 04       		.byte	0x4
 230 0027 05       		.byte	0x5
 231 0028 696E7400 		.ascii	"int\000"
 232 002c 03       		.uleb128 0x3
 233 002d 21000000 		.4byte	.LASF4
 234 0031 02       		.byte	0x2
 235 0032 D8       		.byte	0xd8
 236 0033 37000000 		.4byte	0x37
 237 0037 04       		.uleb128 0x4
 238 0038 04       		.byte	0x4
 239 0039 07       		.byte	0x7
 240 003a 9F070000 		.4byte	.LASF0
 241 003e 04       		.uleb128 0x4
 242 003f 08       		.byte	0x8
 243 0040 05       		.byte	0x5
 244 0041 CB060000 		.4byte	.LASF1
 245 0045 04       		.uleb128 0x4
 246 0046 08       		.byte	0x8
 247 0047 04       		.byte	0x4
 248 0048 54080000 		.4byte	.LASF2
 249 004c 04       		.uleb128 0x4
 250 004d 01       		.byte	0x1
 251 004e 06       		.byte	0x6
 252 004f 91020000 		.4byte	.LASF3
 253 0053 03       		.uleb128 0x3
 254 0054 8E010000 		.4byte	.LASF5
 255 0058 03       		.byte	0x3
 256 0059 2B       		.byte	0x2b
 257 005a 5E000000 		.4byte	0x5e
 258 005e 04       		.uleb128 0x4
 259 005f 01       		.byte	0x1
 260 0060 08       		.byte	0x8
 261 0061 D9020000 		.4byte	.LASF6
 262 0065 04       		.uleb128 0x4
 263 0066 02       		.byte	0x2
 264 0067 05       		.byte	0x5
 265 0068 460A0000 		.4byte	.LASF7
 266 006c 03       		.uleb128 0x3
 267 006d AA030000 		.4byte	.LASF8
 268 0071 03       		.byte	0x3
 269 0072 39       		.byte	0x39
 270 0073 77000000 		.4byte	0x77
 271 0077 04       		.uleb128 0x4
 272 0078 02       		.byte	0x2
 273 0079 07       		.byte	0x7
 274 007a 820B0000 		.4byte	.LASF9
 275 007e 03       		.uleb128 0x3
 276 007f D30B0000 		.4byte	.LASF10
 277 0083 03       		.byte	0x3
 278 0084 4D       		.byte	0x4d
 279 0085 89000000 		.4byte	0x89
 280 0089 04       		.uleb128 0x4
 281 008a 04       		.byte	0x4
 282 008b 05       		.byte	0x5
 283 008c E1010000 		.4byte	.LASF11
 284 0090 03       		.uleb128 0x3
 285 0091 B6060000 		.4byte	.LASF12
ARM GAS  /var/folders/qd/4mxf5pkd0zdf0b9dd1hp39180000gn/T//ccOenxqv.s 			page 6


 286 0095 03       		.byte	0x3
 287 0096 4F       		.byte	0x4f
 288 0097 9B000000 		.4byte	0x9b
 289 009b 04       		.uleb128 0x4
 290 009c 04       		.byte	0x4
 291 009d 07       		.byte	0x7
 292 009e A7040000 		.4byte	.LASF13
 293 00a2 03       		.uleb128 0x3
 294 00a3 9C040000 		.4byte	.LASF14
 295 00a7 03       		.byte	0x3
 296 00a8 69       		.byte	0x69
 297 00a9 AD000000 		.4byte	0xad
 298 00ad 04       		.uleb128 0x4
 299 00ae 08       		.byte	0x8
 300 00af 07       		.byte	0x7
 301 00b0 E1080000 		.4byte	.LASF15
 302 00b4 03       		.uleb128 0x3
 303 00b5 A4020000 		.4byte	.LASF16
 304 00b9 04       		.byte	0x4
 305 00ba 18       		.byte	0x18
 306 00bb 53000000 		.4byte	0x53
 307 00bf 05       		.uleb128 0x5
 308 00c0 B4000000 		.4byte	0xb4
 309 00c4 06       		.uleb128 0x6
 310 00c5 B4000000 		.4byte	0xb4
 311 00c9 03       		.uleb128 0x3
 312 00ca 10090000 		.4byte	.LASF17
 313 00ce 04       		.byte	0x4
 314 00cf 24       		.byte	0x24
 315 00d0 6C000000 		.4byte	0x6c
 316 00d4 03       		.uleb128 0x3
 317 00d5 7B000000 		.4byte	.LASF18
 318 00d9 04       		.byte	0x4
 319 00da 2C       		.byte	0x2c
 320 00db 7E000000 		.4byte	0x7e
 321 00df 05       		.uleb128 0x5
 322 00e0 D4000000 		.4byte	0xd4
 323 00e4 03       		.uleb128 0x3
 324 00e5 2F0B0000 		.4byte	.LASF19
 325 00e9 04       		.byte	0x4
 326 00ea 30       		.byte	0x30
 327 00eb 90000000 		.4byte	0x90
 328 00ef 05       		.uleb128 0x5
 329 00f0 E4000000 		.4byte	0xe4
 330 00f4 06       		.uleb128 0x6
 331 00f5 EF000000 		.4byte	0xef
 332 00f9 03       		.uleb128 0x3
 333 00fa 5D0A0000 		.4byte	.LASF20
 334 00fe 04       		.byte	0x4
 335 00ff 3C       		.byte	0x3c
 336 0100 A2000000 		.4byte	0xa2
 337 0104 03       		.uleb128 0x3
 338 0105 C1070000 		.4byte	.LASF21
 339 0109 05       		.byte	0x5
 340 010a 45       		.byte	0x45
 341 010b E4000000 		.4byte	0xe4
 342 010f 03       		.uleb128 0x3
ARM GAS  /var/folders/qd/4mxf5pkd0zdf0b9dd1hp39180000gn/T//ccOenxqv.s 			page 7


 343 0110 E3090000 		.4byte	.LASF22
 344 0114 05       		.byte	0x5
 345 0115 48       		.byte	0x48
 346 0116 B4000000 		.4byte	0xb4
 347 011a 03       		.uleb128 0x3
 348 011b 29020000 		.4byte	.LASF23
 349 011f 05       		.byte	0x5
 350 0120 49       		.byte	0x49
 351 0121 B4000000 		.4byte	0xb4
 352 0125 03       		.uleb128 0x3
 353 0126 D70A0000 		.4byte	.LASF24
 354 012a 05       		.byte	0x5
 355 012b 4A       		.byte	0x4a
 356 012c B4000000 		.4byte	0xb4
 357 0130 03       		.uleb128 0x3
 358 0131 59000000 		.4byte	.LASF25
 359 0135 05       		.byte	0x5
 360 0136 4C       		.byte	0x4c
 361 0137 E4000000 		.4byte	0xe4
 362 013b 03       		.uleb128 0x3
 363 013c 19090000 		.4byte	.LASF26
 364 0140 05       		.byte	0x5
 365 0141 4D       		.byte	0x4d
 366 0142 D4000000 		.4byte	0xd4
 367 0146 03       		.uleb128 0x3
 368 0147 AC020000 		.4byte	.LASF27
 369 014b 05       		.byte	0x5
 370 014c 4F       		.byte	0x4f
 371 014d E4000000 		.4byte	0xe4
 372 0151 03       		.uleb128 0x3
 373 0152 30090000 		.4byte	.LASF28
 374 0156 05       		.byte	0x5
 375 0157 50       		.byte	0x50
 376 0158 E4000000 		.4byte	0xe4
 377 015c 03       		.uleb128 0x3
 378 015d 2F040000 		.4byte	.LASF29
 379 0161 05       		.byte	0x5
 380 0162 51       		.byte	0x51
 381 0163 D4000000 		.4byte	0xd4
 382 0167 03       		.uleb128 0x3
 383 0168 3B000000 		.4byte	.LASF30
 384 016c 06       		.byte	0x6
 385 016d 33       		.byte	0x33
 386 016e E4000000 		.4byte	0xe4
 387 0172 03       		.uleb128 0x3
 388 0173 4B080000 		.4byte	.LASF31
 389 0177 06       		.byte	0x6
 390 0178 3F       		.byte	0x3f
 391 0179 7D010000 		.4byte	0x17d
 392 017d 07       		.uleb128 0x7
 393 017e EA040000 		.4byte	.LASF51
 394 0182 44       		.byte	0x44
 395 0183 07       		.byte	0x7
 396 0184 C2       		.byte	0xc2
 397 0185 6A020000 		.4byte	0x26a
 398 0189 08       		.uleb128 0x8
 399 018a F5010000 		.4byte	.LASF32
ARM GAS  /var/folders/qd/4mxf5pkd0zdf0b9dd1hp39180000gn/T//ccOenxqv.s 			page 8


 400 018e 07       		.byte	0x7
 401 018f C3       		.byte	0xc3
 402 0190 75020000 		.4byte	0x275
 403 0194 00       		.byte	0
 404 0195 08       		.uleb128 0x8
 405 0196 11020000 		.4byte	.LASF33
 406 019a 07       		.byte	0x7
 407 019b C5       		.byte	0xc5
 408 019c 75020000 		.4byte	0x275
 409 01a0 04       		.byte	0x4
 410 01a1 08       		.uleb128 0x8
 411 01a2 99030000 		.4byte	.LASF34
 412 01a6 07       		.byte	0x7
 413 01a7 C7       		.byte	0xc7
 414 01a8 30010000 		.4byte	0x130
 415 01ac 08       		.byte	0x8
 416 01ad 08       		.uleb128 0x8
 417 01ae 53000000 		.4byte	.LASF35
 418 01b2 07       		.byte	0x7
 419 01b3 C8       		.byte	0xc8
 420 01b4 F7080000 		.4byte	0x8f7
 421 01b8 0C       		.byte	0xc
 422 01b9 08       		.uleb128 0x8
 423 01ba D0010000 		.4byte	.LASF36
 424 01be 07       		.byte	0x7
 425 01bf CA       		.byte	0xca
 426 01c0 75020000 		.4byte	0x275
 427 01c4 10       		.byte	0x10
 428 01c5 08       		.uleb128 0x8
 429 01c6 08090000 		.4byte	.LASF37
 430 01ca 07       		.byte	0x7
 431 01cb CB       		.byte	0xcb
 432 01cc 75020000 		.4byte	0x275
 433 01d0 14       		.byte	0x14
 434 01d1 08       		.uleb128 0x8
 435 01d2 FA0B0000 		.4byte	.LASF38
 436 01d6 07       		.byte	0x7
 437 01d7 D2       		.byte	0xd2
 438 01d8 8E0B0000 		.4byte	0xb8e
 439 01dc 18       		.byte	0x18
 440 01dd 08       		.uleb128 0x8
 441 01de B90C0000 		.4byte	.LASF39
 442 01e2 07       		.byte	0x7
 443 01e3 DD       		.byte	0xdd
 444 01e4 1A010000 		.4byte	0x11a
 445 01e8 1C       		.byte	0x1c
 446 01e9 08       		.uleb128 0x8
 447 01ea 83070000 		.4byte	.LASF40
 448 01ee 07       		.byte	0x7
 449 01ef E1       		.byte	0xe1
 450 01f0 0F010000 		.4byte	0x10f
 451 01f4 1D       		.byte	0x1d
 452 01f5 08       		.uleb128 0x8
 453 01f6 DA070000 		.4byte	.LASF41
 454 01fa 07       		.byte	0x7
 455 01fb E6       		.byte	0xe6
 456 01fc 25010000 		.4byte	0x125
ARM GAS  /var/folders/qd/4mxf5pkd0zdf0b9dd1hp39180000gn/T//ccOenxqv.s 			page 9


 457 0200 1E       		.byte	0x1e
 458 0201 09       		.uleb128 0x9
 459 0202 705F7500 		.ascii	"p_u\000"
 460 0206 07       		.byte	0x7
 461 0207 3101     		.2byte	0x131
 462 0209 C90A0000 		.4byte	0xac9
 463 020d 20       		.byte	0x20
 464 020e 0A       		.uleb128 0xa
 465 020f 67070000 		.4byte	.LASF42
 466 0213 07       		.byte	0x7
 467 0214 3601     		.2byte	0x136
 468 0216 7B020000 		.4byte	0x27b
 469 021a 24       		.byte	0x24
 470 021b 0A       		.uleb128 0xa
 471 021c 6A000000 		.4byte	.LASF43
 472 0220 07       		.byte	0x7
 473 0221 3C01     		.2byte	0x13c
 474 0223 9F020000 		.4byte	0x29f
 475 0227 28       		.byte	0x28
 476 0228 0A       		.uleb128 0xa
 477 0229 A70C0000 		.4byte	.LASF44
 478 022d 07       		.byte	0x7
 479 022e 4001     		.2byte	0x140
 480 0230 3B010000 		.4byte	0x13b
 481 0234 30       		.byte	0x30
 482 0235 0A       		.uleb128 0xa
 483 0236 48040000 		.4byte	.LASF45
 484 023a 07       		.byte	0x7
 485 023b 4601     		.2byte	0x146
 486 023d 46010000 		.4byte	0x146
 487 0241 34       		.byte	0x34
 488 0242 0A       		.uleb128 0xa
 489 0243 42020000 		.4byte	.LASF46
 490 0247 07       		.byte	0x7
 491 0248 4D01     		.2byte	0x14d
 492 024a 880B0000 		.4byte	0xb88
 493 024e 38       		.byte	0x38
 494 024f 0A       		.uleb128 0xa
 495 0250 85080000 		.4byte	.LASF47
 496 0254 07       		.byte	0x7
 497 0255 5101     		.2byte	0x151
 498 0257 30010000 		.4byte	0x130
 499 025b 3C       		.byte	0x3c
 500 025c 0A       		.uleb128 0xa
 501 025d C9070000 		.4byte	.LASF48
 502 0261 07       		.byte	0x7
 503 0262 5801     		.2byte	0x158
 504 0264 52030000 		.4byte	0x352
 505 0268 40       		.byte	0x40
 506 0269 00       		.byte	0
 507 026a 03       		.uleb128 0x3
 508 026b 72080000 		.4byte	.LASF49
 509 026f 06       		.byte	0x6
 510 0270 44       		.byte	0x44
 511 0271 75020000 		.4byte	0x275
 512 0275 0B       		.uleb128 0xb
 513 0276 04       		.byte	0x4
ARM GAS  /var/folders/qd/4mxf5pkd0zdf0b9dd1hp39180000gn/T//ccOenxqv.s 			page 10


 514 0277 72010000 		.4byte	0x172
 515 027b 03       		.uleb128 0x3
 516 027c EF0A0000 		.4byte	.LASF50
 517 0280 06       		.byte	0x6
 518 0281 49       		.byte	0x49
 519 0282 86020000 		.4byte	0x286
 520 0286 07       		.uleb128 0x7
 521 0287 A3050000 		.4byte	.LASF52
 522 028b 04       		.byte	0x4
 523 028c 07       		.byte	0x7
 524 028d B0       		.byte	0xb0
 525 028e 9F020000 		.4byte	0x29f
 526 0292 08       		.uleb128 0x8
 527 0293 F5010000 		.4byte	.LASF32
 528 0297 07       		.byte	0x7
 529 0298 B1       		.byte	0xb1
 530 0299 75020000 		.4byte	0x275
 531 029d 00       		.byte	0
 532 029e 00       		.byte	0
 533 029f 03       		.uleb128 0x3
 534 02a0 32020000 		.4byte	.LASF53
 535 02a4 06       		.byte	0x6
 536 02a5 50       		.byte	0x50
 537 02a6 AA020000 		.4byte	0x2aa
 538 02aa 07       		.uleb128 0x7
 539 02ab 1F090000 		.4byte	.LASF54
 540 02af 08       		.byte	0x8
 541 02b0 07       		.byte	0x7
 542 02b1 B7       		.byte	0xb7
 543 02b2 CF020000 		.4byte	0x2cf
 544 02b6 08       		.uleb128 0x8
 545 02b7 F5010000 		.4byte	.LASF32
 546 02bb 07       		.byte	0x7
 547 02bc B8       		.byte	0xb8
 548 02bd 75020000 		.4byte	0x275
 549 02c1 00       		.byte	0
 550 02c2 08       		.uleb128 0x8
 551 02c3 11020000 		.4byte	.LASF33
 552 02c7 07       		.byte	0x7
 553 02c8 B9       		.byte	0xb9
 554 02c9 75020000 		.4byte	0x275
 555 02cd 04       		.byte	0x4
 556 02ce 00       		.byte	0
 557 02cf 03       		.uleb128 0x3
 558 02d0 6A090000 		.4byte	.LASF55
 559 02d4 06       		.byte	0x6
 560 02d5 57       		.byte	0x57
 561 02d6 DA020000 		.4byte	0x2da
 562 02da 0C       		.uleb128 0xc
 563 02db 5A040000 		.4byte	.LASF56
 564 02df 1C       		.byte	0x1c
 565 02e0 07       		.byte	0x7
 566 02e1 9001     		.2byte	0x190
 567 02e3 36030000 		.4byte	0x336
 568 02e7 0A       		.uleb128 0xa
 569 02e8 93090000 		.4byte	.LASF57
 570 02ec 07       		.byte	0x7
ARM GAS  /var/folders/qd/4mxf5pkd0zdf0b9dd1hp39180000gn/T//ccOenxqv.s 			page 11


 571 02ed 9101     		.2byte	0x191
 572 02ef 9F020000 		.4byte	0x29f
 573 02f3 00       		.byte	0
 574 02f4 0A       		.uleb128 0xa
 575 02f5 800A0000 		.4byte	.LASF58
 576 02f9 07       		.byte	0x7
 577 02fa 9201     		.2byte	0x192
 578 02fc 30010000 		.4byte	0x130
 579 0300 08       		.byte	0x8
 580 0301 0A       		.uleb128 0xa
 581 0302 75000000 		.4byte	.LASF59
 582 0306 07       		.byte	0x7
 583 0307 9401     		.2byte	0x194
 584 0309 F7080000 		.4byte	0x8f7
 585 030d 0C       		.byte	0xc
 586 030e 0A       		.uleb128 0xa
 587 030f 36030000 		.4byte	.LASF60
 588 0313 07       		.byte	0x7
 589 0314 9701     		.2byte	0x197
 590 0316 75020000 		.4byte	0x275
 591 031a 10       		.byte	0x10
 592 031b 0A       		.uleb128 0xa
 593 031c 040A0000 		.4byte	.LASF61
 594 0320 07       		.byte	0x7
 595 0321 9801     		.2byte	0x198
 596 0323 75020000 		.4byte	0x275
 597 0327 14       		.byte	0x14
 598 0328 0A       		.uleb128 0xa
 599 0329 4F090000 		.4byte	.LASF62
 600 032d 07       		.byte	0x7
 601 032e 9B01     		.2byte	0x19b
 602 0330 75020000 		.4byte	0x275
 603 0334 18       		.byte	0x18
 604 0335 00       		.byte	0
 605 0336 03       		.uleb128 0x3
 606 0337 95000000 		.4byte	.LASF63
 607 033b 06       		.byte	0x6
 608 033c 5C       		.byte	0x5c
 609 033d 41030000 		.4byte	0x341
 610 0341 0B       		.uleb128 0xb
 611 0342 04       		.byte	0x4
 612 0343 47030000 		.4byte	0x347
 613 0347 0D       		.uleb128 0xd
 614 0348 52030000 		.4byte	0x352
 615 034c 0E       		.uleb128 0xe
 616 034d 52030000 		.4byte	0x352
 617 0351 00       		.byte	0
 618 0352 0F       		.uleb128 0xf
 619 0353 04       		.byte	0x4
 620 0354 03       		.uleb128 0x3
 621 0355 42050000 		.4byte	.LASF64
 622 0359 06       		.byte	0x6
 623 035a 61       		.byte	0x61
 624 035b 5F030000 		.4byte	0x35f
 625 035f 0C       		.uleb128 0xc
 626 0360 B1080000 		.4byte	.LASF65
 627 0364 14       		.byte	0x14
ARM GAS  /var/folders/qd/4mxf5pkd0zdf0b9dd1hp39180000gn/T//ccOenxqv.s 			page 12


 628 0365 07       		.byte	0x7
 629 0366 6B01     		.2byte	0x16b
 630 0368 AE030000 		.4byte	0x3ae
 631 036c 0A       		.uleb128 0xa
 632 036d EC060000 		.4byte	.LASF66
 633 0371 07       		.byte	0x7
 634 0372 6C01     		.2byte	0x16c
 635 0374 A50B0000 		.4byte	0xba5
 636 0378 00       		.byte	0
 637 0379 0A       		.uleb128 0xa
 638 037a F4060000 		.4byte	.LASF67
 639 037e 07       		.byte	0x7
 640 037f 6D01     		.2byte	0x16d
 641 0381 A50B0000 		.4byte	0xba5
 642 0385 04       		.byte	0x4
 643 0386 0A       		.uleb128 0xa
 644 0387 A8080000 		.4byte	.LASF68
 645 038b 07       		.byte	0x7
 646 038c 6E01     		.2byte	0x16e
 647 038e 67010000 		.4byte	0x167
 648 0392 08       		.byte	0x8
 649 0393 0A       		.uleb128 0xa
 650 0394 40040000 		.4byte	.LASF69
 651 0398 07       		.byte	0x7
 652 0399 6F01     		.2byte	0x16f
 653 039b 36030000 		.4byte	0x336
 654 039f 0C       		.byte	0xc
 655 03a0 0A       		.uleb128 0xa
 656 03a1 6F010000 		.4byte	.LASF70
 657 03a5 07       		.byte	0x7
 658 03a6 7101     		.2byte	0x171
 659 03a8 52030000 		.4byte	0x352
 660 03ac 10       		.byte	0x10
 661 03ad 00       		.byte	0
 662 03ae 03       		.uleb128 0x3
 663 03af F4040000 		.4byte	.LASF71
 664 03b3 06       		.byte	0x6
 665 03b4 66       		.byte	0x66
 666 03b5 B9030000 		.4byte	0x3b9
 667 03b9 0C       		.uleb128 0xc
 668 03ba 9E000000 		.4byte	.LASF72
 669 03be 10       		.byte	0x10
 670 03bf 07       		.byte	0x7
 671 03c0 7B01     		.2byte	0x17b
 672 03c2 FB030000 		.4byte	0x3fb
 673 03c6 0A       		.uleb128 0xa
 674 03c7 EC060000 		.4byte	.LASF66
 675 03cb 07       		.byte	0x7
 676 03cc 7C01     		.2byte	0x17c
 677 03ce A50B0000 		.4byte	0xba5
 678 03d2 00       		.byte	0
 679 03d3 0A       		.uleb128 0xa
 680 03d4 F4060000 		.4byte	.LASF67
 681 03d8 07       		.byte	0x7
 682 03d9 7E01     		.2byte	0x17e
 683 03db A50B0000 		.4byte	0xba5
 684 03df 04       		.byte	0x4
ARM GAS  /var/folders/qd/4mxf5pkd0zdf0b9dd1hp39180000gn/T//ccOenxqv.s 			page 13


 685 03e0 0A       		.uleb128 0xa
 686 03e1 A8080000 		.4byte	.LASF68
 687 03e5 07       		.byte	0x7
 688 03e6 8001     		.2byte	0x180
 689 03e8 67010000 		.4byte	0x167
 690 03ec 08       		.byte	0x8
 691 03ed 0A       		.uleb128 0xa
 692 03ee 760B0000 		.4byte	.LASF73
 693 03f2 07       		.byte	0x7
 694 03f3 8801     		.2byte	0x188
 695 03f5 67010000 		.4byte	0x167
 696 03f9 0C       		.byte	0xc
 697 03fa 00       		.byte	0
 698 03fb 03       		.uleb128 0x3
 699 03fc 3E030000 		.4byte	.LASF74
 700 0400 06       		.byte	0x6
 701 0401 6B       		.byte	0x6b
 702 0402 06040000 		.4byte	0x406
 703 0406 0C       		.uleb128 0xc
 704 0407 870A0000 		.4byte	.LASF75
 705 040b 04       		.byte	0x4
 706 040c 07       		.byte	0x7
 707 040d A201     		.2byte	0x1a2
 708 040f 21040000 		.4byte	0x421
 709 0413 0A       		.uleb128 0xa
 710 0414 27030000 		.4byte	.LASF76
 711 0418 07       		.byte	0x7
 712 0419 AA01     		.2byte	0x1aa
 713 041b 940B0000 		.4byte	0xb94
 714 041f 00       		.byte	0
 715 0420 00       		.byte	0
 716 0421 03       		.uleb128 0x3
 717 0422 9B0B0000 		.4byte	.LASF77
 718 0426 06       		.byte	0x6
 719 0427 70       		.byte	0x70
 720 0428 2C040000 		.4byte	0x42c
 721 042c 10       		.uleb128 0x10
 722 042d 040B0000 		.4byte	.LASF78
 723 0431 5001     		.2byte	0x150
 724 0433 07       		.byte	0x7
 725 0434 C201     		.2byte	0x1c2
 726 0436 88040000 		.4byte	0x488
 727 043a 0A       		.uleb128 0xa
 728 043b DD090000 		.4byte	.LASF79
 729 043f 07       		.byte	0x7
 730 0440 C601     		.2byte	0x1c6
 731 0442 CF020000 		.4byte	0x2cf
 732 0446 00       		.byte	0
 733 0447 0A       		.uleb128 0xa
 734 0448 BE0A0000 		.4byte	.LASF80
 735 044c 07       		.byte	0x7
 736 044d CA01     		.2byte	0x1ca
 737 044f AE030000 		.4byte	0x3ae
 738 0453 1C       		.byte	0x1c
 739 0454 09       		.uleb128 0x9
 740 0455 64626700 		.ascii	"dbg\000"
 741 0459 07       		.byte	0x7
ARM GAS  /var/folders/qd/4mxf5pkd0zdf0b9dd1hp39180000gn/T//ccOenxqv.s 			page 14


 742 045a CE01     		.2byte	0x1ce
 743 045c FB030000 		.4byte	0x3fb
 744 0460 2C       		.byte	0x2c
 745 0461 0A       		.uleb128 0xa
 746 0462 77090000 		.4byte	.LASF81
 747 0466 07       		.byte	0x7
 748 0467 D201     		.2byte	0x1d2
 749 0469 72010000 		.4byte	0x172
 750 046d 30       		.byte	0x30
 751 046e 09       		.uleb128 0x9
 752 046f 746D00   		.ascii	"tm\000"
 753 0472 07       		.byte	0x7
 754 0473 D701     		.2byte	0x1d7
 755 0475 BE0A0000 		.4byte	0xabe
 756 0479 74       		.byte	0x74
 757 047a 0A       		.uleb128 0xa
 758 047b 90070000 		.4byte	.LASF82
 759 047f 07       		.byte	0x7
 760 0480 E301     		.2byte	0x1e3
 761 0482 AB0B0000 		.4byte	0xbab
 762 0486 78       		.byte	0x78
 763 0487 00       		.byte	0
 764 0488 11       		.uleb128 0x11
 765 0489 040E     		.2byte	0xe04
 766 048b 08       		.byte	0x8
 767 048c 5001     		.2byte	0x150
 768 048e 44050000 		.4byte	0x544
 769 0492 0A       		.uleb128 0xa
 770 0493 EF0B0000 		.4byte	.LASF83
 771 0497 08       		.byte	0x8
 772 0498 5201     		.2byte	0x152
 773 049a 54050000 		.4byte	0x554
 774 049e 00       		.byte	0
 775 049f 0A       		.uleb128 0xa
 776 04a0 CF020000 		.4byte	.LASF84
 777 04a4 08       		.byte	0x8
 778 04a5 5301     		.2byte	0x153
 779 04a7 59050000 		.4byte	0x559
 780 04ab 20       		.byte	0x20
 781 04ac 0A       		.uleb128 0xa
 782 04ad 82090000 		.4byte	.LASF85
 783 04b1 08       		.byte	0x8
 784 04b2 5401     		.2byte	0x154
 785 04b4 54050000 		.4byte	0x554
 786 04b8 80       		.byte	0x80
 787 04b9 0A       		.uleb128 0xa
 788 04ba 05000000 		.4byte	.LASF86
 789 04be 08       		.byte	0x8
 790 04bf 5501     		.2byte	0x155
 791 04c1 59050000 		.4byte	0x559
 792 04c5 A0       		.byte	0xa0
 793 04c6 12       		.uleb128 0x12
 794 04c7 FD030000 		.4byte	.LASF87
 795 04cb 08       		.byte	0x8
 796 04cc 5601     		.2byte	0x156
 797 04ce 54050000 		.4byte	0x554
 798 04d2 0001     		.2byte	0x100
ARM GAS  /var/folders/qd/4mxf5pkd0zdf0b9dd1hp39180000gn/T//ccOenxqv.s 			page 15


 799 04d4 12       		.uleb128 0x12
 800 04d5 5D030000 		.4byte	.LASF88
 801 04d9 08       		.byte	0x8
 802 04da 5701     		.2byte	0x157
 803 04dc 59050000 		.4byte	0x559
 804 04e0 2001     		.2byte	0x120
 805 04e2 12       		.uleb128 0x12
 806 04e3 31010000 		.4byte	.LASF89
 807 04e7 08       		.byte	0x8
 808 04e8 5801     		.2byte	0x158
 809 04ea 54050000 		.4byte	0x554
 810 04ee 8001     		.2byte	0x180
 811 04f0 12       		.uleb128 0x12
 812 04f1 E7020000 		.4byte	.LASF90
 813 04f5 08       		.byte	0x8
 814 04f6 5901     		.2byte	0x159
 815 04f8 59050000 		.4byte	0x559
 816 04fc A001     		.2byte	0x1a0
 817 04fe 12       		.uleb128 0x12
 818 04ff 31030000 		.4byte	.LASF91
 819 0503 08       		.byte	0x8
 820 0504 5A01     		.2byte	0x15a
 821 0506 54050000 		.4byte	0x554
 822 050a 0002     		.2byte	0x200
 823 050c 12       		.uleb128 0x12
 824 050d F1020000 		.4byte	.LASF92
 825 0511 08       		.byte	0x8
 826 0512 5B01     		.2byte	0x15b
 827 0514 69050000 		.4byte	0x569
 828 0518 2002     		.2byte	0x220
 829 051a 13       		.uleb128 0x13
 830 051b 495000   		.ascii	"IP\000"
 831 051e 08       		.byte	0x8
 832 051f 5C01     		.2byte	0x15c
 833 0521 89050000 		.4byte	0x589
 834 0525 0003     		.2byte	0x300
 835 0527 12       		.uleb128 0x12
 836 0528 FB020000 		.4byte	.LASF93
 837 052c 08       		.byte	0x8
 838 052d 5D01     		.2byte	0x15d
 839 052f 8E050000 		.4byte	0x58e
 840 0533 F003     		.2byte	0x3f0
 841 0535 12       		.uleb128 0x12
 842 0536 35040000 		.4byte	.LASF94
 843 053a 08       		.byte	0x8
 844 053b 5E01     		.2byte	0x15e
 845 053d EF000000 		.4byte	0xef
 846 0541 000E     		.2byte	0xe00
 847 0543 00       		.byte	0
 848 0544 14       		.uleb128 0x14
 849 0545 EF000000 		.4byte	0xef
 850 0549 54050000 		.4byte	0x554
 851 054d 15       		.uleb128 0x15
 852 054e 37000000 		.4byte	0x37
 853 0552 07       		.byte	0x7
 854 0553 00       		.byte	0
 855 0554 05       		.uleb128 0x5
ARM GAS  /var/folders/qd/4mxf5pkd0zdf0b9dd1hp39180000gn/T//ccOenxqv.s 			page 16


 856 0555 44050000 		.4byte	0x544
 857 0559 14       		.uleb128 0x14
 858 055a E4000000 		.4byte	0xe4
 859 055e 69050000 		.4byte	0x569
 860 0562 15       		.uleb128 0x15
 861 0563 37000000 		.4byte	0x37
 862 0567 17       		.byte	0x17
 863 0568 00       		.byte	0
 864 0569 14       		.uleb128 0x14
 865 056a E4000000 		.4byte	0xe4
 866 056e 79050000 		.4byte	0x579
 867 0572 15       		.uleb128 0x15
 868 0573 37000000 		.4byte	0x37
 869 0577 37       		.byte	0x37
 870 0578 00       		.byte	0
 871 0579 14       		.uleb128 0x14
 872 057a BF000000 		.4byte	0xbf
 873 057e 89050000 		.4byte	0x589
 874 0582 15       		.uleb128 0x15
 875 0583 37000000 		.4byte	0x37
 876 0587 EF       		.byte	0xef
 877 0588 00       		.byte	0
 878 0589 05       		.uleb128 0x5
 879 058a 79050000 		.4byte	0x579
 880 058e 14       		.uleb128 0x14
 881 058f E4000000 		.4byte	0xe4
 882 0593 9F050000 		.4byte	0x59f
 883 0597 16       		.uleb128 0x16
 884 0598 37000000 		.4byte	0x37
 885 059c 8302     		.2byte	0x283
 886 059e 00       		.byte	0
 887 059f 17       		.uleb128 0x17
 888 05a0 CD080000 		.4byte	.LASF95
 889 05a4 08       		.byte	0x8
 890 05a5 5F01     		.2byte	0x15f
 891 05a7 88040000 		.4byte	0x488
 892 05ab 18       		.uleb128 0x18
 893 05ac 8C       		.byte	0x8c
 894 05ad 08       		.byte	0x8
 895 05ae 7001     		.2byte	0x170
 896 05b0 C6060000 		.4byte	0x6c6
 897 05b4 0A       		.uleb128 0xa
 898 05b5 18020000 		.4byte	.LASF96
 899 05b9 08       		.byte	0x8
 900 05ba 7201     		.2byte	0x172
 901 05bc F4000000 		.4byte	0xf4
 902 05c0 00       		.byte	0
 903 05c1 0A       		.uleb128 0xa
 904 05c2 72020000 		.4byte	.LASF97
 905 05c6 08       		.byte	0x8
 906 05c7 7301     		.2byte	0x173
 907 05c9 EF000000 		.4byte	0xef
 908 05cd 04       		.byte	0x4
 909 05ce 0A       		.uleb128 0xa
 910 05cf CB000000 		.4byte	.LASF98
 911 05d3 08       		.byte	0x8
 912 05d4 7401     		.2byte	0x174
ARM GAS  /var/folders/qd/4mxf5pkd0zdf0b9dd1hp39180000gn/T//ccOenxqv.s 			page 17


 913 05d6 EF000000 		.4byte	0xef
 914 05da 08       		.byte	0x8
 915 05db 0A       		.uleb128 0xa
 916 05dc B8010000 		.4byte	.LASF99
 917 05e0 08       		.byte	0x8
 918 05e1 7501     		.2byte	0x175
 919 05e3 EF000000 		.4byte	0xef
 920 05e7 0C       		.byte	0xc
 921 05e8 09       		.uleb128 0x9
 922 05e9 53435200 		.ascii	"SCR\000"
 923 05ed 08       		.byte	0x8
 924 05ee 7601     		.2byte	0x176
 925 05f0 EF000000 		.4byte	0xef
 926 05f4 10       		.byte	0x10
 927 05f5 09       		.uleb128 0x9
 928 05f6 43435200 		.ascii	"CCR\000"
 929 05fa 08       		.byte	0x8
 930 05fb 7701     		.2byte	0x177
 931 05fd EF000000 		.4byte	0xef
 932 0601 14       		.byte	0x14
 933 0602 09       		.uleb128 0x9
 934 0603 53485000 		.ascii	"SHP\000"
 935 0607 08       		.byte	0x8
 936 0608 7801     		.2byte	0x178
 937 060a D6060000 		.4byte	0x6d6
 938 060e 18       		.byte	0x18
 939 060f 0A       		.uleb128 0xa
 940 0610 1F040000 		.4byte	.LASF100
 941 0614 08       		.byte	0x8
 942 0615 7901     		.2byte	0x179
 943 0617 EF000000 		.4byte	0xef
 944 061b 24       		.byte	0x24
 945 061c 0A       		.uleb128 0xa
 946 061d D8090000 		.4byte	.LASF101
 947 0621 08       		.byte	0x8
 948 0622 7A01     		.2byte	0x17a
 949 0624 EF000000 		.4byte	0xef
 950 0628 28       		.byte	0x28
 951 0629 0A       		.uleb128 0xa
 952 062a CD030000 		.4byte	.LASF102
 953 062e 08       		.byte	0x8
 954 062f 7B01     		.2byte	0x17b
 955 0631 EF000000 		.4byte	0xef
 956 0635 2C       		.byte	0x2c
 957 0636 0A       		.uleb128 0xa
 958 0637 94030000 		.4byte	.LASF103
 959 063b 08       		.byte	0x8
 960 063c 7C01     		.2byte	0x17c
 961 063e EF000000 		.4byte	0xef
 962 0642 30       		.byte	0x30
 963 0643 0A       		.uleb128 0xa
 964 0644 400A0000 		.4byte	.LASF104
 965 0648 08       		.byte	0x8
 966 0649 7D01     		.2byte	0x17d
 967 064b EF000000 		.4byte	0xef
 968 064f 34       		.byte	0x34
 969 0650 0A       		.uleb128 0xa
ARM GAS  /var/folders/qd/4mxf5pkd0zdf0b9dd1hp39180000gn/T//ccOenxqv.s 			page 18


 970 0651 C2080000 		.4byte	.LASF105
 971 0655 08       		.byte	0x8
 972 0656 7E01     		.2byte	0x17e
 973 0658 EF000000 		.4byte	0xef
 974 065c 38       		.byte	0x38
 975 065d 0A       		.uleb128 0xa
 976 065e A8090000 		.4byte	.LASF106
 977 0662 08       		.byte	0x8
 978 0663 7F01     		.2byte	0x17f
 979 0665 EF000000 		.4byte	0xef
 980 0669 3C       		.byte	0x3c
 981 066a 09       		.uleb128 0x9
 982 066b 50465200 		.ascii	"PFR\000"
 983 066f 08       		.byte	0x8
 984 0670 8001     		.2byte	0x180
 985 0672 F0060000 		.4byte	0x6f0
 986 0676 40       		.byte	0x40
 987 0677 09       		.uleb128 0x9
 988 0678 44465200 		.ascii	"DFR\000"
 989 067c 08       		.byte	0x8
 990 067d 8101     		.2byte	0x181
 991 067f F4000000 		.4byte	0xf4
 992 0683 48       		.byte	0x48
 993 0684 09       		.uleb128 0x9
 994 0685 41445200 		.ascii	"ADR\000"
 995 0689 08       		.byte	0x8
 996 068a 8201     		.2byte	0x182
 997 068c F4000000 		.4byte	0xf4
 998 0690 4C       		.byte	0x4c
 999 0691 0A       		.uleb128 0xa
 1000 0692 310A0000 		.4byte	.LASF107
 1001 0696 08       		.byte	0x8
 1002 0697 8301     		.2byte	0x183
 1003 0699 0A070000 		.4byte	0x70a
 1004 069d 50       		.byte	0x50
 1005 069e 0A       		.uleb128 0xa
 1006 069f 7B0A0000 		.4byte	.LASF108
 1007 06a3 08       		.byte	0x8
 1008 06a4 8401     		.2byte	0x184
 1009 06a6 24070000 		.4byte	0x724
 1010 06aa 60       		.byte	0x60
 1011 06ab 0A       		.uleb128 0xa
 1012 06ac CF020000 		.4byte	.LASF84
 1013 06b0 08       		.byte	0x8
 1014 06b1 8501     		.2byte	0x185
 1015 06b3 29070000 		.4byte	0x729
 1016 06b7 74       		.byte	0x74
 1017 06b8 0A       		.uleb128 0xa
 1018 06b9 950B0000 		.4byte	.LASF109
 1019 06bd 08       		.byte	0x8
 1020 06be 8601     		.2byte	0x186
 1021 06c0 EF000000 		.4byte	0xef
 1022 06c4 88       		.byte	0x88
 1023 06c5 00       		.byte	0
 1024 06c6 14       		.uleb128 0x14
 1025 06c7 BF000000 		.4byte	0xbf
 1026 06cb D6060000 		.4byte	0x6d6
ARM GAS  /var/folders/qd/4mxf5pkd0zdf0b9dd1hp39180000gn/T//ccOenxqv.s 			page 19


 1027 06cf 15       		.uleb128 0x15
 1028 06d0 37000000 		.4byte	0x37
 1029 06d4 0B       		.byte	0xb
 1030 06d5 00       		.byte	0
 1031 06d6 05       		.uleb128 0x5
 1032 06d7 C6060000 		.4byte	0x6c6
 1033 06db 14       		.uleb128 0x14
 1034 06dc F4000000 		.4byte	0xf4
 1035 06e0 EB060000 		.4byte	0x6eb
 1036 06e4 15       		.uleb128 0x15
 1037 06e5 37000000 		.4byte	0x37
 1038 06e9 01       		.byte	0x1
 1039 06ea 00       		.byte	0
 1040 06eb 06       		.uleb128 0x6
 1041 06ec DB060000 		.4byte	0x6db
 1042 06f0 05       		.uleb128 0x5
 1043 06f1 EB060000 		.4byte	0x6eb
 1044 06f5 14       		.uleb128 0x14
 1045 06f6 F4000000 		.4byte	0xf4
 1046 06fa 05070000 		.4byte	0x705
 1047 06fe 15       		.uleb128 0x15
 1048 06ff 37000000 		.4byte	0x37
 1049 0703 03       		.byte	0x3
 1050 0704 00       		.byte	0
 1051 0705 06       		.uleb128 0x6
 1052 0706 F5060000 		.4byte	0x6f5
 1053 070a 05       		.uleb128 0x5
 1054 070b 05070000 		.4byte	0x705
 1055 070f 14       		.uleb128 0x14
 1056 0710 F4000000 		.4byte	0xf4
 1057 0714 1F070000 		.4byte	0x71f
 1058 0718 15       		.uleb128 0x15
 1059 0719 37000000 		.4byte	0x37
 1060 071d 04       		.byte	0x4
 1061 071e 00       		.byte	0
 1062 071f 06       		.uleb128 0x6
 1063 0720 0F070000 		.4byte	0x70f
 1064 0724 05       		.uleb128 0x5
 1065 0725 1F070000 		.4byte	0x71f
 1066 0729 14       		.uleb128 0x14
 1067 072a E4000000 		.4byte	0xe4
 1068 072e 39070000 		.4byte	0x739
 1069 0732 15       		.uleb128 0x15
 1070 0733 37000000 		.4byte	0x37
 1071 0737 04       		.byte	0x4
 1072 0738 00       		.byte	0
 1073 0739 17       		.uleb128 0x17
 1074 073a 7E030000 		.4byte	.LASF110
 1075 073e 08       		.byte	0x8
 1076 073f 8701     		.2byte	0x187
 1077 0741 AB050000 		.4byte	0x5ab
 1078 0745 19       		.uleb128 0x19
 1079 0746 2E070000 		.4byte	.LASF111
 1080 074a 08       		.byte	0x8
 1081 074b A706     		.2byte	0x6a7
 1082 074d DF000000 		.4byte	0xdf
 1083 0751 1A       		.uleb128 0x1a
ARM GAS  /var/folders/qd/4mxf5pkd0zdf0b9dd1hp39180000gn/T//ccOenxqv.s 			page 20


 1084 0752 CD040000 		.4byte	.LASF112
 1085 0756 09       		.byte	0x9
 1086 0757 4C       		.byte	0x4c
 1087 0758 E4000000 		.4byte	0xe4
 1088 075c 18       		.uleb128 0x18
 1089 075d 18       		.byte	0x18
 1090 075e 0A       		.byte	0xa
 1091 075f 6B01     		.2byte	0x16b
 1092 0761 B3070000 		.4byte	0x7b3
 1093 0765 09       		.uleb128 0x9
 1094 0766 435200   		.ascii	"CR\000"
 1095 0769 0A       		.byte	0xa
 1096 076a 6D01     		.2byte	0x16d
 1097 076c EF000000 		.4byte	0xef
 1098 0770 00       		.byte	0
 1099 0771 0A       		.uleb128 0xa
 1100 0772 E50B0000 		.4byte	.LASF113
 1101 0776 0A       		.byte	0xa
 1102 0777 6E01     		.2byte	0x16e
 1103 0779 EF000000 		.4byte	0xef
 1104 077d 04       		.byte	0x4
 1105 077e 09       		.uleb128 0x9
 1106 077f 50415200 		.ascii	"PAR\000"
 1107 0783 0A       		.byte	0xa
 1108 0784 6F01     		.2byte	0x16f
 1109 0786 EF000000 		.4byte	0xef
 1110 078a 08       		.byte	0x8
 1111 078b 0A       		.uleb128 0xa
 1112 078c 240A0000 		.4byte	.LASF114
 1113 0790 0A       		.byte	0xa
 1114 0791 7001     		.2byte	0x170
 1115 0793 EF000000 		.4byte	0xef
 1116 0797 0C       		.byte	0xc
 1117 0798 0A       		.uleb128 0xa
 1118 0799 00000000 		.4byte	.LASF115
 1119 079d 0A       		.byte	0xa
 1120 079e 7101     		.2byte	0x171
 1121 07a0 EF000000 		.4byte	0xef
 1122 07a4 10       		.byte	0x10
 1123 07a5 09       		.uleb128 0x9
 1124 07a6 46435200 		.ascii	"FCR\000"
 1125 07aa 0A       		.byte	0xa
 1126 07ab 7201     		.2byte	0x172
 1127 07ad EF000000 		.4byte	0xef
 1128 07b1 14       		.byte	0x14
 1129 07b2 00       		.byte	0
 1130 07b3 17       		.uleb128 0x17
 1131 07b4 27080000 		.4byte	.LASF116
 1132 07b8 0A       		.byte	0xa
 1133 07b9 7301     		.2byte	0x173
 1134 07bb 5C070000 		.4byte	0x75c
 1135 07bf 14       		.uleb128 0x14
 1136 07c0 EF000000 		.4byte	0xef
 1137 07c4 CF070000 		.4byte	0x7cf
 1138 07c8 15       		.uleb128 0x15
 1139 07c9 37000000 		.4byte	0x37
 1140 07cd 01       		.byte	0x1
ARM GAS  /var/folders/qd/4mxf5pkd0zdf0b9dd1hp39180000gn/T//ccOenxqv.s 			page 21


 1141 07ce 00       		.byte	0
 1142 07cf 05       		.uleb128 0x5
 1143 07d0 BF070000 		.4byte	0x7bf
 1144 07d4 14       		.uleb128 0x14
 1145 07d5 EF000000 		.4byte	0xef
 1146 07d9 E4070000 		.4byte	0x7e4
 1147 07dd 15       		.uleb128 0x15
 1148 07de 37000000 		.4byte	0x37
 1149 07e2 03       		.byte	0x3
 1150 07e3 00       		.byte	0
 1151 07e4 05       		.uleb128 0x5
 1152 07e5 D4070000 		.4byte	0x7d4
 1153 07e9 18       		.uleb128 0x18
 1154 07ea 24       		.byte	0x24
 1155 07eb 0A       		.byte	0xa
 1156 07ec DB02     		.2byte	0x2db
 1157 07ee 66080000 		.4byte	0x866
 1158 07f2 09       		.uleb128 0x9
 1159 07f3 43523100 		.ascii	"CR1\000"
 1160 07f7 0A       		.byte	0xa
 1161 07f8 DD02     		.2byte	0x2dd
 1162 07fa EF000000 		.4byte	0xef
 1163 07fe 00       		.byte	0
 1164 07ff 09       		.uleb128 0x9
 1165 0800 43523200 		.ascii	"CR2\000"
 1166 0804 0A       		.byte	0xa
 1167 0805 DE02     		.2byte	0x2de
 1168 0807 EF000000 		.4byte	0xef
 1169 080b 04       		.byte	0x4
 1170 080c 09       		.uleb128 0x9
 1171 080d 535200   		.ascii	"SR\000"
 1172 0810 0A       		.byte	0xa
 1173 0811 DF02     		.2byte	0x2df
 1174 0813 EF000000 		.4byte	0xef
 1175 0817 08       		.byte	0x8
 1176 0818 09       		.uleb128 0x9
 1177 0819 445200   		.ascii	"DR\000"
 1178 081c 0A       		.byte	0xa
 1179 081d E002     		.2byte	0x2e0
 1180 081f EF000000 		.4byte	0xef
 1181 0823 0C       		.byte	0xc
 1182 0824 0A       		.uleb128 0xa
 1183 0825 EB090000 		.4byte	.LASF117
 1184 0829 0A       		.byte	0xa
 1185 082a E102     		.2byte	0x2e1
 1186 082c EF000000 		.4byte	0xef
 1187 0830 10       		.byte	0x10
 1188 0831 0A       		.uleb128 0xa
 1189 0832 3B070000 		.4byte	.LASF118
 1190 0836 0A       		.byte	0xa
 1191 0837 E202     		.2byte	0x2e2
 1192 0839 EF000000 		.4byte	0xef
 1193 083d 14       		.byte	0x14
 1194 083e 0A       		.uleb128 0xa
 1195 083f C5090000 		.4byte	.LASF119
 1196 0843 0A       		.byte	0xa
 1197 0844 E302     		.2byte	0x2e3
ARM GAS  /var/folders/qd/4mxf5pkd0zdf0b9dd1hp39180000gn/T//ccOenxqv.s 			page 22


 1198 0846 EF000000 		.4byte	0xef
 1199 084a 18       		.byte	0x18
 1200 084b 0A       		.uleb128 0xa
 1201 084c 86010000 		.4byte	.LASF120
 1202 0850 0A       		.byte	0xa
 1203 0851 E402     		.2byte	0x2e4
 1204 0853 EF000000 		.4byte	0xef
 1205 0857 1C       		.byte	0x1c
 1206 0858 0A       		.uleb128 0xa
 1207 0859 380B0000 		.4byte	.LASF121
 1208 085d 0A       		.byte	0xa
 1209 085e E502     		.2byte	0x2e5
 1210 0860 EF000000 		.4byte	0xef
 1211 0864 20       		.byte	0x20
 1212 0865 00       		.byte	0
 1213 0866 17       		.uleb128 0x17
 1214 0867 CC090000 		.4byte	.LASF122
 1215 086b 0A       		.byte	0xa
 1216 086c E602     		.2byte	0x2e6
 1217 086e E9070000 		.4byte	0x7e9
 1218 0872 18       		.uleb128 0x18
 1219 0873 1C       		.byte	0x1c
 1220 0874 0A       		.byte	0xa
 1221 0875 0903     		.2byte	0x309
 1222 0877 D5080000 		.4byte	0x8d5
 1223 087b 09       		.uleb128 0x9
 1224 087c 535200   		.ascii	"SR\000"
 1225 087f 0A       		.byte	0xa
 1226 0880 0B03     		.2byte	0x30b
 1227 0882 EF000000 		.4byte	0xef
 1228 0886 00       		.byte	0
 1229 0887 09       		.uleb128 0x9
 1230 0888 445200   		.ascii	"DR\000"
 1231 088b 0A       		.byte	0xa
 1232 088c 0C03     		.2byte	0x30c
 1233 088e EF000000 		.4byte	0xef
 1234 0892 04       		.byte	0x4
 1235 0893 09       		.uleb128 0x9
 1236 0894 42525200 		.ascii	"BRR\000"
 1237 0898 0A       		.byte	0xa
 1238 0899 0D03     		.2byte	0x30d
 1239 089b EF000000 		.4byte	0xef
 1240 089f 08       		.byte	0x8
 1241 08a0 09       		.uleb128 0x9
 1242 08a1 43523100 		.ascii	"CR1\000"
 1243 08a5 0A       		.byte	0xa
 1244 08a6 0E03     		.2byte	0x30e
 1245 08a8 EF000000 		.4byte	0xef
 1246 08ac 0C       		.byte	0xc
 1247 08ad 09       		.uleb128 0x9
 1248 08ae 43523200 		.ascii	"CR2\000"
 1249 08b2 0A       		.byte	0xa
 1250 08b3 0F03     		.2byte	0x30f
 1251 08b5 EF000000 		.4byte	0xef
 1252 08b9 10       		.byte	0x10
 1253 08ba 09       		.uleb128 0x9
 1254 08bb 43523300 		.ascii	"CR3\000"
ARM GAS  /var/folders/qd/4mxf5pkd0zdf0b9dd1hp39180000gn/T//ccOenxqv.s 			page 23


 1255 08bf 0A       		.byte	0xa
 1256 08c0 1003     		.2byte	0x310
 1257 08c2 EF000000 		.4byte	0xef
 1258 08c6 14       		.byte	0x14
 1259 08c7 0A       		.uleb128 0xa
 1260 08c8 FC060000 		.4byte	.LASF123
 1261 08cc 0A       		.byte	0xa
 1262 08cd 1103     		.2byte	0x311
 1263 08cf EF000000 		.4byte	0xef
 1264 08d3 18       		.byte	0x18
 1265 08d4 00       		.byte	0
 1266 08d5 17       		.uleb128 0x17
 1267 08d6 EF030000 		.4byte	.LASF124
 1268 08da 0A       		.byte	0xa
 1269 08db 1203     		.2byte	0x312
 1270 08dd 72080000 		.4byte	0x872
 1271 08e1 03       		.uleb128 0x3
 1272 08e2 53020000 		.4byte	.LASF125
 1273 08e6 0B       		.byte	0xb
 1274 08e7 65       		.byte	0x65
 1275 08e8 52030000 		.4byte	0x352
 1276 08ec 03       		.uleb128 0x3
 1277 08ed E4030000 		.4byte	.LASF126
 1278 08f1 0B       		.byte	0xb
 1279 08f2 6D       		.byte	0x6d
 1280 08f3 F9000000 		.4byte	0xf9
 1281 08f7 07       		.uleb128 0x7
 1282 08f8 B8020000 		.4byte	.LASF127
 1283 08fc 04       		.byte	0x4
 1284 08fd 0B       		.byte	0xb
 1285 08fe 89       		.byte	0x89
 1286 08ff 10090000 		.4byte	0x910
 1287 0903 1B       		.uleb128 0x1b
 1288 0904 72313300 		.ascii	"r13\000"
 1289 0908 0B       		.byte	0xb
 1290 0909 8A       		.byte	0x8a
 1291 090a 8B090000 		.4byte	0x98b
 1292 090e 00       		.byte	0
 1293 090f 00       		.byte	0
 1294 0910 07       		.uleb128 0x7
 1295 0911 90080000 		.4byte	.LASF128
 1296 0915 24       		.byte	0x24
 1297 0916 0C       		.byte	0xc
 1298 0917 F4       		.byte	0xf4
 1299 0918 8B090000 		.4byte	0x98b
 1300 091c 09       		.uleb128 0x9
 1301 091d 723400   		.ascii	"r4\000"
 1302 0920 0C       		.byte	0xc
 1303 0921 0701     		.2byte	0x107
 1304 0923 E1080000 		.4byte	0x8e1
 1305 0927 00       		.byte	0
 1306 0928 09       		.uleb128 0x9
 1307 0929 723500   		.ascii	"r5\000"
 1308 092c 0C       		.byte	0xc
 1309 092d 0801     		.2byte	0x108
 1310 092f E1080000 		.4byte	0x8e1
 1311 0933 04       		.byte	0x4
ARM GAS  /var/folders/qd/4mxf5pkd0zdf0b9dd1hp39180000gn/T//ccOenxqv.s 			page 24


 1312 0934 09       		.uleb128 0x9
 1313 0935 723600   		.ascii	"r6\000"
 1314 0938 0C       		.byte	0xc
 1315 0939 0901     		.2byte	0x109
 1316 093b E1080000 		.4byte	0x8e1
 1317 093f 08       		.byte	0x8
 1318 0940 09       		.uleb128 0x9
 1319 0941 723700   		.ascii	"r7\000"
 1320 0944 0C       		.byte	0xc
 1321 0945 0A01     		.2byte	0x10a
 1322 0947 E1080000 		.4byte	0x8e1
 1323 094b 0C       		.byte	0xc
 1324 094c 09       		.uleb128 0x9
 1325 094d 723800   		.ascii	"r8\000"
 1326 0950 0C       		.byte	0xc
 1327 0951 0B01     		.2byte	0x10b
 1328 0953 E1080000 		.4byte	0x8e1
 1329 0957 10       		.byte	0x10
 1330 0958 09       		.uleb128 0x9
 1331 0959 723900   		.ascii	"r9\000"
 1332 095c 0C       		.byte	0xc
 1333 095d 0C01     		.2byte	0x10c
 1334 095f E1080000 		.4byte	0x8e1
 1335 0963 14       		.byte	0x14
 1336 0964 09       		.uleb128 0x9
 1337 0965 72313000 		.ascii	"r10\000"
 1338 0969 0C       		.byte	0xc
 1339 096a 0D01     		.2byte	0x10d
 1340 096c E1080000 		.4byte	0x8e1
 1341 0970 18       		.byte	0x18
 1342 0971 09       		.uleb128 0x9
 1343 0972 72313100 		.ascii	"r11\000"
 1344 0976 0C       		.byte	0xc
 1345 0977 0E01     		.2byte	0x10e
 1346 0979 E1080000 		.4byte	0x8e1
 1347 097d 1C       		.byte	0x1c
 1348 097e 09       		.uleb128 0x9
 1349 097f 6C7200   		.ascii	"lr\000"
 1350 0982 0C       		.byte	0xc
 1351 0983 0F01     		.2byte	0x10f
 1352 0985 E1080000 		.4byte	0x8e1
 1353 0989 20       		.byte	0x20
 1354 098a 00       		.byte	0
 1355 098b 0B       		.uleb128 0xb
 1356 098c 04       		.byte	0x4
 1357 098d 10090000 		.4byte	0x910
 1358 0991 18       		.uleb128 0x18
 1359 0992 60       		.byte	0x60
 1360 0993 0D       		.byte	0xd
 1361 0994 9E01     		.2byte	0x19e
 1362 0996 9D0A0000 		.4byte	0xa9d
 1363 099a 09       		.uleb128 0x9
 1364 099b 43523100 		.ascii	"CR1\000"
 1365 099f 0D       		.byte	0xd
 1366 09a0 9F01     		.2byte	0x19f
 1367 09a2 EF000000 		.4byte	0xef
 1368 09a6 00       		.byte	0
ARM GAS  /var/folders/qd/4mxf5pkd0zdf0b9dd1hp39180000gn/T//ccOenxqv.s 			page 25


 1369 09a7 09       		.uleb128 0x9
 1370 09a8 43523200 		.ascii	"CR2\000"
 1371 09ac 0D       		.byte	0xd
 1372 09ad A001     		.2byte	0x1a0
 1373 09af EF000000 		.4byte	0xef
 1374 09b3 04       		.byte	0x4
 1375 09b4 0A       		.uleb128 0xa
 1376 09b5 87090000 		.4byte	.LASF129
 1377 09b9 0D       		.byte	0xd
 1378 09ba A101     		.2byte	0x1a1
 1379 09bc EF000000 		.4byte	0xef
 1380 09c0 08       		.byte	0x8
 1381 09c1 0A       		.uleb128 0xa
 1382 09c2 C1040000 		.4byte	.LASF130
 1383 09c6 0D       		.byte	0xd
 1384 09c7 A201     		.2byte	0x1a2
 1385 09c9 EF000000 		.4byte	0xef
 1386 09cd 0C       		.byte	0xc
 1387 09ce 09       		.uleb128 0x9
 1388 09cf 535200   		.ascii	"SR\000"
 1389 09d2 0D       		.byte	0xd
 1390 09d3 A301     		.2byte	0x1a3
 1391 09d5 EF000000 		.4byte	0xef
 1392 09d9 10       		.byte	0x10
 1393 09da 09       		.uleb128 0x9
 1394 09db 45475200 		.ascii	"EGR\000"
 1395 09df 0D       		.byte	0xd
 1396 09e0 A401     		.2byte	0x1a4
 1397 09e2 EF000000 		.4byte	0xef
 1398 09e6 14       		.byte	0x14
 1399 09e7 0A       		.uleb128 0xa
 1400 09e8 67030000 		.4byte	.LASF131
 1401 09ec 0D       		.byte	0xd
 1402 09ed A501     		.2byte	0x1a5
 1403 09ef EF000000 		.4byte	0xef
 1404 09f3 18       		.byte	0x18
 1405 09f4 0A       		.uleb128 0xa
 1406 09f5 6D030000 		.4byte	.LASF132
 1407 09f9 0D       		.byte	0xd
 1408 09fa A601     		.2byte	0x1a6
 1409 09fc EF000000 		.4byte	0xef
 1410 0a00 1C       		.byte	0x1c
 1411 0a01 0A       		.uleb128 0xa
 1412 0a02 4A090000 		.4byte	.LASF133
 1413 0a06 0D       		.byte	0xd
 1414 0a07 A701     		.2byte	0x1a7
 1415 0a09 EF000000 		.4byte	0xef
 1416 0a0d 20       		.byte	0x20
 1417 0a0e 09       		.uleb128 0x9
 1418 0a0f 434E5400 		.ascii	"CNT\000"
 1419 0a13 0D       		.byte	0xd
 1420 0a14 A801     		.2byte	0x1a8
 1421 0a16 EF000000 		.4byte	0xef
 1422 0a1a 24       		.byte	0x24
 1423 0a1b 09       		.uleb128 0x9
 1424 0a1c 50534300 		.ascii	"PSC\000"
 1425 0a20 0D       		.byte	0xd
ARM GAS  /var/folders/qd/4mxf5pkd0zdf0b9dd1hp39180000gn/T//ccOenxqv.s 			page 26


 1426 0a21 A901     		.2byte	0x1a9
 1427 0a23 EF000000 		.4byte	0xef
 1428 0a27 28       		.byte	0x28
 1429 0a28 09       		.uleb128 0x9
 1430 0a29 41525200 		.ascii	"ARR\000"
 1431 0a2d 0D       		.byte	0xd
 1432 0a2e AA01     		.2byte	0x1aa
 1433 0a30 EF000000 		.4byte	0xef
 1434 0a34 2C       		.byte	0x2c
 1435 0a35 09       		.uleb128 0x9
 1436 0a36 52435200 		.ascii	"RCR\000"
 1437 0a3a 0D       		.byte	0xd
 1438 0a3b AB01     		.2byte	0x1ab
 1439 0a3d EF000000 		.4byte	0xef
 1440 0a41 30       		.byte	0x30
 1441 0a42 09       		.uleb128 0x9
 1442 0a43 43435200 		.ascii	"CCR\000"
 1443 0a47 0D       		.byte	0xd
 1444 0a48 AC01     		.2byte	0x1ac
 1445 0a4a E4070000 		.4byte	0x7e4
 1446 0a4e 34       		.byte	0x34
 1447 0a4f 0A       		.uleb128 0xa
 1448 0a50 190B0000 		.4byte	.LASF134
 1449 0a54 0D       		.byte	0xd
 1450 0a55 AD01     		.2byte	0x1ad
 1451 0a57 EF000000 		.4byte	0xef
 1452 0a5b 44       		.byte	0x44
 1453 0a5c 09       		.uleb128 0x9
 1454 0a5d 44435200 		.ascii	"DCR\000"
 1455 0a61 0D       		.byte	0xd
 1456 0a62 AE01     		.2byte	0x1ae
 1457 0a64 EF000000 		.4byte	0xef
 1458 0a68 48       		.byte	0x48
 1459 0a69 0A       		.uleb128 0xa
 1460 0a6a 2C010000 		.4byte	.LASF135
 1461 0a6e 0D       		.byte	0xd
 1462 0a6f AF01     		.2byte	0x1af
 1463 0a71 EF000000 		.4byte	0xef
 1464 0a75 4C       		.byte	0x4c
 1465 0a76 09       		.uleb128 0x9
 1466 0a77 4F5200   		.ascii	"OR\000"
 1467 0a7a 0D       		.byte	0xd
 1468 0a7b B001     		.2byte	0x1b0
 1469 0a7d EF000000 		.4byte	0xef
 1470 0a81 50       		.byte	0x50
 1471 0a82 0A       		.uleb128 0xa
 1472 0a83 73030000 		.4byte	.LASF136
 1473 0a87 0D       		.byte	0xd
 1474 0a88 B101     		.2byte	0x1b1
 1475 0a8a EF000000 		.4byte	0xef
 1476 0a8e 54       		.byte	0x54
 1477 0a8f 0A       		.uleb128 0xa
 1478 0a90 1A040000 		.4byte	.LASF137
 1479 0a94 0D       		.byte	0xd
 1480 0a95 B201     		.2byte	0x1b2
 1481 0a97 CF070000 		.4byte	0x7cf
 1482 0a9b 58       		.byte	0x58
ARM GAS  /var/folders/qd/4mxf5pkd0zdf0b9dd1hp39180000gn/T//ccOenxqv.s 			page 27


 1483 0a9c 00       		.byte	0
 1484 0a9d 17       		.uleb128 0x17
 1485 0a9e 8A050000 		.4byte	.LASF138
 1486 0aa2 0D       		.byte	0xd
 1487 0aa3 B301     		.2byte	0x1b3
 1488 0aa5 91090000 		.4byte	0x991
 1489 0aa9 1C       		.uleb128 0x1c
 1490 0aaa 04       		.byte	0x4
 1491 0aab 0E       		.byte	0xe
 1492 0aac 38       		.byte	0x38
 1493 0aad BE0A0000 		.4byte	0xabe
 1494 0ab1 08       		.uleb128 0x8
 1495 0ab2 19080000 		.4byte	.LASF139
 1496 0ab6 0E       		.byte	0xe
 1497 0ab7 3C       		.byte	0x3c
 1498 0ab8 04010000 		.4byte	0x104
 1499 0abc 00       		.byte	0
 1500 0abd 00       		.byte	0
 1501 0abe 03       		.uleb128 0x3
 1502 0abf 0C0A0000 		.4byte	.LASF140
 1503 0ac3 0E       		.byte	0xe
 1504 0ac4 3D       		.byte	0x3d
 1505 0ac5 A90A0000 		.4byte	0xaa9
 1506 0ac9 1D       		.uleb128 0x1d
 1507 0aca 04       		.byte	0x4
 1508 0acb 07       		.byte	0x7
 1509 0acc FA       		.byte	0xfa
 1510 0acd 260B0000 		.4byte	0xb26
 1511 0ad1 1E       		.uleb128 0x1e
 1512 0ad2 6F0B0000 		.4byte	.LASF141
 1513 0ad6 07       		.byte	0x7
 1514 0ad7 0101     		.2byte	0x101
 1515 0ad9 3B010000 		.4byte	0x13b
 1516 0add 1E       		.uleb128 0x1e
 1517 0ade 7D010000 		.4byte	.LASF142
 1518 0ae2 07       		.byte	0x7
 1519 0ae3 0801     		.2byte	0x108
 1520 0ae5 3B010000 		.4byte	0x13b
 1521 0ae9 1E       		.uleb128 0x1e
 1522 0aea C6030000 		.4byte	.LASF143
 1523 0aee 07       		.byte	0x7
 1524 0aef 0F01     		.2byte	0x10f
 1525 0af1 52030000 		.4byte	0x352
 1526 0af5 1E       		.uleb128 0x1e
 1527 0af6 C0020000 		.4byte	.LASF144
 1528 0afa 07       		.byte	0x7
 1529 0afb 1601     		.2byte	0x116
 1530 0afd 260B0000 		.4byte	0xb26
 1531 0b01 1E       		.uleb128 0x1e
 1532 0b02 28000000 		.4byte	.LASF145
 1533 0b06 07       		.byte	0x7
 1534 0b07 1E01     		.2byte	0x11e
 1535 0b09 510B0000 		.4byte	0xb51
 1536 0b0d 1E       		.uleb128 0x1e
 1537 0b0e 53040000 		.4byte	.LASF146
 1538 0b12 07       		.byte	0x7
 1539 0b13 2701     		.2byte	0x127
ARM GAS  /var/folders/qd/4mxf5pkd0zdf0b9dd1hp39180000gn/T//ccOenxqv.s 			page 28


 1540 0b15 880B0000 		.4byte	0xb88
 1541 0b19 1E       		.uleb128 0x1e
 1542 0b1a 9D020000 		.4byte	.LASF147
 1543 0b1e 07       		.byte	0x7
 1544 0b1f 2F01     		.2byte	0x12f
 1545 0b21 46010000 		.4byte	0x146
 1546 0b25 00       		.byte	0
 1547 0b26 0B       		.uleb128 0xb
 1548 0b27 04       		.byte	0x4
 1549 0b28 6A020000 		.4byte	0x26a
 1550 0b2c 07       		.uleb128 0x7
 1551 0b2d DD040000 		.4byte	.LASF148
 1552 0b31 0C       		.byte	0xc
 1553 0b32 0F       		.byte	0xf
 1554 0b33 34       		.byte	0x34
 1555 0b34 510B0000 		.4byte	0xb51
 1556 0b38 08       		.uleb128 0x8
 1557 0b39 290A0000 		.4byte	.LASF149
 1558 0b3d 0F       		.byte	0xf
 1559 0b3e 35       		.byte	0x35
 1560 0b3f 9F020000 		.4byte	0x29f
 1561 0b43 00       		.byte	0
 1562 0b44 08       		.uleb128 0x8
 1563 0b45 C7080000 		.4byte	.LASF150
 1564 0b49 0F       		.byte	0xf
 1565 0b4a 37       		.byte	0x37
 1566 0b4b 5C010000 		.4byte	0x15c
 1567 0b4f 08       		.byte	0x8
 1568 0b50 00       		.byte	0
 1569 0b51 0B       		.uleb128 0xb
 1570 0b52 04       		.byte	0x4
 1571 0b53 2C0B0000 		.4byte	0xb2c
 1572 0b57 07       		.uleb128 0x7
 1573 0b58 6B0A0000 		.4byte	.LASF151
 1574 0b5c 10       		.byte	0x10
 1575 0b5d 10       		.byte	0x10
 1576 0b5e 39       		.byte	0x39
 1577 0b5f 880B0000 		.4byte	0xb88
 1578 0b63 08       		.uleb128 0x8
 1579 0b64 E4060000 		.4byte	.LASF152
 1580 0b68 10       		.byte	0x10
 1581 0b69 3A       		.byte	0x3a
 1582 0b6a 9F020000 		.4byte	0x29f
 1583 0b6e 00       		.byte	0
 1584 0b6f 08       		.uleb128 0x8
 1585 0b70 67010000 		.4byte	.LASF153
 1586 0b74 10       		.byte	0x10
 1587 0b75 3C       		.byte	0x3c
 1588 0b76 75020000 		.4byte	0x275
 1589 0b7a 08       		.byte	0x8
 1590 0b7b 08       		.uleb128 0x8
 1591 0b7c 010C0000 		.4byte	.LASF154
 1592 0b80 10       		.byte	0x10
 1593 0b81 3E       		.byte	0x3e
 1594 0b82 DD0C0000 		.4byte	0xcdd
 1595 0b86 0C       		.byte	0xc
 1596 0b87 00       		.byte	0
ARM GAS  /var/folders/qd/4mxf5pkd0zdf0b9dd1hp39180000gn/T//ccOenxqv.s 			page 29


 1597 0b88 0B       		.uleb128 0xb
 1598 0b89 04       		.byte	0x4
 1599 0b8a 570B0000 		.4byte	0xb57
 1600 0b8e 0B       		.uleb128 0xb
 1601 0b8f 04       		.byte	0x4
 1602 0b90 A00B0000 		.4byte	0xba0
 1603 0b94 05       		.uleb128 0x5
 1604 0b95 8E0B0000 		.4byte	0xb8e
 1605 0b99 04       		.uleb128 0x4
 1606 0b9a 01       		.byte	0x1
 1607 0b9b 08       		.byte	0x8
 1608 0b9c 79030000 		.4byte	.LASF155
 1609 0ba0 06       		.uleb128 0x6
 1610 0ba1 990B0000 		.4byte	0xb99
 1611 0ba5 0B       		.uleb128 0xb
 1612 0ba6 04       		.byte	0x4
 1613 0ba7 54030000 		.4byte	0x354
 1614 0bab 14       		.uleb128 0x14
 1615 0bac EC080000 		.4byte	0x8ec
 1616 0bb0 BB0B0000 		.4byte	0xbbb
 1617 0bb4 15       		.uleb128 0x15
 1618 0bb5 37000000 		.4byte	0x37
 1619 0bb9 1A       		.byte	0x1a
 1620 0bba 00       		.byte	0
 1621 0bbb 1F       		.uleb128 0x1f
 1622 0bbc 636800   		.ascii	"ch\000"
 1623 0bbf 07       		.byte	0x7
 1624 0bc0 0902     		.2byte	0x209
 1625 0bc2 21040000 		.4byte	0x421
 1626 0bc6 1C       		.uleb128 0x1c
 1627 0bc7 16       		.byte	0x16
 1628 0bc8 11       		.byte	0x11
 1629 0bc9 34       		.byte	0x34
 1630 0bca A70C0000 		.4byte	0xca7
 1631 0bce 08       		.uleb128 0x8
 1632 0bcf 45000000 		.4byte	.LASF156
 1633 0bd3 11       		.byte	0x11
 1634 0bd4 35       		.byte	0x35
 1635 0bd5 A70C0000 		.4byte	0xca7
 1636 0bd9 00       		.byte	0
 1637 0bda 08       		.uleb128 0x8
 1638 0bdb B9040000 		.4byte	.LASF157
 1639 0bdf 11       		.byte	0x11
 1640 0be0 36       		.byte	0x36
 1641 0be1 B4000000 		.4byte	0xb4
 1642 0be5 04       		.byte	0x4
 1643 0be6 08       		.uleb128 0x8
 1644 0be7 BC0B0000 		.4byte	.LASF158
 1645 0beb 11       		.byte	0x11
 1646 0bec 37       		.byte	0x37
 1647 0bed B4000000 		.4byte	0xb4
 1648 0bf1 05       		.byte	0x5
 1649 0bf2 08       		.uleb128 0x8
 1650 0bf3 D9060000 		.4byte	.LASF159
 1651 0bf7 11       		.byte	0x11
 1652 0bf8 38       		.byte	0x38
 1653 0bf9 C9000000 		.4byte	0xc9
ARM GAS  /var/folders/qd/4mxf5pkd0zdf0b9dd1hp39180000gn/T//ccOenxqv.s 			page 30


 1654 0bfd 06       		.byte	0x6
 1655 0bfe 08       		.uleb128 0x8
 1656 0bff 21010000 		.4byte	.LASF160
 1657 0c03 11       		.byte	0x11
 1658 0c04 39       		.byte	0x39
 1659 0c05 B4000000 		.4byte	0xb4
 1660 0c09 08       		.byte	0x8
 1661 0c0a 08       		.uleb128 0x8
 1662 0c0b E1070000 		.4byte	.LASF161
 1663 0c0f 11       		.byte	0x11
 1664 0c10 3A       		.byte	0x3a
 1665 0c11 B4000000 		.4byte	0xb4
 1666 0c15 09       		.byte	0x9
 1667 0c16 08       		.uleb128 0x8
 1668 0c17 9E010000 		.4byte	.LASF162
 1669 0c1b 11       		.byte	0x11
 1670 0c1c 3B       		.byte	0x3b
 1671 0c1d B4000000 		.4byte	0xb4
 1672 0c21 0A       		.byte	0xa
 1673 0c22 08       		.uleb128 0x8
 1674 0c23 DC000000 		.4byte	.LASF163
 1675 0c27 11       		.byte	0x11
 1676 0c28 3C       		.byte	0x3c
 1677 0c29 B4000000 		.4byte	0xb4
 1678 0c2d 0B       		.byte	0xb
 1679 0c2e 08       		.uleb128 0x8
 1680 0c2f 8A000000 		.4byte	.LASF164
 1681 0c33 11       		.byte	0x11
 1682 0c34 3D       		.byte	0x3d
 1683 0c35 B4000000 		.4byte	0xb4
 1684 0c39 0C       		.byte	0xc
 1685 0c3a 08       		.uleb128 0x8
 1686 0c3b D2030000 		.4byte	.LASF165
 1687 0c3f 11       		.byte	0x11
 1688 0c40 3E       		.byte	0x3e
 1689 0c41 B4000000 		.4byte	0xb4
 1690 0c45 0D       		.byte	0xd
 1691 0c46 08       		.uleb128 0x8
 1692 0c47 970A0000 		.4byte	.LASF166
 1693 0c4b 11       		.byte	0x11
 1694 0c4c 3F       		.byte	0x3f
 1695 0c4d B4000000 		.4byte	0xb4
 1696 0c51 0E       		.byte	0xe
 1697 0c52 08       		.uleb128 0x8
 1698 0c53 2F000000 		.4byte	.LASF167
 1699 0c57 11       		.byte	0x11
 1700 0c58 40       		.byte	0x40
 1701 0c59 B4000000 		.4byte	0xb4
 1702 0c5d 0F       		.byte	0xf
 1703 0c5e 08       		.uleb128 0x8
 1704 0c5f DF0A0000 		.4byte	.LASF168
 1705 0c63 11       		.byte	0x11
 1706 0c64 41       		.byte	0x41
 1707 0c65 B4000000 		.4byte	0xb4
 1708 0c69 10       		.byte	0x10
 1709 0c6a 08       		.uleb128 0x8
 1710 0c6b 04020000 		.4byte	.LASF169
ARM GAS  /var/folders/qd/4mxf5pkd0zdf0b9dd1hp39180000gn/T//ccOenxqv.s 			page 31


 1711 0c6f 11       		.byte	0x11
 1712 0c70 43       		.byte	0x43
 1713 0c71 B4000000 		.4byte	0xb4
 1714 0c75 11       		.byte	0x11
 1715 0c76 08       		.uleb128 0x8
 1716 0c77 3D090000 		.4byte	.LASF170
 1717 0c7b 11       		.byte	0x11
 1718 0c7c 44       		.byte	0x44
 1719 0c7d B4000000 		.4byte	0xb4
 1720 0c81 12       		.byte	0x12
 1721 0c82 08       		.uleb128 0x8
 1722 0c83 3A080000 		.4byte	.LASF171
 1723 0c87 11       		.byte	0x11
 1724 0c88 45       		.byte	0x45
 1725 0c89 B4000000 		.4byte	0xb4
 1726 0c8d 13       		.byte	0x13
 1727 0c8e 08       		.uleb128 0x8
 1728 0c8f A1060000 		.4byte	.LASF172
 1729 0c93 11       		.byte	0x11
 1730 0c94 46       		.byte	0x46
 1731 0c95 B4000000 		.4byte	0xb4
 1732 0c99 14       		.byte	0x14
 1733 0c9a 08       		.uleb128 0x8
 1734 0c9b 9C080000 		.4byte	.LASF173
 1735 0c9f 11       		.byte	0x11
 1736 0ca0 48       		.byte	0x48
 1737 0ca1 B4000000 		.4byte	0xb4
 1738 0ca5 15       		.byte	0x15
 1739 0ca6 00       		.byte	0
 1740 0ca7 14       		.uleb128 0x14
 1741 0ca8 990B0000 		.4byte	0xb99
 1742 0cac B70C0000 		.4byte	0xcb7
 1743 0cb0 15       		.uleb128 0x15
 1744 0cb1 37000000 		.4byte	0x37
 1745 0cb5 03       		.byte	0x3
 1746 0cb6 00       		.byte	0
 1747 0cb7 03       		.uleb128 0x3
 1748 0cb8 A70B0000 		.4byte	.LASF174
 1749 0cbc 11       		.byte	0x11
 1750 0cbd 49       		.byte	0x49
 1751 0cbe C60B0000 		.4byte	0xbc6
 1752 0cc2 06       		.uleb128 0x6
 1753 0cc3 B70C0000 		.4byte	0xcb7
 1754 0cc7 1A       		.uleb128 0x1a
 1755 0cc8 61000000 		.4byte	.LASF175
 1756 0ccc 11       		.byte	0x11
 1757 0ccd 6E       		.byte	0x6e
 1758 0cce C20C0000 		.4byte	0xcc2
 1759 0cd2 03       		.uleb128 0x3
 1760 0cd3 CF0A0000 		.4byte	.LASF176
 1761 0cd7 10       		.byte	0x10
 1762 0cd8 34       		.byte	0x34
 1763 0cd9 570B0000 		.4byte	0xb57
 1764 0cdd 0B       		.uleb128 0xb
 1765 0cde 04       		.byte	0x4
 1766 0cdf D20C0000 		.4byte	0xcd2
 1767 0ce3 03       		.uleb128 0x3
ARM GAS  /var/folders/qd/4mxf5pkd0zdf0b9dd1hp39180000gn/T//ccOenxqv.s 			page 32


 1768 0ce4 09040000 		.4byte	.LASF177
 1769 0ce8 12       		.byte	0x12
 1770 0ce9 34       		.byte	0x34
 1771 0cea EE0C0000 		.4byte	0xcee
 1772 0cee 07       		.uleb128 0x7
 1773 0cef 600B0000 		.4byte	.LASF178
 1774 0cf3 14       		.byte	0x14
 1775 0cf4 12       		.byte	0x12
 1776 0cf5 39       		.byte	0x39
 1777 0cf6 370D0000 		.4byte	0xd37
 1778 0cfa 08       		.uleb128 0x8
 1779 0cfb 3A050000 		.4byte	.LASF179
 1780 0cff 12       		.byte	0x12
 1781 0d00 3A       		.byte	0x3a
 1782 0d01 370D0000 		.4byte	0xd37
 1783 0d05 00       		.byte	0
 1784 0d06 08       		.uleb128 0x8
 1785 0d07 AD0C0000 		.4byte	.LASF180
 1786 0d0b 12       		.byte	0x12
 1787 0d0c 3D       		.byte	0x3d
 1788 0d0d 75020000 		.4byte	0x275
 1789 0d11 04       		.byte	0x4
 1790 0d12 08       		.uleb128 0x8
 1791 0d13 05080000 		.4byte	.LASF181
 1792 0d17 12       		.byte	0x12
 1793 0d18 3F       		.byte	0x3f
 1794 0d19 46010000 		.4byte	0x146
 1795 0d1d 08       		.byte	0x8
 1796 0d1e 08       		.uleb128 0x8
 1797 0d1f E8000000 		.4byte	.LASF182
 1798 0d23 12       		.byte	0x12
 1799 0d24 41       		.byte	0x41
 1800 0d25 51010000 		.4byte	0x151
 1801 0d29 0C       		.byte	0xc
 1802 0d2a 08       		.uleb128 0x8
 1803 0d2b ED070000 		.4byte	.LASF183
 1804 0d2f 12       		.byte	0x12
 1805 0d30 43       		.byte	0x43
 1806 0d31 51010000 		.4byte	0x151
 1807 0d35 10       		.byte	0x10
 1808 0d36 00       		.byte	0
 1809 0d37 0B       		.uleb128 0xb
 1810 0d38 04       		.byte	0x4
 1811 0d39 E30C0000 		.4byte	0xce3
 1812 0d3d 07       		.uleb128 0x7
 1813 0d3e 500A0000 		.4byte	.LASF184
 1814 0d42 04       		.byte	0x4
 1815 0d43 12       		.byte	0x12
 1816 0d44 4A       		.byte	0x4a
 1817 0d45 560D0000 		.4byte	0xd56
 1818 0d49 08       		.uleb128 0x8
 1819 0d4a 7D040000 		.4byte	.LASF185
 1820 0d4e 12       		.byte	0x12
 1821 0d4f 4B       		.byte	0x4b
 1822 0d50 370D0000 		.4byte	0xd37
 1823 0d54 00       		.byte	0
 1824 0d55 00       		.byte	0
ARM GAS  /var/folders/qd/4mxf5pkd0zdf0b9dd1hp39180000gn/T//ccOenxqv.s 			page 33


 1825 0d56 03       		.uleb128 0x3
 1826 0d57 09070000 		.4byte	.LASF186
 1827 0d5b 12       		.byte	0x12
 1828 0d5c 4E       		.byte	0x4e
 1829 0d5d 3D0D0000 		.4byte	0xd3d
 1830 0d61 03       		.uleb128 0x3
 1831 0d62 A40A0000 		.4byte	.LASF187
 1832 0d66 13       		.byte	0x13
 1833 0d67 3F       		.byte	0x3f
 1834 0d68 6C0D0000 		.4byte	0xd6c
 1835 0d6c 07       		.uleb128 0x7
 1836 0d6d 69020000 		.4byte	.LASF188
 1837 0d71 24       		.byte	0x24
 1838 0d72 13       		.byte	0x13
 1839 0d73 4D       		.byte	0x4d
 1840 0d74 D90D0000 		.4byte	0xdd9
 1841 0d78 08       		.uleb128 0x8
 1842 0d79 BB090000 		.4byte	.LASF189
 1843 0d7d 13       		.byte	0x13
 1844 0d7e 4E       		.byte	0x4e
 1845 0d7f 9F020000 		.4byte	0x29f
 1846 0d83 00       		.byte	0
 1847 0d84 08       		.uleb128 0x8
 1848 0d85 85040000 		.4byte	.LASF190
 1849 0d89 13       		.byte	0x13
 1850 0d8a 4F       		.byte	0x4f
 1851 0d8b 2C000000 		.4byte	0x2c
 1852 0d8f 08       		.byte	0x8
 1853 0d90 08       		.uleb128 0x8
 1854 0d91 BE010000 		.4byte	.LASF191
 1855 0d95 13       		.byte	0x13
 1856 0d96 50       		.byte	0x50
 1857 0d97 FB0D0000 		.4byte	0xdfb
 1858 0d9b 0C       		.byte	0xc
 1859 0d9c 08       		.uleb128 0x8
 1860 0d9d 98010000 		.4byte	.LASF192
 1861 0da1 13       		.byte	0x13
 1862 0da2 51       		.byte	0x51
 1863 0da3 FB0D0000 		.4byte	0xdfb
 1864 0da7 10       		.byte	0x10
 1865 0da8 08       		.uleb128 0x8
 1866 0da9 7D050000 		.4byte	.LASF193
 1867 0dad 13       		.byte	0x13
 1868 0dae 53       		.byte	0x53
 1869 0daf FB0D0000 		.4byte	0xdfb
 1870 0db3 14       		.byte	0x14
 1871 0db4 08       		.uleb128 0x8
 1872 0db5 FC010000 		.4byte	.LASF194
 1873 0db9 13       		.byte	0x13
 1874 0dba 54       		.byte	0x54
 1875 0dbb FB0D0000 		.4byte	0xdfb
 1876 0dbf 18       		.byte	0x18
 1877 0dc0 08       		.uleb128 0x8
 1878 0dc1 C7010000 		.4byte	.LASF195
 1879 0dc5 13       		.byte	0x13
 1880 0dc6 55       		.byte	0x55
 1881 0dc7 D90D0000 		.4byte	0xdd9
ARM GAS  /var/folders/qd/4mxf5pkd0zdf0b9dd1hp39180000gn/T//ccOenxqv.s 			page 34


 1882 0dcb 1C       		.byte	0x1c
 1883 0dcc 08       		.uleb128 0x8
 1884 0dcd 8A020000 		.4byte	.LASF196
 1885 0dd1 13       		.byte	0x13
 1886 0dd2 56       		.byte	0x56
 1887 0dd3 52030000 		.4byte	0x352
 1888 0dd7 20       		.byte	0x20
 1889 0dd8 00       		.byte	0
 1890 0dd9 03       		.uleb128 0x3
 1891 0dda 5D070000 		.4byte	.LASF197
 1892 0dde 13       		.byte	0x13
 1893 0ddf 42       		.byte	0x42
 1894 0de0 E40D0000 		.4byte	0xde4
 1895 0de4 0B       		.uleb128 0xb
 1896 0de5 04       		.byte	0x4
 1897 0de6 EA0D0000 		.4byte	0xdea
 1898 0dea 0D       		.uleb128 0xd
 1899 0deb F50D0000 		.4byte	0xdf5
 1900 0def 0E       		.uleb128 0xe
 1901 0df0 F50D0000 		.4byte	0xdf5
 1902 0df4 00       		.byte	0
 1903 0df5 0B       		.uleb128 0xb
 1904 0df6 04       		.byte	0x4
 1905 0df7 610D0000 		.4byte	0xd61
 1906 0dfb 0B       		.uleb128 0xb
 1907 0dfc 04       		.byte	0x4
 1908 0dfd B4000000 		.4byte	0xb4
 1909 0e01 03       		.uleb128 0x3
 1910 0e02 3E0B0000 		.4byte	.LASF198
 1911 0e06 13       		.byte	0x13
 1912 0e07 64       		.byte	0x64
 1913 0e08 610D0000 		.4byte	0xd61
 1914 0e0c 03       		.uleb128 0x3
 1915 0e0d C40B0000 		.4byte	.LASF199
 1916 0e11 13       		.byte	0x13
 1917 0e12 71       		.byte	0x71
 1918 0e13 610D0000 		.4byte	0xd61
 1919 0e17 20       		.uleb128 0x20
 1920 0e18 2C000000 		.4byte	0x2c
 1921 0e1c 300E0000 		.4byte	0xe30
 1922 0e20 0E       		.uleb128 0xe
 1923 0e21 52030000 		.4byte	0x352
 1924 0e25 0E       		.uleb128 0xe
 1925 0e26 300E0000 		.4byte	0xe30
 1926 0e2a 0E       		.uleb128 0xe
 1927 0e2b 2C000000 		.4byte	0x2c
 1928 0e2f 00       		.byte	0
 1929 0e30 0B       		.uleb128 0xb
 1930 0e31 04       		.byte	0x4
 1931 0e32 C4000000 		.4byte	0xc4
 1932 0e36 0B       		.uleb128 0xb
 1933 0e37 04       		.byte	0x4
 1934 0e38 170E0000 		.4byte	0xe17
 1935 0e3c 20       		.uleb128 0x20
 1936 0e3d 2C000000 		.4byte	0x2c
 1937 0e41 550E0000 		.4byte	0xe55
 1938 0e45 0E       		.uleb128 0xe
ARM GAS  /var/folders/qd/4mxf5pkd0zdf0b9dd1hp39180000gn/T//ccOenxqv.s 			page 35


 1939 0e46 52030000 		.4byte	0x352
 1940 0e4a 0E       		.uleb128 0xe
 1941 0e4b FB0D0000 		.4byte	0xdfb
 1942 0e4f 0E       		.uleb128 0xe
 1943 0e50 2C000000 		.4byte	0x2c
 1944 0e54 00       		.byte	0
 1945 0e55 0B       		.uleb128 0xb
 1946 0e56 04       		.byte	0x4
 1947 0e57 3C0E0000 		.4byte	0xe3c
 1948 0e5b 20       		.uleb128 0x20
 1949 0e5c 3B010000 		.4byte	0x13b
 1950 0e60 6F0E0000 		.4byte	0xe6f
 1951 0e64 0E       		.uleb128 0xe
 1952 0e65 52030000 		.4byte	0x352
 1953 0e69 0E       		.uleb128 0xe
 1954 0e6a B4000000 		.4byte	0xb4
 1955 0e6e 00       		.byte	0
 1956 0e6f 0B       		.uleb128 0xb
 1957 0e70 04       		.byte	0x4
 1958 0e71 5B0E0000 		.4byte	0xe5b
 1959 0e75 20       		.uleb128 0x20
 1960 0e76 3B010000 		.4byte	0x13b
 1961 0e7a 840E0000 		.4byte	0xe84
 1962 0e7e 0E       		.uleb128 0xe
 1963 0e7f 52030000 		.4byte	0x352
 1964 0e83 00       		.byte	0
 1965 0e84 0B       		.uleb128 0xb
 1966 0e85 04       		.byte	0x4
 1967 0e86 750E0000 		.4byte	0xe75
 1968 0e8a 1C       		.uleb128 0x1c
 1969 0e8b 0C       		.byte	0xc
 1970 0e8c 14       		.byte	0x14
 1971 0e8d DA       		.byte	0xda
 1972 0e8e CF0E0000 		.4byte	0xecf
 1973 0e92 08       		.uleb128 0x8
 1974 0e93 02040000 		.4byte	.LASF200
 1975 0e97 14       		.byte	0x14
 1976 0e98 DB       		.byte	0xdb
 1977 0e99 CF0E0000 		.4byte	0xecf
 1978 0e9d 00       		.byte	0
 1979 0e9e 08       		.uleb128 0x8
 1980 0e9f EA0B0000 		.4byte	.LASF201
 1981 0ea3 14       		.byte	0x14
 1982 0ea4 DC       		.byte	0xdc
 1983 0ea5 D50E0000 		.4byte	0xed5
 1984 0ea9 04       		.byte	0x4
 1985 0eaa 08       		.uleb128 0x8
 1986 0eab 8D030000 		.4byte	.LASF202
 1987 0eaf 14       		.byte	0x14
 1988 0eb0 DD       		.byte	0xdd
 1989 0eb1 B4000000 		.4byte	0xb4
 1990 0eb5 08       		.byte	0x8
 1991 0eb6 08       		.uleb128 0x8
 1992 0eb7 D7080000 		.4byte	.LASF203
 1993 0ebb 14       		.byte	0x14
 1994 0ebc DF       		.byte	0xdf
 1995 0ebd B4000000 		.4byte	0xb4
ARM GAS  /var/folders/qd/4mxf5pkd0zdf0b9dd1hp39180000gn/T//ccOenxqv.s 			page 36


 1996 0ec1 09       		.byte	0x9
 1997 0ec2 08       		.uleb128 0x8
 1998 0ec3 63090000 		.4byte	.LASF204
 1999 0ec7 14       		.byte	0x14
 2000 0ec8 E0       		.byte	0xe0
 2001 0ec9 B4000000 		.4byte	0xb4
 2002 0ecd 0A       		.byte	0xa
 2003 0ece 00       		.byte	0
 2004 0ecf 0B       		.uleb128 0xb
 2005 0ed0 04       		.byte	0x4
 2006 0ed1 B3070000 		.4byte	0x7b3
 2007 0ed5 0B       		.uleb128 0xb
 2008 0ed6 04       		.byte	0x4
 2009 0ed7 EF000000 		.4byte	0xef
 2010 0edb 03       		.uleb128 0x3
 2011 0edc 0E000000 		.4byte	.LASF205
 2012 0ee0 14       		.byte	0x14
 2013 0ee1 E1       		.byte	0xe1
 2014 0ee2 8A0E0000 		.4byte	0xe8a
 2015 0ee6 06       		.uleb128 0x6
 2016 0ee7 DB0E0000 		.4byte	0xedb
 2017 0eeb 14       		.uleb128 0x14
 2018 0eec E60E0000 		.4byte	0xee6
 2019 0ef0 FB0E0000 		.4byte	0xefb
 2020 0ef4 15       		.uleb128 0x15
 2021 0ef5 37000000 		.4byte	0x37
 2022 0ef9 0F       		.byte	0xf
 2023 0efa 00       		.byte	0
 2024 0efb 06       		.uleb128 0x6
 2025 0efc EB0E0000 		.4byte	0xeeb
 2026 0f00 19       		.uleb128 0x19
 2027 0f01 27050000 		.4byte	.LASF206
 2028 0f05 14       		.byte	0x14
 2029 0f06 BB01     		.2byte	0x1bb
 2030 0f08 FB0E0000 		.4byte	0xefb
 2031 0f0c 20       		.uleb128 0x20
 2032 0f0d 3B010000 		.4byte	0x13b
 2033 0f11 250F0000 		.4byte	0xf25
 2034 0f15 0E       		.uleb128 0xe
 2035 0f16 52030000 		.4byte	0x352
 2036 0f1a 0E       		.uleb128 0xe
 2037 0f1b B4000000 		.4byte	0xb4
 2038 0f1f 0E       		.uleb128 0xe
 2039 0f20 67010000 		.4byte	0x167
 2040 0f24 00       		.byte	0
 2041 0f25 0B       		.uleb128 0xb
 2042 0f26 04       		.byte	0x4
 2043 0f27 0C0F0000 		.4byte	0xf0c
 2044 0f2b 20       		.uleb128 0x20
 2045 0f2c 3B010000 		.4byte	0x13b
 2046 0f30 3F0F0000 		.4byte	0xf3f
 2047 0f34 0E       		.uleb128 0xe
 2048 0f35 52030000 		.4byte	0x352
 2049 0f39 0E       		.uleb128 0xe
 2050 0f3a 67010000 		.4byte	0x167
 2051 0f3e 00       		.byte	0
 2052 0f3f 0B       		.uleb128 0xb
ARM GAS  /var/folders/qd/4mxf5pkd0zdf0b9dd1hp39180000gn/T//ccOenxqv.s 			page 37


 2053 0f40 04       		.byte	0x4
 2054 0f41 2B0F0000 		.4byte	0xf2b
 2055 0f45 20       		.uleb128 0x20
 2056 0f46 2C000000 		.4byte	0x2c
 2057 0f4a 630F0000 		.4byte	0xf63
 2058 0f4e 0E       		.uleb128 0xe
 2059 0f4f 52030000 		.4byte	0x352
 2060 0f53 0E       		.uleb128 0xe
 2061 0f54 300E0000 		.4byte	0xe30
 2062 0f58 0E       		.uleb128 0xe
 2063 0f59 2C000000 		.4byte	0x2c
 2064 0f5d 0E       		.uleb128 0xe
 2065 0f5e 67010000 		.4byte	0x167
 2066 0f62 00       		.byte	0
 2067 0f63 0B       		.uleb128 0xb
 2068 0f64 04       		.byte	0x4
 2069 0f65 450F0000 		.4byte	0xf45
 2070 0f69 20       		.uleb128 0x20
 2071 0f6a 2C000000 		.4byte	0x2c
 2072 0f6e 870F0000 		.4byte	0xf87
 2073 0f72 0E       		.uleb128 0xe
 2074 0f73 52030000 		.4byte	0x352
 2075 0f77 0E       		.uleb128 0xe
 2076 0f78 FB0D0000 		.4byte	0xdfb
 2077 0f7c 0E       		.uleb128 0xe
 2078 0f7d 2C000000 		.4byte	0x2c
 2079 0f81 0E       		.uleb128 0xe
 2080 0f82 67010000 		.4byte	0x167
 2081 0f86 00       		.byte	0
 2082 0f87 0B       		.uleb128 0xb
 2083 0f88 04       		.byte	0x4
 2084 0f89 690F0000 		.4byte	0xf69
 2085 0f8d 04       		.uleb128 0x4
 2086 0f8e 01       		.byte	0x1
 2087 0f8f 02       		.byte	0x2
 2088 0f90 57030000 		.4byte	.LASF207
 2089 0f94 1C       		.uleb128 0x1c
 2090 0f95 04       		.byte	0x4
 2091 0f96 15       		.byte	0x15
 2092 0f97 B3       		.byte	0xb3
 2093 0f98 B50F0000 		.4byte	0xfb5
 2094 0f9c 1B       		.uleb128 0x1b
 2095 0f9d 73657400 		.ascii	"set\000"
 2096 0fa1 15       		.byte	0x15
 2097 0fa2 B4       		.byte	0xb4
 2098 0fa3 C9000000 		.4byte	0xc9
 2099 0fa7 00       		.byte	0
 2100 0fa8 08       		.uleb128 0x8
 2101 0fa9 68040000 		.4byte	.LASF208
 2102 0fad 15       		.byte	0x15
 2103 0fae B5       		.byte	0xb5
 2104 0faf C9000000 		.4byte	0xc9
 2105 0fb3 02       		.byte	0x2
 2106 0fb4 00       		.byte	0
 2107 0fb5 1D       		.uleb128 0x1d
 2108 0fb6 04       		.byte	0x4
 2109 0fb7 15       		.byte	0x15
ARM GAS  /var/folders/qd/4mxf5pkd0zdf0b9dd1hp39180000gn/T//ccOenxqv.s 			page 38


 2110 0fb8 B1       		.byte	0xb1
 2111 0fb9 D00F0000 		.4byte	0xfd0
 2112 0fbd 21       		.uleb128 0x21
 2113 0fbe 5700     		.ascii	"W\000"
 2114 0fc0 15       		.byte	0x15
 2115 0fc1 B2       		.byte	0xb2
 2116 0fc2 E4000000 		.4byte	0xe4
 2117 0fc6 21       		.uleb128 0x21
 2118 0fc7 4800     		.ascii	"H\000"
 2119 0fc9 15       		.byte	0x15
 2120 0fca B6       		.byte	0xb6
 2121 0fcb 940F0000 		.4byte	0xf94
 2122 0fcf 00       		.byte	0
 2123 0fd0 05       		.uleb128 0x5
 2124 0fd1 B50F0000 		.4byte	0xfb5
 2125 0fd5 1C       		.uleb128 0x1c
 2126 0fd6 2C       		.byte	0x2c
 2127 0fd7 15       		.byte	0x15
 2128 0fd8 A9       		.byte	0xa9
 2129 0fd9 62100000 		.4byte	0x1062
 2130 0fdd 08       		.uleb128 0x8
 2131 0fde 7D070000 		.4byte	.LASF209
 2132 0fe2 15       		.byte	0x15
 2133 0fe3 AB       		.byte	0xab
 2134 0fe4 EF000000 		.4byte	0xef
 2135 0fe8 00       		.byte	0
 2136 0fe9 08       		.uleb128 0x8
 2137 0fea AD090000 		.4byte	.LASF210
 2138 0fee 15       		.byte	0x15
 2139 0fef AC       		.byte	0xac
 2140 0ff0 EF000000 		.4byte	0xef
 2141 0ff4 04       		.byte	0x4
 2142 0ff5 08       		.uleb128 0x8
 2143 0ff6 BF050000 		.4byte	.LASF211
 2144 0ffa 15       		.byte	0x15
 2145 0ffb AD       		.byte	0xad
 2146 0ffc EF000000 		.4byte	0xef
 2147 1000 08       		.byte	0x8
 2148 1001 08       		.uleb128 0x8
 2149 1002 AC010000 		.4byte	.LASF212
 2150 1006 15       		.byte	0x15
 2151 1007 AE       		.byte	0xae
 2152 1008 EF000000 		.4byte	0xef
 2153 100c 0C       		.byte	0xc
 2154 100d 1B       		.uleb128 0x1b
 2155 100e 49445200 		.ascii	"IDR\000"
 2156 1012 15       		.byte	0x15
 2157 1013 AF       		.byte	0xaf
 2158 1014 EF000000 		.4byte	0xef
 2159 1018 10       		.byte	0x10
 2160 1019 1B       		.uleb128 0x1b
 2161 101a 4F445200 		.ascii	"ODR\000"
 2162 101e 15       		.byte	0x15
 2163 101f B0       		.byte	0xb0
 2164 1020 EF000000 		.4byte	0xef
 2165 1024 14       		.byte	0x14
 2166 1025 08       		.uleb128 0x8
ARM GAS  /var/folders/qd/4mxf5pkd0zdf0b9dd1hp39180000gn/T//ccOenxqv.s 			page 39


 2167 1026 AF0A0000 		.4byte	.LASF213
 2168 102a 15       		.byte	0x15
 2169 102b B7       		.byte	0xb7
 2170 102c D00F0000 		.4byte	0xfd0
 2171 1030 18       		.byte	0x18
 2172 1031 08       		.uleb128 0x8
 2173 1032 85050000 		.4byte	.LASF214
 2174 1036 15       		.byte	0x15
 2175 1037 B8       		.byte	0xb8
 2176 1038 EF000000 		.4byte	0xef
 2177 103c 1C       		.byte	0x1c
 2178 103d 08       		.uleb128 0x8
 2179 103e 5E090000 		.4byte	.LASF215
 2180 1042 15       		.byte	0x15
 2181 1043 B9       		.byte	0xb9
 2182 1044 EF000000 		.4byte	0xef
 2183 1048 20       		.byte	0x20
 2184 1049 08       		.uleb128 0x8
 2185 104a 59090000 		.4byte	.LASF216
 2186 104e 15       		.byte	0x15
 2187 104f BA       		.byte	0xba
 2188 1050 EF000000 		.4byte	0xef
 2189 1054 24       		.byte	0x24
 2190 1055 1B       		.uleb128 0x1b
 2191 1056 42525200 		.ascii	"BRR\000"
 2192 105a 15       		.byte	0x15
 2193 105b BB       		.byte	0xbb
 2194 105c EF000000 		.4byte	0xef
 2195 1060 28       		.byte	0x28
 2196 1061 00       		.byte	0
 2197 1062 03       		.uleb128 0x3
 2198 1063 05030000 		.4byte	.LASF217
 2199 1067 15       		.byte	0x15
 2200 1068 BC       		.byte	0xbc
 2201 1069 D50F0000 		.4byte	0xfd5
 2202 106d 1C       		.uleb128 0x1c
 2203 106e 1C       		.byte	0x1c
 2204 106f 15       		.byte	0x15
 2205 1070 C1       		.byte	0xc1
 2206 1071 CA100000 		.4byte	0x10ca
 2207 1075 08       		.uleb128 0x8
 2208 1076 87030000 		.4byte	.LASF218
 2209 107a 15       		.byte	0x15
 2210 107b C3       		.byte	0xc3
 2211 107c E4000000 		.4byte	0xe4
 2212 1080 00       		.byte	0
 2213 1081 08       		.uleb128 0x8
 2214 1082 C6040000 		.4byte	.LASF219
 2215 1086 15       		.byte	0x15
 2216 1087 C5       		.byte	0xc5
 2217 1088 E4000000 		.4byte	0xe4
 2218 108c 04       		.byte	0x4
 2219 108d 08       		.uleb128 0x8
 2220 108e 6E040000 		.4byte	.LASF220
 2221 1092 15       		.byte	0x15
 2222 1093 C7       		.byte	0xc7
 2223 1094 E4000000 		.4byte	0xe4
ARM GAS  /var/folders/qd/4mxf5pkd0zdf0b9dd1hp39180000gn/T//ccOenxqv.s 			page 40


 2224 1098 08       		.byte	0x8
 2225 1099 08       		.uleb128 0x8
 2226 109a B9050000 		.4byte	.LASF221
 2227 109e 15       		.byte	0x15
 2228 109f C9       		.byte	0xc9
 2229 10a0 E4000000 		.4byte	0xe4
 2230 10a4 0C       		.byte	0xc
 2231 10a5 1B       		.uleb128 0x1b
 2232 10a6 6F647200 		.ascii	"odr\000"
 2233 10aa 15       		.byte	0x15
 2234 10ab CB       		.byte	0xcb
 2235 10ac E4000000 		.4byte	0xe4
 2236 10b0 10       		.byte	0x10
 2237 10b1 08       		.uleb128 0x8
 2238 10b2 46080000 		.4byte	.LASF222
 2239 10b6 15       		.byte	0x15
 2240 10b7 CD       		.byte	0xcd
 2241 10b8 E4000000 		.4byte	0xe4
 2242 10bc 14       		.byte	0x14
 2243 10bd 08       		.uleb128 0x8
 2244 10be 97040000 		.4byte	.LASF223
 2245 10c2 15       		.byte	0x15
 2246 10c3 CF       		.byte	0xcf
 2247 10c4 E4000000 		.4byte	0xe4
 2248 10c8 18       		.byte	0x18
 2249 10c9 00       		.byte	0
 2250 10ca 03       		.uleb128 0x3
 2251 10cb 54010000 		.4byte	.LASF224
 2252 10cf 15       		.byte	0x15
 2253 10d0 D0       		.byte	0xd0
 2254 10d1 6D100000 		.4byte	0x106d
 2255 10d5 1C       		.uleb128 0x1c
 2256 10d6 FC       		.byte	0xfc
 2257 10d7 15       		.byte	0x15
 2258 10d8 D9       		.byte	0xd9
 2259 10d9 4A110000 		.4byte	0x114a
 2260 10dd 08       		.uleb128 0x8
 2261 10de 01090000 		.4byte	.LASF225
 2262 10e2 15       		.byte	0x15
 2263 10e3 DC       		.byte	0xdc
 2264 10e4 CA100000 		.4byte	0x10ca
 2265 10e8 00       		.byte	0
 2266 10e9 08       		.uleb128 0x8
 2267 10ea 4C070000 		.4byte	.LASF226
 2268 10ee 15       		.byte	0x15
 2269 10ef E0       		.byte	0xe0
 2270 10f0 CA100000 		.4byte	0x10ca
 2271 10f4 1C       		.byte	0x1c
 2272 10f5 08       		.uleb128 0x8
 2273 10f6 76040000 		.4byte	.LASF227
 2274 10fa 15       		.byte	0x15
 2275 10fb E4       		.byte	0xe4
 2276 10fc CA100000 		.4byte	0x10ca
 2277 1100 38       		.byte	0x38
 2278 1101 08       		.uleb128 0x8
 2279 1102 20030000 		.4byte	.LASF228
 2280 1106 15       		.byte	0x15
ARM GAS  /var/folders/qd/4mxf5pkd0zdf0b9dd1hp39180000gn/T//ccOenxqv.s 			page 41


 2281 1107 E8       		.byte	0xe8
 2282 1108 CA100000 		.4byte	0x10ca
 2283 110c 54       		.byte	0x54
 2284 110d 08       		.uleb128 0x8
 2285 110e FE000000 		.4byte	.LASF229
 2286 1112 15       		.byte	0x15
 2287 1113 EC       		.byte	0xec
 2288 1114 CA100000 		.4byte	0x10ca
 2289 1118 70       		.byte	0x70
 2290 1119 08       		.uleb128 0x8
 2291 111a 590B0000 		.4byte	.LASF230
 2292 111e 15       		.byte	0x15
 2293 111f F0       		.byte	0xf0
 2294 1120 CA100000 		.4byte	0x10ca
 2295 1124 8C       		.byte	0x8c
 2296 1125 08       		.uleb128 0x8
 2297 1126 B4090000 		.4byte	.LASF231
 2298 112a 15       		.byte	0x15
 2299 112b F4       		.byte	0xf4
 2300 112c CA100000 		.4byte	0x10ca
 2301 1130 A8       		.byte	0xa8
 2302 1131 08       		.uleb128 0x8
 2303 1132 20080000 		.4byte	.LASF232
 2304 1136 15       		.byte	0x15
 2305 1137 F8       		.byte	0xf8
 2306 1138 CA100000 		.4byte	0x10ca
 2307 113c C4       		.byte	0xc4
 2308 113d 08       		.uleb128 0x8
 2309 113e 96050000 		.4byte	.LASF233
 2310 1142 15       		.byte	0x15
 2311 1143 FC       		.byte	0xfc
 2312 1144 CA100000 		.4byte	0x10ca
 2313 1148 E0       		.byte	0xe0
 2314 1149 00       		.byte	0
 2315 114a 03       		.uleb128 0x3
 2316 114b B40A0000 		.4byte	.LASF234
 2317 114f 15       		.byte	0x15
 2318 1150 FE       		.byte	0xfe
 2319 1151 D5100000 		.4byte	0x10d5
 2320 1155 06       		.uleb128 0x6
 2321 1156 4A110000 		.4byte	0x114a
 2322 115a 17       		.uleb128 0x17
 2323 115b 1E020000 		.4byte	.LASF235
 2324 115f 15       		.byte	0x15
 2325 1160 1B01     		.2byte	0x11b
 2326 1162 66110000 		.4byte	0x1166
 2327 1166 0B       		.uleb128 0xb
 2328 1167 04       		.byte	0x4
 2329 1168 62100000 		.4byte	0x1062
 2330 116c 19       		.uleb128 0x19
 2331 116d 77020000 		.4byte	.LASF236
 2332 1171 15       		.byte	0x15
 2333 1172 DA01     		.2byte	0x1da
 2334 1174 55110000 		.4byte	0x1155
 2335 1178 22       		.uleb128 0x22
 2336 1179 07       		.byte	0x7
 2337 117a 01       		.byte	0x1
ARM GAS  /var/folders/qd/4mxf5pkd0zdf0b9dd1hp39180000gn/T//ccOenxqv.s 			page 42


 2338 117b 5E000000 		.4byte	0x5e
 2339 117f 16       		.byte	0x16
 2340 1180 4A       		.byte	0x4a
 2341 1181 98110000 		.4byte	0x1198
 2342 1185 23       		.uleb128 0x23
 2343 1186 3B010000 		.4byte	.LASF237
 2344 118a 00       		.byte	0
 2345 118b 23       		.uleb128 0x23
 2346 118c F8080000 		.4byte	.LASF238
 2347 1190 01       		.byte	0x1
 2348 1191 23       		.uleb128 0x23
 2349 1192 360A0000 		.4byte	.LASF239
 2350 1196 02       		.byte	0x2
 2351 1197 00       		.byte	0
 2352 1198 03       		.uleb128 0x3
 2353 1199 0E0B0000 		.4byte	.LASF240
 2354 119d 16       		.byte	0x16
 2355 119e 4E       		.byte	0x4e
 2356 119f 78110000 		.4byte	0x1178
 2357 11a3 03       		.uleb128 0x3
 2358 11a4 0F080000 		.4byte	.LASF241
 2359 11a8 16       		.byte	0x16
 2360 11a9 53       		.byte	0x53
 2361 11aa AE110000 		.4byte	0x11ae
 2362 11ae 0C       		.uleb128 0xc
 2363 11af 0F080000 		.4byte	.LASF241
 2364 11b3 1C       		.byte	0x1c
 2365 11b4 17       		.byte	0x17
 2366 11b5 7901     		.2byte	0x179
 2367 11b7 17120000 		.4byte	0x1217
 2368 11bb 0A       		.uleb128 0xa
 2369 11bc F8000000 		.4byte	.LASF242
 2370 11c0 17       		.byte	0x17
 2371 11c1 7D01     		.2byte	0x17d
 2372 11c3 98110000 		.4byte	0x1198
 2373 11c7 00       		.byte	0
 2374 11c8 0A       		.uleb128 0xa
 2375 11c9 F1000000 		.4byte	.LASF243
 2376 11cd 17       		.byte	0x17
 2377 11ce 8101     		.2byte	0x181
 2378 11d0 12130000 		.4byte	0x1312
 2379 11d4 04       		.byte	0x4
 2380 11d5 0A       		.uleb128 0xa
 2381 11d6 8C090000 		.4byte	.LASF244
 2382 11da 17       		.byte	0x17
 2383 11db 8501     		.2byte	0x185
 2384 11dd 5D120000 		.4byte	0x125d
 2385 11e1 08       		.byte	0x8
 2386 11e2 0A       		.uleb128 0xa
 2387 11e3 8F040000 		.4byte	.LASF245
 2388 11e7 17       		.byte	0x17
 2389 11e8 8901     		.2byte	0x189
 2390 11ea 51120000 		.4byte	0x1251
 2391 11ee 0C       		.byte	0xc
 2392 11ef 0A       		.uleb128 0xa
 2393 11f0 D1070000 		.4byte	.LASF246
 2394 11f4 17       		.byte	0x17
ARM GAS  /var/folders/qd/4mxf5pkd0zdf0b9dd1hp39180000gn/T//ccOenxqv.s 			page 43


 2395 11f5 8D01     		.2byte	0x18d
 2396 11f7 45120000 		.4byte	0x1245
 2397 11fb 10       		.byte	0x10
 2398 11fc 0A       		.uleb128 0xa
 2399 11fd 9D050000 		.4byte	.LASF247
 2400 1201 17       		.byte	0x17
 2401 1202 9501     		.2byte	0x195
 2402 1204 E4000000 		.4byte	0xe4
 2403 1208 14       		.byte	0x14
 2404 1209 09       		.uleb128 0x9
 2405 120a 74696D00 		.ascii	"tim\000"
 2406 120e 17       		.byte	0x17
 2407 120f 9901     		.2byte	0x199
 2408 1211 18130000 		.4byte	0x1318
 2409 1215 18       		.byte	0x18
 2410 1216 00       		.byte	0
 2411 1217 03       		.uleb128 0x3
 2412 1218 F7070000 		.4byte	.LASF248
 2413 121c 16       		.byte	0x16
 2414 121d 5A       		.byte	0x5a
 2415 121e 22120000 		.4byte	0x1222
 2416 1222 0B       		.uleb128 0xb
 2417 1223 04       		.byte	0x4
 2418 1224 28120000 		.4byte	0x1228
 2419 1228 0D       		.uleb128 0xd
 2420 1229 33120000 		.4byte	0x1233
 2421 122d 0E       		.uleb128 0xe
 2422 122e 33120000 		.4byte	0x1233
 2423 1232 00       		.byte	0
 2424 1233 0B       		.uleb128 0xb
 2425 1234 04       		.byte	0x4
 2426 1235 A3110000 		.4byte	0x11a3
 2427 1239 17       		.uleb128 0x17
 2428 123a 25040000 		.4byte	.LASF249
 2429 123e 17       		.byte	0x17
 2430 123f 2501     		.2byte	0x125
 2431 1241 E4000000 		.4byte	0xe4
 2432 1245 17       		.uleb128 0x17
 2433 1246 5C020000 		.4byte	.LASF250
 2434 124a 17       		.byte	0x17
 2435 124b 2A01     		.2byte	0x12a
 2436 124d B4000000 		.4byte	0xb4
 2437 1251 17       		.uleb128 0x17
 2438 1252 D0000000 		.4byte	.LASF251
 2439 1256 17       		.byte	0x17
 2440 1257 2F01     		.2byte	0x12f
 2441 1259 E4000000 		.4byte	0xe4
 2442 125d 17       		.uleb128 0x17
 2443 125e C6020000 		.4byte	.LASF252
 2444 1262 17       		.byte	0x17
 2445 1263 3401     		.2byte	0x134
 2446 1265 E4000000 		.4byte	0xe4
 2447 1269 18       		.uleb128 0x18
 2448 126a 08       		.byte	0x8
 2449 126b 17       		.byte	0x17
 2450 126c 3901     		.2byte	0x139
 2451 126e 8D120000 		.4byte	0x128d
ARM GAS  /var/folders/qd/4mxf5pkd0zdf0b9dd1hp39180000gn/T//ccOenxqv.s 			page 44


 2452 1272 0A       		.uleb128 0xa
 2453 1273 660A0000 		.4byte	.LASF253
 2454 1277 17       		.byte	0x17
 2455 1278 3D01     		.2byte	0x13d
 2456 127a 39120000 		.4byte	0x1239
 2457 127e 00       		.byte	0
 2458 127f 0A       		.uleb128 0xa
 2459 1280 46010000 		.4byte	.LASF254
 2460 1284 17       		.byte	0x17
 2461 1285 4301     		.2byte	0x143
 2462 1287 17120000 		.4byte	0x1217
 2463 128b 04       		.byte	0x4
 2464 128c 00       		.byte	0
 2465 128d 17       		.uleb128 0x17
 2466 128e 10010000 		.4byte	.LASF255
 2467 1292 17       		.byte	0x17
 2468 1293 4501     		.2byte	0x145
 2469 1295 69120000 		.4byte	0x1269
 2470 1299 18       		.uleb128 0x18
 2471 129a 34       		.byte	0x34
 2472 129b 17       		.byte	0x17
 2473 129c 4A01     		.2byte	0x14a
 2474 129e F1120000 		.4byte	0x12f1
 2475 12a2 0A       		.uleb128 0xa
 2476 12a3 42070000 		.4byte	.LASF256
 2477 12a7 17       		.byte	0x17
 2478 12a8 5001     		.2byte	0x150
 2479 12aa E4000000 		.4byte	0xe4
 2480 12ae 00       		.byte	0
 2481 12af 0A       		.uleb128 0xa
 2482 12b0 8C090000 		.4byte	.LASF244
 2483 12b4 17       		.byte	0x17
 2484 12b5 5601     		.2byte	0x156
 2485 12b7 5D120000 		.4byte	0x125d
 2486 12bb 04       		.byte	0x4
 2487 12bc 0A       		.uleb128 0xa
 2488 12bd 46010000 		.4byte	.LASF254
 2489 12c1 17       		.byte	0x17
 2490 12c2 5C01     		.2byte	0x15c
 2491 12c4 17120000 		.4byte	0x1217
 2492 12c8 08       		.byte	0x8
 2493 12c9 0A       		.uleb128 0xa
 2494 12ca D1070000 		.4byte	.LASF246
 2495 12ce 17       		.byte	0x17
 2496 12cf 6001     		.2byte	0x160
 2497 12d1 F1120000 		.4byte	0x12f1
 2498 12d5 0C       		.byte	0xc
 2499 12d6 09       		.uleb128 0x9
 2500 12d7 63723200 		.ascii	"cr2\000"
 2501 12db 17       		.byte	0x17
 2502 12dc 6601     		.2byte	0x166
 2503 12de E4000000 		.4byte	0xe4
 2504 12e2 2C       		.byte	0x2c
 2505 12e3 0A       		.uleb128 0xa
 2506 12e4 36010000 		.4byte	.LASF257
 2507 12e8 17       		.byte	0x17
 2508 12e9 7301     		.2byte	0x173
ARM GAS  /var/folders/qd/4mxf5pkd0zdf0b9dd1hp39180000gn/T//ccOenxqv.s 			page 45


 2509 12eb E4000000 		.4byte	0xe4
 2510 12ef 30       		.byte	0x30
 2511 12f0 00       		.byte	0
 2512 12f1 14       		.uleb128 0x14
 2513 12f2 8D120000 		.4byte	0x128d
 2514 12f6 01130000 		.4byte	0x1301
 2515 12fa 15       		.uleb128 0x15
 2516 12fb 37000000 		.4byte	0x37
 2517 12ff 03       		.byte	0x3
 2518 1300 00       		.byte	0
 2519 1301 17       		.uleb128 0x17
 2520 1302 C50A0000 		.4byte	.LASF258
 2521 1306 17       		.byte	0x17
 2522 1307 7401     		.2byte	0x174
 2523 1309 99120000 		.4byte	0x1299
 2524 130d 06       		.uleb128 0x6
 2525 130e 01130000 		.4byte	0x1301
 2526 1312 0B       		.uleb128 0xb
 2527 1313 04       		.byte	0x4
 2528 1314 0D130000 		.4byte	0x130d
 2529 1318 0B       		.uleb128 0xb
 2530 1319 04       		.byte	0x4
 2531 131a 9D0A0000 		.4byte	0xa9d
 2532 131e 19       		.uleb128 0x19
 2533 131f FE0A0000 		.4byte	.LASF259
 2534 1323 17       		.byte	0x17
 2535 1324 C401     		.2byte	0x1c4
 2536 1326 A3110000 		.4byte	0x11a3
 2537 132a 22       		.uleb128 0x22
 2538 132b 07       		.byte	0x7
 2539 132c 01       		.byte	0x1
 2540 132d 5E000000 		.4byte	0x5e
 2541 1331 18       		.byte	0x18
 2542 1332 55       		.byte	0x55
 2543 1333 4A130000 		.4byte	0x134a
 2544 1337 23       		.uleb128 0x23
 2545 1338 4D030000 		.4byte	.LASF260
 2546 133c 00       		.byte	0
 2547 133d 23       		.uleb128 0x23
 2548 133e DD0B0000 		.4byte	.LASF261
 2549 1342 01       		.byte	0x1
 2550 1343 23       		.uleb128 0x23
 2551 1344 FB090000 		.4byte	.LASF262
 2552 1348 02       		.byte	0x2
 2553 1349 00       		.byte	0
 2554 134a 03       		.uleb128 0x3
 2555 134b F1090000 		.4byte	.LASF263
 2556 134f 18       		.byte	0x18
 2557 1350 59       		.byte	0x59
 2558 1351 2A130000 		.4byte	0x132a
 2559 1355 03       		.uleb128 0x3
 2560 1356 9B090000 		.4byte	.LASF264
 2561 135a 18       		.byte	0x18
 2562 135b 5E       		.byte	0x5e
 2563 135c 60130000 		.4byte	0x1360
 2564 1360 07       		.uleb128 0x7
 2565 1361 9B090000 		.4byte	.LASF264
ARM GAS  /var/folders/qd/4mxf5pkd0zdf0b9dd1hp39180000gn/T//ccOenxqv.s 			page 46


 2566 1365 78       		.byte	0x78
 2567 1366 18       		.byte	0x18
 2568 1367 78       		.byte	0x78
 2569 1368 CB130000 		.4byte	0x13cb
 2570 136c 1B       		.uleb128 0x1b
 2571 136d 766D7400 		.ascii	"vmt\000"
 2572 1371 18       		.byte	0x18
 2573 1372 7A       		.byte	0x7a
 2574 1373 49140000 		.4byte	0x1449
 2575 1377 00       		.byte	0
 2576 1378 08       		.uleb128 0x8
 2577 1379 71070000 		.4byte	.LASF265
 2578 137d 18       		.byte	0x18
 2579 137e 7B       		.byte	0x7b
 2580 137f 560D0000 		.4byte	0xd56
 2581 1383 04       		.byte	0x4
 2582 1384 08       		.uleb128 0x8
 2583 1385 F8000000 		.4byte	.LASF242
 2584 1389 18       		.byte	0x18
 2585 138a 7B       		.byte	0x7b
 2586 138b 4A130000 		.4byte	0x134a
 2587 138f 08       		.byte	0x8
 2588 1390 08       		.uleb128 0x8
 2589 1391 740A0000 		.4byte	.LASF266
 2590 1395 18       		.byte	0x18
 2591 1396 7B       		.byte	0x7b
 2592 1397 010E0000 		.4byte	0xe01
 2593 139b 0C       		.byte	0xc
 2594 139c 08       		.uleb128 0x8
 2595 139d 4C020000 		.4byte	.LASF267
 2596 13a1 18       		.byte	0x18
 2597 13a2 7B       		.byte	0x7b
 2598 13a3 0C0E0000 		.4byte	0xe0c
 2599 13a7 30       		.byte	0x30
 2600 13a8 1B       		.uleb128 0x1b
 2601 13a9 696200   		.ascii	"ib\000"
 2602 13ac 18       		.byte	0x18
 2603 13ad 7B       		.byte	0x7b
 2604 13ae 4F140000 		.4byte	0x144f
 2605 13b2 54       		.byte	0x54
 2606 13b3 1B       		.uleb128 0x1b
 2607 13b4 6F6200   		.ascii	"ob\000"
 2608 13b7 18       		.byte	0x18
 2609 13b8 7B       		.byte	0x7b
 2610 13b9 4F140000 		.4byte	0x144f
 2611 13bd 64       		.byte	0x64
 2612 13be 08       		.uleb128 0x8
 2613 13bf B3050000 		.4byte	.LASF268
 2614 13c3 18       		.byte	0x18
 2615 13c4 7B       		.byte	0x7b
 2616 13c5 5F140000 		.4byte	0x145f
 2617 13c9 74       		.byte	0x74
 2618 13ca 00       		.byte	0
 2619 13cb 1F       		.uleb128 0x1f
 2620 13cc 53443200 		.ascii	"SD2\000"
 2621 13d0 19       		.byte	0x19
 2622 13d1 1201     		.2byte	0x112
ARM GAS  /var/folders/qd/4mxf5pkd0zdf0b9dd1hp39180000gn/T//ccOenxqv.s 			page 47


 2623 13d3 55130000 		.4byte	0x1355
 2624 13d7 07       		.uleb128 0x7
 2625 13d8 18070000 		.4byte	.LASF269
 2626 13dc 20       		.byte	0x20
 2627 13dd 18       		.byte	0x18
 2628 13de 6D       		.byte	0x6d
 2629 13df 44140000 		.4byte	0x1444
 2630 13e3 08       		.uleb128 0x8
 2631 13e4 C5000000 		.4byte	.LASF270
 2632 13e8 18       		.byte	0x18
 2633 13e9 6E       		.byte	0x6e
 2634 13ea 360E0000 		.4byte	0xe36
 2635 13ee 00       		.byte	0
 2636 13ef 08       		.uleb128 0x8
 2637 13f0 8B070000 		.4byte	.LASF271
 2638 13f4 18       		.byte	0x18
 2639 13f5 6E       		.byte	0x6e
 2640 13f6 550E0000 		.4byte	0xe55
 2641 13fa 04       		.byte	0x4
 2642 13fb 1B       		.uleb128 0x1b
 2643 13fc 70757400 		.ascii	"put\000"
 2644 1400 18       		.byte	0x18
 2645 1401 6E       		.byte	0x6e
 2646 1402 6F0E0000 		.4byte	0xe6f
 2647 1406 08       		.byte	0x8
 2648 1407 1B       		.uleb128 0x1b
 2649 1408 67657400 		.ascii	"get\000"
 2650 140c 18       		.byte	0x18
 2651 140d 6E       		.byte	0x6e
 2652 140e 840E0000 		.4byte	0xe84
 2653 1412 0C       		.byte	0xc
 2654 1413 08       		.uleb128 0x8
 2655 1414 05010000 		.4byte	.LASF272
 2656 1418 18       		.byte	0x18
 2657 1419 6E       		.byte	0x6e
 2658 141a 250F0000 		.4byte	0xf25
 2659 141e 10       		.byte	0x10
 2660 141f 08       		.uleb128 0x8
 2661 1420 DF030000 		.4byte	.LASF273
 2662 1424 18       		.byte	0x18
 2663 1425 6E       		.byte	0x6e
 2664 1426 3F0F0000 		.4byte	0xf3f
 2665 142a 14       		.byte	0x14
 2666 142b 08       		.uleb128 0x8
 2667 142c 83000000 		.4byte	.LASF274
 2668 1430 18       		.byte	0x18
 2669 1431 6E       		.byte	0x6e
 2670 1432 630F0000 		.4byte	0xf63
 2671 1436 18       		.byte	0x18
 2672 1437 08       		.uleb128 0x8
 2673 1438 B2010000 		.4byte	.LASF275
 2674 143c 18       		.byte	0x18
 2675 143d 6E       		.byte	0x6e
 2676 143e 870F0000 		.4byte	0xf87
 2677 1442 1C       		.byte	0x1c
 2678 1443 00       		.byte	0
 2679 1444 06       		.uleb128 0x6
ARM GAS  /var/folders/qd/4mxf5pkd0zdf0b9dd1hp39180000gn/T//ccOenxqv.s 			page 48


 2680 1445 D7130000 		.4byte	0x13d7
 2681 1449 0B       		.uleb128 0xb
 2682 144a 04       		.byte	0x4
 2683 144b 44140000 		.4byte	0x1444
 2684 144f 14       		.uleb128 0x14
 2685 1450 B4000000 		.4byte	0xb4
 2686 1454 5F140000 		.4byte	0x145f
 2687 1458 15       		.uleb128 0x15
 2688 1459 37000000 		.4byte	0x37
 2689 145d 0F       		.byte	0xf
 2690 145e 00       		.byte	0
 2691 145f 0B       		.uleb128 0xb
 2692 1460 04       		.byte	0x4
 2693 1461 D5080000 		.4byte	0x8d5
 2694 1465 22       		.uleb128 0x22
 2695 1466 07       		.byte	0x7
 2696 1467 01       		.byte	0x1
 2697 1468 5E000000 		.4byte	0x5e
 2698 146c 1A       		.byte	0x1a
 2699 146d 46       		.byte	0x46
 2700 146e 91140000 		.4byte	0x1491
 2701 1472 23       		.uleb128 0x23
 2702 1473 EA010000 		.4byte	.LASF276
 2703 1477 00       		.byte	0
 2704 1478 23       		.uleb128 0x23
 2705 1479 D8010000 		.4byte	.LASF277
 2706 147d 01       		.byte	0x1
 2707 147e 23       		.uleb128 0x23
 2708 147f C1060000 		.4byte	.LASF278
 2709 1483 02       		.byte	0x2
 2710 1484 23       		.uleb128 0x23
 2711 1485 B6070000 		.4byte	.LASF279
 2712 1489 03       		.byte	0x3
 2713 148a 23       		.uleb128 0x23
 2714 148b 4C0B0000 		.4byte	.LASF280
 2715 148f 04       		.byte	0x4
 2716 1490 00       		.byte	0
 2717 1491 03       		.uleb128 0x3
 2718 1492 B10B0000 		.4byte	.LASF281
 2719 1496 1A       		.byte	0x1a
 2720 1497 4C       		.byte	0x4c
 2721 1498 65140000 		.4byte	0x1465
 2722 149c 17       		.uleb128 0x17
 2723 149d A0030000 		.4byte	.LASF282
 2724 14a1 1B       		.byte	0x1b
 2725 14a2 9601     		.2byte	0x196
 2726 14a4 A8140000 		.4byte	0x14a8
 2727 14a8 0C       		.uleb128 0xc
 2728 14a9 A0030000 		.4byte	.LASF282
 2729 14ad 30       		.byte	0x30
 2730 14ae 1B       		.byte	0x1b
 2731 14af BA01     		.2byte	0x1ba
 2732 14b1 2B150000 		.4byte	0x152b
 2733 14b5 0A       		.uleb128 0xa
 2734 14b6 F8000000 		.4byte	.LASF242
 2735 14ba 1B       		.byte	0x1b
 2736 14bb BE01     		.2byte	0x1be
ARM GAS  /var/folders/qd/4mxf5pkd0zdf0b9dd1hp39180000gn/T//ccOenxqv.s 			page 49


 2737 14bd 91140000 		.4byte	0x1491
 2738 14c1 00       		.byte	0
 2739 14c2 0A       		.uleb128 0xa
 2740 14c3 F1000000 		.4byte	.LASF243
 2741 14c7 1B       		.byte	0x1b
 2742 14c8 C201     		.2byte	0x1c2
 2743 14ca 9D150000 		.4byte	0x159d
 2744 14ce 04       		.byte	0x4
 2745 14cf 0A       		.uleb128 0xa
 2746 14d0 1D0A0000 		.4byte	.LASF283
 2747 14d4 1B       		.byte	0x1b
 2748 14d5 C701     		.2byte	0x1c7
 2749 14d7 6A020000 		.4byte	0x26a
 2750 14db 08       		.byte	0x8
 2751 14dc 0A       		.uleb128 0xa
 2752 14dd 28070000 		.4byte	.LASF284
 2753 14e1 1B       		.byte	0x1b
 2754 14e2 CD01     		.2byte	0x1cd
 2755 14e4 D20C0000 		.4byte	0xcd2
 2756 14e8 0C       		.byte	0xc
 2757 14e9 09       		.uleb128 0x9
 2758 14ea 73706900 		.ascii	"spi\000"
 2759 14ee 1B       		.byte	0x1b
 2760 14ef D601     		.2byte	0x1d6
 2761 14f1 A3150000 		.4byte	0x15a3
 2762 14f5 1C       		.byte	0x1c
 2763 14f6 0A       		.uleb128 0xa
 2764 14f7 B0060000 		.4byte	.LASF285
 2765 14fb 1B       		.byte	0x1b
 2766 14fc DA01     		.2byte	0x1da
 2767 14fe A9150000 		.4byte	0x15a9
 2768 1502 20       		.byte	0x20
 2769 1503 0A       		.uleb128 0xa
 2770 1504 77070000 		.4byte	.LASF286
 2771 1508 1B       		.byte	0x1b
 2772 1509 DE01     		.2byte	0x1de
 2773 150b A9150000 		.4byte	0x15a9
 2774 150f 24       		.byte	0x24
 2775 1510 0A       		.uleb128 0xa
 2776 1511 53070000 		.4byte	.LASF287
 2777 1515 1B       		.byte	0x1b
 2778 1516 E201     		.2byte	0x1e2
 2779 1518 E4000000 		.4byte	0xe4
 2780 151c 28       		.byte	0x28
 2781 151d 0A       		.uleb128 0xa
 2782 151e 080C0000 		.4byte	.LASF288
 2783 1522 1B       		.byte	0x1b
 2784 1523 E601     		.2byte	0x1e6
 2785 1525 E4000000 		.4byte	0xe4
 2786 1529 2C       		.byte	0x2c
 2787 152a 00       		.byte	0
 2788 152b 17       		.uleb128 0x17
 2789 152c 12030000 		.4byte	.LASF289
 2790 1530 1B       		.byte	0x1b
 2791 1531 9E01     		.2byte	0x19e
 2792 1533 37150000 		.4byte	0x1537
 2793 1537 0B       		.uleb128 0xb
ARM GAS  /var/folders/qd/4mxf5pkd0zdf0b9dd1hp39180000gn/T//ccOenxqv.s 			page 50


 2794 1538 04       		.byte	0x4
 2795 1539 3D150000 		.4byte	0x153d
 2796 153d 0D       		.uleb128 0xd
 2797 153e 48150000 		.4byte	0x1548
 2798 1542 0E       		.uleb128 0xe
 2799 1543 48150000 		.4byte	0x1548
 2800 1547 00       		.byte	0
 2801 1548 0B       		.uleb128 0xb
 2802 1549 04       		.byte	0x4
 2803 154a 9C140000 		.4byte	0x149c
 2804 154e 18       		.uleb128 0x18
 2805 154f 0C       		.byte	0xc
 2806 1550 1B       		.byte	0x1b
 2807 1551 A301     		.2byte	0x1a3
 2808 1553 8C150000 		.4byte	0x158c
 2809 1557 0A       		.uleb128 0xa
 2810 1558 76010000 		.4byte	.LASF290
 2811 155c 1B       		.byte	0x1b
 2812 155d A701     		.2byte	0x1a7
 2813 155f 2B150000 		.4byte	0x152b
 2814 1563 00       		.byte	0
 2815 1564 0A       		.uleb128 0xa
 2816 1565 B5000000 		.4byte	.LASF291
 2817 1569 1B       		.byte	0x1b
 2818 156a AC01     		.2byte	0x1ac
 2819 156c 5A110000 		.4byte	0x115a
 2820 1570 04       		.byte	0x4
 2821 1571 0A       		.uleb128 0xa
 2822 1572 F40B0000 		.4byte	.LASF292
 2823 1576 1B       		.byte	0x1b
 2824 1577 B001     		.2byte	0x1b0
 2825 1579 C9000000 		.4byte	0xc9
 2826 157d 08       		.byte	0x8
 2827 157e 09       		.uleb128 0x9
 2828 157f 63723100 		.ascii	"cr1\000"
 2829 1583 1B       		.byte	0x1b
 2830 1584 B401     		.2byte	0x1b4
 2831 1586 C9000000 		.4byte	0xc9
 2832 158a 0A       		.byte	0xa
 2833 158b 00       		.byte	0
 2834 158c 17       		.uleb128 0x17
 2835 158d AC070000 		.4byte	.LASF293
 2836 1591 1B       		.byte	0x1b
 2837 1592 B501     		.2byte	0x1b5
 2838 1594 4E150000 		.4byte	0x154e
 2839 1598 06       		.uleb128 0x6
 2840 1599 8C150000 		.4byte	0x158c
 2841 159d 0B       		.uleb128 0xb
 2842 159e 04       		.byte	0x4
 2843 159f 98150000 		.4byte	0x1598
 2844 15a3 0B       		.uleb128 0xb
 2845 15a4 04       		.byte	0x4
 2846 15a5 66080000 		.4byte	0x866
 2847 15a9 0B       		.uleb128 0xb
 2848 15aa 04       		.byte	0x4
 2849 15ab E60E0000 		.4byte	0xee6
 2850 15af 19       		.uleb128 0x19
ARM GAS  /var/folders/qd/4mxf5pkd0zdf0b9dd1hp39180000gn/T//ccOenxqv.s 			page 51


 2851 15b0 0A010000 		.4byte	.LASF294
 2852 15b4 1B       		.byte	0x1b
 2853 15b5 F201     		.2byte	0x1f2
 2854 15b7 9C140000 		.4byte	0x149c
 2855 15bb 19       		.uleb128 0x19
 2856 15bc 3A040000 		.4byte	.LASF295
 2857 15c0 1B       		.byte	0x1b
 2858 15c1 F601     		.2byte	0x1f6
 2859 15c3 9C140000 		.4byte	0x149c
 2860 15c7 24       		.uleb128 0x24
 2861 15c8 B5030000 		.4byte	.LASF296
 2862 15cc 01       		.byte	0x1
 2863 15cd 5D       		.byte	0x5d
 2864 15ce 00000000 		.4byte	.LFB263
 2865 15d2 1C000000 		.4byte	.LFE263-.LFB263
 2866 15d6 01       		.uleb128 0x1
 2867 15d7 9C       		.byte	0x9c
 2868 15d8 EA150000 		.4byte	0x15ea
 2869 15dc 25       		.uleb128 0x25
 2870 15dd 6E00     		.ascii	"n\000"
 2871 15df 01       		.byte	0x1
 2872 15e0 5D       		.byte	0x5d
 2873 15e1 E4000000 		.4byte	0xe4
 2874 15e5 00000000 		.4byte	.LLST5
 2875 15e9 00       		.byte	0
 2876 15ea 24       		.uleb128 0x24
 2877 15eb 0A050000 		.4byte	.LASF297
 2878 15ef 01       		.byte	0x1
 2879 15f0 51       		.byte	0x51
 2880 15f1 00000000 		.4byte	.LFB262
 2881 15f5 10000000 		.4byte	.LFE262-.LFB262
 2882 15f9 01       		.uleb128 0x1
 2883 15fa 9C       		.byte	0x9c
 2884 15fb 27160000 		.4byte	0x1627
 2885 15ff 26       		.uleb128 0x26
 2886 1600 01070000 		.4byte	.LASF298
 2887 1604 01       		.byte	0x1
 2888 1605 51       		.byte	0x51
 2889 1606 E4000000 		.4byte	0xe4
 2890 160a 21000000 		.4byte	.LLST3
 2891 160e 26       		.uleb128 0x26
 2892 160f 4F010000 		.4byte	.LASF299
 2893 1613 01       		.byte	0x1
 2894 1614 51       		.byte	0x51
 2895 1615 E4000000 		.4byte	0xe4
 2896 1619 56000000 		.4byte	.LLST4
 2897 161d 27       		.uleb128 0x27
 2898 161e BC000000 		.4byte	.LASF304
 2899 1622 37160000 		.4byte	0x1637
 2900 1626 00       		.byte	0
 2901 1627 14       		.uleb128 0x14
 2902 1628 A00B0000 		.4byte	0xba0
 2903 162c 37160000 		.4byte	0x1637
 2904 1630 15       		.uleb128 0x15
 2905 1631 37000000 		.4byte	0x37
 2906 1635 1C       		.byte	0x1c
 2907 1636 00       		.byte	0
ARM GAS  /var/folders/qd/4mxf5pkd0zdf0b9dd1hp39180000gn/T//ccOenxqv.s 			page 52


 2908 1637 06       		.uleb128 0x6
 2909 1638 27160000 		.4byte	0x1627
 2910 163c 24       		.uleb128 0x24
 2911 163d 60080000 		.4byte	.LASF300
 2912 1641 01       		.byte	0x1
 2913 1642 45       		.byte	0x45
 2914 1643 00000000 		.4byte	.LFB261
 2915 1647 24000000 		.4byte	.LFE261-.LFB261
 2916 164b 01       		.uleb128 0x1
 2917 164c 9C       		.byte	0x9c
 2918 164d 5F160000 		.4byte	0x165f
 2919 1651 25       		.uleb128 0x25
 2920 1652 6E00     		.ascii	"n\000"
 2921 1654 01       		.byte	0x1
 2922 1655 45       		.byte	0x45
 2923 1656 E4000000 		.4byte	0xe4
 2924 165a 77000000 		.4byte	.LLST2
 2925 165e 00       		.byte	0
 2926 165f 28       		.uleb128 0x28
 2927 1660 1E0B0000 		.4byte	.LASF305
 2928 1664 01       		.byte	0x1
 2929 1665 39       		.byte	0x39
 2930 1666 00000000 		.4byte	.LFB260
 2931 166a 32000000 		.4byte	.LFE260-.LFB260
 2932 166e 01       		.uleb128 0x1
 2933 166f 9C       		.byte	0x9c
 2934 1670 25       		.uleb128 0x25
 2935 1671 6E00     		.ascii	"n\000"
 2936 1673 01       		.byte	0x1
 2937 1674 39       		.byte	0x39
 2938 1675 E4000000 		.4byte	0xe4
 2939 1679 9B000000 		.4byte	.LLST0
 2940 167d 26       		.uleb128 0x26
 2941 167e 4F010000 		.4byte	.LASF299
 2942 1682 01       		.byte	0x1
 2943 1683 39       		.byte	0x39
 2944 1684 E4000000 		.4byte	0xe4
 2945 1688 CD000000 		.4byte	.LLST1
 2946 168c 00       		.byte	0
 2947 168d 00       		.byte	0
 2948              		.section	.debug_abbrev,"",%progbits
 2949              	.Ldebug_abbrev0:
 2950 0000 01       		.uleb128 0x1
 2951 0001 11       		.uleb128 0x11
 2952 0002 01       		.byte	0x1
 2953 0003 25       		.uleb128 0x25
 2954 0004 0E       		.uleb128 0xe
 2955 0005 13       		.uleb128 0x13
 2956 0006 0B       		.uleb128 0xb
 2957 0007 03       		.uleb128 0x3
 2958 0008 0E       		.uleb128 0xe
 2959 0009 1B       		.uleb128 0x1b
 2960 000a 0E       		.uleb128 0xe
 2961 000b 55       		.uleb128 0x55
 2962 000c 17       		.uleb128 0x17
 2963 000d 11       		.uleb128 0x11
 2964 000e 01       		.uleb128 0x1
ARM GAS  /var/folders/qd/4mxf5pkd0zdf0b9dd1hp39180000gn/T//ccOenxqv.s 			page 53


 2965 000f 10       		.uleb128 0x10
 2966 0010 17       		.uleb128 0x17
 2967 0011 00       		.byte	0
 2968 0012 00       		.byte	0
 2969 0013 02       		.uleb128 0x2
 2970 0014 24       		.uleb128 0x24
 2971 0015 00       		.byte	0
 2972 0016 0B       		.uleb128 0xb
 2973 0017 0B       		.uleb128 0xb
 2974 0018 3E       		.uleb128 0x3e
 2975 0019 0B       		.uleb128 0xb
 2976 001a 03       		.uleb128 0x3
 2977 001b 08       		.uleb128 0x8
 2978 001c 00       		.byte	0
 2979 001d 00       		.byte	0
 2980 001e 03       		.uleb128 0x3
 2981 001f 16       		.uleb128 0x16
 2982 0020 00       		.byte	0
 2983 0021 03       		.uleb128 0x3
 2984 0022 0E       		.uleb128 0xe
 2985 0023 3A       		.uleb128 0x3a
 2986 0024 0B       		.uleb128 0xb
 2987 0025 3B       		.uleb128 0x3b
 2988 0026 0B       		.uleb128 0xb
 2989 0027 49       		.uleb128 0x49
 2990 0028 13       		.uleb128 0x13
 2991 0029 00       		.byte	0
 2992 002a 00       		.byte	0
 2993 002b 04       		.uleb128 0x4
 2994 002c 24       		.uleb128 0x24
 2995 002d 00       		.byte	0
 2996 002e 0B       		.uleb128 0xb
 2997 002f 0B       		.uleb128 0xb
 2998 0030 3E       		.uleb128 0x3e
 2999 0031 0B       		.uleb128 0xb
 3000 0032 03       		.uleb128 0x3
 3001 0033 0E       		.uleb128 0xe
 3002 0034 00       		.byte	0
 3003 0035 00       		.byte	0
 3004 0036 05       		.uleb128 0x5
 3005 0037 35       		.uleb128 0x35
 3006 0038 00       		.byte	0
 3007 0039 49       		.uleb128 0x49
 3008 003a 13       		.uleb128 0x13
 3009 003b 00       		.byte	0
 3010 003c 00       		.byte	0
 3011 003d 06       		.uleb128 0x6
 3012 003e 26       		.uleb128 0x26
 3013 003f 00       		.byte	0
 3014 0040 49       		.uleb128 0x49
 3015 0041 13       		.uleb128 0x13
 3016 0042 00       		.byte	0
 3017 0043 00       		.byte	0
 3018 0044 07       		.uleb128 0x7
 3019 0045 13       		.uleb128 0x13
 3020 0046 01       		.byte	0x1
 3021 0047 03       		.uleb128 0x3
ARM GAS  /var/folders/qd/4mxf5pkd0zdf0b9dd1hp39180000gn/T//ccOenxqv.s 			page 54


 3022 0048 0E       		.uleb128 0xe
 3023 0049 0B       		.uleb128 0xb
 3024 004a 0B       		.uleb128 0xb
 3025 004b 3A       		.uleb128 0x3a
 3026 004c 0B       		.uleb128 0xb
 3027 004d 3B       		.uleb128 0x3b
 3028 004e 0B       		.uleb128 0xb
 3029 004f 01       		.uleb128 0x1
 3030 0050 13       		.uleb128 0x13
 3031 0051 00       		.byte	0
 3032 0052 00       		.byte	0
 3033 0053 08       		.uleb128 0x8
 3034 0054 0D       		.uleb128 0xd
 3035 0055 00       		.byte	0
 3036 0056 03       		.uleb128 0x3
 3037 0057 0E       		.uleb128 0xe
 3038 0058 3A       		.uleb128 0x3a
 3039 0059 0B       		.uleb128 0xb
 3040 005a 3B       		.uleb128 0x3b
 3041 005b 0B       		.uleb128 0xb
 3042 005c 49       		.uleb128 0x49
 3043 005d 13       		.uleb128 0x13
 3044 005e 38       		.uleb128 0x38
 3045 005f 0B       		.uleb128 0xb
 3046 0060 00       		.byte	0
 3047 0061 00       		.byte	0
 3048 0062 09       		.uleb128 0x9
 3049 0063 0D       		.uleb128 0xd
 3050 0064 00       		.byte	0
 3051 0065 03       		.uleb128 0x3
 3052 0066 08       		.uleb128 0x8
 3053 0067 3A       		.uleb128 0x3a
 3054 0068 0B       		.uleb128 0xb
 3055 0069 3B       		.uleb128 0x3b
 3056 006a 05       		.uleb128 0x5
 3057 006b 49       		.uleb128 0x49
 3058 006c 13       		.uleb128 0x13
 3059 006d 38       		.uleb128 0x38
 3060 006e 0B       		.uleb128 0xb
 3061 006f 00       		.byte	0
 3062 0070 00       		.byte	0
 3063 0071 0A       		.uleb128 0xa
 3064 0072 0D       		.uleb128 0xd
 3065 0073 00       		.byte	0
 3066 0074 03       		.uleb128 0x3
 3067 0075 0E       		.uleb128 0xe
 3068 0076 3A       		.uleb128 0x3a
 3069 0077 0B       		.uleb128 0xb
 3070 0078 3B       		.uleb128 0x3b
 3071 0079 05       		.uleb128 0x5
 3072 007a 49       		.uleb128 0x49
 3073 007b 13       		.uleb128 0x13
 3074 007c 38       		.uleb128 0x38
 3075 007d 0B       		.uleb128 0xb
 3076 007e 00       		.byte	0
 3077 007f 00       		.byte	0
 3078 0080 0B       		.uleb128 0xb
ARM GAS  /var/folders/qd/4mxf5pkd0zdf0b9dd1hp39180000gn/T//ccOenxqv.s 			page 55


 3079 0081 0F       		.uleb128 0xf
 3080 0082 00       		.byte	0
 3081 0083 0B       		.uleb128 0xb
 3082 0084 0B       		.uleb128 0xb
 3083 0085 49       		.uleb128 0x49
 3084 0086 13       		.uleb128 0x13
 3085 0087 00       		.byte	0
 3086 0088 00       		.byte	0
 3087 0089 0C       		.uleb128 0xc
 3088 008a 13       		.uleb128 0x13
 3089 008b 01       		.byte	0x1
 3090 008c 03       		.uleb128 0x3
 3091 008d 0E       		.uleb128 0xe
 3092 008e 0B       		.uleb128 0xb
 3093 008f 0B       		.uleb128 0xb
 3094 0090 3A       		.uleb128 0x3a
 3095 0091 0B       		.uleb128 0xb
 3096 0092 3B       		.uleb128 0x3b
 3097 0093 05       		.uleb128 0x5
 3098 0094 01       		.uleb128 0x1
 3099 0095 13       		.uleb128 0x13
 3100 0096 00       		.byte	0
 3101 0097 00       		.byte	0
 3102 0098 0D       		.uleb128 0xd
 3103 0099 15       		.uleb128 0x15
 3104 009a 01       		.byte	0x1
 3105 009b 27       		.uleb128 0x27
 3106 009c 19       		.uleb128 0x19
 3107 009d 01       		.uleb128 0x1
 3108 009e 13       		.uleb128 0x13
 3109 009f 00       		.byte	0
 3110 00a0 00       		.byte	0
 3111 00a1 0E       		.uleb128 0xe
 3112 00a2 05       		.uleb128 0x5
 3113 00a3 00       		.byte	0
 3114 00a4 49       		.uleb128 0x49
 3115 00a5 13       		.uleb128 0x13
 3116 00a6 00       		.byte	0
 3117 00a7 00       		.byte	0
 3118 00a8 0F       		.uleb128 0xf
 3119 00a9 0F       		.uleb128 0xf
 3120 00aa 00       		.byte	0
 3121 00ab 0B       		.uleb128 0xb
 3122 00ac 0B       		.uleb128 0xb
 3123 00ad 00       		.byte	0
 3124 00ae 00       		.byte	0
 3125 00af 10       		.uleb128 0x10
 3126 00b0 13       		.uleb128 0x13
 3127 00b1 01       		.byte	0x1
 3128 00b2 03       		.uleb128 0x3
 3129 00b3 0E       		.uleb128 0xe
 3130 00b4 0B       		.uleb128 0xb
 3131 00b5 05       		.uleb128 0x5
 3132 00b6 3A       		.uleb128 0x3a
 3133 00b7 0B       		.uleb128 0xb
 3134 00b8 3B       		.uleb128 0x3b
 3135 00b9 05       		.uleb128 0x5
ARM GAS  /var/folders/qd/4mxf5pkd0zdf0b9dd1hp39180000gn/T//ccOenxqv.s 			page 56


 3136 00ba 01       		.uleb128 0x1
 3137 00bb 13       		.uleb128 0x13
 3138 00bc 00       		.byte	0
 3139 00bd 00       		.byte	0
 3140 00be 11       		.uleb128 0x11
 3141 00bf 13       		.uleb128 0x13
 3142 00c0 01       		.byte	0x1
 3143 00c1 0B       		.uleb128 0xb
 3144 00c2 05       		.uleb128 0x5
 3145 00c3 3A       		.uleb128 0x3a
 3146 00c4 0B       		.uleb128 0xb
 3147 00c5 3B       		.uleb128 0x3b
 3148 00c6 05       		.uleb128 0x5
 3149 00c7 01       		.uleb128 0x1
 3150 00c8 13       		.uleb128 0x13
 3151 00c9 00       		.byte	0
 3152 00ca 00       		.byte	0
 3153 00cb 12       		.uleb128 0x12
 3154 00cc 0D       		.uleb128 0xd
 3155 00cd 00       		.byte	0
 3156 00ce 03       		.uleb128 0x3
 3157 00cf 0E       		.uleb128 0xe
 3158 00d0 3A       		.uleb128 0x3a
 3159 00d1 0B       		.uleb128 0xb
 3160 00d2 3B       		.uleb128 0x3b
 3161 00d3 05       		.uleb128 0x5
 3162 00d4 49       		.uleb128 0x49
 3163 00d5 13       		.uleb128 0x13
 3164 00d6 38       		.uleb128 0x38
 3165 00d7 05       		.uleb128 0x5
 3166 00d8 00       		.byte	0
 3167 00d9 00       		.byte	0
 3168 00da 13       		.uleb128 0x13
 3169 00db 0D       		.uleb128 0xd
 3170 00dc 00       		.byte	0
 3171 00dd 03       		.uleb128 0x3
 3172 00de 08       		.uleb128 0x8
 3173 00df 3A       		.uleb128 0x3a
 3174 00e0 0B       		.uleb128 0xb
 3175 00e1 3B       		.uleb128 0x3b
 3176 00e2 05       		.uleb128 0x5
 3177 00e3 49       		.uleb128 0x49
 3178 00e4 13       		.uleb128 0x13
 3179 00e5 38       		.uleb128 0x38
 3180 00e6 05       		.uleb128 0x5
 3181 00e7 00       		.byte	0
 3182 00e8 00       		.byte	0
 3183 00e9 14       		.uleb128 0x14
 3184 00ea 01       		.uleb128 0x1
 3185 00eb 01       		.byte	0x1
 3186 00ec 49       		.uleb128 0x49
 3187 00ed 13       		.uleb128 0x13
 3188 00ee 01       		.uleb128 0x1
 3189 00ef 13       		.uleb128 0x13
 3190 00f0 00       		.byte	0
 3191 00f1 00       		.byte	0
 3192 00f2 15       		.uleb128 0x15
ARM GAS  /var/folders/qd/4mxf5pkd0zdf0b9dd1hp39180000gn/T//ccOenxqv.s 			page 57


 3193 00f3 21       		.uleb128 0x21
 3194 00f4 00       		.byte	0
 3195 00f5 49       		.uleb128 0x49
 3196 00f6 13       		.uleb128 0x13
 3197 00f7 2F       		.uleb128 0x2f
 3198 00f8 0B       		.uleb128 0xb
 3199 00f9 00       		.byte	0
 3200 00fa 00       		.byte	0
 3201 00fb 16       		.uleb128 0x16
 3202 00fc 21       		.uleb128 0x21
 3203 00fd 00       		.byte	0
 3204 00fe 49       		.uleb128 0x49
 3205 00ff 13       		.uleb128 0x13
 3206 0100 2F       		.uleb128 0x2f
 3207 0101 05       		.uleb128 0x5
 3208 0102 00       		.byte	0
 3209 0103 00       		.byte	0
 3210 0104 17       		.uleb128 0x17
 3211 0105 16       		.uleb128 0x16
 3212 0106 00       		.byte	0
 3213 0107 03       		.uleb128 0x3
 3214 0108 0E       		.uleb128 0xe
 3215 0109 3A       		.uleb128 0x3a
 3216 010a 0B       		.uleb128 0xb
 3217 010b 3B       		.uleb128 0x3b
 3218 010c 05       		.uleb128 0x5
 3219 010d 49       		.uleb128 0x49
 3220 010e 13       		.uleb128 0x13
 3221 010f 00       		.byte	0
 3222 0110 00       		.byte	0
 3223 0111 18       		.uleb128 0x18
 3224 0112 13       		.uleb128 0x13
 3225 0113 01       		.byte	0x1
 3226 0114 0B       		.uleb128 0xb
 3227 0115 0B       		.uleb128 0xb
 3228 0116 3A       		.uleb128 0x3a
 3229 0117 0B       		.uleb128 0xb
 3230 0118 3B       		.uleb128 0x3b
 3231 0119 05       		.uleb128 0x5
 3232 011a 01       		.uleb128 0x1
 3233 011b 13       		.uleb128 0x13
 3234 011c 00       		.byte	0
 3235 011d 00       		.byte	0
 3236 011e 19       		.uleb128 0x19
 3237 011f 34       		.uleb128 0x34
 3238 0120 00       		.byte	0
 3239 0121 03       		.uleb128 0x3
 3240 0122 0E       		.uleb128 0xe
 3241 0123 3A       		.uleb128 0x3a
 3242 0124 0B       		.uleb128 0xb
 3243 0125 3B       		.uleb128 0x3b
 3244 0126 05       		.uleb128 0x5
 3245 0127 49       		.uleb128 0x49
 3246 0128 13       		.uleb128 0x13
 3247 0129 3F       		.uleb128 0x3f
 3248 012a 19       		.uleb128 0x19
 3249 012b 3C       		.uleb128 0x3c
ARM GAS  /var/folders/qd/4mxf5pkd0zdf0b9dd1hp39180000gn/T//ccOenxqv.s 			page 58


 3250 012c 19       		.uleb128 0x19
 3251 012d 00       		.byte	0
 3252 012e 00       		.byte	0
 3253 012f 1A       		.uleb128 0x1a
 3254 0130 34       		.uleb128 0x34
 3255 0131 00       		.byte	0
 3256 0132 03       		.uleb128 0x3
 3257 0133 0E       		.uleb128 0xe
 3258 0134 3A       		.uleb128 0x3a
 3259 0135 0B       		.uleb128 0xb
 3260 0136 3B       		.uleb128 0x3b
 3261 0137 0B       		.uleb128 0xb
 3262 0138 49       		.uleb128 0x49
 3263 0139 13       		.uleb128 0x13
 3264 013a 3F       		.uleb128 0x3f
 3265 013b 19       		.uleb128 0x19
 3266 013c 3C       		.uleb128 0x3c
 3267 013d 19       		.uleb128 0x19
 3268 013e 00       		.byte	0
 3269 013f 00       		.byte	0
 3270 0140 1B       		.uleb128 0x1b
 3271 0141 0D       		.uleb128 0xd
 3272 0142 00       		.byte	0
 3273 0143 03       		.uleb128 0x3
 3274 0144 08       		.uleb128 0x8
 3275 0145 3A       		.uleb128 0x3a
 3276 0146 0B       		.uleb128 0xb
 3277 0147 3B       		.uleb128 0x3b
 3278 0148 0B       		.uleb128 0xb
 3279 0149 49       		.uleb128 0x49
 3280 014a 13       		.uleb128 0x13
 3281 014b 38       		.uleb128 0x38
 3282 014c 0B       		.uleb128 0xb
 3283 014d 00       		.byte	0
 3284 014e 00       		.byte	0
 3285 014f 1C       		.uleb128 0x1c
 3286 0150 13       		.uleb128 0x13
 3287 0151 01       		.byte	0x1
 3288 0152 0B       		.uleb128 0xb
 3289 0153 0B       		.uleb128 0xb
 3290 0154 3A       		.uleb128 0x3a
 3291 0155 0B       		.uleb128 0xb
 3292 0156 3B       		.uleb128 0x3b
 3293 0157 0B       		.uleb128 0xb
 3294 0158 01       		.uleb128 0x1
 3295 0159 13       		.uleb128 0x13
 3296 015a 00       		.byte	0
 3297 015b 00       		.byte	0
 3298 015c 1D       		.uleb128 0x1d
 3299 015d 17       		.uleb128 0x17
 3300 015e 01       		.byte	0x1
 3301 015f 0B       		.uleb128 0xb
 3302 0160 0B       		.uleb128 0xb
 3303 0161 3A       		.uleb128 0x3a
 3304 0162 0B       		.uleb128 0xb
 3305 0163 3B       		.uleb128 0x3b
 3306 0164 0B       		.uleb128 0xb
ARM GAS  /var/folders/qd/4mxf5pkd0zdf0b9dd1hp39180000gn/T//ccOenxqv.s 			page 59


 3307 0165 01       		.uleb128 0x1
 3308 0166 13       		.uleb128 0x13
 3309 0167 00       		.byte	0
 3310 0168 00       		.byte	0
 3311 0169 1E       		.uleb128 0x1e
 3312 016a 0D       		.uleb128 0xd
 3313 016b 00       		.byte	0
 3314 016c 03       		.uleb128 0x3
 3315 016d 0E       		.uleb128 0xe
 3316 016e 3A       		.uleb128 0x3a
 3317 016f 0B       		.uleb128 0xb
 3318 0170 3B       		.uleb128 0x3b
 3319 0171 05       		.uleb128 0x5
 3320 0172 49       		.uleb128 0x49
 3321 0173 13       		.uleb128 0x13
 3322 0174 00       		.byte	0
 3323 0175 00       		.byte	0
 3324 0176 1F       		.uleb128 0x1f
 3325 0177 34       		.uleb128 0x34
 3326 0178 00       		.byte	0
 3327 0179 03       		.uleb128 0x3
 3328 017a 08       		.uleb128 0x8
 3329 017b 3A       		.uleb128 0x3a
 3330 017c 0B       		.uleb128 0xb
 3331 017d 3B       		.uleb128 0x3b
 3332 017e 05       		.uleb128 0x5
 3333 017f 49       		.uleb128 0x49
 3334 0180 13       		.uleb128 0x13
 3335 0181 3F       		.uleb128 0x3f
 3336 0182 19       		.uleb128 0x19
 3337 0183 3C       		.uleb128 0x3c
 3338 0184 19       		.uleb128 0x19
 3339 0185 00       		.byte	0
 3340 0186 00       		.byte	0
 3341 0187 20       		.uleb128 0x20
 3342 0188 15       		.uleb128 0x15
 3343 0189 01       		.byte	0x1
 3344 018a 27       		.uleb128 0x27
 3345 018b 19       		.uleb128 0x19
 3346 018c 49       		.uleb128 0x49
 3347 018d 13       		.uleb128 0x13
 3348 018e 01       		.uleb128 0x1
 3349 018f 13       		.uleb128 0x13
 3350 0190 00       		.byte	0
 3351 0191 00       		.byte	0
 3352 0192 21       		.uleb128 0x21
 3353 0193 0D       		.uleb128 0xd
 3354 0194 00       		.byte	0
 3355 0195 03       		.uleb128 0x3
 3356 0196 08       		.uleb128 0x8
 3357 0197 3A       		.uleb128 0x3a
 3358 0198 0B       		.uleb128 0xb
 3359 0199 3B       		.uleb128 0x3b
 3360 019a 0B       		.uleb128 0xb
 3361 019b 49       		.uleb128 0x49
 3362 019c 13       		.uleb128 0x13
 3363 019d 00       		.byte	0
ARM GAS  /var/folders/qd/4mxf5pkd0zdf0b9dd1hp39180000gn/T//ccOenxqv.s 			page 60


 3364 019e 00       		.byte	0
 3365 019f 22       		.uleb128 0x22
 3366 01a0 04       		.uleb128 0x4
 3367 01a1 01       		.byte	0x1
 3368 01a2 3E       		.uleb128 0x3e
 3369 01a3 0B       		.uleb128 0xb
 3370 01a4 0B       		.uleb128 0xb
 3371 01a5 0B       		.uleb128 0xb
 3372 01a6 49       		.uleb128 0x49
 3373 01a7 13       		.uleb128 0x13
 3374 01a8 3A       		.uleb128 0x3a
 3375 01a9 0B       		.uleb128 0xb
 3376 01aa 3B       		.uleb128 0x3b
 3377 01ab 0B       		.uleb128 0xb
 3378 01ac 01       		.uleb128 0x1
 3379 01ad 13       		.uleb128 0x13
 3380 01ae 00       		.byte	0
 3381 01af 00       		.byte	0
 3382 01b0 23       		.uleb128 0x23
 3383 01b1 28       		.uleb128 0x28
 3384 01b2 00       		.byte	0
 3385 01b3 03       		.uleb128 0x3
 3386 01b4 0E       		.uleb128 0xe
 3387 01b5 1C       		.uleb128 0x1c
 3388 01b6 0B       		.uleb128 0xb
 3389 01b7 00       		.byte	0
 3390 01b8 00       		.byte	0
 3391 01b9 24       		.uleb128 0x24
 3392 01ba 2E       		.uleb128 0x2e
 3393 01bb 01       		.byte	0x1
 3394 01bc 3F       		.uleb128 0x3f
 3395 01bd 19       		.uleb128 0x19
 3396 01be 03       		.uleb128 0x3
 3397 01bf 0E       		.uleb128 0xe
 3398 01c0 3A       		.uleb128 0x3a
 3399 01c1 0B       		.uleb128 0xb
 3400 01c2 3B       		.uleb128 0x3b
 3401 01c3 0B       		.uleb128 0xb
 3402 01c4 27       		.uleb128 0x27
 3403 01c5 19       		.uleb128 0x19
 3404 01c6 11       		.uleb128 0x11
 3405 01c7 01       		.uleb128 0x1
 3406 01c8 12       		.uleb128 0x12
 3407 01c9 06       		.uleb128 0x6
 3408 01ca 40       		.uleb128 0x40
 3409 01cb 18       		.uleb128 0x18
 3410 01cc 9742     		.uleb128 0x2117
 3411 01ce 19       		.uleb128 0x19
 3412 01cf 01       		.uleb128 0x1
 3413 01d0 13       		.uleb128 0x13
 3414 01d1 00       		.byte	0
 3415 01d2 00       		.byte	0
 3416 01d3 25       		.uleb128 0x25
 3417 01d4 05       		.uleb128 0x5
 3418 01d5 00       		.byte	0
 3419 01d6 03       		.uleb128 0x3
 3420 01d7 08       		.uleb128 0x8
ARM GAS  /var/folders/qd/4mxf5pkd0zdf0b9dd1hp39180000gn/T//ccOenxqv.s 			page 61


 3421 01d8 3A       		.uleb128 0x3a
 3422 01d9 0B       		.uleb128 0xb
 3423 01da 3B       		.uleb128 0x3b
 3424 01db 0B       		.uleb128 0xb
 3425 01dc 49       		.uleb128 0x49
 3426 01dd 13       		.uleb128 0x13
 3427 01de 02       		.uleb128 0x2
 3428 01df 17       		.uleb128 0x17
 3429 01e0 00       		.byte	0
 3430 01e1 00       		.byte	0
 3431 01e2 26       		.uleb128 0x26
 3432 01e3 05       		.uleb128 0x5
 3433 01e4 00       		.byte	0
 3434 01e5 03       		.uleb128 0x3
 3435 01e6 0E       		.uleb128 0xe
 3436 01e7 3A       		.uleb128 0x3a
 3437 01e8 0B       		.uleb128 0xb
 3438 01e9 3B       		.uleb128 0x3b
 3439 01ea 0B       		.uleb128 0xb
 3440 01eb 49       		.uleb128 0x49
 3441 01ec 13       		.uleb128 0x13
 3442 01ed 02       		.uleb128 0x2
 3443 01ee 17       		.uleb128 0x17
 3444 01ef 00       		.byte	0
 3445 01f0 00       		.byte	0
 3446 01f1 27       		.uleb128 0x27
 3447 01f2 34       		.uleb128 0x34
 3448 01f3 00       		.byte	0
 3449 01f4 03       		.uleb128 0x3
 3450 01f5 0E       		.uleb128 0xe
 3451 01f6 49       		.uleb128 0x49
 3452 01f7 13       		.uleb128 0x13
 3453 01f8 34       		.uleb128 0x34
 3454 01f9 19       		.uleb128 0x19
 3455 01fa 00       		.byte	0
 3456 01fb 00       		.byte	0
 3457 01fc 28       		.uleb128 0x28
 3458 01fd 2E       		.uleb128 0x2e
 3459 01fe 01       		.byte	0x1
 3460 01ff 3F       		.uleb128 0x3f
 3461 0200 19       		.uleb128 0x19
 3462 0201 03       		.uleb128 0x3
 3463 0202 0E       		.uleb128 0xe
 3464 0203 3A       		.uleb128 0x3a
 3465 0204 0B       		.uleb128 0xb
 3466 0205 3B       		.uleb128 0x3b
 3467 0206 0B       		.uleb128 0xb
 3468 0207 27       		.uleb128 0x27
 3469 0208 19       		.uleb128 0x19
 3470 0209 11       		.uleb128 0x11
 3471 020a 01       		.uleb128 0x1
 3472 020b 12       		.uleb128 0x12
 3473 020c 06       		.uleb128 0x6
 3474 020d 40       		.uleb128 0x40
 3475 020e 18       		.uleb128 0x18
 3476 020f 9742     		.uleb128 0x2117
 3477 0211 19       		.uleb128 0x19
ARM GAS  /var/folders/qd/4mxf5pkd0zdf0b9dd1hp39180000gn/T//ccOenxqv.s 			page 62


 3478 0212 00       		.byte	0
 3479 0213 00       		.byte	0
 3480 0214 00       		.byte	0
 3481              		.section	.debug_loc,"",%progbits
 3482              	.Ldebug_loc0:
 3483              	.LLST5:
 3484 0000 00000000 		.4byte	.LVL10
 3485 0004 08000000 		.4byte	.LVL11
 3486 0008 0100     		.2byte	0x1
 3487 000a 50       		.byte	0x50
 3488 000b 08000000 		.4byte	.LVL11
 3489 000f 1C000000 		.4byte	.LFE263
 3490 0013 0400     		.2byte	0x4
 3491 0015 F3       		.byte	0xf3
 3492 0016 01       		.uleb128 0x1
 3493 0017 50       		.byte	0x50
 3494 0018 9F       		.byte	0x9f
 3495 0019 00000000 		.4byte	0
 3496 001d 00000000 		.4byte	0
 3497              	.LLST3:
 3498 0021 00000000 		.4byte	.LVL6
 3499 0025 04000000 		.4byte	.LVL7
 3500 0029 0100     		.2byte	0x1
 3501 002b 50       		.byte	0x50
 3502 002c 04000000 		.4byte	.LVL7
 3503 0030 08000000 		.4byte	.LVL8
 3504 0034 0700     		.2byte	0x7
 3505 0036 70       		.byte	0x70
 3506 0037 80808080 		.sleb128 536870912
 3506      02
 3507 003c 9F       		.byte	0x9f
 3508 003d 08000000 		.4byte	.LVL8
 3509 0041 10000000 		.4byte	.LFE262
 3510 0045 0700     		.2byte	0x7
 3511 0047 70       		.byte	0x70
 3512 0048 80A6FCFF 		.sleb128 536810240
 3512      01
 3513 004d 9F       		.byte	0x9f
 3514 004e 00000000 		.4byte	0
 3515 0052 00000000 		.4byte	0
 3516              	.LLST4:
 3517 0056 00000000 		.4byte	.LVL6
 3518 005a 0A000000 		.4byte	.LVL9
 3519 005e 0100     		.2byte	0x1
 3520 0060 51       		.byte	0x51
 3521 0061 0A000000 		.4byte	.LVL9
 3522 0065 10000000 		.4byte	.LFE262
 3523 0069 0400     		.2byte	0x4
 3524 006b F3       		.byte	0xf3
 3525 006c 01       		.uleb128 0x1
 3526 006d 51       		.byte	0x51
 3527 006e 9F       		.byte	0x9f
 3528 006f 00000000 		.4byte	0
 3529 0073 00000000 		.4byte	0
 3530              	.LLST2:
 3531 0077 00000000 		.4byte	.LVL4
 3532 007b 10000000 		.4byte	.LVL5
ARM GAS  /var/folders/qd/4mxf5pkd0zdf0b9dd1hp39180000gn/T//ccOenxqv.s 			page 63


 3533 007f 0100     		.2byte	0x1
 3534 0081 50       		.byte	0x50
 3535 0082 10000000 		.4byte	.LVL5
 3536 0086 24000000 		.4byte	.LFE261
 3537 008a 0700     		.2byte	0x7
 3538 008c 70       		.byte	0x70
 3539 008d 80BEFCFF 		.sleb128 536813312
 3539      01
 3540 0092 9F       		.byte	0x9f
 3541 0093 00000000 		.4byte	0
 3542 0097 00000000 		.4byte	0
 3543              	.LLST0:
 3544 009b 00000000 		.4byte	.LVL0
 3545 009f 1C000000 		.4byte	.LVL2
 3546 00a3 0100     		.2byte	0x1
 3547 00a5 50       		.byte	0x50
 3548 00a6 1C000000 		.4byte	.LVL2
 3549 00aa 2E000000 		.4byte	.LVL3
 3550 00ae 0700     		.2byte	0x7
 3551 00b0 74       		.byte	0x74
 3552 00b1 80BEFCFF 		.sleb128 536813312
 3552      01
 3553 00b6 9F       		.byte	0x9f
 3554 00b7 2E000000 		.4byte	.LVL3
 3555 00bb 32000000 		.4byte	.LFE260
 3556 00bf 0400     		.2byte	0x4
 3557 00c1 F3       		.byte	0xf3
 3558 00c2 01       		.uleb128 0x1
 3559 00c3 50       		.byte	0x50
 3560 00c4 9F       		.byte	0x9f
 3561 00c5 00000000 		.4byte	0
 3562 00c9 00000000 		.4byte	0
 3563              	.LLST1:
 3564 00cd 00000000 		.4byte	.LVL0
 3565 00d1 14000000 		.4byte	.LVL1
 3566 00d5 0100     		.2byte	0x1
 3567 00d7 51       		.byte	0x51
 3568 00d8 14000000 		.4byte	.LVL1
 3569 00dc 32000000 		.4byte	.LFE260
 3570 00e0 0400     		.2byte	0x4
 3571 00e2 F3       		.byte	0xf3
 3572 00e3 01       		.uleb128 0x1
 3573 00e4 51       		.byte	0x51
 3574 00e5 9F       		.byte	0x9f
 3575 00e6 00000000 		.4byte	0
 3576 00ea 00000000 		.4byte	0
 3577              		.section	.debug_aranges,"",%progbits
 3578 0000 34000000 		.4byte	0x34
 3579 0004 0200     		.2byte	0x2
 3580 0006 00000000 		.4byte	.Ldebug_info0
 3581 000a 04       		.byte	0x4
 3582 000b 00       		.byte	0
 3583 000c 0000     		.2byte	0
 3584 000e 0000     		.2byte	0
 3585 0010 00000000 		.4byte	.LFB260
 3586 0014 32000000 		.4byte	.LFE260-.LFB260
 3587 0018 00000000 		.4byte	.LFB261
ARM GAS  /var/folders/qd/4mxf5pkd0zdf0b9dd1hp39180000gn/T//ccOenxqv.s 			page 64


 3588 001c 24000000 		.4byte	.LFE261-.LFB261
 3589 0020 00000000 		.4byte	.LFB262
 3590 0024 10000000 		.4byte	.LFE262-.LFB262
 3591 0028 00000000 		.4byte	.LFB263
 3592 002c 1C000000 		.4byte	.LFE263-.LFB263
 3593 0030 00000000 		.4byte	0
 3594 0034 00000000 		.4byte	0
 3595              		.section	.debug_ranges,"",%progbits
 3596              	.Ldebug_ranges0:
 3597 0000 00000000 		.4byte	.LFB260
 3598 0004 32000000 		.4byte	.LFE260
 3599 0008 00000000 		.4byte	.LFB261
 3600 000c 24000000 		.4byte	.LFE261
 3601 0010 00000000 		.4byte	.LFB262
 3602 0014 10000000 		.4byte	.LFE262
 3603 0018 00000000 		.4byte	.LFB263
 3604 001c 1C000000 		.4byte	.LFE263
 3605 0020 00000000 		.4byte	0
 3606 0024 00000000 		.4byte	0
 3607              		.section	.debug_line,"",%progbits
 3608              	.Ldebug_line0:
 3609 0000 F4040000 		.section	.debug_str,"MS",%progbits,1
 3609      02009904 
 3609      00000201 
 3609      FB0E0D00 
 3609      01010101 
 3610              	.LASF115:
 3611 0000 4D314152 		.ascii	"M1AR\000"
 3611      00
 3612              	.LASF86:
 3613 0005 52534552 		.ascii	"RSERVED1\000"
 3613      56454431 
 3613      00
 3614              	.LASF205:
 3615 000e 73746D33 		.ascii	"stm32_dma_stream_t\000"
 3615      325F646D 
 3615      615F7374 
 3615      7265616D 
 3615      5F7400
 3616              	.LASF4:
 3617 0021 73697A65 		.ascii	"size_t\000"
 3617      5F7400
 3618              	.LASF145:
 3619 0028 77747365 		.ascii	"wtsemp\000"
 3619      6D7000
 3620              	.LASF167:
 3621 002f 63665F6F 		.ascii	"cf_off_name\000"
 3621      66665F6E 
 3621      616D6500 
 3622              	.LASF30:
 3623 003b 73797374 		.ascii	"systime_t\000"
 3623      696D655F 
 3623      7400
 3624              	.LASF156:
 3625 0045 63685F69 		.ascii	"ch_identifier\000"
 3625      64656E74 
 3625      69666965 
ARM GAS  /var/folders/qd/4mxf5pkd0zdf0b9dd1hp39180000gn/T//ccOenxqv.s 			page 65


 3625      7200
 3626              	.LASF35:
 3627 0053 705F6374 		.ascii	"p_ctx\000"
 3627      7800
 3628              	.LASF25:
 3629 0059 74707269 		.ascii	"tprio_t\000"
 3629      6F5F7400 
 3630              	.LASF175:
 3631 0061 63685F64 		.ascii	"ch_debug\000"
 3631      65627567 
 3631      00
 3632              	.LASF43:
 3633 006a 705F6D73 		.ascii	"p_msgqueue\000"
 3633      67717565 
 3633      756500
 3634              	.LASF59:
 3635 0075 725F6374 		.ascii	"r_ctx\000"
 3635      7800
 3636              	.LASF18:
 3637 007b 696E7433 		.ascii	"int32_t\000"
 3637      325F7400 
 3638              	.LASF274:
 3639 0083 77726974 		.ascii	"writet\000"
 3639      657400
 3640              	.LASF164:
 3641 008a 63665F6F 		.ascii	"cf_off_ctx\000"
 3641      66665F63 
 3641      747800
 3642              	.LASF63:
 3643 0095 76746675 		.ascii	"vtfunc_t\000"
 3643      6E635F74 
 3643      00
 3644              	.LASF72:
 3645 009e 63685F76 		.ascii	"ch_virtual_timers_list\000"
 3645      69727475 
 3645      616C5F74 
 3645      696D6572 
 3645      735F6C69 
 3646              	.LASF291:
 3647 00b5 7373706F 		.ascii	"ssport\000"
 3647      727400
 3648              	.LASF304:
 3649 00bc 5F5F6675 		.ascii	"__func__\000"
 3649      6E635F5F 
 3649      00
 3650              	.LASF270:
 3651 00c5 77726974 		.ascii	"write\000"
 3651      6500
 3652              	.LASF98:
 3653 00cb 56544F52 		.ascii	"VTOR\000"
 3653      00
 3654              	.LASF251:
 3655 00d0 70776D63 		.ascii	"pwmchnmsk_t\000"
 3655      686E6D73 
 3655      6B5F7400 
 3656              	.LASF163:
 3657 00dc 63665F6F 		.ascii	"cf_off_prio\000"
ARM GAS  /var/folders/qd/4mxf5pkd0zdf0b9dd1hp39180000gn/T//ccOenxqv.s 			page 66


 3657      66665F70 
 3657      72696F00 
 3658              	.LASF182:
 3659 00e8 656C5F66 		.ascii	"el_flags\000"
 3659      6C616773 
 3659      00
 3660              	.LASF243:
 3661 00f1 636F6E66 		.ascii	"config\000"
 3661      696700
 3662              	.LASF242:
 3663 00f8 73746174 		.ascii	"state\000"
 3663      6500
 3664              	.LASF229:
 3665 00fe 50454461 		.ascii	"PEData\000"
 3665      746100
 3666              	.LASF272:
 3667 0105 70757474 		.ascii	"putt\000"
 3667      00
 3668              	.LASF294:
 3669 010a 53504944 		.ascii	"SPID1\000"
 3669      3100
 3670              	.LASF255:
 3671 0110 50574D43 		.ascii	"PWMChannelConfig\000"
 3671      68616E6E 
 3671      656C436F 
 3671      6E666967 
 3671      00
 3672              	.LASF160:
 3673 0121 63685F70 		.ascii	"ch_ptrsize\000"
 3673      74727369 
 3673      7A6500
 3674              	.LASF135:
 3675 012c 444D4152 		.ascii	"DMAR\000"
 3675      00
 3676              	.LASF89:
 3677 0131 49435052 		.ascii	"ICPR\000"
 3677      00
 3678              	.LASF257:
 3679 0136 64696572 		.ascii	"dier\000"
 3679      00
 3680              	.LASF237:
 3681 013b 50574D5F 		.ascii	"PWM_UNINIT\000"
 3681      554E494E 
 3681      495400
 3682              	.LASF254:
 3683 0146 63616C6C 		.ascii	"callback\000"
 3683      6261636B 
 3683      00
 3684              	.LASF299:
 3685 014f 7072696F 		.ascii	"prio\000"
 3685      00
 3686              	.LASF224:
 3687 0154 73746D33 		.ascii	"stm32_gpio_setup_t\000"
 3687      325F6770 
 3687      696F5F73 
 3687      65747570 
 3687      5F7400
ARM GAS  /var/folders/qd/4mxf5pkd0zdf0b9dd1hp39180000gn/T//ccOenxqv.s 			page 67


 3688              	.LASF153:
 3689 0167 6D5F6F77 		.ascii	"m_owner\000"
 3689      6E657200 
 3690              	.LASF70:
 3691 016f 76745F70 		.ascii	"vt_par\000"
 3691      617200
 3692              	.LASF290:
 3693 0176 656E645F 		.ascii	"end_cb\000"
 3693      636200
 3694              	.LASF142:
 3695 017d 65786974 		.ascii	"exitcode\000"
 3695      636F6465 
 3695      00
 3696              	.LASF120:
 3697 0186 49325343 		.ascii	"I2SCFGR\000"
 3697      46475200 
 3698              	.LASF5:
 3699 018e 5F5F7569 		.ascii	"__uint8_t\000"
 3699      6E74385F 
 3699      7400
 3700              	.LASF192:
 3701 0198 715F746F 		.ascii	"q_top\000"
 3701      7000
 3702              	.LASF162:
 3703 019e 63685F74 		.ascii	"ch_threadsize\000"
 3703      68726561 
 3703      6473697A 
 3703      6500
 3704              	.LASF212:
 3705 01ac 50555044 		.ascii	"PUPDR\000"
 3705      5200
 3706              	.LASF275:
 3707 01b2 72656164 		.ascii	"readt\000"
 3707      7400
 3708              	.LASF99:
 3709 01b8 41495243 		.ascii	"AIRCR\000"
 3709      5200
 3710              	.LASF191:
 3711 01be 715F6275 		.ascii	"q_buffer\000"
 3711      66666572 
 3711      00
 3712              	.LASF195:
 3713 01c7 715F6E6F 		.ascii	"q_notify\000"
 3713      74696679 
 3713      00
 3714              	.LASF36:
 3715 01d0 705F6E65 		.ascii	"p_newer\000"
 3715      77657200 
 3716              	.LASF277:
 3717 01d8 5350495F 		.ascii	"SPI_STOP\000"
 3717      53544F50 
 3717      00
 3718              	.LASF11:
 3719 01e1 6C6F6E67 		.ascii	"long int\000"
 3719      20696E74 
 3719      00
 3720              	.LASF276:
ARM GAS  /var/folders/qd/4mxf5pkd0zdf0b9dd1hp39180000gn/T//ccOenxqv.s 			page 68


 3721 01ea 5350495F 		.ascii	"SPI_UNINIT\000"
 3721      554E494E 
 3721      495400
 3722              	.LASF32:
 3723 01f5 705F6E65 		.ascii	"p_next\000"
 3723      787400
 3724              	.LASF194:
 3725 01fc 715F7264 		.ascii	"q_rdptr\000"
 3725      70747200 
 3726              	.LASF169:
 3727 0204 63665F6F 		.ascii	"cf_off_state\000"
 3727      66665F73 
 3727      74617465 
 3727      00
 3728              	.LASF33:
 3729 0211 705F7072 		.ascii	"p_prev\000"
 3729      657600
 3730              	.LASF96:
 3731 0218 43505549 		.ascii	"CPUID\000"
 3731      4400
 3732              	.LASF235:
 3733 021e 696F706F 		.ascii	"ioportid_t\000"
 3733      72746964 
 3733      5F7400
 3734              	.LASF23:
 3735 0229 74737461 		.ascii	"tstate_t\000"
 3735      74655F74 
 3735      00
 3736              	.LASF53:
 3737 0232 74687265 		.ascii	"threads_queue_t\000"
 3737      6164735F 
 3737      71756575 
 3737      655F7400 
 3738              	.LASF46:
 3739 0242 705F6D74 		.ascii	"p_mtxlist\000"
 3739      786C6973 
 3739      7400
 3740              	.LASF267:
 3741 024c 6F717565 		.ascii	"oqueue\000"
 3741      756500
 3742              	.LASF125:
 3743 0253 72656761 		.ascii	"regarm_t\000"
 3743      726D5F74 
 3743      00
 3744              	.LASF250:
 3745 025c 70776D63 		.ascii	"pwmchannel_t\000"
 3745      68616E6E 
 3745      656C5F74 
 3745      00
 3746              	.LASF188:
 3747 0269 696F5F71 		.ascii	"io_queue\000"
 3747      75657565 
 3747      00
 3748              	.LASF97:
 3749 0272 49435352 		.ascii	"ICSR\000"
 3749      00
 3750              	.LASF236:
ARM GAS  /var/folders/qd/4mxf5pkd0zdf0b9dd1hp39180000gn/T//ccOenxqv.s 			page 69


 3751 0277 70616C5F 		.ascii	"pal_default_config\000"
 3751      64656661 
 3751      756C745F 
 3751      636F6E66 
 3751      696700
 3752              	.LASF196:
 3753 028a 715F6C69 		.ascii	"q_link\000"
 3753      6E6B00
 3754              	.LASF3:
 3755 0291 7369676E 		.ascii	"signed char\000"
 3755      65642063 
 3755      68617200 
 3756              	.LASF147:
 3757 029d 65776D61 		.ascii	"ewmask\000"
 3757      736B00
 3758              	.LASF16:
 3759 02a4 75696E74 		.ascii	"uint8_t\000"
 3759      385F7400 
 3760              	.LASF27:
 3761 02ac 6576656E 		.ascii	"eventmask_t\000"
 3761      746D6173 
 3761      6B5F7400 
 3762              	.LASF127:
 3763 02b8 636F6E74 		.ascii	"context\000"
 3763      65787400 
 3764              	.LASF144:
 3765 02c0 77747472 		.ascii	"wttrp\000"
 3765      7000
 3766              	.LASF252:
 3767 02c6 70776D63 		.ascii	"pwmcnt_t\000"
 3767      6E745F74 
 3767      00
 3768              	.LASF84:
 3769 02cf 52455345 		.ascii	"RESERVED0\000"
 3769      52564544 
 3769      3000
 3770              	.LASF6:
 3771 02d9 756E7369 		.ascii	"unsigned char\000"
 3771      676E6564 
 3771      20636861 
 3771      7200
 3772              	.LASF90:
 3773 02e7 52455345 		.ascii	"RESERVED3\000"
 3773      52564544 
 3773      3300
 3774              	.LASF92:
 3775 02f1 52455345 		.ascii	"RESERVED4\000"
 3775      52564544 
 3775      3400
 3776              	.LASF93:
 3777 02fb 52455345 		.ascii	"RESERVED5\000"
 3777      52564544 
 3777      3500
 3778              	.LASF217:
 3779 0305 73746D33 		.ascii	"stm32_gpio_t\000"
 3779      325F6770 
 3779      696F5F74 
ARM GAS  /var/folders/qd/4mxf5pkd0zdf0b9dd1hp39180000gn/T//ccOenxqv.s 			page 70


 3779      00
 3780              	.LASF289:
 3781 0312 73706963 		.ascii	"spicallback_t\000"
 3781      616C6C62 
 3781      61636B5F 
 3781      7400
 3782              	.LASF228:
 3783 0320 50444461 		.ascii	"PDData\000"
 3783      746100
 3784              	.LASF76:
 3785 0327 70616E69 		.ascii	"panic_msg\000"
 3785      635F6D73 
 3785      6700
 3786              	.LASF91:
 3787 0331 49414252 		.ascii	"IABR\000"
 3787      00
 3788              	.LASF60:
 3789 0336 725F6E65 		.ascii	"r_newer\000"
 3789      77657200 
 3790              	.LASF74:
 3791 033e 73797374 		.ascii	"system_debug_t\000"
 3791      656D5F64 
 3791      65627567 
 3791      5F7400
 3792              	.LASF260:
 3793 034d 53445F55 		.ascii	"SD_UNINIT\000"
 3793      4E494E49 
 3793      5400
 3794              	.LASF207:
 3795 0357 5F426F6F 		.ascii	"_Bool\000"
 3795      6C00
 3796              	.LASF88:
 3797 035d 52455345 		.ascii	"RESERVED2\000"
 3797      52564544 
 3797      3200
 3798              	.LASF131:
 3799 0367 43434D52 		.ascii	"CCMR1\000"
 3799      3100
 3800              	.LASF132:
 3801 036d 43434D52 		.ascii	"CCMR2\000"
 3801      3200
 3802              	.LASF136:
 3803 0373 43434D52 		.ascii	"CCMR3\000"
 3803      3300
 3804              	.LASF155:
 3805 0379 63686172 		.ascii	"char\000"
 3805      00
 3806              	.LASF110:
 3807 037e 5343425F 		.ascii	"SCB_Type\000"
 3807      54797065 
 3807      00
 3808              	.LASF218:
 3809 0387 6D6F6465 		.ascii	"moder\000"
 3809      7200
 3810              	.LASF202:
 3811 038d 69736869 		.ascii	"ishift\000"
 3811      667400
ARM GAS  /var/folders/qd/4mxf5pkd0zdf0b9dd1hp39180000gn/T//ccOenxqv.s 			page 71


 3812              	.LASF103:
 3813 0394 44465352 		.ascii	"DFSR\000"
 3813      00
 3814              	.LASF34:
 3815 0399 705F7072 		.ascii	"p_prio\000"
 3815      696F00
 3816              	.LASF282:
 3817 03a0 53504944 		.ascii	"SPIDriver\000"
 3817      72697665 
 3817      7200
 3818              	.LASF8:
 3819 03aa 5F5F7569 		.ascii	"__uint16_t\000"
 3819      6E743136 
 3819      5F7400
 3820              	.LASF296:
 3821 03b5 6E766963 		.ascii	"nvicClearPending\000"
 3821      436C6561 
 3821      7250656E 
 3821      64696E67 
 3821      00
 3822              	.LASF143:
 3823 03c6 77746F62 		.ascii	"wtobjp\000"
 3823      6A7000
 3824              	.LASF102:
 3825 03cd 48465352 		.ascii	"HFSR\000"
 3825      00
 3826              	.LASF165:
 3827 03d2 63665F6F 		.ascii	"cf_off_newer\000"
 3827      66665F6E 
 3827      65776572 
 3827      00
 3828              	.LASF273:
 3829 03df 67657474 		.ascii	"gett\000"
 3829      00
 3830              	.LASF126:
 3831 03e4 73746B61 		.ascii	"stkalign_t\000"
 3831      6C69676E 
 3831      5F7400
 3832              	.LASF124:
 3833 03ef 55534152 		.ascii	"USART_TypeDef\000"
 3833      545F5479 
 3833      70654465 
 3833      6600
 3834              	.LASF87:
 3835 03fd 49535052 		.ascii	"ISPR\000"
 3835      00
 3836              	.LASF200:
 3837 0402 73747265 		.ascii	"stream\000"
 3837      616D00
 3838              	.LASF177:
 3839 0409 6576656E 		.ascii	"event_listener_t\000"
 3839      745F6C69 
 3839      7374656E 
 3839      65725F74 
 3839      00
 3840              	.LASF137:
 3841 041a 43435852 		.ascii	"CCXR\000"
ARM GAS  /var/folders/qd/4mxf5pkd0zdf0b9dd1hp39180000gn/T//ccOenxqv.s 			page 72


 3841      00
 3842              	.LASF100:
 3843 041f 53484353 		.ascii	"SHCSR\000"
 3843      5200
 3844              	.LASF249:
 3845 0425 70776D6D 		.ascii	"pwmmode_t\000"
 3845      6F64655F 
 3845      7400
 3846              	.LASF29:
 3847 042f 636E745F 		.ascii	"cnt_t\000"
 3847      7400
 3848              	.LASF94:
 3849 0435 53544952 		.ascii	"STIR\000"
 3849      00
 3850              	.LASF295:
 3851 043a 53504944 		.ascii	"SPID2\000"
 3851      3200
 3852              	.LASF69:
 3853 0440 76745F66 		.ascii	"vt_func\000"
 3853      756E6300 
 3854              	.LASF45:
 3855 0448 705F6570 		.ascii	"p_epending\000"
 3855      656E6469 
 3855      6E6700
 3856              	.LASF146:
 3857 0453 77746D74 		.ascii	"wtmtxp\000"
 3857      787000
 3858              	.LASF56:
 3859 045a 63685F72 		.ascii	"ch_ready_list\000"
 3859      65616479 
 3859      5F6C6973 
 3859      7400
 3860              	.LASF208:
 3861 0468 636C6561 		.ascii	"clear\000"
 3861      7200
 3862              	.LASF220:
 3863 046e 6F737065 		.ascii	"ospeedr\000"
 3863      65647200 
 3864              	.LASF227:
 3865 0476 50434461 		.ascii	"PCData\000"
 3865      746100
 3866              	.LASF185:
 3867 047d 65735F6E 		.ascii	"es_next\000"
 3867      65787400 
 3868              	.LASF190:
 3869 0485 715F636F 		.ascii	"q_counter\000"
 3869      756E7465 
 3869      7200
 3870              	.LASF245:
 3871 048f 656E6162 		.ascii	"enabled\000"
 3871      6C656400 
 3872              	.LASF223:
 3873 0497 61667268 		.ascii	"afrh\000"
 3873      00
 3874              	.LASF14:
 3875 049c 5F5F7569 		.ascii	"__uint64_t\000"
 3875      6E743634 
ARM GAS  /var/folders/qd/4mxf5pkd0zdf0b9dd1hp39180000gn/T//ccOenxqv.s 			page 73


 3875      5F7400
 3876              	.LASF13:
 3877 04a7 6C6F6E67 		.ascii	"long unsigned int\000"
 3877      20756E73 
 3877      69676E65 
 3877      6420696E 
 3877      7400
 3878              	.LASF157:
 3879 04b9 63685F7A 		.ascii	"ch_zero\000"
 3879      65726F00 
 3880              	.LASF130:
 3881 04c1 44494552 		.ascii	"DIER\000"
 3881      00
 3882              	.LASF219:
 3883 04c6 6F747970 		.ascii	"otyper\000"
 3883      657200
 3884              	.LASF112:
 3885 04cd 53797374 		.ascii	"SystemCoreClock\000"
 3885      656D436F 
 3885      7265436C 
 3885      6F636B00 
 3886              	.LASF148:
 3887 04dd 63685F73 		.ascii	"ch_semaphore\000"
 3887      656D6170 
 3887      686F7265 
 3887      00
 3888              	.LASF51:
 3889 04ea 63685F74 		.ascii	"ch_thread\000"
 3889      68726561 
 3889      6400
 3890              	.LASF71:
 3891 04f4 76697274 		.ascii	"virtual_timers_list_t\000"
 3891      75616C5F 
 3891      74696D65 
 3891      72735F6C 
 3891      6973745F 
 3892              	.LASF297:
 3893 050a 6E766963 		.ascii	"nvicSetSystemHandlerPriority\000"
 3893      53657453 
 3893      79737465 
 3893      6D48616E 
 3893      646C6572 
 3894              	.LASF206:
 3895 0527 5F73746D 		.ascii	"_stm32_dma_streams\000"
 3895      33325F64 
 3895      6D615F73 
 3895      74726561 
 3895      6D7300
 3896              	.LASF179:
 3897 053a 656C5F6E 		.ascii	"el_next\000"
 3897      65787400 
 3898              	.LASF64:
 3899 0542 76697274 		.ascii	"virtual_timer_t\000"
 3899      75616C5F 
 3899      74696D65 
 3899      725F7400 
 3900              	.LASF302:
ARM GAS  /var/folders/qd/4mxf5pkd0zdf0b9dd1hp39180000gn/T//ccOenxqv.s 			page 74


 3901 0552 2E2E2F2E 		.ascii	"../../../os/hal/ports/common/ARMCMx/nvic.c\000"
 3901      2E2F2E2E 
 3901      2F6F732F 
 3901      68616C2F 
 3901      706F7274 
 3902              	.LASF193:
 3903 057d 715F7772 		.ascii	"q_wrptr\000"
 3903      70747200 
 3904              	.LASF214:
 3905 0585 4C434B52 		.ascii	"LCKR\000"
 3905      00
 3906              	.LASF138:
 3907 058a 73746D33 		.ascii	"stm32_tim_t\000"
 3907      325F7469 
 3907      6D5F7400 
 3908              	.LASF233:
 3909 0596 50494461 		.ascii	"PIData\000"
 3909      746100
 3910              	.LASF247:
 3911 059d 636C6F63 		.ascii	"clock\000"
 3911      6B00
 3912              	.LASF52:
 3913 05a3 63685F74 		.ascii	"ch_threads_list\000"
 3913      68726561 
 3913      64735F6C 
 3913      69737400 
 3914              	.LASF268:
 3915 05b3 75736172 		.ascii	"usart\000"
 3915      7400
 3916              	.LASF221:
 3917 05b9 70757064 		.ascii	"pupdr\000"
 3917      7200
 3918              	.LASF211:
 3919 05bf 4F535045 		.ascii	"OSPEEDR\000"
 3919      45445200 
 3920              	.LASF301:
 3921 05c7 474E5520 		.ascii	"GNU C11 7.2.1 20170904 (release) [ARM/embedded-7-br"
 3921      43313120 
 3921      372E322E 
 3921      31203230 
 3921      31373039 
 3922 05fa 616E6368 		.ascii	"anch revision 255204] -mcpu=cortex-m4 -mno-thumb-in"
 3922      20726576 
 3922      6973696F 
 3922      6E203235 
 3922      35323034 
 3923 062d 74657277 		.ascii	"terwork -mthumb -ggdb -O2 -fomit-frame-pointer -fal"
 3923      6F726B20 
 3923      2D6D7468 
 3923      756D6220 
 3923      2D676764 
 3924 0660 69676E2D 		.ascii	"ign-functions=16 -ffunction-sections -fdata-section"
 3924      66756E63 
 3924      74696F6E 
 3924      733D3136 
 3924      202D6666 
 3925 0693 73202D66 		.ascii	"s -fno-common\000"
ARM GAS  /var/folders/qd/4mxf5pkd0zdf0b9dd1hp39180000gn/T//ccOenxqv.s 			page 75


 3925      6E6F2D63 
 3925      6F6D6D6F 
 3925      6E00
 3926              	.LASF172:
 3927 06a1 63665F6F 		.ascii	"cf_off_preempt\000"
 3927      66665F70 
 3927      7265656D 
 3927      707400
 3928              	.LASF285:
 3929 06b0 646D6172 		.ascii	"dmarx\000"
 3929      7800
 3930              	.LASF12:
 3931 06b6 5F5F7569 		.ascii	"__uint32_t\000"
 3931      6E743332 
 3931      5F7400
 3932              	.LASF278:
 3933 06c1 5350495F 		.ascii	"SPI_READY\000"
 3933      52454144 
 3933      5900
 3934              	.LASF1:
 3935 06cb 6C6F6E67 		.ascii	"long long int\000"
 3935      206C6F6E 
 3935      6720696E 
 3935      7400
 3936              	.LASF159:
 3937 06d9 63685F76 		.ascii	"ch_version\000"
 3937      65727369 
 3937      6F6E00
 3938              	.LASF152:
 3939 06e4 6D5F7175 		.ascii	"m_queue\000"
 3939      65756500 
 3940              	.LASF66:
 3941 06ec 76745F6E 		.ascii	"vt_next\000"
 3941      65787400 
 3942              	.LASF67:
 3943 06f4 76745F70 		.ascii	"vt_prev\000"
 3943      72657600 
 3944              	.LASF123:
 3945 06fc 47545052 		.ascii	"GTPR\000"
 3945      00
 3946              	.LASF298:
 3947 0701 68616E64 		.ascii	"handler\000"
 3947      6C657200 
 3948              	.LASF186:
 3949 0709 6576656E 		.ascii	"event_source_t\000"
 3949      745F736F 
 3949      75726365 
 3949      5F7400
 3950              	.LASF269:
 3951 0718 53657269 		.ascii	"SerialDriverVMT\000"
 3951      616C4472 
 3951      69766572 
 3951      564D5400 
 3952              	.LASF284:
 3953 0728 6D757465 		.ascii	"mutex\000"
 3953      7800
 3954              	.LASF111:
ARM GAS  /var/folders/qd/4mxf5pkd0zdf0b9dd1hp39180000gn/T//ccOenxqv.s 			page 76


 3955 072e 49544D5F 		.ascii	"ITM_RxBuffer\000"
 3955      52784275 
 3955      66666572 
 3955      00
 3956              	.LASF118:
 3957 073b 52584352 		.ascii	"RXCRCR\000"
 3957      435200
 3958              	.LASF256:
 3959 0742 66726571 		.ascii	"frequency\000"
 3959      75656E63 
 3959      7900
 3960              	.LASF226:
 3961 074c 50424461 		.ascii	"PBData\000"
 3961      746100
 3962              	.LASF287:
 3963 0753 7278646D 		.ascii	"rxdmamode\000"
 3963      616D6F64 
 3963      6500
 3964              	.LASF197:
 3965 075d 716E6F74 		.ascii	"qnotify_t\000"
 3965      6966795F 
 3965      7400
 3966              	.LASF42:
 3967 0767 705F7761 		.ascii	"p_waiting\000"
 3967      6974696E 
 3967      6700
 3968              	.LASF265:
 3969 0771 6576656E 		.ascii	"event\000"
 3969      7400
 3970              	.LASF286:
 3971 0777 646D6174 		.ascii	"dmatx\000"
 3971      7800
 3972              	.LASF209:
 3973 077d 4D4F4445 		.ascii	"MODER\000"
 3973      5200
 3974              	.LASF40:
 3975 0783 705F666C 		.ascii	"p_flags\000"
 3975      61677300 
 3976              	.LASF271:
 3977 078b 72656164 		.ascii	"read\000"
 3977      00
 3978              	.LASF82:
 3979 0790 69646C65 		.ascii	"idle_thread_wa\000"
 3979      5F746872 
 3979      6561645F 
 3979      776100
 3980              	.LASF0:
 3981 079f 756E7369 		.ascii	"unsigned int\000"
 3981      676E6564 
 3981      20696E74 
 3981      00
 3982              	.LASF293:
 3983 07ac 53504943 		.ascii	"SPIConfig\000"
 3983      6F6E6669 
 3983      6700
 3984              	.LASF279:
 3985 07b6 5350495F 		.ascii	"SPI_ACTIVE\000"
ARM GAS  /var/folders/qd/4mxf5pkd0zdf0b9dd1hp39180000gn/T//ccOenxqv.s 			page 77


 3985      41435449 
 3985      564500
 3986              	.LASF21:
 3987 07c1 7274636E 		.ascii	"rtcnt_t\000"
 3987      745F7400 
 3988              	.LASF48:
 3989 07c9 705F6D70 		.ascii	"p_mpool\000"
 3989      6F6F6C00 
 3990              	.LASF246:
 3991 07d1 6368616E 		.ascii	"channels\000"
 3991      6E656C73 
 3991      00
 3992              	.LASF41:
 3993 07da 705F7265 		.ascii	"p_refs\000"
 3993      667300
 3994              	.LASF161:
 3995 07e1 63685F74 		.ascii	"ch_timesize\000"
 3995      696D6573 
 3995      697A6500 
 3996              	.LASF183:
 3997 07ed 656C5F77 		.ascii	"el_wflags\000"
 3997      666C6167 
 3997      7300
 3998              	.LASF248:
 3999 07f7 70776D63 		.ascii	"pwmcallback_t\000"
 3999      616C6C62 
 3999      61636B5F 
 3999      7400
 4000              	.LASF181:
 4001 0805 656C5F65 		.ascii	"el_events\000"
 4001      76656E74 
 4001      7300
 4002              	.LASF241:
 4003 080f 50574D44 		.ascii	"PWMDriver\000"
 4003      72697665 
 4003      7200
 4004              	.LASF139:
 4005 0819 6F666673 		.ascii	"offset\000"
 4005      657400
 4006              	.LASF232:
 4007 0820 50484461 		.ascii	"PHData\000"
 4007      746100
 4008              	.LASF116:
 4009 0827 444D415F 		.ascii	"DMA_Stream_TypeDef\000"
 4009      53747265 
 4009      616D5F54 
 4009      79706544 
 4009      656600
 4010              	.LASF171:
 4011 083a 63665F6F 		.ascii	"cf_off_refs\000"
 4011      66665F72 
 4011      65667300 
 4012              	.LASF222:
 4013 0846 6166726C 		.ascii	"afrl\000"
 4013      00
 4014              	.LASF31:
 4015 084b 74687265 		.ascii	"thread_t\000"
ARM GAS  /var/folders/qd/4mxf5pkd0zdf0b9dd1hp39180000gn/T//ccOenxqv.s 			page 78


 4015      61645F74 
 4015      00
 4016              	.LASF2:
 4017 0854 6C6F6E67 		.ascii	"long double\000"
 4017      20646F75 
 4017      626C6500 
 4018              	.LASF300:
 4019 0860 6E766963 		.ascii	"nvicDisableVector\000"
 4019      44697361 
 4019      626C6556 
 4019      6563746F 
 4019      7200
 4020              	.LASF49:
 4021 0872 74687265 		.ascii	"thread_reference_t\000"
 4021      61645F72 
 4021      65666572 
 4021      656E6365 
 4021      5F7400
 4022              	.LASF47:
 4023 0885 705F7265 		.ascii	"p_realprio\000"
 4023      616C7072 
 4023      696F00
 4024              	.LASF128:
 4025 0890 706F7274 		.ascii	"port_intctx\000"
 4025      5F696E74 
 4025      63747800 
 4026              	.LASF173:
 4027 089c 63665F6F 		.ascii	"cf_off_time\000"
 4027      66665F74 
 4027      696D6500 
 4028              	.LASF68:
 4029 08a8 76745F64 		.ascii	"vt_delta\000"
 4029      656C7461 
 4029      00
 4030              	.LASF65:
 4031 08b1 63685F76 		.ascii	"ch_virtual_timer\000"
 4031      69727475 
 4031      616C5F74 
 4031      696D6572 
 4031      00
 4032              	.LASF105:
 4033 08c2 42464152 		.ascii	"BFAR\000"
 4033      00
 4034              	.LASF150:
 4035 08c7 735F636E 		.ascii	"s_cnt\000"
 4035      7400
 4036              	.LASF95:
 4037 08cd 4E564943 		.ascii	"NVIC_Type\000"
 4037      5F547970 
 4037      6500
 4038              	.LASF203:
 4039 08d7 73656C66 		.ascii	"selfindex\000"
 4039      696E6465 
 4039      7800
 4040              	.LASF15:
 4041 08e1 6C6F6E67 		.ascii	"long long unsigned int\000"
 4041      206C6F6E 
ARM GAS  /var/folders/qd/4mxf5pkd0zdf0b9dd1hp39180000gn/T//ccOenxqv.s 			page 79


 4041      6720756E 
 4041      7369676E 
 4041      65642069 
 4042              	.LASF238:
 4043 08f8 50574D5F 		.ascii	"PWM_STOP\000"
 4043      53544F50 
 4043      00
 4044              	.LASF225:
 4045 0901 50414461 		.ascii	"PAData\000"
 4045      746100
 4046              	.LASF37:
 4047 0908 705F6F6C 		.ascii	"p_older\000"
 4047      64657200 
 4048              	.LASF17:
 4049 0910 75696E74 		.ascii	"uint16_t\000"
 4049      31365F74 
 4049      00
 4050              	.LASF26:
 4051 0919 6D73675F 		.ascii	"msg_t\000"
 4051      7400
 4052              	.LASF54:
 4053 091f 63685F74 		.ascii	"ch_threads_queue\000"
 4053      68726561 
 4053      64735F71 
 4053      75657565 
 4053      00
 4054              	.LASF28:
 4055 0930 6576656E 		.ascii	"eventflags_t\000"
 4055      74666C61 
 4055      67735F74 
 4055      00
 4056              	.LASF170:
 4057 093d 63665F6F 		.ascii	"cf_off_flags\000"
 4057      66665F66 
 4057      6C616773 
 4057      00
 4058              	.LASF133:
 4059 094a 43434552 		.ascii	"CCER\000"
 4059      00
 4060              	.LASF62:
 4061 094f 725F6375 		.ascii	"r_current\000"
 4061      7272656E 
 4061      7400
 4062              	.LASF216:
 4063 0959 41465248 		.ascii	"AFRH\000"
 4063      00
 4064              	.LASF215:
 4065 095e 4146524C 		.ascii	"AFRL\000"
 4065      00
 4066              	.LASF204:
 4067 0963 76656374 		.ascii	"vector\000"
 4067      6F7200
 4068              	.LASF55:
 4069 096a 72656164 		.ascii	"ready_list_t\000"
 4069      795F6C69 
 4069      73745F74 
 4069      00
ARM GAS  /var/folders/qd/4mxf5pkd0zdf0b9dd1hp39180000gn/T//ccOenxqv.s 			page 80


 4070              	.LASF81:
 4071 0977 6D61696E 		.ascii	"mainthread\000"
 4071      74687265 
 4071      616400
 4072              	.LASF85:
 4073 0982 49434552 		.ascii	"ICER\000"
 4073      00
 4074              	.LASF129:
 4075 0987 534D4352 		.ascii	"SMCR\000"
 4075      00
 4076              	.LASF244:
 4077 098c 70657269 		.ascii	"period\000"
 4077      6F6400
 4078              	.LASF57:
 4079 0993 725F7175 		.ascii	"r_queue\000"
 4079      65756500 
 4080              	.LASF264:
 4081 099b 53657269 		.ascii	"SerialDriver\000"
 4081      616C4472 
 4081      69766572 
 4081      00
 4082              	.LASF106:
 4083 09a8 41465352 		.ascii	"AFSR\000"
 4083      00
 4084              	.LASF210:
 4085 09ad 4F545950 		.ascii	"OTYPER\000"
 4085      455200
 4086              	.LASF231:
 4087 09b4 50474461 		.ascii	"PGData\000"
 4087      746100
 4088              	.LASF189:
 4089 09bb 715F7761 		.ascii	"q_waiting\000"
 4089      6974696E 
 4089      6700
 4090              	.LASF119:
 4091 09c5 54584352 		.ascii	"TXCRCR\000"
 4091      435200
 4092              	.LASF122:
 4093 09cc 5350495F 		.ascii	"SPI_TypeDef\000"
 4093      54797065 
 4093      44656600 
 4094              	.LASF101:
 4095 09d8 43465352 		.ascii	"CFSR\000"
 4095      00
 4096              	.LASF79:
 4097 09dd 726C6973 		.ascii	"rlist\000"
 4097      7400
 4098              	.LASF22:
 4099 09e3 746D6F64 		.ascii	"tmode_t\000"
 4099      655F7400 
 4100              	.LASF117:
 4101 09eb 43524350 		.ascii	"CRCPR\000"
 4101      5200
 4102              	.LASF263:
 4103 09f1 73647374 		.ascii	"sdstate_t\000"
 4103      6174655F 
 4103      7400
ARM GAS  /var/folders/qd/4mxf5pkd0zdf0b9dd1hp39180000gn/T//ccOenxqv.s 			page 81


 4104              	.LASF262:
 4105 09fb 53445F52 		.ascii	"SD_READY\000"
 4105      45414459 
 4105      00
 4106              	.LASF61:
 4107 0a04 725F6F6C 		.ascii	"r_older\000"
 4107      64657200 
 4108              	.LASF140:
 4109 0a0c 746D5F63 		.ascii	"tm_calibration_t\000"
 4109      616C6962 
 4109      72617469 
 4109      6F6E5F74 
 4109      00
 4110              	.LASF283:
 4111 0a1d 74687265 		.ascii	"thread\000"
 4111      616400
 4112              	.LASF114:
 4113 0a24 4D304152 		.ascii	"M0AR\000"
 4113      00
 4114              	.LASF149:
 4115 0a29 735F7175 		.ascii	"s_queue\000"
 4115      65756500 
 4116              	.LASF107:
 4117 0a31 4D4D4652 		.ascii	"MMFR\000"
 4117      00
 4118              	.LASF239:
 4119 0a36 50574D5F 		.ascii	"PWM_READY\000"
 4119      52454144 
 4119      5900
 4120              	.LASF104:
 4121 0a40 4D4D4641 		.ascii	"MMFAR\000"
 4121      5200
 4122              	.LASF7:
 4123 0a46 73686F72 		.ascii	"short int\000"
 4123      7420696E 
 4123      7400
 4124              	.LASF184:
 4125 0a50 6576656E 		.ascii	"event_source\000"
 4125      745F736F 
 4125      75726365 
 4125      00
 4126              	.LASF20:
 4127 0a5d 75696E74 		.ascii	"uint64_t\000"
 4127      36345F74 
 4127      00
 4128              	.LASF253:
 4129 0a66 6D6F6465 		.ascii	"mode\000"
 4129      00
 4130              	.LASF151:
 4131 0a6b 63685F6D 		.ascii	"ch_mutex\000"
 4131      75746578 
 4131      00
 4132              	.LASF266:
 4133 0a74 69717565 		.ascii	"iqueue\000"
 4133      756500
 4134              	.LASF108:
 4135 0a7b 49534152 		.ascii	"ISAR\000"
ARM GAS  /var/folders/qd/4mxf5pkd0zdf0b9dd1hp39180000gn/T//ccOenxqv.s 			page 82


 4135      00
 4136              	.LASF58:
 4137 0a80 725F7072 		.ascii	"r_prio\000"
 4137      696F00
 4138              	.LASF75:
 4139 0a87 63685F73 		.ascii	"ch_system_debug\000"
 4139      79737465 
 4139      6D5F6465 
 4139      62756700 
 4140              	.LASF166:
 4141 0a97 63665F6F 		.ascii	"cf_off_older\000"
 4141      66665F6F 
 4141      6C646572 
 4141      00
 4142              	.LASF187:
 4143 0aa4 696F5F71 		.ascii	"io_queue_t\000"
 4143      75657565 
 4143      5F7400
 4144              	.LASF213:
 4145 0aaf 42535252 		.ascii	"BSRR\000"
 4145      00
 4146              	.LASF234:
 4147 0ab4 50414C43 		.ascii	"PALConfig\000"
 4147      6F6E6669 
 4147      6700
 4148              	.LASF80:
 4149 0abe 76746C69 		.ascii	"vtlist\000"
 4149      737400
 4150              	.LASF258:
 4151 0ac5 50574D43 		.ascii	"PWMConfig\000"
 4151      6F6E6669 
 4151      6700
 4152              	.LASF176:
 4153 0acf 6D757465 		.ascii	"mutex_t\000"
 4153      785F7400 
 4154              	.LASF24:
 4155 0ad7 74726566 		.ascii	"trefs_t\000"
 4155      735F7400 
 4156              	.LASF168:
 4157 0adf 63665F6F 		.ascii	"cf_off_stklimit\000"
 4157      66665F73 
 4157      746B6C69 
 4157      6D697400 
 4158              	.LASF50:
 4159 0aef 74687265 		.ascii	"threads_list_t\000"
 4159      6164735F 
 4159      6C697374 
 4159      5F7400
 4160              	.LASF259:
 4161 0afe 50574D44 		.ascii	"PWMD4\000"
 4161      3400
 4162              	.LASF78:
 4163 0b04 63685F73 		.ascii	"ch_system\000"
 4163      79737465 
 4163      6D00
 4164              	.LASF240:
 4165 0b0e 70776D73 		.ascii	"pwmstate_t\000"
ARM GAS  /var/folders/qd/4mxf5pkd0zdf0b9dd1hp39180000gn/T//ccOenxqv.s 			page 83


 4165      74617465 
 4165      5F7400
 4166              	.LASF134:
 4167 0b19 42445452 		.ascii	"BDTR\000"
 4167      00
 4168              	.LASF305:
 4169 0b1e 6E766963 		.ascii	"nvicEnableVector\000"
 4169      456E6162 
 4169      6C655665 
 4169      63746F72 
 4169      00
 4170              	.LASF19:
 4171 0b2f 75696E74 		.ascii	"uint32_t\000"
 4171      33325F74 
 4171      00
 4172              	.LASF121:
 4173 0b38 49325350 		.ascii	"I2SPR\000"
 4173      5200
 4174              	.LASF198:
 4175 0b3e 696E7075 		.ascii	"input_queue_t\000"
 4175      745F7175 
 4175      6575655F 
 4175      7400
 4176              	.LASF280:
 4177 0b4c 5350495F 		.ascii	"SPI_COMPLETE\000"
 4177      434F4D50 
 4177      4C455445 
 4177      00
 4178              	.LASF230:
 4179 0b59 50464461 		.ascii	"PFData\000"
 4179      746100
 4180              	.LASF178:
 4181 0b60 6576656E 		.ascii	"event_listener\000"
 4181      745F6C69 
 4181      7374656E 
 4181      657200
 4182              	.LASF141:
 4183 0b6f 7264796D 		.ascii	"rdymsg\000"
 4183      736700
 4184              	.LASF73:
 4185 0b76 76745F6C 		.ascii	"vt_lasttime\000"
 4185      61737474 
 4185      696D6500 
 4186              	.LASF9:
 4187 0b82 73686F72 		.ascii	"short unsigned int\000"
 4187      7420756E 
 4187      7369676E 
 4187      65642069 
 4187      6E7400
 4188              	.LASF109:
 4189 0b95 43504143 		.ascii	"CPACR\000"
 4189      5200
 4190              	.LASF77:
 4191 0b9b 63685F73 		.ascii	"ch_system_t\000"
 4191      79737465 
 4191      6D5F7400 
 4192              	.LASF174:
ARM GAS  /var/folders/qd/4mxf5pkd0zdf0b9dd1hp39180000gn/T//ccOenxqv.s 			page 84


 4193 0ba7 63686465 		.ascii	"chdebug_t\000"
 4193      6275675F 
 4193      7400
 4194              	.LASF281:
 4195 0bb1 73706973 		.ascii	"spistate_t\000"
 4195      74617465 
 4195      5F7400
 4196              	.LASF158:
 4197 0bbc 63685F73 		.ascii	"ch_size\000"
 4197      697A6500 
 4198              	.LASF199:
 4199 0bc4 6F757470 		.ascii	"output_queue_t\000"
 4199      75745F71 
 4199      75657565 
 4199      5F7400
 4200              	.LASF10:
 4201 0bd3 5F5F696E 		.ascii	"__int32_t\000"
 4201      7433325F 
 4201      7400
 4202              	.LASF261:
 4203 0bdd 53445F53 		.ascii	"SD_STOP\000"
 4203      544F5000 
 4204              	.LASF113:
 4205 0be5 4E445452 		.ascii	"NDTR\000"
 4205      00
 4206              	.LASF201:
 4207 0bea 69666372 		.ascii	"ifcr\000"
 4207      00
 4208              	.LASF83:
 4209 0bef 49534552 		.ascii	"ISER\000"
 4209      00
 4210              	.LASF292:
 4211 0bf4 73737061 		.ascii	"sspad\000"
 4211      6400
 4212              	.LASF38:
 4213 0bfa 705F6E61 		.ascii	"p_name\000"
 4213      6D6500
 4214              	.LASF154:
 4215 0c01 6D5F6E65 		.ascii	"m_next\000"
 4215      787400
 4216              	.LASF288:
 4217 0c08 7478646D 		.ascii	"txdmamode\000"
 4217      616D6F64 
 4217      6500
 4218              	.LASF303:
 4219 0c12 2F557365 		.ascii	"/Users/nicolas/Library/Mobile Documents/com~apple~C"
 4219      72732F6E 
 4219      69636F6C 
 4219      61732F4C 
 4219      69627261 
 4220 0c45 6C6F7564 		.ascii	"loudDocs/Projects/Cours/epuck_project/Sources/lib/C"
 4220      446F6373 
 4220      2F50726F 
 4220      6A656374 
 4220      732F436F 
 4221 0c78 68696269 		.ascii	"hibiOS/demos/STM32/RT-STM32F407-DISCOVERY-G++/\000"
 4221      4F532F64 
ARM GAS  /var/folders/qd/4mxf5pkd0zdf0b9dd1hp39180000gn/T//ccOenxqv.s 			page 85


 4221      656D6F73 
 4221      2F53544D 
 4221      33322F52 
 4222              	.LASF44:
 4223 0ca7 705F6D73 		.ascii	"p_msg\000"
 4223      6700
 4224              	.LASF180:
 4225 0cad 656C5F6C 		.ascii	"el_listener\000"
 4225      69737465 
 4225      6E657200 
 4226              	.LASF39:
 4227 0cb9 705F7374 		.ascii	"p_state\000"
 4227      61746500 
 4228              		.ident	"GCC: (GNU Tools for Arm Embedded Processors 7-2017-q4-major) 7.2.1 20170904 (release) [ARM
ARM GAS  /var/folders/qd/4mxf5pkd0zdf0b9dd1hp39180000gn/T//ccOenxqv.s 			page 86


DEFINED SYMBOLS
                            *ABS*:0000000000000000 nvic.c
/var/folders/qd/4mxf5pkd0zdf0b9dd1hp39180000gn/T//ccOenxqv.s:16     .text.nvicEnableVector:0000000000000000 $t
/var/folders/qd/4mxf5pkd0zdf0b9dd1hp39180000gn/T//ccOenxqv.s:24     .text.nvicEnableVector:0000000000000000 nvicEnableVector
/var/folders/qd/4mxf5pkd0zdf0b9dd1hp39180000gn/T//ccOenxqv.s:70     .text.nvicDisableVector:0000000000000000 $t
/var/folders/qd/4mxf5pkd0zdf0b9dd1hp39180000gn/T//ccOenxqv.s:78     .text.nvicDisableVector:0000000000000000 nvicDisableVector
/var/folders/qd/4mxf5pkd0zdf0b9dd1hp39180000gn/T//ccOenxqv.s:116    .text.nvicDisableVector:0000000000000020 $d
/var/folders/qd/4mxf5pkd0zdf0b9dd1hp39180000gn/T//ccOenxqv.s:121    .text.nvicSetSystemHandlerPriority:0000000000000000 $t
/var/folders/qd/4mxf5pkd0zdf0b9dd1hp39180000gn/T//ccOenxqv.s:129    .text.nvicSetSystemHandlerPriority:0000000000000000 nvicSetSystemHandlerPriority
/var/folders/qd/4mxf5pkd0zdf0b9dd1hp39180000gn/T//ccOenxqv.s:152    .text.nvicClearPending:0000000000000000 $t
/var/folders/qd/4mxf5pkd0zdf0b9dd1hp39180000gn/T//ccOenxqv.s:160    .text.nvicClearPending:0000000000000000 nvicClearPending
/var/folders/qd/4mxf5pkd0zdf0b9dd1hp39180000gn/T//ccOenxqv.s:182    .text.nvicClearPending:0000000000000018 $d

NO UNDEFINED SYMBOLS
