ARM GAS  /var/folders/qd/4mxf5pkd0zdf0b9dd1hp39180000gn/T//ccobn3Cb.s 			page 1


   1              		.cpu cortex-m4
   2              		.eabi_attribute 20, 1
   3              		.eabi_attribute 21, 1
   4              		.eabi_attribute 23, 3
   5              		.eabi_attribute 24, 1
   6              		.eabi_attribute 25, 1
   7              		.eabi_attribute 26, 1
   8              		.eabi_attribute 30, 2
   9              		.eabi_attribute 34, 1
  10              		.eabi_attribute 18, 4
  11              		.file	"pal.c"
  12              		.text
  13              	.Ltext0:
  14              		.cfi_sections	.debug_frame
  15              		.section	.text.palReadBus,"ax",%progbits
  16              		.align	1
  17              		.p2align 4,,15
  18              		.global	palReadBus
  19              		.syntax unified
  20              		.thumb
  21              		.thumb_func
  22              		.fpu softvfp
  23              		.type	palReadBus, %function
  24              	palReadBus:
  25              	.LFB260:
  26              		.file 1 "../../../os/hal/src/pal.c"
  27              		.loc 1 65 0
  28              		.cfi_startproc
  29              		@ args = 0, pretend = 0, frame = 0
  30              		@ frame_needed = 0, uses_anonymous_args = 0
  31              		@ link register save eliminated.
  32              	.LVL0:
  33              		.loc 1 69 0
  34 0000 0368     		ldr	r3, [r0]
  35 0002 8268     		ldr	r2, [r0, #8]
  36 0004 1B69     		ldr	r3, [r3, #16]
  37 0006 4068     		ldr	r0, [r0, #4]
  38              	.LVL1:
  39 0008 D340     		lsrs	r3, r3, r2
  40              		.loc 1 70 0
  41 000a 1840     		ands	r0, r0, r3
  42 000c 7047     		bx	lr
  43              		.cfi_endproc
  44              	.LFE260:
  45              		.size	palReadBus, .-palReadBus
  46 000e 00BF     		.section	.text.palWriteBus,"ax",%progbits
  47              		.align	1
  48              		.p2align 4,,15
  49              		.global	palWriteBus
  50              		.syntax unified
  51              		.thumb
  52              		.thumb_func
  53              		.fpu softvfp
  54              		.type	palWriteBus, %function
  55              	palWriteBus:
  56              	.LFB261:
  57              		.loc 1 90 0
ARM GAS  /var/folders/qd/4mxf5pkd0zdf0b9dd1hp39180000gn/T//ccobn3Cb.s 			page 2


  58              		.cfi_startproc
  59              		@ args = 0, pretend = 0, frame = 0
  60              		@ frame_needed = 0, uses_anonymous_args = 0
  61              		@ link register save eliminated.
  62              	.LVL2:
  63 0000 10B4     		push	{r4}
  64              		.cfi_def_cfa_offset 4
  65              		.cfi_offset 4, -4
  66              		.loc 1 94 0
  67 0002 D0E90142 		ldrd	r4, r2, [r0, #4]
  68 0006 24EA0103 		bic	r3, r4, r1
  69 000a 2140     		ands	r1, r1, r4
  70              	.LVL3:
  71 000c 02F11004 		add	r4, r2, #16
  72 0010 A340     		lsls	r3, r3, r4
  73 0012 0068     		ldr	r0, [r0]
  74              	.LVL4:
  75              		.loc 1 95 0
  76 0014 10BC     		pop	{r4}
  77              		.cfi_restore 4
  78              		.cfi_def_cfa_offset 0
  79              		.loc 1 94 0
  80 0016 9140     		lsls	r1, r1, r2
  81 0018 1943     		orrs	r1, r1, r3
  82 001a 8161     		str	r1, [r0, #24]
  83              		.loc 1 95 0
  84 001c 7047     		bx	lr
  85              		.cfi_endproc
  86              	.LFE261:
  87              		.size	palWriteBus, .-palWriteBus
  88 001e 00BF     		.section	.text.palSetBusMode,"ax",%progbits
  89              		.align	1
  90              		.p2align 4,,15
  91              		.global	palSetBusMode
  92              		.syntax unified
  93              		.thumb
  94              		.thumb_func
  95              		.fpu softvfp
  96              		.type	palSetBusMode, %function
  97              	palSetBusMode:
  98              	.LFB262:
  99              		.loc 1 113 0
 100              		.cfi_startproc
 101              		@ args = 0, pretend = 0, frame = 0
 102              		@ frame_needed = 0, uses_anonymous_args = 0
 103              		@ link register save eliminated.
 104              	.LVL5:
 105              		.loc 1 117 0
 106 0000 0A46     		mov	r2, r1
 107 0002 D0E90113 		ldrd	r1, r3, [r0, #4]
 108              	.LVL6:
 109 0006 0068     		ldr	r0, [r0]
 110              	.LVL7:
 111 0008 9940     		lsls	r1, r1, r3
 112 000a FFF7FEBF 		b	_pal_lld_setgroupmode
 113              	.LVL8:
 114              		.cfi_endproc
ARM GAS  /var/folders/qd/4mxf5pkd0zdf0b9dd1hp39180000gn/T//ccobn3Cb.s 			page 3


 115              	.LFE262:
 116              		.size	palSetBusMode, .-palSetBusMode
 117 000e 00BF     		.text
 118              	.Letext0:
 119              		.file 2 "/Applications/Eclipse_e-puck2.app/Contents/Eclipse_e-puck2/Tools/gcc-arm-none-eabi-7-2017
 120              		.file 3 "/Applications/Eclipse_e-puck2.app/Contents/Eclipse_e-puck2/Tools/gcc-arm-none-eabi-7-2017
 121              		.file 4 "/Applications/Eclipse_e-puck2.app/Contents/Eclipse_e-puck2/Tools/gcc-arm-none-eabi-7-2017
 122              		.file 5 "/Applications/Eclipse_e-puck2.app/Contents/Eclipse_e-puck2/Tools/gcc-arm-none-eabi-7-2017
 123              		.file 6 "../../../os/rt/ports/ARMCMx/compilers/GCC/chtypes.h"
 124              		.file 7 "../../../os/rt/include/chsystypes.h"
 125              		.file 8 "../../../os/rt/include/chschd.h"
 126              		.file 9 "../../../os/ext/CMSIS/include/core_cm4.h"
 127              		.file 10 "../../../os/ext/CMSIS/ST/system_stm32f4xx.h"
 128              		.file 11 "../../../os/ext/CMSIS/ST/stm32f407xx.h"
 129              		.file 12 "../../../os/rt/ports/ARMCMx/chcore.h"
 130              		.file 13 "../../../os/rt/ports/ARMCMx/chcore_v7m.h"
 131              		.file 14 "../../../os/hal/ports/STM32/LLD/TIMv1/stm32_tim.h"
 132              		.file 15 "../../../os/rt/include/chtm.h"
 133              		.file 16 "../../../os/rt/include/chsem.h"
 134              		.file 17 "../../../os/rt/include/chmtx.h"
 135              		.file 18 "../../../os/rt/include/chregistry.h"
 136              		.file 19 "../../../os/rt/include/chevents.h"
 137              		.file 20 "../../../os/rt/include/chqueues.h"
 138              		.file 21 "../../../os/hal/ports/STM32/STM32F4xx/stm32_dma.h"
 139              		.file 22 "../../../os/hal/ports/STM32/LLD/GPIOv2/pal_lld.h"
 140              		.file 23 "../../../os/hal/include/pal.h"
 141              		.file 24 "../../../os/hal/include/pwm.h"
 142              		.file 25 "../../../os/hal/ports/STM32/LLD/TIMv1/pwm_lld.h"
 143              		.file 26 "../../../os/hal/include/serial.h"
 144              		.file 27 "../../../os/hal/ports/STM32/LLD/USARTv1/serial_lld.h"
 145              		.file 28 "../../../os/hal/include/spi.h"
 146              		.file 29 "../../../os/hal/ports/STM32/LLD/SPIv1/spi_lld.h"
 147              		.section	.debug_info,"",%progbits
 148              	.Ldebug_info0:
 149 0000 66140000 		.4byte	0x1466
 150 0004 0400     		.2byte	0x4
 151 0006 00000000 		.4byte	.Ldebug_abbrev0
 152 000a 04       		.byte	0x4
 153 000b 01       		.uleb128 0x1
 154 000c 31050000 		.4byte	.LASF278
 155 0010 0C       		.byte	0xc
 156 0011 470B0000 		.4byte	.LASF279
 157 0015 610B0000 		.4byte	.LASF280
 158 0019 00000000 		.4byte	.Ldebug_ranges0+0
 159 001d 00000000 		.4byte	0
 160 0021 00000000 		.4byte	.Ldebug_line0
 161 0025 02       		.uleb128 0x2
 162 0026 04       		.byte	0x4
 163 0027 05       		.byte	0x5
 164 0028 696E7400 		.ascii	"int\000"
 165 002c 03       		.uleb128 0x3
 166 002d 18000000 		.4byte	.LASF4
 167 0031 02       		.byte	0x2
 168 0032 D8       		.byte	0xd8
 169 0033 37000000 		.4byte	0x37
 170 0037 04       		.uleb128 0x4
 171 0038 04       		.byte	0x4
ARM GAS  /var/folders/qd/4mxf5pkd0zdf0b9dd1hp39180000gn/T//ccobn3Cb.s 			page 4


 172 0039 07       		.byte	0x7
 173 003a 06070000 		.4byte	.LASF0
 174 003e 04       		.uleb128 0x4
 175 003f 08       		.byte	0x8
 176 0040 05       		.byte	0x5
 177 0041 35060000 		.4byte	.LASF1
 178 0045 04       		.uleb128 0x4
 179 0046 08       		.byte	0x8
 180 0047 04       		.byte	0x4
 181 0048 C0070000 		.4byte	.LASF2
 182 004c 04       		.uleb128 0x4
 183 004d 01       		.byte	0x1
 184 004e 06       		.byte	0x6
 185 004f 7A020000 		.4byte	.LASF3
 186 0053 03       		.uleb128 0x3
 187 0054 89010000 		.4byte	.LASF5
 188 0058 03       		.byte	0x3
 189 0059 2B       		.byte	0x2b
 190 005a 5E000000 		.4byte	0x5e
 191 005e 04       		.uleb128 0x4
 192 005f 01       		.byte	0x1
 193 0060 08       		.byte	0x8
 194 0061 C5020000 		.4byte	.LASF6
 195 0065 04       		.uleb128 0x4
 196 0066 02       		.byte	0x2
 197 0067 05       		.byte	0x5
 198 0068 83090000 		.4byte	.LASF7
 199 006c 03       		.uleb128 0x3
 200 006d 62030000 		.4byte	.LASF8
 201 0071 03       		.byte	0x3
 202 0072 39       		.byte	0x39
 203 0073 77000000 		.4byte	0x77
 204 0077 04       		.uleb128 0x4
 205 0078 02       		.byte	0x2
 206 0079 07       		.byte	0x7
 207 007a C20A0000 		.4byte	.LASF9
 208 007e 03       		.uleb128 0x3
 209 007f 0D0B0000 		.4byte	.LASF10
 210 0083 03       		.byte	0x3
 211 0084 4D       		.byte	0x4d
 212 0085 89000000 		.4byte	0x89
 213 0089 04       		.uleb128 0x4
 214 008a 04       		.byte	0x4
 215 008b 05       		.byte	0x5
 216 008c D6010000 		.4byte	.LASF11
 217 0090 03       		.uleb128 0x3
 218 0091 20060000 		.4byte	.LASF12
 219 0095 03       		.byte	0x3
 220 0096 4F       		.byte	0x4f
 221 0097 9B000000 		.4byte	0x9b
 222 009b 04       		.uleb128 0x4
 223 009c 04       		.byte	0x4
 224 009d 07       		.byte	0x7
 225 009e 58040000 		.4byte	.LASF13
 226 00a2 03       		.uleb128 0x3
 227 00a3 4D040000 		.4byte	.LASF14
 228 00a7 03       		.byte	0x3
ARM GAS  /var/folders/qd/4mxf5pkd0zdf0b9dd1hp39180000gn/T//ccobn3Cb.s 			page 5


 229 00a8 69       		.byte	0x69
 230 00a9 AD000000 		.4byte	0xad
 231 00ad 04       		.uleb128 0x4
 232 00ae 08       		.byte	0x8
 233 00af 07       		.byte	0x7
 234 00b0 38080000 		.4byte	.LASF15
 235 00b4 03       		.uleb128 0x3
 236 00b5 8D020000 		.4byte	.LASF16
 237 00b9 04       		.byte	0x4
 238 00ba 18       		.byte	0x18
 239 00bb 53000000 		.4byte	0x53
 240 00bf 05       		.uleb128 0x5
 241 00c0 B4000000 		.4byte	0xb4
 242 00c4 03       		.uleb128 0x3
 243 00c5 67080000 		.4byte	.LASF17
 244 00c9 04       		.byte	0x4
 245 00ca 24       		.byte	0x24
 246 00cb 6C000000 		.4byte	0x6c
 247 00cf 03       		.uleb128 0x3
 248 00d0 72000000 		.4byte	.LASF18
 249 00d4 04       		.byte	0x4
 250 00d5 2C       		.byte	0x2c
 251 00d6 7E000000 		.4byte	0x7e
 252 00da 06       		.uleb128 0x6
 253 00db CF000000 		.4byte	0xcf
 254 00df 03       		.uleb128 0x3
 255 00e0 6F0A0000 		.4byte	.LASF19
 256 00e4 04       		.byte	0x4
 257 00e5 30       		.byte	0x30
 258 00e6 90000000 		.4byte	0x90
 259 00ea 06       		.uleb128 0x6
 260 00eb DF000000 		.4byte	0xdf
 261 00ef 03       		.uleb128 0x3
 262 00f0 9A090000 		.4byte	.LASF20
 263 00f4 04       		.byte	0x4
 264 00f5 3C       		.byte	0x3c
 265 00f6 A2000000 		.4byte	0xa2
 266 00fa 03       		.uleb128 0x3
 267 00fb 6C090000 		.4byte	.LASF21
 268 00ff 05       		.byte	0x5
 269 0100 34       		.byte	0x34
 270 0101 37000000 		.4byte	0x37
 271 0105 03       		.uleb128 0x3
 272 0106 28070000 		.4byte	.LASF22
 273 010a 06       		.byte	0x6
 274 010b 45       		.byte	0x45
 275 010c DF000000 		.4byte	0xdf
 276 0110 03       		.uleb128 0x3
 277 0111 1E090000 		.4byte	.LASF23
 278 0115 06       		.byte	0x6
 279 0116 48       		.byte	0x48
 280 0117 B4000000 		.4byte	0xb4
 281 011b 03       		.uleb128 0x3
 282 011c 18020000 		.4byte	.LASF24
 283 0120 06       		.byte	0x6
 284 0121 49       		.byte	0x49
 285 0122 B4000000 		.4byte	0xb4
ARM GAS  /var/folders/qd/4mxf5pkd0zdf0b9dd1hp39180000gn/T//ccobn3Cb.s 			page 6


 286 0126 03       		.uleb128 0x3
 287 0127 280A0000 		.4byte	.LASF25
 288 012b 06       		.byte	0x6
 289 012c 4A       		.byte	0x4a
 290 012d B4000000 		.4byte	0xb4
 291 0131 03       		.uleb128 0x3
 292 0132 50000000 		.4byte	.LASF26
 293 0136 06       		.byte	0x6
 294 0137 4C       		.byte	0x4c
 295 0138 DF000000 		.4byte	0xdf
 296 013c 03       		.uleb128 0x3
 297 013d 70080000 		.4byte	.LASF27
 298 0141 06       		.byte	0x6
 299 0142 4D       		.byte	0x4d
 300 0143 CF000000 		.4byte	0xcf
 301 0147 03       		.uleb128 0x3
 302 0148 9C020000 		.4byte	.LASF28
 303 014c 06       		.byte	0x6
 304 014d 4F       		.byte	0x4f
 305 014e DF000000 		.4byte	0xdf
 306 0152 03       		.uleb128 0x3
 307 0153 87080000 		.4byte	.LASF29
 308 0157 06       		.byte	0x6
 309 0158 50       		.byte	0x50
 310 0159 DF000000 		.4byte	0xdf
 311 015d 03       		.uleb128 0x3
 312 015e DF030000 		.4byte	.LASF30
 313 0162 06       		.byte	0x6
 314 0163 51       		.byte	0x51
 315 0164 CF000000 		.4byte	0xcf
 316 0168 03       		.uleb128 0x3
 317 0169 32000000 		.4byte	.LASF31
 318 016d 07       		.byte	0x7
 319 016e 33       		.byte	0x33
 320 016f DF000000 		.4byte	0xdf
 321 0173 03       		.uleb128 0x3
 322 0174 B7070000 		.4byte	.LASF32
 323 0178 07       		.byte	0x7
 324 0179 3F       		.byte	0x3f
 325 017a 7E010000 		.4byte	0x17e
 326 017e 07       		.uleb128 0x7
 327 017f 9B040000 		.4byte	.LASF52
 328 0183 44       		.byte	0x44
 329 0184 08       		.byte	0x8
 330 0185 C2       		.byte	0xc2
 331 0186 6B020000 		.4byte	0x26b
 332 018a 08       		.uleb128 0x8
 333 018b EA010000 		.4byte	.LASF33
 334 018f 08       		.byte	0x8
 335 0190 C3       		.byte	0xc3
 336 0191 76020000 		.4byte	0x276
 337 0195 00       		.byte	0
 338 0196 08       		.uleb128 0x8
 339 0197 06020000 		.4byte	.LASF34
 340 019b 08       		.byte	0x8
 341 019c C5       		.byte	0xc5
 342 019d 76020000 		.4byte	0x276
ARM GAS  /var/folders/qd/4mxf5pkd0zdf0b9dd1hp39180000gn/T//ccobn3Cb.s 			page 7


 343 01a1 04       		.byte	0x4
 344 01a2 08       		.uleb128 0x8
 345 01a3 51030000 		.4byte	.LASF35
 346 01a7 08       		.byte	0x8
 347 01a8 C7       		.byte	0xc7
 348 01a9 31010000 		.4byte	0x131
 349 01ad 08       		.byte	0x8
 350 01ae 08       		.uleb128 0x8
 351 01af 4A000000 		.4byte	.LASF36
 352 01b3 08       		.byte	0x8
 353 01b4 C8       		.byte	0xc8
 354 01b5 3B060000 		.4byte	0x63b
 355 01b9 0C       		.byte	0xc
 356 01ba 08       		.uleb128 0x8
 357 01bb C5010000 		.4byte	.LASF37
 358 01bf 08       		.byte	0x8
 359 01c0 CA       		.byte	0xca
 360 01c1 76020000 		.4byte	0x276
 361 01c5 10       		.byte	0x10
 362 01c6 08       		.uleb128 0x8
 363 01c7 5F080000 		.4byte	.LASF38
 364 01cb 08       		.byte	0x8
 365 01cc CB       		.byte	0xcb
 366 01cd 76020000 		.4byte	0x276
 367 01d1 14       		.byte	0x14
 368 01d2 08       		.uleb128 0x8
 369 01d3 2F0B0000 		.4byte	.LASF39
 370 01d7 08       		.byte	0x8
 371 01d8 D2       		.byte	0xd2
 372 01d9 D2080000 		.4byte	0x8d2
 373 01dd 18       		.byte	0x18
 374 01de 08       		.uleb128 0x8
 375 01df 080C0000 		.4byte	.LASF40
 376 01e3 08       		.byte	0x8
 377 01e4 DD       		.byte	0xdd
 378 01e5 1B010000 		.4byte	0x11b
 379 01e9 1C       		.byte	0x1c
 380 01ea 08       		.uleb128 0x8
 381 01eb EA060000 		.4byte	.LASF41
 382 01ef 08       		.byte	0x8
 383 01f0 E1       		.byte	0xe1
 384 01f1 10010000 		.4byte	0x110
 385 01f5 1D       		.byte	0x1d
 386 01f6 08       		.uleb128 0x8
 387 01f7 41070000 		.4byte	.LASF42
 388 01fb 08       		.byte	0x8
 389 01fc E6       		.byte	0xe6
 390 01fd 26010000 		.4byte	0x126
 391 0201 1E       		.byte	0x1e
 392 0202 09       		.uleb128 0x9
 393 0203 705F7500 		.ascii	"p_u\000"
 394 0207 08       		.byte	0x8
 395 0208 3101     		.2byte	0x131
 396 020a 0D080000 		.4byte	0x80d
 397 020e 20       		.byte	0x20
 398 020f 0A       		.uleb128 0xa
 399 0210 CE060000 		.4byte	.LASF43
ARM GAS  /var/folders/qd/4mxf5pkd0zdf0b9dd1hp39180000gn/T//ccobn3Cb.s 			page 8


 400 0214 08       		.byte	0x8
 401 0215 3601     		.2byte	0x136
 402 0217 7C020000 		.4byte	0x27c
 403 021b 24       		.byte	0x24
 404 021c 0A       		.uleb128 0xa
 405 021d 61000000 		.4byte	.LASF44
 406 0221 08       		.byte	0x8
 407 0222 3C01     		.2byte	0x13c
 408 0224 A0020000 		.4byte	0x2a0
 409 0228 28       		.byte	0x28
 410 0229 0A       		.uleb128 0xa
 411 022a F60B0000 		.4byte	.LASF45
 412 022e 08       		.byte	0x8
 413 022f 4001     		.2byte	0x140
 414 0231 3C010000 		.4byte	0x13c
 415 0235 30       		.byte	0x30
 416 0236 0A       		.uleb128 0xa
 417 0237 F9030000 		.4byte	.LASF46
 418 023b 08       		.byte	0x8
 419 023c 4601     		.2byte	0x146
 420 023e 47010000 		.4byte	0x147
 421 0242 34       		.byte	0x34
 422 0243 0A       		.uleb128 0xa
 423 0244 31020000 		.4byte	.LASF47
 424 0248 08       		.byte	0x8
 425 0249 4D01     		.2byte	0x14d
 426 024b CC080000 		.4byte	0x8cc
 427 024f 38       		.byte	0x38
 428 0250 0A       		.uleb128 0xa
 429 0251 EB070000 		.4byte	.LASF48
 430 0255 08       		.byte	0x8
 431 0256 5101     		.2byte	0x151
 432 0258 31010000 		.4byte	0x131
 433 025c 3C       		.byte	0x3c
 434 025d 0A       		.uleb128 0xa
 435 025e 30070000 		.4byte	.LASF49
 436 0262 08       		.byte	0x8
 437 0263 5801     		.2byte	0x158
 438 0265 53030000 		.4byte	0x353
 439 0269 40       		.byte	0x40
 440 026a 00       		.byte	0
 441 026b 03       		.uleb128 0x3
 442 026c CC070000 		.4byte	.LASF50
 443 0270 07       		.byte	0x7
 444 0271 44       		.byte	0x44
 445 0272 76020000 		.4byte	0x276
 446 0276 0B       		.uleb128 0xb
 447 0277 04       		.byte	0x4
 448 0278 73010000 		.4byte	0x173
 449 027c 03       		.uleb128 0x3
 450 027d 400A0000 		.4byte	.LASF51
 451 0281 07       		.byte	0x7
 452 0282 49       		.byte	0x49
 453 0283 87020000 		.4byte	0x287
 454 0287 07       		.uleb128 0x7
 455 0288 19050000 		.4byte	.LASF53
 456 028c 04       		.byte	0x4
ARM GAS  /var/folders/qd/4mxf5pkd0zdf0b9dd1hp39180000gn/T//ccobn3Cb.s 			page 9


 457 028d 08       		.byte	0x8
 458 028e B0       		.byte	0xb0
 459 028f A0020000 		.4byte	0x2a0
 460 0293 08       		.uleb128 0x8
 461 0294 EA010000 		.4byte	.LASF33
 462 0298 08       		.byte	0x8
 463 0299 B1       		.byte	0xb1
 464 029a 76020000 		.4byte	0x276
 465 029e 00       		.byte	0
 466 029f 00       		.byte	0
 467 02a0 03       		.uleb128 0x3
 468 02a1 21020000 		.4byte	.LASF54
 469 02a5 07       		.byte	0x7
 470 02a6 50       		.byte	0x50
 471 02a7 AB020000 		.4byte	0x2ab
 472 02ab 07       		.uleb128 0x7
 473 02ac 76080000 		.4byte	.LASF55
 474 02b0 08       		.byte	0x8
 475 02b1 08       		.byte	0x8
 476 02b2 B7       		.byte	0xb7
 477 02b3 D0020000 		.4byte	0x2d0
 478 02b7 08       		.uleb128 0x8
 479 02b8 EA010000 		.4byte	.LASF33
 480 02bc 08       		.byte	0x8
 481 02bd B8       		.byte	0xb8
 482 02be 76020000 		.4byte	0x276
 483 02c2 00       		.byte	0
 484 02c3 08       		.uleb128 0x8
 485 02c4 06020000 		.4byte	.LASF34
 486 02c8 08       		.byte	0x8
 487 02c9 B9       		.byte	0xb9
 488 02ca 76020000 		.4byte	0x276
 489 02ce 04       		.byte	0x4
 490 02cf 00       		.byte	0
 491 02d0 03       		.uleb128 0x3
 492 02d1 E6040000 		.4byte	.LASF56
 493 02d5 07       		.byte	0x7
 494 02d6 57       		.byte	0x57
 495 02d7 DB020000 		.4byte	0x2db
 496 02db 0C       		.uleb128 0xc
 497 02dc 0B040000 		.4byte	.LASF57
 498 02e0 1C       		.byte	0x1c
 499 02e1 08       		.byte	0x8
 500 02e2 9001     		.2byte	0x190
 501 02e4 37030000 		.4byte	0x337
 502 02e8 0A       		.uleb128 0xa
 503 02e9 D8080000 		.4byte	.LASF58
 504 02ed 08       		.byte	0x8
 505 02ee 9101     		.2byte	0x191
 506 02f0 A0020000 		.4byte	0x2a0
 507 02f4 00       		.byte	0
 508 02f5 0A       		.uleb128 0xa
 509 02f6 C3090000 		.4byte	.LASF59
 510 02fa 08       		.byte	0x8
 511 02fb 9201     		.2byte	0x192
 512 02fd 31010000 		.4byte	0x131
 513 0301 08       		.byte	0x8
ARM GAS  /var/folders/qd/4mxf5pkd0zdf0b9dd1hp39180000gn/T//ccobn3Cb.s 			page 10


 514 0302 0A       		.uleb128 0xa
 515 0303 6C000000 		.4byte	.LASF60
 516 0307 08       		.byte	0x8
 517 0308 9401     		.2byte	0x194
 518 030a 3B060000 		.4byte	0x63b
 519 030e 0C       		.byte	0xc
 520 030f 0A       		.uleb128 0xa
 521 0310 06030000 		.4byte	.LASF61
 522 0314 08       		.byte	0x8
 523 0315 9701     		.2byte	0x197
 524 0317 76020000 		.4byte	0x276
 525 031b 10       		.byte	0x10
 526 031c 0A       		.uleb128 0xa
 527 031d 3F090000 		.4byte	.LASF62
 528 0321 08       		.byte	0x8
 529 0322 9801     		.2byte	0x198
 530 0324 76020000 		.4byte	0x276
 531 0328 14       		.byte	0x14
 532 0329 0A       		.uleb128 0xa
 533 032a A6080000 		.4byte	.LASF63
 534 032e 08       		.byte	0x8
 535 032f 9B01     		.2byte	0x19b
 536 0331 76020000 		.4byte	0x276
 537 0335 18       		.byte	0x18
 538 0336 00       		.byte	0
 539 0337 03       		.uleb128 0x3
 540 0338 8C000000 		.4byte	.LASF64
 541 033c 07       		.byte	0x7
 542 033d 5C       		.byte	0x5c
 543 033e 42030000 		.4byte	0x342
 544 0342 0B       		.uleb128 0xb
 545 0343 04       		.byte	0x4
 546 0344 48030000 		.4byte	0x348
 547 0348 0D       		.uleb128 0xd
 548 0349 53030000 		.4byte	0x353
 549 034d 0E       		.uleb128 0xe
 550 034e 53030000 		.4byte	0x353
 551 0352 00       		.byte	0
 552 0353 0F       		.uleb128 0xf
 553 0354 04       		.byte	0x4
 554 0355 03       		.uleb128 0x3
 555 0356 D6040000 		.4byte	.LASF65
 556 035a 07       		.byte	0x7
 557 035b 61       		.byte	0x61
 558 035c 60030000 		.4byte	0x360
 559 0360 0C       		.uleb128 0xc
 560 0361 17080000 		.4byte	.LASF66
 561 0365 14       		.byte	0x14
 562 0366 08       		.byte	0x8
 563 0367 6B01     		.2byte	0x16b
 564 0369 AF030000 		.4byte	0x3af
 565 036d 0A       		.uleb128 0xa
 566 036e 56060000 		.4byte	.LASF67
 567 0372 08       		.byte	0x8
 568 0373 6C01     		.2byte	0x16c
 569 0375 E9080000 		.4byte	0x8e9
 570 0379 00       		.byte	0
ARM GAS  /var/folders/qd/4mxf5pkd0zdf0b9dd1hp39180000gn/T//ccobn3Cb.s 			page 11


 571 037a 0A       		.uleb128 0xa
 572 037b 5E060000 		.4byte	.LASF68
 573 037f 08       		.byte	0x8
 574 0380 6D01     		.2byte	0x16d
 575 0382 E9080000 		.4byte	0x8e9
 576 0386 04       		.byte	0x4
 577 0387 0A       		.uleb128 0xa
 578 0388 0E080000 		.4byte	.LASF69
 579 038c 08       		.byte	0x8
 580 038d 6E01     		.2byte	0x16e
 581 038f 68010000 		.4byte	0x168
 582 0393 08       		.byte	0x8
 583 0394 0A       		.uleb128 0xa
 584 0395 EB030000 		.4byte	.LASF70
 585 0399 08       		.byte	0x8
 586 039a 6F01     		.2byte	0x16f
 587 039c 37030000 		.4byte	0x337
 588 03a0 0C       		.byte	0xc
 589 03a1 0A       		.uleb128 0xa
 590 03a2 6A010000 		.4byte	.LASF71
 591 03a6 08       		.byte	0x8
 592 03a7 7101     		.2byte	0x171
 593 03a9 53030000 		.4byte	0x353
 594 03ad 10       		.byte	0x10
 595 03ae 00       		.byte	0
 596 03af 03       		.uleb128 0x3
 597 03b0 A5040000 		.4byte	.LASF72
 598 03b4 07       		.byte	0x7
 599 03b5 66       		.byte	0x66
 600 03b6 BA030000 		.4byte	0x3ba
 601 03ba 0C       		.uleb128 0xc
 602 03bb 95000000 		.4byte	.LASF73
 603 03bf 10       		.byte	0x10
 604 03c0 08       		.byte	0x8
 605 03c1 7B01     		.2byte	0x17b
 606 03c3 FC030000 		.4byte	0x3fc
 607 03c7 0A       		.uleb128 0xa
 608 03c8 56060000 		.4byte	.LASF67
 609 03cc 08       		.byte	0x8
 610 03cd 7C01     		.2byte	0x17c
 611 03cf E9080000 		.4byte	0x8e9
 612 03d3 00       		.byte	0
 613 03d4 0A       		.uleb128 0xa
 614 03d5 5E060000 		.4byte	.LASF68
 615 03d9 08       		.byte	0x8
 616 03da 7E01     		.2byte	0x17e
 617 03dc E9080000 		.4byte	0x8e9
 618 03e0 04       		.byte	0x4
 619 03e1 0A       		.uleb128 0xa
 620 03e2 0E080000 		.4byte	.LASF69
 621 03e6 08       		.byte	0x8
 622 03e7 8001     		.2byte	0x180
 623 03e9 68010000 		.4byte	0x168
 624 03ed 08       		.byte	0x8
 625 03ee 0A       		.uleb128 0xa
 626 03ef B60A0000 		.4byte	.LASF74
 627 03f3 08       		.byte	0x8
ARM GAS  /var/folders/qd/4mxf5pkd0zdf0b9dd1hp39180000gn/T//ccobn3Cb.s 			page 12


 628 03f4 8801     		.2byte	0x188
 629 03f6 68010000 		.4byte	0x168
 630 03fa 0C       		.byte	0xc
 631 03fb 00       		.byte	0
 632 03fc 03       		.uleb128 0x3
 633 03fd 0E030000 		.4byte	.LASF75
 634 0401 07       		.byte	0x7
 635 0402 6B       		.byte	0x6b
 636 0403 07040000 		.4byte	0x407
 637 0407 0C       		.uleb128 0xc
 638 0408 CA090000 		.4byte	.LASF76
 639 040c 04       		.byte	0x4
 640 040d 08       		.byte	0x8
 641 040e A201     		.2byte	0x1a2
 642 0410 22040000 		.4byte	0x422
 643 0414 0A       		.uleb128 0xa
 644 0415 FC020000 		.4byte	.LASF77
 645 0419 08       		.byte	0x8
 646 041a AA01     		.2byte	0x1aa
 647 041c D8080000 		.4byte	0x8d8
 648 0420 00       		.byte	0
 649 0421 00       		.byte	0
 650 0422 03       		.uleb128 0x3
 651 0423 D50A0000 		.4byte	.LASF78
 652 0427 07       		.byte	0x7
 653 0428 70       		.byte	0x70
 654 0429 2D040000 		.4byte	0x42d
 655 042d 10       		.uleb128 0x10
 656 042e 550A0000 		.4byte	.LASF79
 657 0432 5001     		.2byte	0x150
 658 0434 08       		.byte	0x8
 659 0435 C201     		.2byte	0x1c2
 660 0437 89040000 		.4byte	0x489
 661 043b 0A       		.uleb128 0xa
 662 043c 18090000 		.4byte	.LASF80
 663 0440 08       		.byte	0x8
 664 0441 C601     		.2byte	0x1c6
 665 0443 D0020000 		.4byte	0x2d0
 666 0447 00       		.byte	0
 667 0448 0A       		.uleb128 0xa
 668 0449 010A0000 		.4byte	.LASF81
 669 044d 08       		.byte	0x8
 670 044e CA01     		.2byte	0x1ca
 671 0450 AF030000 		.4byte	0x3af
 672 0454 1C       		.byte	0x1c
 673 0455 09       		.uleb128 0x9
 674 0456 64626700 		.ascii	"dbg\000"
 675 045a 08       		.byte	0x8
 676 045b CE01     		.2byte	0x1ce
 677 045d FC030000 		.4byte	0x3fc
 678 0461 2C       		.byte	0x2c
 679 0462 0A       		.uleb128 0xa
 680 0463 C1080000 		.4byte	.LASF82
 681 0467 08       		.byte	0x8
 682 0468 D201     		.2byte	0x1d2
 683 046a 73010000 		.4byte	0x173
 684 046e 30       		.byte	0x30
ARM GAS  /var/folders/qd/4mxf5pkd0zdf0b9dd1hp39180000gn/T//ccobn3Cb.s 			page 13


 685 046f 09       		.uleb128 0x9
 686 0470 746D00   		.ascii	"tm\000"
 687 0473 08       		.byte	0x8
 688 0474 D701     		.2byte	0x1d7
 689 0476 02080000 		.4byte	0x802
 690 047a 74       		.byte	0x74
 691 047b 0A       		.uleb128 0xa
 692 047c F7060000 		.4byte	.LASF83
 693 0480 08       		.byte	0x8
 694 0481 E301     		.2byte	0x1e3
 695 0483 EF080000 		.4byte	0x8ef
 696 0487 78       		.byte	0x78
 697 0488 00       		.byte	0
 698 0489 11       		.uleb128 0x11
 699 048a 95060000 		.4byte	.LASF84
 700 048e 09       		.byte	0x9
 701 048f A706     		.2byte	0x6a7
 702 0491 DA000000 		.4byte	0xda
 703 0495 12       		.uleb128 0x12
 704 0496 7E040000 		.4byte	.LASF85
 705 049a 0A       		.byte	0xa
 706 049b 4C       		.byte	0x4c
 707 049c DF000000 		.4byte	0xdf
 708 04a0 13       		.uleb128 0x13
 709 04a1 18       		.byte	0x18
 710 04a2 0B       		.byte	0xb
 711 04a3 6B01     		.2byte	0x16b
 712 04a5 F7040000 		.4byte	0x4f7
 713 04a9 09       		.uleb128 0x9
 714 04aa 435200   		.ascii	"CR\000"
 715 04ad 0B       		.byte	0xb
 716 04ae 6D01     		.2byte	0x16d
 717 04b0 EA000000 		.4byte	0xea
 718 04b4 00       		.byte	0
 719 04b5 0A       		.uleb128 0xa
 720 04b6 1F0B0000 		.4byte	.LASF86
 721 04ba 0B       		.byte	0xb
 722 04bb 6E01     		.2byte	0x16e
 723 04bd EA000000 		.4byte	0xea
 724 04c1 04       		.byte	0x4
 725 04c2 09       		.uleb128 0x9
 726 04c3 50415200 		.ascii	"PAR\000"
 727 04c7 0B       		.byte	0xb
 728 04c8 6F01     		.2byte	0x16f
 729 04ca EA000000 		.4byte	0xea
 730 04ce 08       		.byte	0x8
 731 04cf 0A       		.uleb128 0xa
 732 04d0 5F090000 		.4byte	.LASF87
 733 04d4 0B       		.byte	0xb
 734 04d5 7001     		.2byte	0x170
 735 04d7 EA000000 		.4byte	0xea
 736 04db 0C       		.byte	0xc
 737 04dc 0A       		.uleb128 0xa
 738 04dd 00000000 		.4byte	.LASF88
 739 04e1 0B       		.byte	0xb
 740 04e2 7101     		.2byte	0x171
 741 04e4 EA000000 		.4byte	0xea
ARM GAS  /var/folders/qd/4mxf5pkd0zdf0b9dd1hp39180000gn/T//ccobn3Cb.s 			page 14


 742 04e8 10       		.byte	0x10
 743 04e9 09       		.uleb128 0x9
 744 04ea 46435200 		.ascii	"FCR\000"
 745 04ee 0B       		.byte	0xb
 746 04ef 7201     		.2byte	0x172
 747 04f1 EA000000 		.4byte	0xea
 748 04f5 14       		.byte	0x14
 749 04f6 00       		.byte	0
 750 04f7 14       		.uleb128 0x14
 751 04f8 93070000 		.4byte	.LASF89
 752 04fc 0B       		.byte	0xb
 753 04fd 7301     		.2byte	0x173
 754 04ff A0040000 		.4byte	0x4a0
 755 0503 15       		.uleb128 0x15
 756 0504 EA000000 		.4byte	0xea
 757 0508 13050000 		.4byte	0x513
 758 050c 16       		.uleb128 0x16
 759 050d 37000000 		.4byte	0x37
 760 0511 01       		.byte	0x1
 761 0512 00       		.byte	0
 762 0513 06       		.uleb128 0x6
 763 0514 03050000 		.4byte	0x503
 764 0518 15       		.uleb128 0x15
 765 0519 EA000000 		.4byte	0xea
 766 051d 28050000 		.4byte	0x528
 767 0521 16       		.uleb128 0x16
 768 0522 37000000 		.4byte	0x37
 769 0526 03       		.byte	0x3
 770 0527 00       		.byte	0
 771 0528 06       		.uleb128 0x6
 772 0529 18050000 		.4byte	0x518
 773 052d 13       		.uleb128 0x13
 774 052e 24       		.byte	0x24
 775 052f 0B       		.byte	0xb
 776 0530 DB02     		.2byte	0x2db
 777 0532 AA050000 		.4byte	0x5aa
 778 0536 09       		.uleb128 0x9
 779 0537 43523100 		.ascii	"CR1\000"
 780 053b 0B       		.byte	0xb
 781 053c DD02     		.2byte	0x2dd
 782 053e EA000000 		.4byte	0xea
 783 0542 00       		.byte	0
 784 0543 09       		.uleb128 0x9
 785 0544 43523200 		.ascii	"CR2\000"
 786 0548 0B       		.byte	0xb
 787 0549 DE02     		.2byte	0x2de
 788 054b EA000000 		.4byte	0xea
 789 054f 04       		.byte	0x4
 790 0550 09       		.uleb128 0x9
 791 0551 535200   		.ascii	"SR\000"
 792 0554 0B       		.byte	0xb
 793 0555 DF02     		.2byte	0x2df
 794 0557 EA000000 		.4byte	0xea
 795 055b 08       		.byte	0x8
 796 055c 09       		.uleb128 0x9
 797 055d 445200   		.ascii	"DR\000"
 798 0560 0B       		.byte	0xb
ARM GAS  /var/folders/qd/4mxf5pkd0zdf0b9dd1hp39180000gn/T//ccobn3Cb.s 			page 15


 799 0561 E002     		.2byte	0x2e0
 800 0563 EA000000 		.4byte	0xea
 801 0567 0C       		.byte	0xc
 802 0568 0A       		.uleb128 0xa
 803 0569 26090000 		.4byte	.LASF90
 804 056d 0B       		.byte	0xb
 805 056e E102     		.2byte	0x2e1
 806 0570 EA000000 		.4byte	0xea
 807 0574 10       		.byte	0x10
 808 0575 0A       		.uleb128 0xa
 809 0576 A2060000 		.4byte	.LASF91
 810 057a 0B       		.byte	0xb
 811 057b E202     		.2byte	0x2e2
 812 057d EA000000 		.4byte	0xea
 813 0581 14       		.byte	0x14
 814 0582 0A       		.uleb128 0xa
 815 0583 05090000 		.4byte	.LASF92
 816 0587 0B       		.byte	0xb
 817 0588 E302     		.2byte	0x2e3
 818 058a EA000000 		.4byte	0xea
 819 058e 18       		.byte	0x18
 820 058f 0A       		.uleb128 0xa
 821 0590 81010000 		.4byte	.LASF93
 822 0594 0B       		.byte	0xb
 823 0595 E402     		.2byte	0x2e4
 824 0597 EA000000 		.4byte	0xea
 825 059b 1C       		.byte	0x1c
 826 059c 0A       		.uleb128 0xa
 827 059d 780A0000 		.4byte	.LASF94
 828 05a1 0B       		.byte	0xb
 829 05a2 E502     		.2byte	0x2e5
 830 05a4 EA000000 		.4byte	0xea
 831 05a8 20       		.byte	0x20
 832 05a9 00       		.byte	0
 833 05aa 14       		.uleb128 0x14
 834 05ab 0C090000 		.4byte	.LASF95
 835 05af 0B       		.byte	0xb
 836 05b0 E602     		.2byte	0x2e6
 837 05b2 2D050000 		.4byte	0x52d
 838 05b6 13       		.uleb128 0x13
 839 05b7 1C       		.byte	0x1c
 840 05b8 0B       		.byte	0xb
 841 05b9 0903     		.2byte	0x309
 842 05bb 19060000 		.4byte	0x619
 843 05bf 09       		.uleb128 0x9
 844 05c0 535200   		.ascii	"SR\000"
 845 05c3 0B       		.byte	0xb
 846 05c4 0B03     		.2byte	0x30b
 847 05c6 EA000000 		.4byte	0xea
 848 05ca 00       		.byte	0
 849 05cb 09       		.uleb128 0x9
 850 05cc 445200   		.ascii	"DR\000"
 851 05cf 0B       		.byte	0xb
 852 05d0 0C03     		.2byte	0x30c
 853 05d2 EA000000 		.4byte	0xea
 854 05d6 04       		.byte	0x4
 855 05d7 09       		.uleb128 0x9
ARM GAS  /var/folders/qd/4mxf5pkd0zdf0b9dd1hp39180000gn/T//ccobn3Cb.s 			page 16


 856 05d8 42525200 		.ascii	"BRR\000"
 857 05dc 0B       		.byte	0xb
 858 05dd 0D03     		.2byte	0x30d
 859 05df EA000000 		.4byte	0xea
 860 05e3 08       		.byte	0x8
 861 05e4 09       		.uleb128 0x9
 862 05e5 43523100 		.ascii	"CR1\000"
 863 05e9 0B       		.byte	0xb
 864 05ea 0E03     		.2byte	0x30e
 865 05ec EA000000 		.4byte	0xea
 866 05f0 0C       		.byte	0xc
 867 05f1 09       		.uleb128 0x9
 868 05f2 43523200 		.ascii	"CR2\000"
 869 05f6 0B       		.byte	0xb
 870 05f7 0F03     		.2byte	0x30f
 871 05f9 EA000000 		.4byte	0xea
 872 05fd 10       		.byte	0x10
 873 05fe 09       		.uleb128 0x9
 874 05ff 43523300 		.ascii	"CR3\000"
 875 0603 0B       		.byte	0xb
 876 0604 1003     		.2byte	0x310
 877 0606 EA000000 		.4byte	0xea
 878 060a 14       		.byte	0x14
 879 060b 0A       		.uleb128 0xa
 880 060c 66060000 		.4byte	.LASF96
 881 0610 0B       		.byte	0xb
 882 0611 1103     		.2byte	0x311
 883 0613 EA000000 		.4byte	0xea
 884 0617 18       		.byte	0x18
 885 0618 00       		.byte	0
 886 0619 14       		.uleb128 0x14
 887 061a 91030000 		.4byte	.LASF97
 888 061e 0B       		.byte	0xb
 889 061f 1203     		.2byte	0x312
 890 0621 B6050000 		.4byte	0x5b6
 891 0625 03       		.uleb128 0x3
 892 0626 42020000 		.4byte	.LASF98
 893 062a 0C       		.byte	0xc
 894 062b 65       		.byte	0x65
 895 062c 53030000 		.4byte	0x353
 896 0630 03       		.uleb128 0x3
 897 0631 86030000 		.4byte	.LASF99
 898 0635 0C       		.byte	0xc
 899 0636 6D       		.byte	0x6d
 900 0637 EF000000 		.4byte	0xef
 901 063b 07       		.uleb128 0x7
 902 063c A8020000 		.4byte	.LASF100
 903 0640 04       		.byte	0x4
 904 0641 0C       		.byte	0xc
 905 0642 89       		.byte	0x89
 906 0643 54060000 		.4byte	0x654
 907 0647 17       		.uleb128 0x17
 908 0648 72313300 		.ascii	"r13\000"
 909 064c 0C       		.byte	0xc
 910 064d 8A       		.byte	0x8a
 911 064e CF060000 		.4byte	0x6cf
 912 0652 00       		.byte	0
ARM GAS  /var/folders/qd/4mxf5pkd0zdf0b9dd1hp39180000gn/T//ccobn3Cb.s 			page 17


 913 0653 00       		.byte	0
 914 0654 07       		.uleb128 0x7
 915 0655 F6070000 		.4byte	.LASF101
 916 0659 24       		.byte	0x24
 917 065a 0D       		.byte	0xd
 918 065b F4       		.byte	0xf4
 919 065c CF060000 		.4byte	0x6cf
 920 0660 09       		.uleb128 0x9
 921 0661 723400   		.ascii	"r4\000"
 922 0664 0D       		.byte	0xd
 923 0665 0701     		.2byte	0x107
 924 0667 25060000 		.4byte	0x625
 925 066b 00       		.byte	0
 926 066c 09       		.uleb128 0x9
 927 066d 723500   		.ascii	"r5\000"
 928 0670 0D       		.byte	0xd
 929 0671 0801     		.2byte	0x108
 930 0673 25060000 		.4byte	0x625
 931 0677 04       		.byte	0x4
 932 0678 09       		.uleb128 0x9
 933 0679 723600   		.ascii	"r6\000"
 934 067c 0D       		.byte	0xd
 935 067d 0901     		.2byte	0x109
 936 067f 25060000 		.4byte	0x625
 937 0683 08       		.byte	0x8
 938 0684 09       		.uleb128 0x9
 939 0685 723700   		.ascii	"r7\000"
 940 0688 0D       		.byte	0xd
 941 0689 0A01     		.2byte	0x10a
 942 068b 25060000 		.4byte	0x625
 943 068f 0C       		.byte	0xc
 944 0690 09       		.uleb128 0x9
 945 0691 723800   		.ascii	"r8\000"
 946 0694 0D       		.byte	0xd
 947 0695 0B01     		.2byte	0x10b
 948 0697 25060000 		.4byte	0x625
 949 069b 10       		.byte	0x10
 950 069c 09       		.uleb128 0x9
 951 069d 723900   		.ascii	"r9\000"
 952 06a0 0D       		.byte	0xd
 953 06a1 0C01     		.2byte	0x10c
 954 06a3 25060000 		.4byte	0x625
 955 06a7 14       		.byte	0x14
 956 06a8 09       		.uleb128 0x9
 957 06a9 72313000 		.ascii	"r10\000"
 958 06ad 0D       		.byte	0xd
 959 06ae 0D01     		.2byte	0x10d
 960 06b0 25060000 		.4byte	0x625
 961 06b4 18       		.byte	0x18
 962 06b5 09       		.uleb128 0x9
 963 06b6 72313100 		.ascii	"r11\000"
 964 06ba 0D       		.byte	0xd
 965 06bb 0E01     		.2byte	0x10e
 966 06bd 25060000 		.4byte	0x625
 967 06c1 1C       		.byte	0x1c
 968 06c2 09       		.uleb128 0x9
 969 06c3 6C7200   		.ascii	"lr\000"
ARM GAS  /var/folders/qd/4mxf5pkd0zdf0b9dd1hp39180000gn/T//ccobn3Cb.s 			page 18


 970 06c6 0D       		.byte	0xd
 971 06c7 0F01     		.2byte	0x10f
 972 06c9 25060000 		.4byte	0x625
 973 06cd 20       		.byte	0x20
 974 06ce 00       		.byte	0
 975 06cf 0B       		.uleb128 0xb
 976 06d0 04       		.byte	0x4
 977 06d1 54060000 		.4byte	0x654
 978 06d5 13       		.uleb128 0x13
 979 06d6 60       		.byte	0x60
 980 06d7 0E       		.byte	0xe
 981 06d8 9E01     		.2byte	0x19e
 982 06da E1070000 		.4byte	0x7e1
 983 06de 09       		.uleb128 0x9
 984 06df 43523100 		.ascii	"CR1\000"
 985 06e3 0E       		.byte	0xe
 986 06e4 9F01     		.2byte	0x19f
 987 06e6 EA000000 		.4byte	0xea
 988 06ea 00       		.byte	0
 989 06eb 09       		.uleb128 0x9
 990 06ec 43523200 		.ascii	"CR2\000"
 991 06f0 0E       		.byte	0xe
 992 06f1 A001     		.2byte	0x1a0
 993 06f3 EA000000 		.4byte	0xea
 994 06f7 04       		.byte	0x4
 995 06f8 0A       		.uleb128 0xa
 996 06f9 CC080000 		.4byte	.LASF102
 997 06fd 0E       		.byte	0xe
 998 06fe A101     		.2byte	0x1a1
 999 0700 EA000000 		.4byte	0xea
 1000 0704 08       		.byte	0x8
 1001 0705 0A       		.uleb128 0xa
 1002 0706 72040000 		.4byte	.LASF103
 1003 070a 0E       		.byte	0xe
 1004 070b A201     		.2byte	0x1a2
 1005 070d EA000000 		.4byte	0xea
 1006 0711 0C       		.byte	0xc
 1007 0712 09       		.uleb128 0x9
 1008 0713 535200   		.ascii	"SR\000"
 1009 0716 0E       		.byte	0xe
 1010 0717 A301     		.2byte	0x1a3
 1011 0719 EA000000 		.4byte	0xea
 1012 071d 10       		.byte	0x10
 1013 071e 09       		.uleb128 0x9
 1014 071f 45475200 		.ascii	"EGR\000"
 1015 0723 0E       		.byte	0xe
 1016 0724 A401     		.2byte	0x1a4
 1017 0726 EA000000 		.4byte	0xea
 1018 072a 14       		.byte	0x14
 1019 072b 0A       		.uleb128 0xa
 1020 072c 2D030000 		.4byte	.LASF104
 1021 0730 0E       		.byte	0xe
 1022 0731 A501     		.2byte	0x1a5
 1023 0733 EA000000 		.4byte	0xea
 1024 0737 18       		.byte	0x18
 1025 0738 0A       		.uleb128 0xa
 1026 0739 33030000 		.4byte	.LASF105
ARM GAS  /var/folders/qd/4mxf5pkd0zdf0b9dd1hp39180000gn/T//ccobn3Cb.s 			page 19


 1027 073d 0E       		.byte	0xe
 1028 073e A601     		.2byte	0x1a6
 1029 0740 EA000000 		.4byte	0xea
 1030 0744 1C       		.byte	0x1c
 1031 0745 0A       		.uleb128 0xa
 1032 0746 A1080000 		.4byte	.LASF106
 1033 074a 0E       		.byte	0xe
 1034 074b A701     		.2byte	0x1a7
 1035 074d EA000000 		.4byte	0xea
 1036 0751 20       		.byte	0x20
 1037 0752 09       		.uleb128 0x9
 1038 0753 434E5400 		.ascii	"CNT\000"
 1039 0757 0E       		.byte	0xe
 1040 0758 A801     		.2byte	0x1a8
 1041 075a EA000000 		.4byte	0xea
 1042 075e 24       		.byte	0x24
 1043 075f 09       		.uleb128 0x9
 1044 0760 50534300 		.ascii	"PSC\000"
 1045 0764 0E       		.byte	0xe
 1046 0765 A901     		.2byte	0x1a9
 1047 0767 EA000000 		.4byte	0xea
 1048 076b 28       		.byte	0x28
 1049 076c 09       		.uleb128 0x9
 1050 076d 41525200 		.ascii	"ARR\000"
 1051 0771 0E       		.byte	0xe
 1052 0772 AA01     		.2byte	0x1aa
 1053 0774 EA000000 		.4byte	0xea
 1054 0778 2C       		.byte	0x2c
 1055 0779 09       		.uleb128 0x9
 1056 077a 52435200 		.ascii	"RCR\000"
 1057 077e 0E       		.byte	0xe
 1058 077f AB01     		.2byte	0x1ab
 1059 0781 EA000000 		.4byte	0xea
 1060 0785 30       		.byte	0x30
 1061 0786 09       		.uleb128 0x9
 1062 0787 43435200 		.ascii	"CCR\000"
 1063 078b 0E       		.byte	0xe
 1064 078c AC01     		.2byte	0x1ac
 1065 078e 28050000 		.4byte	0x528
 1066 0792 34       		.byte	0x34
 1067 0793 0A       		.uleb128 0xa
 1068 0794 6A0A0000 		.4byte	.LASF107
 1069 0798 0E       		.byte	0xe
 1070 0799 AD01     		.2byte	0x1ad
 1071 079b EA000000 		.4byte	0xea
 1072 079f 44       		.byte	0x44
 1073 07a0 09       		.uleb128 0x9
 1074 07a1 44435200 		.ascii	"DCR\000"
 1075 07a5 0E       		.byte	0xe
 1076 07a6 AE01     		.2byte	0x1ae
 1077 07a8 EA000000 		.4byte	0xea
 1078 07ac 48       		.byte	0x48
 1079 07ad 0A       		.uleb128 0xa
 1080 07ae 12010000 		.4byte	.LASF108
 1081 07b2 0E       		.byte	0xe
 1082 07b3 AF01     		.2byte	0x1af
 1083 07b5 EA000000 		.4byte	0xea
ARM GAS  /var/folders/qd/4mxf5pkd0zdf0b9dd1hp39180000gn/T//ccobn3Cb.s 			page 20


 1084 07b9 4C       		.byte	0x4c
 1085 07ba 09       		.uleb128 0x9
 1086 07bb 4F5200   		.ascii	"OR\000"
 1087 07be 0E       		.byte	0xe
 1088 07bf B001     		.2byte	0x1b0
 1089 07c1 EA000000 		.4byte	0xea
 1090 07c5 50       		.byte	0x50
 1091 07c6 0A       		.uleb128 0xa
 1092 07c7 39030000 		.4byte	.LASF109
 1093 07cb 0E       		.byte	0xe
 1094 07cc B101     		.2byte	0x1b1
 1095 07ce EA000000 		.4byte	0xea
 1096 07d2 54       		.byte	0x54
 1097 07d3 0A       		.uleb128 0xa
 1098 07d4 C3030000 		.4byte	.LASF110
 1099 07d8 0E       		.byte	0xe
 1100 07d9 B201     		.2byte	0x1b2
 1101 07db 13050000 		.4byte	0x513
 1102 07df 58       		.byte	0x58
 1103 07e0 00       		.byte	0
 1104 07e1 14       		.uleb128 0x14
 1105 07e2 00050000 		.4byte	.LASF111
 1106 07e6 0E       		.byte	0xe
 1107 07e7 B301     		.2byte	0x1b3
 1108 07e9 D5060000 		.4byte	0x6d5
 1109 07ed 18       		.uleb128 0x18
 1110 07ee 04       		.byte	0x4
 1111 07ef 0F       		.byte	0xf
 1112 07f0 38       		.byte	0x38
 1113 07f1 02080000 		.4byte	0x802
 1114 07f5 08       		.uleb128 0x8
 1115 07f6 85070000 		.4byte	.LASF112
 1116 07fa 0F       		.byte	0xf
 1117 07fb 3C       		.byte	0x3c
 1118 07fc 05010000 		.4byte	0x105
 1119 0800 00       		.byte	0
 1120 0801 00       		.byte	0
 1121 0802 03       		.uleb128 0x3
 1122 0803 47090000 		.4byte	.LASF113
 1123 0807 0F       		.byte	0xf
 1124 0808 3D       		.byte	0x3d
 1125 0809 ED070000 		.4byte	0x7ed
 1126 080d 19       		.uleb128 0x19
 1127 080e 04       		.byte	0x4
 1128 080f 08       		.byte	0x8
 1129 0810 FA       		.byte	0xfa
 1130 0811 6A080000 		.4byte	0x86a
 1131 0815 1A       		.uleb128 0x1a
 1132 0816 AF0A0000 		.4byte	.LASF114
 1133 081a 08       		.byte	0x8
 1134 081b 0101     		.2byte	0x101
 1135 081d 3C010000 		.4byte	0x13c
 1136 0821 1A       		.uleb128 0x1a
 1137 0822 78010000 		.4byte	.LASF115
 1138 0826 08       		.byte	0x8
 1139 0827 0801     		.2byte	0x108
 1140 0829 3C010000 		.4byte	0x13c
ARM GAS  /var/folders/qd/4mxf5pkd0zdf0b9dd1hp39180000gn/T//ccobn3Cb.s 			page 21


 1141 082d 1A       		.uleb128 0x1a
 1142 082e 6D030000 		.4byte	.LASF116
 1143 0832 08       		.byte	0x8
 1144 0833 0F01     		.2byte	0x10f
 1145 0835 53030000 		.4byte	0x353
 1146 0839 1A       		.uleb128 0x1a
 1147 083a B0020000 		.4byte	.LASF117
 1148 083e 08       		.byte	0x8
 1149 083f 1601     		.2byte	0x116
 1150 0841 6A080000 		.4byte	0x86a
 1151 0845 1A       		.uleb128 0x1a
 1152 0846 1F000000 		.4byte	.LASF118
 1153 084a 08       		.byte	0x8
 1154 084b 1E01     		.2byte	0x11e
 1155 084d 95080000 		.4byte	0x895
 1156 0851 1A       		.uleb128 0x1a
 1157 0852 04040000 		.4byte	.LASF119
 1158 0856 08       		.byte	0x8
 1159 0857 2701     		.2byte	0x127
 1160 0859 CC080000 		.4byte	0x8cc
 1161 085d 1A       		.uleb128 0x1a
 1162 085e 86020000 		.4byte	.LASF120
 1163 0862 08       		.byte	0x8
 1164 0863 2F01     		.2byte	0x12f
 1165 0865 47010000 		.4byte	0x147
 1166 0869 00       		.byte	0
 1167 086a 0B       		.uleb128 0xb
 1168 086b 04       		.byte	0x4
 1169 086c 6B020000 		.4byte	0x26b
 1170 0870 07       		.uleb128 0x7
 1171 0871 8E040000 		.4byte	.LASF121
 1172 0875 0C       		.byte	0xc
 1173 0876 10       		.byte	0x10
 1174 0877 34       		.byte	0x34
 1175 0878 95080000 		.4byte	0x895
 1176 087c 08       		.uleb128 0x8
 1177 087d 64090000 		.4byte	.LASF122
 1178 0881 10       		.byte	0x10
 1179 0882 35       		.byte	0x35
 1180 0883 A0020000 		.4byte	0x2a0
 1181 0887 00       		.byte	0
 1182 0888 08       		.uleb128 0x8
 1183 0889 28080000 		.4byte	.LASF123
 1184 088d 10       		.byte	0x10
 1185 088e 37       		.byte	0x37
 1186 088f 5D010000 		.4byte	0x15d
 1187 0893 08       		.byte	0x8
 1188 0894 00       		.byte	0
 1189 0895 0B       		.uleb128 0xb
 1190 0896 04       		.byte	0x4
 1191 0897 70080000 		.4byte	0x870
 1192 089b 07       		.uleb128 0x7
 1193 089c A8090000 		.4byte	.LASF124
 1194 08a0 10       		.byte	0x10
 1195 08a1 11       		.byte	0x11
 1196 08a2 39       		.byte	0x39
 1197 08a3 CC080000 		.4byte	0x8cc
ARM GAS  /var/folders/qd/4mxf5pkd0zdf0b9dd1hp39180000gn/T//ccobn3Cb.s 			page 22


 1198 08a7 08       		.uleb128 0x8
 1199 08a8 4E060000 		.4byte	.LASF125
 1200 08ac 11       		.byte	0x11
 1201 08ad 3A       		.byte	0x3a
 1202 08ae A0020000 		.4byte	0x2a0
 1203 08b2 00       		.byte	0
 1204 08b3 08       		.uleb128 0x8
 1205 08b4 62010000 		.4byte	.LASF126
 1206 08b8 11       		.byte	0x11
 1207 08b9 3C       		.byte	0x3c
 1208 08ba 76020000 		.4byte	0x276
 1209 08be 08       		.byte	0x8
 1210 08bf 08       		.uleb128 0x8
 1211 08c0 360B0000 		.4byte	.LASF127
 1212 08c4 11       		.byte	0x11
 1213 08c5 3E       		.byte	0x3e
 1214 08c6 210A0000 		.4byte	0xa21
 1215 08ca 0C       		.byte	0xc
 1216 08cb 00       		.byte	0
 1217 08cc 0B       		.uleb128 0xb
 1218 08cd 04       		.byte	0x4
 1219 08ce 9B080000 		.4byte	0x89b
 1220 08d2 0B       		.uleb128 0xb
 1221 08d3 04       		.byte	0x4
 1222 08d4 E4080000 		.4byte	0x8e4
 1223 08d8 06       		.uleb128 0x6
 1224 08d9 D2080000 		.4byte	0x8d2
 1225 08dd 04       		.uleb128 0x4
 1226 08de 01       		.byte	0x1
 1227 08df 08       		.byte	0x8
 1228 08e0 3F030000 		.4byte	.LASF128
 1229 08e4 05       		.uleb128 0x5
 1230 08e5 DD080000 		.4byte	0x8dd
 1231 08e9 0B       		.uleb128 0xb
 1232 08ea 04       		.byte	0x4
 1233 08eb 55030000 		.4byte	0x355
 1234 08ef 15       		.uleb128 0x15
 1235 08f0 30060000 		.4byte	0x630
 1236 08f4 FF080000 		.4byte	0x8ff
 1237 08f8 16       		.uleb128 0x16
 1238 08f9 37000000 		.4byte	0x37
 1239 08fd 1A       		.byte	0x1a
 1240 08fe 00       		.byte	0
 1241 08ff 1B       		.uleb128 0x1b
 1242 0900 636800   		.ascii	"ch\000"
 1243 0903 08       		.byte	0x8
 1244 0904 0902     		.2byte	0x209
 1245 0906 22040000 		.4byte	0x422
 1246 090a 18       		.uleb128 0x18
 1247 090b 16       		.byte	0x16
 1248 090c 12       		.byte	0x12
 1249 090d 34       		.byte	0x34
 1250 090e EB090000 		.4byte	0x9eb
 1251 0912 08       		.uleb128 0x8
 1252 0913 3C000000 		.4byte	.LASF129
 1253 0917 12       		.byte	0x12
 1254 0918 35       		.byte	0x35
ARM GAS  /var/folders/qd/4mxf5pkd0zdf0b9dd1hp39180000gn/T//ccobn3Cb.s 			page 23


 1255 0919 EB090000 		.4byte	0x9eb
 1256 091d 00       		.byte	0
 1257 091e 08       		.uleb128 0x8
 1258 091f 6A040000 		.4byte	.LASF130
 1259 0923 12       		.byte	0x12
 1260 0924 36       		.byte	0x36
 1261 0925 B4000000 		.4byte	0xb4
 1262 0929 04       		.byte	0x4
 1263 092a 08       		.uleb128 0x8
 1264 092b F60A0000 		.4byte	.LASF131
 1265 092f 12       		.byte	0x12
 1266 0930 37       		.byte	0x37
 1267 0931 B4000000 		.4byte	0xb4
 1268 0935 05       		.byte	0x5
 1269 0936 08       		.uleb128 0x8
 1270 0937 43060000 		.4byte	.LASF132
 1271 093b 12       		.byte	0x12
 1272 093c 38       		.byte	0x38
 1273 093d C4000000 		.4byte	0xc4
 1274 0941 06       		.byte	0x6
 1275 0942 08       		.uleb128 0x8
 1276 0943 07010000 		.4byte	.LASF133
 1277 0947 12       		.byte	0x12
 1278 0948 39       		.byte	0x39
 1279 0949 B4000000 		.4byte	0xb4
 1280 094d 08       		.byte	0x8
 1281 094e 08       		.uleb128 0x8
 1282 094f 48070000 		.4byte	.LASF134
 1283 0953 12       		.byte	0x12
 1284 0954 3A       		.byte	0x3a
 1285 0955 B4000000 		.4byte	0xb4
 1286 0959 09       		.byte	0x9
 1287 095a 08       		.uleb128 0x8
 1288 095b 99010000 		.4byte	.LASF135
 1289 095f 12       		.byte	0x12
 1290 0960 3B       		.byte	0x3b
 1291 0961 B4000000 		.4byte	0xb4
 1292 0965 0A       		.byte	0xa
 1293 0966 08       		.uleb128 0x8
 1294 0967 9F030000 		.4byte	.LASF136
 1295 096b 12       		.byte	0x12
 1296 096c 3C       		.byte	0x3c
 1297 096d B4000000 		.4byte	0xb4
 1298 0971 0B       		.byte	0xb
 1299 0972 08       		.uleb128 0x8
 1300 0973 81000000 		.4byte	.LASF137
 1301 0977 12       		.byte	0x12
 1302 0978 3D       		.byte	0x3d
 1303 0979 B4000000 		.4byte	0xb4
 1304 097d 0C       		.byte	0xc
 1305 097e 08       		.uleb128 0x8
 1306 097f 74030000 		.4byte	.LASF138
 1307 0983 12       		.byte	0x12
 1308 0984 3E       		.byte	0x3e
 1309 0985 B4000000 		.4byte	0xb4
 1310 0989 0D       		.byte	0xd
 1311 098a 08       		.uleb128 0x8
ARM GAS  /var/folders/qd/4mxf5pkd0zdf0b9dd1hp39180000gn/T//ccobn3Cb.s 			page 24


 1312 098b DA090000 		.4byte	.LASF139
 1313 098f 12       		.byte	0x12
 1314 0990 3F       		.byte	0x3f
 1315 0991 B4000000 		.4byte	0xb4
 1316 0995 0E       		.byte	0xe
 1317 0996 08       		.uleb128 0x8
 1318 0997 26000000 		.4byte	.LASF140
 1319 099b 12       		.byte	0x12
 1320 099c 40       		.byte	0x40
 1321 099d B4000000 		.4byte	0xb4
 1322 09a1 0F       		.byte	0xf
 1323 09a2 08       		.uleb128 0x8
 1324 09a3 300A0000 		.4byte	.LASF141
 1325 09a7 12       		.byte	0x12
 1326 09a8 41       		.byte	0x41
 1327 09a9 B4000000 		.4byte	0xb4
 1328 09ad 10       		.byte	0x10
 1329 09ae 08       		.uleb128 0x8
 1330 09af F9010000 		.4byte	.LASF142
 1331 09b3 12       		.byte	0x12
 1332 09b4 43       		.byte	0x43
 1333 09b5 B4000000 		.4byte	0xb4
 1334 09b9 11       		.byte	0x11
 1335 09ba 08       		.uleb128 0x8
 1336 09bb 94080000 		.4byte	.LASF143
 1337 09bf 12       		.byte	0x12
 1338 09c0 44       		.byte	0x44
 1339 09c1 B4000000 		.4byte	0xb4
 1340 09c5 12       		.byte	0x12
 1341 09c6 08       		.uleb128 0x8
 1342 09c7 A6070000 		.4byte	.LASF144
 1343 09cb 12       		.byte	0x12
 1344 09cc 45       		.byte	0x45
 1345 09cd B4000000 		.4byte	0xb4
 1346 09d1 13       		.byte	0x13
 1347 09d2 08       		.uleb128 0x8
 1348 09d3 0B060000 		.4byte	.LASF145
 1349 09d7 12       		.byte	0x12
 1350 09d8 46       		.byte	0x46
 1351 09d9 B4000000 		.4byte	0xb4
 1352 09dd 14       		.byte	0x14
 1353 09de 08       		.uleb128 0x8
 1354 09df 02080000 		.4byte	.LASF146
 1355 09e3 12       		.byte	0x12
 1356 09e4 48       		.byte	0x48
 1357 09e5 B4000000 		.4byte	0xb4
 1358 09e9 15       		.byte	0x15
 1359 09ea 00       		.byte	0
 1360 09eb 15       		.uleb128 0x15
 1361 09ec DD080000 		.4byte	0x8dd
 1362 09f0 FB090000 		.4byte	0x9fb
 1363 09f4 16       		.uleb128 0x16
 1364 09f5 37000000 		.4byte	0x37
 1365 09f9 03       		.byte	0x3
 1366 09fa 00       		.byte	0
 1367 09fb 03       		.uleb128 0x3
 1368 09fc E10A0000 		.4byte	.LASF147
ARM GAS  /var/folders/qd/4mxf5pkd0zdf0b9dd1hp39180000gn/T//ccobn3Cb.s 			page 25


 1369 0a00 12       		.byte	0x12
 1370 0a01 49       		.byte	0x49
 1371 0a02 0A090000 		.4byte	0x90a
 1372 0a06 05       		.uleb128 0x5
 1373 0a07 FB090000 		.4byte	0x9fb
 1374 0a0b 12       		.uleb128 0x12
 1375 0a0c 58000000 		.4byte	.LASF148
 1376 0a10 12       		.byte	0x12
 1377 0a11 6E       		.byte	0x6e
 1378 0a12 060A0000 		.4byte	0xa06
 1379 0a16 03       		.uleb128 0x3
 1380 0a17 200A0000 		.4byte	.LASF149
 1381 0a1b 11       		.byte	0x11
 1382 0a1c 34       		.byte	0x34
 1383 0a1d 9B080000 		.4byte	0x89b
 1384 0a21 0B       		.uleb128 0xb
 1385 0a22 04       		.byte	0x4
 1386 0a23 160A0000 		.4byte	0xa16
 1387 0a27 03       		.uleb128 0x3
 1388 0a28 B2030000 		.4byte	.LASF150
 1389 0a2c 13       		.byte	0x13
 1390 0a2d 34       		.byte	0x34
 1391 0a2e 320A0000 		.4byte	0xa32
 1392 0a32 07       		.uleb128 0x7
 1393 0a33 A00A0000 		.4byte	.LASF151
 1394 0a37 14       		.byte	0x14
 1395 0a38 13       		.byte	0x13
 1396 0a39 39       		.byte	0x39
 1397 0a3a 7B0A0000 		.4byte	0xa7b
 1398 0a3e 08       		.uleb128 0x8
 1399 0a3f CE040000 		.4byte	.LASF152
 1400 0a43 13       		.byte	0x13
 1401 0a44 3A       		.byte	0x3a
 1402 0a45 7B0A0000 		.4byte	0xa7b
 1403 0a49 00       		.byte	0
 1404 0a4a 08       		.uleb128 0x8
 1405 0a4b FC0B0000 		.4byte	.LASF153
 1406 0a4f 13       		.byte	0x13
 1407 0a50 3D       		.byte	0x3d
 1408 0a51 76020000 		.4byte	0x276
 1409 0a55 04       		.byte	0x4
 1410 0a56 08       		.uleb128 0x8
 1411 0a57 71070000 		.4byte	.LASF154
 1412 0a5b 13       		.byte	0x13
 1413 0a5c 3F       		.byte	0x3f
 1414 0a5d 47010000 		.4byte	0x147
 1415 0a61 08       		.byte	0x8
 1416 0a62 08       		.uleb128 0x8
 1417 0a63 CE000000 		.4byte	.LASF155
 1418 0a67 13       		.byte	0x13
 1419 0a68 41       		.byte	0x41
 1420 0a69 52010000 		.4byte	0x152
 1421 0a6d 0C       		.byte	0xc
 1422 0a6e 08       		.uleb128 0x8
 1423 0a6f 54070000 		.4byte	.LASF156
 1424 0a73 13       		.byte	0x13
 1425 0a74 43       		.byte	0x43
ARM GAS  /var/folders/qd/4mxf5pkd0zdf0b9dd1hp39180000gn/T//ccobn3Cb.s 			page 26


 1426 0a75 52010000 		.4byte	0x152
 1427 0a79 10       		.byte	0x10
 1428 0a7a 00       		.byte	0
 1429 0a7b 0B       		.uleb128 0xb
 1430 0a7c 04       		.byte	0x4
 1431 0a7d 270A0000 		.4byte	0xa27
 1432 0a81 07       		.uleb128 0x7
 1433 0a82 8D090000 		.4byte	.LASF157
 1434 0a86 04       		.byte	0x4
 1435 0a87 13       		.byte	0x13
 1436 0a88 4A       		.byte	0x4a
 1437 0a89 9A0A0000 		.4byte	0xa9a
 1438 0a8d 08       		.uleb128 0x8
 1439 0a8e 2E040000 		.4byte	.LASF158
 1440 0a92 13       		.byte	0x13
 1441 0a93 4B       		.byte	0x4b
 1442 0a94 7B0A0000 		.4byte	0xa7b
 1443 0a98 00       		.byte	0
 1444 0a99 00       		.byte	0
 1445 0a9a 03       		.uleb128 0x3
 1446 0a9b 6B060000 		.4byte	.LASF159
 1447 0a9f 13       		.byte	0x13
 1448 0aa0 4E       		.byte	0x4e
 1449 0aa1 810A0000 		.4byte	0xa81
 1450 0aa5 03       		.uleb128 0x3
 1451 0aa6 E7090000 		.4byte	.LASF160
 1452 0aaa 14       		.byte	0x14
 1453 0aab 3F       		.byte	0x3f
 1454 0aac B00A0000 		.4byte	0xab0
 1455 0ab0 07       		.uleb128 0x7
 1456 0ab1 58020000 		.4byte	.LASF161
 1457 0ab5 24       		.byte	0x24
 1458 0ab6 14       		.byte	0x14
 1459 0ab7 4D       		.byte	0x4d
 1460 0ab8 1D0B0000 		.4byte	0xb1d
 1461 0abc 08       		.uleb128 0x8
 1462 0abd FB080000 		.4byte	.LASF162
 1463 0ac1 14       		.byte	0x14
 1464 0ac2 4E       		.byte	0x4e
 1465 0ac3 A0020000 		.4byte	0x2a0
 1466 0ac7 00       		.byte	0
 1467 0ac8 08       		.uleb128 0x8
 1468 0ac9 36040000 		.4byte	.LASF163
 1469 0acd 14       		.byte	0x14
 1470 0ace 4F       		.byte	0x4f
 1471 0acf 2C000000 		.4byte	0x2c
 1472 0ad3 08       		.byte	0x8
 1473 0ad4 08       		.uleb128 0x8
 1474 0ad5 B3010000 		.4byte	.LASF164
 1475 0ad9 14       		.byte	0x14
 1476 0ada 50       		.byte	0x50
 1477 0adb 3F0B0000 		.4byte	0xb3f
 1478 0adf 0C       		.byte	0xc
 1479 0ae0 08       		.uleb128 0x8
 1480 0ae1 93010000 		.4byte	.LASF165
 1481 0ae5 14       		.byte	0x14
 1482 0ae6 51       		.byte	0x51
ARM GAS  /var/folders/qd/4mxf5pkd0zdf0b9dd1hp39180000gn/T//ccobn3Cb.s 			page 27


 1483 0ae7 3F0B0000 		.4byte	0xb3f
 1484 0aeb 10       		.byte	0x10
 1485 0aec 08       		.uleb128 0x8
 1486 0aed F3040000 		.4byte	.LASF166
 1487 0af1 14       		.byte	0x14
 1488 0af2 53       		.byte	0x53
 1489 0af3 3F0B0000 		.4byte	0xb3f
 1490 0af7 14       		.byte	0x14
 1491 0af8 08       		.uleb128 0x8
 1492 0af9 F1010000 		.4byte	.LASF167
 1493 0afd 14       		.byte	0x14
 1494 0afe 54       		.byte	0x54
 1495 0aff 3F0B0000 		.4byte	0xb3f
 1496 0b03 18       		.byte	0x18
 1497 0b04 08       		.uleb128 0x8
 1498 0b05 BC010000 		.4byte	.LASF168
 1499 0b09 14       		.byte	0x14
 1500 0b0a 55       		.byte	0x55
 1501 0b0b 1D0B0000 		.4byte	0xb1d
 1502 0b0f 1C       		.byte	0x1c
 1503 0b10 08       		.uleb128 0x8
 1504 0b11 D3020000 		.4byte	.LASF169
 1505 0b15 14       		.byte	0x14
 1506 0b16 56       		.byte	0x56
 1507 0b17 53030000 		.4byte	0x353
 1508 0b1b 20       		.byte	0x20
 1509 0b1c 00       		.byte	0
 1510 0b1d 03       		.uleb128 0x3
 1511 0b1e C4060000 		.4byte	.LASF170
 1512 0b22 14       		.byte	0x14
 1513 0b23 42       		.byte	0x42
 1514 0b24 280B0000 		.4byte	0xb28
 1515 0b28 0B       		.uleb128 0xb
 1516 0b29 04       		.byte	0x4
 1517 0b2a 2E0B0000 		.4byte	0xb2e
 1518 0b2e 0D       		.uleb128 0xd
 1519 0b2f 390B0000 		.4byte	0xb39
 1520 0b33 0E       		.uleb128 0xe
 1521 0b34 390B0000 		.4byte	0xb39
 1522 0b38 00       		.byte	0
 1523 0b39 0B       		.uleb128 0xb
 1524 0b3a 04       		.byte	0x4
 1525 0b3b A50A0000 		.4byte	0xaa5
 1526 0b3f 0B       		.uleb128 0xb
 1527 0b40 04       		.byte	0x4
 1528 0b41 B4000000 		.4byte	0xb4
 1529 0b45 03       		.uleb128 0x3
 1530 0b46 7E0A0000 		.4byte	.LASF171
 1531 0b4a 14       		.byte	0x14
 1532 0b4b 64       		.byte	0x64
 1533 0b4c A50A0000 		.4byte	0xaa5
 1534 0b50 03       		.uleb128 0x3
 1535 0b51 FE0A0000 		.4byte	.LASF172
 1536 0b55 14       		.byte	0x14
 1537 0b56 71       		.byte	0x71
 1538 0b57 A50A0000 		.4byte	0xaa5
 1539 0b5b 1C       		.uleb128 0x1c
ARM GAS  /var/folders/qd/4mxf5pkd0zdf0b9dd1hp39180000gn/T//ccobn3Cb.s 			page 28


 1540 0b5c 2C000000 		.4byte	0x2c
 1541 0b60 740B0000 		.4byte	0xb74
 1542 0b64 0E       		.uleb128 0xe
 1543 0b65 53030000 		.4byte	0x353
 1544 0b69 0E       		.uleb128 0xe
 1545 0b6a 740B0000 		.4byte	0xb74
 1546 0b6e 0E       		.uleb128 0xe
 1547 0b6f 2C000000 		.4byte	0x2c
 1548 0b73 00       		.byte	0
 1549 0b74 0B       		.uleb128 0xb
 1550 0b75 04       		.byte	0x4
 1551 0b76 BF000000 		.4byte	0xbf
 1552 0b7a 0B       		.uleb128 0xb
 1553 0b7b 04       		.byte	0x4
 1554 0b7c 5B0B0000 		.4byte	0xb5b
 1555 0b80 1C       		.uleb128 0x1c
 1556 0b81 2C000000 		.4byte	0x2c
 1557 0b85 990B0000 		.4byte	0xb99
 1558 0b89 0E       		.uleb128 0xe
 1559 0b8a 53030000 		.4byte	0x353
 1560 0b8e 0E       		.uleb128 0xe
 1561 0b8f 3F0B0000 		.4byte	0xb3f
 1562 0b93 0E       		.uleb128 0xe
 1563 0b94 2C000000 		.4byte	0x2c
 1564 0b98 00       		.byte	0
 1565 0b99 0B       		.uleb128 0xb
 1566 0b9a 04       		.byte	0x4
 1567 0b9b 800B0000 		.4byte	0xb80
 1568 0b9f 1C       		.uleb128 0x1c
 1569 0ba0 3C010000 		.4byte	0x13c
 1570 0ba4 B30B0000 		.4byte	0xbb3
 1571 0ba8 0E       		.uleb128 0xe
 1572 0ba9 53030000 		.4byte	0x353
 1573 0bad 0E       		.uleb128 0xe
 1574 0bae B4000000 		.4byte	0xb4
 1575 0bb2 00       		.byte	0
 1576 0bb3 0B       		.uleb128 0xb
 1577 0bb4 04       		.byte	0x4
 1578 0bb5 9F0B0000 		.4byte	0xb9f
 1579 0bb9 1C       		.uleb128 0x1c
 1580 0bba 3C010000 		.4byte	0x13c
 1581 0bbe C80B0000 		.4byte	0xbc8
 1582 0bc2 0E       		.uleb128 0xe
 1583 0bc3 53030000 		.4byte	0x353
 1584 0bc7 00       		.byte	0
 1585 0bc8 0B       		.uleb128 0xb
 1586 0bc9 04       		.byte	0x4
 1587 0bca B90B0000 		.4byte	0xbb9
 1588 0bce 18       		.uleb128 0x18
 1589 0bcf 0C       		.byte	0xc
 1590 0bd0 15       		.byte	0x15
 1591 0bd1 DA       		.byte	0xda
 1592 0bd2 130C0000 		.4byte	0xc13
 1593 0bd6 08       		.uleb128 0x8
 1594 0bd7 AB030000 		.4byte	.LASF173
 1595 0bdb 15       		.byte	0x15
 1596 0bdc DB       		.byte	0xdb
ARM GAS  /var/folders/qd/4mxf5pkd0zdf0b9dd1hp39180000gn/T//ccobn3Cb.s 			page 29


 1597 0bdd 130C0000 		.4byte	0xc13
 1598 0be1 00       		.byte	0
 1599 0be2 08       		.uleb128 0x8
 1600 0be3 240B0000 		.4byte	.LASF174
 1601 0be7 15       		.byte	0x15
 1602 0be8 DC       		.byte	0xdc
 1603 0be9 190C0000 		.4byte	0xc19
 1604 0bed 04       		.byte	0x4
 1605 0bee 08       		.uleb128 0x8
 1606 0bef 4A030000 		.4byte	.LASF175
 1607 0bf3 15       		.byte	0x15
 1608 0bf4 DD       		.byte	0xdd
 1609 0bf5 B4000000 		.4byte	0xb4
 1610 0bf9 08       		.byte	0x8
 1611 0bfa 08       		.uleb128 0x8
 1612 0bfb 2E080000 		.4byte	.LASF176
 1613 0bff 15       		.byte	0x15
 1614 0c00 DF       		.byte	0xdf
 1615 0c01 B4000000 		.4byte	0xb4
 1616 0c05 09       		.byte	0x9
 1617 0c06 08       		.uleb128 0x8
 1618 0c07 BA080000 		.4byte	.LASF177
 1619 0c0b 15       		.byte	0x15
 1620 0c0c E0       		.byte	0xe0
 1621 0c0d B4000000 		.4byte	0xb4
 1622 0c11 0A       		.byte	0xa
 1623 0c12 00       		.byte	0
 1624 0c13 0B       		.uleb128 0xb
 1625 0c14 04       		.byte	0x4
 1626 0c15 F7040000 		.4byte	0x4f7
 1627 0c19 0B       		.uleb128 0xb
 1628 0c1a 04       		.byte	0x4
 1629 0c1b EA000000 		.4byte	0xea
 1630 0c1f 03       		.uleb128 0x3
 1631 0c20 05000000 		.4byte	.LASF178
 1632 0c24 15       		.byte	0x15
 1633 0c25 E1       		.byte	0xe1
 1634 0c26 CE0B0000 		.4byte	0xbce
 1635 0c2a 05       		.uleb128 0x5
 1636 0c2b 1F0C0000 		.4byte	0xc1f
 1637 0c2f 15       		.uleb128 0x15
 1638 0c30 2A0C0000 		.4byte	0xc2a
 1639 0c34 3F0C0000 		.4byte	0xc3f
 1640 0c38 16       		.uleb128 0x16
 1641 0c39 37000000 		.4byte	0x37
 1642 0c3d 0F       		.byte	0xf
 1643 0c3e 00       		.byte	0
 1644 0c3f 05       		.uleb128 0x5
 1645 0c40 2F0C0000 		.4byte	0xc2f
 1646 0c44 11       		.uleb128 0x11
 1647 0c45 BB040000 		.4byte	.LASF179
 1648 0c49 15       		.byte	0x15
 1649 0c4a BB01     		.2byte	0x1bb
 1650 0c4c 3F0C0000 		.4byte	0xc3f
 1651 0c50 1C       		.uleb128 0x1c
 1652 0c51 3C010000 		.4byte	0x13c
 1653 0c55 690C0000 		.4byte	0xc69
ARM GAS  /var/folders/qd/4mxf5pkd0zdf0b9dd1hp39180000gn/T//ccobn3Cb.s 			page 30


 1654 0c59 0E       		.uleb128 0xe
 1655 0c5a 53030000 		.4byte	0x353
 1656 0c5e 0E       		.uleb128 0xe
 1657 0c5f B4000000 		.4byte	0xb4
 1658 0c63 0E       		.uleb128 0xe
 1659 0c64 68010000 		.4byte	0x168
 1660 0c68 00       		.byte	0
 1661 0c69 0B       		.uleb128 0xb
 1662 0c6a 04       		.byte	0x4
 1663 0c6b 500C0000 		.4byte	0xc50
 1664 0c6f 1C       		.uleb128 0x1c
 1665 0c70 3C010000 		.4byte	0x13c
 1666 0c74 830C0000 		.4byte	0xc83
 1667 0c78 0E       		.uleb128 0xe
 1668 0c79 53030000 		.4byte	0x353
 1669 0c7d 0E       		.uleb128 0xe
 1670 0c7e 68010000 		.4byte	0x168
 1671 0c82 00       		.byte	0
 1672 0c83 0B       		.uleb128 0xb
 1673 0c84 04       		.byte	0x4
 1674 0c85 6F0C0000 		.4byte	0xc6f
 1675 0c89 1C       		.uleb128 0x1c
 1676 0c8a 2C000000 		.4byte	0x2c
 1677 0c8e A70C0000 		.4byte	0xca7
 1678 0c92 0E       		.uleb128 0xe
 1679 0c93 53030000 		.4byte	0x353
 1680 0c97 0E       		.uleb128 0xe
 1681 0c98 740B0000 		.4byte	0xb74
 1682 0c9c 0E       		.uleb128 0xe
 1683 0c9d 2C000000 		.4byte	0x2c
 1684 0ca1 0E       		.uleb128 0xe
 1685 0ca2 68010000 		.4byte	0x168
 1686 0ca6 00       		.byte	0
 1687 0ca7 0B       		.uleb128 0xb
 1688 0ca8 04       		.byte	0x4
 1689 0ca9 890C0000 		.4byte	0xc89
 1690 0cad 1C       		.uleb128 0x1c
 1691 0cae 2C000000 		.4byte	0x2c
 1692 0cb2 CB0C0000 		.4byte	0xccb
 1693 0cb6 0E       		.uleb128 0xe
 1694 0cb7 53030000 		.4byte	0x353
 1695 0cbb 0E       		.uleb128 0xe
 1696 0cbc 3F0B0000 		.4byte	0xb3f
 1697 0cc0 0E       		.uleb128 0xe
 1698 0cc1 2C000000 		.4byte	0x2c
 1699 0cc5 0E       		.uleb128 0xe
 1700 0cc6 68010000 		.4byte	0x168
 1701 0cca 00       		.byte	0
 1702 0ccb 0B       		.uleb128 0xb
 1703 0ccc 04       		.byte	0x4
 1704 0ccd AD0C0000 		.4byte	0xcad
 1705 0cd1 04       		.uleb128 0x4
 1706 0cd2 01       		.byte	0x1
 1707 0cd3 02       		.byte	0x2
 1708 0cd4 27030000 		.4byte	.LASF180
 1709 0cd8 18       		.uleb128 0x18
 1710 0cd9 04       		.byte	0x4
ARM GAS  /var/folders/qd/4mxf5pkd0zdf0b9dd1hp39180000gn/T//ccobn3Cb.s 			page 31


 1711 0cda 16       		.byte	0x16
 1712 0cdb B3       		.byte	0xb3
 1713 0cdc F90C0000 		.4byte	0xcf9
 1714 0ce0 17       		.uleb128 0x17
 1715 0ce1 73657400 		.ascii	"set\000"
 1716 0ce5 16       		.byte	0x16
 1717 0ce6 B4       		.byte	0xb4
 1718 0ce7 C4000000 		.4byte	0xc4
 1719 0ceb 00       		.byte	0
 1720 0cec 08       		.uleb128 0x8
 1721 0ced 19040000 		.4byte	.LASF181
 1722 0cf1 16       		.byte	0x16
 1723 0cf2 B5       		.byte	0xb5
 1724 0cf3 C4000000 		.4byte	0xc4
 1725 0cf7 02       		.byte	0x2
 1726 0cf8 00       		.byte	0
 1727 0cf9 19       		.uleb128 0x19
 1728 0cfa 04       		.byte	0x4
 1729 0cfb 16       		.byte	0x16
 1730 0cfc B1       		.byte	0xb1
 1731 0cfd 140D0000 		.4byte	0xd14
 1732 0d01 1D       		.uleb128 0x1d
 1733 0d02 5700     		.ascii	"W\000"
 1734 0d04 16       		.byte	0x16
 1735 0d05 B2       		.byte	0xb2
 1736 0d06 DF000000 		.4byte	0xdf
 1737 0d0a 1D       		.uleb128 0x1d
 1738 0d0b 4800     		.ascii	"H\000"
 1739 0d0d 16       		.byte	0x16
 1740 0d0e B6       		.byte	0xb6
 1741 0d0f D80C0000 		.4byte	0xcd8
 1742 0d13 00       		.byte	0
 1743 0d14 06       		.uleb128 0x6
 1744 0d15 F90C0000 		.4byte	0xcf9
 1745 0d19 18       		.uleb128 0x18
 1746 0d1a 2C       		.byte	0x2c
 1747 0d1b 16       		.byte	0x16
 1748 0d1c A9       		.byte	0xa9
 1749 0d1d A60D0000 		.4byte	0xda6
 1750 0d21 08       		.uleb128 0x8
 1751 0d22 E4060000 		.4byte	.LASF182
 1752 0d26 16       		.byte	0x16
 1753 0d27 AB       		.byte	0xab
 1754 0d28 EA000000 		.4byte	0xea
 1755 0d2c 00       		.byte	0
 1756 0d2d 08       		.uleb128 0x8
 1757 0d2e ED080000 		.4byte	.LASF183
 1758 0d32 16       		.byte	0x16
 1759 0d33 AC       		.byte	0xac
 1760 0d34 EA000000 		.4byte	0xea
 1761 0d38 04       		.byte	0x4
 1762 0d39 08       		.uleb128 0x8
 1763 0d3a 29050000 		.4byte	.LASF184
 1764 0d3e 16       		.byte	0x16
 1765 0d3f AD       		.byte	0xad
 1766 0d40 EA000000 		.4byte	0xea
 1767 0d44 08       		.byte	0x8
ARM GAS  /var/folders/qd/4mxf5pkd0zdf0b9dd1hp39180000gn/T//ccobn3Cb.s 			page 32


 1768 0d45 08       		.uleb128 0x8
 1769 0d46 A7010000 		.4byte	.LASF185
 1770 0d4a 16       		.byte	0x16
 1771 0d4b AE       		.byte	0xae
 1772 0d4c EA000000 		.4byte	0xea
 1773 0d50 0C       		.byte	0xc
 1774 0d51 17       		.uleb128 0x17
 1775 0d52 49445200 		.ascii	"IDR\000"
 1776 0d56 16       		.byte	0x16
 1777 0d57 AF       		.byte	0xaf
 1778 0d58 EA000000 		.4byte	0xea
 1779 0d5c 10       		.byte	0x10
 1780 0d5d 17       		.uleb128 0x17
 1781 0d5e 4F445200 		.ascii	"ODR\000"
 1782 0d62 16       		.byte	0x16
 1783 0d63 B0       		.byte	0xb0
 1784 0d64 EA000000 		.4byte	0xea
 1785 0d68 14       		.byte	0x14
 1786 0d69 08       		.uleb128 0x8
 1787 0d6a F2090000 		.4byte	.LASF186
 1788 0d6e 16       		.byte	0x16
 1789 0d6f B7       		.byte	0xb7
 1790 0d70 140D0000 		.4byte	0xd14
 1791 0d74 18       		.byte	0x18
 1792 0d75 08       		.uleb128 0x8
 1793 0d76 FB040000 		.4byte	.LASF187
 1794 0d7a 16       		.byte	0x16
 1795 0d7b B8       		.byte	0xb8
 1796 0d7c EA000000 		.4byte	0xea
 1797 0d80 1C       		.byte	0x1c
 1798 0d81 08       		.uleb128 0x8
 1799 0d82 B5080000 		.4byte	.LASF188
 1800 0d86 16       		.byte	0x16
 1801 0d87 B9       		.byte	0xb9
 1802 0d88 EA000000 		.4byte	0xea
 1803 0d8c 20       		.byte	0x20
 1804 0d8d 08       		.uleb128 0x8
 1805 0d8e B0080000 		.4byte	.LASF189
 1806 0d92 16       		.byte	0x16
 1807 0d93 BA       		.byte	0xba
 1808 0d94 EA000000 		.4byte	0xea
 1809 0d98 24       		.byte	0x24
 1810 0d99 17       		.uleb128 0x17
 1811 0d9a 42525200 		.ascii	"BRR\000"
 1812 0d9e 16       		.byte	0x16
 1813 0d9f BB       		.byte	0xbb
 1814 0da0 EA000000 		.4byte	0xea
 1815 0da4 28       		.byte	0x28
 1816 0da5 00       		.byte	0
 1817 0da6 03       		.uleb128 0x3
 1818 0da7 DA020000 		.4byte	.LASF190
 1819 0dab 16       		.byte	0x16
 1820 0dac BC       		.byte	0xbc
 1821 0dad 190D0000 		.4byte	0xd19
 1822 0db1 18       		.uleb128 0x18
 1823 0db2 1C       		.byte	0x1c
 1824 0db3 16       		.byte	0x16
ARM GAS  /var/folders/qd/4mxf5pkd0zdf0b9dd1hp39180000gn/T//ccobn3Cb.s 			page 33


 1825 0db4 C1       		.byte	0xc1
 1826 0db5 0E0E0000 		.4byte	0xe0e
 1827 0db9 08       		.uleb128 0x8
 1828 0dba 44030000 		.4byte	.LASF191
 1829 0dbe 16       		.byte	0x16
 1830 0dbf C3       		.byte	0xc3
 1831 0dc0 DF000000 		.4byte	0xdf
 1832 0dc4 00       		.byte	0
 1833 0dc5 08       		.uleb128 0x8
 1834 0dc6 77040000 		.4byte	.LASF192
 1835 0dca 16       		.byte	0x16
 1836 0dcb C5       		.byte	0xc5
 1837 0dcc DF000000 		.4byte	0xdf
 1838 0dd0 04       		.byte	0x4
 1839 0dd1 08       		.uleb128 0x8
 1840 0dd2 1F040000 		.4byte	.LASF193
 1841 0dd6 16       		.byte	0x16
 1842 0dd7 C7       		.byte	0xc7
 1843 0dd8 DF000000 		.4byte	0xdf
 1844 0ddc 08       		.byte	0x8
 1845 0ddd 08       		.uleb128 0x8
 1846 0dde BF020000 		.4byte	.LASF194
 1847 0de2 16       		.byte	0x16
 1848 0de3 C9       		.byte	0xc9
 1849 0de4 DF000000 		.4byte	0xdf
 1850 0de8 0C       		.byte	0xc
 1851 0de9 17       		.uleb128 0x17
 1852 0dea 6F647200 		.ascii	"odr\000"
 1853 0dee 16       		.byte	0x16
 1854 0def CB       		.byte	0xcb
 1855 0df0 DF000000 		.4byte	0xdf
 1856 0df4 10       		.byte	0x10
 1857 0df5 08       		.uleb128 0x8
 1858 0df6 B2070000 		.4byte	.LASF195
 1859 0dfa 16       		.byte	0x16
 1860 0dfb CD       		.byte	0xcd
 1861 0dfc DF000000 		.4byte	0xdf
 1862 0e00 14       		.byte	0x14
 1863 0e01 08       		.uleb128 0x8
 1864 0e02 48040000 		.4byte	.LASF196
 1865 0e06 16       		.byte	0x16
 1866 0e07 CF       		.byte	0xcf
 1867 0e08 DF000000 		.4byte	0xdf
 1868 0e0c 18       		.byte	0x18
 1869 0e0d 00       		.byte	0
 1870 0e0e 03       		.uleb128 0x3
 1871 0e0f 4F010000 		.4byte	.LASF197
 1872 0e13 16       		.byte	0x16
 1873 0e14 D0       		.byte	0xd0
 1874 0e15 B10D0000 		.4byte	0xdb1
 1875 0e19 18       		.uleb128 0x18
 1876 0e1a FC       		.byte	0xfc
 1877 0e1b 16       		.byte	0x16
 1878 0e1c D9       		.byte	0xd9
 1879 0e1d 8E0E0000 		.4byte	0xe8e
 1880 0e21 08       		.uleb128 0x8
 1881 0e22 58080000 		.4byte	.LASF198
ARM GAS  /var/folders/qd/4mxf5pkd0zdf0b9dd1hp39180000gn/T//ccobn3Cb.s 			page 34


 1882 0e26 16       		.byte	0x16
 1883 0e27 DC       		.byte	0xdc
 1884 0e28 0E0E0000 		.4byte	0xe0e
 1885 0e2c 00       		.byte	0
 1886 0e2d 08       		.uleb128 0x8
 1887 0e2e B3060000 		.4byte	.LASF199
 1888 0e32 16       		.byte	0x16
 1889 0e33 E0       		.byte	0xe0
 1890 0e34 0E0E0000 		.4byte	0xe0e
 1891 0e38 1C       		.byte	0x1c
 1892 0e39 08       		.uleb128 0x8
 1893 0e3a 27040000 		.4byte	.LASF200
 1894 0e3e 16       		.byte	0x16
 1895 0e3f E4       		.byte	0xe4
 1896 0e40 0E0E0000 		.4byte	0xe0e
 1897 0e44 38       		.byte	0x38
 1898 0e45 08       		.uleb128 0x8
 1899 0e46 F5020000 		.4byte	.LASF201
 1900 0e4a 16       		.byte	0x16
 1901 0e4b E8       		.byte	0xe8
 1902 0e4c 0E0E0000 		.4byte	0xe0e
 1903 0e50 54       		.byte	0x54
 1904 0e51 08       		.uleb128 0x8
 1905 0e52 E4000000 		.4byte	.LASF202
 1906 0e56 16       		.byte	0x16
 1907 0e57 EC       		.byte	0xec
 1908 0e58 0E0E0000 		.4byte	0xe0e
 1909 0e5c 70       		.byte	0x70
 1910 0e5d 08       		.uleb128 0x8
 1911 0e5e 990A0000 		.4byte	.LASF203
 1912 0e62 16       		.byte	0x16
 1913 0e63 F0       		.byte	0xf0
 1914 0e64 0E0E0000 		.4byte	0xe0e
 1915 0e68 8C       		.byte	0x8c
 1916 0e69 08       		.uleb128 0x8
 1917 0e6a F4080000 		.4byte	.LASF204
 1918 0e6e 16       		.byte	0x16
 1919 0e6f F4       		.byte	0xf4
 1920 0e70 0E0E0000 		.4byte	0xe0e
 1921 0e74 A8       		.byte	0xa8
 1922 0e75 08       		.uleb128 0x8
 1923 0e76 8C070000 		.4byte	.LASF205
 1924 0e7a 16       		.byte	0x16
 1925 0e7b F8       		.byte	0xf8
 1926 0e7c 0E0E0000 		.4byte	0xe0e
 1927 0e80 C4       		.byte	0xc4
 1928 0e81 08       		.uleb128 0x8
 1929 0e82 0C050000 		.4byte	.LASF206
 1930 0e86 16       		.byte	0x16
 1931 0e87 FC       		.byte	0xfc
 1932 0e88 0E0E0000 		.4byte	0xe0e
 1933 0e8c E0       		.byte	0xe0
 1934 0e8d 00       		.byte	0
 1935 0e8e 03       		.uleb128 0x3
 1936 0e8f F7090000 		.4byte	.LASF207
 1937 0e93 16       		.byte	0x16
 1938 0e94 FE       		.byte	0xfe
ARM GAS  /var/folders/qd/4mxf5pkd0zdf0b9dd1hp39180000gn/T//ccobn3Cb.s 			page 35


 1939 0e95 190E0000 		.4byte	0xe19
 1940 0e99 05       		.uleb128 0x5
 1941 0e9a 8E0E0000 		.4byte	0xe8e
 1942 0e9e 14       		.uleb128 0x14
 1943 0e9f C8030000 		.4byte	.LASF208
 1944 0ea3 16       		.byte	0x16
 1945 0ea4 0E01     		.2byte	0x10e
 1946 0ea6 DF000000 		.4byte	0xdf
 1947 0eaa 14       		.uleb128 0x14
 1948 0eab 30010000 		.4byte	.LASF209
 1949 0eaf 16       		.byte	0x16
 1950 0eb0 1301     		.2byte	0x113
 1951 0eb2 DF000000 		.4byte	0xdf
 1952 0eb6 14       		.uleb128 0x14
 1953 0eb7 0D020000 		.4byte	.LASF210
 1954 0ebb 16       		.byte	0x16
 1955 0ebc 1B01     		.2byte	0x11b
 1956 0ebe C20E0000 		.4byte	0xec2
 1957 0ec2 0B       		.uleb128 0xb
 1958 0ec3 04       		.byte	0x4
 1959 0ec4 A60D0000 		.4byte	0xda6
 1960 0ec8 11       		.uleb128 0x11
 1961 0ec9 67020000 		.4byte	.LASF211
 1962 0ecd 16       		.byte	0x16
 1963 0ece DA01     		.2byte	0x1da
 1964 0ed0 990E0000 		.4byte	0xe99
 1965 0ed4 18       		.uleb128 0x18
 1966 0ed5 0C       		.byte	0xc
 1967 0ed6 17       		.byte	0x17
 1968 0ed7 7A       		.byte	0x7a
 1969 0ed8 010F0000 		.4byte	0xf01
 1970 0edc 08       		.uleb128 0x8
 1971 0edd 95020000 		.4byte	.LASF212
 1972 0ee1 17       		.byte	0x17
 1973 0ee2 7E       		.byte	0x7e
 1974 0ee3 B60E0000 		.4byte	0xeb6
 1975 0ee7 00       		.byte	0
 1976 0ee8 08       		.uleb128 0x8
 1977 0ee9 7A060000 		.4byte	.LASF213
 1978 0eed 17       		.byte	0x17
 1979 0eee 84       		.byte	0x84
 1980 0eef 9E0E0000 		.4byte	0xe9e
 1981 0ef3 04       		.byte	0x4
 1982 0ef4 08       		.uleb128 0x8
 1983 0ef5 85070000 		.4byte	.LASF112
 1984 0ef9 17       		.byte	0x17
 1985 0efa 88       		.byte	0x88
 1986 0efb FA000000 		.4byte	0xfa
 1987 0eff 08       		.byte	0x8
 1988 0f00 00       		.byte	0
 1989 0f01 03       		.uleb128 0x3
 1990 0f02 F3030000 		.4byte	.LASF214
 1991 0f06 17       		.byte	0x17
 1992 0f07 89       		.byte	0x89
 1993 0f08 D40E0000 		.4byte	0xed4
 1994 0f0c 1E       		.uleb128 0x1e
 1995 0f0d 07       		.byte	0x7
ARM GAS  /var/folders/qd/4mxf5pkd0zdf0b9dd1hp39180000gn/T//ccobn3Cb.s 			page 36


 1996 0f0e 01       		.byte	0x1
 1997 0f0f 5E000000 		.4byte	0x5e
 1998 0f13 18       		.byte	0x18
 1999 0f14 4A       		.byte	0x4a
 2000 0f15 2C0F0000 		.4byte	0xf2c
 2001 0f19 1F       		.uleb128 0x1f
 2002 0f1a 1C010000 		.4byte	.LASF215
 2003 0f1e 00       		.byte	0
 2004 0f1f 1F       		.uleb128 0x1f
 2005 0f20 4F080000 		.4byte	.LASF216
 2006 0f24 01       		.byte	0x1
 2007 0f25 1F       		.uleb128 0x1f
 2008 0f26 79090000 		.4byte	.LASF217
 2009 0f2a 02       		.byte	0x2
 2010 0f2b 00       		.byte	0
 2011 0f2c 03       		.uleb128 0x3
 2012 0f2d 5F0A0000 		.4byte	.LASF218
 2013 0f31 18       		.byte	0x18
 2014 0f32 4E       		.byte	0x4e
 2015 0f33 0C0F0000 		.4byte	0xf0c
 2016 0f37 03       		.uleb128 0x3
 2017 0f38 7B070000 		.4byte	.LASF219
 2018 0f3c 18       		.byte	0x18
 2019 0f3d 53       		.byte	0x53
 2020 0f3e 420F0000 		.4byte	0xf42
 2021 0f42 0C       		.uleb128 0xc
 2022 0f43 7B070000 		.4byte	.LASF219
 2023 0f47 1C       		.byte	0x1c
 2024 0f48 19       		.byte	0x19
 2025 0f49 7901     		.2byte	0x179
 2026 0f4b AB0F0000 		.4byte	0xfab
 2027 0f4f 0A       		.uleb128 0xa
 2028 0f50 DE000000 		.4byte	.LASF220
 2029 0f54 19       		.byte	0x19
 2030 0f55 7D01     		.2byte	0x17d
 2031 0f57 2C0F0000 		.4byte	0xf2c
 2032 0f5b 00       		.byte	0
 2033 0f5c 0A       		.uleb128 0xa
 2034 0f5d D7000000 		.4byte	.LASF221
 2035 0f61 19       		.byte	0x19
 2036 0f62 8101     		.2byte	0x181
 2037 0f64 A6100000 		.4byte	0x10a6
 2038 0f68 04       		.byte	0x4
 2039 0f69 0A       		.uleb128 0xa
 2040 0f6a D1080000 		.4byte	.LASF222
 2041 0f6e 19       		.byte	0x19
 2042 0f6f 8501     		.2byte	0x185
 2043 0f71 F10F0000 		.4byte	0xff1
 2044 0f75 08       		.byte	0x8
 2045 0f76 0A       		.uleb128 0xa
 2046 0f77 40040000 		.4byte	.LASF223
 2047 0f7b 19       		.byte	0x19
 2048 0f7c 8901     		.2byte	0x189
 2049 0f7e E50F0000 		.4byte	0xfe5
 2050 0f82 0C       		.byte	0xc
 2051 0f83 0A       		.uleb128 0xa
 2052 0f84 38070000 		.4byte	.LASF224
ARM GAS  /var/folders/qd/4mxf5pkd0zdf0b9dd1hp39180000gn/T//ccobn3Cb.s 			page 37


 2053 0f88 19       		.byte	0x19
 2054 0f89 8D01     		.2byte	0x18d
 2055 0f8b D90F0000 		.4byte	0xfd9
 2056 0f8f 10       		.byte	0x10
 2057 0f90 0A       		.uleb128 0xa
 2058 0f91 13050000 		.4byte	.LASF225
 2059 0f95 19       		.byte	0x19
 2060 0f96 9501     		.2byte	0x195
 2061 0f98 DF000000 		.4byte	0xdf
 2062 0f9c 14       		.byte	0x14
 2063 0f9d 09       		.uleb128 0x9
 2064 0f9e 74696D00 		.ascii	"tim\000"
 2065 0fa2 19       		.byte	0x19
 2066 0fa3 9901     		.2byte	0x199
 2067 0fa5 AC100000 		.4byte	0x10ac
 2068 0fa9 18       		.byte	0x18
 2069 0faa 00       		.byte	0
 2070 0fab 03       		.uleb128 0x3
 2071 0fac 63070000 		.4byte	.LASF226
 2072 0fb0 18       		.byte	0x18
 2073 0fb1 5A       		.byte	0x5a
 2074 0fb2 B60F0000 		.4byte	0xfb6
 2075 0fb6 0B       		.uleb128 0xb
 2076 0fb7 04       		.byte	0x4
 2077 0fb8 BC0F0000 		.4byte	0xfbc
 2078 0fbc 0D       		.uleb128 0xd
 2079 0fbd C70F0000 		.4byte	0xfc7
 2080 0fc1 0E       		.uleb128 0xe
 2081 0fc2 C70F0000 		.4byte	0xfc7
 2082 0fc6 00       		.byte	0
 2083 0fc7 0B       		.uleb128 0xb
 2084 0fc8 04       		.byte	0x4
 2085 0fc9 370F0000 		.4byte	0xf37
 2086 0fcd 14       		.uleb128 0x14
 2087 0fce D5030000 		.4byte	.LASF227
 2088 0fd2 19       		.byte	0x19
 2089 0fd3 2501     		.2byte	0x125
 2090 0fd5 DF000000 		.4byte	0xdf
 2091 0fd9 14       		.uleb128 0x14
 2092 0fda 4B020000 		.4byte	.LASF228
 2093 0fde 19       		.byte	0x19
 2094 0fdf 2A01     		.2byte	0x12a
 2095 0fe1 B4000000 		.4byte	0xb4
 2096 0fe5 14       		.uleb128 0x14
 2097 0fe6 C2000000 		.4byte	.LASF229
 2098 0fea 19       		.byte	0x19
 2099 0feb 2F01     		.2byte	0x12f
 2100 0fed DF000000 		.4byte	0xdf
 2101 0ff1 14       		.uleb128 0x14
 2102 0ff2 B6020000 		.4byte	.LASF230
 2103 0ff6 19       		.byte	0x19
 2104 0ff7 3401     		.2byte	0x134
 2105 0ff9 DF000000 		.4byte	0xdf
 2106 0ffd 13       		.uleb128 0x13
 2107 0ffe 08       		.byte	0x8
 2108 0fff 19       		.byte	0x19
 2109 1000 3901     		.2byte	0x139
ARM GAS  /var/folders/qd/4mxf5pkd0zdf0b9dd1hp39180000gn/T//ccobn3Cb.s 			page 38


 2110 1002 21100000 		.4byte	0x1021
 2111 1006 0A       		.uleb128 0xa
 2112 1007 A3090000 		.4byte	.LASF231
 2113 100b 19       		.byte	0x19
 2114 100c 3D01     		.2byte	0x13d
 2115 100e CD0F0000 		.4byte	0xfcd
 2116 1012 00       		.byte	0
 2117 1013 0A       		.uleb128 0xa
 2118 1014 27010000 		.4byte	.LASF232
 2119 1018 19       		.byte	0x19
 2120 1019 4301     		.2byte	0x143
 2121 101b AB0F0000 		.4byte	0xfab
 2122 101f 04       		.byte	0x4
 2123 1020 00       		.byte	0
 2124 1021 14       		.uleb128 0x14
 2125 1022 F6000000 		.4byte	.LASF233
 2126 1026 19       		.byte	0x19
 2127 1027 4501     		.2byte	0x145
 2128 1029 FD0F0000 		.4byte	0xffd
 2129 102d 13       		.uleb128 0x13
 2130 102e 34       		.byte	0x34
 2131 102f 19       		.byte	0x19
 2132 1030 4A01     		.2byte	0x14a
 2133 1032 85100000 		.4byte	0x1085
 2134 1036 0A       		.uleb128 0xa
 2135 1037 A9060000 		.4byte	.LASF234
 2136 103b 19       		.byte	0x19
 2137 103c 5001     		.2byte	0x150
 2138 103e DF000000 		.4byte	0xdf
 2139 1042 00       		.byte	0
 2140 1043 0A       		.uleb128 0xa
 2141 1044 D1080000 		.4byte	.LASF222
 2142 1048 19       		.byte	0x19
 2143 1049 5601     		.2byte	0x156
 2144 104b F10F0000 		.4byte	0xff1
 2145 104f 04       		.byte	0x4
 2146 1050 0A       		.uleb128 0xa
 2147 1051 27010000 		.4byte	.LASF232
 2148 1055 19       		.byte	0x19
 2149 1056 5C01     		.2byte	0x15c
 2150 1058 AB0F0000 		.4byte	0xfab
 2151 105c 08       		.byte	0x8
 2152 105d 0A       		.uleb128 0xa
 2153 105e 38070000 		.4byte	.LASF224
 2154 1062 19       		.byte	0x19
 2155 1063 6001     		.2byte	0x160
 2156 1065 85100000 		.4byte	0x1085
 2157 1069 0C       		.byte	0xc
 2158 106a 09       		.uleb128 0x9
 2159 106b 63723200 		.ascii	"cr2\000"
 2160 106f 19       		.byte	0x19
 2161 1070 6601     		.2byte	0x166
 2162 1072 DF000000 		.4byte	0xdf
 2163 1076 2C       		.byte	0x2c
 2164 1077 0A       		.uleb128 0xa
 2165 1078 17010000 		.4byte	.LASF235
 2166 107c 19       		.byte	0x19
ARM GAS  /var/folders/qd/4mxf5pkd0zdf0b9dd1hp39180000gn/T//ccobn3Cb.s 			page 39


 2167 107d 7301     		.2byte	0x173
 2168 107f DF000000 		.4byte	0xdf
 2169 1083 30       		.byte	0x30
 2170 1084 00       		.byte	0
 2171 1085 15       		.uleb128 0x15
 2172 1086 21100000 		.4byte	0x1021
 2173 108a 95100000 		.4byte	0x1095
 2174 108e 16       		.uleb128 0x16
 2175 108f 37000000 		.4byte	0x37
 2176 1093 03       		.byte	0x3
 2177 1094 00       		.byte	0
 2178 1095 14       		.uleb128 0x14
 2179 1096 160A0000 		.4byte	.LASF236
 2180 109a 19       		.byte	0x19
 2181 109b 7401     		.2byte	0x174
 2182 109d 2D100000 		.4byte	0x102d
 2183 10a1 05       		.uleb128 0x5
 2184 10a2 95100000 		.4byte	0x1095
 2185 10a6 0B       		.uleb128 0xb
 2186 10a7 04       		.byte	0x4
 2187 10a8 A1100000 		.4byte	0x10a1
 2188 10ac 0B       		.uleb128 0xb
 2189 10ad 04       		.byte	0x4
 2190 10ae E1070000 		.4byte	0x7e1
 2191 10b2 11       		.uleb128 0x11
 2192 10b3 4F0A0000 		.4byte	.LASF237
 2193 10b7 19       		.byte	0x19
 2194 10b8 C401     		.2byte	0x1c4
 2195 10ba 370F0000 		.4byte	0xf37
 2196 10be 1E       		.uleb128 0x1e
 2197 10bf 07       		.byte	0x7
 2198 10c0 01       		.byte	0x1
 2199 10c1 5E000000 		.4byte	0x5e
 2200 10c5 1A       		.byte	0x1a
 2201 10c6 55       		.byte	0x55
 2202 10c7 DE100000 		.4byte	0x10de
 2203 10cb 1F       		.uleb128 0x1f
 2204 10cc 1D030000 		.4byte	.LASF238
 2205 10d0 00       		.byte	0
 2206 10d1 1F       		.uleb128 0x1f
 2207 10d2 170B0000 		.4byte	.LASF239
 2208 10d6 01       		.byte	0x1
 2209 10d7 1F       		.uleb128 0x1f
 2210 10d8 36090000 		.4byte	.LASF240
 2211 10dc 02       		.byte	0x2
 2212 10dd 00       		.byte	0
 2213 10de 03       		.uleb128 0x3
 2214 10df 2C090000 		.4byte	.LASF241
 2215 10e3 1A       		.byte	0x1a
 2216 10e4 59       		.byte	0x59
 2217 10e5 BE100000 		.4byte	0x10be
 2218 10e9 03       		.uleb128 0x3
 2219 10ea E0080000 		.4byte	.LASF242
 2220 10ee 1A       		.byte	0x1a
 2221 10ef 5E       		.byte	0x5e
 2222 10f0 F4100000 		.4byte	0x10f4
 2223 10f4 07       		.uleb128 0x7
ARM GAS  /var/folders/qd/4mxf5pkd0zdf0b9dd1hp39180000gn/T//ccobn3Cb.s 			page 40


 2224 10f5 E0080000 		.4byte	.LASF242
 2225 10f9 78       		.byte	0x78
 2226 10fa 1A       		.byte	0x1a
 2227 10fb 78       		.byte	0x78
 2228 10fc 5F110000 		.4byte	0x115f
 2229 1100 17       		.uleb128 0x17
 2230 1101 766D7400 		.ascii	"vmt\000"
 2231 1105 1A       		.byte	0x1a
 2232 1106 7A       		.byte	0x7a
 2233 1107 DD110000 		.4byte	0x11dd
 2234 110b 00       		.byte	0
 2235 110c 08       		.uleb128 0x8
 2236 110d D8060000 		.4byte	.LASF243
 2237 1111 1A       		.byte	0x1a
 2238 1112 7B       		.byte	0x7b
 2239 1113 9A0A0000 		.4byte	0xa9a
 2240 1117 04       		.byte	0x4
 2241 1118 08       		.uleb128 0x8
 2242 1119 DE000000 		.4byte	.LASF220
 2243 111d 1A       		.byte	0x1a
 2244 111e 7B       		.byte	0x7b
 2245 111f DE100000 		.4byte	0x10de
 2246 1123 08       		.byte	0x8
 2247 1124 08       		.uleb128 0x8
 2248 1125 B1090000 		.4byte	.LASF244
 2249 1129 1A       		.byte	0x1a
 2250 112a 7B       		.byte	0x7b
 2251 112b 450B0000 		.4byte	0xb45
 2252 112f 0C       		.byte	0xc
 2253 1130 08       		.uleb128 0x8
 2254 1131 3B020000 		.4byte	.LASF245
 2255 1135 1A       		.byte	0x1a
 2256 1136 7B       		.byte	0x7b
 2257 1137 500B0000 		.4byte	0xb50
 2258 113b 30       		.byte	0x30
 2259 113c 17       		.uleb128 0x17
 2260 113d 696200   		.ascii	"ib\000"
 2261 1140 1A       		.byte	0x1a
 2262 1141 7B       		.byte	0x7b
 2263 1142 E3110000 		.4byte	0x11e3
 2264 1146 54       		.byte	0x54
 2265 1147 17       		.uleb128 0x17
 2266 1148 6F6200   		.ascii	"ob\000"
 2267 114b 1A       		.byte	0x1a
 2268 114c 7B       		.byte	0x7b
 2269 114d E3110000 		.4byte	0x11e3
 2270 1151 64       		.byte	0x64
 2271 1152 08       		.uleb128 0x8
 2272 1153 61020000 		.4byte	.LASF246
 2273 1157 1A       		.byte	0x1a
 2274 1158 7B       		.byte	0x7b
 2275 1159 F3110000 		.4byte	0x11f3
 2276 115d 74       		.byte	0x74
 2277 115e 00       		.byte	0
 2278 115f 1B       		.uleb128 0x1b
 2279 1160 53443200 		.ascii	"SD2\000"
 2280 1164 1B       		.byte	0x1b
ARM GAS  /var/folders/qd/4mxf5pkd0zdf0b9dd1hp39180000gn/T//ccobn3Cb.s 			page 41


 2281 1165 1201     		.2byte	0x112
 2282 1167 E9100000 		.4byte	0x10e9
 2283 116b 07       		.uleb128 0x7
 2284 116c 7F060000 		.4byte	.LASF247
 2285 1170 20       		.byte	0x20
 2286 1171 1A       		.byte	0x1a
 2287 1172 6D       		.byte	0x6d
 2288 1173 D8110000 		.4byte	0x11d8
 2289 1177 08       		.uleb128 0x8
 2290 1178 BC000000 		.4byte	.LASF248
 2291 117c 1A       		.byte	0x1a
 2292 117d 6E       		.byte	0x6e
 2293 117e 7A0B0000 		.4byte	0xb7a
 2294 1182 00       		.byte	0
 2295 1183 08       		.uleb128 0x8
 2296 1184 F2060000 		.4byte	.LASF249
 2297 1188 1A       		.byte	0x1a
 2298 1189 6E       		.byte	0x6e
 2299 118a 990B0000 		.4byte	0xb99
 2300 118e 04       		.byte	0x4
 2301 118f 17       		.uleb128 0x17
 2302 1190 70757400 		.ascii	"put\000"
 2303 1194 1A       		.byte	0x1a
 2304 1195 6E       		.byte	0x6e
 2305 1196 B30B0000 		.4byte	0xbb3
 2306 119a 08       		.byte	0x8
 2307 119b 17       		.uleb128 0x17
 2308 119c 67657400 		.ascii	"get\000"
 2309 11a0 1A       		.byte	0x1a
 2310 11a1 6E       		.byte	0x6e
 2311 11a2 C80B0000 		.4byte	0xbc8
 2312 11a6 0C       		.byte	0xc
 2313 11a7 08       		.uleb128 0x8
 2314 11a8 EB000000 		.4byte	.LASF250
 2315 11ac 1A       		.byte	0x1a
 2316 11ad 6E       		.byte	0x6e
 2317 11ae 690C0000 		.4byte	0xc69
 2318 11b2 10       		.byte	0x10
 2319 11b3 08       		.uleb128 0x8
 2320 11b4 81030000 		.4byte	.LASF251
 2321 11b8 1A       		.byte	0x1a
 2322 11b9 6E       		.byte	0x6e
 2323 11ba 830C0000 		.4byte	0xc83
 2324 11be 14       		.byte	0x14
 2325 11bf 08       		.uleb128 0x8
 2326 11c0 7A000000 		.4byte	.LASF252
 2327 11c4 1A       		.byte	0x1a
 2328 11c5 6E       		.byte	0x6e
 2329 11c6 A70C0000 		.4byte	0xca7
 2330 11ca 18       		.byte	0x18
 2331 11cb 08       		.uleb128 0x8
 2332 11cc AD010000 		.4byte	.LASF253
 2333 11d0 1A       		.byte	0x1a
 2334 11d1 6E       		.byte	0x6e
 2335 11d2 CB0C0000 		.4byte	0xccb
 2336 11d6 1C       		.byte	0x1c
 2337 11d7 00       		.byte	0
ARM GAS  /var/folders/qd/4mxf5pkd0zdf0b9dd1hp39180000gn/T//ccobn3Cb.s 			page 42


 2338 11d8 05       		.uleb128 0x5
 2339 11d9 6B110000 		.4byte	0x116b
 2340 11dd 0B       		.uleb128 0xb
 2341 11de 04       		.byte	0x4
 2342 11df D8110000 		.4byte	0x11d8
 2343 11e3 15       		.uleb128 0x15
 2344 11e4 B4000000 		.4byte	0xb4
 2345 11e8 F3110000 		.4byte	0x11f3
 2346 11ec 16       		.uleb128 0x16
 2347 11ed 37000000 		.4byte	0x37
 2348 11f1 0F       		.byte	0xf
 2349 11f2 00       		.byte	0
 2350 11f3 0B       		.uleb128 0xb
 2351 11f4 04       		.byte	0x4
 2352 11f5 19060000 		.4byte	0x619
 2353 11f9 1E       		.uleb128 0x1e
 2354 11fa 07       		.byte	0x7
 2355 11fb 01       		.byte	0x1
 2356 11fc 5E000000 		.4byte	0x5e
 2357 1200 1C       		.byte	0x1c
 2358 1201 46       		.byte	0x46
 2359 1202 25120000 		.4byte	0x1225
 2360 1206 1F       		.uleb128 0x1f
 2361 1207 DF010000 		.4byte	.LASF254
 2362 120b 00       		.byte	0
 2363 120c 1F       		.uleb128 0x1f
 2364 120d CD010000 		.4byte	.LASF255
 2365 1211 01       		.byte	0x1
 2366 1212 1F       		.uleb128 0x1f
 2367 1213 2B060000 		.4byte	.LASF256
 2368 1217 02       		.byte	0x2
 2369 1218 1F       		.uleb128 0x1f
 2370 1219 1D070000 		.4byte	.LASF257
 2371 121d 03       		.byte	0x3
 2372 121e 1F       		.uleb128 0x1f
 2373 121f 8C0A0000 		.4byte	.LASF258
 2374 1223 04       		.byte	0x4
 2375 1224 00       		.byte	0
 2376 1225 03       		.uleb128 0x3
 2377 1226 EB0A0000 		.4byte	.LASF259
 2378 122a 1C       		.byte	0x1c
 2379 122b 4C       		.byte	0x4c
 2380 122c F9110000 		.4byte	0x11f9
 2381 1230 14       		.uleb128 0x14
 2382 1231 58030000 		.4byte	.LASF260
 2383 1235 1D       		.byte	0x1d
 2384 1236 9601     		.2byte	0x196
 2385 1238 3C120000 		.4byte	0x123c
 2386 123c 0C       		.uleb128 0xc
 2387 123d 58030000 		.4byte	.LASF260
 2388 1241 30       		.byte	0x30
 2389 1242 1D       		.byte	0x1d
 2390 1243 BA01     		.2byte	0x1ba
 2391 1245 BF120000 		.4byte	0x12bf
 2392 1249 0A       		.uleb128 0xa
 2393 124a DE000000 		.4byte	.LASF220
 2394 124e 1D       		.byte	0x1d
ARM GAS  /var/folders/qd/4mxf5pkd0zdf0b9dd1hp39180000gn/T//ccobn3Cb.s 			page 43


 2395 124f BE01     		.2byte	0x1be
 2396 1251 25120000 		.4byte	0x1225
 2397 1255 00       		.byte	0
 2398 1256 0A       		.uleb128 0xa
 2399 1257 D7000000 		.4byte	.LASF221
 2400 125b 1D       		.byte	0x1d
 2401 125c C201     		.2byte	0x1c2
 2402 125e 31130000 		.4byte	0x1331
 2403 1262 04       		.byte	0x4
 2404 1263 0A       		.uleb128 0xa
 2405 1264 58090000 		.4byte	.LASF261
 2406 1268 1D       		.byte	0x1d
 2407 1269 C701     		.2byte	0x1c7
 2408 126b 6B020000 		.4byte	0x26b
 2409 126f 08       		.byte	0x8
 2410 1270 0A       		.uleb128 0xa
 2411 1271 8F060000 		.4byte	.LASF262
 2412 1275 1D       		.byte	0x1d
 2413 1276 CD01     		.2byte	0x1cd
 2414 1278 160A0000 		.4byte	0xa16
 2415 127c 0C       		.byte	0xc
 2416 127d 09       		.uleb128 0x9
 2417 127e 73706900 		.ascii	"spi\000"
 2418 1282 1D       		.byte	0x1d
 2419 1283 D601     		.2byte	0x1d6
 2420 1285 37130000 		.4byte	0x1337
 2421 1289 1C       		.byte	0x1c
 2422 128a 0A       		.uleb128 0xa
 2423 128b 1A060000 		.4byte	.LASF263
 2424 128f 1D       		.byte	0x1d
 2425 1290 DA01     		.2byte	0x1da
 2426 1292 3D130000 		.4byte	0x133d
 2427 1296 20       		.byte	0x20
 2428 1297 0A       		.uleb128 0xa
 2429 1298 DE060000 		.4byte	.LASF264
 2430 129c 1D       		.byte	0x1d
 2431 129d DE01     		.2byte	0x1de
 2432 129f 3D130000 		.4byte	0x133d
 2433 12a3 24       		.byte	0x24
 2434 12a4 0A       		.uleb128 0xa
 2435 12a5 BA060000 		.4byte	.LASF265
 2436 12a9 1D       		.byte	0x1d
 2437 12aa E201     		.2byte	0x1e2
 2438 12ac DF000000 		.4byte	0xdf
 2439 12b0 28       		.byte	0x28
 2440 12b1 0A       		.uleb128 0xa
 2441 12b2 3D0B0000 		.4byte	.LASF266
 2442 12b6 1D       		.byte	0x1d
 2443 12b7 E601     		.2byte	0x1e6
 2444 12b9 DF000000 		.4byte	0xdf
 2445 12bd 2C       		.byte	0x2c
 2446 12be 00       		.byte	0
 2447 12bf 14       		.uleb128 0x14
 2448 12c0 E7020000 		.4byte	.LASF267
 2449 12c4 1D       		.byte	0x1d
 2450 12c5 9E01     		.2byte	0x19e
 2451 12c7 CB120000 		.4byte	0x12cb
ARM GAS  /var/folders/qd/4mxf5pkd0zdf0b9dd1hp39180000gn/T//ccobn3Cb.s 			page 44


 2452 12cb 0B       		.uleb128 0xb
 2453 12cc 04       		.byte	0x4
 2454 12cd D1120000 		.4byte	0x12d1
 2455 12d1 0D       		.uleb128 0xd
 2456 12d2 DC120000 		.4byte	0x12dc
 2457 12d6 0E       		.uleb128 0xe
 2458 12d7 DC120000 		.4byte	0x12dc
 2459 12db 00       		.byte	0
 2460 12dc 0B       		.uleb128 0xb
 2461 12dd 04       		.byte	0x4
 2462 12de 30120000 		.4byte	0x1230
 2463 12e2 13       		.uleb128 0x13
 2464 12e3 0C       		.byte	0xc
 2465 12e4 1D       		.byte	0x1d
 2466 12e5 A301     		.2byte	0x1a3
 2467 12e7 20130000 		.4byte	0x1320
 2468 12eb 0A       		.uleb128 0xa
 2469 12ec 71010000 		.4byte	.LASF268
 2470 12f0 1D       		.byte	0x1d
 2471 12f1 A701     		.2byte	0x1a7
 2472 12f3 BF120000 		.4byte	0x12bf
 2473 12f7 00       		.byte	0
 2474 12f8 0A       		.uleb128 0xa
 2475 12f9 AC000000 		.4byte	.LASF269
 2476 12fd 1D       		.byte	0x1d
 2477 12fe AC01     		.2byte	0x1ac
 2478 1300 B60E0000 		.4byte	0xeb6
 2479 1304 04       		.byte	0x4
 2480 1305 0A       		.uleb128 0xa
 2481 1306 290B0000 		.4byte	.LASF270
 2482 130a 1D       		.byte	0x1d
 2483 130b B001     		.2byte	0x1b0
 2484 130d C4000000 		.4byte	0xc4
 2485 1311 08       		.byte	0x8
 2486 1312 09       		.uleb128 0x9
 2487 1313 63723100 		.ascii	"cr1\000"
 2488 1317 1D       		.byte	0x1d
 2489 1318 B401     		.2byte	0x1b4
 2490 131a C4000000 		.4byte	0xc4
 2491 131e 0A       		.byte	0xa
 2492 131f 00       		.byte	0
 2493 1320 14       		.uleb128 0x14
 2494 1321 13070000 		.4byte	.LASF271
 2495 1325 1D       		.byte	0x1d
 2496 1326 B501     		.2byte	0x1b5
 2497 1328 E2120000 		.4byte	0x12e2
 2498 132c 05       		.uleb128 0x5
 2499 132d 20130000 		.4byte	0x1320
 2500 1331 0B       		.uleb128 0xb
 2501 1332 04       		.byte	0x4
 2502 1333 2C130000 		.4byte	0x132c
 2503 1337 0B       		.uleb128 0xb
 2504 1338 04       		.byte	0x4
 2505 1339 AA050000 		.4byte	0x5aa
 2506 133d 0B       		.uleb128 0xb
 2507 133e 04       		.byte	0x4
 2508 133f 2A0C0000 		.4byte	0xc2a
ARM GAS  /var/folders/qd/4mxf5pkd0zdf0b9dd1hp39180000gn/T//ccobn3Cb.s 			page 45


 2509 1343 11       		.uleb128 0x11
 2510 1344 F0000000 		.4byte	.LASF272
 2511 1348 1D       		.byte	0x1d
 2512 1349 F201     		.2byte	0x1f2
 2513 134b 30120000 		.4byte	0x1230
 2514 134f 11       		.uleb128 0x11
 2515 1350 E5030000 		.4byte	.LASF273
 2516 1354 1D       		.byte	0x1d
 2517 1355 F601     		.2byte	0x1f6
 2518 1357 30120000 		.4byte	0x1230
 2519 135b 20       		.uleb128 0x20
 2520 135c 080A0000 		.4byte	.LASF274
 2521 1360 01       		.byte	0x1
 2522 1361 71       		.byte	0x71
 2523 1362 00000000 		.4byte	.LFB262
 2524 1366 0E000000 		.4byte	.LFE262-.LFB262
 2525 136a 01       		.uleb128 0x1
 2526 136b 9C       		.byte	0x9c
 2527 136c A9130000 		.4byte	0x13a9
 2528 1370 21       		.uleb128 0x21
 2529 1371 62757300 		.ascii	"bus\000"
 2530 1375 01       		.byte	0x1
 2531 1376 71       		.byte	0x71
 2532 1377 A9130000 		.4byte	0x13a9
 2533 137b 00000000 		.4byte	.LLST3
 2534 137f 22       		.uleb128 0x22
 2535 1380 A3090000 		.4byte	.LASF231
 2536 1384 01       		.byte	0x1
 2537 1385 71       		.byte	0x71
 2538 1386 AA0E0000 		.4byte	0xeaa
 2539 138a 21000000 		.4byte	.LLST4
 2540 138e 23       		.uleb128 0x23
 2541 138f B3000000 		.4byte	.LASF277
 2542 1393 BF130000 		.4byte	0x13bf
 2543 1397 24       		.uleb128 0x24
 2544 1398 0E000000 		.4byte	.LVL8
 2545 139c 5D140000 		.4byte	0x145d
 2546 13a0 25       		.uleb128 0x25
 2547 13a1 01       		.uleb128 0x1
 2548 13a2 52       		.byte	0x52
 2549 13a3 03       		.uleb128 0x3
 2550 13a4 F3       		.byte	0xf3
 2551 13a5 01       		.uleb128 0x1
 2552 13a6 51       		.byte	0x51
 2553 13a7 00       		.byte	0
 2554 13a8 00       		.byte	0
 2555 13a9 0B       		.uleb128 0xb
 2556 13aa 04       		.byte	0x4
 2557 13ab 010F0000 		.4byte	0xf01
 2558 13af 15       		.uleb128 0x15
 2559 13b0 E4080000 		.4byte	0x8e4
 2560 13b4 BF130000 		.4byte	0x13bf
 2561 13b8 16       		.uleb128 0x16
 2562 13b9 37000000 		.4byte	0x37
 2563 13bd 0D       		.byte	0xd
 2564 13be 00       		.byte	0
 2565 13bf 05       		.uleb128 0x5
ARM GAS  /var/folders/qd/4mxf5pkd0zdf0b9dd1hp39180000gn/T//ccobn3Cb.s 			page 46


 2566 13c0 AF130000 		.4byte	0x13af
 2567 13c4 20       		.uleb128 0x20
 2568 13c5 DF070000 		.4byte	.LASF275
 2569 13c9 01       		.byte	0x1
 2570 13ca 5A       		.byte	0x5a
 2571 13cb 00000000 		.4byte	.LFB261
 2572 13cf 1E000000 		.4byte	.LFE261-.LFB261
 2573 13d3 01       		.uleb128 0x1
 2574 13d4 9C       		.byte	0x9c
 2575 13d5 01140000 		.4byte	0x1401
 2576 13d9 21       		.uleb128 0x21
 2577 13da 62757300 		.ascii	"bus\000"
 2578 13de 01       		.byte	0x1
 2579 13df 5A       		.byte	0x5a
 2580 13e0 A9130000 		.4byte	0x13a9
 2581 13e4 4D000000 		.4byte	.LLST1
 2582 13e8 22       		.uleb128 0x22
 2583 13e9 5E070000 		.4byte	.LASF276
 2584 13ed 01       		.byte	0x1
 2585 13ee 5A       		.byte	0x5a
 2586 13ef 9E0E0000 		.4byte	0xe9e
 2587 13f3 6E000000 		.4byte	.LLST2
 2588 13f7 23       		.uleb128 0x23
 2589 13f8 B3000000 		.4byte	.LASF277
 2590 13fc 11140000 		.4byte	0x1411
 2591 1400 00       		.byte	0
 2592 1401 15       		.uleb128 0x15
 2593 1402 E4080000 		.4byte	0x8e4
 2594 1406 11140000 		.4byte	0x1411
 2595 140a 16       		.uleb128 0x16
 2596 140b 37000000 		.4byte	0x37
 2597 140f 0B       		.byte	0xb
 2598 1410 00       		.byte	0
 2599 1411 05       		.uleb128 0x5
 2600 1412 01140000 		.4byte	0x1401
 2601 1416 26       		.uleb128 0x26
 2602 1417 B8090000 		.4byte	.LASF281
 2603 141b 01       		.byte	0x1
 2604 141c 41       		.byte	0x41
 2605 141d 9E0E0000 		.4byte	0xe9e
 2606 1421 00000000 		.4byte	.LFB260
 2607 1425 0E000000 		.4byte	.LFE260-.LFB260
 2608 1429 01       		.uleb128 0x1
 2609 142a 9C       		.byte	0x9c
 2610 142b 48140000 		.4byte	0x1448
 2611 142f 21       		.uleb128 0x21
 2612 1430 62757300 		.ascii	"bus\000"
 2613 1434 01       		.byte	0x1
 2614 1435 41       		.byte	0x41
 2615 1436 A9130000 		.4byte	0x13a9
 2616 143a 8F000000 		.4byte	.LLST0
 2617 143e 23       		.uleb128 0x23
 2618 143f B3000000 		.4byte	.LASF277
 2619 1443 58140000 		.4byte	0x1458
 2620 1447 00       		.byte	0
 2621 1448 15       		.uleb128 0x15
 2622 1449 E4080000 		.4byte	0x8e4
ARM GAS  /var/folders/qd/4mxf5pkd0zdf0b9dd1hp39180000gn/T//ccobn3Cb.s 			page 47


 2623 144d 58140000 		.4byte	0x1458
 2624 1451 16       		.uleb128 0x16
 2625 1452 37000000 		.4byte	0x37
 2626 1456 0A       		.byte	0xa
 2627 1457 00       		.byte	0
 2628 1458 05       		.uleb128 0x5
 2629 1459 48140000 		.4byte	0x1448
 2630 145d 27       		.uleb128 0x27
 2631 145e 39010000 		.4byte	.LASF282
 2632 1462 39010000 		.4byte	.LASF282
 2633 1466 16       		.byte	0x16
 2634 1467 E001     		.2byte	0x1e0
 2635 1469 00       		.byte	0
 2636              		.section	.debug_abbrev,"",%progbits
 2637              	.Ldebug_abbrev0:
 2638 0000 01       		.uleb128 0x1
 2639 0001 11       		.uleb128 0x11
 2640 0002 01       		.byte	0x1
 2641 0003 25       		.uleb128 0x25
 2642 0004 0E       		.uleb128 0xe
 2643 0005 13       		.uleb128 0x13
 2644 0006 0B       		.uleb128 0xb
 2645 0007 03       		.uleb128 0x3
 2646 0008 0E       		.uleb128 0xe
 2647 0009 1B       		.uleb128 0x1b
 2648 000a 0E       		.uleb128 0xe
 2649 000b 55       		.uleb128 0x55
 2650 000c 17       		.uleb128 0x17
 2651 000d 11       		.uleb128 0x11
 2652 000e 01       		.uleb128 0x1
 2653 000f 10       		.uleb128 0x10
 2654 0010 17       		.uleb128 0x17
 2655 0011 00       		.byte	0
 2656 0012 00       		.byte	0
 2657 0013 02       		.uleb128 0x2
 2658 0014 24       		.uleb128 0x24
 2659 0015 00       		.byte	0
 2660 0016 0B       		.uleb128 0xb
 2661 0017 0B       		.uleb128 0xb
 2662 0018 3E       		.uleb128 0x3e
 2663 0019 0B       		.uleb128 0xb
 2664 001a 03       		.uleb128 0x3
 2665 001b 08       		.uleb128 0x8
 2666 001c 00       		.byte	0
 2667 001d 00       		.byte	0
 2668 001e 03       		.uleb128 0x3
 2669 001f 16       		.uleb128 0x16
 2670 0020 00       		.byte	0
 2671 0021 03       		.uleb128 0x3
 2672 0022 0E       		.uleb128 0xe
 2673 0023 3A       		.uleb128 0x3a
 2674 0024 0B       		.uleb128 0xb
 2675 0025 3B       		.uleb128 0x3b
 2676 0026 0B       		.uleb128 0xb
 2677 0027 49       		.uleb128 0x49
 2678 0028 13       		.uleb128 0x13
 2679 0029 00       		.byte	0
ARM GAS  /var/folders/qd/4mxf5pkd0zdf0b9dd1hp39180000gn/T//ccobn3Cb.s 			page 48


 2680 002a 00       		.byte	0
 2681 002b 04       		.uleb128 0x4
 2682 002c 24       		.uleb128 0x24
 2683 002d 00       		.byte	0
 2684 002e 0B       		.uleb128 0xb
 2685 002f 0B       		.uleb128 0xb
 2686 0030 3E       		.uleb128 0x3e
 2687 0031 0B       		.uleb128 0xb
 2688 0032 03       		.uleb128 0x3
 2689 0033 0E       		.uleb128 0xe
 2690 0034 00       		.byte	0
 2691 0035 00       		.byte	0
 2692 0036 05       		.uleb128 0x5
 2693 0037 26       		.uleb128 0x26
 2694 0038 00       		.byte	0
 2695 0039 49       		.uleb128 0x49
 2696 003a 13       		.uleb128 0x13
 2697 003b 00       		.byte	0
 2698 003c 00       		.byte	0
 2699 003d 06       		.uleb128 0x6
 2700 003e 35       		.uleb128 0x35
 2701 003f 00       		.byte	0
 2702 0040 49       		.uleb128 0x49
 2703 0041 13       		.uleb128 0x13
 2704 0042 00       		.byte	0
 2705 0043 00       		.byte	0
 2706 0044 07       		.uleb128 0x7
 2707 0045 13       		.uleb128 0x13
 2708 0046 01       		.byte	0x1
 2709 0047 03       		.uleb128 0x3
 2710 0048 0E       		.uleb128 0xe
 2711 0049 0B       		.uleb128 0xb
 2712 004a 0B       		.uleb128 0xb
 2713 004b 3A       		.uleb128 0x3a
 2714 004c 0B       		.uleb128 0xb
 2715 004d 3B       		.uleb128 0x3b
 2716 004e 0B       		.uleb128 0xb
 2717 004f 01       		.uleb128 0x1
 2718 0050 13       		.uleb128 0x13
 2719 0051 00       		.byte	0
 2720 0052 00       		.byte	0
 2721 0053 08       		.uleb128 0x8
 2722 0054 0D       		.uleb128 0xd
 2723 0055 00       		.byte	0
 2724 0056 03       		.uleb128 0x3
 2725 0057 0E       		.uleb128 0xe
 2726 0058 3A       		.uleb128 0x3a
 2727 0059 0B       		.uleb128 0xb
 2728 005a 3B       		.uleb128 0x3b
 2729 005b 0B       		.uleb128 0xb
 2730 005c 49       		.uleb128 0x49
 2731 005d 13       		.uleb128 0x13
 2732 005e 38       		.uleb128 0x38
 2733 005f 0B       		.uleb128 0xb
 2734 0060 00       		.byte	0
 2735 0061 00       		.byte	0
 2736 0062 09       		.uleb128 0x9
ARM GAS  /var/folders/qd/4mxf5pkd0zdf0b9dd1hp39180000gn/T//ccobn3Cb.s 			page 49


 2737 0063 0D       		.uleb128 0xd
 2738 0064 00       		.byte	0
 2739 0065 03       		.uleb128 0x3
 2740 0066 08       		.uleb128 0x8
 2741 0067 3A       		.uleb128 0x3a
 2742 0068 0B       		.uleb128 0xb
 2743 0069 3B       		.uleb128 0x3b
 2744 006a 05       		.uleb128 0x5
 2745 006b 49       		.uleb128 0x49
 2746 006c 13       		.uleb128 0x13
 2747 006d 38       		.uleb128 0x38
 2748 006e 0B       		.uleb128 0xb
 2749 006f 00       		.byte	0
 2750 0070 00       		.byte	0
 2751 0071 0A       		.uleb128 0xa
 2752 0072 0D       		.uleb128 0xd
 2753 0073 00       		.byte	0
 2754 0074 03       		.uleb128 0x3
 2755 0075 0E       		.uleb128 0xe
 2756 0076 3A       		.uleb128 0x3a
 2757 0077 0B       		.uleb128 0xb
 2758 0078 3B       		.uleb128 0x3b
 2759 0079 05       		.uleb128 0x5
 2760 007a 49       		.uleb128 0x49
 2761 007b 13       		.uleb128 0x13
 2762 007c 38       		.uleb128 0x38
 2763 007d 0B       		.uleb128 0xb
 2764 007e 00       		.byte	0
 2765 007f 00       		.byte	0
 2766 0080 0B       		.uleb128 0xb
 2767 0081 0F       		.uleb128 0xf
 2768 0082 00       		.byte	0
 2769 0083 0B       		.uleb128 0xb
 2770 0084 0B       		.uleb128 0xb
 2771 0085 49       		.uleb128 0x49
 2772 0086 13       		.uleb128 0x13
 2773 0087 00       		.byte	0
 2774 0088 00       		.byte	0
 2775 0089 0C       		.uleb128 0xc
 2776 008a 13       		.uleb128 0x13
 2777 008b 01       		.byte	0x1
 2778 008c 03       		.uleb128 0x3
 2779 008d 0E       		.uleb128 0xe
 2780 008e 0B       		.uleb128 0xb
 2781 008f 0B       		.uleb128 0xb
 2782 0090 3A       		.uleb128 0x3a
 2783 0091 0B       		.uleb128 0xb
 2784 0092 3B       		.uleb128 0x3b
 2785 0093 05       		.uleb128 0x5
 2786 0094 01       		.uleb128 0x1
 2787 0095 13       		.uleb128 0x13
 2788 0096 00       		.byte	0
 2789 0097 00       		.byte	0
 2790 0098 0D       		.uleb128 0xd
 2791 0099 15       		.uleb128 0x15
 2792 009a 01       		.byte	0x1
 2793 009b 27       		.uleb128 0x27
ARM GAS  /var/folders/qd/4mxf5pkd0zdf0b9dd1hp39180000gn/T//ccobn3Cb.s 			page 50


 2794 009c 19       		.uleb128 0x19
 2795 009d 01       		.uleb128 0x1
 2796 009e 13       		.uleb128 0x13
 2797 009f 00       		.byte	0
 2798 00a0 00       		.byte	0
 2799 00a1 0E       		.uleb128 0xe
 2800 00a2 05       		.uleb128 0x5
 2801 00a3 00       		.byte	0
 2802 00a4 49       		.uleb128 0x49
 2803 00a5 13       		.uleb128 0x13
 2804 00a6 00       		.byte	0
 2805 00a7 00       		.byte	0
 2806 00a8 0F       		.uleb128 0xf
 2807 00a9 0F       		.uleb128 0xf
 2808 00aa 00       		.byte	0
 2809 00ab 0B       		.uleb128 0xb
 2810 00ac 0B       		.uleb128 0xb
 2811 00ad 00       		.byte	0
 2812 00ae 00       		.byte	0
 2813 00af 10       		.uleb128 0x10
 2814 00b0 13       		.uleb128 0x13
 2815 00b1 01       		.byte	0x1
 2816 00b2 03       		.uleb128 0x3
 2817 00b3 0E       		.uleb128 0xe
 2818 00b4 0B       		.uleb128 0xb
 2819 00b5 05       		.uleb128 0x5
 2820 00b6 3A       		.uleb128 0x3a
 2821 00b7 0B       		.uleb128 0xb
 2822 00b8 3B       		.uleb128 0x3b
 2823 00b9 05       		.uleb128 0x5
 2824 00ba 01       		.uleb128 0x1
 2825 00bb 13       		.uleb128 0x13
 2826 00bc 00       		.byte	0
 2827 00bd 00       		.byte	0
 2828 00be 11       		.uleb128 0x11
 2829 00bf 34       		.uleb128 0x34
 2830 00c0 00       		.byte	0
 2831 00c1 03       		.uleb128 0x3
 2832 00c2 0E       		.uleb128 0xe
 2833 00c3 3A       		.uleb128 0x3a
 2834 00c4 0B       		.uleb128 0xb
 2835 00c5 3B       		.uleb128 0x3b
 2836 00c6 05       		.uleb128 0x5
 2837 00c7 49       		.uleb128 0x49
 2838 00c8 13       		.uleb128 0x13
 2839 00c9 3F       		.uleb128 0x3f
 2840 00ca 19       		.uleb128 0x19
 2841 00cb 3C       		.uleb128 0x3c
 2842 00cc 19       		.uleb128 0x19
 2843 00cd 00       		.byte	0
 2844 00ce 00       		.byte	0
 2845 00cf 12       		.uleb128 0x12
 2846 00d0 34       		.uleb128 0x34
 2847 00d1 00       		.byte	0
 2848 00d2 03       		.uleb128 0x3
 2849 00d3 0E       		.uleb128 0xe
 2850 00d4 3A       		.uleb128 0x3a
ARM GAS  /var/folders/qd/4mxf5pkd0zdf0b9dd1hp39180000gn/T//ccobn3Cb.s 			page 51


 2851 00d5 0B       		.uleb128 0xb
 2852 00d6 3B       		.uleb128 0x3b
 2853 00d7 0B       		.uleb128 0xb
 2854 00d8 49       		.uleb128 0x49
 2855 00d9 13       		.uleb128 0x13
 2856 00da 3F       		.uleb128 0x3f
 2857 00db 19       		.uleb128 0x19
 2858 00dc 3C       		.uleb128 0x3c
 2859 00dd 19       		.uleb128 0x19
 2860 00de 00       		.byte	0
 2861 00df 00       		.byte	0
 2862 00e0 13       		.uleb128 0x13
 2863 00e1 13       		.uleb128 0x13
 2864 00e2 01       		.byte	0x1
 2865 00e3 0B       		.uleb128 0xb
 2866 00e4 0B       		.uleb128 0xb
 2867 00e5 3A       		.uleb128 0x3a
 2868 00e6 0B       		.uleb128 0xb
 2869 00e7 3B       		.uleb128 0x3b
 2870 00e8 05       		.uleb128 0x5
 2871 00e9 01       		.uleb128 0x1
 2872 00ea 13       		.uleb128 0x13
 2873 00eb 00       		.byte	0
 2874 00ec 00       		.byte	0
 2875 00ed 14       		.uleb128 0x14
 2876 00ee 16       		.uleb128 0x16
 2877 00ef 00       		.byte	0
 2878 00f0 03       		.uleb128 0x3
 2879 00f1 0E       		.uleb128 0xe
 2880 00f2 3A       		.uleb128 0x3a
 2881 00f3 0B       		.uleb128 0xb
 2882 00f4 3B       		.uleb128 0x3b
 2883 00f5 05       		.uleb128 0x5
 2884 00f6 49       		.uleb128 0x49
 2885 00f7 13       		.uleb128 0x13
 2886 00f8 00       		.byte	0
 2887 00f9 00       		.byte	0
 2888 00fa 15       		.uleb128 0x15
 2889 00fb 01       		.uleb128 0x1
 2890 00fc 01       		.byte	0x1
 2891 00fd 49       		.uleb128 0x49
 2892 00fe 13       		.uleb128 0x13
 2893 00ff 01       		.uleb128 0x1
 2894 0100 13       		.uleb128 0x13
 2895 0101 00       		.byte	0
 2896 0102 00       		.byte	0
 2897 0103 16       		.uleb128 0x16
 2898 0104 21       		.uleb128 0x21
 2899 0105 00       		.byte	0
 2900 0106 49       		.uleb128 0x49
 2901 0107 13       		.uleb128 0x13
 2902 0108 2F       		.uleb128 0x2f
 2903 0109 0B       		.uleb128 0xb
 2904 010a 00       		.byte	0
 2905 010b 00       		.byte	0
 2906 010c 17       		.uleb128 0x17
 2907 010d 0D       		.uleb128 0xd
ARM GAS  /var/folders/qd/4mxf5pkd0zdf0b9dd1hp39180000gn/T//ccobn3Cb.s 			page 52


 2908 010e 00       		.byte	0
 2909 010f 03       		.uleb128 0x3
 2910 0110 08       		.uleb128 0x8
 2911 0111 3A       		.uleb128 0x3a
 2912 0112 0B       		.uleb128 0xb
 2913 0113 3B       		.uleb128 0x3b
 2914 0114 0B       		.uleb128 0xb
 2915 0115 49       		.uleb128 0x49
 2916 0116 13       		.uleb128 0x13
 2917 0117 38       		.uleb128 0x38
 2918 0118 0B       		.uleb128 0xb
 2919 0119 00       		.byte	0
 2920 011a 00       		.byte	0
 2921 011b 18       		.uleb128 0x18
 2922 011c 13       		.uleb128 0x13
 2923 011d 01       		.byte	0x1
 2924 011e 0B       		.uleb128 0xb
 2925 011f 0B       		.uleb128 0xb
 2926 0120 3A       		.uleb128 0x3a
 2927 0121 0B       		.uleb128 0xb
 2928 0122 3B       		.uleb128 0x3b
 2929 0123 0B       		.uleb128 0xb
 2930 0124 01       		.uleb128 0x1
 2931 0125 13       		.uleb128 0x13
 2932 0126 00       		.byte	0
 2933 0127 00       		.byte	0
 2934 0128 19       		.uleb128 0x19
 2935 0129 17       		.uleb128 0x17
 2936 012a 01       		.byte	0x1
 2937 012b 0B       		.uleb128 0xb
 2938 012c 0B       		.uleb128 0xb
 2939 012d 3A       		.uleb128 0x3a
 2940 012e 0B       		.uleb128 0xb
 2941 012f 3B       		.uleb128 0x3b
 2942 0130 0B       		.uleb128 0xb
 2943 0131 01       		.uleb128 0x1
 2944 0132 13       		.uleb128 0x13
 2945 0133 00       		.byte	0
 2946 0134 00       		.byte	0
 2947 0135 1A       		.uleb128 0x1a
 2948 0136 0D       		.uleb128 0xd
 2949 0137 00       		.byte	0
 2950 0138 03       		.uleb128 0x3
 2951 0139 0E       		.uleb128 0xe
 2952 013a 3A       		.uleb128 0x3a
 2953 013b 0B       		.uleb128 0xb
 2954 013c 3B       		.uleb128 0x3b
 2955 013d 05       		.uleb128 0x5
 2956 013e 49       		.uleb128 0x49
 2957 013f 13       		.uleb128 0x13
 2958 0140 00       		.byte	0
 2959 0141 00       		.byte	0
 2960 0142 1B       		.uleb128 0x1b
 2961 0143 34       		.uleb128 0x34
 2962 0144 00       		.byte	0
 2963 0145 03       		.uleb128 0x3
 2964 0146 08       		.uleb128 0x8
ARM GAS  /var/folders/qd/4mxf5pkd0zdf0b9dd1hp39180000gn/T//ccobn3Cb.s 			page 53


 2965 0147 3A       		.uleb128 0x3a
 2966 0148 0B       		.uleb128 0xb
 2967 0149 3B       		.uleb128 0x3b
 2968 014a 05       		.uleb128 0x5
 2969 014b 49       		.uleb128 0x49
 2970 014c 13       		.uleb128 0x13
 2971 014d 3F       		.uleb128 0x3f
 2972 014e 19       		.uleb128 0x19
 2973 014f 3C       		.uleb128 0x3c
 2974 0150 19       		.uleb128 0x19
 2975 0151 00       		.byte	0
 2976 0152 00       		.byte	0
 2977 0153 1C       		.uleb128 0x1c
 2978 0154 15       		.uleb128 0x15
 2979 0155 01       		.byte	0x1
 2980 0156 27       		.uleb128 0x27
 2981 0157 19       		.uleb128 0x19
 2982 0158 49       		.uleb128 0x49
 2983 0159 13       		.uleb128 0x13
 2984 015a 01       		.uleb128 0x1
 2985 015b 13       		.uleb128 0x13
 2986 015c 00       		.byte	0
 2987 015d 00       		.byte	0
 2988 015e 1D       		.uleb128 0x1d
 2989 015f 0D       		.uleb128 0xd
 2990 0160 00       		.byte	0
 2991 0161 03       		.uleb128 0x3
 2992 0162 08       		.uleb128 0x8
 2993 0163 3A       		.uleb128 0x3a
 2994 0164 0B       		.uleb128 0xb
 2995 0165 3B       		.uleb128 0x3b
 2996 0166 0B       		.uleb128 0xb
 2997 0167 49       		.uleb128 0x49
 2998 0168 13       		.uleb128 0x13
 2999 0169 00       		.byte	0
 3000 016a 00       		.byte	0
 3001 016b 1E       		.uleb128 0x1e
 3002 016c 04       		.uleb128 0x4
 3003 016d 01       		.byte	0x1
 3004 016e 3E       		.uleb128 0x3e
 3005 016f 0B       		.uleb128 0xb
 3006 0170 0B       		.uleb128 0xb
 3007 0171 0B       		.uleb128 0xb
 3008 0172 49       		.uleb128 0x49
 3009 0173 13       		.uleb128 0x13
 3010 0174 3A       		.uleb128 0x3a
 3011 0175 0B       		.uleb128 0xb
 3012 0176 3B       		.uleb128 0x3b
 3013 0177 0B       		.uleb128 0xb
 3014 0178 01       		.uleb128 0x1
 3015 0179 13       		.uleb128 0x13
 3016 017a 00       		.byte	0
 3017 017b 00       		.byte	0
 3018 017c 1F       		.uleb128 0x1f
 3019 017d 28       		.uleb128 0x28
 3020 017e 00       		.byte	0
 3021 017f 03       		.uleb128 0x3
ARM GAS  /var/folders/qd/4mxf5pkd0zdf0b9dd1hp39180000gn/T//ccobn3Cb.s 			page 54


 3022 0180 0E       		.uleb128 0xe
 3023 0181 1C       		.uleb128 0x1c
 3024 0182 0B       		.uleb128 0xb
 3025 0183 00       		.byte	0
 3026 0184 00       		.byte	0
 3027 0185 20       		.uleb128 0x20
 3028 0186 2E       		.uleb128 0x2e
 3029 0187 01       		.byte	0x1
 3030 0188 3F       		.uleb128 0x3f
 3031 0189 19       		.uleb128 0x19
 3032 018a 03       		.uleb128 0x3
 3033 018b 0E       		.uleb128 0xe
 3034 018c 3A       		.uleb128 0x3a
 3035 018d 0B       		.uleb128 0xb
 3036 018e 3B       		.uleb128 0x3b
 3037 018f 0B       		.uleb128 0xb
 3038 0190 27       		.uleb128 0x27
 3039 0191 19       		.uleb128 0x19
 3040 0192 11       		.uleb128 0x11
 3041 0193 01       		.uleb128 0x1
 3042 0194 12       		.uleb128 0x12
 3043 0195 06       		.uleb128 0x6
 3044 0196 40       		.uleb128 0x40
 3045 0197 18       		.uleb128 0x18
 3046 0198 9742     		.uleb128 0x2117
 3047 019a 19       		.uleb128 0x19
 3048 019b 01       		.uleb128 0x1
 3049 019c 13       		.uleb128 0x13
 3050 019d 00       		.byte	0
 3051 019e 00       		.byte	0
 3052 019f 21       		.uleb128 0x21
 3053 01a0 05       		.uleb128 0x5
 3054 01a1 00       		.byte	0
 3055 01a2 03       		.uleb128 0x3
 3056 01a3 08       		.uleb128 0x8
 3057 01a4 3A       		.uleb128 0x3a
 3058 01a5 0B       		.uleb128 0xb
 3059 01a6 3B       		.uleb128 0x3b
 3060 01a7 0B       		.uleb128 0xb
 3061 01a8 49       		.uleb128 0x49
 3062 01a9 13       		.uleb128 0x13
 3063 01aa 02       		.uleb128 0x2
 3064 01ab 17       		.uleb128 0x17
 3065 01ac 00       		.byte	0
 3066 01ad 00       		.byte	0
 3067 01ae 22       		.uleb128 0x22
 3068 01af 05       		.uleb128 0x5
 3069 01b0 00       		.byte	0
 3070 01b1 03       		.uleb128 0x3
 3071 01b2 0E       		.uleb128 0xe
 3072 01b3 3A       		.uleb128 0x3a
 3073 01b4 0B       		.uleb128 0xb
 3074 01b5 3B       		.uleb128 0x3b
 3075 01b6 0B       		.uleb128 0xb
 3076 01b7 49       		.uleb128 0x49
 3077 01b8 13       		.uleb128 0x13
 3078 01b9 02       		.uleb128 0x2
ARM GAS  /var/folders/qd/4mxf5pkd0zdf0b9dd1hp39180000gn/T//ccobn3Cb.s 			page 55


 3079 01ba 17       		.uleb128 0x17
 3080 01bb 00       		.byte	0
 3081 01bc 00       		.byte	0
 3082 01bd 23       		.uleb128 0x23
 3083 01be 34       		.uleb128 0x34
 3084 01bf 00       		.byte	0
 3085 01c0 03       		.uleb128 0x3
 3086 01c1 0E       		.uleb128 0xe
 3087 01c2 49       		.uleb128 0x49
 3088 01c3 13       		.uleb128 0x13
 3089 01c4 34       		.uleb128 0x34
 3090 01c5 19       		.uleb128 0x19
 3091 01c6 00       		.byte	0
 3092 01c7 00       		.byte	0
 3093 01c8 24       		.uleb128 0x24
 3094 01c9 898201   		.uleb128 0x4109
 3095 01cc 01       		.byte	0x1
 3096 01cd 11       		.uleb128 0x11
 3097 01ce 01       		.uleb128 0x1
 3098 01cf 9542     		.uleb128 0x2115
 3099 01d1 19       		.uleb128 0x19
 3100 01d2 31       		.uleb128 0x31
 3101 01d3 13       		.uleb128 0x13
 3102 01d4 00       		.byte	0
 3103 01d5 00       		.byte	0
 3104 01d6 25       		.uleb128 0x25
 3105 01d7 8A8201   		.uleb128 0x410a
 3106 01da 00       		.byte	0
 3107 01db 02       		.uleb128 0x2
 3108 01dc 18       		.uleb128 0x18
 3109 01dd 9142     		.uleb128 0x2111
 3110 01df 18       		.uleb128 0x18
 3111 01e0 00       		.byte	0
 3112 01e1 00       		.byte	0
 3113 01e2 26       		.uleb128 0x26
 3114 01e3 2E       		.uleb128 0x2e
 3115 01e4 01       		.byte	0x1
 3116 01e5 3F       		.uleb128 0x3f
 3117 01e6 19       		.uleb128 0x19
 3118 01e7 03       		.uleb128 0x3
 3119 01e8 0E       		.uleb128 0xe
 3120 01e9 3A       		.uleb128 0x3a
 3121 01ea 0B       		.uleb128 0xb
 3122 01eb 3B       		.uleb128 0x3b
 3123 01ec 0B       		.uleb128 0xb
 3124 01ed 27       		.uleb128 0x27
 3125 01ee 19       		.uleb128 0x19
 3126 01ef 49       		.uleb128 0x49
 3127 01f0 13       		.uleb128 0x13
 3128 01f1 11       		.uleb128 0x11
 3129 01f2 01       		.uleb128 0x1
 3130 01f3 12       		.uleb128 0x12
 3131 01f4 06       		.uleb128 0x6
 3132 01f5 40       		.uleb128 0x40
 3133 01f6 18       		.uleb128 0x18
 3134 01f7 9742     		.uleb128 0x2117
 3135 01f9 19       		.uleb128 0x19
ARM GAS  /var/folders/qd/4mxf5pkd0zdf0b9dd1hp39180000gn/T//ccobn3Cb.s 			page 56


 3136 01fa 01       		.uleb128 0x1
 3137 01fb 13       		.uleb128 0x13
 3138 01fc 00       		.byte	0
 3139 01fd 00       		.byte	0
 3140 01fe 27       		.uleb128 0x27
 3141 01ff 2E       		.uleb128 0x2e
 3142 0200 00       		.byte	0
 3143 0201 3F       		.uleb128 0x3f
 3144 0202 19       		.uleb128 0x19
 3145 0203 3C       		.uleb128 0x3c
 3146 0204 19       		.uleb128 0x19
 3147 0205 6E       		.uleb128 0x6e
 3148 0206 0E       		.uleb128 0xe
 3149 0207 03       		.uleb128 0x3
 3150 0208 0E       		.uleb128 0xe
 3151 0209 3A       		.uleb128 0x3a
 3152 020a 0B       		.uleb128 0xb
 3153 020b 3B       		.uleb128 0x3b
 3154 020c 05       		.uleb128 0x5
 3155 020d 00       		.byte	0
 3156 020e 00       		.byte	0
 3157 020f 00       		.byte	0
 3158              		.section	.debug_loc,"",%progbits
 3159              	.Ldebug_loc0:
 3160              	.LLST3:
 3161 0000 00000000 		.4byte	.LVL5
 3162 0004 08000000 		.4byte	.LVL7
 3163 0008 0100     		.2byte	0x1
 3164 000a 50       		.byte	0x50
 3165 000b 08000000 		.4byte	.LVL7
 3166 000f 0E000000 		.4byte	.LFE262
 3167 0013 0400     		.2byte	0x4
 3168 0015 F3       		.byte	0xf3
 3169 0016 01       		.uleb128 0x1
 3170 0017 50       		.byte	0x50
 3171 0018 9F       		.byte	0x9f
 3172 0019 00000000 		.4byte	0
 3173 001d 00000000 		.4byte	0
 3174              	.LLST4:
 3175 0021 00000000 		.4byte	.LVL5
 3176 0025 06000000 		.4byte	.LVL6
 3177 0029 0100     		.2byte	0x1
 3178 002b 51       		.byte	0x51
 3179 002c 06000000 		.4byte	.LVL6
 3180 0030 0D000000 		.4byte	.LVL8-1
 3181 0034 0100     		.2byte	0x1
 3182 0036 52       		.byte	0x52
 3183 0037 0D000000 		.4byte	.LVL8-1
 3184 003b 0E000000 		.4byte	.LFE262
 3185 003f 0400     		.2byte	0x4
 3186 0041 F3       		.byte	0xf3
 3187 0042 01       		.uleb128 0x1
 3188 0043 51       		.byte	0x51
 3189 0044 9F       		.byte	0x9f
 3190 0045 00000000 		.4byte	0
 3191 0049 00000000 		.4byte	0
 3192              	.LLST1:
ARM GAS  /var/folders/qd/4mxf5pkd0zdf0b9dd1hp39180000gn/T//ccobn3Cb.s 			page 57


 3193 004d 00000000 		.4byte	.LVL2
 3194 0051 14000000 		.4byte	.LVL4
 3195 0055 0100     		.2byte	0x1
 3196 0057 50       		.byte	0x50
 3197 0058 14000000 		.4byte	.LVL4
 3198 005c 1E000000 		.4byte	.LFE261
 3199 0060 0400     		.2byte	0x4
 3200 0062 F3       		.byte	0xf3
 3201 0063 01       		.uleb128 0x1
 3202 0064 50       		.byte	0x50
 3203 0065 9F       		.byte	0x9f
 3204 0066 00000000 		.4byte	0
 3205 006a 00000000 		.4byte	0
 3206              	.LLST2:
 3207 006e 00000000 		.4byte	.LVL2
 3208 0072 0C000000 		.4byte	.LVL3
 3209 0076 0100     		.2byte	0x1
 3210 0078 51       		.byte	0x51
 3211 0079 0C000000 		.4byte	.LVL3
 3212 007d 1E000000 		.4byte	.LFE261
 3213 0081 0400     		.2byte	0x4
 3214 0083 F3       		.byte	0xf3
 3215 0084 01       		.uleb128 0x1
 3216 0085 51       		.byte	0x51
 3217 0086 9F       		.byte	0x9f
 3218 0087 00000000 		.4byte	0
 3219 008b 00000000 		.4byte	0
 3220              	.LLST0:
 3221 008f 00000000 		.4byte	.LVL0
 3222 0093 08000000 		.4byte	.LVL1
 3223 0097 0100     		.2byte	0x1
 3224 0099 50       		.byte	0x50
 3225 009a 08000000 		.4byte	.LVL1
 3226 009e 0E000000 		.4byte	.LFE260
 3227 00a2 0400     		.2byte	0x4
 3228 00a4 F3       		.byte	0xf3
 3229 00a5 01       		.uleb128 0x1
 3230 00a6 50       		.byte	0x50
 3231 00a7 9F       		.byte	0x9f
 3232 00a8 00000000 		.4byte	0
 3233 00ac 00000000 		.4byte	0
 3234              		.section	.debug_aranges,"",%progbits
 3235 0000 2C000000 		.4byte	0x2c
 3236 0004 0200     		.2byte	0x2
 3237 0006 00000000 		.4byte	.Ldebug_info0
 3238 000a 04       		.byte	0x4
 3239 000b 00       		.byte	0
 3240 000c 0000     		.2byte	0
 3241 000e 0000     		.2byte	0
 3242 0010 00000000 		.4byte	.LFB260
 3243 0014 0E000000 		.4byte	.LFE260-.LFB260
 3244 0018 00000000 		.4byte	.LFB261
 3245 001c 1E000000 		.4byte	.LFE261-.LFB261
 3246 0020 00000000 		.4byte	.LFB262
 3247 0024 0E000000 		.4byte	.LFE262-.LFB262
 3248 0028 00000000 		.4byte	0
 3249 002c 00000000 		.4byte	0
ARM GAS  /var/folders/qd/4mxf5pkd0zdf0b9dd1hp39180000gn/T//ccobn3Cb.s 			page 58


 3250              		.section	.debug_ranges,"",%progbits
 3251              	.Ldebug_ranges0:
 3252 0000 00000000 		.4byte	.LFB260
 3253 0004 0E000000 		.4byte	.LFE260
 3254 0008 00000000 		.4byte	.LFB261
 3255 000c 1E000000 		.4byte	.LFE261
 3256 0010 00000000 		.4byte	.LFB262
 3257 0014 0E000000 		.4byte	.LFE262
 3258 0018 00000000 		.4byte	0
 3259 001c 00000000 		.4byte	0
 3260              		.section	.debug_line,"",%progbits
 3261              	.Ldebug_line0:
 3262 0000 53050000 		.section	.debug_str,"MS",%progbits,1
 3262      02001605 
 3262      00000201 
 3262      FB0E0D00 
 3262      01010101 
 3263              	.LASF88:
 3264 0000 4D314152 		.ascii	"M1AR\000"
 3264      00
 3265              	.LASF178:
 3266 0005 73746D33 		.ascii	"stm32_dma_stream_t\000"
 3266      325F646D 
 3266      615F7374 
 3266      7265616D 
 3266      5F7400
 3267              	.LASF4:
 3268 0018 73697A65 		.ascii	"size_t\000"
 3268      5F7400
 3269              	.LASF118:
 3270 001f 77747365 		.ascii	"wtsemp\000"
 3270      6D7000
 3271              	.LASF140:
 3272 0026 63665F6F 		.ascii	"cf_off_name\000"
 3272      66665F6E 
 3272      616D6500 
 3273              	.LASF31:
 3274 0032 73797374 		.ascii	"systime_t\000"
 3274      696D655F 
 3274      7400
 3275              	.LASF129:
 3276 003c 63685F69 		.ascii	"ch_identifier\000"
 3276      64656E74 
 3276      69666965 
 3276      7200
 3277              	.LASF36:
 3278 004a 705F6374 		.ascii	"p_ctx\000"
 3278      7800
 3279              	.LASF26:
 3280 0050 74707269 		.ascii	"tprio_t\000"
 3280      6F5F7400 
 3281              	.LASF148:
 3282 0058 63685F64 		.ascii	"ch_debug\000"
 3282      65627567 
 3282      00
 3283              	.LASF44:
 3284 0061 705F6D73 		.ascii	"p_msgqueue\000"
ARM GAS  /var/folders/qd/4mxf5pkd0zdf0b9dd1hp39180000gn/T//ccobn3Cb.s 			page 59


 3284      67717565 
 3284      756500
 3285              	.LASF60:
 3286 006c 725F6374 		.ascii	"r_ctx\000"
 3286      7800
 3287              	.LASF18:
 3288 0072 696E7433 		.ascii	"int32_t\000"
 3288      325F7400 
 3289              	.LASF252:
 3290 007a 77726974 		.ascii	"writet\000"
 3290      657400
 3291              	.LASF137:
 3292 0081 63665F6F 		.ascii	"cf_off_ctx\000"
 3292      66665F63 
 3292      747800
 3293              	.LASF64:
 3294 008c 76746675 		.ascii	"vtfunc_t\000"
 3294      6E635F74 
 3294      00
 3295              	.LASF73:
 3296 0095 63685F76 		.ascii	"ch_virtual_timers_list\000"
 3296      69727475 
 3296      616C5F74 
 3296      696D6572 
 3296      735F6C69 
 3297              	.LASF269:
 3298 00ac 7373706F 		.ascii	"ssport\000"
 3298      727400
 3299              	.LASF277:
 3300 00b3 5F5F6675 		.ascii	"__func__\000"
 3300      6E635F5F 
 3300      00
 3301              	.LASF248:
 3302 00bc 77726974 		.ascii	"write\000"
 3302      6500
 3303              	.LASF229:
 3304 00c2 70776D63 		.ascii	"pwmchnmsk_t\000"
 3304      686E6D73 
 3304      6B5F7400 
 3305              	.LASF155:
 3306 00ce 656C5F66 		.ascii	"el_flags\000"
 3306      6C616773 
 3306      00
 3307              	.LASF221:
 3308 00d7 636F6E66 		.ascii	"config\000"
 3308      696700
 3309              	.LASF220:
 3310 00de 73746174 		.ascii	"state\000"
 3310      6500
 3311              	.LASF202:
 3312 00e4 50454461 		.ascii	"PEData\000"
 3312      746100
 3313              	.LASF250:
 3314 00eb 70757474 		.ascii	"putt\000"
 3314      00
 3315              	.LASF272:
 3316 00f0 53504944 		.ascii	"SPID1\000"
ARM GAS  /var/folders/qd/4mxf5pkd0zdf0b9dd1hp39180000gn/T//ccobn3Cb.s 			page 60


 3316      3100
 3317              	.LASF233:
 3318 00f6 50574D43 		.ascii	"PWMChannelConfig\000"
 3318      68616E6E 
 3318      656C436F 
 3318      6E666967 
 3318      00
 3319              	.LASF133:
 3320 0107 63685F70 		.ascii	"ch_ptrsize\000"
 3320      74727369 
 3320      7A6500
 3321              	.LASF108:
 3322 0112 444D4152 		.ascii	"DMAR\000"
 3322      00
 3323              	.LASF235:
 3324 0117 64696572 		.ascii	"dier\000"
 3324      00
 3325              	.LASF215:
 3326 011c 50574D5F 		.ascii	"PWM_UNINIT\000"
 3326      554E494E 
 3326      495400
 3327              	.LASF232:
 3328 0127 63616C6C 		.ascii	"callback\000"
 3328      6261636B 
 3328      00
 3329              	.LASF209:
 3330 0130 696F6D6F 		.ascii	"iomode_t\000"
 3330      64655F74 
 3330      00
 3331              	.LASF282:
 3332 0139 5F70616C 		.ascii	"_pal_lld_setgroupmode\000"
 3332      5F6C6C64 
 3332      5F736574 
 3332      67726F75 
 3332      706D6F64 
 3333              	.LASF197:
 3334 014f 73746D33 		.ascii	"stm32_gpio_setup_t\000"
 3334      325F6770 
 3334      696F5F73 
 3334      65747570 
 3334      5F7400
 3335              	.LASF126:
 3336 0162 6D5F6F77 		.ascii	"m_owner\000"
 3336      6E657200 
 3337              	.LASF71:
 3338 016a 76745F70 		.ascii	"vt_par\000"
 3338      617200
 3339              	.LASF268:
 3340 0171 656E645F 		.ascii	"end_cb\000"
 3340      636200
 3341              	.LASF115:
 3342 0178 65786974 		.ascii	"exitcode\000"
 3342      636F6465 
 3342      00
 3343              	.LASF93:
 3344 0181 49325343 		.ascii	"I2SCFGR\000"
 3344      46475200 
ARM GAS  /var/folders/qd/4mxf5pkd0zdf0b9dd1hp39180000gn/T//ccobn3Cb.s 			page 61


 3345              	.LASF5:
 3346 0189 5F5F7569 		.ascii	"__uint8_t\000"
 3346      6E74385F 
 3346      7400
 3347              	.LASF165:
 3348 0193 715F746F 		.ascii	"q_top\000"
 3348      7000
 3349              	.LASF135:
 3350 0199 63685F74 		.ascii	"ch_threadsize\000"
 3350      68726561 
 3350      6473697A 
 3350      6500
 3351              	.LASF185:
 3352 01a7 50555044 		.ascii	"PUPDR\000"
 3352      5200
 3353              	.LASF253:
 3354 01ad 72656164 		.ascii	"readt\000"
 3354      7400
 3355              	.LASF164:
 3356 01b3 715F6275 		.ascii	"q_buffer\000"
 3356      66666572 
 3356      00
 3357              	.LASF168:
 3358 01bc 715F6E6F 		.ascii	"q_notify\000"
 3358      74696679 
 3358      00
 3359              	.LASF37:
 3360 01c5 705F6E65 		.ascii	"p_newer\000"
 3360      77657200 
 3361              	.LASF255:
 3362 01cd 5350495F 		.ascii	"SPI_STOP\000"
 3362      53544F50 
 3362      00
 3363              	.LASF11:
 3364 01d6 6C6F6E67 		.ascii	"long int\000"
 3364      20696E74 
 3364      00
 3365              	.LASF254:
 3366 01df 5350495F 		.ascii	"SPI_UNINIT\000"
 3366      554E494E 
 3366      495400
 3367              	.LASF33:
 3368 01ea 705F6E65 		.ascii	"p_next\000"
 3368      787400
 3369              	.LASF167:
 3370 01f1 715F7264 		.ascii	"q_rdptr\000"
 3370      70747200 
 3371              	.LASF142:
 3372 01f9 63665F6F 		.ascii	"cf_off_state\000"
 3372      66665F73 
 3372      74617465 
 3372      00
 3373              	.LASF34:
 3374 0206 705F7072 		.ascii	"p_prev\000"
 3374      657600
 3375              	.LASF210:
 3376 020d 696F706F 		.ascii	"ioportid_t\000"
ARM GAS  /var/folders/qd/4mxf5pkd0zdf0b9dd1hp39180000gn/T//ccobn3Cb.s 			page 62


 3376      72746964 
 3376      5F7400
 3377              	.LASF24:
 3378 0218 74737461 		.ascii	"tstate_t\000"
 3378      74655F74 
 3378      00
 3379              	.LASF54:
 3380 0221 74687265 		.ascii	"threads_queue_t\000"
 3380      6164735F 
 3380      71756575 
 3380      655F7400 
 3381              	.LASF47:
 3382 0231 705F6D74 		.ascii	"p_mtxlist\000"
 3382      786C6973 
 3382      7400
 3383              	.LASF245:
 3384 023b 6F717565 		.ascii	"oqueue\000"
 3384      756500
 3385              	.LASF98:
 3386 0242 72656761 		.ascii	"regarm_t\000"
 3386      726D5F74 
 3386      00
 3387              	.LASF228:
 3388 024b 70776D63 		.ascii	"pwmchannel_t\000"
 3388      68616E6E 
 3388      656C5F74 
 3388      00
 3389              	.LASF161:
 3390 0258 696F5F71 		.ascii	"io_queue\000"
 3390      75657565 
 3390      00
 3391              	.LASF246:
 3392 0261 75736172 		.ascii	"usart\000"
 3392      7400
 3393              	.LASF211:
 3394 0267 70616C5F 		.ascii	"pal_default_config\000"
 3394      64656661 
 3394      756C745F 
 3394      636F6E66 
 3394      696700
 3395              	.LASF3:
 3396 027a 7369676E 		.ascii	"signed char\000"
 3396      65642063 
 3396      68617200 
 3397              	.LASF120:
 3398 0286 65776D61 		.ascii	"ewmask\000"
 3398      736B00
 3399              	.LASF16:
 3400 028d 75696E74 		.ascii	"uint8_t\000"
 3400      385F7400 
 3401              	.LASF212:
 3402 0295 706F7274 		.ascii	"portid\000"
 3402      696400
 3403              	.LASF28:
 3404 029c 6576656E 		.ascii	"eventmask_t\000"
 3404      746D6173 
 3404      6B5F7400 
ARM GAS  /var/folders/qd/4mxf5pkd0zdf0b9dd1hp39180000gn/T//ccobn3Cb.s 			page 63


 3405              	.LASF100:
 3406 02a8 636F6E74 		.ascii	"context\000"
 3406      65787400 
 3407              	.LASF117:
 3408 02b0 77747472 		.ascii	"wttrp\000"
 3408      7000
 3409              	.LASF230:
 3410 02b6 70776D63 		.ascii	"pwmcnt_t\000"
 3410      6E745F74 
 3410      00
 3411              	.LASF194:
 3412 02bf 70757064 		.ascii	"pupdr\000"
 3412      7200
 3413              	.LASF6:
 3414 02c5 756E7369 		.ascii	"unsigned char\000"
 3414      676E6564 
 3414      20636861 
 3414      7200
 3415              	.LASF169:
 3416 02d3 715F6C69 		.ascii	"q_link\000"
 3416      6E6B00
 3417              	.LASF190:
 3418 02da 73746D33 		.ascii	"stm32_gpio_t\000"
 3418      325F6770 
 3418      696F5F74 
 3418      00
 3419              	.LASF267:
 3420 02e7 73706963 		.ascii	"spicallback_t\000"
 3420      616C6C62 
 3420      61636B5F 
 3420      7400
 3421              	.LASF201:
 3422 02f5 50444461 		.ascii	"PDData\000"
 3422      746100
 3423              	.LASF77:
 3424 02fc 70616E69 		.ascii	"panic_msg\000"
 3424      635F6D73 
 3424      6700
 3425              	.LASF61:
 3426 0306 725F6E65 		.ascii	"r_newer\000"
 3426      77657200 
 3427              	.LASF75:
 3428 030e 73797374 		.ascii	"system_debug_t\000"
 3428      656D5F64 
 3428      65627567 
 3428      5F7400
 3429              	.LASF238:
 3430 031d 53445F55 		.ascii	"SD_UNINIT\000"
 3430      4E494E49 
 3430      5400
 3431              	.LASF180:
 3432 0327 5F426F6F 		.ascii	"_Bool\000"
 3432      6C00
 3433              	.LASF104:
 3434 032d 43434D52 		.ascii	"CCMR1\000"
 3434      3100
 3435              	.LASF105:
ARM GAS  /var/folders/qd/4mxf5pkd0zdf0b9dd1hp39180000gn/T//ccobn3Cb.s 			page 64


 3436 0333 43434D52 		.ascii	"CCMR2\000"
 3436      3200
 3437              	.LASF109:
 3438 0339 43434D52 		.ascii	"CCMR3\000"
 3438      3300
 3439              	.LASF128:
 3440 033f 63686172 		.ascii	"char\000"
 3440      00
 3441              	.LASF191:
 3442 0344 6D6F6465 		.ascii	"moder\000"
 3442      7200
 3443              	.LASF175:
 3444 034a 69736869 		.ascii	"ishift\000"
 3444      667400
 3445              	.LASF35:
 3446 0351 705F7072 		.ascii	"p_prio\000"
 3446      696F00
 3447              	.LASF260:
 3448 0358 53504944 		.ascii	"SPIDriver\000"
 3448      72697665 
 3448      7200
 3449              	.LASF8:
 3450 0362 5F5F7569 		.ascii	"__uint16_t\000"
 3450      6E743136 
 3450      5F7400
 3451              	.LASF116:
 3452 036d 77746F62 		.ascii	"wtobjp\000"
 3452      6A7000
 3453              	.LASF138:
 3454 0374 63665F6F 		.ascii	"cf_off_newer\000"
 3454      66665F6E 
 3454      65776572 
 3454      00
 3455              	.LASF251:
 3456 0381 67657474 		.ascii	"gett\000"
 3456      00
 3457              	.LASF99:
 3458 0386 73746B61 		.ascii	"stkalign_t\000"
 3458      6C69676E 
 3458      5F7400
 3459              	.LASF97:
 3460 0391 55534152 		.ascii	"USART_TypeDef\000"
 3460      545F5479 
 3460      70654465 
 3460      6600
 3461              	.LASF136:
 3462 039f 63665F6F 		.ascii	"cf_off_prio\000"
 3462      66665F70 
 3462      72696F00 
 3463              	.LASF173:
 3464 03ab 73747265 		.ascii	"stream\000"
 3464      616D00
 3465              	.LASF150:
 3466 03b2 6576656E 		.ascii	"event_listener_t\000"
 3466      745F6C69 
 3466      7374656E 
 3466      65725F74 
ARM GAS  /var/folders/qd/4mxf5pkd0zdf0b9dd1hp39180000gn/T//ccobn3Cb.s 			page 65


 3466      00
 3467              	.LASF110:
 3468 03c3 43435852 		.ascii	"CCXR\000"
 3468      00
 3469              	.LASF208:
 3470 03c8 696F706F 		.ascii	"ioportmask_t\000"
 3470      72746D61 
 3470      736B5F74 
 3470      00
 3471              	.LASF227:
 3472 03d5 70776D6D 		.ascii	"pwmmode_t\000"
 3472      6F64655F 
 3472      7400
 3473              	.LASF30:
 3474 03df 636E745F 		.ascii	"cnt_t\000"
 3474      7400
 3475              	.LASF273:
 3476 03e5 53504944 		.ascii	"SPID2\000"
 3476      3200
 3477              	.LASF70:
 3478 03eb 76745F66 		.ascii	"vt_func\000"
 3478      756E6300 
 3479              	.LASF214:
 3480 03f3 494F4275 		.ascii	"IOBus\000"
 3480      7300
 3481              	.LASF46:
 3482 03f9 705F6570 		.ascii	"p_epending\000"
 3482      656E6469 
 3482      6E6700
 3483              	.LASF119:
 3484 0404 77746D74 		.ascii	"wtmtxp\000"
 3484      787000
 3485              	.LASF57:
 3486 040b 63685F72 		.ascii	"ch_ready_list\000"
 3486      65616479 
 3486      5F6C6973 
 3486      7400
 3487              	.LASF181:
 3488 0419 636C6561 		.ascii	"clear\000"
 3488      7200
 3489              	.LASF193:
 3490 041f 6F737065 		.ascii	"ospeedr\000"
 3490      65647200 
 3491              	.LASF200:
 3492 0427 50434461 		.ascii	"PCData\000"
 3492      746100
 3493              	.LASF158:
 3494 042e 65735F6E 		.ascii	"es_next\000"
 3494      65787400 
 3495              	.LASF163:
 3496 0436 715F636F 		.ascii	"q_counter\000"
 3496      756E7465 
 3496      7200
 3497              	.LASF223:
 3498 0440 656E6162 		.ascii	"enabled\000"
 3498      6C656400 
 3499              	.LASF196:
ARM GAS  /var/folders/qd/4mxf5pkd0zdf0b9dd1hp39180000gn/T//ccobn3Cb.s 			page 66


 3500 0448 61667268 		.ascii	"afrh\000"
 3500      00
 3501              	.LASF14:
 3502 044d 5F5F7569 		.ascii	"__uint64_t\000"
 3502      6E743634 
 3502      5F7400
 3503              	.LASF13:
 3504 0458 6C6F6E67 		.ascii	"long unsigned int\000"
 3504      20756E73 
 3504      69676E65 
 3504      6420696E 
 3504      7400
 3505              	.LASF130:
 3506 046a 63685F7A 		.ascii	"ch_zero\000"
 3506      65726F00 
 3507              	.LASF103:
 3508 0472 44494552 		.ascii	"DIER\000"
 3508      00
 3509              	.LASF192:
 3510 0477 6F747970 		.ascii	"otyper\000"
 3510      657200
 3511              	.LASF85:
 3512 047e 53797374 		.ascii	"SystemCoreClock\000"
 3512      656D436F 
 3512      7265436C 
 3512      6F636B00 
 3513              	.LASF121:
 3514 048e 63685F73 		.ascii	"ch_semaphore\000"
 3514      656D6170 
 3514      686F7265 
 3514      00
 3515              	.LASF52:
 3516 049b 63685F74 		.ascii	"ch_thread\000"
 3516      68726561 
 3516      6400
 3517              	.LASF72:
 3518 04a5 76697274 		.ascii	"virtual_timers_list_t\000"
 3518      75616C5F 
 3518      74696D65 
 3518      72735F6C 
 3518      6973745F 
 3519              	.LASF179:
 3520 04bb 5F73746D 		.ascii	"_stm32_dma_streams\000"
 3520      33325F64 
 3520      6D615F73 
 3520      74726561 
 3520      6D7300
 3521              	.LASF152:
 3522 04ce 656C5F6E 		.ascii	"el_next\000"
 3522      65787400 
 3523              	.LASF65:
 3524 04d6 76697274 		.ascii	"virtual_timer_t\000"
 3524      75616C5F 
 3524      74696D65 
 3524      725F7400 
 3525              	.LASF56:
 3526 04e6 72656164 		.ascii	"ready_list_t\000"
ARM GAS  /var/folders/qd/4mxf5pkd0zdf0b9dd1hp39180000gn/T//ccobn3Cb.s 			page 67


 3526      795F6C69 
 3526      73745F74 
 3526      00
 3527              	.LASF166:
 3528 04f3 715F7772 		.ascii	"q_wrptr\000"
 3528      70747200 
 3529              	.LASF187:
 3530 04fb 4C434B52 		.ascii	"LCKR\000"
 3530      00
 3531              	.LASF111:
 3532 0500 73746D33 		.ascii	"stm32_tim_t\000"
 3532      325F7469 
 3532      6D5F7400 
 3533              	.LASF206:
 3534 050c 50494461 		.ascii	"PIData\000"
 3534      746100
 3535              	.LASF225:
 3536 0513 636C6F63 		.ascii	"clock\000"
 3536      6B00
 3537              	.LASF53:
 3538 0519 63685F74 		.ascii	"ch_threads_list\000"
 3538      68726561 
 3538      64735F6C 
 3538      69737400 
 3539              	.LASF184:
 3540 0529 4F535045 		.ascii	"OSPEEDR\000"
 3540      45445200 
 3541              	.LASF278:
 3542 0531 474E5520 		.ascii	"GNU C11 7.2.1 20170904 (release) [ARM/embedded-7-br"
 3542      43313120 
 3542      372E322E 
 3542      31203230 
 3542      31373039 
 3543 0564 616E6368 		.ascii	"anch revision 255204] -mcpu=cortex-m4 -mno-thumb-in"
 3543      20726576 
 3543      6973696F 
 3543      6E203235 
 3543      35323034 
 3544 0597 74657277 		.ascii	"terwork -mthumb -ggdb -O2 -fomit-frame-pointer -fal"
 3544      6F726B20 
 3544      2D6D7468 
 3544      756D6220 
 3544      2D676764 
 3545 05ca 69676E2D 		.ascii	"ign-functions=16 -ffunction-sections -fdata-section"
 3545      66756E63 
 3545      74696F6E 
 3545      733D3136 
 3545      202D6666 
 3546 05fd 73202D66 		.ascii	"s -fno-common\000"
 3546      6E6F2D63 
 3546      6F6D6D6F 
 3546      6E00
 3547              	.LASF145:
 3548 060b 63665F6F 		.ascii	"cf_off_preempt\000"
 3548      66665F70 
 3548      7265656D 
 3548      707400
ARM GAS  /var/folders/qd/4mxf5pkd0zdf0b9dd1hp39180000gn/T//ccobn3Cb.s 			page 68


 3549              	.LASF263:
 3550 061a 646D6172 		.ascii	"dmarx\000"
 3550      7800
 3551              	.LASF12:
 3552 0620 5F5F7569 		.ascii	"__uint32_t\000"
 3552      6E743332 
 3552      5F7400
 3553              	.LASF256:
 3554 062b 5350495F 		.ascii	"SPI_READY\000"
 3554      52454144 
 3554      5900
 3555              	.LASF1:
 3556 0635 6C6F6E67 		.ascii	"long long int\000"
 3556      206C6F6E 
 3556      6720696E 
 3556      7400
 3557              	.LASF132:
 3558 0643 63685F76 		.ascii	"ch_version\000"
 3558      65727369 
 3558      6F6E00
 3559              	.LASF125:
 3560 064e 6D5F7175 		.ascii	"m_queue\000"
 3560      65756500 
 3561              	.LASF67:
 3562 0656 76745F6E 		.ascii	"vt_next\000"
 3562      65787400 
 3563              	.LASF68:
 3564 065e 76745F70 		.ascii	"vt_prev\000"
 3564      72657600 
 3565              	.LASF96:
 3566 0666 47545052 		.ascii	"GTPR\000"
 3566      00
 3567              	.LASF159:
 3568 066b 6576656E 		.ascii	"event_source_t\000"
 3568      745F736F 
 3568      75726365 
 3568      5F7400
 3569              	.LASF213:
 3570 067a 6D61736B 		.ascii	"mask\000"
 3570      00
 3571              	.LASF247:
 3572 067f 53657269 		.ascii	"SerialDriverVMT\000"
 3572      616C4472 
 3572      69766572 
 3572      564D5400 
 3573              	.LASF262:
 3574 068f 6D757465 		.ascii	"mutex\000"
 3574      7800
 3575              	.LASF84:
 3576 0695 49544D5F 		.ascii	"ITM_RxBuffer\000"
 3576      52784275 
 3576      66666572 
 3576      00
 3577              	.LASF91:
 3578 06a2 52584352 		.ascii	"RXCRCR\000"
 3578      435200
 3579              	.LASF234:
ARM GAS  /var/folders/qd/4mxf5pkd0zdf0b9dd1hp39180000gn/T//ccobn3Cb.s 			page 69


 3580 06a9 66726571 		.ascii	"frequency\000"
 3580      75656E63 
 3580      7900
 3581              	.LASF199:
 3582 06b3 50424461 		.ascii	"PBData\000"
 3582      746100
 3583              	.LASF265:
 3584 06ba 7278646D 		.ascii	"rxdmamode\000"
 3584      616D6F64 
 3584      6500
 3585              	.LASF170:
 3586 06c4 716E6F74 		.ascii	"qnotify_t\000"
 3586      6966795F 
 3586      7400
 3587              	.LASF43:
 3588 06ce 705F7761 		.ascii	"p_waiting\000"
 3588      6974696E 
 3588      6700
 3589              	.LASF243:
 3590 06d8 6576656E 		.ascii	"event\000"
 3590      7400
 3591              	.LASF264:
 3592 06de 646D6174 		.ascii	"dmatx\000"
 3592      7800
 3593              	.LASF182:
 3594 06e4 4D4F4445 		.ascii	"MODER\000"
 3594      5200
 3595              	.LASF41:
 3596 06ea 705F666C 		.ascii	"p_flags\000"
 3596      61677300 
 3597              	.LASF249:
 3598 06f2 72656164 		.ascii	"read\000"
 3598      00
 3599              	.LASF83:
 3600 06f7 69646C65 		.ascii	"idle_thread_wa\000"
 3600      5F746872 
 3600      6561645F 
 3600      776100
 3601              	.LASF0:
 3602 0706 756E7369 		.ascii	"unsigned int\000"
 3602      676E6564 
 3602      20696E74 
 3602      00
 3603              	.LASF271:
 3604 0713 53504943 		.ascii	"SPIConfig\000"
 3604      6F6E6669 
 3604      6700
 3605              	.LASF257:
 3606 071d 5350495F 		.ascii	"SPI_ACTIVE\000"
 3606      41435449 
 3606      564500
 3607              	.LASF22:
 3608 0728 7274636E 		.ascii	"rtcnt_t\000"
 3608      745F7400 
 3609              	.LASF49:
 3610 0730 705F6D70 		.ascii	"p_mpool\000"
 3610      6F6F6C00 
ARM GAS  /var/folders/qd/4mxf5pkd0zdf0b9dd1hp39180000gn/T//ccobn3Cb.s 			page 70


 3611              	.LASF224:
 3612 0738 6368616E 		.ascii	"channels\000"
 3612      6E656C73 
 3612      00
 3613              	.LASF42:
 3614 0741 705F7265 		.ascii	"p_refs\000"
 3614      667300
 3615              	.LASF134:
 3616 0748 63685F74 		.ascii	"ch_timesize\000"
 3616      696D6573 
 3616      697A6500 
 3617              	.LASF156:
 3618 0754 656C5F77 		.ascii	"el_wflags\000"
 3618      666C6167 
 3618      7300
 3619              	.LASF276:
 3620 075e 62697473 		.ascii	"bits\000"
 3620      00
 3621              	.LASF226:
 3622 0763 70776D63 		.ascii	"pwmcallback_t\000"
 3622      616C6C62 
 3622      61636B5F 
 3622      7400
 3623              	.LASF154:
 3624 0771 656C5F65 		.ascii	"el_events\000"
 3624      76656E74 
 3624      7300
 3625              	.LASF219:
 3626 077b 50574D44 		.ascii	"PWMDriver\000"
 3626      72697665 
 3626      7200
 3627              	.LASF112:
 3628 0785 6F666673 		.ascii	"offset\000"
 3628      657400
 3629              	.LASF205:
 3630 078c 50484461 		.ascii	"PHData\000"
 3630      746100
 3631              	.LASF89:
 3632 0793 444D415F 		.ascii	"DMA_Stream_TypeDef\000"
 3632      53747265 
 3632      616D5F54 
 3632      79706544 
 3632      656600
 3633              	.LASF144:
 3634 07a6 63665F6F 		.ascii	"cf_off_refs\000"
 3634      66665F72 
 3634      65667300 
 3635              	.LASF195:
 3636 07b2 6166726C 		.ascii	"afrl\000"
 3636      00
 3637              	.LASF32:
 3638 07b7 74687265 		.ascii	"thread_t\000"
 3638      61645F74 
 3638      00
 3639              	.LASF2:
 3640 07c0 6C6F6E67 		.ascii	"long double\000"
 3640      20646F75 
ARM GAS  /var/folders/qd/4mxf5pkd0zdf0b9dd1hp39180000gn/T//ccobn3Cb.s 			page 71


 3640      626C6500 
 3641              	.LASF50:
 3642 07cc 74687265 		.ascii	"thread_reference_t\000"
 3642      61645F72 
 3642      65666572 
 3642      656E6365 
 3642      5F7400
 3643              	.LASF275:
 3644 07df 70616C57 		.ascii	"palWriteBus\000"
 3644      72697465 
 3644      42757300 
 3645              	.LASF48:
 3646 07eb 705F7265 		.ascii	"p_realprio\000"
 3646      616C7072 
 3646      696F00
 3647              	.LASF101:
 3648 07f6 706F7274 		.ascii	"port_intctx\000"
 3648      5F696E74 
 3648      63747800 
 3649              	.LASF146:
 3650 0802 63665F6F 		.ascii	"cf_off_time\000"
 3650      66665F74 
 3650      696D6500 
 3651              	.LASF69:
 3652 080e 76745F64 		.ascii	"vt_delta\000"
 3652      656C7461 
 3652      00
 3653              	.LASF66:
 3654 0817 63685F76 		.ascii	"ch_virtual_timer\000"
 3654      69727475 
 3654      616C5F74 
 3654      696D6572 
 3654      00
 3655              	.LASF123:
 3656 0828 735F636E 		.ascii	"s_cnt\000"
 3656      7400
 3657              	.LASF176:
 3658 082e 73656C66 		.ascii	"selfindex\000"
 3658      696E6465 
 3658      7800
 3659              	.LASF15:
 3660 0838 6C6F6E67 		.ascii	"long long unsigned int\000"
 3660      206C6F6E 
 3660      6720756E 
 3660      7369676E 
 3660      65642069 
 3661              	.LASF216:
 3662 084f 50574D5F 		.ascii	"PWM_STOP\000"
 3662      53544F50 
 3662      00
 3663              	.LASF198:
 3664 0858 50414461 		.ascii	"PAData\000"
 3664      746100
 3665              	.LASF38:
 3666 085f 705F6F6C 		.ascii	"p_older\000"
 3666      64657200 
 3667              	.LASF17:
ARM GAS  /var/folders/qd/4mxf5pkd0zdf0b9dd1hp39180000gn/T//ccobn3Cb.s 			page 72


 3668 0867 75696E74 		.ascii	"uint16_t\000"
 3668      31365F74 
 3668      00
 3669              	.LASF27:
 3670 0870 6D73675F 		.ascii	"msg_t\000"
 3670      7400
 3671              	.LASF55:
 3672 0876 63685F74 		.ascii	"ch_threads_queue\000"
 3672      68726561 
 3672      64735F71 
 3672      75657565 
 3672      00
 3673              	.LASF29:
 3674 0887 6576656E 		.ascii	"eventflags_t\000"
 3674      74666C61 
 3674      67735F74 
 3674      00
 3675              	.LASF143:
 3676 0894 63665F6F 		.ascii	"cf_off_flags\000"
 3676      66665F66 
 3676      6C616773 
 3676      00
 3677              	.LASF106:
 3678 08a1 43434552 		.ascii	"CCER\000"
 3678      00
 3679              	.LASF63:
 3680 08a6 725F6375 		.ascii	"r_current\000"
 3680      7272656E 
 3680      7400
 3681              	.LASF189:
 3682 08b0 41465248 		.ascii	"AFRH\000"
 3682      00
 3683              	.LASF188:
 3684 08b5 4146524C 		.ascii	"AFRL\000"
 3684      00
 3685              	.LASF177:
 3686 08ba 76656374 		.ascii	"vector\000"
 3686      6F7200
 3687              	.LASF82:
 3688 08c1 6D61696E 		.ascii	"mainthread\000"
 3688      74687265 
 3688      616400
 3689              	.LASF102:
 3690 08cc 534D4352 		.ascii	"SMCR\000"
 3690      00
 3691              	.LASF222:
 3692 08d1 70657269 		.ascii	"period\000"
 3692      6F6400
 3693              	.LASF58:
 3694 08d8 725F7175 		.ascii	"r_queue\000"
 3694      65756500 
 3695              	.LASF242:
 3696 08e0 53657269 		.ascii	"SerialDriver\000"
 3696      616C4472 
 3696      69766572 
 3696      00
 3697              	.LASF183:
ARM GAS  /var/folders/qd/4mxf5pkd0zdf0b9dd1hp39180000gn/T//ccobn3Cb.s 			page 73


 3698 08ed 4F545950 		.ascii	"OTYPER\000"
 3698      455200
 3699              	.LASF204:
 3700 08f4 50474461 		.ascii	"PGData\000"
 3700      746100
 3701              	.LASF162:
 3702 08fb 715F7761 		.ascii	"q_waiting\000"
 3702      6974696E 
 3702      6700
 3703              	.LASF92:
 3704 0905 54584352 		.ascii	"TXCRCR\000"
 3704      435200
 3705              	.LASF95:
 3706 090c 5350495F 		.ascii	"SPI_TypeDef\000"
 3706      54797065 
 3706      44656600 
 3707              	.LASF80:
 3708 0918 726C6973 		.ascii	"rlist\000"
 3708      7400
 3709              	.LASF23:
 3710 091e 746D6F64 		.ascii	"tmode_t\000"
 3710      655F7400 
 3711              	.LASF90:
 3712 0926 43524350 		.ascii	"CRCPR\000"
 3712      5200
 3713              	.LASF241:
 3714 092c 73647374 		.ascii	"sdstate_t\000"
 3714      6174655F 
 3714      7400
 3715              	.LASF240:
 3716 0936 53445F52 		.ascii	"SD_READY\000"
 3716      45414459 
 3716      00
 3717              	.LASF62:
 3718 093f 725F6F6C 		.ascii	"r_older\000"
 3718      64657200 
 3719              	.LASF113:
 3720 0947 746D5F63 		.ascii	"tm_calibration_t\000"
 3720      616C6962 
 3720      72617469 
 3720      6F6E5F74 
 3720      00
 3721              	.LASF261:
 3722 0958 74687265 		.ascii	"thread\000"
 3722      616400
 3723              	.LASF87:
 3724 095f 4D304152 		.ascii	"M0AR\000"
 3724      00
 3725              	.LASF122:
 3726 0964 735F7175 		.ascii	"s_queue\000"
 3726      65756500 
 3727              	.LASF21:
 3728 096c 75696E74 		.ascii	"uint_fast8_t\000"
 3728      5F666173 
 3728      74385F74 
 3728      00
 3729              	.LASF217:
ARM GAS  /var/folders/qd/4mxf5pkd0zdf0b9dd1hp39180000gn/T//ccobn3Cb.s 			page 74


 3730 0979 50574D5F 		.ascii	"PWM_READY\000"
 3730      52454144 
 3730      5900
 3731              	.LASF7:
 3732 0983 73686F72 		.ascii	"short int\000"
 3732      7420696E 
 3732      7400
 3733              	.LASF157:
 3734 098d 6576656E 		.ascii	"event_source\000"
 3734      745F736F 
 3734      75726365 
 3734      00
 3735              	.LASF20:
 3736 099a 75696E74 		.ascii	"uint64_t\000"
 3736      36345F74 
 3736      00
 3737              	.LASF231:
 3738 09a3 6D6F6465 		.ascii	"mode\000"
 3738      00
 3739              	.LASF124:
 3740 09a8 63685F6D 		.ascii	"ch_mutex\000"
 3740      75746578 
 3740      00
 3741              	.LASF244:
 3742 09b1 69717565 		.ascii	"iqueue\000"
 3742      756500
 3743              	.LASF281:
 3744 09b8 70616C52 		.ascii	"palReadBus\000"
 3744      65616442 
 3744      757300
 3745              	.LASF59:
 3746 09c3 725F7072 		.ascii	"r_prio\000"
 3746      696F00
 3747              	.LASF76:
 3748 09ca 63685F73 		.ascii	"ch_system_debug\000"
 3748      79737465 
 3748      6D5F6465 
 3748      62756700 
 3749              	.LASF139:
 3750 09da 63665F6F 		.ascii	"cf_off_older\000"
 3750      66665F6F 
 3750      6C646572 
 3750      00
 3751              	.LASF160:
 3752 09e7 696F5F71 		.ascii	"io_queue_t\000"
 3752      75657565 
 3752      5F7400
 3753              	.LASF186:
 3754 09f2 42535252 		.ascii	"BSRR\000"
 3754      00
 3755              	.LASF207:
 3756 09f7 50414C43 		.ascii	"PALConfig\000"
 3756      6F6E6669 
 3756      6700
 3757              	.LASF81:
 3758 0a01 76746C69 		.ascii	"vtlist\000"
 3758      737400
ARM GAS  /var/folders/qd/4mxf5pkd0zdf0b9dd1hp39180000gn/T//ccobn3Cb.s 			page 75


 3759              	.LASF274:
 3760 0a08 70616C53 		.ascii	"palSetBusMode\000"
 3760      65744275 
 3760      734D6F64 
 3760      6500
 3761              	.LASF236:
 3762 0a16 50574D43 		.ascii	"PWMConfig\000"
 3762      6F6E6669 
 3762      6700
 3763              	.LASF149:
 3764 0a20 6D757465 		.ascii	"mutex_t\000"
 3764      785F7400 
 3765              	.LASF25:
 3766 0a28 74726566 		.ascii	"trefs_t\000"
 3766      735F7400 
 3767              	.LASF141:
 3768 0a30 63665F6F 		.ascii	"cf_off_stklimit\000"
 3768      66665F73 
 3768      746B6C69 
 3768      6D697400 
 3769              	.LASF51:
 3770 0a40 74687265 		.ascii	"threads_list_t\000"
 3770      6164735F 
 3770      6C697374 
 3770      5F7400
 3771              	.LASF237:
 3772 0a4f 50574D44 		.ascii	"PWMD4\000"
 3772      3400
 3773              	.LASF79:
 3774 0a55 63685F73 		.ascii	"ch_system\000"
 3774      79737465 
 3774      6D00
 3775              	.LASF218:
 3776 0a5f 70776D73 		.ascii	"pwmstate_t\000"
 3776      74617465 
 3776      5F7400
 3777              	.LASF107:
 3778 0a6a 42445452 		.ascii	"BDTR\000"
 3778      00
 3779              	.LASF19:
 3780 0a6f 75696E74 		.ascii	"uint32_t\000"
 3780      33325F74 
 3780      00
 3781              	.LASF94:
 3782 0a78 49325350 		.ascii	"I2SPR\000"
 3782      5200
 3783              	.LASF171:
 3784 0a7e 696E7075 		.ascii	"input_queue_t\000"
 3784      745F7175 
 3784      6575655F 
 3784      7400
 3785              	.LASF258:
 3786 0a8c 5350495F 		.ascii	"SPI_COMPLETE\000"
 3786      434F4D50 
 3786      4C455445 
 3786      00
 3787              	.LASF203:
ARM GAS  /var/folders/qd/4mxf5pkd0zdf0b9dd1hp39180000gn/T//ccobn3Cb.s 			page 76


 3788 0a99 50464461 		.ascii	"PFData\000"
 3788      746100
 3789              	.LASF151:
 3790 0aa0 6576656E 		.ascii	"event_listener\000"
 3790      745F6C69 
 3790      7374656E 
 3790      657200
 3791              	.LASF114:
 3792 0aaf 7264796D 		.ascii	"rdymsg\000"
 3792      736700
 3793              	.LASF74:
 3794 0ab6 76745F6C 		.ascii	"vt_lasttime\000"
 3794      61737474 
 3794      696D6500 
 3795              	.LASF9:
 3796 0ac2 73686F72 		.ascii	"short unsigned int\000"
 3796      7420756E 
 3796      7369676E 
 3796      65642069 
 3796      6E7400
 3797              	.LASF78:
 3798 0ad5 63685F73 		.ascii	"ch_system_t\000"
 3798      79737465 
 3798      6D5F7400 
 3799              	.LASF147:
 3800 0ae1 63686465 		.ascii	"chdebug_t\000"
 3800      6275675F 
 3800      7400
 3801              	.LASF259:
 3802 0aeb 73706973 		.ascii	"spistate_t\000"
 3802      74617465 
 3802      5F7400
 3803              	.LASF131:
 3804 0af6 63685F73 		.ascii	"ch_size\000"
 3804      697A6500 
 3805              	.LASF172:
 3806 0afe 6F757470 		.ascii	"output_queue_t\000"
 3806      75745F71 
 3806      75657565 
 3806      5F7400
 3807              	.LASF10:
 3808 0b0d 5F5F696E 		.ascii	"__int32_t\000"
 3808      7433325F 
 3808      7400
 3809              	.LASF239:
 3810 0b17 53445F53 		.ascii	"SD_STOP\000"
 3810      544F5000 
 3811              	.LASF86:
 3812 0b1f 4E445452 		.ascii	"NDTR\000"
 3812      00
 3813              	.LASF174:
 3814 0b24 69666372 		.ascii	"ifcr\000"
 3814      00
 3815              	.LASF270:
 3816 0b29 73737061 		.ascii	"sspad\000"
 3816      6400
 3817              	.LASF39:
ARM GAS  /var/folders/qd/4mxf5pkd0zdf0b9dd1hp39180000gn/T//ccobn3Cb.s 			page 77


 3818 0b2f 705F6E61 		.ascii	"p_name\000"
 3818      6D6500
 3819              	.LASF127:
 3820 0b36 6D5F6E65 		.ascii	"m_next\000"
 3820      787400
 3821              	.LASF266:
 3822 0b3d 7478646D 		.ascii	"txdmamode\000"
 3822      616D6F64 
 3822      6500
 3823              	.LASF279:
 3824 0b47 2E2E2F2E 		.ascii	"../../../os/hal/src/pal.c\000"
 3824      2E2F2E2E 
 3824      2F6F732F 
 3824      68616C2F 
 3824      7372632F 
 3825              	.LASF280:
 3826 0b61 2F557365 		.ascii	"/Users/nicolas/Library/Mobile Documents/com~apple~C"
 3826      72732F6E 
 3826      69636F6C 
 3826      61732F4C 
 3826      69627261 
 3827 0b94 6C6F7564 		.ascii	"loudDocs/Projects/Cours/epuck_project/Sources/lib/C"
 3827      446F6373 
 3827      2F50726F 
 3827      6A656374 
 3827      732F436F 
 3828 0bc7 68696269 		.ascii	"hibiOS/demos/STM32/RT-STM32F407-DISCOVERY-G++/\000"
 3828      4F532F64 
 3828      656D6F73 
 3828      2F53544D 
 3828      33322F52 
 3829              	.LASF45:
 3830 0bf6 705F6D73 		.ascii	"p_msg\000"
 3830      6700
 3831              	.LASF153:
 3832 0bfc 656C5F6C 		.ascii	"el_listener\000"
 3832      69737465 
 3832      6E657200 
 3833              	.LASF40:
 3834 0c08 705F7374 		.ascii	"p_state\000"
 3834      61746500 
 3835              		.ident	"GCC: (GNU Tools for Arm Embedded Processors 7-2017-q4-major) 7.2.1 20170904 (release) [ARM
ARM GAS  /var/folders/qd/4mxf5pkd0zdf0b9dd1hp39180000gn/T//ccobn3Cb.s 			page 78


DEFINED SYMBOLS
                            *ABS*:0000000000000000 pal.c
/var/folders/qd/4mxf5pkd0zdf0b9dd1hp39180000gn/T//ccobn3Cb.s:16     .text.palReadBus:0000000000000000 $t
/var/folders/qd/4mxf5pkd0zdf0b9dd1hp39180000gn/T//ccobn3Cb.s:24     .text.palReadBus:0000000000000000 palReadBus
/var/folders/qd/4mxf5pkd0zdf0b9dd1hp39180000gn/T//ccobn3Cb.s:47     .text.palWriteBus:0000000000000000 $t
/var/folders/qd/4mxf5pkd0zdf0b9dd1hp39180000gn/T//ccobn3Cb.s:55     .text.palWriteBus:0000000000000000 palWriteBus
/var/folders/qd/4mxf5pkd0zdf0b9dd1hp39180000gn/T//ccobn3Cb.s:89     .text.palSetBusMode:0000000000000000 $t
/var/folders/qd/4mxf5pkd0zdf0b9dd1hp39180000gn/T//ccobn3Cb.s:97     .text.palSetBusMode:0000000000000000 palSetBusMode

UNDEFINED SYMBOLS
_pal_lld_setgroupmode
