ARM GAS  /var/folders/qd/4mxf5pkd0zdf0b9dd1hp39180000gn/T//ccwJbDXU.s 			page 1


   1              		.cpu cortex-m4
   2              		.eabi_attribute 20, 1
   3              		.eabi_attribute 21, 1
   4              		.eabi_attribute 23, 3
   5              		.eabi_attribute 24, 1
   6              		.eabi_attribute 25, 1
   7              		.eabi_attribute 26, 1
   8              		.eabi_attribute 30, 2
   9              		.eabi_attribute 34, 1
  10              		.eabi_attribute 18, 4
  11              		.file	"pwm_lld.c"
  12              		.text
  13              	.Ltext0:
  14              		.cfi_sections	.debug_frame
  15              		.section	.text.VectorB8,"ax",%progbits
  16              		.align	1
  17              		.p2align 4,,15
  18              		.global	VectorB8
  19              		.syntax unified
  20              		.thumb
  21              		.thumb_func
  22              		.fpu softvfp
  23              		.type	VectorB8, %function
  24              	VectorB8:
  25              	.LFB261:
  26              		.file 1 "../../../os/hal/ports/STM32/LLD/TIMv1/pwm_lld.c"
  27              		.loc 1 246 0
  28              		.cfi_startproc
  29              		@ args = 0, pretend = 0, frame = 0
  30              		@ frame_needed = 0, uses_anonymous_args = 0
  31              	.LVL0:
  32 0000 38B5     		push	{r3, r4, r5, lr}
  33              		.cfi_def_cfa_offset 16
  34              		.cfi_offset 3, -16
  35              		.cfi_offset 4, -12
  36              		.cfi_offset 5, -8
  37              		.cfi_offset 14, -4
  38              	.LBB4:
  39              	.LBB5:
  40              		.loc 1 114 0
  41 0002 174D     		ldr	r5, .L39
  42 0004 AB69     		ldr	r3, [r5, #24]
  43 0006 1C69     		ldr	r4, [r3, #16]
  44              	.LVL1:
  45              		.loc 1 115 0
  46 0008 DA68     		ldr	r2, [r3, #12]
  47 000a 1440     		ands	r4, r4, r2
  48              	.LVL2:
  49 000c E2B2     		uxtb	r2, r4
  50              		.loc 1 116 0
  51 000e D243     		mvns	r2, r2
  52 0010 1A61     		str	r2, [r3, #16]
  53              		.loc 1 117 0
  54 0012 A307     		lsls	r3, r4, #30
  55 0014 04D5     		bpl	.L2
  56              		.loc 1 118 0
  57 0016 6B68     		ldr	r3, [r5, #4]
ARM GAS  /var/folders/qd/4mxf5pkd0zdf0b9dd1hp39180000gn/T//ccwJbDXU.s 			page 2


  58 0018 1B69     		ldr	r3, [r3, #16]
  59              		.loc 1 117 0
  60 001a 0BB1     		cbz	r3, .L2
  61              		.loc 1 119 0
  62 001c 2846     		mov	r0, r5
  63 001e 9847     		blx	r3
  64              	.LVL3:
  65              	.L2:
  66              		.loc 1 120 0
  67 0020 6007     		lsls	r0, r4, #29
  68 0022 04D5     		bpl	.L3
  69              		.loc 1 121 0
  70 0024 6B68     		ldr	r3, [r5, #4]
  71 0026 9B69     		ldr	r3, [r3, #24]
  72              		.loc 1 120 0
  73 0028 0BB1     		cbz	r3, .L3
  74              		.loc 1 122 0
  75 002a 0D48     		ldr	r0, .L39
  76 002c 9847     		blx	r3
  77              	.LVL4:
  78              	.L3:
  79              		.loc 1 123 0
  80 002e 2107     		lsls	r1, r4, #28
  81 0030 04D5     		bpl	.L4
  82              		.loc 1 124 0
  83 0032 6B68     		ldr	r3, [r5, #4]
  84 0034 1B6A     		ldr	r3, [r3, #32]
  85              		.loc 1 123 0
  86 0036 0BB1     		cbz	r3, .L4
  87              		.loc 1 125 0
  88 0038 0948     		ldr	r0, .L39
  89 003a 9847     		blx	r3
  90              	.LVL5:
  91              	.L4:
  92              		.loc 1 126 0
  93 003c E206     		lsls	r2, r4, #27
  94 003e 04D5     		bpl	.L5
  95              		.loc 1 127 0
  96 0040 6B68     		ldr	r3, [r5, #4]
  97 0042 9B6A     		ldr	r3, [r3, #40]
  98              		.loc 1 126 0
  99 0044 0BB1     		cbz	r3, .L5
 100              		.loc 1 128 0
 101 0046 0648     		ldr	r0, .L39
 102 0048 9847     		blx	r3
 103              	.LVL6:
 104              	.L5:
 105              		.loc 1 129 0
 106 004a E307     		lsls	r3, r4, #31
 107 004c 04D5     		bpl	.L6
 108 004e 6B68     		ldr	r3, [r5, #4]
 109 0050 9B68     		ldr	r3, [r3, #8]
 110 0052 0BB1     		cbz	r3, .L6
 111              		.loc 1 130 0
 112 0054 0248     		ldr	r0, .L39
 113 0056 9847     		blx	r3
 114              	.LVL7:
ARM GAS  /var/folders/qd/4mxf5pkd0zdf0b9dd1hp39180000gn/T//ccwJbDXU.s 			page 3


 115              	.L6:
 116              	.LBE5:
 117              	.LBE4:
 118              		.loc 1 253 0
 119 0058 BDE83840 		pop	{r3, r4, r5, lr}
 120              		.cfi_restore 14
 121              		.cfi_restore 5
 122              		.cfi_restore 4
 123              		.cfi_restore 3
 124              		.cfi_def_cfa_offset 0
 125              		.loc 1 252 0
 126 005c FFF7FEBF 		b	_port_irq_epilogue
 127              	.LVL8:
 128              	.L40:
 129              		.align	2
 130              	.L39:
 131 0060 00000000 		.word	.LANCHOR0
 132              		.cfi_endproc
 133              	.LFE261:
 134              		.size	VectorB8, .-VectorB8
 135              		.section	.text.pwm_lld_init,"ax",%progbits
 136              		.align	1
 137              		.p2align 4,,15
 138              		.global	pwm_lld_init
 139              		.syntax unified
 140              		.thumb
 141              		.thumb_func
 142              		.fpu softvfp
 143              		.type	pwm_lld_init, %function
 144              	pwm_lld_init:
 145              	.LFB262:
 146              		.loc 1 364 0
 147              		.cfi_startproc
 148              		@ args = 0, pretend = 0, frame = 0
 149              		@ frame_needed = 0, uses_anonymous_args = 0
 150 0000 10B5     		push	{r4, lr}
 151              		.cfi_def_cfa_offset 8
 152              		.cfi_offset 4, -8
 153              		.cfi_offset 14, -4
 154              		.loc 1 389 0
 155 0002 044C     		ldr	r4, .L43
 156 0004 2046     		mov	r0, r4
 157 0006 FFF7FEFF 		bl	pwmObjectInit
 158              	.LVL9:
 159              		.loc 1 390 0
 160 000a 0422     		movs	r2, #4
 161              		.loc 1 391 0
 162 000c 024B     		ldr	r3, .L43+4
 163              		.loc 1 390 0
 164 000e 2274     		strb	r2, [r4, #16]
 165              		.loc 1 391 0
 166 0010 A361     		str	r3, [r4, #24]
 167              		.loc 1 414 0
 168 0012 10BD     		pop	{r4, pc}
 169              	.L44:
 170              		.align	2
 171              	.L43:
ARM GAS  /var/folders/qd/4mxf5pkd0zdf0b9dd1hp39180000gn/T//ccwJbDXU.s 			page 4


 172 0014 00000000 		.word	.LANCHOR0
 173 0018 00080040 		.word	1073743872
 174              		.cfi_endproc
 175              	.LFE262:
 176              		.size	pwm_lld_init, .-pwm_lld_init
 177              		.section	.text.pwm_lld_start,"ax",%progbits
 178              		.align	1
 179              		.p2align 4,,15
 180              		.global	pwm_lld_start
 181              		.syntax unified
 182              		.thumb
 183              		.thumb_func
 184              		.fpu softvfp
 185              		.type	pwm_lld_start, %function
 186              	pwm_lld_start:
 187              	.LFB263:
 188              		.loc 1 425 0
 189              		.cfi_startproc
 190              		@ args = 0, pretend = 0, frame = 0
 191              		@ frame_needed = 0, uses_anonymous_args = 0
 192              	.LVL10:
 193              		.loc 1 429 0
 194 0000 0378     		ldrb	r3, [r0]	@ zero_extendqisi2
 195 0002 012B     		cmp	r3, #1
 196              		.loc 1 425 0
 197 0004 70B5     		push	{r4, r5, r6, lr}
 198              		.cfi_def_cfa_offset 16
 199              		.cfi_offset 4, -16
 200              		.cfi_offset 5, -12
 201              		.cfi_offset 6, -8
 202              		.cfi_offset 14, -4
 203              		.loc 1 425 0
 204 0006 0446     		mov	r4, r0
 205              		.loc 1 429 0
 206 0008 4BD0     		beq	.L73
 207              		.loc 1 512 0
 208 000a 8369     		ldr	r3, [r0, #24]
 209 000c 0022     		movs	r2, #0
 210 000e 1A60     		str	r2, [r3]
 211              		.loc 1 513 0
 212 0010 5A63     		str	r2, [r3, #52]
 213              		.loc 1 514 0
 214 0012 9A63     		str	r2, [r3, #56]
 215              		.loc 1 515 0
 216 0014 DA63     		str	r2, [r3, #60]
 217              		.loc 1 516 0
 218 0016 1A64     		str	r2, [r3, #64]
 219              		.loc 1 523 0
 220 0018 5A62     		str	r2, [r3, #36]
 221              	.LVL11:
 222              	.L48:
 223              		.loc 1 532 0
 224 001a D4E90115 		ldrd	r1, r5, [r4, #4]
 225              		.loc 1 537 0
 226 001e CA68     		ldr	r2, [r1, #12]
 227              		.loc 1 527 0
 228 0020 6069     		ldr	r0, [r4, #20]
ARM GAS  /var/folders/qd/4mxf5pkd0zdf0b9dd1hp39180000gn/T//ccwJbDXU.s 			page 5


 229 0022 0E68     		ldr	r6, [r1]
 230 0024 B0FBF6F0 		udiv	r0, r0, r6
 231              		.loc 1 537 0
 232 0028 02F00F02 		and	r2, r2, #15
 233              		.loc 1 532 0
 234 002c 6C1E     		subs	r4, r5, #1
 235              	.LVL12:
 236              		.loc 1 527 0
 237 002e 0138     		subs	r0, r0, #1
 238              	.LVL13:
 239              		.loc 1 533 0
 240 0030 CD6A     		ldr	r5, [r1, #44]
 241              		.loc 1 531 0
 242 0032 9862     		str	r0, [r3, #40]
 243              		.loc 1 537 0
 244 0034 012A     		cmp	r2, #1
 245              		.loc 1 532 0
 246 0036 DC62     		str	r4, [r3, #44]
 247              		.loc 1 533 0
 248 0038 5D60     		str	r5, [r3, #4]
 249              	.LVL14:
 250              		.loc 1 537 0
 251 003a 03D0     		beq	.L49
 252              		.loc 1 536 0
 253 003c 022A     		cmp	r2, #2
 254 003e 0CBF     		ite	eq
 255 0040 0322     		moveq	r2, #3
 256 0042 0022     		movne	r2, #0
 257              	.L49:
 258              	.LVL15:
 259              		.loc 1 545 0
 260 0044 4869     		ldr	r0, [r1, #20]
 261              	.LVL16:
 262 0046 00F00F00 		and	r0, r0, #15
 263 004a 0128     		cmp	r0, #1
 264 004c 26D0     		beq	.L53
 265 004e 0228     		cmp	r0, #2
 266 0050 22D0     		beq	.L74
 267              	.L52:
 268              		.loc 1 553 0
 269 0052 C869     		ldr	r0, [r1, #28]
 270 0054 00F00F00 		and	r0, r0, #15
 271 0058 0128     		cmp	r0, #1
 272 005a 1AD0     		beq	.L56
 273 005c 0228     		cmp	r0, #2
 274 005e 16D0     		beq	.L75
 275              	.L55:
 276              		.loc 1 561 0
 277 0060 486A     		ldr	r0, [r1, #36]
 278 0062 00F00F00 		and	r0, r0, #15
 279 0066 0128     		cmp	r0, #1
 280 0068 03D0     		beq	.L59
 281 006a 0228     		cmp	r0, #2
 282 006c 03D1     		bne	.L58
 283              		.loc 1 563 0
 284 006e 42F40052 		orr	r2, r2, #8192
 285              	.LVL17:
ARM GAS  /var/folders/qd/4mxf5pkd0zdf0b9dd1hp39180000gn/T//ccwJbDXU.s 			page 6


 286              	.L59:
 287              		.loc 1 565 0
 288 0072 42F48052 		orr	r2, r2, #4096
 289              	.LVL18:
 290              	.L58:
 291              		.loc 1 609 0
 292 0076 096B     		ldr	r1, [r1, #48]
 293              		.loc 1 606 0
 294 0078 1A62     		str	r2, [r3, #32]
 295              		.loc 1 607 0
 296 007a 0124     		movs	r4, #1
 297              		.loc 1 609 0
 298 007c 21F0FF02 		bic	r2, r1, #255
 299              	.LVL19:
 300              		.loc 1 608 0
 301 0080 0020     		movs	r0, #0
 302              		.loc 1 619 0
 303 0082 8521     		movs	r1, #133
 304              		.loc 1 607 0
 305 0084 5C61     		str	r4, [r3, #20]
 306              	.LVL20:
 307              		.loc 1 608 0
 308 0086 1861     		str	r0, [r3, #16]
 309              		.loc 1 609 0
 310 0088 DA60     		str	r2, [r3, #12]
 311              		.loc 1 619 0
 312 008a 1960     		str	r1, [r3]
 313              		.loc 1 621 0
 314 008c 70BD     		pop	{r4, r5, r6, pc}
 315              	.LVL21:
 316              	.L75:
 317              		.loc 1 555 0
 318 008e 42F40072 		orr	r2, r2, #512
 319              	.LVL22:
 320              	.L56:
 321              		.loc 1 557 0
 322 0092 42F48072 		orr	r2, r2, #256
 323              	.LVL23:
 324 0096 E3E7     		b	.L55
 325              	.L74:
 326              		.loc 1 547 0
 327 0098 42F02002 		orr	r2, r2, #32
 328              	.LVL24:
 329              	.L53:
 330              		.loc 1 549 0
 331 009c 42F01002 		orr	r2, r2, #16
 332              	.LVL25:
 333 00a0 D7E7     		b	.L52
 334              	.LVL26:
 335              	.L73:
 336              		.loc 1 461 0
 337 00a2 0D4B     		ldr	r3, .L77
 338 00a4 9842     		cmp	r0, r3
 339 00a6 05D0     		beq	.L76
 340              	.LVL27:
 341              	.L47:
 342              		.loc 1 501 0
ARM GAS  /var/folders/qd/4mxf5pkd0zdf0b9dd1hp39180000gn/T//ccwJbDXU.s 			page 7


 343 00a8 A369     		ldr	r3, [r4, #24]
 344 00aa 46F66802 		movw	r2, #26728
 345 00ae 9A61     		str	r2, [r3, #24]
 346              		.loc 1 503 0
 347 00b0 DA61     		str	r2, [r3, #28]
 348 00b2 B2E7     		b	.L48
 349              	.LVL28:
 350              	.L76:
 351              		.loc 1 462 0
 352 00b4 094B     		ldr	r3, .L77+4
 353 00b6 1A6C     		ldr	r2, [r3, #64]
 354 00b8 42F00402 		orr	r2, r2, #4
 355 00bc 1A64     		str	r2, [r3, #64]
 356              		.loc 1 463 0
 357 00be 1A6A     		ldr	r2, [r3, #32]
 358 00c0 0020     		movs	r0, #0
 359              	.LVL29:
 360 00c2 42F00402 		orr	r2, r2, #4
 361 00c6 1A62     		str	r2, [r3, #32]
 362              		.loc 1 464 0
 363 00c8 0721     		movs	r1, #7
 364              		.loc 1 463 0
 365 00ca 1862     		str	r0, [r3, #32]
 366              		.loc 1 464 0
 367 00cc 1E20     		movs	r0, #30
 368 00ce FFF7FEFF 		bl	nvicEnableVector
 369              	.LVL30:
 370              		.loc 1 465 0
 371 00d2 034B     		ldr	r3, .L77+8
 372 00d4 6361     		str	r3, [r4, #20]
 373 00d6 E7E7     		b	.L47
 374              	.L78:
 375              		.align	2
 376              	.L77:
 377 00d8 00000000 		.word	.LANCHOR0
 378 00dc 00380240 		.word	1073887232
 379 00e0 00BD0105 		.word	84000000
 380              		.cfi_endproc
 381              	.LFE263:
 382              		.size	pwm_lld_start, .-pwm_lld_start
 383              		.section	.text.pwm_lld_stop,"ax",%progbits
 384              		.align	1
 385              		.p2align 4,,15
 386              		.global	pwm_lld_stop
 387              		.syntax unified
 388              		.thumb
 389              		.thumb_func
 390              		.fpu softvfp
 391              		.type	pwm_lld_stop, %function
 392              	pwm_lld_stop:
 393              	.LFB264:
 394              		.loc 1 630 0
 395              		.cfi_startproc
 396              		@ args = 0, pretend = 0, frame = 0
 397              		@ frame_needed = 0, uses_anonymous_args = 0
 398              	.LVL31:
 399 0000 08B5     		push	{r3, lr}
ARM GAS  /var/folders/qd/4mxf5pkd0zdf0b9dd1hp39180000gn/T//ccwJbDXU.s 			page 8


 400              		.cfi_def_cfa_offset 8
 401              		.cfi_offset 3, -8
 402              		.cfi_offset 14, -4
 403              		.loc 1 633 0
 404 0002 0378     		ldrb	r3, [r0]	@ zero_extendqisi2
 405 0004 022B     		cmp	r3, #2
 406 0006 00D0     		beq	.L84
 407              	.L79:
 408              		.loc 1 686 0
 409 0008 08BD     		pop	{r3, pc}
 410              	.L84:
 411              		.loc 1 661 0
 412 000a 0849     		ldr	r1, .L85
 413              		.loc 1 634 0
 414 000c 8369     		ldr	r3, [r0, #24]
 415 000e 0022     		movs	r2, #0
 416              		.loc 1 661 0
 417 0010 8842     		cmp	r0, r1
 418              		.loc 1 634 0
 419 0012 1A60     		str	r2, [r3]
 420              		.loc 1 635 0
 421 0014 DA60     		str	r2, [r3, #12]
 422              		.loc 1 636 0
 423 0016 1A61     		str	r2, [r3, #16]
 424              		.loc 1 661 0
 425 0018 F6D1     		bne	.L79
 426              		.loc 1 662 0
 427 001a 1E20     		movs	r0, #30
 428              	.LVL32:
 429 001c FFF7FEFF 		bl	nvicDisableVector
 430              	.LVL33:
 431              		.loc 1 663 0
 432 0020 034A     		ldr	r2, .L85+4
 433 0022 136C     		ldr	r3, [r2, #64]
 434 0024 23F00403 		bic	r3, r3, #4
 435 0028 1364     		str	r3, [r2, #64]
 436              		.loc 1 686 0
 437 002a 08BD     		pop	{r3, pc}
 438              	.L86:
 439              		.align	2
 440              	.L85:
 441 002c 00000000 		.word	.LANCHOR0
 442 0030 00380240 		.word	1073887232
 443              		.cfi_endproc
 444              	.LFE264:
 445              		.size	pwm_lld_stop, .-pwm_lld_stop
 446              		.section	.text.pwm_lld_enable_channel,"ax",%progbits
 447              		.align	1
 448              		.p2align 4,,15
 449              		.global	pwm_lld_enable_channel
 450              		.syntax unified
 451              		.thumb
 452              		.thumb_func
 453              		.fpu softvfp
 454              		.type	pwm_lld_enable_channel, %function
 455              	pwm_lld_enable_channel:
 456              	.LFB265:
ARM GAS  /var/folders/qd/4mxf5pkd0zdf0b9dd1hp39180000gn/T//ccwJbDXU.s 			page 9


 457              		.loc 1 703 0
 458              		.cfi_startproc
 459              		@ args = 0, pretend = 0, frame = 0
 460              		@ frame_needed = 0, uses_anonymous_args = 0
 461              		@ link register save eliminated.
 462              	.LVL34:
 463              		.loc 1 707 0
 464 0000 8369     		ldr	r3, [r0, #24]
 465 0002 0C31     		adds	r1, r1, #12
 466              	.LVL35:
 467 0004 03EB8103 		add	r3, r3, r1, lsl #2
 468 0008 5A60     		str	r2, [r3, #4]
 469              		.loc 1 714 0
 470 000a 7047     		bx	lr
 471              		.cfi_endproc
 472              	.LFE265:
 473              		.size	pwm_lld_enable_channel, .-pwm_lld_enable_channel
 474              		.section	.text.pwm_lld_disable_channel,"ax",%progbits
 475              		.align	1
 476              		.p2align 4,,15
 477              		.global	pwm_lld_disable_channel
 478              		.syntax unified
 479              		.thumb
 480              		.thumb_func
 481              		.fpu softvfp
 482              		.type	pwm_lld_disable_channel, %function
 483              	pwm_lld_disable_channel:
 484              	.LFB266:
 485              		.loc 1 728 0
 486              		.cfi_startproc
 487              		@ args = 0, pretend = 0, frame = 0
 488              		@ frame_needed = 0, uses_anonymous_args = 0
 489              		@ link register save eliminated.
 490              	.LVL36:
 491              		.loc 1 731 0
 492 0000 8369     		ldr	r3, [r0, #24]
 493 0002 01F10C02 		add	r2, r1, #12
 494 0006 03EB8202 		add	r2, r3, r2, lsl #2
 495 000a 0020     		movs	r0, #0
 496              	.LVL37:
 497 000c 5060     		str	r0, [r2, #4]
 498              		.loc 1 732 0
 499 000e DA68     		ldr	r2, [r3, #12]
 500 0010 0220     		movs	r0, #2
 501 0012 00FA01F1 		lsl	r1, r0, r1
 502              	.LVL38:
 503 0016 22EA0101 		bic	r1, r2, r1
 504 001a D960     		str	r1, [r3, #12]
 505              		.loc 1 741 0
 506 001c 7047     		bx	lr
 507              		.cfi_endproc
 508              	.LFE266:
 509              		.size	pwm_lld_disable_channel, .-pwm_lld_disable_channel
 510 001e 00BF     		.section	.text.pwm_lld_enable_periodic_notification,"ax",%progbits
 511              		.align	1
 512              		.p2align 4,,15
 513              		.global	pwm_lld_enable_periodic_notification
ARM GAS  /var/folders/qd/4mxf5pkd0zdf0b9dd1hp39180000gn/T//ccwJbDXU.s 			page 10


 514              		.syntax unified
 515              		.thumb
 516              		.thumb_func
 517              		.fpu softvfp
 518              		.type	pwm_lld_enable_periodic_notification, %function
 519              	pwm_lld_enable_periodic_notification:
 520              	.LFB267:
 521              		.loc 1 752 0
 522              		.cfi_startproc
 523              		@ args = 0, pretend = 0, frame = 0
 524              		@ frame_needed = 0, uses_anonymous_args = 0
 525              		@ link register save eliminated.
 526              	.LVL39:
 527              		.loc 1 753 0
 528 0000 8369     		ldr	r3, [r0, #24]
 529 0002 DA68     		ldr	r2, [r3, #12]
 530              	.LVL40:
 531              		.loc 1 757 0
 532 0004 D107     		lsls	r1, r2, #31
 533 0006 06D4     		bmi	.L89
 534              		.loc 1 758 0
 535 0008 1969     		ldr	r1, [r3, #16]
 536              		.loc 1 759 0
 537 000a 42F00102 		orr	r2, r2, #1
 538              	.LVL41:
 539              		.loc 1 758 0
 540 000e 21F00101 		bic	r1, r1, #1
 541 0012 1961     		str	r1, [r3, #16]
 542              		.loc 1 759 0
 543 0014 DA60     		str	r2, [r3, #12]
 544              	.L89:
 545              		.loc 1 761 0
 546 0016 7047     		bx	lr
 547              		.cfi_endproc
 548              	.LFE267:
 549              		.size	pwm_lld_enable_periodic_notification, .-pwm_lld_enable_periodic_notification
 550              		.section	.text.pwm_lld_disable_periodic_notification,"ax",%progbits
 551              		.align	1
 552              		.p2align 4,,15
 553              		.global	pwm_lld_disable_periodic_notification
 554              		.syntax unified
 555              		.thumb
 556              		.thumb_func
 557              		.fpu softvfp
 558              		.type	pwm_lld_disable_periodic_notification, %function
 559              	pwm_lld_disable_periodic_notification:
 560              	.LFB268:
 561              		.loc 1 772 0
 562              		.cfi_startproc
 563              		@ args = 0, pretend = 0, frame = 0
 564              		@ frame_needed = 0, uses_anonymous_args = 0
 565              		@ link register save eliminated.
 566              	.LVL42:
 567              		.loc 1 774 0
 568 0000 8269     		ldr	r2, [r0, #24]
 569 0002 D368     		ldr	r3, [r2, #12]
 570 0004 23F00103 		bic	r3, r3, #1
ARM GAS  /var/folders/qd/4mxf5pkd0zdf0b9dd1hp39180000gn/T//ccwJbDXU.s 			page 11


 571 0008 D360     		str	r3, [r2, #12]
 572              		.loc 1 775 0
 573 000a 7047     		bx	lr
 574              		.cfi_endproc
 575              	.LFE268:
 576              		.size	pwm_lld_disable_periodic_notification, .-pwm_lld_disable_periodic_notification
 577              		.section	.text.pwm_lld_enable_channel_notification,"ax",%progbits
 578              		.align	1
 579              		.p2align 4,,15
 580              		.global	pwm_lld_enable_channel_notification
 581              		.syntax unified
 582              		.thumb
 583              		.thumb_func
 584              		.fpu softvfp
 585              		.type	pwm_lld_enable_channel_notification, %function
 586              	pwm_lld_enable_channel_notification:
 587              	.LFB269:
 588              		.loc 1 789 0
 589              		.cfi_startproc
 590              		@ args = 0, pretend = 0, frame = 0
 591              		@ frame_needed = 0, uses_anonymous_args = 0
 592              		@ link register save eliminated.
 593              	.LVL43:
 594              		.loc 1 790 0
 595 0000 8069     		ldr	r0, [r0, #24]
 596              	.LVL44:
 597              		.loc 1 799 0
 598 0002 0223     		movs	r3, #2
 599              		.loc 1 790 0
 600 0004 C268     		ldr	r2, [r0, #12]
 601              	.LVL45:
 602              		.loc 1 799 0
 603 0006 03FA01F1 		lsl	r1, r3, r1
 604              	.LVL46:
 605 000a 1142     		tst	r1, r2
 606 000c 03D1     		bne	.L92
 607              		.loc 1 800 0
 608 000e 0A43     		orrs	r2, r2, r1
 609              	.LVL47:
 610              		.loc 1 801 0
 611 0010 C943     		mvns	r1, r1
 612              		.loc 1 800 0
 613 0012 C260     		str	r2, [r0, #12]
 614              		.loc 1 801 0
 615 0014 0161     		str	r1, [r0, #16]
 616              	.L92:
 617              		.loc 1 803 0
 618 0016 7047     		bx	lr
 619              		.cfi_endproc
 620              	.LFE269:
 621              		.size	pwm_lld_enable_channel_notification, .-pwm_lld_enable_channel_notification
 622              		.section	.text.pwm_lld_disable_channel_notification,"ax",%progbits
 623              		.align	1
 624              		.p2align 4,,15
 625              		.global	pwm_lld_disable_channel_notification
 626              		.syntax unified
 627              		.thumb
ARM GAS  /var/folders/qd/4mxf5pkd0zdf0b9dd1hp39180000gn/T//ccwJbDXU.s 			page 12


 628              		.thumb_func
 629              		.fpu softvfp
 630              		.type	pwm_lld_disable_channel_notification, %function
 631              	pwm_lld_disable_channel_notification:
 632              	.LFB270:
 633              		.loc 1 817 0
 634              		.cfi_startproc
 635              		@ args = 0, pretend = 0, frame = 0
 636              		@ frame_needed = 0, uses_anonymous_args = 0
 637              		@ link register save eliminated.
 638              	.LVL48:
 639              		.loc 1 819 0
 640 0000 8069     		ldr	r0, [r0, #24]
 641              	.LVL49:
 642 0002 0222     		movs	r2, #2
 643 0004 C368     		ldr	r3, [r0, #12]
 644 0006 02FA01F1 		lsl	r1, r2, r1
 645              	.LVL50:
 646 000a 23EA0103 		bic	r3, r3, r1
 647 000e C360     		str	r3, [r0, #12]
 648              		.loc 1 820 0
 649 0010 7047     		bx	lr
 650              		.cfi_endproc
 651              	.LFE270:
 652              		.size	pwm_lld_disable_channel_notification, .-pwm_lld_disable_channel_notification
 653              		.global	PWMD4
 654 0012 00BF     		.section	.bss.PWMD4,"aw",%nobits
 655              		.align	2
 656              		.set	.LANCHOR0,. + 0
 657              		.type	PWMD4, %object
 658              		.size	PWMD4, 28
 659              	PWMD4:
 660 0000 00000000 		.space	28
 660      00000000 
 660      00000000 
 660      00000000 
 660      00000000 
 661              		.text
 662              	.Letext0:
 663              		.file 2 "/Applications/Eclipse_e-puck2.app/Contents/Eclipse_e-puck2/Tools/gcc-arm-none-eabi-7-2017
 664              		.file 3 "/Applications/Eclipse_e-puck2.app/Contents/Eclipse_e-puck2/Tools/gcc-arm-none-eabi-7-2017
 665              		.file 4 "/Applications/Eclipse_e-puck2.app/Contents/Eclipse_e-puck2/Tools/gcc-arm-none-eabi-7-2017
 666              		.file 5 "../../../os/rt/ports/ARMCMx/compilers/GCC/chtypes.h"
 667              		.file 6 "../../../os/rt/include/chsystypes.h"
 668              		.file 7 "../../../os/rt/include/chschd.h"
 669              		.file 8 "../../../os/ext/CMSIS/include/core_cm4.h"
 670              		.file 9 "../../../os/ext/CMSIS/ST/system_stm32f4xx.h"
 671              		.file 10 "../../../os/ext/CMSIS/ST/stm32f407xx.h"
 672              		.file 11 "../../../os/rt/ports/ARMCMx/chcore.h"
 673              		.file 12 "../../../os/rt/ports/ARMCMx/chcore_v7m.h"
 674              		.file 13 "../../../os/hal/ports/STM32/LLD/TIMv1/stm32_tim.h"
 675              		.file 14 "../../../os/rt/include/chtm.h"
 676              		.file 15 "../../../os/rt/include/chsem.h"
 677              		.file 16 "../../../os/rt/include/chmtx.h"
 678              		.file 17 "../../../os/rt/include/chregistry.h"
 679              		.file 18 "../../../os/rt/include/chevents.h"
 680              		.file 19 "../../../os/rt/include/chqueues.h"
ARM GAS  /var/folders/qd/4mxf5pkd0zdf0b9dd1hp39180000gn/T//ccwJbDXU.s 			page 13


 681              		.file 20 "../../../os/hal/ports/STM32/STM32F4xx/stm32_dma.h"
 682              		.file 21 "../../../os/hal/ports/STM32/LLD/GPIOv2/pal_lld.h"
 683              		.file 22 "../../../os/hal/include/pwm.h"
 684              		.file 23 "../../../os/hal/ports/STM32/LLD/TIMv1/pwm_lld.h"
 685              		.file 24 "../../../os/hal/include/serial.h"
 686              		.file 25 "../../../os/hal/ports/STM32/LLD/USARTv1/serial_lld.h"
 687              		.file 26 "../../../os/hal/include/spi.h"
 688              		.file 27 "../../../os/hal/ports/STM32/LLD/SPIv1/spi_lld.h"
 689              		.file 28 "../../../os/hal/ports/common/ARMCMx/nvic.h"