ARM GAS  /var/folders/qd/4mxf5pkd0zdf0b9dd1hp39180000gn/T//ccqDCcuM.s 			page 1


   1              		.cpu cortex-m4
   2              		.eabi_attribute 20, 1
   3              		.eabi_attribute 21, 1
   4              		.eabi_attribute 23, 3
   5              		.eabi_attribute 24, 1
   6              		.eabi_attribute 25, 1
   7              		.eabi_attribute 26, 1
   8              		.eabi_attribute 30, 2
   9              		.eabi_attribute 34, 1
  10              		.eabi_attribute 18, 4
  11              		.file	"st_lld.c"
  12              		.text
  13              	.Ltext0:
  14              		.cfi_sections	.debug_frame
  15              		.section	.text.VectorB0,"ax",%progbits
  16              		.align	1
  17              		.p2align 4,,15
  18              		.global	VectorB0
  19              		.syntax unified
  20              		.thumb
  21              		.thumb_func
  22              		.fpu softvfp
  23              		.type	VectorB0, %function
  24              	VectorB0:
  25              	.LFB260:
  26              		.file 1 "../../../os/hal/ports/STM32/LLD/TIMv1/st_lld.c"
  27              		.loc 1 173 0
  28              		.cfi_startproc
  29              		@ args = 0, pretend = 0, frame = 0
  30              		@ frame_needed = 0, uses_anonymous_args = 0
  31              		.loc 1 180 0
  32 0000 4FF08043 		mov	r3, #1073741824
  33 0004 1A69     		ldr	r2, [r3, #16]
  34 0006 9207     		lsls	r2, r2, #30
  35 0008 01D4     		bmi	.L11
  36              		.loc 1 188 0
  37 000a FFF7FEBF 		b	_port_irq_epilogue
  38              	.LVL0:
  39              	.L11:
  40              		.loc 1 173 0
  41 000e 10B5     		push	{r4, lr}
  42              		.cfi_def_cfa_offset 8
  43              		.cfi_offset 4, -8
  44              		.cfi_offset 14, -4
  45              		.loc 1 181 0
  46 0010 0024     		movs	r4, #0
  47 0012 1C61     		str	r4, [r3, #16]
  48              	.LVL1:
  49              	.LBB52:
  50              	.LBB53:
  51              	.LBB54:
  52              	.LBB55:
  53              	.LBB56:
  54              	.LBB57:
  55              		.file 2 "../../../os/ext/CMSIS/include/core_cmFunc.h"
  56              		.loc 2 546 0
  57 0014 2023     		movs	r3, #32
ARM GAS  /var/folders/qd/4mxf5pkd0zdf0b9dd1hp39180000gn/T//ccqDCcuM.s 			page 2


  58              		.syntax unified
  59              	@ 546 "../../../os/ext/CMSIS/include/core_cmFunc.h" 1
  60 0016 83F31188 		MSR basepri, r3
  61              	@ 0 "" 2
  62              	.LVL2:
  63              		.thumb
  64              		.syntax unified
  65              	.LBE57:
  66              	.LBE56:
  67              	.LBE55:
  68              	.LBE54:
  69              	.LBE53:
  70              	.LBE52:
  71              	.LBB58:
  72              	.LBB59:
  73              		.file 3 "../../../os/hal/osal/rt/osal.h"
  74              		.loc 3 539 0
  75 001a FFF7FEFF 		bl	chSysTimerHandlerI
  76              	.LVL3:
  77              	.LBE59:
  78              	.LBE58:
  79              	.LBB60:
  80              	.LBB61:
  81              	.LBB62:
  82              	.LBB63:
  83              	.LBB64:
  84              	.LBB65:
  85              		.loc 2 546 0
  86              		.syntax unified
  87              	@ 546 "../../../os/ext/CMSIS/include/core_cmFunc.h" 1
  88 001e 84F31188 		MSR basepri, r4
  89              	@ 0 "" 2
  90              	.LVL4:
  91              		.thumb
  92              		.syntax unified
  93              	.LBE65:
  94              	.LBE64:
  95              	.LBE63:
  96              	.LBE62:
  97              	.LBE61:
  98              	.LBE60:
  99              		.loc 1 189 0
 100 0022 BDE81040 		pop	{r4, lr}
 101              		.cfi_restore 14
 102              		.cfi_restore 4
 103              		.cfi_def_cfa_offset 0
 104              		.loc 1 188 0
 105 0026 FFF7FEBF 		b	_port_irq_epilogue
 106              	.LVL5:
 107              		.cfi_endproc
 108              	.LFE260:
 109              		.size	VectorB0, .-VectorB0
 110 002a 00BF     		.section	.text.st_lld_init,"ax",%progbits
 111              		.align	1
 112              		.p2align 4,,15
 113              		.global	st_lld_init
 114              		.syntax unified
ARM GAS  /var/folders/qd/4mxf5pkd0zdf0b9dd1hp39180000gn/T//ccqDCcuM.s 			page 3


 115              		.thumb
 116              		.thumb_func
 117              		.fpu softvfp
 118              		.type	st_lld_init, %function
 119              	st_lld_init:
 120              	.LFB261:
 121              		.loc 1 201 0
 122              		.cfi_startproc
 123              		@ args = 0, pretend = 0, frame = 0
 124              		@ frame_needed = 0, uses_anonymous_args = 0
 125              		@ link register save eliminated.
 126              		.loc 1 207 0
 127 0000 0F4A     		ldr	r2, .L14
 128              		.loc 1 210 0
 129 0002 1048     		ldr	r0, .L14+4
 130              		.loc 1 207 0
 131 0004 136C     		ldr	r3, [r2, #64]
 132              		.loc 1 201 0
 133 0006 70B4     		push	{r4, r5, r6}
 134              		.cfi_def_cfa_offset 12
 135              		.cfi_offset 4, -12
 136              		.cfi_offset 5, -8
 137              		.cfi_offset 6, -4
 138              		.loc 1 207 0
 139 0008 43F00103 		orr	r3, r3, #1
 140 000c 1364     		str	r3, [r2, #64]
 141              		.loc 1 210 0
 142 000e 8168     		ldr	r1, [r0, #8]
 143              		.loc 1 213 0
 144 0010 4FF08043 		mov	r3, #1073741824
 145              		.loc 1 215 0
 146 0014 0022     		movs	r2, #0
 147              		.loc 1 219 0
 148 0016 0124     		movs	r4, #1
 149              		.loc 1 210 0
 150 0018 41F00101 		orr	r1, r1, #1
 151              		.loc 1 213 0
 152 001c 42F2CF06 		movw	r6, #8399
 153              		.loc 1 214 0
 154 0020 4FF0FF35 		mov	r5, #-1
 155              		.loc 1 210 0
 156 0024 8160     		str	r1, [r0, #8]
 157              		.loc 1 213 0
 158 0026 9E62     		str	r6, [r3, #40]
 159              		.loc 1 223 0
 160 0028 0821     		movs	r1, #8
 161              		.loc 1 214 0
 162 002a DD62     		str	r5, [r3, #44]
 163              		.loc 1 223 0
 164 002c 1C20     		movs	r0, #28
 165              		.loc 1 215 0
 166 002e 9A61     		str	r2, [r3, #24]
 167              		.loc 1 216 0
 168 0030 5A63     		str	r2, [r3, #52]
 169              		.loc 1 217 0
 170 0032 DA60     		str	r2, [r3, #12]
 171              		.loc 1 218 0
ARM GAS  /var/folders/qd/4mxf5pkd0zdf0b9dd1hp39180000gn/T//ccqDCcuM.s 			page 4


 172 0034 5A60     		str	r2, [r3, #4]
 173              		.loc 1 219 0
 174 0036 5C61     		str	r4, [r3, #20]
 175              		.loc 1 220 0
 176 0038 1C60     		str	r4, [r3]
 177              		.loc 1 238 0
 178 003a 70BC     		pop	{r4, r5, r6}
 179              		.cfi_restore 6
 180              		.cfi_restore 5
 181              		.cfi_restore 4
 182              		.cfi_def_cfa_offset 0
 183              		.loc 1 223 0
 184 003c FFF7FEBF 		b	nvicEnableVector
 185              	.LVL6:
 186              	.L15:
 187              		.align	2
 188              	.L14:
 189 0040 00380240 		.word	1073887232
 190 0044 002004E0 		.word	-536600576
 191              		.cfi_endproc
 192              	.LFE261:
 193              		.size	st_lld_init, .-st_lld_init
 194              		.text
 195              	.Letext0:
 196              		.file 4 "/Applications/Eclipse_e-puck2.app/Contents/Eclipse_e-puck2/Tools/gcc-arm-none-eabi-7-2017
 197              		.file 5 "/Applications/Eclipse_e-puck2.app/Contents/Eclipse_e-puck2/Tools/gcc-arm-none-eabi-7-2017
 198              		.file 6 "/Applications/Eclipse_e-puck2.app/Contents/Eclipse_e-puck2/Tools/gcc-arm-none-eabi-7-2017
 199              		.file 7 "../../../os/rt/ports/ARMCMx/compilers/GCC/chtypes.h"
 200              		.file 8 "../../../os/rt/include/chsystypes.h"
 201              		.file 9 "../../../os/rt/include/chschd.h"
 202              		.file 10 "../../../os/ext/CMSIS/include/core_cm4.h"
 203              		.file 11 "../../../os/ext/CMSIS/ST/system_stm32f4xx.h"
 204              		.file 12 "../../../os/ext/CMSIS/ST/stm32f407xx.h"
 205              		.file 13 "../../../os/rt/ports/ARMCMx/chcore.h"
 206              		.file 14 "../../../os/rt/ports/ARMCMx/chcore_v7m.h"
 207              		.file 15 "../../../os/hal/ports/STM32/LLD/TIMv1/stm32_tim.h"
 208              		.file 16 "../../../os/rt/include/chtm.h"
 209              		.file 17 "../../../os/rt/include/chsem.h"
 210              		.file 18 "../../../os/rt/include/chmtx.h"
 211              		.file 19 "../../../os/rt/include/chregistry.h"
 212              		.file 20 "../../../os/rt/include/chevents.h"
 213              		.file 21 "../../../os/rt/include/chqueues.h"
 214              		.file 22 "../../../os/hal/ports/STM32/STM32F4xx/stm32_dma.h"
 215              		.file 23 "../../../os/hal/ports/STM32/LLD/GPIOv2/pal_lld.h"
 216              		.file 24 "../../../os/hal/include/pwm.h"
 217              		.file 25 "../../../os/hal/ports/STM32/LLD/TIMv1/pwm_lld.h"
 218              		.file 26 "../../../os/hal/include/serial.h"
 219              		.file 27 "../../../os/hal/ports/STM32/LLD/USARTv1/serial_lld.h"
 220              		.file 28 "../../../os/hal/include/spi.h"
 221              		.file 29 "../../../os/hal/ports/STM32/LLD/SPIv1/spi_lld.h"
 222              		.file 30 "../../../os/rt/include/chsys.h"
 223              		.file 31 "../../../os/hal/ports/common/ARMCMx/nvic.h"
 224              		.section	.debug_info,"",%progbits
 225              	.Ldebug_info0:
 226 0000 B0160000 		.4byte	0x16b0
 227 0004 0400     		.2byte	0x4
 228 0006 00000000 		.4byte	.Ldebug_abbrev0
ARM GAS  /var/folders/qd/4mxf5pkd0zdf0b9dd1hp39180000gn/T//ccqDCcuM.s 			page 5


 229 000a 04       		.byte	0x4
 230 000b 01       		.uleb128 0x1
 231 000c EB050000 		.4byte	.LASF314
 232 0010 0C       		.byte	0xc
 233 0011 710A0000 		.4byte	.LASF315
 234 0015 160D0000 		.4byte	.LASF316
 235 0019 00000000 		.4byte	.Ldebug_ranges0+0
 236 001d 00000000 		.4byte	0
 237 0021 00000000 		.4byte	.Ldebug_line0
 238 0025 02       		.uleb128 0x2
 239 0026 04       		.byte	0x4
 240 0027 05       		.byte	0x5
 241 0028 696E7400 		.ascii	"int\000"
 242 002c 03       		.uleb128 0x3
 243 002d 18000000 		.4byte	.LASF4
 244 0031 04       		.byte	0x4
 245 0032 D8       		.byte	0xd8
 246 0033 37000000 		.4byte	0x37
 247 0037 04       		.uleb128 0x4
 248 0038 04       		.byte	0x4
 249 0039 07       		.byte	0x7
 250 003a 0A080000 		.4byte	.LASF0
 251 003e 04       		.uleb128 0x4
 252 003f 08       		.byte	0x8
 253 0040 05       		.byte	0x5
 254 0041 F7060000 		.4byte	.LASF1
 255 0045 04       		.uleb128 0x4
 256 0046 08       		.byte	0x8
 257 0047 04       		.byte	0x4
 258 0048 0C090000 		.4byte	.LASF2
 259 004c 04       		.uleb128 0x4
 260 004d 01       		.byte	0x1
 261 004e 06       		.byte	0x6
 262 004f A4020000 		.4byte	.LASF3
 263 0053 03       		.uleb128 0x3
 264 0054 73010000 		.4byte	.LASF5
 265 0058 05       		.byte	0x5
 266 0059 2B       		.byte	0x2b
 267 005a 5E000000 		.4byte	0x5e
 268 005e 04       		.uleb128 0x4
 269 005f 01       		.byte	0x1
 270 0060 08       		.byte	0x8
 271 0061 09030000 		.4byte	.LASF6
 272 0065 04       		.uleb128 0x4
 273 0066 02       		.byte	0x2
 274 0067 05       		.byte	0x5
 275 0068 510B0000 		.4byte	.LASF7
 276 006c 03       		.uleb128 0x3
 277 006d E6030000 		.4byte	.LASF8
 278 0071 05       		.byte	0x5
 279 0072 39       		.byte	0x39
 280 0073 77000000 		.4byte	0x77
 281 0077 04       		.uleb128 0x4
 282 0078 02       		.byte	0x2
 283 0079 07       		.byte	0x7
 284 007a 910C0000 		.4byte	.LASF9
 285 007e 03       		.uleb128 0x3
ARM GAS  /var/folders/qd/4mxf5pkd0zdf0b9dd1hp39180000gn/T//ccqDCcuM.s 			page 6


 286 007f DC0C0000 		.4byte	.LASF10
 287 0083 05       		.byte	0x5
 288 0084 4D       		.byte	0x4d
 289 0085 89000000 		.4byte	0x89
 290 0089 04       		.uleb128 0x4
 291 008a 04       		.byte	0x4
 292 008b 05       		.byte	0x5
 293 008c CA010000 		.4byte	.LASF11
 294 0090 03       		.uleb128 0x3
 295 0091 E2060000 		.4byte	.LASF12
 296 0095 05       		.byte	0x5
 297 0096 4F       		.byte	0x4f
 298 0097 9B000000 		.4byte	0x9b
 299 009b 04       		.uleb128 0x4
 300 009c 04       		.byte	0x4
 301 009d 07       		.byte	0x7
 302 009e 06050000 		.4byte	.LASF13
 303 00a2 03       		.uleb128 0x3
 304 00a3 FB040000 		.4byte	.LASF14
 305 00a7 05       		.byte	0x5
 306 00a8 69       		.byte	0x69
 307 00a9 AD000000 		.4byte	0xad
 308 00ad 04       		.uleb128 0x4
 309 00ae 08       		.byte	0x8
 310 00af 07       		.byte	0x7
 311 00b0 9E090000 		.4byte	.LASF15
 312 00b4 03       		.uleb128 0x3
 313 00b5 B7020000 		.4byte	.LASF16
 314 00b9 06       		.byte	0x6
 315 00ba 18       		.byte	0x18
 316 00bb 53000000 		.4byte	0x53
 317 00bf 05       		.uleb128 0x5
 318 00c0 B4000000 		.4byte	0xb4
 319 00c4 03       		.uleb128 0x3
 320 00c5 CD090000 		.4byte	.LASF17
 321 00c9 06       		.byte	0x6
 322 00ca 24       		.byte	0x24
 323 00cb 6C000000 		.4byte	0x6c
 324 00cf 03       		.uleb128 0x3
 325 00d0 84000000 		.4byte	.LASF18
 326 00d4 06       		.byte	0x6
 327 00d5 2C       		.byte	0x2c
 328 00d6 7E000000 		.4byte	0x7e
 329 00da 06       		.uleb128 0x6
 330 00db CF000000 		.4byte	0xcf
 331 00df 03       		.uleb128 0x3
 332 00e0 3E0C0000 		.4byte	.LASF19
 333 00e4 06       		.byte	0x6
 334 00e5 30       		.byte	0x30
 335 00e6 90000000 		.4byte	0x90
 336 00ea 06       		.uleb128 0x6
 337 00eb DF000000 		.4byte	0xdf
 338 00ef 03       		.uleb128 0x3
 339 00f0 680B0000 		.4byte	.LASF20
 340 00f4 06       		.byte	0x6
 341 00f5 3C       		.byte	0x3c
 342 00f6 A2000000 		.4byte	0xa2
ARM GAS  /var/folders/qd/4mxf5pkd0zdf0b9dd1hp39180000gn/T//ccqDCcuM.s 			page 7


 343 00fa 03       		.uleb128 0x3
 344 00fb 2C080000 		.4byte	.LASF21
 345 00ff 07       		.byte	0x7
 346 0100 45       		.byte	0x45
 347 0101 DF000000 		.4byte	0xdf
 348 0105 03       		.uleb128 0x3
 349 0106 CA0A0000 		.4byte	.LASF22
 350 010a 07       		.byte	0x7
 351 010b 48       		.byte	0x48
 352 010c B4000000 		.4byte	0xb4
 353 0110 03       		.uleb128 0x3
 354 0111 29020000 		.4byte	.LASF23
 355 0115 07       		.byte	0x7
 356 0116 49       		.byte	0x49
 357 0117 B4000000 		.4byte	0xb4
 358 011b 03       		.uleb128 0x3
 359 011c E60B0000 		.4byte	.LASF24
 360 0120 07       		.byte	0x7
 361 0121 4A       		.byte	0x4a
 362 0122 B4000000 		.4byte	0xb4
 363 0126 03       		.uleb128 0x3
 364 0127 62000000 		.4byte	.LASF25
 365 012b 07       		.byte	0x7
 366 012c 4C       		.byte	0x4c
 367 012d DF000000 		.4byte	0xdf
 368 0131 03       		.uleb128 0x3
 369 0132 D6090000 		.4byte	.LASF26
 370 0136 07       		.byte	0x7
 371 0137 4D       		.byte	0x4d
 372 0138 CF000000 		.4byte	0xcf
 373 013c 03       		.uleb128 0x3
 374 013d BF020000 		.4byte	.LASF27
 375 0141 07       		.byte	0x7
 376 0142 4F       		.byte	0x4f
 377 0143 DF000000 		.4byte	0xdf
 378 0147 03       		.uleb128 0x3
 379 0148 ED090000 		.4byte	.LASF28
 380 014c 07       		.byte	0x7
 381 014d 50       		.byte	0x50
 382 014e DF000000 		.4byte	0xdf
 383 0152 03       		.uleb128 0x3
 384 0153 6A040000 		.4byte	.LASF29
 385 0157 07       		.byte	0x7
 386 0158 51       		.byte	0x51
 387 0159 CF000000 		.4byte	0xcf
 388 015d 03       		.uleb128 0x3
 389 015e 32000000 		.4byte	.LASF30
 390 0162 08       		.byte	0x8
 391 0163 33       		.byte	0x33
 392 0164 DF000000 		.4byte	0xdf
 393 0168 03       		.uleb128 0x3
 394 0169 03090000 		.4byte	.LASF31
 395 016d 08       		.byte	0x8
 396 016e 3F       		.byte	0x3f
 397 016f 73010000 		.4byte	0x173
 398 0173 07       		.uleb128 0x7
 399 0174 49050000 		.4byte	.LASF51
ARM GAS  /var/folders/qd/4mxf5pkd0zdf0b9dd1hp39180000gn/T//ccqDCcuM.s 			page 8


 400 0178 44       		.byte	0x44
 401 0179 09       		.byte	0x9
 402 017a C2       		.byte	0xc2
 403 017b 60020000 		.4byte	0x260
 404 017f 08       		.uleb128 0x8
 405 0180 DE010000 		.4byte	.LASF32
 406 0184 09       		.byte	0x9
 407 0185 C3       		.byte	0xc3
 408 0186 6B020000 		.4byte	0x26b
 409 018a 00       		.byte	0
 410 018b 08       		.uleb128 0x8
 411 018c 06020000 		.4byte	.LASF33
 412 0190 09       		.byte	0x9
 413 0191 C5       		.byte	0xc5
 414 0192 6B020000 		.4byte	0x26b
 415 0196 04       		.byte	0x4
 416 0197 08       		.uleb128 0x8
 417 0198 D5030000 		.4byte	.LASF34
 418 019c 09       		.byte	0x9
 419 019d C7       		.byte	0xc7
 420 019e 26010000 		.4byte	0x126
 421 01a2 08       		.byte	0x8
 422 01a3 08       		.uleb128 0x8
 423 01a4 5C000000 		.4byte	.LASF35
 424 01a8 09       		.byte	0x9
 425 01a9 C8       		.byte	0xc8
 426 01aa 24080000 		.4byte	0x824
 427 01ae 0C       		.byte	0xc
 428 01af 08       		.uleb128 0x8
 429 01b0 B9010000 		.4byte	.LASF36
 430 01b4 09       		.byte	0x9
 431 01b5 CA       		.byte	0xca
 432 01b6 6B020000 		.4byte	0x26b
 433 01ba 10       		.byte	0x10
 434 01bb 08       		.uleb128 0x8
 435 01bc C5090000 		.4byte	.LASF37
 436 01c0 09       		.byte	0x9
 437 01c1 CB       		.byte	0xcb
 438 01c2 6B020000 		.4byte	0x26b
 439 01c6 14       		.byte	0x14
 440 01c7 08       		.uleb128 0x8
 441 01c8 FE0C0000 		.4byte	.LASF38
 442 01cc 09       		.byte	0x9
 443 01cd D2       		.byte	0xd2
 444 01ce BB0A0000 		.4byte	0xabb
 445 01d2 18       		.byte	0x18
 446 01d3 08       		.uleb128 0x8
 447 01d4 BD0D0000 		.4byte	.LASF39
 448 01d8 09       		.byte	0x9
 449 01d9 DD       		.byte	0xdd
 450 01da 10010000 		.4byte	0x110
 451 01de 1C       		.byte	0x1c
 452 01df 08       		.uleb128 0x8
 453 01e0 EE070000 		.4byte	.LASF40
 454 01e4 09       		.byte	0x9
 455 01e5 E1       		.byte	0xe1
 456 01e6 05010000 		.4byte	0x105
ARM GAS  /var/folders/qd/4mxf5pkd0zdf0b9dd1hp39180000gn/T//ccqDCcuM.s 			page 9


 457 01ea 1D       		.byte	0x1d
 458 01eb 08       		.uleb128 0x8
 459 01ec 58080000 		.4byte	.LASF41
 460 01f0 09       		.byte	0x9
 461 01f1 E6       		.byte	0xe6
 462 01f2 1B010000 		.4byte	0x11b
 463 01f6 1E       		.byte	0x1e
 464 01f7 09       		.uleb128 0x9
 465 01f8 705F7500 		.ascii	"p_u\000"
 466 01fc 09       		.byte	0x9
 467 01fd 3101     		.2byte	0x131
 468 01ff F6090000 		.4byte	0x9f6
 469 0203 20       		.byte	0x20
 470 0204 0A       		.uleb128 0xa
 471 0205 D1070000 		.4byte	.LASF42
 472 0209 09       		.byte	0x9
 473 020a 3601     		.2byte	0x136
 474 020c 71020000 		.4byte	0x271
 475 0210 24       		.byte	0x24
 476 0211 0A       		.uleb128 0xa
 477 0212 73000000 		.4byte	.LASF43
 478 0216 09       		.byte	0x9
 479 0217 3C01     		.2byte	0x13c
 480 0219 95020000 		.4byte	0x295
 481 021d 28       		.byte	0x28
 482 021e 0A       		.uleb128 0xa
 483 021f AB0D0000 		.4byte	.LASF44
 484 0223 09       		.byte	0x9
 485 0224 4001     		.2byte	0x140
 486 0226 31010000 		.4byte	0x131
 487 022a 30       		.byte	0x30
 488 022b 0A       		.uleb128 0xa
 489 022c 8D040000 		.4byte	.LASF45
 490 0230 09       		.byte	0x9
 491 0231 4601     		.2byte	0x146
 492 0233 3C010000 		.4byte	0x13c
 493 0237 34       		.byte	0x34
 494 0238 0A       		.uleb128 0xa
 495 0239 42020000 		.4byte	.LASF46
 496 023d 09       		.byte	0x9
 497 023e 4D01     		.2byte	0x14d
 498 0240 B50A0000 		.4byte	0xab5
 499 0244 38       		.byte	0x38
 500 0245 0A       		.uleb128 0xa
 501 0246 2B090000 		.4byte	.LASF47
 502 024a 09       		.byte	0x9
 503 024b 5101     		.2byte	0x151
 504 024d 26010000 		.4byte	0x126
 505 0251 3C       		.byte	0x3c
 506 0252 0A       		.uleb128 0xa
 507 0253 34080000 		.4byte	.LASF48
 508 0257 09       		.byte	0x9
 509 0258 5801     		.2byte	0x158
 510 025a 48030000 		.4byte	0x348
 511 025e 40       		.byte	0x40
 512 025f 00       		.byte	0
 513 0260 03       		.uleb128 0x3
ARM GAS  /var/folders/qd/4mxf5pkd0zdf0b9dd1hp39180000gn/T//ccqDCcuM.s 			page 10


 514 0261 18090000 		.4byte	.LASF49
 515 0265 08       		.byte	0x8
 516 0266 44       		.byte	0x44
 517 0267 6B020000 		.4byte	0x26b
 518 026b 0B       		.uleb128 0xb
 519 026c 04       		.byte	0x4
 520 026d 68010000 		.4byte	0x168
 521 0271 03       		.uleb128 0x3
 522 0272 FE0B0000 		.4byte	.LASF50
 523 0276 08       		.byte	0x8
 524 0277 49       		.byte	0x49
 525 0278 7C020000 		.4byte	0x27c
 526 027c 07       		.uleb128 0x7
 527 027d CD050000 		.4byte	.LASF52
 528 0281 04       		.byte	0x4
 529 0282 09       		.byte	0x9
 530 0283 B0       		.byte	0xb0
 531 0284 95020000 		.4byte	0x295
 532 0288 08       		.uleb128 0x8
 533 0289 DE010000 		.4byte	.LASF32
 534 028d 09       		.byte	0x9
 535 028e B1       		.byte	0xb1
 536 028f 6B020000 		.4byte	0x26b
 537 0293 00       		.byte	0
 538 0294 00       		.byte	0
 539 0295 03       		.uleb128 0x3
 540 0296 32020000 		.4byte	.LASF53
 541 029a 08       		.byte	0x8
 542 029b 50       		.byte	0x50
 543 029c A0020000 		.4byte	0x2a0
 544 02a0 07       		.uleb128 0x7
 545 02a1 DC090000 		.4byte	.LASF54
 546 02a5 08       		.byte	0x8
 547 02a6 09       		.byte	0x9
 548 02a7 B7       		.byte	0xb7
 549 02a8 C5020000 		.4byte	0x2c5
 550 02ac 08       		.uleb128 0x8
 551 02ad DE010000 		.4byte	.LASF32
 552 02b1 09       		.byte	0x9
 553 02b2 B8       		.byte	0xb8
 554 02b3 6B020000 		.4byte	0x26b
 555 02b7 00       		.byte	0
 556 02b8 08       		.uleb128 0x8
 557 02b9 06020000 		.4byte	.LASF33
 558 02bd 09       		.byte	0x9
 559 02be B9       		.byte	0xb9
 560 02bf 6B020000 		.4byte	0x26b
 561 02c3 04       		.byte	0x4
 562 02c4 00       		.byte	0
 563 02c5 03       		.uleb128 0x3
 564 02c6 94050000 		.4byte	.LASF55
 565 02ca 08       		.byte	0x8
 566 02cb 57       		.byte	0x57
 567 02cc D0020000 		.4byte	0x2d0
 568 02d0 0C       		.uleb128 0xc
 569 02d1 9F040000 		.4byte	.LASF56
 570 02d5 1C       		.byte	0x1c
ARM GAS  /var/folders/qd/4mxf5pkd0zdf0b9dd1hp39180000gn/T//ccqDCcuM.s 			page 11


 571 02d6 09       		.byte	0x9
 572 02d7 9001     		.2byte	0x190
 573 02d9 2C030000 		.4byte	0x32c
 574 02dd 0A       		.uleb128 0xa
 575 02de 5C0A0000 		.4byte	.LASF57
 576 02e2 09       		.byte	0x9
 577 02e3 9101     		.2byte	0x191
 578 02e5 95020000 		.4byte	0x295
 579 02e9 00       		.byte	0
 580 02ea 0A       		.uleb128 0xa
 581 02eb 860B0000 		.4byte	.LASF58
 582 02ef 09       		.byte	0x9
 583 02f0 9201     		.2byte	0x192
 584 02f2 26010000 		.4byte	0x126
 585 02f6 08       		.byte	0x8
 586 02f7 0A       		.uleb128 0xa
 587 02f8 7E000000 		.4byte	.LASF59
 588 02fc 09       		.byte	0x9
 589 02fd 9401     		.2byte	0x194
 590 02ff 24080000 		.4byte	0x824
 591 0303 0C       		.byte	0xc
 592 0304 0A       		.uleb128 0xa
 593 0305 6B030000 		.4byte	.LASF60
 594 0309 09       		.byte	0x9
 595 030a 9701     		.2byte	0x197
 596 030c 6B020000 		.4byte	0x26b
 597 0310 10       		.byte	0x10
 598 0311 0A       		.uleb128 0xa
 599 0312 FB0A0000 		.4byte	.LASF61
 600 0316 09       		.byte	0x9
 601 0317 9801     		.2byte	0x198
 602 0319 6B020000 		.4byte	0x26b
 603 031d 14       		.byte	0x14
 604 031e 0A       		.uleb128 0xa
 605 031f 120A0000 		.4byte	.LASF62
 606 0323 09       		.byte	0x9
 607 0324 9B01     		.2byte	0x19b
 608 0326 6B020000 		.4byte	0x26b
 609 032a 18       		.byte	0x18
 610 032b 00       		.byte	0
 611 032c 03       		.uleb128 0x3
 612 032d 9E000000 		.4byte	.LASF63
 613 0331 08       		.byte	0x8
 614 0332 5C       		.byte	0x5c
 615 0333 37030000 		.4byte	0x337
 616 0337 0B       		.uleb128 0xb
 617 0338 04       		.byte	0x4
 618 0339 3D030000 		.4byte	0x33d
 619 033d 0D       		.uleb128 0xd
 620 033e 48030000 		.4byte	0x348
 621 0342 0E       		.uleb128 0xe
 622 0343 48030000 		.4byte	0x348
 623 0347 00       		.byte	0
 624 0348 0F       		.uleb128 0xf
 625 0349 04       		.byte	0x4
 626 034a 03       		.uleb128 0x3
 627 034b 84050000 		.4byte	.LASF64
ARM GAS  /var/folders/qd/4mxf5pkd0zdf0b9dd1hp39180000gn/T//ccqDCcuM.s 			page 12


 628 034f 08       		.byte	0x8
 629 0350 61       		.byte	0x61
 630 0351 55030000 		.4byte	0x355
 631 0355 0C       		.uleb128 0xc
 632 0356 75090000 		.4byte	.LASF65
 633 035a 14       		.byte	0x14
 634 035b 09       		.byte	0x9
 635 035c 6B01     		.2byte	0x16b
 636 035e A4030000 		.4byte	0x3a4
 637 0362 0A       		.uleb128 0xa
 638 0363 31070000 		.4byte	.LASF66
 639 0367 09       		.byte	0x9
 640 0368 6C01     		.2byte	0x16c
 641 036a D20A0000 		.4byte	0xad2
 642 036e 00       		.byte	0
 643 036f 0A       		.uleb128 0xa
 644 0370 39070000 		.4byte	.LASF67
 645 0374 09       		.byte	0x9
 646 0375 6D01     		.2byte	0x16d
 647 0377 D20A0000 		.4byte	0xad2
 648 037b 04       		.byte	0x4
 649 037c 0A       		.uleb128 0xa
 650 037d 63090000 		.4byte	.LASF68
 651 0381 09       		.byte	0x9
 652 0382 6E01     		.2byte	0x16e
 653 0384 5D010000 		.4byte	0x15d
 654 0388 08       		.byte	0x8
 655 0389 0A       		.uleb128 0xa
 656 038a 76040000 		.4byte	.LASF69
 657 038e 09       		.byte	0x9
 658 038f 6F01     		.2byte	0x16f
 659 0391 2C030000 		.4byte	0x32c
 660 0395 0C       		.byte	0xc
 661 0396 0A       		.uleb128 0xa
 662 0397 54010000 		.4byte	.LASF70
 663 039b 09       		.byte	0x9
 664 039c 7101     		.2byte	0x171
 665 039e 48030000 		.4byte	0x348
 666 03a2 10       		.byte	0x10
 667 03a3 00       		.byte	0
 668 03a4 03       		.uleb128 0x3
 669 03a5 53050000 		.4byte	.LASF71
 670 03a9 08       		.byte	0x8
 671 03aa 66       		.byte	0x66
 672 03ab AF030000 		.4byte	0x3af
 673 03af 0C       		.uleb128 0xc
 674 03b0 A7000000 		.4byte	.LASF72
 675 03b4 10       		.byte	0x10
 676 03b5 09       		.byte	0x9
 677 03b6 7B01     		.2byte	0x17b
 678 03b8 F1030000 		.4byte	0x3f1
 679 03bc 0A       		.uleb128 0xa
 680 03bd 31070000 		.4byte	.LASF66
 681 03c1 09       		.byte	0x9
 682 03c2 7C01     		.2byte	0x17c
 683 03c4 D20A0000 		.4byte	0xad2
 684 03c8 00       		.byte	0
ARM GAS  /var/folders/qd/4mxf5pkd0zdf0b9dd1hp39180000gn/T//ccqDCcuM.s 			page 13


 685 03c9 0A       		.uleb128 0xa
 686 03ca 39070000 		.4byte	.LASF67
 687 03ce 09       		.byte	0x9
 688 03cf 7E01     		.2byte	0x17e
 689 03d1 D20A0000 		.4byte	0xad2
 690 03d5 04       		.byte	0x4
 691 03d6 0A       		.uleb128 0xa
 692 03d7 63090000 		.4byte	.LASF68
 693 03db 09       		.byte	0x9
 694 03dc 8001     		.2byte	0x180
 695 03de 5D010000 		.4byte	0x15d
 696 03e2 08       		.byte	0x8
 697 03e3 0A       		.uleb128 0xa
 698 03e4 850C0000 		.4byte	.LASF73
 699 03e8 09       		.byte	0x9
 700 03e9 8801     		.2byte	0x188
 701 03eb 5D010000 		.4byte	0x15d
 702 03ef 0C       		.byte	0xc
 703 03f0 00       		.byte	0
 704 03f1 03       		.uleb128 0x3
 705 03f2 73030000 		.4byte	.LASF74
 706 03f6 08       		.byte	0x8
 707 03f7 6B       		.byte	0x6b
 708 03f8 FC030000 		.4byte	0x3fc
 709 03fc 0C       		.uleb128 0xc
 710 03fd 960B0000 		.4byte	.LASF75
 711 0401 04       		.byte	0x4
 712 0402 09       		.byte	0x9
 713 0403 A201     		.2byte	0x1a2
 714 0405 17040000 		.4byte	0x417
 715 0409 0A       		.uleb128 0xa
 716 040a 61030000 		.4byte	.LASF76
 717 040e 09       		.byte	0x9
 718 040f AA01     		.2byte	0x1aa
 719 0411 C10A0000 		.4byte	0xac1
 720 0415 00       		.byte	0
 721 0416 00       		.byte	0
 722 0417 03       		.uleb128 0x3
 723 0418 A40C0000 		.4byte	.LASF77
 724 041c 08       		.byte	0x8
 725 041d 70       		.byte	0x70
 726 041e 22040000 		.4byte	0x422
 727 0422 10       		.uleb128 0x10
 728 0423 130C0000 		.4byte	.LASF78
 729 0427 5001     		.2byte	0x150
 730 0429 09       		.byte	0x9
 731 042a C201     		.2byte	0x1c2
 732 042c 7E040000 		.4byte	0x47e
 733 0430 0A       		.uleb128 0xa
 734 0431 C40A0000 		.4byte	.LASF79
 735 0435 09       		.byte	0x9
 736 0436 C601     		.2byte	0x1c6
 737 0438 C5020000 		.4byte	0x2c5
 738 043c 00       		.byte	0
 739 043d 0A       		.uleb128 0xa
 740 043e CD0B0000 		.4byte	.LASF80
 741 0442 09       		.byte	0x9
ARM GAS  /var/folders/qd/4mxf5pkd0zdf0b9dd1hp39180000gn/T//ccqDCcuM.s 			page 14


 742 0443 CA01     		.2byte	0x1ca
 743 0445 A4030000 		.4byte	0x3a4
 744 0449 1C       		.byte	0x1c
 745 044a 09       		.uleb128 0x9
 746 044b 64626700 		.ascii	"dbg\000"
 747 044f 09       		.byte	0x9
 748 0450 CE01     		.2byte	0x1ce
 749 0452 F1030000 		.4byte	0x3f1
 750 0456 2C       		.byte	0x2c
 751 0457 0A       		.uleb128 0xa
 752 0458 2D0A0000 		.4byte	.LASF81
 753 045c 09       		.byte	0x9
 754 045d D201     		.2byte	0x1d2
 755 045f 68010000 		.4byte	0x168
 756 0463 30       		.byte	0x30
 757 0464 09       		.uleb128 0x9
 758 0465 746D00   		.ascii	"tm\000"
 759 0468 09       		.byte	0x9
 760 0469 D701     		.2byte	0x1d7
 761 046b EB090000 		.4byte	0x9eb
 762 046f 74       		.byte	0x74
 763 0470 0A       		.uleb128 0xa
 764 0471 FB070000 		.4byte	.LASF82
 765 0475 09       		.byte	0x9
 766 0476 E301     		.2byte	0x1e3
 767 0478 D80A0000 		.4byte	0xad8
 768 047c 78       		.byte	0x78
 769 047d 00       		.byte	0
 770 047e 11       		.uleb128 0x11
 771 047f DF000000 		.4byte	0xdf
 772 0483 8E040000 		.4byte	0x48e
 773 0487 12       		.uleb128 0x12
 774 0488 37000000 		.4byte	0x37
 775 048c 01       		.byte	0x1
 776 048d 00       		.byte	0
 777 048e 13       		.uleb128 0x13
 778 048f 8E070000 		.4byte	.LASF83
 779 0493 0A       		.byte	0xa
 780 0494 A706     		.2byte	0x6a7
 781 0496 DA000000 		.4byte	0xda
 782 049a 14       		.uleb128 0x14
 783 049b 2C050000 		.4byte	.LASF84
 784 049f 0B       		.byte	0xb
 785 04a0 4C       		.byte	0x4c
 786 04a1 DF000000 		.4byte	0xdf
 787 04a5 15       		.uleb128 0x15
 788 04a6 10       		.byte	0x10
 789 04a7 0C       		.byte	0xc
 790 04a8 4C01     		.2byte	0x14c
 791 04aa E2040000 		.4byte	0x4e2
 792 04ae 0A       		.uleb128 0xa
 793 04af DB070000 		.4byte	.LASF85
 794 04b3 0C       		.byte	0xc
 795 04b4 4E01     		.2byte	0x14e
 796 04b6 EA000000 		.4byte	0xea
 797 04ba 00       		.byte	0
 798 04bb 09       		.uleb128 0x9
ARM GAS  /var/folders/qd/4mxf5pkd0zdf0b9dd1hp39180000gn/T//ccqDCcuM.s 			page 15


 799 04bc 435200   		.ascii	"CR\000"
 800 04bf 0C       		.byte	0xc
 801 04c0 4F01     		.2byte	0x14f
 802 04c2 EA000000 		.4byte	0xea
 803 04c6 04       		.byte	0x4
 804 04c7 0A       		.uleb128 0xa
 805 04c8 2B040000 		.4byte	.LASF86
 806 04cc 0C       		.byte	0xc
 807 04cd 5001     		.2byte	0x150
 808 04cf EA000000 		.4byte	0xea
 809 04d3 08       		.byte	0x8
 810 04d4 0A       		.uleb128 0xa
 811 04d5 46070000 		.4byte	.LASF87
 812 04d9 0C       		.byte	0xc
 813 04da 5101     		.2byte	0x151
 814 04dc EA000000 		.4byte	0xea
 815 04e0 0C       		.byte	0xc
 816 04e1 00       		.byte	0
 817 04e2 16       		.uleb128 0x16
 818 04e3 7E040000 		.4byte	.LASF88
 819 04e7 0C       		.byte	0xc
 820 04e8 5201     		.2byte	0x152
 821 04ea A5040000 		.4byte	0x4a5
 822 04ee 15       		.uleb128 0x15
 823 04ef 18       		.byte	0x18
 824 04f0 0C       		.byte	0xc
 825 04f1 6B01     		.2byte	0x16b
 826 04f3 45050000 		.4byte	0x545
 827 04f7 09       		.uleb128 0x9
 828 04f8 435200   		.ascii	"CR\000"
 829 04fb 0C       		.byte	0xc
 830 04fc 6D01     		.2byte	0x16d
 831 04fe EA000000 		.4byte	0xea
 832 0502 00       		.byte	0
 833 0503 0A       		.uleb128 0xa
 834 0504 EE0C0000 		.4byte	.LASF89
 835 0508 0C       		.byte	0xc
 836 0509 6E01     		.2byte	0x16e
 837 050b EA000000 		.4byte	0xea
 838 050f 04       		.byte	0x4
 839 0510 09       		.uleb128 0x9
 840 0511 50415200 		.ascii	"PAR\000"
 841 0515 0C       		.byte	0xc
 842 0516 6F01     		.2byte	0x16f
 843 0518 EA000000 		.4byte	0xea
 844 051c 08       		.byte	0x8
 845 051d 0A       		.uleb128 0xa
 846 051e 240B0000 		.4byte	.LASF90
 847 0522 0C       		.byte	0xc
 848 0523 7001     		.2byte	0x170
 849 0525 EA000000 		.4byte	0xea
 850 0529 0C       		.byte	0xc
 851 052a 0A       		.uleb128 0xa
 852 052b 00000000 		.4byte	.LASF91
 853 052f 0C       		.byte	0xc
 854 0530 7101     		.2byte	0x171
 855 0532 EA000000 		.4byte	0xea
ARM GAS  /var/folders/qd/4mxf5pkd0zdf0b9dd1hp39180000gn/T//ccqDCcuM.s 			page 16


 856 0536 10       		.byte	0x10
 857 0537 09       		.uleb128 0x9
 858 0538 46435200 		.ascii	"FCR\000"
 859 053c 0C       		.byte	0xc
 860 053d 7201     		.2byte	0x172
 861 053f EA000000 		.4byte	0xea
 862 0543 14       		.byte	0x14
 863 0544 00       		.byte	0
 864 0545 16       		.uleb128 0x16
 865 0546 D6080000 		.4byte	.LASF92
 866 054a 0C       		.byte	0xc
 867 054b 7301     		.2byte	0x173
 868 054d EE040000 		.4byte	0x4ee
 869 0551 11       		.uleb128 0x11
 870 0552 EA000000 		.4byte	0xea
 871 0556 61050000 		.4byte	0x561
 872 055a 12       		.uleb128 0x12
 873 055b 37000000 		.4byte	0x37
 874 055f 01       		.byte	0x1
 875 0560 00       		.byte	0
 876 0561 06       		.uleb128 0x6
 877 0562 51050000 		.4byte	0x551
 878 0566 11       		.uleb128 0x11
 879 0567 EA000000 		.4byte	0xea
 880 056b 76050000 		.4byte	0x576
 881 056f 12       		.uleb128 0x12
 882 0570 37000000 		.4byte	0x37
 883 0574 03       		.byte	0x3
 884 0575 00       		.byte	0
 885 0576 06       		.uleb128 0x6
 886 0577 66050000 		.4byte	0x566
 887 057b 15       		.uleb128 0x15
 888 057c 88       		.byte	0x88
 889 057d 0C       		.byte	0xc
 890 057e 6702     		.2byte	0x267
 891 0580 0A070000 		.4byte	0x70a
 892 0584 09       		.uleb128 0x9
 893 0585 435200   		.ascii	"CR\000"
 894 0588 0C       		.byte	0xc
 895 0589 6902     		.2byte	0x269
 896 058b EA000000 		.4byte	0xea
 897 058f 00       		.byte	0
 898 0590 0A       		.uleb128 0xa
 899 0591 C5060000 		.4byte	.LASF93
 900 0595 0C       		.byte	0xc
 901 0596 6A02     		.2byte	0x26a
 902 0598 EA000000 		.4byte	0xea
 903 059c 04       		.byte	0x4
 904 059d 0A       		.uleb128 0xa
 905 059e B3040000 		.4byte	.LASF94
 906 05a2 0C       		.byte	0xc
 907 05a3 6B02     		.2byte	0x26b
 908 05a5 EA000000 		.4byte	0xea
 909 05a9 08       		.byte	0x8
 910 05aa 09       		.uleb128 0x9
 911 05ab 43495200 		.ascii	"CIR\000"
 912 05af 0C       		.byte	0xc
ARM GAS  /var/folders/qd/4mxf5pkd0zdf0b9dd1hp39180000gn/T//ccqDCcuM.s 			page 17


 913 05b0 6C02     		.2byte	0x26c
 914 05b2 EA000000 		.4byte	0xea
 915 05b6 0C       		.byte	0xc
 916 05b7 0A       		.uleb128 0xa
 917 05b8 CC030000 		.4byte	.LASF95
 918 05bc 0C       		.byte	0xc
 919 05bd 6D02     		.2byte	0x26d
 920 05bf EA000000 		.4byte	0xea
 921 05c3 10       		.byte	0x10
 922 05c4 0A       		.uleb128 0xa
 923 05c5 140B0000 		.4byte	.LASF96
 924 05c9 0C       		.byte	0xc
 925 05ca 6E02     		.2byte	0x26e
 926 05cc EA000000 		.4byte	0xea
 927 05d0 14       		.byte	0x14
 928 05d1 0A       		.uleb128 0xa
 929 05d2 FA080000 		.4byte	.LASF97
 930 05d6 0C       		.byte	0xc
 931 05d7 6F02     		.2byte	0x26f
 932 05d9 EA000000 		.4byte	0xea
 933 05dd 18       		.byte	0x18
 934 05de 0A       		.uleb128 0xa
 935 05df F5020000 		.4byte	.LASF98
 936 05e3 0C       		.byte	0xc
 937 05e4 7002     		.2byte	0x270
 938 05e6 DF000000 		.4byte	0xdf
 939 05ea 1C       		.byte	0x1c
 940 05eb 0A       		.uleb128 0xa
 941 05ec 6C090000 		.4byte	.LASF99
 942 05f0 0C       		.byte	0xc
 943 05f1 7102     		.2byte	0x271
 944 05f3 EA000000 		.4byte	0xea
 945 05f7 20       		.byte	0x20
 946 05f8 0A       		.uleb128 0xa
 947 05f9 4D070000 		.4byte	.LASF100
 948 05fd 0C       		.byte	0xc
 949 05fe 7202     		.2byte	0x272
 950 0600 EA000000 		.4byte	0xea
 951 0604 24       		.byte	0x24
 952 0605 0A       		.uleb128 0xa
 953 0606 FF020000 		.4byte	.LASF101
 954 060a 0C       		.byte	0xc
 955 060b 7302     		.2byte	0x273
 956 060d 7E040000 		.4byte	0x47e
 957 0611 28       		.byte	0x28
 958 0612 0A       		.uleb128 0xa
 959 0613 E20A0000 		.4byte	.LASF102
 960 0617 0C       		.byte	0xc
 961 0618 7402     		.2byte	0x274
 962 061a EA000000 		.4byte	0xea
 963 061e 30       		.byte	0x30
 964 061f 0A       		.uleb128 0xa
 965 0620 F1030000 		.4byte	.LASF103
 966 0624 0C       		.byte	0xc
 967 0625 7502     		.2byte	0x275
 968 0627 EA000000 		.4byte	0xea
 969 062b 34       		.byte	0x34
ARM GAS  /var/folders/qd/4mxf5pkd0zdf0b9dd1hp39180000gn/T//ccqDCcuM.s 			page 18


 970 062c 0A       		.uleb128 0xa
 971 062d F30A0000 		.4byte	.LASF104
 972 0631 0C       		.byte	0xc
 973 0632 7602     		.2byte	0x276
 974 0634 EA000000 		.4byte	0xea
 975 0638 38       		.byte	0x38
 976 0639 0A       		.uleb128 0xa
 977 063a 92030000 		.4byte	.LASF105
 978 063e 0C       		.byte	0xc
 979 063f 7702     		.2byte	0x277
 980 0641 DF000000 		.4byte	0xdf
 981 0645 3C       		.byte	0x3c
 982 0646 0A       		.uleb128 0xa
 983 0647 86090000 		.4byte	.LASF106
 984 064b 0C       		.byte	0xc
 985 064c 7802     		.2byte	0x278
 986 064e EA000000 		.4byte	0xea
 987 0652 40       		.byte	0x40
 988 0653 0A       		.uleb128 0xa
 989 0654 69020000 		.4byte	.LASF107
 990 0658 0C       		.byte	0xc
 991 0659 7902     		.2byte	0x279
 992 065b EA000000 		.4byte	0xea
 993 065f 44       		.byte	0x44
 994 0660 0A       		.uleb128 0xa
 995 0661 17030000 		.4byte	.LASF108
 996 0665 0C       		.byte	0xc
 997 0666 7A02     		.2byte	0x27a
 998 0668 7E040000 		.4byte	0x47e
 999 066c 48       		.byte	0x48
 1000 066d 0A       		.uleb128 0xa
 1001 066e 7A020000 		.4byte	.LASF109
 1002 0672 0C       		.byte	0xc
 1003 0673 7B02     		.2byte	0x27b
 1004 0675 EA000000 		.4byte	0xea
 1005 0679 50       		.byte	0x50
 1006 067a 0A       		.uleb128 0xa
 1007 067b 83010000 		.4byte	.LASF110
 1008 067f 0C       		.byte	0xc
 1009 0680 7C02     		.2byte	0x27c
 1010 0682 EA000000 		.4byte	0xea
 1011 0686 54       		.byte	0x54
 1012 0687 0A       		.uleb128 0xa
 1013 0688 440A0000 		.4byte	.LASF111
 1014 068c 0C       		.byte	0xc
 1015 068d 7D02     		.2byte	0x27d
 1016 068f EA000000 		.4byte	0xea
 1017 0693 58       		.byte	0x58
 1018 0694 0A       		.uleb128 0xa
 1019 0695 21030000 		.4byte	.LASF112
 1020 0699 0C       		.byte	0xc
 1021 069a 7E02     		.2byte	0x27e
 1022 069c DF000000 		.4byte	0xdf
 1023 06a0 5C       		.byte	0x5c
 1024 06a1 0A       		.uleb128 0xa
 1025 06a2 C5080000 		.4byte	.LASF113
 1026 06a6 0C       		.byte	0xc
ARM GAS  /var/folders/qd/4mxf5pkd0zdf0b9dd1hp39180000gn/T//ccqDCcuM.s 			page 19


 1027 06a7 7F02     		.2byte	0x27f
 1028 06a9 EA000000 		.4byte	0xea
 1029 06ad 60       		.byte	0x60
 1030 06ae 0A       		.uleb128 0xa
 1031 06af BD070000 		.4byte	.LASF114
 1032 06b3 0C       		.byte	0xc
 1033 06b4 8002     		.2byte	0x280
 1034 06b6 EA000000 		.4byte	0xea
 1035 06ba 64       		.byte	0x64
 1036 06bb 0A       		.uleb128 0xa
 1037 06bc 2B030000 		.4byte	.LASF115
 1038 06c0 0C       		.byte	0xc
 1039 06c1 8102     		.2byte	0x281
 1040 06c3 7E040000 		.4byte	0x47e
 1041 06c7 68       		.byte	0x68
 1042 06c8 0A       		.uleb128 0xa
 1043 06c9 5B040000 		.4byte	.LASF116
 1044 06cd 0C       		.byte	0xc
 1045 06ce 8202     		.2byte	0x282
 1046 06d0 EA000000 		.4byte	0xea
 1047 06d4 70       		.byte	0x70
 1048 06d5 09       		.uleb128 0x9
 1049 06d6 43535200 		.ascii	"CSR\000"
 1050 06da 0C       		.byte	0xc
 1051 06db 8302     		.2byte	0x283
 1052 06dd EA000000 		.4byte	0xea
 1053 06e1 74       		.byte	0x74
 1054 06e2 0A       		.uleb128 0xa
 1055 06e3 35030000 		.4byte	.LASF117
 1056 06e7 0C       		.byte	0xc
 1057 06e8 8402     		.2byte	0x284
 1058 06ea 7E040000 		.4byte	0x47e
 1059 06ee 78       		.byte	0x78
 1060 06ef 0A       		.uleb128 0xa
 1061 06f0 2B070000 		.4byte	.LASF118
 1062 06f4 0C       		.byte	0xc
 1063 06f5 8502     		.2byte	0x285
 1064 06f7 EA000000 		.4byte	0xea
 1065 06fb 80       		.byte	0x80
 1066 06fc 0A       		.uleb128 0xa
 1067 06fd 43000000 		.4byte	.LASF119
 1068 0701 0C       		.byte	0xc
 1069 0702 8602     		.2byte	0x286
 1070 0704 EA000000 		.4byte	0xea
 1071 0708 84       		.byte	0x84
 1072 0709 00       		.byte	0
 1073 070a 16       		.uleb128 0x16
 1074 070b 450B0000 		.4byte	.LASF120
 1075 070f 0C       		.byte	0xc
 1076 0710 8802     		.2byte	0x288
 1077 0712 7B050000 		.4byte	0x57b
 1078 0716 15       		.uleb128 0x15
 1079 0717 24       		.byte	0x24
 1080 0718 0C       		.byte	0xc
 1081 0719 DB02     		.2byte	0x2db
 1082 071b 93070000 		.4byte	0x793
 1083 071f 09       		.uleb128 0x9
ARM GAS  /var/folders/qd/4mxf5pkd0zdf0b9dd1hp39180000gn/T//ccqDCcuM.s 			page 20


 1084 0720 43523100 		.ascii	"CR1\000"
 1085 0724 0C       		.byte	0xc
 1086 0725 DD02     		.2byte	0x2dd
 1087 0727 EA000000 		.4byte	0xea
 1088 072b 00       		.byte	0
 1089 072c 09       		.uleb128 0x9
 1090 072d 43523200 		.ascii	"CR2\000"
 1091 0731 0C       		.byte	0xc
 1092 0732 DE02     		.2byte	0x2de
 1093 0734 EA000000 		.4byte	0xea
 1094 0738 04       		.byte	0x4
 1095 0739 09       		.uleb128 0x9
 1096 073a 535200   		.ascii	"SR\000"
 1097 073d 0C       		.byte	0xc
 1098 073e DF02     		.2byte	0x2df
 1099 0740 EA000000 		.4byte	0xea
 1100 0744 08       		.byte	0x8
 1101 0745 09       		.uleb128 0x9
 1102 0746 445200   		.ascii	"DR\000"
 1103 0749 0C       		.byte	0xc
 1104 074a E002     		.2byte	0x2e0
 1105 074c EA000000 		.4byte	0xea
 1106 0750 0C       		.byte	0xc
 1107 0751 0A       		.uleb128 0xa
 1108 0752 D20A0000 		.4byte	.LASF121
 1109 0756 0C       		.byte	0xc
 1110 0757 E102     		.2byte	0x2e1
 1111 0759 EA000000 		.4byte	0xea
 1112 075d 10       		.byte	0x10
 1113 075e 0A       		.uleb128 0xa
 1114 075f 9B070000 		.4byte	.LASF122
 1115 0763 0C       		.byte	0xc
 1116 0764 E202     		.2byte	0x2e2
 1117 0766 EA000000 		.4byte	0xea
 1118 076a 14       		.byte	0x14
 1119 076b 0A       		.uleb128 0xa
 1120 076c B10A0000 		.4byte	.LASF123
 1121 0770 0C       		.byte	0xc
 1122 0771 E302     		.2byte	0x2e3
 1123 0773 EA000000 		.4byte	0xea
 1124 0777 18       		.byte	0x18
 1125 0778 0A       		.uleb128 0xa
 1126 0779 6B010000 		.4byte	.LASF124
 1127 077d 0C       		.byte	0xc
 1128 077e E402     		.2byte	0x2e4
 1129 0780 EA000000 		.4byte	0xea
 1130 0784 1C       		.byte	0x1c
 1131 0785 0A       		.uleb128 0xa
 1132 0786 470C0000 		.4byte	.LASF125
 1133 078a 0C       		.byte	0xc
 1134 078b E502     		.2byte	0x2e5
 1135 078d EA000000 		.4byte	0xea
 1136 0791 20       		.byte	0x20
 1137 0792 00       		.byte	0
 1138 0793 16       		.uleb128 0x16
 1139 0794 B80A0000 		.4byte	.LASF126
 1140 0798 0C       		.byte	0xc
ARM GAS  /var/folders/qd/4mxf5pkd0zdf0b9dd1hp39180000gn/T//ccqDCcuM.s 			page 21


 1141 0799 E602     		.2byte	0x2e6
 1142 079b 16070000 		.4byte	0x716
 1143 079f 15       		.uleb128 0x15
 1144 07a0 1C       		.byte	0x1c
 1145 07a1 0C       		.byte	0xc
 1146 07a2 0903     		.2byte	0x309
 1147 07a4 02080000 		.4byte	0x802
 1148 07a8 09       		.uleb128 0x9
 1149 07a9 535200   		.ascii	"SR\000"
 1150 07ac 0C       		.byte	0xc
 1151 07ad 0B03     		.2byte	0x30b
 1152 07af EA000000 		.4byte	0xea
 1153 07b3 00       		.byte	0
 1154 07b4 09       		.uleb128 0x9
 1155 07b5 445200   		.ascii	"DR\000"
 1156 07b8 0C       		.byte	0xc
 1157 07b9 0C03     		.2byte	0x30c
 1158 07bb EA000000 		.4byte	0xea
 1159 07bf 04       		.byte	0x4
 1160 07c0 09       		.uleb128 0x9
 1161 07c1 42525200 		.ascii	"BRR\000"
 1162 07c5 0C       		.byte	0xc
 1163 07c6 0D03     		.2byte	0x30d
 1164 07c8 EA000000 		.4byte	0xea
 1165 07cc 08       		.byte	0x8
 1166 07cd 09       		.uleb128 0x9
 1167 07ce 43523100 		.ascii	"CR1\000"
 1168 07d2 0C       		.byte	0xc
 1169 07d3 0E03     		.2byte	0x30e
 1170 07d5 EA000000 		.4byte	0xea
 1171 07d9 0C       		.byte	0xc
 1172 07da 09       		.uleb128 0x9
 1173 07db 43523200 		.ascii	"CR2\000"
 1174 07df 0C       		.byte	0xc
 1175 07e0 0F03     		.2byte	0x30f
 1176 07e2 EA000000 		.4byte	0xea
 1177 07e6 10       		.byte	0x10
 1178 07e7 09       		.uleb128 0x9
 1179 07e8 43523300 		.ascii	"CR3\000"
 1180 07ec 0C       		.byte	0xc
 1181 07ed 1003     		.2byte	0x310
 1182 07ef EA000000 		.4byte	0xea
 1183 07f3 14       		.byte	0x14
 1184 07f4 0A       		.uleb128 0xa
 1185 07f5 41070000 		.4byte	.LASF127
 1186 07f9 0C       		.byte	0xc
 1187 07fa 1103     		.2byte	0x311
 1188 07fc EA000000 		.4byte	0xea
 1189 0800 18       		.byte	0x18
 1190 0801 00       		.byte	0
 1191 0802 16       		.uleb128 0x16
 1192 0803 1D040000 		.4byte	.LASF128
 1193 0807 0C       		.byte	0xc
 1194 0808 1203     		.2byte	0x312
 1195 080a 9F070000 		.4byte	0x79f
 1196 080e 03       		.uleb128 0x3
 1197 080f 53020000 		.4byte	.LASF129
ARM GAS  /var/folders/qd/4mxf5pkd0zdf0b9dd1hp39180000gn/T//ccqDCcuM.s 			page 22


 1198 0813 0D       		.byte	0xd
 1199 0814 65       		.byte	0x65
 1200 0815 48030000 		.4byte	0x348
 1201 0819 03       		.uleb128 0x3
 1202 081a 12040000 		.4byte	.LASF130
 1203 081e 0D       		.byte	0xd
 1204 081f 6D       		.byte	0x6d
 1205 0820 EF000000 		.4byte	0xef
 1206 0824 07       		.uleb128 0x7
 1207 0825 CB020000 		.4byte	.LASF131
 1208 0829 04       		.byte	0x4
 1209 082a 0D       		.byte	0xd
 1210 082b 89       		.byte	0x89
 1211 082c 3D080000 		.4byte	0x83d
 1212 0830 17       		.uleb128 0x17
 1213 0831 72313300 		.ascii	"r13\000"
 1214 0835 0D       		.byte	0xd
 1215 0836 8A       		.byte	0x8a
 1216 0837 B8080000 		.4byte	0x8b8
 1217 083b 00       		.byte	0
 1218 083c 00       		.byte	0
 1219 083d 07       		.uleb128 0x7
 1220 083e 36090000 		.4byte	.LASF132
 1221 0842 24       		.byte	0x24
 1222 0843 0E       		.byte	0xe
 1223 0844 F4       		.byte	0xf4
 1224 0845 B8080000 		.4byte	0x8b8
 1225 0849 09       		.uleb128 0x9
 1226 084a 723400   		.ascii	"r4\000"
 1227 084d 0E       		.byte	0xe
 1228 084e 0701     		.2byte	0x107
 1229 0850 0E080000 		.4byte	0x80e
 1230 0854 00       		.byte	0
 1231 0855 09       		.uleb128 0x9
 1232 0856 723500   		.ascii	"r5\000"
 1233 0859 0E       		.byte	0xe
 1234 085a 0801     		.2byte	0x108
 1235 085c 0E080000 		.4byte	0x80e
 1236 0860 04       		.byte	0x4
 1237 0861 09       		.uleb128 0x9
 1238 0862 723600   		.ascii	"r6\000"
 1239 0865 0E       		.byte	0xe
 1240 0866 0901     		.2byte	0x109
 1241 0868 0E080000 		.4byte	0x80e
 1242 086c 08       		.byte	0x8
 1243 086d 09       		.uleb128 0x9
 1244 086e 723700   		.ascii	"r7\000"
 1245 0871 0E       		.byte	0xe
 1246 0872 0A01     		.2byte	0x10a
 1247 0874 0E080000 		.4byte	0x80e
 1248 0878 0C       		.byte	0xc
 1249 0879 09       		.uleb128 0x9
 1250 087a 723800   		.ascii	"r8\000"
 1251 087d 0E       		.byte	0xe
 1252 087e 0B01     		.2byte	0x10b
 1253 0880 0E080000 		.4byte	0x80e
 1254 0884 10       		.byte	0x10
ARM GAS  /var/folders/qd/4mxf5pkd0zdf0b9dd1hp39180000gn/T//ccqDCcuM.s 			page 23


 1255 0885 09       		.uleb128 0x9
 1256 0886 723900   		.ascii	"r9\000"
 1257 0889 0E       		.byte	0xe
 1258 088a 0C01     		.2byte	0x10c
 1259 088c 0E080000 		.4byte	0x80e
 1260 0890 14       		.byte	0x14
 1261 0891 09       		.uleb128 0x9
 1262 0892 72313000 		.ascii	"r10\000"
 1263 0896 0E       		.byte	0xe
 1264 0897 0D01     		.2byte	0x10d
 1265 0899 0E080000 		.4byte	0x80e
 1266 089d 18       		.byte	0x18
 1267 089e 09       		.uleb128 0x9
 1268 089f 72313100 		.ascii	"r11\000"
 1269 08a3 0E       		.byte	0xe
 1270 08a4 0E01     		.2byte	0x10e
 1271 08a6 0E080000 		.4byte	0x80e
 1272 08aa 1C       		.byte	0x1c
 1273 08ab 09       		.uleb128 0x9
 1274 08ac 6C7200   		.ascii	"lr\000"
 1275 08af 0E       		.byte	0xe
 1276 08b0 0F01     		.2byte	0x10f
 1277 08b2 0E080000 		.4byte	0x80e
 1278 08b6 20       		.byte	0x20
 1279 08b7 00       		.byte	0
 1280 08b8 0B       		.uleb128 0xb
 1281 08b9 04       		.byte	0x4
 1282 08ba 3D080000 		.4byte	0x83d
 1283 08be 15       		.uleb128 0x15
 1284 08bf 60       		.byte	0x60
 1285 08c0 0F       		.byte	0xf
 1286 08c1 9E01     		.2byte	0x19e
 1287 08c3 CA090000 		.4byte	0x9ca
 1288 08c7 09       		.uleb128 0x9
 1289 08c8 43523100 		.ascii	"CR1\000"
 1290 08cc 0F       		.byte	0xf
 1291 08cd 9F01     		.2byte	0x19f
 1292 08cf EA000000 		.4byte	0xea
 1293 08d3 00       		.byte	0
 1294 08d4 09       		.uleb128 0x9
 1295 08d5 43523200 		.ascii	"CR2\000"
 1296 08d9 0F       		.byte	0xf
 1297 08da A001     		.2byte	0x1a0
 1298 08dc EA000000 		.4byte	0xea
 1299 08e0 04       		.byte	0x4
 1300 08e1 0A       		.uleb128 0xa
 1301 08e2 380A0000 		.4byte	.LASF133
 1302 08e6 0F       		.byte	0xf
 1303 08e7 A101     		.2byte	0x1a1
 1304 08e9 EA000000 		.4byte	0xea
 1305 08ed 08       		.byte	0x8
 1306 08ee 0A       		.uleb128 0xa
 1307 08ef 20050000 		.4byte	.LASF134
 1308 08f3 0F       		.byte	0xf
 1309 08f4 A201     		.2byte	0x1a2
 1310 08f6 EA000000 		.4byte	0xea
 1311 08fa 0C       		.byte	0xc
ARM GAS  /var/folders/qd/4mxf5pkd0zdf0b9dd1hp39180000gn/T//ccqDCcuM.s 			page 24


 1312 08fb 09       		.uleb128 0x9
 1313 08fc 535200   		.ascii	"SR\000"
 1314 08ff 0F       		.byte	0xf
 1315 0900 A301     		.2byte	0x1a3
 1316 0902 EA000000 		.4byte	0xea
 1317 0906 10       		.byte	0x10
 1318 0907 09       		.uleb128 0x9
 1319 0908 45475200 		.ascii	"EGR\000"
 1320 090c 0F       		.byte	0xf
 1321 090d A401     		.2byte	0x1a4
 1322 090f EA000000 		.4byte	0xea
 1323 0913 14       		.byte	0x14
 1324 0914 0A       		.uleb128 0xa
 1325 0915 9C030000 		.4byte	.LASF135
 1326 0919 0F       		.byte	0xf
 1327 091a A501     		.2byte	0x1a5
 1328 091c EA000000 		.4byte	0xea
 1329 0920 18       		.byte	0x18
 1330 0921 0A       		.uleb128 0xa
 1331 0922 A2030000 		.4byte	.LASF136
 1332 0926 0F       		.byte	0xf
 1333 0927 A601     		.2byte	0x1a6
 1334 0929 EA000000 		.4byte	0xea
 1335 092d 1C       		.byte	0x1c
 1336 092e 0A       		.uleb128 0xa
 1337 092f 070A0000 		.4byte	.LASF137
 1338 0933 0F       		.byte	0xf
 1339 0934 A701     		.2byte	0x1a7
 1340 0936 EA000000 		.4byte	0xea
 1341 093a 20       		.byte	0x20
 1342 093b 09       		.uleb128 0x9
 1343 093c 434E5400 		.ascii	"CNT\000"
 1344 0940 0F       		.byte	0xf
 1345 0941 A801     		.2byte	0x1a8
 1346 0943 EA000000 		.4byte	0xea
 1347 0947 24       		.byte	0x24
 1348 0948 09       		.uleb128 0x9
 1349 0949 50534300 		.ascii	"PSC\000"
 1350 094d 0F       		.byte	0xf
 1351 094e A901     		.2byte	0x1a9
 1352 0950 EA000000 		.4byte	0xea
 1353 0954 28       		.byte	0x28
 1354 0955 09       		.uleb128 0x9
 1355 0956 41525200 		.ascii	"ARR\000"
 1356 095a 0F       		.byte	0xf
 1357 095b AA01     		.2byte	0x1aa
 1358 095d EA000000 		.4byte	0xea
 1359 0961 2C       		.byte	0x2c
 1360 0962 09       		.uleb128 0x9
 1361 0963 52435200 		.ascii	"RCR\000"
 1362 0967 0F       		.byte	0xf
 1363 0968 AB01     		.2byte	0x1ab
 1364 096a EA000000 		.4byte	0xea
 1365 096e 30       		.byte	0x30
 1366 096f 09       		.uleb128 0x9
 1367 0970 43435200 		.ascii	"CCR\000"
 1368 0974 0F       		.byte	0xf
ARM GAS  /var/folders/qd/4mxf5pkd0zdf0b9dd1hp39180000gn/T//ccqDCcuM.s 			page 25


 1369 0975 AC01     		.2byte	0x1ac
 1370 0977 76050000 		.4byte	0x576
 1371 097b 34       		.byte	0x34
 1372 097c 0A       		.uleb128 0xa
 1373 097d 280C0000 		.4byte	.LASF138
 1374 0981 0F       		.byte	0xf
 1375 0982 AD01     		.2byte	0x1ad
 1376 0984 EA000000 		.4byte	0xea
 1377 0988 44       		.byte	0x44
 1378 0989 09       		.uleb128 0x9
 1379 098a 44435200 		.ascii	"DCR\000"
 1380 098e 0F       		.byte	0xf
 1381 098f AE01     		.2byte	0x1ae
 1382 0991 EA000000 		.4byte	0xea
 1383 0995 48       		.byte	0x48
 1384 0996 0A       		.uleb128 0xa
 1385 0997 1B010000 		.4byte	.LASF139
 1386 099b 0F       		.byte	0xf
 1387 099c AF01     		.2byte	0x1af
 1388 099e EA000000 		.4byte	0xea
 1389 09a2 4C       		.byte	0x4c
 1390 09a3 09       		.uleb128 0x9
 1391 09a4 4F5200   		.ascii	"OR\000"
 1392 09a7 0F       		.byte	0xf
 1393 09a8 B001     		.2byte	0x1b0
 1394 09aa EA000000 		.4byte	0xea
 1395 09ae 50       		.byte	0x50
 1396 09af 0A       		.uleb128 0xa
 1397 09b0 A8030000 		.4byte	.LASF140
 1398 09b4 0F       		.byte	0xf
 1399 09b5 B101     		.2byte	0x1b1
 1400 09b7 EA000000 		.4byte	0xea
 1401 09bb 54       		.byte	0x54
 1402 09bc 0A       		.uleb128 0xa
 1403 09bd 56040000 		.4byte	.LASF141
 1404 09c1 0F       		.byte	0xf
 1405 09c2 B201     		.2byte	0x1b2
 1406 09c4 61050000 		.4byte	0x561
 1407 09c8 58       		.byte	0x58
 1408 09c9 00       		.byte	0
 1409 09ca 16       		.uleb128 0x16
 1410 09cb AE050000 		.4byte	.LASF142
 1411 09cf 0F       		.byte	0xf
 1412 09d0 B301     		.2byte	0x1b3
 1413 09d2 BE080000 		.4byte	0x8be
 1414 09d6 18       		.uleb128 0x18
 1415 09d7 04       		.byte	0x4
 1416 09d8 10       		.byte	0x10
 1417 09d9 38       		.byte	0x38
 1418 09da EB090000 		.4byte	0x9eb
 1419 09de 08       		.uleb128 0x8
 1420 09df BE080000 		.4byte	.LASF143
 1421 09e3 10       		.byte	0x10
 1422 09e4 3C       		.byte	0x3c
 1423 09e5 FA000000 		.4byte	0xfa
 1424 09e9 00       		.byte	0
 1425 09ea 00       		.byte	0
ARM GAS  /var/folders/qd/4mxf5pkd0zdf0b9dd1hp39180000gn/T//ccqDCcuM.s 			page 26


 1426 09eb 03       		.uleb128 0x3
 1427 09ec 030B0000 		.4byte	.LASF144
 1428 09f0 10       		.byte	0x10
 1429 09f1 3D       		.byte	0x3d
 1430 09f2 D6090000 		.4byte	0x9d6
 1431 09f6 19       		.uleb128 0x19
 1432 09f7 04       		.byte	0x4
 1433 09f8 09       		.byte	0x9
 1434 09f9 FA       		.byte	0xfa
 1435 09fa 530A0000 		.4byte	0xa53
 1436 09fe 1A       		.uleb128 0x1a
 1437 09ff 7E0C0000 		.4byte	.LASF145
 1438 0a03 09       		.byte	0x9
 1439 0a04 0101     		.2byte	0x101
 1440 0a06 31010000 		.4byte	0x131
 1441 0a0a 1A       		.uleb128 0x1a
 1442 0a0b 62010000 		.4byte	.LASF146
 1443 0a0f 09       		.byte	0x9
 1444 0a10 0801     		.2byte	0x108
 1445 0a12 31010000 		.4byte	0x131
 1446 0a16 1A       		.uleb128 0x1a
 1447 0a17 F9030000 		.4byte	.LASF147
 1448 0a1b 09       		.byte	0x9
 1449 0a1c 0F01     		.2byte	0x10f
 1450 0a1e 48030000 		.4byte	0x348
 1451 0a22 1A       		.uleb128 0x1a
 1452 0a23 D3020000 		.4byte	.LASF148
 1453 0a27 09       		.byte	0x9
 1454 0a28 1601     		.2byte	0x116
 1455 0a2a 530A0000 		.4byte	0xa53
 1456 0a2e 1A       		.uleb128 0x1a
 1457 0a2f 1F000000 		.4byte	.LASF149
 1458 0a33 09       		.byte	0x9
 1459 0a34 1E01     		.2byte	0x11e
 1460 0a36 7E0A0000 		.4byte	0xa7e
 1461 0a3a 1A       		.uleb128 0x1a
 1462 0a3b 98040000 		.4byte	.LASF150
 1463 0a3f 09       		.byte	0x9
 1464 0a40 2701     		.2byte	0x127
 1465 0a42 B50A0000 		.4byte	0xab5
 1466 0a46 1A       		.uleb128 0x1a
 1467 0a47 B0020000 		.4byte	.LASF151
 1468 0a4b 09       		.byte	0x9
 1469 0a4c 2F01     		.2byte	0x12f
 1470 0a4e 3C010000 		.4byte	0x13c
 1471 0a52 00       		.byte	0
 1472 0a53 0B       		.uleb128 0xb
 1473 0a54 04       		.byte	0x4
 1474 0a55 60020000 		.4byte	0x260
 1475 0a59 07       		.uleb128 0x7
 1476 0a5a 3C050000 		.4byte	.LASF152
 1477 0a5e 0C       		.byte	0xc
 1478 0a5f 11       		.byte	0x11
 1479 0a60 34       		.byte	0x34
 1480 0a61 7E0A0000 		.4byte	0xa7e
 1481 0a65 08       		.uleb128 0x8
 1482 0a66 330B0000 		.4byte	.LASF153
ARM GAS  /var/folders/qd/4mxf5pkd0zdf0b9dd1hp39180000gn/T//ccqDCcuM.s 			page 27


 1483 0a6a 11       		.byte	0x11
 1484 0a6b 35       		.byte	0x35
 1485 0a6c 95020000 		.4byte	0x295
 1486 0a70 00       		.byte	0
 1487 0a71 08       		.uleb128 0x8
 1488 0a72 8E090000 		.4byte	.LASF154
 1489 0a76 11       		.byte	0x11
 1490 0a77 37       		.byte	0x37
 1491 0a78 52010000 		.4byte	0x152
 1492 0a7c 08       		.byte	0x8
 1493 0a7d 00       		.byte	0
 1494 0a7e 0B       		.uleb128 0xb
 1495 0a7f 04       		.byte	0x4
 1496 0a80 590A0000 		.4byte	0xa59
 1497 0a84 07       		.uleb128 0x7
 1498 0a85 760B0000 		.4byte	.LASF155
 1499 0a89 10       		.byte	0x10
 1500 0a8a 12       		.byte	0x12
 1501 0a8b 39       		.byte	0x39
 1502 0a8c B50A0000 		.4byte	0xab5
 1503 0a90 08       		.uleb128 0x8
 1504 0a91 10070000 		.4byte	.LASF156
 1505 0a95 12       		.byte	0x12
 1506 0a96 3A       		.byte	0x3a
 1507 0a97 95020000 		.4byte	0x295
 1508 0a9b 00       		.byte	0
 1509 0a9c 08       		.uleb128 0x8
 1510 0a9d 4C010000 		.4byte	.LASF157
 1511 0aa1 12       		.byte	0x12
 1512 0aa2 3C       		.byte	0x3c
 1513 0aa3 6B020000 		.4byte	0x26b
 1514 0aa7 08       		.byte	0x8
 1515 0aa8 08       		.uleb128 0x8
 1516 0aa9 050D0000 		.4byte	.LASF158
 1517 0aad 12       		.byte	0x12
 1518 0aae 3E       		.byte	0x3e
 1519 0aaf 0A0C0000 		.4byte	0xc0a
 1520 0ab3 0C       		.byte	0xc
 1521 0ab4 00       		.byte	0
 1522 0ab5 0B       		.uleb128 0xb
 1523 0ab6 04       		.byte	0x4
 1524 0ab7 840A0000 		.4byte	0xa84
 1525 0abb 0B       		.uleb128 0xb
 1526 0abc 04       		.byte	0x4
 1527 0abd CD0A0000 		.4byte	0xacd
 1528 0ac1 06       		.uleb128 0x6
 1529 0ac2 BB0A0000 		.4byte	0xabb
 1530 0ac6 04       		.uleb128 0x4
 1531 0ac7 01       		.byte	0x1
 1532 0ac8 08       		.byte	0x8
 1533 0ac9 BA030000 		.4byte	.LASF159
 1534 0acd 05       		.uleb128 0x5
 1535 0ace C60A0000 		.4byte	0xac6
 1536 0ad2 0B       		.uleb128 0xb
 1537 0ad3 04       		.byte	0x4
 1538 0ad4 4A030000 		.4byte	0x34a
 1539 0ad8 11       		.uleb128 0x11
ARM GAS  /var/folders/qd/4mxf5pkd0zdf0b9dd1hp39180000gn/T//ccqDCcuM.s 			page 28


 1540 0ad9 19080000 		.4byte	0x819
 1541 0add E80A0000 		.4byte	0xae8
 1542 0ae1 12       		.uleb128 0x12
 1543 0ae2 37000000 		.4byte	0x37
 1544 0ae6 1A       		.byte	0x1a
 1545 0ae7 00       		.byte	0
 1546 0ae8 1B       		.uleb128 0x1b
 1547 0ae9 636800   		.ascii	"ch\000"
 1548 0aec 09       		.byte	0x9
 1549 0aed 0902     		.2byte	0x209
 1550 0aef 17040000 		.4byte	0x417
 1551 0af3 18       		.uleb128 0x18
 1552 0af4 16       		.byte	0x16
 1553 0af5 13       		.byte	0x13
 1554 0af6 34       		.byte	0x34
 1555 0af7 D40B0000 		.4byte	0xbd4
 1556 0afb 08       		.uleb128 0x8
 1557 0afc 4E000000 		.4byte	.LASF160
 1558 0b00 13       		.byte	0x13
 1559 0b01 35       		.byte	0x35
 1560 0b02 D40B0000 		.4byte	0xbd4
 1561 0b06 00       		.byte	0
 1562 0b07 08       		.uleb128 0x8
 1563 0b08 18050000 		.4byte	.LASF161
 1564 0b0c 13       		.byte	0x13
 1565 0b0d 36       		.byte	0x36
 1566 0b0e B4000000 		.4byte	0xb4
 1567 0b12 04       		.byte	0x4
 1568 0b13 08       		.uleb128 0x8
 1569 0b14 C50C0000 		.4byte	.LASF162
 1570 0b18 13       		.byte	0x13
 1571 0b19 37       		.byte	0x37
 1572 0b1a B4000000 		.4byte	0xb4
 1573 0b1e 05       		.byte	0x5
 1574 0b1f 08       		.uleb128 0x8
 1575 0b20 05070000 		.4byte	.LASF163
 1576 0b24 13       		.byte	0x13
 1577 0b25 38       		.byte	0x38
 1578 0b26 C4000000 		.4byte	0xc4
 1579 0b2a 06       		.byte	0x6
 1580 0b2b 08       		.uleb128 0x8
 1581 0b2c 10010000 		.4byte	.LASF164
 1582 0b30 13       		.byte	0x13
 1583 0b31 39       		.byte	0x39
 1584 0b32 B4000000 		.4byte	0xb4
 1585 0b36 08       		.byte	0x8
 1586 0b37 08       		.uleb128 0x8
 1587 0b38 5F080000 		.4byte	.LASF165
 1588 0b3c 13       		.byte	0x13
 1589 0b3d 3A       		.byte	0x3a
 1590 0b3e B4000000 		.4byte	0xb4
 1591 0b42 09       		.byte	0x9
 1592 0b43 08       		.uleb128 0x8
 1593 0b44 8D010000 		.4byte	.LASF166
 1594 0b48 13       		.byte	0x13
 1595 0b49 3B       		.byte	0x3b
 1596 0b4a B4000000 		.4byte	0xb4
ARM GAS  /var/folders/qd/4mxf5pkd0zdf0b9dd1hp39180000gn/T//ccqDCcuM.s 			page 29


 1597 0b4e 0A       		.byte	0xa
 1598 0b4f 08       		.uleb128 0x8
 1599 0b50 32040000 		.4byte	.LASF167
 1600 0b54 13       		.byte	0x13
 1601 0b55 3C       		.byte	0x3c
 1602 0b56 B4000000 		.4byte	0xb4
 1603 0b5a 0B       		.byte	0xb
 1604 0b5b 08       		.uleb128 0x8
 1605 0b5c 93000000 		.4byte	.LASF168
 1606 0b60 13       		.byte	0x13
 1607 0b61 3D       		.byte	0x3d
 1608 0b62 B4000000 		.4byte	0xb4
 1609 0b66 0C       		.byte	0xc
 1610 0b67 08       		.uleb128 0x8
 1611 0b68 00040000 		.4byte	.LASF169
 1612 0b6c 13       		.byte	0x13
 1613 0b6d 3E       		.byte	0x3e
 1614 0b6e B4000000 		.4byte	0xb4
 1615 0b72 0D       		.byte	0xd
 1616 0b73 08       		.uleb128 0x8
 1617 0b74 A60B0000 		.4byte	.LASF170
 1618 0b78 13       		.byte	0x13
 1619 0b79 3F       		.byte	0x3f
 1620 0b7a B4000000 		.4byte	0xb4
 1621 0b7e 0E       		.byte	0xe
 1622 0b7f 08       		.uleb128 0x8
 1623 0b80 26000000 		.4byte	.LASF171
 1624 0b84 13       		.byte	0x13
 1625 0b85 40       		.byte	0x40
 1626 0b86 B4000000 		.4byte	0xb4
 1627 0b8a 0F       		.byte	0xf
 1628 0b8b 08       		.uleb128 0x8
 1629 0b8c EE0B0000 		.4byte	.LASF172
 1630 0b90 13       		.byte	0x13
 1631 0b91 41       		.byte	0x41
 1632 0b92 B4000000 		.4byte	0xb4
 1633 0b96 10       		.byte	0x10
 1634 0b97 08       		.uleb128 0x8
 1635 0b98 F9010000 		.4byte	.LASF173
 1636 0b9c 13       		.byte	0x13
 1637 0b9d 43       		.byte	0x43
 1638 0b9e B4000000 		.4byte	0xb4
 1639 0ba2 11       		.byte	0x11
 1640 0ba3 08       		.uleb128 0x8
 1641 0ba4 FA090000 		.4byte	.LASF174
 1642 0ba8 13       		.byte	0x13
 1643 0ba9 44       		.byte	0x44
 1644 0baa B4000000 		.4byte	0xb4
 1645 0bae 12       		.byte	0x12
 1646 0baf 08       		.uleb128 0x8
 1647 0bb0 E9080000 		.4byte	.LASF175
 1648 0bb4 13       		.byte	0x13
 1649 0bb5 45       		.byte	0x45
 1650 0bb6 B4000000 		.4byte	0xb4
 1651 0bba 13       		.byte	0x13
 1652 0bbb 08       		.uleb128 0x8
 1653 0bbc CD060000 		.4byte	.LASF176
ARM GAS  /var/folders/qd/4mxf5pkd0zdf0b9dd1hp39180000gn/T//ccqDCcuM.s 			page 30


 1654 0bc0 13       		.byte	0x13
 1655 0bc1 46       		.byte	0x46
 1656 0bc2 B4000000 		.4byte	0xb4
 1657 0bc6 14       		.byte	0x14
 1658 0bc7 08       		.uleb128 0x8
 1659 0bc8 42090000 		.4byte	.LASF177
 1660 0bcc 13       		.byte	0x13
 1661 0bcd 48       		.byte	0x48
 1662 0bce B4000000 		.4byte	0xb4
 1663 0bd2 15       		.byte	0x15
 1664 0bd3 00       		.byte	0
 1665 0bd4 11       		.uleb128 0x11
 1666 0bd5 C60A0000 		.4byte	0xac6
 1667 0bd9 E40B0000 		.4byte	0xbe4
 1668 0bdd 12       		.uleb128 0x12
 1669 0bde 37000000 		.4byte	0x37
 1670 0be2 03       		.byte	0x3
 1671 0be3 00       		.byte	0
 1672 0be4 03       		.uleb128 0x3
 1673 0be5 B00C0000 		.4byte	.LASF178
 1674 0be9 13       		.byte	0x13
 1675 0bea 49       		.byte	0x49
 1676 0beb F30A0000 		.4byte	0xaf3
 1677 0bef 05       		.uleb128 0x5
 1678 0bf0 E40B0000 		.4byte	0xbe4
 1679 0bf4 14       		.uleb128 0x14
 1680 0bf5 6A000000 		.4byte	.LASF179
 1681 0bf9 13       		.byte	0x13
 1682 0bfa 6E       		.byte	0x6e
 1683 0bfb EF0B0000 		.4byte	0xbef
 1684 0bff 03       		.uleb128 0x3
 1685 0c00 DE0B0000 		.4byte	.LASF180
 1686 0c04 12       		.byte	0x12
 1687 0c05 34       		.byte	0x34
 1688 0c06 840A0000 		.4byte	0xa84
 1689 0c0a 0B       		.uleb128 0xb
 1690 0c0b 04       		.byte	0x4
 1691 0c0c FF0B0000 		.4byte	0xbff
 1692 0c10 03       		.uleb128 0x3
 1693 0c11 45040000 		.4byte	.LASF181
 1694 0c15 14       		.byte	0x14
 1695 0c16 34       		.byte	0x34
 1696 0c17 1B0C0000 		.4byte	0xc1b
 1697 0c1b 07       		.uleb128 0x7
 1698 0c1c 6F0C0000 		.4byte	.LASF182
 1699 0c20 14       		.byte	0x14
 1700 0c21 14       		.byte	0x14
 1701 0c22 39       		.byte	0x39
 1702 0c23 640C0000 		.4byte	0xc64
 1703 0c27 08       		.uleb128 0x8
 1704 0c28 7C050000 		.4byte	.LASF183
 1705 0c2c 14       		.byte	0x14
 1706 0c2d 3A       		.byte	0x3a
 1707 0c2e 640C0000 		.4byte	0xc64
 1708 0c32 00       		.byte	0
 1709 0c33 08       		.uleb128 0x8
 1710 0c34 B10D0000 		.4byte	.LASF184
ARM GAS  /var/folders/qd/4mxf5pkd0zdf0b9dd1hp39180000gn/T//ccqDCcuM.s 			page 31


 1711 0c38 14       		.byte	0x14
 1712 0c39 3D       		.byte	0x3d
 1713 0c3a 6B020000 		.4byte	0x26b
 1714 0c3e 04       		.byte	0x4
 1715 0c3f 08       		.uleb128 0x8
 1716 0c40 97080000 		.4byte	.LASF185
 1717 0c44 14       		.byte	0x14
 1718 0c45 3F       		.byte	0x3f
 1719 0c46 3C010000 		.4byte	0x13c
 1720 0c4a 08       		.byte	0x8
 1721 0c4b 08       		.uleb128 0x8
 1722 0c4c D7000000 		.4byte	.LASF186
 1723 0c50 14       		.byte	0x14
 1724 0c51 41       		.byte	0x41
 1725 0c52 47010000 		.4byte	0x147
 1726 0c56 0C       		.byte	0xc
 1727 0c57 08       		.uleb128 0x8
 1728 0c58 7F080000 		.4byte	.LASF187
 1729 0c5c 14       		.byte	0x14
 1730 0c5d 43       		.byte	0x43
 1731 0c5e 47010000 		.4byte	0x147
 1732 0c62 10       		.byte	0x10
 1733 0c63 00       		.byte	0
 1734 0c64 0B       		.uleb128 0xb
 1735 0c65 04       		.byte	0x4
 1736 0c66 100C0000 		.4byte	0xc10
 1737 0c6a 07       		.uleb128 0x7
 1738 0c6b 5B0B0000 		.4byte	.LASF188
 1739 0c6f 04       		.byte	0x4
 1740 0c70 14       		.byte	0x14
 1741 0c71 4A       		.byte	0x4a
 1742 0c72 830C0000 		.4byte	0xc83
 1743 0c76 08       		.uleb128 0x8
 1744 0c77 DC040000 		.4byte	.LASF189
 1745 0c7b 14       		.byte	0x14
 1746 0c7c 4B       		.byte	0x4b
 1747 0c7d 640C0000 		.4byte	0xc64
 1748 0c81 00       		.byte	0
 1749 0c82 00       		.byte	0
 1750 0c83 03       		.uleb128 0x3
 1751 0c84 69070000 		.4byte	.LASF190
 1752 0c88 14       		.byte	0x14
 1753 0c89 4E       		.byte	0x4e
 1754 0c8a 6A0C0000 		.4byte	0xc6a
 1755 0c8e 03       		.uleb128 0x3
 1756 0c8f B30B0000 		.4byte	.LASF191
 1757 0c93 15       		.byte	0x15
 1758 0c94 3F       		.byte	0x3f
 1759 0c95 990C0000 		.4byte	0xc99
 1760 0c99 07       		.uleb128 0x7
 1761 0c9a 71020000 		.4byte	.LASF192
 1762 0c9e 24       		.byte	0x24
 1763 0c9f 15       		.byte	0x15
 1764 0ca0 4D       		.byte	0x4d
 1765 0ca1 060D0000 		.4byte	0xd06
 1766 0ca5 08       		.uleb128 0x8
 1767 0ca6 A70A0000 		.4byte	.LASF193
ARM GAS  /var/folders/qd/4mxf5pkd0zdf0b9dd1hp39180000gn/T//ccqDCcuM.s 			page 32


 1768 0caa 15       		.byte	0x15
 1769 0cab 4E       		.byte	0x4e
 1770 0cac 95020000 		.4byte	0x295
 1771 0cb0 00       		.byte	0
 1772 0cb1 08       		.uleb128 0x8
 1773 0cb2 E4040000 		.4byte	.LASF194
 1774 0cb6 15       		.byte	0x15
 1775 0cb7 4F       		.byte	0x4f
 1776 0cb8 2C000000 		.4byte	0x2c
 1777 0cbc 08       		.byte	0x8
 1778 0cbd 08       		.uleb128 0x8
 1779 0cbe A7010000 		.4byte	.LASF195
 1780 0cc2 15       		.byte	0x15
 1781 0cc3 50       		.byte	0x50
 1782 0cc4 280D0000 		.4byte	0xd28
 1783 0cc8 0C       		.byte	0xc
 1784 0cc9 08       		.uleb128 0x8
 1785 0cca 7D010000 		.4byte	.LASF196
 1786 0cce 15       		.byte	0x15
 1787 0ccf 51       		.byte	0x51
 1788 0cd0 280D0000 		.4byte	0xd28
 1789 0cd4 10       		.byte	0x10
 1790 0cd5 08       		.uleb128 0x8
 1791 0cd6 A1050000 		.4byte	.LASF197
 1792 0cda 15       		.byte	0x15
 1793 0cdb 53       		.byte	0x53
 1794 0cdc 280D0000 		.4byte	0xd28
 1795 0ce0 14       		.byte	0x14
 1796 0ce1 08       		.uleb128 0x8
 1797 0ce2 F1010000 		.4byte	.LASF198
 1798 0ce6 15       		.byte	0x15
 1799 0ce7 54       		.byte	0x54
 1800 0ce8 280D0000 		.4byte	0xd28
 1801 0cec 18       		.byte	0x18
 1802 0ced 08       		.uleb128 0x8
 1803 0cee B0010000 		.4byte	.LASF199
 1804 0cf2 15       		.byte	0x15
 1805 0cf3 55       		.byte	0x55
 1806 0cf4 060D0000 		.4byte	0xd06
 1807 0cf8 1C       		.byte	0x1c
 1808 0cf9 08       		.uleb128 0x8
 1809 0cfa 9D020000 		.4byte	.LASF200
 1810 0cfe 15       		.byte	0x15
 1811 0cff 56       		.byte	0x56
 1812 0d00 48030000 		.4byte	0x348
 1813 0d04 20       		.byte	0x20
 1814 0d05 00       		.byte	0
 1815 0d06 03       		.uleb128 0x3
 1816 0d07 C7070000 		.4byte	.LASF201
 1817 0d0b 15       		.byte	0x15
 1818 0d0c 42       		.byte	0x42
 1819 0d0d 110D0000 		.4byte	0xd11
 1820 0d11 0B       		.uleb128 0xb
 1821 0d12 04       		.byte	0x4
 1822 0d13 170D0000 		.4byte	0xd17
 1823 0d17 0D       		.uleb128 0xd
 1824 0d18 220D0000 		.4byte	0xd22
ARM GAS  /var/folders/qd/4mxf5pkd0zdf0b9dd1hp39180000gn/T//ccqDCcuM.s 			page 33


 1825 0d1c 0E       		.uleb128 0xe
 1826 0d1d 220D0000 		.4byte	0xd22
 1827 0d21 00       		.byte	0
 1828 0d22 0B       		.uleb128 0xb
 1829 0d23 04       		.byte	0x4
 1830 0d24 8E0C0000 		.4byte	0xc8e
 1831 0d28 0B       		.uleb128 0xb
 1832 0d29 04       		.byte	0x4
 1833 0d2a B4000000 		.4byte	0xb4
 1834 0d2e 03       		.uleb128 0x3
 1835 0d2f 4D0C0000 		.4byte	.LASF202
 1836 0d33 15       		.byte	0x15
 1837 0d34 64       		.byte	0x64
 1838 0d35 8E0C0000 		.4byte	0xc8e
 1839 0d39 03       		.uleb128 0x3
 1840 0d3a CD0C0000 		.4byte	.LASF203
 1841 0d3e 15       		.byte	0x15
 1842 0d3f 71       		.byte	0x71
 1843 0d40 8E0C0000 		.4byte	0xc8e
 1844 0d44 1C       		.uleb128 0x1c
 1845 0d45 2C000000 		.4byte	0x2c
 1846 0d49 5D0D0000 		.4byte	0xd5d
 1847 0d4d 0E       		.uleb128 0xe
 1848 0d4e 48030000 		.4byte	0x348
 1849 0d52 0E       		.uleb128 0xe
 1850 0d53 5D0D0000 		.4byte	0xd5d
 1851 0d57 0E       		.uleb128 0xe
 1852 0d58 2C000000 		.4byte	0x2c
 1853 0d5c 00       		.byte	0
 1854 0d5d 0B       		.uleb128 0xb
 1855 0d5e 04       		.byte	0x4
 1856 0d5f BF000000 		.4byte	0xbf
 1857 0d63 0B       		.uleb128 0xb
 1858 0d64 04       		.byte	0x4
 1859 0d65 440D0000 		.4byte	0xd44
 1860 0d69 1C       		.uleb128 0x1c
 1861 0d6a 2C000000 		.4byte	0x2c
 1862 0d6e 820D0000 		.4byte	0xd82
 1863 0d72 0E       		.uleb128 0xe
 1864 0d73 48030000 		.4byte	0x348
 1865 0d77 0E       		.uleb128 0xe
 1866 0d78 280D0000 		.4byte	0xd28
 1867 0d7c 0E       		.uleb128 0xe
 1868 0d7d 2C000000 		.4byte	0x2c
 1869 0d81 00       		.byte	0
 1870 0d82 0B       		.uleb128 0xb
 1871 0d83 04       		.byte	0x4
 1872 0d84 690D0000 		.4byte	0xd69
 1873 0d88 1C       		.uleb128 0x1c
 1874 0d89 31010000 		.4byte	0x131
 1875 0d8d 9C0D0000 		.4byte	0xd9c
 1876 0d91 0E       		.uleb128 0xe
 1877 0d92 48030000 		.4byte	0x348
 1878 0d96 0E       		.uleb128 0xe
 1879 0d97 B4000000 		.4byte	0xb4
 1880 0d9b 00       		.byte	0
 1881 0d9c 0B       		.uleb128 0xb
ARM GAS  /var/folders/qd/4mxf5pkd0zdf0b9dd1hp39180000gn/T//ccqDCcuM.s 			page 34


 1882 0d9d 04       		.byte	0x4
 1883 0d9e 880D0000 		.4byte	0xd88
 1884 0da2 1C       		.uleb128 0x1c
 1885 0da3 31010000 		.4byte	0x131
 1886 0da7 B10D0000 		.4byte	0xdb1
 1887 0dab 0E       		.uleb128 0xe
 1888 0dac 48030000 		.4byte	0x348
 1889 0db0 00       		.byte	0
 1890 0db1 0B       		.uleb128 0xb
 1891 0db2 04       		.byte	0x4
 1892 0db3 A20D0000 		.4byte	0xda2
 1893 0db7 18       		.uleb128 0x18
 1894 0db8 0C       		.byte	0xc
 1895 0db9 16       		.byte	0x16
 1896 0dba DA       		.byte	0xda
 1897 0dbb FC0D0000 		.4byte	0xdfc
 1898 0dbf 08       		.uleb128 0x8
 1899 0dc0 3E040000 		.4byte	.LASF204
 1900 0dc4 16       		.byte	0x16
 1901 0dc5 DB       		.byte	0xdb
 1902 0dc6 FC0D0000 		.4byte	0xdfc
 1903 0dca 00       		.byte	0
 1904 0dcb 08       		.uleb128 0x8
 1905 0dcc F30C0000 		.4byte	.LASF205
 1906 0dd0 16       		.byte	0x16
 1907 0dd1 DC       		.byte	0xdc
 1908 0dd2 020E0000 		.4byte	0xe02
 1909 0dd6 04       		.byte	0x4
 1910 0dd7 08       		.uleb128 0x8
 1911 0dd8 C5030000 		.4byte	.LASF206
 1912 0ddc 16       		.byte	0x16
 1913 0ddd DD       		.byte	0xdd
 1914 0dde B4000000 		.4byte	0xb4
 1915 0de2 08       		.byte	0x8
 1916 0de3 08       		.uleb128 0x8
 1917 0de4 94090000 		.4byte	.LASF207
 1918 0de8 16       		.byte	0x16
 1919 0de9 DF       		.byte	0xdf
 1920 0dea B4000000 		.4byte	0xb4
 1921 0dee 09       		.byte	0x9
 1922 0def 08       		.uleb128 0x8
 1923 0df0 260A0000 		.4byte	.LASF208
 1924 0df4 16       		.byte	0x16
 1925 0df5 E0       		.byte	0xe0
 1926 0df6 B4000000 		.4byte	0xb4
 1927 0dfa 0A       		.byte	0xa
 1928 0dfb 00       		.byte	0
 1929 0dfc 0B       		.uleb128 0xb
 1930 0dfd 04       		.byte	0x4
 1931 0dfe 45050000 		.4byte	0x545
 1932 0e02 0B       		.uleb128 0xb
 1933 0e03 04       		.byte	0x4
 1934 0e04 EA000000 		.4byte	0xea
 1935 0e08 03       		.uleb128 0x3
 1936 0e09 05000000 		.4byte	.LASF209
 1937 0e0d 16       		.byte	0x16
 1938 0e0e E1       		.byte	0xe1
ARM GAS  /var/folders/qd/4mxf5pkd0zdf0b9dd1hp39180000gn/T//ccqDCcuM.s 			page 35


 1939 0e0f B70D0000 		.4byte	0xdb7
 1940 0e13 05       		.uleb128 0x5
 1941 0e14 080E0000 		.4byte	0xe08
 1942 0e18 11       		.uleb128 0x11
 1943 0e19 130E0000 		.4byte	0xe13
 1944 0e1d 280E0000 		.4byte	0xe28
 1945 0e21 12       		.uleb128 0x12
 1946 0e22 37000000 		.4byte	0x37
 1947 0e26 0F       		.byte	0xf
 1948 0e27 00       		.byte	0
 1949 0e28 05       		.uleb128 0x5
 1950 0e29 180E0000 		.4byte	0xe18
 1951 0e2d 13       		.uleb128 0x13
 1952 0e2e 69050000 		.4byte	.LASF210
 1953 0e32 16       		.byte	0x16
 1954 0e33 BB01     		.2byte	0x1bb
 1955 0e35 280E0000 		.4byte	0xe28
 1956 0e39 1C       		.uleb128 0x1c
 1957 0e3a 31010000 		.4byte	0x131
 1958 0e3e 520E0000 		.4byte	0xe52
 1959 0e42 0E       		.uleb128 0xe
 1960 0e43 48030000 		.4byte	0x348
 1961 0e47 0E       		.uleb128 0xe
 1962 0e48 B4000000 		.4byte	0xb4
 1963 0e4c 0E       		.uleb128 0xe
 1964 0e4d 5D010000 		.4byte	0x15d
 1965 0e51 00       		.byte	0
 1966 0e52 0B       		.uleb128 0xb
 1967 0e53 04       		.byte	0x4
 1968 0e54 390E0000 		.4byte	0xe39
 1969 0e58 1C       		.uleb128 0x1c
 1970 0e59 31010000 		.4byte	0x131
 1971 0e5d 6C0E0000 		.4byte	0xe6c
 1972 0e61 0E       		.uleb128 0xe
 1973 0e62 48030000 		.4byte	0x348
 1974 0e66 0E       		.uleb128 0xe
 1975 0e67 5D010000 		.4byte	0x15d
 1976 0e6b 00       		.byte	0
 1977 0e6c 0B       		.uleb128 0xb
 1978 0e6d 04       		.byte	0x4
 1979 0e6e 580E0000 		.4byte	0xe58
 1980 0e72 1C       		.uleb128 0x1c
 1981 0e73 2C000000 		.4byte	0x2c
 1982 0e77 900E0000 		.4byte	0xe90
 1983 0e7b 0E       		.uleb128 0xe
 1984 0e7c 48030000 		.4byte	0x348
 1985 0e80 0E       		.uleb128 0xe
 1986 0e81 5D0D0000 		.4byte	0xd5d
 1987 0e85 0E       		.uleb128 0xe
 1988 0e86 2C000000 		.4byte	0x2c
 1989 0e8a 0E       		.uleb128 0xe
 1990 0e8b 5D010000 		.4byte	0x15d
 1991 0e8f 00       		.byte	0
 1992 0e90 0B       		.uleb128 0xb
 1993 0e91 04       		.byte	0x4
 1994 0e92 720E0000 		.4byte	0xe72
 1995 0e96 1C       		.uleb128 0x1c
ARM GAS  /var/folders/qd/4mxf5pkd0zdf0b9dd1hp39180000gn/T//ccqDCcuM.s 			page 36


 1996 0e97 2C000000 		.4byte	0x2c
 1997 0e9b B40E0000 		.4byte	0xeb4
 1998 0e9f 0E       		.uleb128 0xe
 1999 0ea0 48030000 		.4byte	0x348
 2000 0ea4 0E       		.uleb128 0xe
 2001 0ea5 280D0000 		.4byte	0xd28
 2002 0ea9 0E       		.uleb128 0xe
 2003 0eaa 2C000000 		.4byte	0x2c
 2004 0eae 0E       		.uleb128 0xe
 2005 0eaf 5D010000 		.4byte	0x15d
 2006 0eb3 00       		.byte	0
 2007 0eb4 0B       		.uleb128 0xb
 2008 0eb5 04       		.byte	0x4
 2009 0eb6 960E0000 		.4byte	0xe96
 2010 0eba 04       		.uleb128 0x4
 2011 0ebb 01       		.byte	0x1
 2012 0ebc 02       		.byte	0x2
 2013 0ebd 8C030000 		.4byte	.LASF211
 2014 0ec1 18       		.uleb128 0x18
 2015 0ec2 04       		.byte	0x4
 2016 0ec3 17       		.byte	0x17
 2017 0ec4 B3       		.byte	0xb3
 2018 0ec5 E20E0000 		.4byte	0xee2
 2019 0ec9 17       		.uleb128 0x17
 2020 0eca 73657400 		.ascii	"set\000"
 2021 0ece 17       		.byte	0x17
 2022 0ecf B4       		.byte	0xb4
 2023 0ed0 C4000000 		.4byte	0xc4
 2024 0ed4 00       		.byte	0
 2025 0ed5 08       		.uleb128 0x8
 2026 0ed6 AD040000 		.4byte	.LASF212
 2027 0eda 17       		.byte	0x17
 2028 0edb B5       		.byte	0xb5
 2029 0edc C4000000 		.4byte	0xc4
 2030 0ee0 02       		.byte	0x2
 2031 0ee1 00       		.byte	0
 2032 0ee2 19       		.uleb128 0x19
 2033 0ee3 04       		.byte	0x4
 2034 0ee4 17       		.byte	0x17
 2035 0ee5 B1       		.byte	0xb1
 2036 0ee6 FD0E0000 		.4byte	0xefd
 2037 0eea 1D       		.uleb128 0x1d
 2038 0eeb 5700     		.ascii	"W\000"
 2039 0eed 17       		.byte	0x17
 2040 0eee B2       		.byte	0xb2
 2041 0eef DF000000 		.4byte	0xdf
 2042 0ef3 1D       		.uleb128 0x1d
 2043 0ef4 4800     		.ascii	"H\000"
 2044 0ef6 17       		.byte	0x17
 2045 0ef7 B6       		.byte	0xb6
 2046 0ef8 C10E0000 		.4byte	0xec1
 2047 0efc 00       		.byte	0
 2048 0efd 06       		.uleb128 0x6
 2049 0efe E20E0000 		.4byte	0xee2
 2050 0f02 18       		.uleb128 0x18
 2051 0f03 2C       		.byte	0x2c
 2052 0f04 17       		.byte	0x17
ARM GAS  /var/folders/qd/4mxf5pkd0zdf0b9dd1hp39180000gn/T//ccqDCcuM.s 			page 37


 2053 0f05 A9       		.byte	0xa9
 2054 0f06 8F0F0000 		.4byte	0xf8f
 2055 0f0a 08       		.uleb128 0x8
 2056 0f0b E8070000 		.4byte	.LASF213
 2057 0f0f 17       		.byte	0x17
 2058 0f10 AB       		.byte	0xab
 2059 0f11 EA000000 		.4byte	0xea
 2060 0f15 00       		.byte	0
 2061 0f16 08       		.uleb128 0x8
 2062 0f17 3C000000 		.4byte	.LASF214
 2063 0f1b 17       		.byte	0x17
 2064 0f1c AC       		.byte	0xac
 2065 0f1d EA000000 		.4byte	0xea
 2066 0f21 04       		.byte	0x4
 2067 0f22 08       		.uleb128 0x8
 2068 0f23 E3050000 		.4byte	.LASF215
 2069 0f27 17       		.byte	0x17
 2070 0f28 AD       		.byte	0xad
 2071 0f29 EA000000 		.4byte	0xea
 2072 0f2d 08       		.byte	0x8
 2073 0f2e 08       		.uleb128 0x8
 2074 0f2f 9B010000 		.4byte	.LASF216
 2075 0f33 17       		.byte	0x17
 2076 0f34 AE       		.byte	0xae
 2077 0f35 EA000000 		.4byte	0xea
 2078 0f39 0C       		.byte	0xc
 2079 0f3a 17       		.uleb128 0x17
 2080 0f3b 49445200 		.ascii	"IDR\000"
 2081 0f3f 17       		.byte	0x17
 2082 0f40 AF       		.byte	0xaf
 2083 0f41 EA000000 		.4byte	0xea
 2084 0f45 10       		.byte	0x10
 2085 0f46 17       		.uleb128 0x17
 2086 0f47 4F445200 		.ascii	"ODR\000"
 2087 0f4b 17       		.byte	0x17
 2088 0f4c B0       		.byte	0xb0
 2089 0f4d EA000000 		.4byte	0xea
 2090 0f51 14       		.byte	0x14
 2091 0f52 08       		.uleb128 0x8
 2092 0f53 BE0B0000 		.4byte	.LASF217
 2093 0f57 17       		.byte	0x17
 2094 0f58 B7       		.byte	0xb7
 2095 0f59 FD0E0000 		.4byte	0xefd
 2096 0f5d 18       		.byte	0x18
 2097 0f5e 08       		.uleb128 0x8
 2098 0f5f A9050000 		.4byte	.LASF218
 2099 0f63 17       		.byte	0x17
 2100 0f64 B8       		.byte	0xb8
 2101 0f65 EA000000 		.4byte	0xea
 2102 0f69 1C       		.byte	0x1c
 2103 0f6a 08       		.uleb128 0x8
 2104 0f6b 210A0000 		.4byte	.LASF219
 2105 0f6f 17       		.byte	0x17
 2106 0f70 B9       		.byte	0xb9
 2107 0f71 EA000000 		.4byte	0xea
 2108 0f75 20       		.byte	0x20
 2109 0f76 08       		.uleb128 0x8
ARM GAS  /var/folders/qd/4mxf5pkd0zdf0b9dd1hp39180000gn/T//ccqDCcuM.s 			page 38


 2110 0f77 1C0A0000 		.4byte	.LASF220
 2111 0f7b 17       		.byte	0x17
 2112 0f7c BA       		.byte	0xba
 2113 0f7d EA000000 		.4byte	0xea
 2114 0f81 24       		.byte	0x24
 2115 0f82 17       		.uleb128 0x17
 2116 0f83 42525200 		.ascii	"BRR\000"
 2117 0f87 17       		.byte	0x17
 2118 0f88 BB       		.byte	0xbb
 2119 0f89 EA000000 		.4byte	0xea
 2120 0f8d 28       		.byte	0x28
 2121 0f8e 00       		.byte	0
 2122 0f8f 03       		.uleb128 0x3
 2123 0f90 3F030000 		.4byte	.LASF221
 2124 0f94 17       		.byte	0x17
 2125 0f95 BC       		.byte	0xbc
 2126 0f96 020F0000 		.4byte	0xf02
 2127 0f9a 18       		.uleb128 0x18
 2128 0f9b 1C       		.byte	0x1c
 2129 0f9c 17       		.byte	0x17
 2130 0f9d C1       		.byte	0xc1
 2131 0f9e F70F0000 		.4byte	0xff7
 2132 0fa2 08       		.uleb128 0x8
 2133 0fa3 BF030000 		.4byte	.LASF222
 2134 0fa7 17       		.byte	0x17
 2135 0fa8 C3       		.byte	0xc3
 2136 0fa9 DF000000 		.4byte	0xdf
 2137 0fad 00       		.byte	0
 2138 0fae 08       		.uleb128 0x8
 2139 0faf 25050000 		.4byte	.LASF223
 2140 0fb3 17       		.byte	0x17
 2141 0fb4 C5       		.byte	0xc5
 2142 0fb5 DF000000 		.4byte	0xdf
 2143 0fb9 04       		.byte	0x4
 2144 0fba 08       		.uleb128 0x8
 2145 0fbb B8040000 		.4byte	.LASF224
 2146 0fbf 17       		.byte	0x17
 2147 0fc0 C7       		.byte	0xc7
 2148 0fc1 DF000000 		.4byte	0xdf
 2149 0fc5 08       		.byte	0x8
 2150 0fc6 08       		.uleb128 0x8
 2151 0fc7 DD050000 		.4byte	.LASF225
 2152 0fcb 17       		.byte	0x17
 2153 0fcc C9       		.byte	0xc9
 2154 0fcd DF000000 		.4byte	0xdf
 2155 0fd1 0C       		.byte	0xc
 2156 0fd2 17       		.uleb128 0x17
 2157 0fd3 6F647200 		.ascii	"odr\000"
 2158 0fd7 17       		.byte	0x17
 2159 0fd8 CB       		.byte	0xcb
 2160 0fd9 DF000000 		.4byte	0xdf
 2161 0fdd 10       		.byte	0x10
 2162 0fde 08       		.uleb128 0x8
 2163 0fdf F5080000 		.4byte	.LASF226
 2164 0fe3 17       		.byte	0x17
 2165 0fe4 CD       		.byte	0xcd
 2166 0fe5 DF000000 		.4byte	0xdf
ARM GAS  /var/folders/qd/4mxf5pkd0zdf0b9dd1hp39180000gn/T//ccqDCcuM.s 			page 39


 2167 0fe9 14       		.byte	0x14
 2168 0fea 08       		.uleb128 0x8
 2169 0feb F6040000 		.4byte	.LASF227
 2170 0fef 17       		.byte	0x17
 2171 0ff0 CF       		.byte	0xcf
 2172 0ff1 DF000000 		.4byte	0xdf
 2173 0ff5 18       		.byte	0x18
 2174 0ff6 00       		.byte	0
 2175 0ff7 03       		.uleb128 0x3
 2176 0ff8 39010000 		.4byte	.LASF228
 2177 0ffc 17       		.byte	0x17
 2178 0ffd D0       		.byte	0xd0
 2179 0ffe 9A0F0000 		.4byte	0xf9a
 2180 1002 18       		.uleb128 0x18
 2181 1003 FC       		.byte	0xfc
 2182 1004 17       		.byte	0x17
 2183 1005 D9       		.byte	0xd9
 2184 1006 77100000 		.4byte	0x1077
 2185 100a 08       		.uleb128 0x8
 2186 100b BE090000 		.4byte	.LASF229
 2187 100f 17       		.byte	0x17
 2188 1010 DC       		.byte	0xdc
 2189 1011 F70F0000 		.4byte	0xff7
 2190 1015 00       		.byte	0
 2191 1016 08       		.uleb128 0x8
 2192 1017 AC070000 		.4byte	.LASF230
 2193 101b 17       		.byte	0x17
 2194 101c E0       		.byte	0xe0
 2195 101d F70F0000 		.4byte	0xff7
 2196 1021 1C       		.byte	0x1c
 2197 1022 08       		.uleb128 0x8
 2198 1023 C0040000 		.4byte	.LASF231
 2199 1027 17       		.byte	0x17
 2200 1028 E4       		.byte	0xe4
 2201 1029 F70F0000 		.4byte	0xff7
 2202 102d 38       		.byte	0x38
 2203 102e 08       		.uleb128 0x8
 2204 102f 5A030000 		.4byte	.LASF232
 2205 1033 17       		.byte	0x17
 2206 1034 E8       		.byte	0xe8
 2207 1035 F70F0000 		.4byte	0xff7
 2208 1039 54       		.byte	0x54
 2209 103a 08       		.uleb128 0x8
 2210 103b ED000000 		.4byte	.LASF233
 2211 103f 17       		.byte	0x17
 2212 1040 EC       		.byte	0xec
 2213 1041 F70F0000 		.4byte	0xff7
 2214 1045 70       		.byte	0x70
 2215 1046 08       		.uleb128 0x8
 2216 1047 680C0000 		.4byte	.LASF234
 2217 104b 17       		.byte	0x17
 2218 104c F0       		.byte	0xf0
 2219 104d F70F0000 		.4byte	0xff7
 2220 1051 8C       		.byte	0x8c
 2221 1052 08       		.uleb128 0x8
 2222 1053 A00A0000 		.4byte	.LASF235
 2223 1057 17       		.byte	0x17
ARM GAS  /var/folders/qd/4mxf5pkd0zdf0b9dd1hp39180000gn/T//ccqDCcuM.s 			page 40


 2224 1058 F4       		.byte	0xf4
 2225 1059 F70F0000 		.4byte	0xff7
 2226 105d A8       		.byte	0xa8
 2227 105e 08       		.uleb128 0x8
 2228 105f CF080000 		.4byte	.LASF236
 2229 1063 17       		.byte	0x17
 2230 1064 F8       		.byte	0xf8
 2231 1065 F70F0000 		.4byte	0xff7
 2232 1069 C4       		.byte	0xc4
 2233 106a 08       		.uleb128 0x8
 2234 106b BA050000 		.4byte	.LASF237
 2235 106f 17       		.byte	0x17
 2236 1070 FC       		.byte	0xfc
 2237 1071 F70F0000 		.4byte	0xff7
 2238 1075 E0       		.byte	0xe0
 2239 1076 00       		.byte	0
 2240 1077 03       		.uleb128 0x3
 2241 1078 C30B0000 		.4byte	.LASF238
 2242 107c 17       		.byte	0x17
 2243 107d FE       		.byte	0xfe
 2244 107e 02100000 		.4byte	0x1002
 2245 1082 05       		.uleb128 0x5
 2246 1083 77100000 		.4byte	0x1077
 2247 1087 16       		.uleb128 0x16
 2248 1088 1E020000 		.4byte	.LASF239
 2249 108c 17       		.byte	0x17
 2250 108d 1B01     		.2byte	0x11b
 2251 108f 93100000 		.4byte	0x1093
 2252 1093 0B       		.uleb128 0xb
 2253 1094 04       		.byte	0x4
 2254 1095 8F0F0000 		.4byte	0xf8f
 2255 1099 13       		.uleb128 0x13
 2256 109a 8A020000 		.4byte	.LASF240
 2257 109e 17       		.byte	0x17
 2258 109f DA01     		.2byte	0x1da
 2259 10a1 82100000 		.4byte	0x1082
 2260 10a5 1E       		.uleb128 0x1e
 2261 10a6 07       		.byte	0x7
 2262 10a7 01       		.byte	0x1
 2263 10a8 5E000000 		.4byte	0x5e
 2264 10ac 18       		.byte	0x18
 2265 10ad 4A       		.byte	0x4a
 2266 10ae C5100000 		.4byte	0x10c5
 2267 10b2 1F       		.uleb128 0x1f
 2268 10b3 25010000 		.4byte	.LASF241
 2269 10b7 00       		.byte	0
 2270 10b8 1F       		.uleb128 0x1f
 2271 10b9 B5090000 		.4byte	.LASF242
 2272 10bd 01       		.byte	0x1
 2273 10be 1F       		.uleb128 0x1f
 2274 10bf 3B0B0000 		.4byte	.LASF243
 2275 10c3 02       		.byte	0x2
 2276 10c4 00       		.byte	0
 2277 10c5 03       		.uleb128 0x3
 2278 10c6 1D0C0000 		.4byte	.LASF244
 2279 10ca 18       		.byte	0x18
 2280 10cb 4E       		.byte	0x4e
ARM GAS  /var/folders/qd/4mxf5pkd0zdf0b9dd1hp39180000gn/T//ccqDCcuM.s 			page 41


 2281 10cc A5100000 		.4byte	0x10a5
 2282 10d0 03       		.uleb128 0x3
 2283 10d1 B4080000 		.4byte	.LASF245
 2284 10d5 18       		.byte	0x18
 2285 10d6 53       		.byte	0x53
 2286 10d7 DB100000 		.4byte	0x10db
 2287 10db 0C       		.uleb128 0xc
 2288 10dc B4080000 		.4byte	.LASF245
 2289 10e0 1C       		.byte	0x1c
 2290 10e1 19       		.byte	0x19
 2291 10e2 7901     		.2byte	0x179
 2292 10e4 44110000 		.4byte	0x1144
 2293 10e8 0A       		.uleb128 0xa
 2294 10e9 E7000000 		.4byte	.LASF246
 2295 10ed 19       		.byte	0x19
 2296 10ee 7D01     		.2byte	0x17d
 2297 10f0 C5100000 		.4byte	0x10c5
 2298 10f4 00       		.byte	0
 2299 10f5 0A       		.uleb128 0xa
 2300 10f6 E0000000 		.4byte	.LASF247
 2301 10fa 19       		.byte	0x19
 2302 10fb 8101     		.2byte	0x181
 2303 10fd 3F120000 		.4byte	0x123f
 2304 1101 04       		.byte	0x4
 2305 1102 0A       		.uleb128 0xa
 2306 1103 3D0A0000 		.4byte	.LASF248
 2307 1107 19       		.byte	0x19
 2308 1108 8501     		.2byte	0x185
 2309 110a 8A110000 		.4byte	0x118a
 2310 110e 08       		.byte	0x8
 2311 110f 0A       		.uleb128 0xa
 2312 1110 EE040000 		.4byte	.LASF249
 2313 1114 19       		.byte	0x19
 2314 1115 8901     		.2byte	0x189
 2315 1117 7E110000 		.4byte	0x117e
 2316 111b 0C       		.byte	0xc
 2317 111c 0A       		.uleb128 0xa
 2318 111d 4F080000 		.4byte	.LASF250
 2319 1121 19       		.byte	0x19
 2320 1122 8D01     		.2byte	0x18d
 2321 1124 72110000 		.4byte	0x1172
 2322 1128 10       		.byte	0x10
 2323 1129 0A       		.uleb128 0xa
 2324 112a C7050000 		.4byte	.LASF251
 2325 112e 19       		.byte	0x19
 2326 112f 9501     		.2byte	0x195
 2327 1131 DF000000 		.4byte	0xdf
 2328 1135 14       		.byte	0x14
 2329 1136 09       		.uleb128 0x9
 2330 1137 74696D00 		.ascii	"tim\000"
 2331 113b 19       		.byte	0x19
 2332 113c 9901     		.2byte	0x199
 2333 113e 45120000 		.4byte	0x1245
 2334 1142 18       		.byte	0x18
 2335 1143 00       		.byte	0
 2336 1144 03       		.uleb128 0x3
 2337 1145 89080000 		.4byte	.LASF252
ARM GAS  /var/folders/qd/4mxf5pkd0zdf0b9dd1hp39180000gn/T//ccqDCcuM.s 			page 42


 2338 1149 18       		.byte	0x18
 2339 114a 5A       		.byte	0x5a
 2340 114b 4F110000 		.4byte	0x114f
 2341 114f 0B       		.uleb128 0xb
 2342 1150 04       		.byte	0x4
 2343 1151 55110000 		.4byte	0x1155
 2344 1155 0D       		.uleb128 0xd
 2345 1156 60110000 		.4byte	0x1160
 2346 115a 0E       		.uleb128 0xe
 2347 115b 60110000 		.4byte	0x1160
 2348 115f 00       		.byte	0
 2349 1160 0B       		.uleb128 0xb
 2350 1161 04       		.byte	0x4
 2351 1162 D0100000 		.4byte	0x10d0
 2352 1166 16       		.uleb128 0x16
 2353 1167 60040000 		.4byte	.LASF253
 2354 116b 19       		.byte	0x19
 2355 116c 2501     		.2byte	0x125
 2356 116e DF000000 		.4byte	0xdf
 2357 1172 16       		.uleb128 0x16
 2358 1173 5C020000 		.4byte	.LASF254
 2359 1177 19       		.byte	0x19
 2360 1178 2A01     		.2byte	0x12a
 2361 117a B4000000 		.4byte	0xb4
 2362 117e 16       		.uleb128 0x16
 2363 117f CB000000 		.4byte	.LASF255
 2364 1183 19       		.byte	0x19
 2365 1184 2F01     		.2byte	0x12f
 2366 1186 DF000000 		.4byte	0xdf
 2367 118a 16       		.uleb128 0x16
 2368 118b D9020000 		.4byte	.LASF256
 2369 118f 19       		.byte	0x19
 2370 1190 3401     		.2byte	0x134
 2371 1192 DF000000 		.4byte	0xdf
 2372 1196 15       		.uleb128 0x15
 2373 1197 08       		.byte	0x8
 2374 1198 19       		.byte	0x19
 2375 1199 3901     		.2byte	0x139
 2376 119b BA110000 		.4byte	0x11ba
 2377 119f 0A       		.uleb128 0xa
 2378 11a0 710B0000 		.4byte	.LASF257
 2379 11a4 19       		.byte	0x19
 2380 11a5 3D01     		.2byte	0x13d
 2381 11a7 66110000 		.4byte	0x1166
 2382 11ab 00       		.byte	0
 2383 11ac 0A       		.uleb128 0xa
 2384 11ad 30010000 		.4byte	.LASF258
 2385 11b1 19       		.byte	0x19
 2386 11b2 4301     		.2byte	0x143
 2387 11b4 44110000 		.4byte	0x1144
 2388 11b8 04       		.byte	0x4
 2389 11b9 00       		.byte	0
 2390 11ba 16       		.uleb128 0x16
 2391 11bb FF000000 		.4byte	.LASF259
 2392 11bf 19       		.byte	0x19
 2393 11c0 4501     		.2byte	0x145
 2394 11c2 96110000 		.4byte	0x1196
ARM GAS  /var/folders/qd/4mxf5pkd0zdf0b9dd1hp39180000gn/T//ccqDCcuM.s 			page 43


 2395 11c6 15       		.uleb128 0x15
 2396 11c7 34       		.byte	0x34
 2397 11c8 19       		.byte	0x19
 2398 11c9 4A01     		.2byte	0x14a
 2399 11cb 1E120000 		.4byte	0x121e
 2400 11cf 0A       		.uleb128 0xa
 2401 11d0 A2070000 		.4byte	.LASF260
 2402 11d4 19       		.byte	0x19
 2403 11d5 5001     		.2byte	0x150
 2404 11d7 DF000000 		.4byte	0xdf
 2405 11db 00       		.byte	0
 2406 11dc 0A       		.uleb128 0xa
 2407 11dd 3D0A0000 		.4byte	.LASF248
 2408 11e1 19       		.byte	0x19
 2409 11e2 5601     		.2byte	0x156
 2410 11e4 8A110000 		.4byte	0x118a
 2411 11e8 04       		.byte	0x4
 2412 11e9 0A       		.uleb128 0xa
 2413 11ea 30010000 		.4byte	.LASF258
 2414 11ee 19       		.byte	0x19
 2415 11ef 5C01     		.2byte	0x15c
 2416 11f1 44110000 		.4byte	0x1144
 2417 11f5 08       		.byte	0x8
 2418 11f6 0A       		.uleb128 0xa
 2419 11f7 4F080000 		.4byte	.LASF250
 2420 11fb 19       		.byte	0x19
 2421 11fc 6001     		.2byte	0x160
 2422 11fe 1E120000 		.4byte	0x121e
 2423 1202 0C       		.byte	0xc
 2424 1203 09       		.uleb128 0x9
 2425 1204 63723200 		.ascii	"cr2\000"
 2426 1208 19       		.byte	0x19
 2427 1209 6601     		.2byte	0x166
 2428 120b DF000000 		.4byte	0xdf
 2429 120f 2C       		.byte	0x2c
 2430 1210 0A       		.uleb128 0xa
 2431 1211 20010000 		.4byte	.LASF261
 2432 1215 19       		.byte	0x19
 2433 1216 7301     		.2byte	0x173
 2434 1218 DF000000 		.4byte	0xdf
 2435 121c 30       		.byte	0x30
 2436 121d 00       		.byte	0
 2437 121e 11       		.uleb128 0x11
 2438 121f BA110000 		.4byte	0x11ba
 2439 1223 2E120000 		.4byte	0x122e
 2440 1227 12       		.uleb128 0x12
 2441 1228 37000000 		.4byte	0x37
 2442 122c 03       		.byte	0x3
 2443 122d 00       		.byte	0
 2444 122e 16       		.uleb128 0x16
 2445 122f D40B0000 		.4byte	.LASF262
 2446 1233 19       		.byte	0x19
 2447 1234 7401     		.2byte	0x174
 2448 1236 C6110000 		.4byte	0x11c6
 2449 123a 05       		.uleb128 0x5
 2450 123b 2E120000 		.4byte	0x122e
 2451 123f 0B       		.uleb128 0xb
ARM GAS  /var/folders/qd/4mxf5pkd0zdf0b9dd1hp39180000gn/T//ccqDCcuM.s 			page 44


 2452 1240 04       		.byte	0x4
 2453 1241 3A120000 		.4byte	0x123a
 2454 1245 0B       		.uleb128 0xb
 2455 1246 04       		.byte	0x4
 2456 1247 CA090000 		.4byte	0x9ca
 2457 124b 13       		.uleb128 0x13
 2458 124c 0D0C0000 		.4byte	.LASF263
 2459 1250 19       		.byte	0x19
 2460 1251 C401     		.2byte	0x1c4
 2461 1253 D0100000 		.4byte	0x10d0
 2462 1257 1E       		.uleb128 0x1e
 2463 1258 07       		.byte	0x7
 2464 1259 01       		.byte	0x1
 2465 125a 5E000000 		.4byte	0x5e
 2466 125e 1A       		.byte	0x1a
 2467 125f 55       		.byte	0x55
 2468 1260 77120000 		.4byte	0x1277
 2469 1264 1F       		.uleb128 0x1f
 2470 1265 82030000 		.4byte	.LASF264
 2471 1269 00       		.byte	0
 2472 126a 1F       		.uleb128 0x1f
 2473 126b E60C0000 		.4byte	.LASF265
 2474 126f 01       		.byte	0x1
 2475 1270 1F       		.uleb128 0x1f
 2476 1271 EA0A0000 		.4byte	.LASF266
 2477 1275 02       		.byte	0x2
 2478 1276 00       		.byte	0
 2479 1277 03       		.uleb128 0x3
 2480 1278 D80A0000 		.4byte	.LASF267
 2481 127c 1A       		.byte	0x1a
 2482 127d 59       		.byte	0x59
 2483 127e 57120000 		.4byte	0x1257
 2484 1282 03       		.uleb128 0x3
 2485 1283 640A0000 		.4byte	.LASF268
 2486 1287 1A       		.byte	0x1a
 2487 1288 5E       		.byte	0x5e
 2488 1289 8D120000 		.4byte	0x128d
 2489 128d 07       		.uleb128 0x7
 2490 128e 640A0000 		.4byte	.LASF268
 2491 1292 78       		.byte	0x78
 2492 1293 1A       		.byte	0x1a
 2493 1294 78       		.byte	0x78
 2494 1295 F8120000 		.4byte	0x12f8
 2495 1299 17       		.uleb128 0x17
 2496 129a 766D7400 		.ascii	"vmt\000"
 2497 129e 1A       		.byte	0x1a
 2498 129f 7A       		.byte	0x7a
 2499 12a0 76130000 		.4byte	0x1376
 2500 12a4 00       		.byte	0
 2501 12a5 08       		.uleb128 0x8
 2502 12a6 C1050000 		.4byte	.LASF269
 2503 12aa 1A       		.byte	0x1a
 2504 12ab 7B       		.byte	0x7b
 2505 12ac 830C0000 		.4byte	0xc83
 2506 12b0 04       		.byte	0x4
 2507 12b1 08       		.uleb128 0x8
 2508 12b2 E7000000 		.4byte	.LASF246
ARM GAS  /var/folders/qd/4mxf5pkd0zdf0b9dd1hp39180000gn/T//ccqDCcuM.s 			page 45


 2509 12b6 1A       		.byte	0x1a
 2510 12b7 7B       		.byte	0x7b
 2511 12b8 77120000 		.4byte	0x1277
 2512 12bc 08       		.byte	0x8
 2513 12bd 08       		.uleb128 0x8
 2514 12be 7F0B0000 		.4byte	.LASF270
 2515 12c2 1A       		.byte	0x1a
 2516 12c3 7B       		.byte	0x7b
 2517 12c4 2E0D0000 		.4byte	0xd2e
 2518 12c8 0C       		.byte	0xc
 2519 12c9 08       		.uleb128 0x8
 2520 12ca 4C020000 		.4byte	.LASF271
 2521 12ce 1A       		.byte	0x1a
 2522 12cf 7B       		.byte	0x7b
 2523 12d0 390D0000 		.4byte	0xd39
 2524 12d4 30       		.byte	0x30
 2525 12d5 17       		.uleb128 0x17
 2526 12d6 696200   		.ascii	"ib\000"
 2527 12d9 1A       		.byte	0x1a
 2528 12da 7B       		.byte	0x7b
 2529 12db 7C130000 		.4byte	0x137c
 2530 12df 54       		.byte	0x54
 2531 12e0 17       		.uleb128 0x17
 2532 12e1 6F6200   		.ascii	"ob\000"
 2533 12e4 1A       		.byte	0x1a
 2534 12e5 7B       		.byte	0x7b
 2535 12e6 7C130000 		.4byte	0x137c
 2536 12ea 64       		.byte	0x64
 2537 12eb 08       		.uleb128 0x8
 2538 12ec 84020000 		.4byte	.LASF272
 2539 12f0 1A       		.byte	0x1a
 2540 12f1 7B       		.byte	0x7b
 2541 12f2 8C130000 		.4byte	0x138c
 2542 12f6 74       		.byte	0x74
 2543 12f7 00       		.byte	0
 2544 12f8 1B       		.uleb128 0x1b
 2545 12f9 53443200 		.ascii	"SD2\000"
 2546 12fd 1B       		.byte	0x1b
 2547 12fe 1201     		.2byte	0x112
 2548 1300 82120000 		.4byte	0x1282
 2549 1304 07       		.uleb128 0x7
 2550 1305 78070000 		.4byte	.LASF273
 2551 1309 20       		.byte	0x20
 2552 130a 1A       		.byte	0x1a
 2553 130b 6D       		.byte	0x6d
 2554 130c 71130000 		.4byte	0x1371
 2555 1310 08       		.uleb128 0x8
 2556 1311 C5000000 		.4byte	.LASF274
 2557 1315 1A       		.byte	0x1a
 2558 1316 6E       		.byte	0x6e
 2559 1317 630D0000 		.4byte	0xd63
 2560 131b 00       		.byte	0
 2561 131c 08       		.uleb128 0x8
 2562 131d F6070000 		.4byte	.LASF275
 2563 1321 1A       		.byte	0x1a
 2564 1322 6E       		.byte	0x6e
 2565 1323 820D0000 		.4byte	0xd82
ARM GAS  /var/folders/qd/4mxf5pkd0zdf0b9dd1hp39180000gn/T//ccqDCcuM.s 			page 46


 2566 1327 04       		.byte	0x4
 2567 1328 17       		.uleb128 0x17
 2568 1329 70757400 		.ascii	"put\000"
 2569 132d 1A       		.byte	0x1a
 2570 132e 6E       		.byte	0x6e
 2571 132f 9C0D0000 		.4byte	0xd9c
 2572 1333 08       		.byte	0x8
 2573 1334 17       		.uleb128 0x17
 2574 1335 67657400 		.ascii	"get\000"
 2575 1339 1A       		.byte	0x1a
 2576 133a 6E       		.byte	0x6e
 2577 133b B10D0000 		.4byte	0xdb1
 2578 133f 0C       		.byte	0xc
 2579 1340 08       		.uleb128 0x8
 2580 1341 F4000000 		.4byte	.LASF276
 2581 1345 1A       		.byte	0x1a
 2582 1346 6E       		.byte	0x6e
 2583 1347 520E0000 		.4byte	0xe52
 2584 134b 10       		.byte	0x10
 2585 134c 08       		.uleb128 0x8
 2586 134d 0D040000 		.4byte	.LASF277
 2587 1351 1A       		.byte	0x1a
 2588 1352 6E       		.byte	0x6e
 2589 1353 6C0E0000 		.4byte	0xe6c
 2590 1357 14       		.byte	0x14
 2591 1358 08       		.uleb128 0x8
 2592 1359 8C000000 		.4byte	.LASF278
 2593 135d 1A       		.byte	0x1a
 2594 135e 6E       		.byte	0x6e
 2595 135f 900E0000 		.4byte	0xe90
 2596 1363 18       		.byte	0x18
 2597 1364 08       		.uleb128 0x8
 2598 1365 A1010000 		.4byte	.LASF279
 2599 1369 1A       		.byte	0x1a
 2600 136a 6E       		.byte	0x6e
 2601 136b B40E0000 		.4byte	0xeb4
 2602 136f 1C       		.byte	0x1c
 2603 1370 00       		.byte	0
 2604 1371 05       		.uleb128 0x5
 2605 1372 04130000 		.4byte	0x1304
 2606 1376 0B       		.uleb128 0xb
 2607 1377 04       		.byte	0x4
 2608 1378 71130000 		.4byte	0x1371
 2609 137c 11       		.uleb128 0x11
 2610 137d B4000000 		.4byte	0xb4
 2611 1381 8C130000 		.4byte	0x138c
 2612 1385 12       		.uleb128 0x12
 2613 1386 37000000 		.4byte	0x37
 2614 138a 0F       		.byte	0xf
 2615 138b 00       		.byte	0
 2616 138c 0B       		.uleb128 0xb
 2617 138d 04       		.byte	0x4
 2618 138e 02080000 		.4byte	0x802
 2619 1392 1E       		.uleb128 0x1e
 2620 1393 07       		.byte	0x7
 2621 1394 01       		.byte	0x1
 2622 1395 5E000000 		.4byte	0x5e
ARM GAS  /var/folders/qd/4mxf5pkd0zdf0b9dd1hp39180000gn/T//ccqDCcuM.s 			page 47


 2623 1399 1C       		.byte	0x1c
 2624 139a 46       		.byte	0x46
 2625 139b BE130000 		.4byte	0x13be
 2626 139f 1F       		.uleb128 0x1f
 2627 13a0 D3010000 		.4byte	.LASF280
 2628 13a4 00       		.byte	0
 2629 13a5 1F       		.uleb128 0x1f
 2630 13a6 C1010000 		.4byte	.LASF281
 2631 13aa 01       		.byte	0x1
 2632 13ab 1F       		.uleb128 0x1f
 2633 13ac ED060000 		.4byte	.LASF282
 2634 13b0 02       		.byte	0x2
 2635 13b1 1F       		.uleb128 0x1f
 2636 13b2 21080000 		.4byte	.LASF283
 2637 13b6 03       		.byte	0x3
 2638 13b7 1F       		.uleb128 0x1f
 2639 13b8 5B0C0000 		.4byte	.LASF284
 2640 13bc 04       		.byte	0x4
 2641 13bd 00       		.byte	0
 2642 13be 03       		.uleb128 0x3
 2643 13bf BA0C0000 		.4byte	.LASF285
 2644 13c3 1C       		.byte	0x1c
 2645 13c4 4C       		.byte	0x4c
 2646 13c5 92130000 		.4byte	0x1392
 2647 13c9 16       		.uleb128 0x16
 2648 13ca DC030000 		.4byte	.LASF286
 2649 13ce 1D       		.byte	0x1d
 2650 13cf 9601     		.2byte	0x196
 2651 13d1 D5130000 		.4byte	0x13d5
 2652 13d5 0C       		.uleb128 0xc
 2653 13d6 DC030000 		.4byte	.LASF286
 2654 13da 30       		.byte	0x30
 2655 13db 1D       		.byte	0x1d
 2656 13dc BA01     		.2byte	0x1ba
 2657 13de 58140000 		.4byte	0x1458
 2658 13e2 0A       		.uleb128 0xa
 2659 13e3 E7000000 		.4byte	.LASF246
 2660 13e7 1D       		.byte	0x1d
 2661 13e8 BE01     		.2byte	0x1be
 2662 13ea BE130000 		.4byte	0x13be
 2663 13ee 00       		.byte	0
 2664 13ef 0A       		.uleb128 0xa
 2665 13f0 E0000000 		.4byte	.LASF247
 2666 13f4 1D       		.byte	0x1d
 2667 13f5 C201     		.2byte	0x1c2
 2668 13f7 CA140000 		.4byte	0x14ca
 2669 13fb 04       		.byte	0x4
 2670 13fc 0A       		.uleb128 0xa
 2671 13fd 1D0B0000 		.4byte	.LASF287
 2672 1401 1D       		.byte	0x1d
 2673 1402 C701     		.2byte	0x1c7
 2674 1404 60020000 		.4byte	0x260
 2675 1408 08       		.byte	0x8
 2676 1409 0A       		.uleb128 0xa
 2677 140a 88070000 		.4byte	.LASF288
 2678 140e 1D       		.byte	0x1d
 2679 140f CD01     		.2byte	0x1cd
ARM GAS  /var/folders/qd/4mxf5pkd0zdf0b9dd1hp39180000gn/T//ccqDCcuM.s 			page 48


 2680 1411 FF0B0000 		.4byte	0xbff
 2681 1415 0C       		.byte	0xc
 2682 1416 09       		.uleb128 0x9
 2683 1417 73706900 		.ascii	"spi\000"
 2684 141b 1D       		.byte	0x1d
 2685 141c D601     		.2byte	0x1d6
 2686 141e D0140000 		.4byte	0x14d0
 2687 1422 1C       		.byte	0x1c
 2688 1423 0A       		.uleb128 0xa
 2689 1424 DC060000 		.4byte	.LASF289
 2690 1428 1D       		.byte	0x1d
 2691 1429 DA01     		.2byte	0x1da
 2692 142b D6140000 		.4byte	0x14d6
 2693 142f 20       		.byte	0x20
 2694 1430 0A       		.uleb128 0xa
 2695 1431 E2070000 		.4byte	.LASF290
 2696 1435 1D       		.byte	0x1d
 2697 1436 DE01     		.2byte	0x1de
 2698 1438 D6140000 		.4byte	0x14d6
 2699 143c 24       		.byte	0x24
 2700 143d 0A       		.uleb128 0xa
 2701 143e B3070000 		.4byte	.LASF291
 2702 1442 1D       		.byte	0x1d
 2703 1443 E201     		.2byte	0x1e2
 2704 1445 DF000000 		.4byte	0xdf
 2705 1449 28       		.byte	0x28
 2706 144a 0A       		.uleb128 0xa
 2707 144b 0C0D0000 		.4byte	.LASF292
 2708 144f 1D       		.byte	0x1d
 2709 1450 E601     		.2byte	0x1e6
 2710 1452 DF000000 		.4byte	0xdf
 2711 1456 2C       		.byte	0x2c
 2712 1457 00       		.byte	0
 2713 1458 16       		.uleb128 0x16
 2714 1459 4C030000 		.4byte	.LASF293
 2715 145d 1D       		.byte	0x1d
 2716 145e 9E01     		.2byte	0x19e
 2717 1460 64140000 		.4byte	0x1464
 2718 1464 0B       		.uleb128 0xb
 2719 1465 04       		.byte	0x4
 2720 1466 6A140000 		.4byte	0x146a
 2721 146a 0D       		.uleb128 0xd
 2722 146b 75140000 		.4byte	0x1475
 2723 146f 0E       		.uleb128 0xe
 2724 1470 75140000 		.4byte	0x1475
 2725 1474 00       		.byte	0
 2726 1475 0B       		.uleb128 0xb
 2727 1476 04       		.byte	0x4
 2728 1477 C9130000 		.4byte	0x13c9
 2729 147b 15       		.uleb128 0x15
 2730 147c 0C       		.byte	0xc
 2731 147d 1D       		.byte	0x1d
 2732 147e A301     		.2byte	0x1a3
 2733 1480 B9140000 		.4byte	0x14b9
 2734 1484 0A       		.uleb128 0xa
 2735 1485 5B010000 		.4byte	.LASF294
 2736 1489 1D       		.byte	0x1d
ARM GAS  /var/folders/qd/4mxf5pkd0zdf0b9dd1hp39180000gn/T//ccqDCcuM.s 			page 49


 2737 148a A701     		.2byte	0x1a7
 2738 148c 58140000 		.4byte	0x1458
 2739 1490 00       		.byte	0
 2740 1491 0A       		.uleb128 0xa
 2741 1492 BE000000 		.4byte	.LASF295
 2742 1496 1D       		.byte	0x1d
 2743 1497 AC01     		.2byte	0x1ac
 2744 1499 87100000 		.4byte	0x1087
 2745 149d 04       		.byte	0x4
 2746 149e 0A       		.uleb128 0xa
 2747 149f F80C0000 		.4byte	.LASF296
 2748 14a3 1D       		.byte	0x1d
 2749 14a4 B001     		.2byte	0x1b0
 2750 14a6 C4000000 		.4byte	0xc4
 2751 14aa 08       		.byte	0x8
 2752 14ab 09       		.uleb128 0x9
 2753 14ac 63723100 		.ascii	"cr1\000"
 2754 14b0 1D       		.byte	0x1d
 2755 14b1 B401     		.2byte	0x1b4
 2756 14b3 C4000000 		.4byte	0xc4
 2757 14b7 0A       		.byte	0xa
 2758 14b8 00       		.byte	0
 2759 14b9 16       		.uleb128 0x16
 2760 14ba 17080000 		.4byte	.LASF297
 2761 14be 1D       		.byte	0x1d
 2762 14bf B501     		.2byte	0x1b5
 2763 14c1 7B140000 		.4byte	0x147b
 2764 14c5 05       		.uleb128 0x5
 2765 14c6 B9140000 		.4byte	0x14b9
 2766 14ca 0B       		.uleb128 0xb
 2767 14cb 04       		.byte	0x4
 2768 14cc C5140000 		.4byte	0x14c5
 2769 14d0 0B       		.uleb128 0xb
 2770 14d1 04       		.byte	0x4
 2771 14d2 93070000 		.4byte	0x793
 2772 14d6 0B       		.uleb128 0xb
 2773 14d7 04       		.byte	0x4
 2774 14d8 130E0000 		.4byte	0xe13
 2775 14dc 13       		.uleb128 0x13
 2776 14dd F9000000 		.4byte	.LASF298
 2777 14e1 1D       		.byte	0x1d
 2778 14e2 F201     		.2byte	0x1f2
 2779 14e4 C9130000 		.4byte	0x13c9
 2780 14e8 13       		.uleb128 0x13
 2781 14e9 70040000 		.4byte	.LASF299
 2782 14ed 1D       		.byte	0x1d
 2783 14ee F601     		.2byte	0x1f6
 2784 14f0 C9130000 		.4byte	0x13c9
 2785 14f4 20       		.uleb128 0x20
 2786 14f5 AE030000 		.4byte	.LASF300
 2787 14f9 01       		.byte	0x1
 2788 14fa C9       		.byte	0xc9
 2789 14fb 00000000 		.4byte	.LFB261
 2790 14ff 48000000 		.4byte	.LFE261-.LFB261
 2791 1503 01       		.uleb128 0x1
 2792 1504 9C       		.byte	0x9c
 2793 1505 1E150000 		.4byte	0x151e
ARM GAS  /var/folders/qd/4mxf5pkd0zdf0b9dd1hp39180000gn/T//ccqDCcuM.s 			page 50


 2794 1509 21       		.uleb128 0x21
 2795 150a 40000000 		.4byte	.LVL6
 2796 150e 90160000 		.4byte	0x1690
 2797 1512 22       		.uleb128 0x22
 2798 1513 01       		.uleb128 0x1
 2799 1514 50       		.byte	0x50
 2800 1515 01       		.uleb128 0x1
 2801 1516 4C       		.byte	0x4c
 2802 1517 22       		.uleb128 0x22
 2803 1518 01       		.uleb128 0x1
 2804 1519 51       		.byte	0x51
 2805 151a 01       		.uleb128 0x1
 2806 151b 38       		.byte	0x38
 2807 151c 00       		.byte	0
 2808 151d 00       		.byte	0
 2809 151e 20       		.uleb128 0x20
 2810 151f 8D0B0000 		.4byte	.LASF301
 2811 1523 01       		.byte	0x1
 2812 1524 AD       		.byte	0xad
 2813 1525 00000000 		.4byte	.LFB260
 2814 1529 2A000000 		.4byte	.LFE260-.LFB260
 2815 152d 01       		.uleb128 0x1
 2816 152e 9C       		.byte	0x9c
 2817 152f 25160000 		.4byte	0x1625
 2818 1533 23       		.uleb128 0x23
 2819 1534 37160000 		.4byte	0x1637
 2820 1538 14000000 		.4byte	.LBB52
 2821 153c 06000000 		.4byte	.LBE52-.LBB52
 2822 1540 01       		.byte	0x1
 2823 1541 B7       		.byte	0xb7
 2824 1542 94150000 		.4byte	0x1594
 2825 1546 24       		.uleb128 0x24
 2826 1547 49160000 		.4byte	0x1649
 2827 154b 14000000 		.4byte	.LBB53
 2828 154f 06000000 		.4byte	.LBE53-.LBB53
 2829 1553 03       		.byte	0x3
 2830 1554 D501     		.2byte	0x1d5
 2831 1556 24       		.uleb128 0x24
 2832 1557 5B160000 		.4byte	0x165b
 2833 155b 14000000 		.4byte	.LBB54
 2834 155f 06000000 		.4byte	.LBE54-.LBB54
 2835 1563 1E       		.byte	0x1e
 2836 1564 8401     		.2byte	0x184
 2837 1566 24       		.uleb128 0x24
 2838 1567 6D160000 		.4byte	0x166d
 2839 156b 14000000 		.4byte	.LBB55
 2840 156f 06000000 		.4byte	.LBE55-.LBB55
 2841 1573 0E       		.byte	0xe
 2842 1574 DB01     		.2byte	0x1db
 2843 1576 24       		.uleb128 0x24
 2844 1577 76160000 		.4byte	0x1676
 2845 157b 14000000 		.4byte	.LBB56
 2846 157f 06000000 		.4byte	.LBE56-.LBB56
 2847 1583 0E       		.byte	0xe
 2848 1584 BF01     		.2byte	0x1bf
 2849 1586 25       		.uleb128 0x25
 2850 1587 83160000 		.4byte	0x1683
ARM GAS  /var/folders/qd/4mxf5pkd0zdf0b9dd1hp39180000gn/T//ccqDCcuM.s 			page 51


 2851 158b 00000000 		.4byte	.LLST0
 2852 158f 00       		.byte	0
 2853 1590 00       		.byte	0
 2854 1591 00       		.byte	0
 2855 1592 00       		.byte	0
 2856 1593 00       		.byte	0
 2857 1594 23       		.uleb128 0x23
 2858 1595 25160000 		.4byte	0x1625
 2859 1599 1A000000 		.4byte	.LBB58
 2860 159d 04000000 		.4byte	.LBE58-.LBB58
 2861 15a1 01       		.byte	0x1
 2862 15a2 B8       		.byte	0xb8
 2863 15a3 B1150000 		.4byte	0x15b1
 2864 15a7 26       		.uleb128 0x26
 2865 15a8 1E000000 		.4byte	.LVL3
 2866 15ac 9B160000 		.4byte	0x169b
 2867 15b0 00       		.byte	0
 2868 15b1 23       		.uleb128 0x23
 2869 15b2 2E160000 		.4byte	0x162e
 2870 15b6 1E000000 		.4byte	.LBB60
 2871 15ba 04000000 		.4byte	.LBE60-.LBB60
 2872 15be 01       		.byte	0x1
 2873 15bf B9       		.byte	0xb9
 2874 15c0 12160000 		.4byte	0x1612
 2875 15c4 24       		.uleb128 0x24
 2876 15c5 40160000 		.4byte	0x1640
 2877 15c9 1E000000 		.4byte	.LBB61
 2878 15cd 04000000 		.4byte	.LBE61-.LBB61
 2879 15d1 03       		.byte	0x3
 2880 15d2 E001     		.2byte	0x1e0
 2881 15d4 24       		.uleb128 0x24
 2882 15d5 52160000 		.4byte	0x1652
 2883 15d9 1E000000 		.4byte	.LBB62
 2884 15dd 04000000 		.4byte	.LBE62-.LBB62
 2885 15e1 1E       		.byte	0x1e
 2886 15e2 9A01     		.2byte	0x19a
 2887 15e4 24       		.uleb128 0x24
 2888 15e5 64160000 		.4byte	0x1664
 2889 15e9 1E000000 		.4byte	.LBB63
 2890 15ed 04000000 		.4byte	.LBE63-.LBB63
 2891 15f1 0E       		.byte	0xe
 2892 15f2 E601     		.2byte	0x1e6
 2893 15f4 24       		.uleb128 0x24
 2894 15f5 76160000 		.4byte	0x1676
 2895 15f9 1E000000 		.4byte	.LBB64
 2896 15fd 04000000 		.4byte	.LBE64-.LBB64
 2897 1601 0E       		.byte	0xe
 2898 1602 CD01     		.2byte	0x1cd
 2899 1604 25       		.uleb128 0x25
 2900 1605 83160000 		.4byte	0x1683
 2901 1609 15000000 		.4byte	.LLST1
 2902 160d 00       		.byte	0
 2903 160e 00       		.byte	0
 2904 160f 00       		.byte	0
 2905 1610 00       		.byte	0
 2906 1611 00       		.byte	0
 2907 1612 27       		.uleb128 0x27
ARM GAS  /var/folders/qd/4mxf5pkd0zdf0b9dd1hp39180000gn/T//ccqDCcuM.s 			page 52


 2908 1613 0E000000 		.4byte	.LVL0
 2909 1617 A7160000 		.4byte	0x16a7
 2910 161b 27       		.uleb128 0x27
 2911 161c 2A000000 		.4byte	.LVL5
 2912 1620 A7160000 		.4byte	0x16a7
 2913 1624 00       		.byte	0
 2914 1625 28       		.uleb128 0x28
 2915 1626 6B080000 		.4byte	.LASF302
 2916 162a 03       		.byte	0x3
 2917 162b 1902     		.2byte	0x219
 2918 162d 03       		.byte	0x3
 2919 162e 28       		.uleb128 0x28
 2920 162f C7040000 		.4byte	.LASF303
 2921 1633 03       		.byte	0x3
 2922 1634 DE01     		.2byte	0x1de
 2923 1636 03       		.byte	0x3
 2924 1637 28       		.uleb128 0x28
 2925 1638 56070000 		.4byte	.LASF304
 2926 163c 03       		.byte	0x3
 2927 163d D301     		.2byte	0x1d3
 2928 163f 03       		.byte	0x3
 2929 1640 28       		.uleb128 0x28
 2930 1641 E2020000 		.4byte	.LASF305
 2931 1645 1E       		.byte	0x1e
 2932 1646 9601     		.2byte	0x196
 2933 1648 03       		.byte	0x3
 2934 1649 28       		.uleb128 0x28
 2935 164a 0D020000 		.4byte	.LASF306
 2936 164e 1E       		.byte	0x1e
 2937 164f 8201     		.2byte	0x182
 2938 1651 03       		.byte	0x3
 2939 1652 28       		.uleb128 0x28
 2940 1653 4E090000 		.4byte	.LASF307
 2941 1657 0E       		.byte	0xe
 2942 1658 E401     		.2byte	0x1e4
 2943 165a 03       		.byte	0x3
 2944 165b 28       		.uleb128 0x28
 2945 165c 18070000 		.4byte	.LASF308
 2946 1660 0E       		.byte	0xe
 2947 1661 D901     		.2byte	0x1d9
 2948 1663 03       		.byte	0x3
 2949 1664 28       		.uleb128 0x28
 2950 1665 E5010000 		.4byte	.LASF309
 2951 1669 0E       		.byte	0xe
 2952 166a CA01     		.2byte	0x1ca
 2953 166c 03       		.byte	0x3
 2954 166d 28       		.uleb128 0x28
 2955 166e 290B0000 		.4byte	.LASF310
 2956 1672 0E       		.byte	0xe
 2957 1673 BC01     		.2byte	0x1bc
 2958 1675 03       		.byte	0x3
 2959 1676 29       		.uleb128 0x29
 2960 1677 4E0A0000 		.4byte	.LASF317
 2961 167b 02       		.byte	0x2
 2962 167c 2002     		.2byte	0x220
 2963 167e 03       		.byte	0x3
 2964 167f 90160000 		.4byte	0x1690
ARM GAS  /var/folders/qd/4mxf5pkd0zdf0b9dd1hp39180000gn/T//ccqDCcuM.s 			page 53


 2965 1683 2A       		.uleb128 0x2a
 2966 1684 0C0A0000 		.4byte	.LASF318
 2967 1688 02       		.byte	0x2
 2968 1689 2002     		.2byte	0x220
 2969 168b DF000000 		.4byte	0xdf
 2970 168f 00       		.byte	0
 2971 1690 2B       		.uleb128 0x2b
 2972 1691 2D0C0000 		.4byte	.LASF311
 2973 1695 2D0C0000 		.4byte	.LASF311
 2974 1699 1F       		.byte	0x1f
 2975 169a 4E       		.byte	0x4e
 2976 169b 2C       		.uleb128 0x2c
 2977 169c 3C080000 		.4byte	.LASF312
 2978 16a0 3C080000 		.4byte	.LASF312
 2979 16a4 1E       		.byte	0x1e
 2980 16a5 1801     		.2byte	0x118
 2981 16a7 2C       		.uleb128 0x2c
 2982 16a8 A1080000 		.4byte	.LASF313
 2983 16ac A1080000 		.4byte	.LASF313
 2984 16b0 0E       		.byte	0xe
 2985 16b1 6601     		.2byte	0x166
 2986 16b3 00       		.byte	0
 2987              		.section	.debug_abbrev,"",%progbits
 2988              	.Ldebug_abbrev0:
 2989 0000 01       		.uleb128 0x1
 2990 0001 11       		.uleb128 0x11
 2991 0002 01       		.byte	0x1
 2992 0003 25       		.uleb128 0x25
 2993 0004 0E       		.uleb128 0xe
 2994 0005 13       		.uleb128 0x13
 2995 0006 0B       		.uleb128 0xb
 2996 0007 03       		.uleb128 0x3
 2997 0008 0E       		.uleb128 0xe
 2998 0009 1B       		.uleb128 0x1b
 2999 000a 0E       		.uleb128 0xe
 3000 000b 55       		.uleb128 0x55
 3001 000c 17       		.uleb128 0x17
 3002 000d 11       		.uleb128 0x11
 3003 000e 01       		.uleb128 0x1
 3004 000f 10       		.uleb128 0x10
 3005 0010 17       		.uleb128 0x17
 3006 0011 00       		.byte	0
 3007 0012 00       		.byte	0
 3008 0013 02       		.uleb128 0x2
 3009 0014 24       		.uleb128 0x24
 3010 0015 00       		.byte	0
 3011 0016 0B       		.uleb128 0xb
 3012 0017 0B       		.uleb128 0xb
 3013 0018 3E       		.uleb128 0x3e
 3014 0019 0B       		.uleb128 0xb
 3015 001a 03       		.uleb128 0x3
 3016 001b 08       		.uleb128 0x8
 3017 001c 00       		.byte	0
 3018 001d 00       		.byte	0
 3019 001e 03       		.uleb128 0x3
 3020 001f 16       		.uleb128 0x16
 3021 0020 00       		.byte	0
ARM GAS  /var/folders/qd/4mxf5pkd0zdf0b9dd1hp39180000gn/T//ccqDCcuM.s 			page 54


 3022 0021 03       		.uleb128 0x3
 3023 0022 0E       		.uleb128 0xe
 3024 0023 3A       		.uleb128 0x3a
 3025 0024 0B       		.uleb128 0xb
 3026 0025 3B       		.uleb128 0x3b
 3027 0026 0B       		.uleb128 0xb
 3028 0027 49       		.uleb128 0x49
 3029 0028 13       		.uleb128 0x13
 3030 0029 00       		.byte	0
 3031 002a 00       		.byte	0
 3032 002b 04       		.uleb128 0x4
 3033 002c 24       		.uleb128 0x24
 3034 002d 00       		.byte	0
 3035 002e 0B       		.uleb128 0xb
 3036 002f 0B       		.uleb128 0xb
 3037 0030 3E       		.uleb128 0x3e
 3038 0031 0B       		.uleb128 0xb
 3039 0032 03       		.uleb128 0x3
 3040 0033 0E       		.uleb128 0xe
 3041 0034 00       		.byte	0
 3042 0035 00       		.byte	0
 3043 0036 05       		.uleb128 0x5
 3044 0037 26       		.uleb128 0x26
 3045 0038 00       		.byte	0
 3046 0039 49       		.uleb128 0x49
 3047 003a 13       		.uleb128 0x13
 3048 003b 00       		.byte	0
 3049 003c 00       		.byte	0
 3050 003d 06       		.uleb128 0x6
 3051 003e 35       		.uleb128 0x35
 3052 003f 00       		.byte	0
 3053 0040 49       		.uleb128 0x49
 3054 0041 13       		.uleb128 0x13
 3055 0042 00       		.byte	0
 3056 0043 00       		.byte	0
 3057 0044 07       		.uleb128 0x7
 3058 0045 13       		.uleb128 0x13
 3059 0046 01       		.byte	0x1
 3060 0047 03       		.uleb128 0x3
 3061 0048 0E       		.uleb128 0xe
 3062 0049 0B       		.uleb128 0xb
 3063 004a 0B       		.uleb128 0xb
 3064 004b 3A       		.uleb128 0x3a
 3065 004c 0B       		.uleb128 0xb
 3066 004d 3B       		.uleb128 0x3b
 3067 004e 0B       		.uleb128 0xb
 3068 004f 01       		.uleb128 0x1
 3069 0050 13       		.uleb128 0x13
 3070 0051 00       		.byte	0
 3071 0052 00       		.byte	0
 3072 0053 08       		.uleb128 0x8
 3073 0054 0D       		.uleb128 0xd
 3074 0055 00       		.byte	0
 3075 0056 03       		.uleb128 0x3
 3076 0057 0E       		.uleb128 0xe
 3077 0058 3A       		.uleb128 0x3a
 3078 0059 0B       		.uleb128 0xb
ARM GAS  /var/folders/qd/4mxf5pkd0zdf0b9dd1hp39180000gn/T//ccqDCcuM.s 			page 55


 3079 005a 3B       		.uleb128 0x3b
 3080 005b 0B       		.uleb128 0xb
 3081 005c 49       		.uleb128 0x49
 3082 005d 13       		.uleb128 0x13
 3083 005e 38       		.uleb128 0x38
 3084 005f 0B       		.uleb128 0xb
 3085 0060 00       		.byte	0
 3086 0061 00       		.byte	0
 3087 0062 09       		.uleb128 0x9
 3088 0063 0D       		.uleb128 0xd
 3089 0064 00       		.byte	0
 3090 0065 03       		.uleb128 0x3
 3091 0066 08       		.uleb128 0x8
 3092 0067 3A       		.uleb128 0x3a
 3093 0068 0B       		.uleb128 0xb
 3094 0069 3B       		.uleb128 0x3b
 3095 006a 05       		.uleb128 0x5
 3096 006b 49       		.uleb128 0x49
 3097 006c 13       		.uleb128 0x13
 3098 006d 38       		.uleb128 0x38
 3099 006e 0B       		.uleb128 0xb
 3100 006f 00       		.byte	0
 3101 0070 00       		.byte	0
 3102 0071 0A       		.uleb128 0xa
 3103 0072 0D       		.uleb128 0xd
 3104 0073 00       		.byte	0
 3105 0074 03       		.uleb128 0x3
 3106 0075 0E       		.uleb128 0xe
 3107 0076 3A       		.uleb128 0x3a
 3108 0077 0B       		.uleb128 0xb
 3109 0078 3B       		.uleb128 0x3b
 3110 0079 05       		.uleb128 0x5
 3111 007a 49       		.uleb128 0x49
 3112 007b 13       		.uleb128 0x13
 3113 007c 38       		.uleb128 0x38
 3114 007d 0B       		.uleb128 0xb
 3115 007e 00       		.byte	0
 3116 007f 00       		.byte	0
 3117 0080 0B       		.uleb128 0xb
 3118 0081 0F       		.uleb128 0xf
 3119 0082 00       		.byte	0
 3120 0083 0B       		.uleb128 0xb
 3121 0084 0B       		.uleb128 0xb
 3122 0085 49       		.uleb128 0x49
 3123 0086 13       		.uleb128 0x13
 3124 0087 00       		.byte	0
 3125 0088 00       		.byte	0
 3126 0089 0C       		.uleb128 0xc
 3127 008a 13       		.uleb128 0x13
 3128 008b 01       		.byte	0x1
 3129 008c 03       		.uleb128 0x3
 3130 008d 0E       		.uleb128 0xe
 3131 008e 0B       		.uleb128 0xb
 3132 008f 0B       		.uleb128 0xb
 3133 0090 3A       		.uleb128 0x3a
 3134 0091 0B       		.uleb128 0xb
 3135 0092 3B       		.uleb128 0x3b
ARM GAS  /var/folders/qd/4mxf5pkd0zdf0b9dd1hp39180000gn/T//ccqDCcuM.s 			page 56


 3136 0093 05       		.uleb128 0x5
 3137 0094 01       		.uleb128 0x1
 3138 0095 13       		.uleb128 0x13
 3139 0096 00       		.byte	0
 3140 0097 00       		.byte	0
 3141 0098 0D       		.uleb128 0xd
 3142 0099 15       		.uleb128 0x15
 3143 009a 01       		.byte	0x1
 3144 009b 27       		.uleb128 0x27
 3145 009c 19       		.uleb128 0x19
 3146 009d 01       		.uleb128 0x1
 3147 009e 13       		.uleb128 0x13
 3148 009f 00       		.byte	0
 3149 00a0 00       		.byte	0
 3150 00a1 0E       		.uleb128 0xe
 3151 00a2 05       		.uleb128 0x5
 3152 00a3 00       		.byte	0
 3153 00a4 49       		.uleb128 0x49
 3154 00a5 13       		.uleb128 0x13
 3155 00a6 00       		.byte	0
 3156 00a7 00       		.byte	0
 3157 00a8 0F       		.uleb128 0xf
 3158 00a9 0F       		.uleb128 0xf
 3159 00aa 00       		.byte	0
 3160 00ab 0B       		.uleb128 0xb
 3161 00ac 0B       		.uleb128 0xb
 3162 00ad 00       		.byte	0
 3163 00ae 00       		.byte	0
 3164 00af 10       		.uleb128 0x10
 3165 00b0 13       		.uleb128 0x13
 3166 00b1 01       		.byte	0x1
 3167 00b2 03       		.uleb128 0x3
 3168 00b3 0E       		.uleb128 0xe
 3169 00b4 0B       		.uleb128 0xb
 3170 00b5 05       		.uleb128 0x5
 3171 00b6 3A       		.uleb128 0x3a
 3172 00b7 0B       		.uleb128 0xb
 3173 00b8 3B       		.uleb128 0x3b
 3174 00b9 05       		.uleb128 0x5
 3175 00ba 01       		.uleb128 0x1
 3176 00bb 13       		.uleb128 0x13
 3177 00bc 00       		.byte	0
 3178 00bd 00       		.byte	0
 3179 00be 11       		.uleb128 0x11
 3180 00bf 01       		.uleb128 0x1
 3181 00c0 01       		.byte	0x1
 3182 00c1 49       		.uleb128 0x49
 3183 00c2 13       		.uleb128 0x13
 3184 00c3 01       		.uleb128 0x1
 3185 00c4 13       		.uleb128 0x13
 3186 00c5 00       		.byte	0
 3187 00c6 00       		.byte	0
 3188 00c7 12       		.uleb128 0x12
 3189 00c8 21       		.uleb128 0x21
 3190 00c9 00       		.byte	0
 3191 00ca 49       		.uleb128 0x49
 3192 00cb 13       		.uleb128 0x13
ARM GAS  /var/folders/qd/4mxf5pkd0zdf0b9dd1hp39180000gn/T//ccqDCcuM.s 			page 57


 3193 00cc 2F       		.uleb128 0x2f
 3194 00cd 0B       		.uleb128 0xb
 3195 00ce 00       		.byte	0
 3196 00cf 00       		.byte	0
 3197 00d0 13       		.uleb128 0x13
 3198 00d1 34       		.uleb128 0x34
 3199 00d2 00       		.byte	0
 3200 00d3 03       		.uleb128 0x3
 3201 00d4 0E       		.uleb128 0xe
 3202 00d5 3A       		.uleb128 0x3a
 3203 00d6 0B       		.uleb128 0xb
 3204 00d7 3B       		.uleb128 0x3b
 3205 00d8 05       		.uleb128 0x5
 3206 00d9 49       		.uleb128 0x49
 3207 00da 13       		.uleb128 0x13
 3208 00db 3F       		.uleb128 0x3f
 3209 00dc 19       		.uleb128 0x19
 3210 00dd 3C       		.uleb128 0x3c
 3211 00de 19       		.uleb128 0x19
 3212 00df 00       		.byte	0
 3213 00e0 00       		.byte	0
 3214 00e1 14       		.uleb128 0x14
 3215 00e2 34       		.uleb128 0x34
 3216 00e3 00       		.byte	0
 3217 00e4 03       		.uleb128 0x3
 3218 00e5 0E       		.uleb128 0xe
 3219 00e6 3A       		.uleb128 0x3a
 3220 00e7 0B       		.uleb128 0xb
 3221 00e8 3B       		.uleb128 0x3b
 3222 00e9 0B       		.uleb128 0xb
 3223 00ea 49       		.uleb128 0x49
 3224 00eb 13       		.uleb128 0x13
 3225 00ec 3F       		.uleb128 0x3f
 3226 00ed 19       		.uleb128 0x19
 3227 00ee 3C       		.uleb128 0x3c
 3228 00ef 19       		.uleb128 0x19
 3229 00f0 00       		.byte	0
 3230 00f1 00       		.byte	0
 3231 00f2 15       		.uleb128 0x15
 3232 00f3 13       		.uleb128 0x13
 3233 00f4 01       		.byte	0x1
 3234 00f5 0B       		.uleb128 0xb
 3235 00f6 0B       		.uleb128 0xb
 3236 00f7 3A       		.uleb128 0x3a
 3237 00f8 0B       		.uleb128 0xb
 3238 00f9 3B       		.uleb128 0x3b
 3239 00fa 05       		.uleb128 0x5
 3240 00fb 01       		.uleb128 0x1
 3241 00fc 13       		.uleb128 0x13
 3242 00fd 00       		.byte	0
 3243 00fe 00       		.byte	0
 3244 00ff 16       		.uleb128 0x16
 3245 0100 16       		.uleb128 0x16
 3246 0101 00       		.byte	0
 3247 0102 03       		.uleb128 0x3
 3248 0103 0E       		.uleb128 0xe
 3249 0104 3A       		.uleb128 0x3a
ARM GAS  /var/folders/qd/4mxf5pkd0zdf0b9dd1hp39180000gn/T//ccqDCcuM.s 			page 58


 3250 0105 0B       		.uleb128 0xb
 3251 0106 3B       		.uleb128 0x3b
 3252 0107 05       		.uleb128 0x5
 3253 0108 49       		.uleb128 0x49
 3254 0109 13       		.uleb128 0x13
 3255 010a 00       		.byte	0
 3256 010b 00       		.byte	0
 3257 010c 17       		.uleb128 0x17
 3258 010d 0D       		.uleb128 0xd
 3259 010e 00       		.byte	0
 3260 010f 03       		.uleb128 0x3
 3261 0110 08       		.uleb128 0x8
 3262 0111 3A       		.uleb128 0x3a
 3263 0112 0B       		.uleb128 0xb
 3264 0113 3B       		.uleb128 0x3b
 3265 0114 0B       		.uleb128 0xb
 3266 0115 49       		.uleb128 0x49
 3267 0116 13       		.uleb128 0x13
 3268 0117 38       		.uleb128 0x38
 3269 0118 0B       		.uleb128 0xb
 3270 0119 00       		.byte	0
 3271 011a 00       		.byte	0
 3272 011b 18       		.uleb128 0x18
 3273 011c 13       		.uleb128 0x13
 3274 011d 01       		.byte	0x1
 3275 011e 0B       		.uleb128 0xb
 3276 011f 0B       		.uleb128 0xb
 3277 0120 3A       		.uleb128 0x3a
 3278 0121 0B       		.uleb128 0xb
 3279 0122 3B       		.uleb128 0x3b
 3280 0123 0B       		.uleb128 0xb
 3281 0124 01       		.uleb128 0x1
 3282 0125 13       		.uleb128 0x13
 3283 0126 00       		.byte	0
 3284 0127 00       		.byte	0
 3285 0128 19       		.uleb128 0x19
 3286 0129 17       		.uleb128 0x17
 3287 012a 01       		.byte	0x1
 3288 012b 0B       		.uleb128 0xb
 3289 012c 0B       		.uleb128 0xb
 3290 012d 3A       		.uleb128 0x3a
 3291 012e 0B       		.uleb128 0xb
 3292 012f 3B       		.uleb128 0x3b
 3293 0130 0B       		.uleb128 0xb
 3294 0131 01       		.uleb128 0x1
 3295 0132 13       		.uleb128 0x13
 3296 0133 00       		.byte	0
 3297 0134 00       		.byte	0
 3298 0135 1A       		.uleb128 0x1a
 3299 0136 0D       		.uleb128 0xd
 3300 0137 00       		.byte	0
 3301 0138 03       		.uleb128 0x3
 3302 0139 0E       		.uleb128 0xe
 3303 013a 3A       		.uleb128 0x3a
 3304 013b 0B       		.uleb128 0xb
 3305 013c 3B       		.uleb128 0x3b
 3306 013d 05       		.uleb128 0x5
ARM GAS  /var/folders/qd/4mxf5pkd0zdf0b9dd1hp39180000gn/T//ccqDCcuM.s 			page 59


 3307 013e 49       		.uleb128 0x49
 3308 013f 13       		.uleb128 0x13
 3309 0140 00       		.byte	0
 3310 0141 00       		.byte	0
 3311 0142 1B       		.uleb128 0x1b
 3312 0143 34       		.uleb128 0x34
 3313 0144 00       		.byte	0
 3314 0145 03       		.uleb128 0x3
 3315 0146 08       		.uleb128 0x8
 3316 0147 3A       		.uleb128 0x3a
 3317 0148 0B       		.uleb128 0xb
 3318 0149 3B       		.uleb128 0x3b
 3319 014a 05       		.uleb128 0x5
 3320 014b 49       		.uleb128 0x49
 3321 014c 13       		.uleb128 0x13
 3322 014d 3F       		.uleb128 0x3f
 3323 014e 19       		.uleb128 0x19
 3324 014f 3C       		.uleb128 0x3c
 3325 0150 19       		.uleb128 0x19
 3326 0151 00       		.byte	0
 3327 0152 00       		.byte	0
 3328 0153 1C       		.uleb128 0x1c
 3329 0154 15       		.uleb128 0x15
 3330 0155 01       		.byte	0x1
 3331 0156 27       		.uleb128 0x27
 3332 0157 19       		.uleb128 0x19
 3333 0158 49       		.uleb128 0x49
 3334 0159 13       		.uleb128 0x13
 3335 015a 01       		.uleb128 0x1
 3336 015b 13       		.uleb128 0x13
 3337 015c 00       		.byte	0
 3338 015d 00       		.byte	0
 3339 015e 1D       		.uleb128 0x1d
 3340 015f 0D       		.uleb128 0xd
 3341 0160 00       		.byte	0
 3342 0161 03       		.uleb128 0x3
 3343 0162 08       		.uleb128 0x8
 3344 0163 3A       		.uleb128 0x3a
 3345 0164 0B       		.uleb128 0xb
 3346 0165 3B       		.uleb128 0x3b
 3347 0166 0B       		.uleb128 0xb
 3348 0167 49       		.uleb128 0x49
 3349 0168 13       		.uleb128 0x13
 3350 0169 00       		.byte	0
 3351 016a 00       		.byte	0
 3352 016b 1E       		.uleb128 0x1e
 3353 016c 04       		.uleb128 0x4
 3354 016d 01       		.byte	0x1
 3355 016e 3E       		.uleb128 0x3e
 3356 016f 0B       		.uleb128 0xb
 3357 0170 0B       		.uleb128 0xb
 3358 0171 0B       		.uleb128 0xb
 3359 0172 49       		.uleb128 0x49
 3360 0173 13       		.uleb128 0x13
 3361 0174 3A       		.uleb128 0x3a
 3362 0175 0B       		.uleb128 0xb
 3363 0176 3B       		.uleb128 0x3b
ARM GAS  /var/folders/qd/4mxf5pkd0zdf0b9dd1hp39180000gn/T//ccqDCcuM.s 			page 60


 3364 0177 0B       		.uleb128 0xb
 3365 0178 01       		.uleb128 0x1
 3366 0179 13       		.uleb128 0x13
 3367 017a 00       		.byte	0
 3368 017b 00       		.byte	0
 3369 017c 1F       		.uleb128 0x1f
 3370 017d 28       		.uleb128 0x28
 3371 017e 00       		.byte	0
 3372 017f 03       		.uleb128 0x3
 3373 0180 0E       		.uleb128 0xe
 3374 0181 1C       		.uleb128 0x1c
 3375 0182 0B       		.uleb128 0xb
 3376 0183 00       		.byte	0
 3377 0184 00       		.byte	0
 3378 0185 20       		.uleb128 0x20
 3379 0186 2E       		.uleb128 0x2e
 3380 0187 01       		.byte	0x1
 3381 0188 3F       		.uleb128 0x3f
 3382 0189 19       		.uleb128 0x19
 3383 018a 03       		.uleb128 0x3
 3384 018b 0E       		.uleb128 0xe
 3385 018c 3A       		.uleb128 0x3a
 3386 018d 0B       		.uleb128 0xb
 3387 018e 3B       		.uleb128 0x3b
 3388 018f 0B       		.uleb128 0xb
 3389 0190 27       		.uleb128 0x27
 3390 0191 19       		.uleb128 0x19
 3391 0192 11       		.uleb128 0x11
 3392 0193 01       		.uleb128 0x1
 3393 0194 12       		.uleb128 0x12
 3394 0195 06       		.uleb128 0x6
 3395 0196 40       		.uleb128 0x40
 3396 0197 18       		.uleb128 0x18
 3397 0198 9742     		.uleb128 0x2117
 3398 019a 19       		.uleb128 0x19
 3399 019b 01       		.uleb128 0x1
 3400 019c 13       		.uleb128 0x13
 3401 019d 00       		.byte	0
 3402 019e 00       		.byte	0
 3403 019f 21       		.uleb128 0x21
 3404 01a0 898201   		.uleb128 0x4109
 3405 01a3 01       		.byte	0x1
 3406 01a4 11       		.uleb128 0x11
 3407 01a5 01       		.uleb128 0x1
 3408 01a6 9542     		.uleb128 0x2115
 3409 01a8 19       		.uleb128 0x19
 3410 01a9 31       		.uleb128 0x31
 3411 01aa 13       		.uleb128 0x13
 3412 01ab 00       		.byte	0
 3413 01ac 00       		.byte	0
 3414 01ad 22       		.uleb128 0x22
 3415 01ae 8A8201   		.uleb128 0x410a
 3416 01b1 00       		.byte	0
 3417 01b2 02       		.uleb128 0x2
 3418 01b3 18       		.uleb128 0x18
 3419 01b4 9142     		.uleb128 0x2111
 3420 01b6 18       		.uleb128 0x18
ARM GAS  /var/folders/qd/4mxf5pkd0zdf0b9dd1hp39180000gn/T//ccqDCcuM.s 			page 61


 3421 01b7 00       		.byte	0
 3422 01b8 00       		.byte	0
 3423 01b9 23       		.uleb128 0x23
 3424 01ba 1D       		.uleb128 0x1d
 3425 01bb 01       		.byte	0x1
 3426 01bc 31       		.uleb128 0x31
 3427 01bd 13       		.uleb128 0x13
 3428 01be 11       		.uleb128 0x11
 3429 01bf 01       		.uleb128 0x1
 3430 01c0 12       		.uleb128 0x12
 3431 01c1 06       		.uleb128 0x6
 3432 01c2 58       		.uleb128 0x58
 3433 01c3 0B       		.uleb128 0xb
 3434 01c4 59       		.uleb128 0x59
 3435 01c5 0B       		.uleb128 0xb
 3436 01c6 01       		.uleb128 0x1
 3437 01c7 13       		.uleb128 0x13
 3438 01c8 00       		.byte	0
 3439 01c9 00       		.byte	0
 3440 01ca 24       		.uleb128 0x24
 3441 01cb 1D       		.uleb128 0x1d
 3442 01cc 01       		.byte	0x1
 3443 01cd 31       		.uleb128 0x31
 3444 01ce 13       		.uleb128 0x13
 3445 01cf 11       		.uleb128 0x11
 3446 01d0 01       		.uleb128 0x1
 3447 01d1 12       		.uleb128 0x12
 3448 01d2 06       		.uleb128 0x6
 3449 01d3 58       		.uleb128 0x58
 3450 01d4 0B       		.uleb128 0xb
 3451 01d5 59       		.uleb128 0x59
 3452 01d6 05       		.uleb128 0x5
 3453 01d7 00       		.byte	0
 3454 01d8 00       		.byte	0
 3455 01d9 25       		.uleb128 0x25
 3456 01da 05       		.uleb128 0x5
 3457 01db 00       		.byte	0
 3458 01dc 31       		.uleb128 0x31
 3459 01dd 13       		.uleb128 0x13
 3460 01de 02       		.uleb128 0x2
 3461 01df 17       		.uleb128 0x17
 3462 01e0 00       		.byte	0
 3463 01e1 00       		.byte	0
 3464 01e2 26       		.uleb128 0x26
 3465 01e3 898201   		.uleb128 0x4109
 3466 01e6 00       		.byte	0
 3467 01e7 11       		.uleb128 0x11
 3468 01e8 01       		.uleb128 0x1
 3469 01e9 31       		.uleb128 0x31
 3470 01ea 13       		.uleb128 0x13
 3471 01eb 00       		.byte	0
 3472 01ec 00       		.byte	0
 3473 01ed 27       		.uleb128 0x27
 3474 01ee 898201   		.uleb128 0x4109
 3475 01f1 00       		.byte	0
 3476 01f2 11       		.uleb128 0x11
 3477 01f3 01       		.uleb128 0x1
ARM GAS  /var/folders/qd/4mxf5pkd0zdf0b9dd1hp39180000gn/T//ccqDCcuM.s 			page 62


 3478 01f4 9542     		.uleb128 0x2115
 3479 01f6 19       		.uleb128 0x19
 3480 01f7 31       		.uleb128 0x31
 3481 01f8 13       		.uleb128 0x13
 3482 01f9 00       		.byte	0
 3483 01fa 00       		.byte	0
 3484 01fb 28       		.uleb128 0x28
 3485 01fc 2E       		.uleb128 0x2e
 3486 01fd 00       		.byte	0
 3487 01fe 03       		.uleb128 0x3
 3488 01ff 0E       		.uleb128 0xe
 3489 0200 3A       		.uleb128 0x3a
 3490 0201 0B       		.uleb128 0xb
 3491 0202 3B       		.uleb128 0x3b
 3492 0203 05       		.uleb128 0x5
 3493 0204 27       		.uleb128 0x27
 3494 0205 19       		.uleb128 0x19
 3495 0206 20       		.uleb128 0x20
 3496 0207 0B       		.uleb128 0xb
 3497 0208 00       		.byte	0
 3498 0209 00       		.byte	0
 3499 020a 29       		.uleb128 0x29
 3500 020b 2E       		.uleb128 0x2e
 3501 020c 01       		.byte	0x1
 3502 020d 03       		.uleb128 0x3
 3503 020e 0E       		.uleb128 0xe
 3504 020f 3A       		.uleb128 0x3a
 3505 0210 0B       		.uleb128 0xb
 3506 0211 3B       		.uleb128 0x3b
 3507 0212 05       		.uleb128 0x5
 3508 0213 27       		.uleb128 0x27
 3509 0214 19       		.uleb128 0x19
 3510 0215 20       		.uleb128 0x20
 3511 0216 0B       		.uleb128 0xb
 3512 0217 01       		.uleb128 0x1
 3513 0218 13       		.uleb128 0x13
 3514 0219 00       		.byte	0
 3515 021a 00       		.byte	0
 3516 021b 2A       		.uleb128 0x2a
 3517 021c 05       		.uleb128 0x5
 3518 021d 00       		.byte	0
 3519 021e 03       		.uleb128 0x3
 3520 021f 0E       		.uleb128 0xe
 3521 0220 3A       		.uleb128 0x3a
 3522 0221 0B       		.uleb128 0xb
 3523 0222 3B       		.uleb128 0x3b
 3524 0223 05       		.uleb128 0x5
 3525 0224 49       		.uleb128 0x49
 3526 0225 13       		.uleb128 0x13
 3527 0226 00       		.byte	0
 3528 0227 00       		.byte	0
 3529 0228 2B       		.uleb128 0x2b
 3530 0229 2E       		.uleb128 0x2e
 3531 022a 00       		.byte	0
 3532 022b 3F       		.uleb128 0x3f
 3533 022c 19       		.uleb128 0x19
 3534 022d 3C       		.uleb128 0x3c
ARM GAS  /var/folders/qd/4mxf5pkd0zdf0b9dd1hp39180000gn/T//ccqDCcuM.s 			page 63


 3535 022e 19       		.uleb128 0x19
 3536 022f 6E       		.uleb128 0x6e
 3537 0230 0E       		.uleb128 0xe
 3538 0231 03       		.uleb128 0x3
 3539 0232 0E       		.uleb128 0xe
 3540 0233 3A       		.uleb128 0x3a
 3541 0234 0B       		.uleb128 0xb
 3542 0235 3B       		.uleb128 0x3b
 3543 0236 0B       		.uleb128 0xb
 3544 0237 00       		.byte	0
 3545 0238 00       		.byte	0
 3546 0239 2C       		.uleb128 0x2c
 3547 023a 2E       		.uleb128 0x2e
 3548 023b 00       		.byte	0
 3549 023c 3F       		.uleb128 0x3f
 3550 023d 19       		.uleb128 0x19
 3551 023e 3C       		.uleb128 0x3c
 3552 023f 19       		.uleb128 0x19
 3553 0240 6E       		.uleb128 0x6e
 3554 0241 0E       		.uleb128 0xe
 3555 0242 03       		.uleb128 0x3
 3556 0243 0E       		.uleb128 0xe
 3557 0244 3A       		.uleb128 0x3a
 3558 0245 0B       		.uleb128 0xb
 3559 0246 3B       		.uleb128 0x3b
 3560 0247 05       		.uleb128 0x5
 3561 0248 00       		.byte	0
 3562 0249 00       		.byte	0
 3563 024a 00       		.byte	0
 3564              		.section	.debug_loc,"",%progbits
 3565              	.Ldebug_loc0:
 3566              	.LLST0:
 3567 0000 14000000 		.4byte	.LVL1
 3568 0004 1A000000 		.4byte	.LVL2
 3569 0008 0300     		.2byte	0x3
 3570 000a 08       		.byte	0x8
 3571 000b 20       		.byte	0x20
 3572 000c 9F       		.byte	0x9f
 3573 000d 00000000 		.4byte	0
 3574 0011 00000000 		.4byte	0
 3575              	.LLST1:
 3576 0015 1E000000 		.4byte	.LVL3
 3577 0019 22000000 		.4byte	.LVL4
 3578 001d 0200     		.2byte	0x2
 3579 001f 30       		.byte	0x30
 3580 0020 9F       		.byte	0x9f
 3581 0021 00000000 		.4byte	0
 3582 0025 00000000 		.4byte	0
 3583              		.section	.debug_aranges,"",%progbits
 3584 0000 24000000 		.4byte	0x24
 3585 0004 0200     		.2byte	0x2
 3586 0006 00000000 		.4byte	.Ldebug_info0
 3587 000a 04       		.byte	0x4
 3588 000b 00       		.byte	0
 3589 000c 0000     		.2byte	0
 3590 000e 0000     		.2byte	0
 3591 0010 00000000 		.4byte	.LFB260
ARM GAS  /var/folders/qd/4mxf5pkd0zdf0b9dd1hp39180000gn/T//ccqDCcuM.s 			page 64


 3592 0014 2A000000 		.4byte	.LFE260-.LFB260
 3593 0018 00000000 		.4byte	.LFB261
 3594 001c 48000000 		.4byte	.LFE261-.LFB261
 3595 0020 00000000 		.4byte	0
 3596 0024 00000000 		.4byte	0
 3597              		.section	.debug_ranges,"",%progbits
 3598              	.Ldebug_ranges0:
 3599 0000 00000000 		.4byte	.LFB260
 3600 0004 2A000000 		.4byte	.LFE260
 3601 0008 00000000 		.4byte	.LFB261
 3602 000c 48000000 		.4byte	.LFE261
 3603 0010 00000000 		.4byte	0
 3604 0014 00000000 		.4byte	0
 3605              		.section	.debug_line,"",%progbits
 3606              	.Ldebug_line0:
 3607 0000 4D050000 		.section	.debug_str,"MS",%progbits,1
 3607      0200E304 
 3607      00000201 
 3607      FB0E0D00 
 3607      01010101 
 3608              	.LASF91:
 3609 0000 4D314152 		.ascii	"M1AR\000"
 3609      00
 3610              	.LASF209:
 3611 0005 73746D33 		.ascii	"stm32_dma_stream_t\000"
 3611      325F646D 
 3611      615F7374 
 3611      7265616D 
 3611      5F7400
 3612              	.LASF4:
 3613 0018 73697A65 		.ascii	"size_t\000"
 3613      5F7400
 3614              	.LASF149:
 3615 001f 77747365 		.ascii	"wtsemp\000"
 3615      6D7000
 3616              	.LASF171:
 3617 0026 63665F6F 		.ascii	"cf_off_name\000"
 3617      66665F6E 
 3617      616D6500 
 3618              	.LASF30:
 3619 0032 73797374 		.ascii	"systime_t\000"
 3619      696D655F 
 3619      7400
 3620              	.LASF214:
 3621 003c 4F545950 		.ascii	"OTYPER\000"
 3621      455200
 3622              	.LASF119:
 3623 0043 504C4C49 		.ascii	"PLLI2SCFGR\000"
 3623      32534346 
 3623      475200
 3624              	.LASF160:
 3625 004e 63685F69 		.ascii	"ch_identifier\000"
 3625      64656E74 
 3625      69666965 
 3625      7200
 3626              	.LASF35:
 3627 005c 705F6374 		.ascii	"p_ctx\000"
ARM GAS  /var/folders/qd/4mxf5pkd0zdf0b9dd1hp39180000gn/T//ccqDCcuM.s 			page 65


 3627      7800
 3628              	.LASF25:
 3629 0062 74707269 		.ascii	"tprio_t\000"
 3629      6F5F7400 
 3630              	.LASF179:
 3631 006a 63685F64 		.ascii	"ch_debug\000"
 3631      65627567 
 3631      00
 3632              	.LASF43:
 3633 0073 705F6D73 		.ascii	"p_msgqueue\000"
 3633      67717565 
 3633      756500
 3634              	.LASF59:
 3635 007e 725F6374 		.ascii	"r_ctx\000"
 3635      7800
 3636              	.LASF18:
 3637 0084 696E7433 		.ascii	"int32_t\000"
 3637      325F7400 
 3638              	.LASF278:
 3639 008c 77726974 		.ascii	"writet\000"
 3639      657400
 3640              	.LASF168:
 3641 0093 63665F6F 		.ascii	"cf_off_ctx\000"
 3641      66665F63 
 3641      747800
 3642              	.LASF63:
 3643 009e 76746675 		.ascii	"vtfunc_t\000"
 3643      6E635F74 
 3643      00
 3644              	.LASF72:
 3645 00a7 63685F76 		.ascii	"ch_virtual_timers_list\000"
 3645      69727475 
 3645      616C5F74 
 3645      696D6572 
 3645      735F6C69 
 3646              	.LASF295:
 3647 00be 7373706F 		.ascii	"ssport\000"
 3647      727400
 3648              	.LASF274:
 3649 00c5 77726974 		.ascii	"write\000"
 3649      6500
 3650              	.LASF255:
 3651 00cb 70776D63 		.ascii	"pwmchnmsk_t\000"
 3651      686E6D73 
 3651      6B5F7400 
 3652              	.LASF186:
 3653 00d7 656C5F66 		.ascii	"el_flags\000"
 3653      6C616773 
 3653      00
 3654              	.LASF247:
 3655 00e0 636F6E66 		.ascii	"config\000"
 3655      696700
 3656              	.LASF246:
 3657 00e7 73746174 		.ascii	"state\000"
 3657      6500
 3658              	.LASF233:
 3659 00ed 50454461 		.ascii	"PEData\000"
ARM GAS  /var/folders/qd/4mxf5pkd0zdf0b9dd1hp39180000gn/T//ccqDCcuM.s 			page 66


 3659      746100
 3660              	.LASF276:
 3661 00f4 70757474 		.ascii	"putt\000"
 3661      00
 3662              	.LASF298:
 3663 00f9 53504944 		.ascii	"SPID1\000"
 3663      3100
 3664              	.LASF259:
 3665 00ff 50574D43 		.ascii	"PWMChannelConfig\000"
 3665      68616E6E 
 3665      656C436F 
 3665      6E666967 
 3665      00
 3666              	.LASF164:
 3667 0110 63685F70 		.ascii	"ch_ptrsize\000"
 3667      74727369 
 3667      7A6500
 3668              	.LASF139:
 3669 011b 444D4152 		.ascii	"DMAR\000"
 3669      00
 3670              	.LASF261:
 3671 0120 64696572 		.ascii	"dier\000"
 3671      00
 3672              	.LASF241:
 3673 0125 50574D5F 		.ascii	"PWM_UNINIT\000"
 3673      554E494E 
 3673      495400
 3674              	.LASF258:
 3675 0130 63616C6C 		.ascii	"callback\000"
 3675      6261636B 
 3675      00
 3676              	.LASF228:
 3677 0139 73746D33 		.ascii	"stm32_gpio_setup_t\000"
 3677      325F6770 
 3677      696F5F73 
 3677      65747570 
 3677      5F7400
 3678              	.LASF157:
 3679 014c 6D5F6F77 		.ascii	"m_owner\000"
 3679      6E657200 
 3680              	.LASF70:
 3681 0154 76745F70 		.ascii	"vt_par\000"
 3681      617200
 3682              	.LASF294:
 3683 015b 656E645F 		.ascii	"end_cb\000"
 3683      636200
 3684              	.LASF146:
 3685 0162 65786974 		.ascii	"exitcode\000"
 3685      636F6465 
 3685      00
 3686              	.LASF124:
 3687 016b 49325343 		.ascii	"I2SCFGR\000"
 3687      46475200 
 3688              	.LASF5:
 3689 0173 5F5F7569 		.ascii	"__uint8_t\000"
 3689      6E74385F 
 3689      7400
ARM GAS  /var/folders/qd/4mxf5pkd0zdf0b9dd1hp39180000gn/T//ccqDCcuM.s 			page 67


 3690              	.LASF196:
 3691 017d 715F746F 		.ascii	"q_top\000"
 3691      7000
 3692              	.LASF110:
 3693 0183 41484232 		.ascii	"AHB2LPENR\000"
 3693      4C50454E 
 3693      5200
 3694              	.LASF166:
 3695 018d 63685F74 		.ascii	"ch_threadsize\000"
 3695      68726561 
 3695      6473697A 
 3695      6500
 3696              	.LASF216:
 3697 019b 50555044 		.ascii	"PUPDR\000"
 3697      5200
 3698              	.LASF279:
 3699 01a1 72656164 		.ascii	"readt\000"
 3699      7400
 3700              	.LASF195:
 3701 01a7 715F6275 		.ascii	"q_buffer\000"
 3701      66666572 
 3701      00
 3702              	.LASF199:
 3703 01b0 715F6E6F 		.ascii	"q_notify\000"
 3703      74696679 
 3703      00
 3704              	.LASF36:
 3705 01b9 705F6E65 		.ascii	"p_newer\000"
 3705      77657200 
 3706              	.LASF281:
 3707 01c1 5350495F 		.ascii	"SPI_STOP\000"
 3707      53544F50 
 3707      00
 3708              	.LASF11:
 3709 01ca 6C6F6E67 		.ascii	"long int\000"
 3709      20696E74 
 3709      00
 3710              	.LASF280:
 3711 01d3 5350495F 		.ascii	"SPI_UNINIT\000"
 3711      554E494E 
 3711      495400
 3712              	.LASF32:
 3713 01de 705F6E65 		.ascii	"p_next\000"
 3713      787400
 3714              	.LASF309:
 3715 01e5 706F7274 		.ascii	"port_unlock\000"
 3715      5F756E6C 
 3715      6F636B00 
 3716              	.LASF198:
 3717 01f1 715F7264 		.ascii	"q_rdptr\000"
 3717      70747200 
 3718              	.LASF173:
 3719 01f9 63665F6F 		.ascii	"cf_off_state\000"
 3719      66665F73 
 3719      74617465 
 3719      00
 3720              	.LASF33:
ARM GAS  /var/folders/qd/4mxf5pkd0zdf0b9dd1hp39180000gn/T//ccqDCcuM.s 			page 68


 3721 0206 705F7072 		.ascii	"p_prev\000"
 3721      657600
 3722              	.LASF306:
 3723 020d 63685379 		.ascii	"chSysLockFromISR\000"
 3723      734C6F63 
 3723      6B46726F 
 3723      6D495352 
 3723      00
 3724              	.LASF239:
 3725 021e 696F706F 		.ascii	"ioportid_t\000"
 3725      72746964 
 3725      5F7400
 3726              	.LASF23:
 3727 0229 74737461 		.ascii	"tstate_t\000"
 3727      74655F74 
 3727      00
 3728              	.LASF53:
 3729 0232 74687265 		.ascii	"threads_queue_t\000"
 3729      6164735F 
 3729      71756575 
 3729      655F7400 
 3730              	.LASF46:
 3731 0242 705F6D74 		.ascii	"p_mtxlist\000"
 3731      786C6973 
 3731      7400
 3732              	.LASF271:
 3733 024c 6F717565 		.ascii	"oqueue\000"
 3733      756500
 3734              	.LASF129:
 3735 0253 72656761 		.ascii	"regarm_t\000"
 3735      726D5F74 
 3735      00
 3736              	.LASF254:
 3737 025c 70776D63 		.ascii	"pwmchannel_t\000"
 3737      68616E6E 
 3737      656C5F74 
 3737      00
 3738              	.LASF107:
 3739 0269 41504232 		.ascii	"APB2ENR\000"
 3739      454E5200 
 3740              	.LASF192:
 3741 0271 696F5F71 		.ascii	"io_queue\000"
 3741      75657565 
 3741      00
 3742              	.LASF109:
 3743 027a 41484231 		.ascii	"AHB1LPENR\000"
 3743      4C50454E 
 3743      5200
 3744              	.LASF272:
 3745 0284 75736172 		.ascii	"usart\000"
 3745      7400
 3746              	.LASF240:
 3747 028a 70616C5F 		.ascii	"pal_default_config\000"
 3747      64656661 
 3747      756C745F 
 3747      636F6E66 
 3747      696700
ARM GAS  /var/folders/qd/4mxf5pkd0zdf0b9dd1hp39180000gn/T//ccqDCcuM.s 			page 69


 3748              	.LASF200:
 3749 029d 715F6C69 		.ascii	"q_link\000"
 3749      6E6B00
 3750              	.LASF3:
 3751 02a4 7369676E 		.ascii	"signed char\000"
 3751      65642063 
 3751      68617200 
 3752              	.LASF151:
 3753 02b0 65776D61 		.ascii	"ewmask\000"
 3753      736B00
 3754              	.LASF16:
 3755 02b7 75696E74 		.ascii	"uint8_t\000"
 3755      385F7400 
 3756              	.LASF27:
 3757 02bf 6576656E 		.ascii	"eventmask_t\000"
 3757      746D6173 
 3757      6B5F7400 
 3758              	.LASF131:
 3759 02cb 636F6E74 		.ascii	"context\000"
 3759      65787400 
 3760              	.LASF148:
 3761 02d3 77747472 		.ascii	"wttrp\000"
 3761      7000
 3762              	.LASF256:
 3763 02d9 70776D63 		.ascii	"pwmcnt_t\000"
 3763      6E745F74 
 3763      00
 3764              	.LASF305:
 3765 02e2 63685379 		.ascii	"chSysUnlockFromISR\000"
 3765      73556E6C 
 3765      6F636B46 
 3765      726F6D49 
 3765      535200
 3766              	.LASF98:
 3767 02f5 52455345 		.ascii	"RESERVED0\000"
 3767      52564544 
 3767      3000
 3768              	.LASF101:
 3769 02ff 52455345 		.ascii	"RESERVED1\000"
 3769      52564544 
 3769      3100
 3770              	.LASF6:
 3771 0309 756E7369 		.ascii	"unsigned char\000"
 3771      676E6564 
 3771      20636861 
 3771      7200
 3772              	.LASF108:
 3773 0317 52455345 		.ascii	"RESERVED3\000"
 3773      52564544 
 3773      3300
 3774              	.LASF112:
 3775 0321 52455345 		.ascii	"RESERVED4\000"
 3775      52564544 
 3775      3400
 3776              	.LASF115:
 3777 032b 52455345 		.ascii	"RESERVED5\000"
 3777      52564544 
ARM GAS  /var/folders/qd/4mxf5pkd0zdf0b9dd1hp39180000gn/T//ccqDCcuM.s 			page 70


 3777      3500
 3778              	.LASF117:
 3779 0335 52455345 		.ascii	"RESERVED6\000"
 3779      52564544 
 3779      3600
 3780              	.LASF221:
 3781 033f 73746D33 		.ascii	"stm32_gpio_t\000"
 3781      325F6770 
 3781      696F5F74 
 3781      00
 3782              	.LASF293:
 3783 034c 73706963 		.ascii	"spicallback_t\000"
 3783      616C6C62 
 3783      61636B5F 
 3783      7400
 3784              	.LASF232:
 3785 035a 50444461 		.ascii	"PDData\000"
 3785      746100
 3786              	.LASF76:
 3787 0361 70616E69 		.ascii	"panic_msg\000"
 3787      635F6D73 
 3787      6700
 3788              	.LASF60:
 3789 036b 725F6E65 		.ascii	"r_newer\000"
 3789      77657200 
 3790              	.LASF74:
 3791 0373 73797374 		.ascii	"system_debug_t\000"
 3791      656D5F64 
 3791      65627567 
 3791      5F7400
 3792              	.LASF264:
 3793 0382 53445F55 		.ascii	"SD_UNINIT\000"
 3793      4E494E49 
 3793      5400
 3794              	.LASF211:
 3795 038c 5F426F6F 		.ascii	"_Bool\000"
 3795      6C00
 3796              	.LASF105:
 3797 0392 52455345 		.ascii	"RESERVED2\000"
 3797      52564544 
 3797      3200
 3798              	.LASF135:
 3799 039c 43434D52 		.ascii	"CCMR1\000"
 3799      3100
 3800              	.LASF136:
 3801 03a2 43434D52 		.ascii	"CCMR2\000"
 3801      3200
 3802              	.LASF140:
 3803 03a8 43434D52 		.ascii	"CCMR3\000"
 3803      3300
 3804              	.LASF300:
 3805 03ae 73745F6C 		.ascii	"st_lld_init\000"
 3805      6C645F69 
 3805      6E697400 
 3806              	.LASF159:
 3807 03ba 63686172 		.ascii	"char\000"
 3807      00
ARM GAS  /var/folders/qd/4mxf5pkd0zdf0b9dd1hp39180000gn/T//ccqDCcuM.s 			page 71


 3808              	.LASF222:
 3809 03bf 6D6F6465 		.ascii	"moder\000"
 3809      7200
 3810              	.LASF206:
 3811 03c5 69736869 		.ascii	"ishift\000"
 3811      667400
 3812              	.LASF95:
 3813 03cc 41484231 		.ascii	"AHB1RSTR\000"
 3813      52535452 
 3813      00
 3814              	.LASF34:
 3815 03d5 705F7072 		.ascii	"p_prio\000"
 3815      696F00
 3816              	.LASF286:
 3817 03dc 53504944 		.ascii	"SPIDriver\000"
 3817      72697665 
 3817      7200
 3818              	.LASF8:
 3819 03e6 5F5F7569 		.ascii	"__uint16_t\000"
 3819      6E743136 
 3819      5F7400
 3820              	.LASF103:
 3821 03f1 41484232 		.ascii	"AHB2ENR\000"
 3821      454E5200 
 3822              	.LASF147:
 3823 03f9 77746F62 		.ascii	"wtobjp\000"
 3823      6A7000
 3824              	.LASF169:
 3825 0400 63665F6F 		.ascii	"cf_off_newer\000"
 3825      66665F6E 
 3825      65776572 
 3825      00
 3826              	.LASF277:
 3827 040d 67657474 		.ascii	"gett\000"
 3827      00
 3828              	.LASF130:
 3829 0412 73746B61 		.ascii	"stkalign_t\000"
 3829      6C69676E 
 3829      5F7400
 3830              	.LASF128:
 3831 041d 55534152 		.ascii	"USART_TypeDef\000"
 3831      545F5479 
 3831      70654465 
 3831      6600
 3832              	.LASF86:
 3833 042b 41504231 		.ascii	"APB1FZ\000"
 3833      465A00
 3834              	.LASF167:
 3835 0432 63665F6F 		.ascii	"cf_off_prio\000"
 3835      66665F70 
 3835      72696F00 
 3836              	.LASF204:
 3837 043e 73747265 		.ascii	"stream\000"
 3837      616D00
 3838              	.LASF181:
 3839 0445 6576656E 		.ascii	"event_listener_t\000"
 3839      745F6C69 
ARM GAS  /var/folders/qd/4mxf5pkd0zdf0b9dd1hp39180000gn/T//ccqDCcuM.s 			page 72


 3839      7374656E 
 3839      65725F74 
 3839      00
 3840              	.LASF141:
 3841 0456 43435852 		.ascii	"CCXR\000"
 3841      00
 3842              	.LASF116:
 3843 045b 42444352 		.ascii	"BDCR\000"
 3843      00
 3844              	.LASF253:
 3845 0460 70776D6D 		.ascii	"pwmmode_t\000"
 3845      6F64655F 
 3845      7400
 3846              	.LASF29:
 3847 046a 636E745F 		.ascii	"cnt_t\000"
 3847      7400
 3848              	.LASF299:
 3849 0470 53504944 		.ascii	"SPID2\000"
 3849      3200
 3850              	.LASF69:
 3851 0476 76745F66 		.ascii	"vt_func\000"
 3851      756E6300 
 3852              	.LASF88:
 3853 047e 4442474D 		.ascii	"DBGMCU_TypeDef\000"
 3853      43555F54 
 3853      79706544 
 3853      656600
 3854              	.LASF45:
 3855 048d 705F6570 		.ascii	"p_epending\000"
 3855      656E6469 
 3855      6E6700
 3856              	.LASF150:
 3857 0498 77746D74 		.ascii	"wtmtxp\000"
 3857      787000
 3858              	.LASF56:
 3859 049f 63685F72 		.ascii	"ch_ready_list\000"
 3859      65616479 
 3859      5F6C6973 
 3859      7400
 3860              	.LASF212:
 3861 04ad 636C6561 		.ascii	"clear\000"
 3861      7200
 3862              	.LASF94:
 3863 04b3 43464752 		.ascii	"CFGR\000"
 3863      00
 3864              	.LASF224:
 3865 04b8 6F737065 		.ascii	"ospeedr\000"
 3865      65647200 
 3866              	.LASF231:
 3867 04c0 50434461 		.ascii	"PCData\000"
 3867      746100
 3868              	.LASF303:
 3869 04c7 6F73616C 		.ascii	"osalSysUnlockFromISR\000"
 3869      53797355 
 3869      6E6C6F63 
 3869      6B46726F 
 3869      6D495352 
ARM GAS  /var/folders/qd/4mxf5pkd0zdf0b9dd1hp39180000gn/T//ccqDCcuM.s 			page 73


 3870              	.LASF189:
 3871 04dc 65735F6E 		.ascii	"es_next\000"
 3871      65787400 
 3872              	.LASF194:
 3873 04e4 715F636F 		.ascii	"q_counter\000"
 3873      756E7465 
 3873      7200
 3874              	.LASF249:
 3875 04ee 656E6162 		.ascii	"enabled\000"
 3875      6C656400 
 3876              	.LASF227:
 3877 04f6 61667268 		.ascii	"afrh\000"
 3877      00
 3878              	.LASF14:
 3879 04fb 5F5F7569 		.ascii	"__uint64_t\000"
 3879      6E743634 
 3879      5F7400
 3880              	.LASF13:
 3881 0506 6C6F6E67 		.ascii	"long unsigned int\000"
 3881      20756E73 
 3881      69676E65 
 3881      6420696E 
 3881      7400
 3882              	.LASF161:
 3883 0518 63685F7A 		.ascii	"ch_zero\000"
 3883      65726F00 
 3884              	.LASF134:
 3885 0520 44494552 		.ascii	"DIER\000"
 3885      00
 3886              	.LASF223:
 3887 0525 6F747970 		.ascii	"otyper\000"
 3887      657200
 3888              	.LASF84:
 3889 052c 53797374 		.ascii	"SystemCoreClock\000"
 3889      656D436F 
 3889      7265436C 
 3889      6F636B00 
 3890              	.LASF152:
 3891 053c 63685F73 		.ascii	"ch_semaphore\000"
 3891      656D6170 
 3891      686F7265 
 3891      00
 3892              	.LASF51:
 3893 0549 63685F74 		.ascii	"ch_thread\000"
 3893      68726561 
 3893      6400
 3894              	.LASF71:
 3895 0553 76697274 		.ascii	"virtual_timers_list_t\000"
 3895      75616C5F 
 3895      74696D65 
 3895      72735F6C 
 3895      6973745F 
 3896              	.LASF210:
 3897 0569 5F73746D 		.ascii	"_stm32_dma_streams\000"
 3897      33325F64 
 3897      6D615F73 
 3897      74726561 
ARM GAS  /var/folders/qd/4mxf5pkd0zdf0b9dd1hp39180000gn/T//ccqDCcuM.s 			page 74


 3897      6D7300
 3898              	.LASF183:
 3899 057c 656C5F6E 		.ascii	"el_next\000"
 3899      65787400 
 3900              	.LASF64:
 3901 0584 76697274 		.ascii	"virtual_timer_t\000"
 3901      75616C5F 
 3901      74696D65 
 3901      725F7400 
 3902              	.LASF55:
 3903 0594 72656164 		.ascii	"ready_list_t\000"
 3903      795F6C69 
 3903      73745F74 
 3903      00
 3904              	.LASF197:
 3905 05a1 715F7772 		.ascii	"q_wrptr\000"
 3905      70747200 
 3906              	.LASF218:
 3907 05a9 4C434B52 		.ascii	"LCKR\000"
 3907      00
 3908              	.LASF142:
 3909 05ae 73746D33 		.ascii	"stm32_tim_t\000"
 3909      325F7469 
 3909      6D5F7400 
 3910              	.LASF237:
 3911 05ba 50494461 		.ascii	"PIData\000"
 3911      746100
 3912              	.LASF269:
 3913 05c1 6576656E 		.ascii	"event\000"
 3913      7400
 3914              	.LASF251:
 3915 05c7 636C6F63 		.ascii	"clock\000"
 3915      6B00
 3916              	.LASF52:
 3917 05cd 63685F74 		.ascii	"ch_threads_list\000"
 3917      68726561 
 3917      64735F6C 
 3917      69737400 
 3918              	.LASF225:
 3919 05dd 70757064 		.ascii	"pupdr\000"
 3919      7200
 3920              	.LASF215:
 3921 05e3 4F535045 		.ascii	"OSPEEDR\000"
 3921      45445200 
 3922              	.LASF314:
 3923 05eb 474E5520 		.ascii	"GNU C11 7.2.1 20170904 (release) [ARM/embedded-7-br"
 3923      43313120 
 3923      372E322E 
 3923      31203230 
 3923      31373039 
 3924 061e 616E6368 		.ascii	"anch revision 255204] -mcpu=cortex-m4 -mno-thumb-in"
 3924      20726576 
 3924      6973696F 
 3924      6E203235 
 3924      35323034 
 3925 0651 74657277 		.ascii	"terwork -mthumb -ggdb -O2 -fomit-frame-pointer -fal"
 3925      6F726B20 
ARM GAS  /var/folders/qd/4mxf5pkd0zdf0b9dd1hp39180000gn/T//ccqDCcuM.s 			page 75


 3925      2D6D7468 
 3925      756D6220 
 3925      2D676764 
 3926 0684 69676E2D 		.ascii	"ign-functions=16 -ffunction-sections -fdata-section"
 3926      66756E63 
 3926      74696F6E 
 3926      733D3136 
 3926      202D6666 
 3927 06b7 73202D66 		.ascii	"s -fno-common\000"
 3927      6E6F2D63 
 3927      6F6D6D6F 
 3927      6E00
 3928              	.LASF93:
 3929 06c5 504C4C43 		.ascii	"PLLCFGR\000"
 3929      46475200 
 3930              	.LASF176:
 3931 06cd 63665F6F 		.ascii	"cf_off_preempt\000"
 3931      66665F70 
 3931      7265656D 
 3931      707400
 3932              	.LASF289:
 3933 06dc 646D6172 		.ascii	"dmarx\000"
 3933      7800
 3934              	.LASF12:
 3935 06e2 5F5F7569 		.ascii	"__uint32_t\000"
 3935      6E743332 
 3935      5F7400
 3936              	.LASF282:
 3937 06ed 5350495F 		.ascii	"SPI_READY\000"
 3937      52454144 
 3937      5900
 3938              	.LASF1:
 3939 06f7 6C6F6E67 		.ascii	"long long int\000"
 3939      206C6F6E 
 3939      6720696E 
 3939      7400
 3940              	.LASF163:
 3941 0705 63685F76 		.ascii	"ch_version\000"
 3941      65727369 
 3941      6F6E00
 3942              	.LASF156:
 3943 0710 6D5F7175 		.ascii	"m_queue\000"
 3943      65756500 
 3944              	.LASF308:
 3945 0718 706F7274 		.ascii	"port_lock_from_isr\000"
 3945      5F6C6F63 
 3945      6B5F6672 
 3945      6F6D5F69 
 3945      737200
 3946              	.LASF118:
 3947 072b 53534347 		.ascii	"SSCGR\000"
 3947      5200
 3948              	.LASF66:
 3949 0731 76745F6E 		.ascii	"vt_next\000"
 3949      65787400 
 3950              	.LASF67:
 3951 0739 76745F70 		.ascii	"vt_prev\000"
ARM GAS  /var/folders/qd/4mxf5pkd0zdf0b9dd1hp39180000gn/T//ccqDCcuM.s 			page 76


 3951      72657600 
 3952              	.LASF127:
 3953 0741 47545052 		.ascii	"GTPR\000"
 3953      00
 3954              	.LASF87:
 3955 0746 41504232 		.ascii	"APB2FZ\000"
 3955      465A00
 3956              	.LASF100:
 3957 074d 41504232 		.ascii	"APB2RSTR\000"
 3957      52535452 
 3957      00
 3958              	.LASF304:
 3959 0756 6F73616C 		.ascii	"osalSysLockFromISR\000"
 3959      5379734C 
 3959      6F636B46 
 3959      726F6D49 
 3959      535200
 3960              	.LASF190:
 3961 0769 6576656E 		.ascii	"event_source_t\000"
 3961      745F736F 
 3961      75726365 
 3961      5F7400
 3962              	.LASF273:
 3963 0778 53657269 		.ascii	"SerialDriverVMT\000"
 3963      616C4472 
 3963      69766572 
 3963      564D5400 
 3964              	.LASF288:
 3965 0788 6D757465 		.ascii	"mutex\000"
 3965      7800
 3966              	.LASF83:
 3967 078e 49544D5F 		.ascii	"ITM_RxBuffer\000"
 3967      52784275 
 3967      66666572 
 3967      00
 3968              	.LASF122:
 3969 079b 52584352 		.ascii	"RXCRCR\000"
 3969      435200
 3970              	.LASF260:
 3971 07a2 66726571 		.ascii	"frequency\000"
 3971      75656E63 
 3971      7900
 3972              	.LASF230:
 3973 07ac 50424461 		.ascii	"PBData\000"
 3973      746100
 3974              	.LASF291:
 3975 07b3 7278646D 		.ascii	"rxdmamode\000"
 3975      616D6F64 
 3975      6500
 3976              	.LASF114:
 3977 07bd 41504232 		.ascii	"APB2LPENR\000"
 3977      4C50454E 
 3977      5200
 3978              	.LASF201:
 3979 07c7 716E6F74 		.ascii	"qnotify_t\000"
 3979      6966795F 
 3979      7400
ARM GAS  /var/folders/qd/4mxf5pkd0zdf0b9dd1hp39180000gn/T//ccqDCcuM.s 			page 77


 3980              	.LASF42:
 3981 07d1 705F7761 		.ascii	"p_waiting\000"
 3981      6974696E 
 3981      6700
 3982              	.LASF85:
 3983 07db 4944434F 		.ascii	"IDCODE\000"
 3983      444500
 3984              	.LASF290:
 3985 07e2 646D6174 		.ascii	"dmatx\000"
 3985      7800
 3986              	.LASF213:
 3987 07e8 4D4F4445 		.ascii	"MODER\000"
 3987      5200
 3988              	.LASF40:
 3989 07ee 705F666C 		.ascii	"p_flags\000"
 3989      61677300 
 3990              	.LASF275:
 3991 07f6 72656164 		.ascii	"read\000"
 3991      00
 3992              	.LASF82:
 3993 07fb 69646C65 		.ascii	"idle_thread_wa\000"
 3993      5F746872 
 3993      6561645F 
 3993      776100
 3994              	.LASF0:
 3995 080a 756E7369 		.ascii	"unsigned int\000"
 3995      676E6564 
 3995      20696E74 
 3995      00
 3996              	.LASF297:
 3997 0817 53504943 		.ascii	"SPIConfig\000"
 3997      6F6E6669 
 3997      6700
 3998              	.LASF283:
 3999 0821 5350495F 		.ascii	"SPI_ACTIVE\000"
 3999      41435449 
 3999      564500
 4000              	.LASF21:
 4001 082c 7274636E 		.ascii	"rtcnt_t\000"
 4001      745F7400 
 4002              	.LASF48:
 4003 0834 705F6D70 		.ascii	"p_mpool\000"
 4003      6F6F6C00 
 4004              	.LASF312:
 4005 083c 63685379 		.ascii	"chSysTimerHandlerI\000"
 4005      7354696D 
 4005      65724861 
 4005      6E646C65 
 4005      724900
 4006              	.LASF250:
 4007 084f 6368616E 		.ascii	"channels\000"
 4007      6E656C73 
 4007      00
 4008              	.LASF41:
 4009 0858 705F7265 		.ascii	"p_refs\000"
 4009      667300
 4010              	.LASF165:
ARM GAS  /var/folders/qd/4mxf5pkd0zdf0b9dd1hp39180000gn/T//ccqDCcuM.s 			page 78


 4011 085f 63685F74 		.ascii	"ch_timesize\000"
 4011      696D6573 
 4011      697A6500 
 4012              	.LASF302:
 4013 086b 6F73616C 		.ascii	"osalOsTimerHandlerI\000"
 4013      4F735469 
 4013      6D657248 
 4013      616E646C 
 4013      65724900 
 4014              	.LASF187:
 4015 087f 656C5F77 		.ascii	"el_wflags\000"
 4015      666C6167 
 4015      7300
 4016              	.LASF252:
 4017 0889 70776D63 		.ascii	"pwmcallback_t\000"
 4017      616C6C62 
 4017      61636B5F 
 4017      7400
 4018              	.LASF185:
 4019 0897 656C5F65 		.ascii	"el_events\000"
 4019      76656E74 
 4019      7300
 4020              	.LASF313:
 4021 08a1 5F706F72 		.ascii	"_port_irq_epilogue\000"
 4021      745F6972 
 4021      715F6570 
 4021      696C6F67 
 4021      756500
 4022              	.LASF245:
 4023 08b4 50574D44 		.ascii	"PWMDriver\000"
 4023      72697665 
 4023      7200
 4024              	.LASF143:
 4025 08be 6F666673 		.ascii	"offset\000"
 4025      657400
 4026              	.LASF113:
 4027 08c5 41504231 		.ascii	"APB1LPENR\000"
 4027      4C50454E 
 4027      5200
 4028              	.LASF236:
 4029 08cf 50484461 		.ascii	"PHData\000"
 4029      746100
 4030              	.LASF92:
 4031 08d6 444D415F 		.ascii	"DMA_Stream_TypeDef\000"
 4031      53747265 
 4031      616D5F54 
 4031      79706544 
 4031      656600
 4032              	.LASF175:
 4033 08e9 63665F6F 		.ascii	"cf_off_refs\000"
 4033      66665F72 
 4033      65667300 
 4034              	.LASF226:
 4035 08f5 6166726C 		.ascii	"afrl\000"
 4035      00
 4036              	.LASF97:
 4037 08fa 41484233 		.ascii	"AHB3RSTR\000"
ARM GAS  /var/folders/qd/4mxf5pkd0zdf0b9dd1hp39180000gn/T//ccqDCcuM.s 			page 79


 4037      52535452 
 4037      00
 4038              	.LASF31:
 4039 0903 74687265 		.ascii	"thread_t\000"
 4039      61645F74 
 4039      00
 4040              	.LASF2:
 4041 090c 6C6F6E67 		.ascii	"long double\000"
 4041      20646F75 
 4041      626C6500 
 4042              	.LASF49:
 4043 0918 74687265 		.ascii	"thread_reference_t\000"
 4043      61645F72 
 4043      65666572 
 4043      656E6365 
 4043      5F7400
 4044              	.LASF47:
 4045 092b 705F7265 		.ascii	"p_realprio\000"
 4045      616C7072 
 4045      696F00
 4046              	.LASF132:
 4047 0936 706F7274 		.ascii	"port_intctx\000"
 4047      5F696E74 
 4047      63747800 
 4048              	.LASF177:
 4049 0942 63665F6F 		.ascii	"cf_off_time\000"
 4049      66665F74 
 4049      696D6500 
 4050              	.LASF307:
 4051 094e 706F7274 		.ascii	"port_unlock_from_isr\000"
 4051      5F756E6C 
 4051      6F636B5F 
 4051      66726F6D 
 4051      5F697372 
 4052              	.LASF68:
 4053 0963 76745F64 		.ascii	"vt_delta\000"
 4053      656C7461 
 4053      00
 4054              	.LASF99:
 4055 096c 41504231 		.ascii	"APB1RSTR\000"
 4055      52535452 
 4055      00
 4056              	.LASF65:
 4057 0975 63685F76 		.ascii	"ch_virtual_timer\000"
 4057      69727475 
 4057      616C5F74 
 4057      696D6572 
 4057      00
 4058              	.LASF106:
 4059 0986 41504231 		.ascii	"APB1ENR\000"
 4059      454E5200 
 4060              	.LASF154:
 4061 098e 735F636E 		.ascii	"s_cnt\000"
 4061      7400
 4062              	.LASF207:
 4063 0994 73656C66 		.ascii	"selfindex\000"
 4063      696E6465 
ARM GAS  /var/folders/qd/4mxf5pkd0zdf0b9dd1hp39180000gn/T//ccqDCcuM.s 			page 80


 4063      7800
 4064              	.LASF15:
 4065 099e 6C6F6E67 		.ascii	"long long unsigned int\000"
 4065      206C6F6E 
 4065      6720756E 
 4065      7369676E 
 4065      65642069 
 4066              	.LASF242:
 4067 09b5 50574D5F 		.ascii	"PWM_STOP\000"
 4067      53544F50 
 4067      00
 4068              	.LASF229:
 4069 09be 50414461 		.ascii	"PAData\000"
 4069      746100
 4070              	.LASF37:
 4071 09c5 705F6F6C 		.ascii	"p_older\000"
 4071      64657200 
 4072              	.LASF17:
 4073 09cd 75696E74 		.ascii	"uint16_t\000"
 4073      31365F74 
 4073      00
 4074              	.LASF26:
 4075 09d6 6D73675F 		.ascii	"msg_t\000"
 4075      7400
 4076              	.LASF54:
 4077 09dc 63685F74 		.ascii	"ch_threads_queue\000"
 4077      68726561 
 4077      64735F71 
 4077      75657565 
 4077      00
 4078              	.LASF28:
 4079 09ed 6576656E 		.ascii	"eventflags_t\000"
 4079      74666C61 
 4079      67735F74 
 4079      00
 4080              	.LASF174:
 4081 09fa 63665F6F 		.ascii	"cf_off_flags\000"
 4081      66665F66 
 4081      6C616773 
 4081      00
 4082              	.LASF137:
 4083 0a07 43434552 		.ascii	"CCER\000"
 4083      00
 4084              	.LASF318:
 4085 0a0c 76616C75 		.ascii	"value\000"
 4085      6500
 4086              	.LASF62:
 4087 0a12 725F6375 		.ascii	"r_current\000"
 4087      7272656E 
 4087      7400
 4088              	.LASF220:
 4089 0a1c 41465248 		.ascii	"AFRH\000"
 4089      00
 4090              	.LASF219:
 4091 0a21 4146524C 		.ascii	"AFRL\000"
 4091      00
 4092              	.LASF208:
ARM GAS  /var/folders/qd/4mxf5pkd0zdf0b9dd1hp39180000gn/T//ccqDCcuM.s 			page 81


 4093 0a26 76656374 		.ascii	"vector\000"
 4093      6F7200
 4094              	.LASF81:
 4095 0a2d 6D61696E 		.ascii	"mainthread\000"
 4095      74687265 
 4095      616400
 4096              	.LASF133:
 4097 0a38 534D4352 		.ascii	"SMCR\000"
 4097      00
 4098              	.LASF248:
 4099 0a3d 70657269 		.ascii	"period\000"
 4099      6F6400
 4100              	.LASF111:
 4101 0a44 41484233 		.ascii	"AHB3LPENR\000"
 4101      4C50454E 
 4101      5200
 4102              	.LASF317:
 4103 0a4e 5F5F7365 		.ascii	"__set_BASEPRI\000"
 4103      745F4241 
 4103      53455052 
 4103      4900
 4104              	.LASF57:
 4105 0a5c 725F7175 		.ascii	"r_queue\000"
 4105      65756500 
 4106              	.LASF268:
 4107 0a64 53657269 		.ascii	"SerialDriver\000"
 4107      616C4472 
 4107      69766572 
 4107      00
 4108              	.LASF315:
 4109 0a71 2E2E2F2E 		.ascii	"../../../os/hal/ports/STM32/LLD/TIMv1/st_lld.c\000"
 4109      2E2F2E2E 
 4109      2F6F732F 
 4109      68616C2F 
 4109      706F7274 
 4110              	.LASF235:
 4111 0aa0 50474461 		.ascii	"PGData\000"
 4111      746100
 4112              	.LASF193:
 4113 0aa7 715F7761 		.ascii	"q_waiting\000"
 4113      6974696E 
 4113      6700
 4114              	.LASF123:
 4115 0ab1 54584352 		.ascii	"TXCRCR\000"
 4115      435200
 4116              	.LASF126:
 4117 0ab8 5350495F 		.ascii	"SPI_TypeDef\000"
 4117      54797065 
 4117      44656600 
 4118              	.LASF79:
 4119 0ac4 726C6973 		.ascii	"rlist\000"
 4119      7400
 4120              	.LASF22:
 4121 0aca 746D6F64 		.ascii	"tmode_t\000"
 4121      655F7400 
 4122              	.LASF121:
 4123 0ad2 43524350 		.ascii	"CRCPR\000"
ARM GAS  /var/folders/qd/4mxf5pkd0zdf0b9dd1hp39180000gn/T//ccqDCcuM.s 			page 82


 4123      5200
 4124              	.LASF267:
 4125 0ad8 73647374 		.ascii	"sdstate_t\000"
 4125      6174655F 
 4125      7400
 4126              	.LASF102:
 4127 0ae2 41484231 		.ascii	"AHB1ENR\000"
 4127      454E5200 
 4128              	.LASF266:
 4129 0aea 53445F52 		.ascii	"SD_READY\000"
 4129      45414459 
 4129      00
 4130              	.LASF104:
 4131 0af3 41484233 		.ascii	"AHB3ENR\000"
 4131      454E5200 
 4132              	.LASF61:
 4133 0afb 725F6F6C 		.ascii	"r_older\000"
 4133      64657200 
 4134              	.LASF144:
 4135 0b03 746D5F63 		.ascii	"tm_calibration_t\000"
 4135      616C6962 
 4135      72617469 
 4135      6F6E5F74 
 4135      00
 4136              	.LASF96:
 4137 0b14 41484232 		.ascii	"AHB2RSTR\000"
 4137      52535452 
 4137      00
 4138              	.LASF287:
 4139 0b1d 74687265 		.ascii	"thread\000"
 4139      616400
 4140              	.LASF90:
 4141 0b24 4D304152 		.ascii	"M0AR\000"
 4141      00
 4142              	.LASF310:
 4143 0b29 706F7274 		.ascii	"port_lock\000"
 4143      5F6C6F63 
 4143      6B00
 4144              	.LASF153:
 4145 0b33 735F7175 		.ascii	"s_queue\000"
 4145      65756500 
 4146              	.LASF243:
 4147 0b3b 50574D5F 		.ascii	"PWM_READY\000"
 4147      52454144 
 4147      5900
 4148              	.LASF120:
 4149 0b45 5243435F 		.ascii	"RCC_TypeDef\000"
 4149      54797065 
 4149      44656600 
 4150              	.LASF7:
 4151 0b51 73686F72 		.ascii	"short int\000"
 4151      7420696E 
 4151      7400
 4152              	.LASF188:
 4153 0b5b 6576656E 		.ascii	"event_source\000"
 4153      745F736F 
 4153      75726365 
ARM GAS  /var/folders/qd/4mxf5pkd0zdf0b9dd1hp39180000gn/T//ccqDCcuM.s 			page 83


 4153      00
 4154              	.LASF20:
 4155 0b68 75696E74 		.ascii	"uint64_t\000"
 4155      36345F74 
 4155      00
 4156              	.LASF257:
 4157 0b71 6D6F6465 		.ascii	"mode\000"
 4157      00
 4158              	.LASF155:
 4159 0b76 63685F6D 		.ascii	"ch_mutex\000"
 4159      75746578 
 4159      00
 4160              	.LASF270:
 4161 0b7f 69717565 		.ascii	"iqueue\000"
 4161      756500
 4162              	.LASF58:
 4163 0b86 725F7072 		.ascii	"r_prio\000"
 4163      696F00
 4164              	.LASF301:
 4165 0b8d 56656374 		.ascii	"VectorB0\000"
 4165      6F724230 
 4165      00
 4166              	.LASF75:
 4167 0b96 63685F73 		.ascii	"ch_system_debug\000"
 4167      79737465 
 4167      6D5F6465 
 4167      62756700 
 4168              	.LASF170:
 4169 0ba6 63665F6F 		.ascii	"cf_off_older\000"
 4169      66665F6F 
 4169      6C646572 
 4169      00
 4170              	.LASF191:
 4171 0bb3 696F5F71 		.ascii	"io_queue_t\000"
 4171      75657565 
 4171      5F7400
 4172              	.LASF217:
 4173 0bbe 42535252 		.ascii	"BSRR\000"
 4173      00
 4174              	.LASF238:
 4175 0bc3 50414C43 		.ascii	"PALConfig\000"
 4175      6F6E6669 
 4175      6700
 4176              	.LASF80:
 4177 0bcd 76746C69 		.ascii	"vtlist\000"
 4177      737400
 4178              	.LASF262:
 4179 0bd4 50574D43 		.ascii	"PWMConfig\000"
 4179      6F6E6669 
 4179      6700
 4180              	.LASF180:
 4181 0bde 6D757465 		.ascii	"mutex_t\000"
 4181      785F7400 
 4182              	.LASF24:
 4183 0be6 74726566 		.ascii	"trefs_t\000"
 4183      735F7400 
 4184              	.LASF172:
ARM GAS  /var/folders/qd/4mxf5pkd0zdf0b9dd1hp39180000gn/T//ccqDCcuM.s 			page 84


 4185 0bee 63665F6F 		.ascii	"cf_off_stklimit\000"
 4185      66665F73 
 4185      746B6C69 
 4185      6D697400 
 4186              	.LASF50:
 4187 0bfe 74687265 		.ascii	"threads_list_t\000"
 4187      6164735F 
 4187      6C697374 
 4187      5F7400
 4188              	.LASF263:
 4189 0c0d 50574D44 		.ascii	"PWMD4\000"
 4189      3400
 4190              	.LASF78:
 4191 0c13 63685F73 		.ascii	"ch_system\000"
 4191      79737465 
 4191      6D00
 4192              	.LASF244:
 4193 0c1d 70776D73 		.ascii	"pwmstate_t\000"
 4193      74617465 
 4193      5F7400
 4194              	.LASF138:
 4195 0c28 42445452 		.ascii	"BDTR\000"
 4195      00
 4196              	.LASF311:
 4197 0c2d 6E766963 		.ascii	"nvicEnableVector\000"
 4197      456E6162 
 4197      6C655665 
 4197      63746F72 
 4197      00
 4198              	.LASF19:
 4199 0c3e 75696E74 		.ascii	"uint32_t\000"
 4199      33325F74 
 4199      00
 4200              	.LASF125:
 4201 0c47 49325350 		.ascii	"I2SPR\000"
 4201      5200
 4202              	.LASF202:
 4203 0c4d 696E7075 		.ascii	"input_queue_t\000"
 4203      745F7175 
 4203      6575655F 
 4203      7400
 4204              	.LASF284:
 4205 0c5b 5350495F 		.ascii	"SPI_COMPLETE\000"
 4205      434F4D50 
 4205      4C455445 
 4205      00
 4206              	.LASF234:
 4207 0c68 50464461 		.ascii	"PFData\000"
 4207      746100
 4208              	.LASF182:
 4209 0c6f 6576656E 		.ascii	"event_listener\000"
 4209      745F6C69 
 4209      7374656E 
 4209      657200
 4210              	.LASF145:
 4211 0c7e 7264796D 		.ascii	"rdymsg\000"
 4211      736700
ARM GAS  /var/folders/qd/4mxf5pkd0zdf0b9dd1hp39180000gn/T//ccqDCcuM.s 			page 85


 4212              	.LASF73:
 4213 0c85 76745F6C 		.ascii	"vt_lasttime\000"
 4213      61737474 
 4213      696D6500 
 4214              	.LASF9:
 4215 0c91 73686F72 		.ascii	"short unsigned int\000"
 4215      7420756E 
 4215      7369676E 
 4215      65642069 
 4215      6E7400
 4216              	.LASF77:
 4217 0ca4 63685F73 		.ascii	"ch_system_t\000"
 4217      79737465 
 4217      6D5F7400 
 4218              	.LASF178:
 4219 0cb0 63686465 		.ascii	"chdebug_t\000"
 4219      6275675F 
 4219      7400
 4220              	.LASF285:
 4221 0cba 73706973 		.ascii	"spistate_t\000"
 4221      74617465 
 4221      5F7400
 4222              	.LASF162:
 4223 0cc5 63685F73 		.ascii	"ch_size\000"
 4223      697A6500 
 4224              	.LASF203:
 4225 0ccd 6F757470 		.ascii	"output_queue_t\000"
 4225      75745F71 
 4225      75657565 
 4225      5F7400
 4226              	.LASF10:
 4227 0cdc 5F5F696E 		.ascii	"__int32_t\000"
 4227      7433325F 
 4227      7400
 4228              	.LASF265:
 4229 0ce6 53445F53 		.ascii	"SD_STOP\000"
 4229      544F5000 
 4230              	.LASF89:
 4231 0cee 4E445452 		.ascii	"NDTR\000"
 4231      00
 4232              	.LASF205:
 4233 0cf3 69666372 		.ascii	"ifcr\000"
 4233      00
 4234              	.LASF296:
 4235 0cf8 73737061 		.ascii	"sspad\000"
 4235      6400
 4236              	.LASF38:
 4237 0cfe 705F6E61 		.ascii	"p_name\000"
 4237      6D6500
 4238              	.LASF158:
 4239 0d05 6D5F6E65 		.ascii	"m_next\000"
 4239      787400
 4240              	.LASF292:
 4241 0d0c 7478646D 		.ascii	"txdmamode\000"
 4241      616D6F64 
 4241      6500
 4242              	.LASF316:
ARM GAS  /var/folders/qd/4mxf5pkd0zdf0b9dd1hp39180000gn/T//ccqDCcuM.s 			page 86


 4243 0d16 2F557365 		.ascii	"/Users/nicolas/Library/Mobile Documents/com~apple~C"
 4243      72732F6E 
 4243      69636F6C 
 4243      61732F4C 
 4243      69627261 
 4244 0d49 6C6F7564 		.ascii	"loudDocs/Projects/Cours/epuck_project/Sources/lib/C"
 4244      446F6373 
 4244      2F50726F 
 4244      6A656374 
 4244      732F436F 
 4245 0d7c 68696269 		.ascii	"hibiOS/demos/STM32/RT-STM32F407-DISCOVERY-G++/\000"
 4245      4F532F64 
 4245      656D6F73 
 4245      2F53544D 
 4245      33322F52 
 4246              	.LASF44:
 4247 0dab 705F6D73 		.ascii	"p_msg\000"
 4247      6700
 4248              	.LASF184:
 4249 0db1 656C5F6C 		.ascii	"el_listener\000"
 4249      69737465 
 4249      6E657200 
 4250              	.LASF39:
 4251 0dbd 705F7374 		.ascii	"p_state\000"
 4251      61746500 
 4252              		.ident	"GCC: (GNU Tools for Arm Embedded Processors 7-2017-q4-major) 7.2.1 20170904 (release) [ARM
ARM GAS  /var/folders/qd/4mxf5pkd0zdf0b9dd1hp39180000gn/T//ccqDCcuM.s 			page 87


DEFINED SYMBOLS
                            *ABS*:0000000000000000 st_lld.c
/var/folders/qd/4mxf5pkd0zdf0b9dd1hp39180000gn/T//ccqDCcuM.s:16     .text.VectorB0:0000000000000000 $t
/var/folders/qd/4mxf5pkd0zdf0b9dd1hp39180000gn/T//ccqDCcuM.s:24     .text.VectorB0:0000000000000000 VectorB0
/var/folders/qd/4mxf5pkd0zdf0b9dd1hp39180000gn/T//ccqDCcuM.s:111    .text.st_lld_init:0000000000000000 $t
/var/folders/qd/4mxf5pkd0zdf0b9dd1hp39180000gn/T//ccqDCcuM.s:119    .text.st_lld_init:0000000000000000 st_lld_init
/var/folders/qd/4mxf5pkd0zdf0b9dd1hp39180000gn/T//ccqDCcuM.s:189    .text.st_lld_init:0000000000000040 $d

UNDEFINED SYMBOLS
_port_irq_epilogue
chSysTimerHandlerI
nvicEnableVector
