ARM GAS  /var/folders/qd/4mxf5pkd0zdf0b9dd1hp39180000gn/T//ccqDCcuM.s 			page 1


   1              		.cpu cortex-m4
   2              		.eabi_attribute 20, 1
   3              		.eabi_attribute 21, 1
   4              		.eabi_attribute 23, 3
   5              		.eabi_attribute 24, 1
   6              		.eabi_attribute 25, 1
   7              		.eabi_attribute 26, 1
   8              		.eabi_attribute 30, 2
   9              		.eabi_attribute 34, 1
  10              		.eabi_attribute 18, 4
  11              		.file	"st_lld.c"
  12              		.text
  13              	.Ltext0:
  14              		.cfi_sections	.debug_frame
  15              		.section	.text.VectorB0,"ax",%progbits
  16              		.align	1
  17              		.p2align 4,,15
  18              		.global	VectorB0
  19              		.syntax unified
  20              		.thumb
  21              		.thumb_func
  22              		.fpu softvfp
  23              		.type	VectorB0, %function
  24              	VectorB0:
  25              	.LFB260:
  26              		.file 1 "../../../os/hal/ports/STM32/LLD/TIMv1/st_lld.c"
  27              		.loc 1 173 0
  28              		.cfi_startproc
  29              		@ args = 0, pretend = 0, frame = 0
  30              		@ frame_needed = 0, uses_anonymous_args = 0
  31              		.loc 1 180 0
  32 0000 4FF08043 		mov	r3, #1073741824
  33 0004 1A69     		ldr	r2, [r3, #16]
  34 0006 9207     		lsls	r2, r2, #30
  35 0008 01D4     		bmi	.L11
  36              		.loc 1 188 0
  37 000a FFF7FEBF 		b	_port_irq_epilogue
  38              	.LVL0:
  39              	.L11:
  40              		.loc 1 173 0
  41 000e 10B5     		push	{r4, lr}
  42              		.cfi_def_cfa_offset 8
  43              		.cfi_offset 4, -8
  44              		.cfi_offset 14, -4
  45              		.loc 1 181 0
  46 0010 0024     		movs	r4, #0
  47 0012 1C61     		str	r4, [r3, #16]
  48              	.LVL1:
  49              	.LBB52:
  50              	.LBB53:
  51              	.LBB54:
  52              	.LBB55:
  53              	.LBB56:
  54              	.LBB57:
  55              		.file 2 "../../../os/ext/CMSIS/include/core_cmFunc.h"
  56              		.loc 2 546 0
  57 0014 2023     		movs	r3, #32
ARM GAS  /var/folders/qd/4mxf5pkd0zdf0b9dd1hp39180000gn/T//ccqDCcuM.s 			page 2


  58              		.syntax unified
  59              	@ 546 "../../../os/ext/CMSIS/include/core_cmFunc.h" 1
  60 0016 83F31188 		MSR basepri, r3
  61              	@ 0 "" 2
  62              	.LVL2:
  63              		.thumb
  64              		.syntax unified
  65              	.LBE57:
  66              	.LBE56:
  67              	.LBE55:
  68              	.LBE54:
  69              	.LBE53:
  70              	.LBE52:
  71              	.LBB58:
  72              	.LBB59:
  73              		.file 3 "../../../os/hal/osal/rt/osal.h"
  74              		.loc 3 539 0
  75 001a FFF7FEFF 		bl	chSysTimerHandlerI
  76              	.LVL3:
  77              	.LBE59:
  78              	.LBE58:
  79              	.LBB60:
  80              	.LBB61:
  81              	.LBB62:
  82              	.LBB63:
  83              	.LBB64:
  84              	.LBB65:
  85              		.loc 2 546 0
  86              		.syntax unified
  87              	@ 546 "../../../os/ext/CMSIS/include/core_cmFunc.h" 1
  88 001e 84F31188 		MSR basepri, r4
  89              	@ 0 "" 2
  90              	.LVL4:
  91              		.thumb
  92              		.syntax unified
  93              	.LBE65:
  94              	.LBE64:
  95              	.LBE63:
  96              	.LBE62:
  97              	.LBE61:
  98              	.LBE60:
  99              		.loc 1 189 0
 100 0022 BDE81040 		pop	{r4, lr}
 101              		.cfi_restore 14
 102              		.cfi_restore 4
 103              		.cfi_def_cfa_offset 0
 104              		.loc 1 188 0
 105 0026 FFF7FEBF 		b	_port_irq_epilogue
 106              	.LVL5:
 107              		.cfi_endproc
 108              	.LFE260:
 109              		.size	VectorB0, .-VectorB0
 110 002a 00BF     		.section	.text.st_lld_init,"ax",%progbits
 111              		.align	1
 112              		.p2align 4,,15
 113              		.global	st_lld_init
 114              		.syntax unified
ARM GAS  /var/folders/qd/4mxf5pkd0zdf0b9dd1hp39180000gn/T//ccqDCcuM.s 			page 3


 115              		.thumb
 116              		.thumb_func
 117              		.fpu softvfp
 118              		.type	st_lld_init, %function
 119              	st_lld_init:
 120              	.LFB261:
 121              		.loc 1 201 0
 122              		.cfi_startproc
 123              		@ args = 0, pretend = 0, frame = 0
 124              		@ frame_needed = 0, uses_anonymous_args = 0
 125              		@ link register save eliminated.
 126              		.loc 1 207 0
 127 0000 0F4A     		ldr	r2, .L14
 128              		.loc 1 210 0
 129 0002 1048     		ldr	r0, .L14+4
 130              		.loc 1 207 0
 131 0004 136C     		ldr	r3, [r2, #64]
 132              		.loc 1 201 0
 133 0006 70B4     		push	{r4, r5, r6}
 134              		.cfi_def_cfa_offset 12
 135              		.cfi_offset 4, -12
 136              		.cfi_offset 5, -8
 137              		.cfi_offset 6, -4
 138              		.loc 1 207 0
 139 0008 43F00103 		orr	r3, r3, #1
 140 000c 1364     		str	r3, [r2, #64]
 141              		.loc 1 210 0
 142 000e 8168     		ldr	r1, [r0, #8]
 143              		.loc 1 213 0
 144 0010 4FF08043 		mov	r3, #1073741824
 145              		.loc 1 215 0
 146 0014 0022     		movs	r2, #0
 147              		.loc 1 219 0
 148 0016 0124     		movs	r4, #1
 149              		.loc 1 210 0
 150 0018 41F00101 		orr	r1, r1, #1
 151              		.loc 1 213 0
 152 001c 42F2CF06 		movw	r6, #8399
 153              		.loc 1 214 0
 154 0020 4FF0FF35 		mov	r5, #-1
 155              		.loc 1 210 0
 156 0024 8160     		str	r1, [r0, #8]
 157              		.loc 1 213 0
 158 0026 9E62     		str	r6, [r3, #40]
 159              		.loc 1 223 0
 160 0028 0821     		movs	r1, #8
 161              		.loc 1 214 0
 162 002a DD62     		str	r5, [r3, #44]
 163              		.loc 1 223 0
 164 002c 1C20     		movs	r0, #28
 165              		.loc 1 215 0
 166 002e 9A61     		str	r2, [r3, #24]
 167              		.loc 1 216 0
 168 0030 5A63     		str	r2, [r3, #52]
 169              		.loc 1 217 0
 170 0032 DA60     		str	r2, [r3, #12]
 171              		.loc 1 218 0
ARM GAS  /var/folders/qd/4mxf5pkd0zdf0b9dd1hp39180000gn/T//ccqDCcuM.s 			page 4


 172 0034 5A60     		str	r2, [r3, #4]
 173              		.loc 1 219 0
 174 0036 5C61     		str	r4, [r3, #20]
 175              		.loc 1 220 0
 176 0038 1C60     		str	r4, [r3]
 177              		.loc 1 238 0
 178 003a 70BC     		pop	{r4, r5, r6}
 179              		.cfi_restore 6
 180              		.cfi_restore 5
 181              		.cfi_restore 4
 182              		.cfi_def_cfa_offset 0
 183              		.loc 1 223 0
 184 003c FFF7FEBF 		b	nvicEnableVector
 185              	.LVL6:
 186              	.L15:
 187              		.align	2
 188              	.L14:
 189 0040 00380240 		.word	1073887232
 190 0044 002004E0 		.word	-536600576
 191              		.cfi_endproc
 192              	.LFE261:
 193              		.size	st_lld_init, .-st_lld_init
 194              		.text
 195              	.Letext0:
 196              		.file 4 "/Applications/Eclipse_e-puck2.app/Contents/Eclipse_e-puck2/Tools/gcc-arm-none-eabi-7-2017
 197              		.file 5 "/Applications/Eclipse_e-puck2.app/Contents/Eclipse_e-puck2/Tools/gcc-arm-none-eabi-7-2017
 198              		.file 6 "/Applications/Eclipse_e-puck2.app/Contents/Eclipse_e-puck2/Tools/gcc-arm-none-eabi-7-2017
 199              		.file 7 "../../../os/rt/ports/ARMCMx/compilers/GCC/chtypes.h"
 200              		.file 8 "../../../os/rt/include/chsystypes.h"
 201              		.file 9 "../../../os/rt/include/chschd.h"
 202              		.file 10 "../../../os/ext/CMSIS/include/core_cm4.h"
 203              		.file 11 "../../../os/ext/CMSIS/ST/system_stm32f4xx.h"
 204              		.file 12 "../../../os/ext/CMSIS/ST/stm32f407xx.h"
 205              		.file 13 "../../../os/rt/ports/ARMCMx/chcore.h"
 206              		.file 14 "../../../os/rt/ports/ARMCMx/chcore_v7m.h"
 207              		.file 15 "../../../os/hal/ports/STM32/LLD/TIMv1/stm32_tim.h"
 208              		.file 16 "../../../os/rt/include/chtm.h"
 209              		.file 17 "../../../os/rt/include/chsem.h"
 210              		.file 18 "../../../os/rt/include/chmtx.h"
 211              		.file 19 "../../../os/rt/include/chregistry.h"
 212              		.file 20 "../../../os/rt/include/chevents.h"
 213              		.file 21 "../../../os/rt/include/chqueues.h"
 214              		.file 22 "../../../os/hal/ports/STM32/STM32F4xx/stm32_dma.h"
 215              		.file 23 "../../../os/hal/ports/STM32/LLD/GPIOv2/pal_lld.h"
 216              		.file 24 "../../../os/hal/include/pwm.h"
 217              		.file 25 "../../../os/hal/ports/STM32/LLD/TIMv1/pwm_lld.h"
 218              		.file 26 "../../../os/hal/include/serial.h"
 219              		.file 27 "../../../os/hal/ports/STM32/LLD/USARTv1/serial_lld.h"
 220              		.file 28 "../../../os/hal/include/spi.h"
 221              		.file 29 "../../../os/hal/ports/STM32/LLD/SPIv1/spi_lld.h"
 222              		.file 30 "../../../os/rt/include/chsys.h"
 223              		.file 31 "../../../os/hal/ports/common/ARMCMx/nvic.h"