ARM GAS  /var/folders/qd/4mxf5pkd0zdf0b9dd1hp39180000gn/T//ccujoLrR.s 			page 1


   1              		.cpu cortex-m4
   2              		.eabi_attribute 20, 1
   3              		.eabi_attribute 21, 1
   4              		.eabi_attribute 23, 3
   5              		.eabi_attribute 24, 1
   6              		.eabi_attribute 25, 1
   7              		.eabi_attribute 26, 1
   8              		.eabi_attribute 30, 2
   9              		.eabi_attribute 34, 1
  10              		.eabi_attribute 18, 4
  11              		.file	"stm32_dma.c"
  12              		.text
  13              	.Ltext0:
  14              		.cfi_sections	.debug_frame
  15              		.section	.text.Vector6C,"ax",%progbits
  16              		.align	1
  17              		.p2align 4,,15
  18              		.global	Vector6C
  19              		.syntax unified
  20              		.thumb
  21              		.thumb_func
  22              		.fpu softvfp
  23              		.type	Vector6C, %function
  24              	Vector6C:
  25              	.LFB260:
  26              		.file 1 "../../../os/hal/ports/STM32/STM32F4xx/stm32_dma.c"
  27              		.loc 1 127 0
  28              		.cfi_startproc
  29              		@ args = 0, pretend = 0, frame = 0
  30              		@ frame_needed = 0, uses_anonymous_args = 0
  31 0000 08B5     		push	{r3, lr}
  32              		.cfi_def_cfa_offset 8
  33              		.cfi_offset 3, -8
  34              		.cfi_offset 14, -4
  35              		.loc 1 132 0
  36 0002 074B     		ldr	r3, .L8
  37              		.loc 1 134 0
  38 0004 074A     		ldr	r2, .L8+4
  39              		.loc 1 132 0
  40 0006 1968     		ldr	r1, [r3]
  41 0008 01F03D01 		and	r1, r1, #61
  42              	.LVL0:
  43              		.loc 1 133 0
  44 000c 9960     		str	r1, [r3, #8]
  45              		.loc 1 134 0
  46 000e 1368     		ldr	r3, [r2]
  47 0010 0BB1     		cbz	r3, .L2
  48              		.loc 1 135 0
  49 0012 5068     		ldr	r0, [r2, #4]
  50 0014 9847     		blx	r3
  51              	.LVL1:
  52              	.L2:
  53              		.loc 1 138 0
  54 0016 BDE80840 		pop	{r3, lr}
  55              		.cfi_restore 14
  56              		.cfi_restore 3
  57              		.cfi_def_cfa_offset 0
ARM GAS  /var/folders/qd/4mxf5pkd0zdf0b9dd1hp39180000gn/T//ccujoLrR.s 			page 2


  58              		.loc 1 137 0
  59 001a FFF7FEBF 		b	_port_irq_epilogue
  60              	.LVL2:
  61              	.L9:
  62 001e 00BF     		.align	2
  63              	.L8:
  64 0020 00600240 		.word	1073897472
  65 0024 00000000 		.word	.LANCHOR0
  66              		.cfi_endproc
  67              	.LFE260:
  68              		.size	Vector6C, .-Vector6C
  69              		.section	.text.Vector70,"ax",%progbits
  70              		.align	1
  71              		.p2align 4,,15
  72              		.global	Vector70
  73              		.syntax unified
  74              		.thumb
  75              		.thumb_func
  76              		.fpu softvfp
  77              		.type	Vector70, %function
  78              	Vector70:
  79              	.LFB261:
  80              		.loc 1 145 0
  81              		.cfi_startproc
  82              		@ args = 0, pretend = 0, frame = 0
  83              		@ frame_needed = 0, uses_anonymous_args = 0
  84              		.loc 1 150 0
  85 0000 084B     		ldr	r3, .L16
  86              		.loc 1 152 0
  87 0002 0948     		ldr	r0, .L16+4
  88              		.loc 1 150 0
  89 0004 1968     		ldr	r1, [r3]
  90              		.loc 1 152 0
  91 0006 8268     		ldr	r2, [r0, #8]
  92              		.loc 1 150 0
  93 0008 8909     		lsrs	r1, r1, #6
  94 000a 01F03D01 		and	r1, r1, #61
  95              	.LVL3:
  96              		.loc 1 145 0
  97 000e 10B5     		push	{r4, lr}
  98              		.cfi_def_cfa_offset 8
  99              		.cfi_offset 4, -8
 100              		.cfi_offset 14, -4
 101              		.loc 1 151 0
 102 0010 8C01     		lsls	r4, r1, #6
 103 0012 9C60     		str	r4, [r3, #8]
 104              		.loc 1 152 0
 105 0014 0AB1     		cbz	r2, .L11
 106              		.loc 1 153 0
 107 0016 C068     		ldr	r0, [r0, #12]
 108 0018 9047     		blx	r2
 109              	.LVL4:
 110              	.L11:
 111              		.loc 1 156 0
 112 001a BDE81040 		pop	{r4, lr}
 113              		.cfi_restore 14
 114              		.cfi_restore 4
ARM GAS  /var/folders/qd/4mxf5pkd0zdf0b9dd1hp39180000gn/T//ccujoLrR.s 			page 3


 115              		.cfi_def_cfa_offset 0
 116              		.loc 1 155 0
 117 001e FFF7FEBF 		b	_port_irq_epilogue
 118              	.LVL5:
 119              	.L17:
 120 0022 00BF     		.align	2
 121              	.L16:
 122 0024 00600240 		.word	1073897472
 123 0028 00000000 		.word	.LANCHOR0
 124              		.cfi_endproc
 125              	.LFE261:
 126              		.size	Vector70, .-Vector70
 127              		.section	.text.Vector74,"ax",%progbits
 128              		.align	1
 129              		.p2align 4,,15
 130              		.global	Vector74
 131              		.syntax unified
 132              		.thumb
 133              		.thumb_func
 134              		.fpu softvfp
 135              		.type	Vector74, %function
 136              	Vector74:
 137              	.LFB262:
 138              		.loc 1 163 0
 139              		.cfi_startproc
 140              		@ args = 0, pretend = 0, frame = 0
 141              		@ frame_needed = 0, uses_anonymous_args = 0
 142              		.loc 1 168 0
 143 0000 084B     		ldr	r3, .L24
 144              		.loc 1 170 0
 145 0002 0948     		ldr	r0, .L24+4
 146              		.loc 1 168 0
 147 0004 1968     		ldr	r1, [r3]
 148              		.loc 1 170 0
 149 0006 0269     		ldr	r2, [r0, #16]
 150              		.loc 1 168 0
 151 0008 090C     		lsrs	r1, r1, #16
 152 000a 01F03D01 		and	r1, r1, #61
 153              	.LVL6:
 154              		.loc 1 163 0
 155 000e 10B5     		push	{r4, lr}
 156              		.cfi_def_cfa_offset 8
 157              		.cfi_offset 4, -8
 158              		.cfi_offset 14, -4
 159              		.loc 1 169 0
 160 0010 0C04     		lsls	r4, r1, #16
 161 0012 9C60     		str	r4, [r3, #8]
 162              		.loc 1 170 0
 163 0014 0AB1     		cbz	r2, .L19
 164              		.loc 1 171 0
 165 0016 4069     		ldr	r0, [r0, #20]
 166 0018 9047     		blx	r2
 167              	.LVL7:
 168              	.L19:
 169              		.loc 1 174 0
 170 001a BDE81040 		pop	{r4, lr}
 171              		.cfi_restore 14
ARM GAS  /var/folders/qd/4mxf5pkd0zdf0b9dd1hp39180000gn/T//ccujoLrR.s 			page 4


 172              		.cfi_restore 4
 173              		.cfi_def_cfa_offset 0
 174              		.loc 1 173 0
 175 001e FFF7FEBF 		b	_port_irq_epilogue
 176              	.LVL8:
 177              	.L25:
 178 0022 00BF     		.align	2
 179              	.L24:
 180 0024 00600240 		.word	1073897472
 181 0028 00000000 		.word	.LANCHOR0
 182              		.cfi_endproc
 183              	.LFE262:
 184              		.size	Vector74, .-Vector74
 185              		.section	.text.Vector78,"ax",%progbits
 186              		.align	1
 187              		.p2align 4,,15
 188              		.global	Vector78
 189              		.syntax unified
 190              		.thumb
 191              		.thumb_func
 192              		.fpu softvfp
 193              		.type	Vector78, %function
 194              	Vector78:
 195              	.LFB263:
 196              		.loc 1 181 0
 197              		.cfi_startproc
 198              		@ args = 0, pretend = 0, frame = 0
 199              		@ frame_needed = 0, uses_anonymous_args = 0
 200              		.loc 1 186 0
 201 0000 084B     		ldr	r3, .L32
 202              		.loc 1 188 0
 203 0002 0948     		ldr	r0, .L32+4
 204              		.loc 1 186 0
 205 0004 1968     		ldr	r1, [r3]
 206              		.loc 1 188 0
 207 0006 8269     		ldr	r2, [r0, #24]
 208              		.loc 1 186 0
 209 0008 890D     		lsrs	r1, r1, #22
 210 000a 01F03D01 		and	r1, r1, #61
 211              	.LVL9:
 212              		.loc 1 181 0
 213 000e 10B5     		push	{r4, lr}
 214              		.cfi_def_cfa_offset 8
 215              		.cfi_offset 4, -8
 216              		.cfi_offset 14, -4
 217              		.loc 1 187 0
 218 0010 8C05     		lsls	r4, r1, #22
 219 0012 9C60     		str	r4, [r3, #8]
 220              		.loc 1 188 0
 221 0014 0AB1     		cbz	r2, .L27
 222              		.loc 1 189 0
 223 0016 C069     		ldr	r0, [r0, #28]
 224 0018 9047     		blx	r2
 225              	.LVL10:
 226              	.L27:
 227              		.loc 1 192 0
 228 001a BDE81040 		pop	{r4, lr}
ARM GAS  /var/folders/qd/4mxf5pkd0zdf0b9dd1hp39180000gn/T//ccujoLrR.s 			page 5


 229              		.cfi_restore 14
 230              		.cfi_restore 4
 231              		.cfi_def_cfa_offset 0
 232              		.loc 1 191 0
 233 001e FFF7FEBF 		b	_port_irq_epilogue
 234              	.LVL11:
 235              	.L33:
 236 0022 00BF     		.align	2
 237              	.L32:
 238 0024 00600240 		.word	1073897472
 239 0028 00000000 		.word	.LANCHOR0
 240              		.cfi_endproc
 241              	.LFE263:
 242              		.size	Vector78, .-Vector78
 243              		.section	.text.Vector7C,"ax",%progbits
 244              		.align	1
 245              		.p2align 4,,15
 246              		.global	Vector7C
 247              		.syntax unified
 248              		.thumb
 249              		.thumb_func
 250              		.fpu softvfp
 251              		.type	Vector7C, %function
 252              	Vector7C:
 253              	.LFB264:
 254              		.loc 1 199 0
 255              		.cfi_startproc
 256              		@ args = 0, pretend = 0, frame = 0
 257              		@ frame_needed = 0, uses_anonymous_args = 0
 258 0000 08B5     		push	{r3, lr}
 259              		.cfi_def_cfa_offset 8
 260              		.cfi_offset 3, -8
 261              		.cfi_offset 14, -4
 262              		.loc 1 204 0
 263 0002 074B     		ldr	r3, .L40
 264              		.loc 1 206 0
 265 0004 0748     		ldr	r0, .L40+4
 266              		.loc 1 204 0
 267 0006 5968     		ldr	r1, [r3, #4]
 268              		.loc 1 206 0
 269 0008 026A     		ldr	r2, [r0, #32]
 270              		.loc 1 204 0
 271 000a 01F03D01 		and	r1, r1, #61
 272              	.LVL12:
 273              		.loc 1 205 0
 274 000e D960     		str	r1, [r3, #12]
 275              		.loc 1 206 0
 276 0010 0AB1     		cbz	r2, .L35
 277              		.loc 1 207 0
 278 0012 406A     		ldr	r0, [r0, #36]
 279 0014 9047     		blx	r2
 280              	.LVL13:
 281              	.L35:
 282              		.loc 1 210 0
 283 0016 BDE80840 		pop	{r3, lr}
 284              		.cfi_restore 14
 285              		.cfi_restore 3
ARM GAS  /var/folders/qd/4mxf5pkd0zdf0b9dd1hp39180000gn/T//ccujoLrR.s 			page 6


 286              		.cfi_def_cfa_offset 0
 287              		.loc 1 209 0
 288 001a FFF7FEBF 		b	_port_irq_epilogue
 289              	.LVL14:
 290              	.L41:
 291 001e 00BF     		.align	2
 292              	.L40:
 293 0020 00600240 		.word	1073897472
 294 0024 00000000 		.word	.LANCHOR0
 295              		.cfi_endproc
 296              	.LFE264:
 297              		.size	Vector7C, .-Vector7C
 298              		.section	.text.Vector80,"ax",%progbits
 299              		.align	1
 300              		.p2align 4,,15
 301              		.global	Vector80
 302              		.syntax unified
 303              		.thumb
 304              		.thumb_func
 305              		.fpu softvfp
 306              		.type	Vector80, %function
 307              	Vector80:
 308              	.LFB265:
 309              		.loc 1 217 0
 310              		.cfi_startproc
 311              		@ args = 0, pretend = 0, frame = 0
 312              		@ frame_needed = 0, uses_anonymous_args = 0
 313              		.loc 1 222 0
 314 0000 084B     		ldr	r3, .L48
 315              		.loc 1 224 0
 316 0002 0948     		ldr	r0, .L48+4
 317              		.loc 1 222 0
 318 0004 5968     		ldr	r1, [r3, #4]
 319              		.loc 1 224 0
 320 0006 826A     		ldr	r2, [r0, #40]
 321              		.loc 1 222 0
 322 0008 8909     		lsrs	r1, r1, #6
 323 000a 01F03D01 		and	r1, r1, #61
 324              	.LVL15:
 325              		.loc 1 217 0
 326 000e 10B5     		push	{r4, lr}
 327              		.cfi_def_cfa_offset 8
 328              		.cfi_offset 4, -8
 329              		.cfi_offset 14, -4
 330              		.loc 1 223 0
 331 0010 8C01     		lsls	r4, r1, #6
 332 0012 DC60     		str	r4, [r3, #12]
 333              		.loc 1 224 0
 334 0014 0AB1     		cbz	r2, .L43
 335              		.loc 1 225 0
 336 0016 C06A     		ldr	r0, [r0, #44]
 337 0018 9047     		blx	r2
 338              	.LVL16:
 339              	.L43:
 340              		.loc 1 228 0
 341 001a BDE81040 		pop	{r4, lr}
 342              		.cfi_restore 14
ARM GAS  /var/folders/qd/4mxf5pkd0zdf0b9dd1hp39180000gn/T//ccujoLrR.s 			page 7


 343              		.cfi_restore 4
 344              		.cfi_def_cfa_offset 0
 345              		.loc 1 227 0
 346 001e FFF7FEBF 		b	_port_irq_epilogue
 347              	.LVL17:
 348              	.L49:
 349 0022 00BF     		.align	2
 350              	.L48:
 351 0024 00600240 		.word	1073897472
 352 0028 00000000 		.word	.LANCHOR0
 353              		.cfi_endproc
 354              	.LFE265:
 355              		.size	Vector80, .-Vector80
 356              		.section	.text.Vector84,"ax",%progbits
 357              		.align	1
 358              		.p2align 4,,15
 359              		.global	Vector84
 360              		.syntax unified
 361              		.thumb
 362              		.thumb_func
 363              		.fpu softvfp
 364              		.type	Vector84, %function
 365              	Vector84:
 366              	.LFB266:
 367              		.loc 1 235 0
 368              		.cfi_startproc
 369              		@ args = 0, pretend = 0, frame = 0
 370              		@ frame_needed = 0, uses_anonymous_args = 0
 371              		.loc 1 240 0
 372 0000 084B     		ldr	r3, .L56
 373              		.loc 1 242 0
 374 0002 0948     		ldr	r0, .L56+4
 375              		.loc 1 240 0
 376 0004 5968     		ldr	r1, [r3, #4]
 377              		.loc 1 242 0
 378 0006 026B     		ldr	r2, [r0, #48]
 379              		.loc 1 240 0
 380 0008 090C     		lsrs	r1, r1, #16
 381 000a 01F03D01 		and	r1, r1, #61
 382              	.LVL18:
 383              		.loc 1 235 0
 384 000e 10B5     		push	{r4, lr}
 385              		.cfi_def_cfa_offset 8
 386              		.cfi_offset 4, -8
 387              		.cfi_offset 14, -4
 388              		.loc 1 241 0
 389 0010 0C04     		lsls	r4, r1, #16
 390 0012 DC60     		str	r4, [r3, #12]
 391              		.loc 1 242 0
 392 0014 0AB1     		cbz	r2, .L51
 393              		.loc 1 243 0
 394 0016 406B     		ldr	r0, [r0, #52]
 395 0018 9047     		blx	r2
 396              	.LVL19:
 397              	.L51:
 398              		.loc 1 246 0
 399 001a BDE81040 		pop	{r4, lr}
ARM GAS  /var/folders/qd/4mxf5pkd0zdf0b9dd1hp39180000gn/T//ccujoLrR.s 			page 8


 400              		.cfi_restore 14
 401              		.cfi_restore 4
 402              		.cfi_def_cfa_offset 0
 403              		.loc 1 245 0
 404 001e FFF7FEBF 		b	_port_irq_epilogue
 405              	.LVL20:
 406              	.L57:
 407 0022 00BF     		.align	2
 408              	.L56:
 409 0024 00600240 		.word	1073897472
 410 0028 00000000 		.word	.LANCHOR0
 411              		.cfi_endproc
 412              	.LFE266:
 413              		.size	Vector84, .-Vector84
 414              		.section	.text.VectorFC,"ax",%progbits
 415              		.align	1
 416              		.p2align 4,,15
 417              		.global	VectorFC
 418              		.syntax unified
 419              		.thumb
 420              		.thumb_func
 421              		.fpu softvfp
 422              		.type	VectorFC, %function
 423              	VectorFC:
 424              	.LFB267:
 425              		.loc 1 253 0
 426              		.cfi_startproc
 427              		@ args = 0, pretend = 0, frame = 0
 428              		@ frame_needed = 0, uses_anonymous_args = 0
 429              		.loc 1 258 0
 430 0000 084B     		ldr	r3, .L64
 431              		.loc 1 260 0
 432 0002 0948     		ldr	r0, .L64+4
 433              		.loc 1 258 0
 434 0004 5968     		ldr	r1, [r3, #4]
 435              		.loc 1 260 0
 436 0006 826B     		ldr	r2, [r0, #56]
 437              		.loc 1 258 0
 438 0008 890D     		lsrs	r1, r1, #22
 439 000a 01F03D01 		and	r1, r1, #61
 440              	.LVL21:
 441              		.loc 1 253 0
 442 000e 10B5     		push	{r4, lr}
 443              		.cfi_def_cfa_offset 8
 444              		.cfi_offset 4, -8
 445              		.cfi_offset 14, -4
 446              		.loc 1 259 0
 447 0010 8C05     		lsls	r4, r1, #22
 448 0012 DC60     		str	r4, [r3, #12]
 449              		.loc 1 260 0
 450 0014 0AB1     		cbz	r2, .L59
 451              		.loc 1 261 0
 452 0016 C06B     		ldr	r0, [r0, #60]
 453 0018 9047     		blx	r2
 454              	.LVL22:
 455              	.L59:
 456              		.loc 1 264 0
ARM GAS  /var/folders/qd/4mxf5pkd0zdf0b9dd1hp39180000gn/T//ccujoLrR.s 			page 9


 457 001a BDE81040 		pop	{r4, lr}
 458              		.cfi_restore 14
 459              		.cfi_restore 4
 460              		.cfi_def_cfa_offset 0
 461              		.loc 1 263 0
 462 001e FFF7FEBF 		b	_port_irq_epilogue
 463              	.LVL23:
 464              	.L65:
 465 0022 00BF     		.align	2
 466              	.L64:
 467 0024 00600240 		.word	1073897472
 468 0028 00000000 		.word	.LANCHOR0
 469              		.cfi_endproc
 470              	.LFE267:
 471              		.size	VectorFC, .-VectorFC
 472              		.section	.text.Vector120,"ax",%progbits
 473              		.align	1
 474              		.p2align 4,,15
 475              		.global	Vector120
 476              		.syntax unified
 477              		.thumb
 478              		.thumb_func
 479              		.fpu softvfp
 480              		.type	Vector120, %function
 481              	Vector120:
 482              	.LFB268:
 483              		.loc 1 271 0
 484              		.cfi_startproc
 485              		@ args = 0, pretend = 0, frame = 0
 486              		@ frame_needed = 0, uses_anonymous_args = 0
 487 0000 08B5     		push	{r3, lr}
 488              		.cfi_def_cfa_offset 8
 489              		.cfi_offset 3, -8
 490              		.cfi_offset 14, -4
 491              		.loc 1 276 0
 492 0002 074B     		ldr	r3, .L72
 493              		.loc 1 278 0
 494 0004 0748     		ldr	r0, .L72+4
 495              		.loc 1 276 0
 496 0006 1968     		ldr	r1, [r3]
 497              		.loc 1 278 0
 498 0008 026C     		ldr	r2, [r0, #64]
 499              		.loc 1 276 0
 500 000a 01F03D01 		and	r1, r1, #61
 501              	.LVL24:
 502              		.loc 1 277 0
 503 000e 9960     		str	r1, [r3, #8]
 504              		.loc 1 278 0
 505 0010 0AB1     		cbz	r2, .L67
 506              		.loc 1 279 0
 507 0012 406C     		ldr	r0, [r0, #68]
 508 0014 9047     		blx	r2
 509              	.LVL25:
 510              	.L67:
 511              		.loc 1 282 0
 512 0016 BDE80840 		pop	{r3, lr}
 513              		.cfi_restore 14
ARM GAS  /var/folders/qd/4mxf5pkd0zdf0b9dd1hp39180000gn/T//ccujoLrR.s 			page 10


 514              		.cfi_restore 3
 515              		.cfi_def_cfa_offset 0
 516              		.loc 1 281 0
 517 001a FFF7FEBF 		b	_port_irq_epilogue
 518              	.LVL26:
 519              	.L73:
 520 001e 00BF     		.align	2
 521              	.L72:
 522 0020 00640240 		.word	1073898496
 523 0024 00000000 		.word	.LANCHOR0
 524              		.cfi_endproc
 525              	.LFE268:
 526              		.size	Vector120, .-Vector120
 527              		.section	.text.Vector124,"ax",%progbits
 528              		.align	1
 529              		.p2align 4,,15
 530              		.global	Vector124
 531              		.syntax unified
 532              		.thumb
 533              		.thumb_func
 534              		.fpu softvfp
 535              		.type	Vector124, %function
 536              	Vector124:
 537              	.LFB269:
 538              		.loc 1 289 0
 539              		.cfi_startproc
 540              		@ args = 0, pretend = 0, frame = 0
 541              		@ frame_needed = 0, uses_anonymous_args = 0
 542              		.loc 1 294 0
 543 0000 084B     		ldr	r3, .L80
 544              		.loc 1 296 0
 545 0002 0948     		ldr	r0, .L80+4
 546              		.loc 1 294 0
 547 0004 1968     		ldr	r1, [r3]
 548              		.loc 1 296 0
 549 0006 826C     		ldr	r2, [r0, #72]
 550              		.loc 1 294 0
 551 0008 8909     		lsrs	r1, r1, #6
 552 000a 01F03D01 		and	r1, r1, #61
 553              	.LVL27:
 554              		.loc 1 289 0
 555 000e 10B5     		push	{r4, lr}
 556              		.cfi_def_cfa_offset 8
 557              		.cfi_offset 4, -8
 558              		.cfi_offset 14, -4
 559              		.loc 1 295 0
 560 0010 8C01     		lsls	r4, r1, #6
 561 0012 9C60     		str	r4, [r3, #8]
 562              		.loc 1 296 0
 563 0014 0AB1     		cbz	r2, .L75
 564              		.loc 1 297 0
 565 0016 C06C     		ldr	r0, [r0, #76]
 566 0018 9047     		blx	r2
 567              	.LVL28:
 568              	.L75:
 569              		.loc 1 300 0
 570 001a BDE81040 		pop	{r4, lr}
ARM GAS  /var/folders/qd/4mxf5pkd0zdf0b9dd1hp39180000gn/T//ccujoLrR.s 			page 11


 571              		.cfi_restore 14
 572              		.cfi_restore 4
 573              		.cfi_def_cfa_offset 0
 574              		.loc 1 299 0
 575 001e FFF7FEBF 		b	_port_irq_epilogue
 576              	.LVL29:
 577              	.L81:
 578 0022 00BF     		.align	2
 579              	.L80:
 580 0024 00640240 		.word	1073898496
 581 0028 00000000 		.word	.LANCHOR0
 582              		.cfi_endproc
 583              	.LFE269:
 584              		.size	Vector124, .-Vector124
 585              		.section	.text.Vector128,"ax",%progbits
 586              		.align	1
 587              		.p2align 4,,15
 588              		.global	Vector128
 589              		.syntax unified
 590              		.thumb
 591              		.thumb_func
 592              		.fpu softvfp
 593              		.type	Vector128, %function
 594              	Vector128:
 595              	.LFB270:
 596              		.loc 1 307 0
 597              		.cfi_startproc
 598              		@ args = 0, pretend = 0, frame = 0
 599              		@ frame_needed = 0, uses_anonymous_args = 0
 600              		.loc 1 312 0
 601 0000 084B     		ldr	r3, .L88
 602              		.loc 1 314 0
 603 0002 0948     		ldr	r0, .L88+4
 604              		.loc 1 312 0
 605 0004 1968     		ldr	r1, [r3]
 606              		.loc 1 314 0
 607 0006 026D     		ldr	r2, [r0, #80]
 608              		.loc 1 312 0
 609 0008 090C     		lsrs	r1, r1, #16
 610 000a 01F03D01 		and	r1, r1, #61
 611              	.LVL30:
 612              		.loc 1 307 0
 613 000e 10B5     		push	{r4, lr}
 614              		.cfi_def_cfa_offset 8
 615              		.cfi_offset 4, -8
 616              		.cfi_offset 14, -4
 617              		.loc 1 313 0
 618 0010 0C04     		lsls	r4, r1, #16
 619 0012 9C60     		str	r4, [r3, #8]
 620              		.loc 1 314 0
 621 0014 0AB1     		cbz	r2, .L83
 622              		.loc 1 315 0
 623 0016 406D     		ldr	r0, [r0, #84]
 624 0018 9047     		blx	r2
 625              	.LVL31:
 626              	.L83:
 627              		.loc 1 318 0
ARM GAS  /var/folders/qd/4mxf5pkd0zdf0b9dd1hp39180000gn/T//ccujoLrR.s 			page 12


 628 001a BDE81040 		pop	{r4, lr}
 629              		.cfi_restore 14
 630              		.cfi_restore 4
 631              		.cfi_def_cfa_offset 0
 632              		.loc 1 317 0
 633 001e FFF7FEBF 		b	_port_irq_epilogue
 634              	.LVL32:
 635              	.L89:
 636 0022 00BF     		.align	2
 637              	.L88:
 638 0024 00640240 		.word	1073898496
 639 0028 00000000 		.word	.LANCHOR0
 640              		.cfi_endproc
 641              	.LFE270:
 642              		.size	Vector128, .-Vector128
 643              		.section	.text.Vector12C,"ax",%progbits
 644              		.align	1
 645              		.p2align 4,,15
 646              		.global	Vector12C
 647              		.syntax unified
 648              		.thumb
 649              		.thumb_func
 650              		.fpu softvfp
 651              		.type	Vector12C, %function
 652              	Vector12C:
 653              	.LFB271:
 654              		.loc 1 325 0
 655              		.cfi_startproc
 656              		@ args = 0, pretend = 0, frame = 0
 657              		@ frame_needed = 0, uses_anonymous_args = 0
 658              		.loc 1 330 0
 659 0000 084B     		ldr	r3, .L96
 660              		.loc 1 332 0
 661 0002 0948     		ldr	r0, .L96+4
 662              		.loc 1 330 0
 663 0004 1968     		ldr	r1, [r3]
 664              		.loc 1 332 0
 665 0006 826D     		ldr	r2, [r0, #88]
 666              		.loc 1 330 0
 667 0008 890D     		lsrs	r1, r1, #22
 668 000a 01F03D01 		and	r1, r1, #61
 669              	.LVL33:
 670              		.loc 1 325 0
 671 000e 10B5     		push	{r4, lr}
 672              		.cfi_def_cfa_offset 8
 673              		.cfi_offset 4, -8
 674              		.cfi_offset 14, -4
 675              		.loc 1 331 0
 676 0010 8C05     		lsls	r4, r1, #22
 677 0012 9C60     		str	r4, [r3, #8]
 678              		.loc 1 332 0
 679 0014 0AB1     		cbz	r2, .L91
 680              		.loc 1 333 0
 681 0016 C06D     		ldr	r0, [r0, #92]
 682 0018 9047     		blx	r2
 683              	.LVL34:
 684              	.L91:
ARM GAS  /var/folders/qd/4mxf5pkd0zdf0b9dd1hp39180000gn/T//ccujoLrR.s 			page 13


 685              		.loc 1 336 0
 686 001a BDE81040 		pop	{r4, lr}
 687              		.cfi_restore 14
 688              		.cfi_restore 4
 689              		.cfi_def_cfa_offset 0
 690              		.loc 1 335 0
 691 001e FFF7FEBF 		b	_port_irq_epilogue
 692              	.LVL35:
 693              	.L97:
 694 0022 00BF     		.align	2
 695              	.L96:
 696 0024 00640240 		.word	1073898496
 697 0028 00000000 		.word	.LANCHOR0
 698              		.cfi_endproc
 699              	.LFE271:
 700              		.size	Vector12C, .-Vector12C
 701              		.section	.text.Vector130,"ax",%progbits
 702              		.align	1
 703              		.p2align 4,,15
 704              		.global	Vector130
 705              		.syntax unified
 706              		.thumb
 707              		.thumb_func
 708              		.fpu softvfp
 709              		.type	Vector130, %function
 710              	Vector130:
 711              	.LFB272:
 712              		.loc 1 343 0
 713              		.cfi_startproc
 714              		@ args = 0, pretend = 0, frame = 0
 715              		@ frame_needed = 0, uses_anonymous_args = 0
 716 0000 08B5     		push	{r3, lr}
 717              		.cfi_def_cfa_offset 8
 718              		.cfi_offset 3, -8
 719              		.cfi_offset 14, -4
 720              		.loc 1 348 0
 721 0002 074B     		ldr	r3, .L104
 722              		.loc 1 350 0
 723 0004 0748     		ldr	r0, .L104+4
 724              		.loc 1 348 0
 725 0006 5968     		ldr	r1, [r3, #4]
 726              		.loc 1 350 0
 727 0008 026E     		ldr	r2, [r0, #96]
 728              		.loc 1 348 0
 729 000a 01F03D01 		and	r1, r1, #61
 730              	.LVL36:
 731              		.loc 1 349 0
 732 000e D960     		str	r1, [r3, #12]
 733              		.loc 1 350 0
 734 0010 0AB1     		cbz	r2, .L99
 735              		.loc 1 351 0
 736 0012 406E     		ldr	r0, [r0, #100]
 737 0014 9047     		blx	r2
 738              	.LVL37:
 739              	.L99:
 740              		.loc 1 354 0
 741 0016 BDE80840 		pop	{r3, lr}
ARM GAS  /var/folders/qd/4mxf5pkd0zdf0b9dd1hp39180000gn/T//ccujoLrR.s 			page 14


 742              		.cfi_restore 14
 743              		.cfi_restore 3
 744              		.cfi_def_cfa_offset 0
 745              		.loc 1 353 0
 746 001a FFF7FEBF 		b	_port_irq_epilogue
 747              	.LVL38:
 748              	.L105:
 749 001e 00BF     		.align	2
 750              	.L104:
 751 0020 00640240 		.word	1073898496
 752 0024 00000000 		.word	.LANCHOR0
 753              		.cfi_endproc
 754              	.LFE272:
 755              		.size	Vector130, .-Vector130
 756              		.section	.text.Vector150,"ax",%progbits
 757              		.align	1
 758              		.p2align 4,,15
 759              		.global	Vector150
 760              		.syntax unified
 761              		.thumb
 762              		.thumb_func
 763              		.fpu softvfp
 764              		.type	Vector150, %function
 765              	Vector150:
 766              	.LFB273:
 767              		.loc 1 361 0
 768              		.cfi_startproc
 769              		@ args = 0, pretend = 0, frame = 0
 770              		@ frame_needed = 0, uses_anonymous_args = 0
 771              		.loc 1 366 0
 772 0000 084B     		ldr	r3, .L112
 773              		.loc 1 368 0
 774 0002 0948     		ldr	r0, .L112+4
 775              		.loc 1 366 0
 776 0004 5968     		ldr	r1, [r3, #4]
 777              		.loc 1 368 0
 778 0006 826E     		ldr	r2, [r0, #104]
 779              		.loc 1 366 0
 780 0008 8909     		lsrs	r1, r1, #6
 781 000a 01F03D01 		and	r1, r1, #61
 782              	.LVL39:
 783              		.loc 1 361 0
 784 000e 10B5     		push	{r4, lr}
 785              		.cfi_def_cfa_offset 8
 786              		.cfi_offset 4, -8
 787              		.cfi_offset 14, -4
 788              		.loc 1 367 0
 789 0010 8C01     		lsls	r4, r1, #6
 790 0012 DC60     		str	r4, [r3, #12]
 791              		.loc 1 368 0
 792 0014 0AB1     		cbz	r2, .L107
 793              		.loc 1 369 0
 794 0016 C06E     		ldr	r0, [r0, #108]
 795 0018 9047     		blx	r2
 796              	.LVL40:
 797              	.L107:
 798              		.loc 1 372 0
ARM GAS  /var/folders/qd/4mxf5pkd0zdf0b9dd1hp39180000gn/T//ccujoLrR.s 			page 15


 799 001a BDE81040 		pop	{r4, lr}
 800              		.cfi_restore 14
 801              		.cfi_restore 4
 802              		.cfi_def_cfa_offset 0
 803              		.loc 1 371 0
 804 001e FFF7FEBF 		b	_port_irq_epilogue
 805              	.LVL41:
 806              	.L113:
 807 0022 00BF     		.align	2
 808              	.L112:
 809 0024 00640240 		.word	1073898496
 810 0028 00000000 		.word	.LANCHOR0
 811              		.cfi_endproc
 812              	.LFE273:
 813              		.size	Vector150, .-Vector150
 814              		.section	.text.Vector154,"ax",%progbits
 815              		.align	1
 816              		.p2align 4,,15
 817              		.global	Vector154
 818              		.syntax unified
 819              		.thumb
 820              		.thumb_func
 821              		.fpu softvfp
 822              		.type	Vector154, %function
 823              	Vector154:
 824              	.LFB274:
 825              		.loc 1 379 0
 826              		.cfi_startproc
 827              		@ args = 0, pretend = 0, frame = 0
 828              		@ frame_needed = 0, uses_anonymous_args = 0
 829              		.loc 1 384 0
 830 0000 084B     		ldr	r3, .L120
 831              		.loc 1 386 0
 832 0002 0948     		ldr	r0, .L120+4
 833              		.loc 1 384 0
 834 0004 5968     		ldr	r1, [r3, #4]
 835              		.loc 1 386 0
 836 0006 026F     		ldr	r2, [r0, #112]
 837              		.loc 1 384 0
 838 0008 090C     		lsrs	r1, r1, #16
 839 000a 01F03D01 		and	r1, r1, #61
 840              	.LVL42:
 841              		.loc 1 379 0
 842 000e 10B5     		push	{r4, lr}
 843              		.cfi_def_cfa_offset 8
 844              		.cfi_offset 4, -8
 845              		.cfi_offset 14, -4
 846              		.loc 1 385 0
 847 0010 0C04     		lsls	r4, r1, #16
 848 0012 DC60     		str	r4, [r3, #12]
 849              		.loc 1 386 0
 850 0014 0AB1     		cbz	r2, .L115
 851              		.loc 1 387 0
 852 0016 406F     		ldr	r0, [r0, #116]
 853 0018 9047     		blx	r2
 854              	.LVL43:
 855              	.L115:
ARM GAS  /var/folders/qd/4mxf5pkd0zdf0b9dd1hp39180000gn/T//ccujoLrR.s 			page 16


 856              		.loc 1 390 0
 857 001a BDE81040 		pop	{r4, lr}
 858              		.cfi_restore 14
 859              		.cfi_restore 4
 860              		.cfi_def_cfa_offset 0
 861              		.loc 1 389 0
 862 001e FFF7FEBF 		b	_port_irq_epilogue
 863              	.LVL44:
 864              	.L121:
 865 0022 00BF     		.align	2
 866              	.L120:
 867 0024 00640240 		.word	1073898496
 868 0028 00000000 		.word	.LANCHOR0
 869              		.cfi_endproc
 870              	.LFE274:
 871              		.size	Vector154, .-Vector154
 872              		.section	.text.Vector158,"ax",%progbits
 873              		.align	1
 874              		.p2align 4,,15
 875              		.global	Vector158
 876              		.syntax unified
 877              		.thumb
 878              		.thumb_func
 879              		.fpu softvfp
 880              		.type	Vector158, %function
 881              	Vector158:
 882              	.LFB275:
 883              		.loc 1 397 0
 884              		.cfi_startproc
 885              		@ args = 0, pretend = 0, frame = 0
 886              		@ frame_needed = 0, uses_anonymous_args = 0
 887              		.loc 1 402 0
 888 0000 084B     		ldr	r3, .L128
 889              		.loc 1 404 0
 890 0002 0948     		ldr	r0, .L128+4
 891              		.loc 1 402 0
 892 0004 5968     		ldr	r1, [r3, #4]
 893              		.loc 1 404 0
 894 0006 826F     		ldr	r2, [r0, #120]
 895              		.loc 1 402 0
 896 0008 890D     		lsrs	r1, r1, #22
 897 000a 01F03D01 		and	r1, r1, #61
 898              	.LVL45:
 899              		.loc 1 397 0
 900 000e 10B5     		push	{r4, lr}
 901              		.cfi_def_cfa_offset 8
 902              		.cfi_offset 4, -8
 903              		.cfi_offset 14, -4
 904              		.loc 1 403 0
 905 0010 8C05     		lsls	r4, r1, #22
 906 0012 DC60     		str	r4, [r3, #12]
 907              		.loc 1 404 0
 908 0014 0AB1     		cbz	r2, .L123
 909              		.loc 1 405 0
 910 0016 C06F     		ldr	r0, [r0, #124]
 911 0018 9047     		blx	r2
 912              	.LVL46:
ARM GAS  /var/folders/qd/4mxf5pkd0zdf0b9dd1hp39180000gn/T//ccujoLrR.s 			page 17


 913              	.L123:
 914              		.loc 1 408 0
 915 001a BDE81040 		pop	{r4, lr}
 916              		.cfi_restore 14
 917              		.cfi_restore 4
 918              		.cfi_def_cfa_offset 0
 919              		.loc 1 407 0
 920 001e FFF7FEBF 		b	_port_irq_epilogue
 921              	.LVL47:
 922              	.L129:
 923 0022 00BF     		.align	2
 924              	.L128:
 925 0024 00640240 		.word	1073898496
 926 0028 00000000 		.word	.LANCHOR0
 927              		.cfi_endproc
 928              	.LFE275:
 929              		.size	Vector158, .-Vector158
 930              		.section	.text.dmaInit,"ax",%progbits
 931              		.align	1
 932              		.p2align 4,,15
 933              		.global	dmaInit
 934              		.syntax unified
 935              		.thumb
 936              		.thumb_func
 937              		.fpu softvfp
 938              		.type	dmaInit, %function
 939              	dmaInit:
 940              	.LFB276:
 941              		.loc 1 419 0
 942              		.cfi_startproc
 943              		@ args = 0, pretend = 0, frame = 0
 944              		@ frame_needed = 0, uses_anonymous_args = 0
 945              		@ link register save eliminated.
 946              		.loc 1 422 0
 947 0000 0E49     		ldr	r1, .L136
 948 0002 0F4A     		ldr	r2, .L136+4
 949 0004 0F48     		ldr	r0, .L136+8
 950 0006 0023     		movs	r3, #0
 951              		.loc 1 419 0
 952 0008 10B4     		push	{r4}
 953              		.cfi_def_cfa_offset 4
 954              		.cfi_offset 4, -4
 955              		.loc 1 422 0
 956 000a 0B60     		str	r3, [r1]
 957              	.LVL48:
 958 000c 0E4C     		ldr	r4, .L136+12
 959              		.loc 1 424 0
 960 000e 1946     		mov	r1, r3
 961 0010 01E0     		b	.L132
 962              	.LVL49:
 963              	.L135:
 964 0012 52F80C0C 		ldr	r0, [r2, #-12]
 965              	.LVL50:
 966              	.L132:
 967              		.loc 1 424 0 is_stmt 0 discriminator 3
 968 0016 0160     		str	r1, [r0]
 969              		.loc 1 425 0 is_stmt 1 discriminator 3
ARM GAS  /var/folders/qd/4mxf5pkd0zdf0b9dd1hp39180000gn/T//ccujoLrR.s 			page 18


 970 0018 44F83310 		str	r1, [r4, r3, lsl #3]
 971              		.loc 1 423 0 discriminator 3
 972 001c 0133     		adds	r3, r3, #1
 973              	.LVL51:
 974 001e 102B     		cmp	r3, #16
 975 0020 02F10C02 		add	r2, r2, #12
 976 0024 F5D1     		bne	.L135
 977              		.loc 1 427 0
 978 0026 0949     		ldr	r1, .L136+16
 979              		.loc 1 429 0
 980 0028 094A     		ldr	r2, .L136+20
 981              		.loc 1 431 0
 982 002a 10BC     		pop	{r4}
 983              		.cfi_restore 4
 984              		.cfi_def_cfa_offset 0
 985              		.loc 1 427 0
 986 002c 4FF0FF33 		mov	r3, #-1
 987              	.LVL52:
 988 0030 8B60     		str	r3, [r1, #8]
 989              		.loc 1 428 0
 990 0032 CB60     		str	r3, [r1, #12]
 991              		.loc 1 429 0
 992 0034 9360     		str	r3, [r2, #8]
 993              		.loc 1 430 0
 994 0036 D360     		str	r3, [r2, #12]
 995              		.loc 1 431 0
 996 0038 7047     		bx	lr
 997              	.L137:
 998 003a 00BF     		.align	2
 999              	.L136:
 1000 003c 00000000 		.word	.LANCHOR1
 1001 0040 0C000000 		.word	.LANCHOR2+12
 1002 0044 10600240 		.word	1073897488
 1003 0048 00000000 		.word	.LANCHOR0
 1004 004c 00600240 		.word	1073897472
 1005 0050 00640240 		.word	1073898496
 1006              		.cfi_endproc
 1007              	.LFE276:
 1008              		.size	dmaInit, .-dmaInit
 1009              		.section	.text.dmaStreamAllocate,"ax",%progbits
 1010              		.align	1
 1011              		.p2align 4,,15
 1012              		.global	dmaStreamAllocate
 1013              		.syntax unified
 1014              		.thumb
 1015              		.thumb_func
 1016              		.fpu softvfp
 1017              		.type	dmaStreamAllocate, %function
 1018              	dmaStreamAllocate:
 1019              	.LFB277:
 1020              		.loc 1 460 0
 1021              		.cfi_startproc
 1022              		@ args = 0, pretend = 0, frame = 0
 1023              		@ frame_needed = 0, uses_anonymous_args = 0
 1024              	.LVL53:
 1025 0000 F8B5     		push	{r3, r4, r5, r6, r7, lr}
 1026              		.cfi_def_cfa_offset 24
ARM GAS  /var/folders/qd/4mxf5pkd0zdf0b9dd1hp39180000gn/T//ccujoLrR.s 			page 19


 1027              		.cfi_offset 3, -24
 1028              		.cfi_offset 4, -20
 1029              		.cfi_offset 5, -16
 1030              		.cfi_offset 6, -12
 1031              		.cfi_offset 7, -8
 1032              		.cfi_offset 14, -4
 1033              		.loc 1 465 0
 1034 0002 204F     		ldr	r7, .L154
 1035 0004 467A     		ldrb	r6, [r0, #9]	@ zero_extendqisi2
 1036 0006 D7F800C0 		ldr	ip, [r7]
 1037 000a 0124     		movs	r4, #1
 1038 000c 04FA06F5 		lsl	r5, r4, r6
 1039 0010 15EA0C0F 		tst	r5, ip
 1040 0014 33D1     		bne	.L143
 1041              		.loc 1 469 0
 1042 0016 1C4C     		ldr	r4, .L154+4
 1043              		.loc 1 471 0
 1044 0018 45EA0C05 		orr	r5, r5, ip
 1045              		.loc 1 470 0
 1046 001c 04EBC60C 		add	ip, r4, r6, lsl #3
 1047              		.loc 1 474 0
 1048 0020 15F0FF0F 		tst	r5, #255
 1049              		.loc 1 471 0
 1050 0024 3D60     		str	r5, [r7]
 1051              		.loc 1 469 0
 1052 0026 44F83620 		str	r2, [r4, r6, lsl #3]
 1053              		.loc 1 470 0
 1054 002a CCF80430 		str	r3, [ip, #4]
 1055              		.loc 1 474 0
 1056 002e 04D0     		beq	.L140
 1057              		.loc 1 475 0
 1058 0030 164C     		ldr	r4, .L154+8
 1059 0032 236B     		ldr	r3, [r4, #48]
 1060              	.LVL54:
 1061 0034 43F40013 		orr	r3, r3, #2097152
 1062 0038 2363     		str	r3, [r4, #48]
 1063              	.L140:
 1064              		.loc 1 476 0
 1065 003a 15F47F4F 		tst	r5, #65280
 1066 003e 16D1     		bne	.L153
 1067              	.L141:
 1068              		.loc 1 480 0
 1069 0040 0568     		ldr	r5, [r0]
 1070 0042 2B68     		ldr	r3, [r5]
 1071 0044 23F01F03 		bic	r3, r3, #31
 1072 0048 2B60     		str	r3, [r5]
 1073              	.L142:
 1074              		.loc 1 480 0 is_stmt 0 discriminator 2
 1075 004a 2C68     		ldr	r4, [r5]
 1076 004c 14F00104 		ands	r4, r4, #1
 1077 0050 FBD1     		bne	.L142
 1078              		.loc 1 480 0 discriminator 3
 1079 0052 077A     		ldrb	r7, [r0, #8]	@ zero_extendqisi2
 1080 0054 4668     		ldr	r6, [r0, #4]
 1081 0056 3D23     		movs	r3, #61
 1082 0058 BB40     		lsls	r3, r3, r7
 1083              		.loc 1 482 0 is_stmt 1 discriminator 3
ARM GAS  /var/folders/qd/4mxf5pkd0zdf0b9dd1hp39180000gn/T//ccujoLrR.s 			page 20


 1084 005a 2127     		movs	r7, #33
 1085              		.loc 1 480 0 discriminator 3
 1086 005c 3360     		str	r3, [r6]
 1087              		.loc 1 481 0 discriminator 3
 1088 005e 2C60     		str	r4, [r5]
 1089              		.loc 1 482 0 discriminator 3
 1090 0060 6F61     		str	r7, [r5, #20]
 1091              		.loc 1 485 0 discriminator 3
 1092 0062 52B1     		cbz	r2, .L144
 1093              		.loc 1 486 0
 1094 0064 807A     		ldrb	r0, [r0, #10]	@ zero_extendqisi2
 1095              	.LVL55:
 1096 0066 FFF7FEFF 		bl	nvicEnableVector
 1097              	.LVL56:
 1098              		.loc 1 488 0
 1099 006a 2046     		mov	r0, r4
 1100              		.loc 1 489 0
 1101 006c F8BD     		pop	{r3, r4, r5, r6, r7, pc}
 1102              	.LVL57:
 1103              	.L153:
 1104              		.loc 1 477 0
 1105 006e 074C     		ldr	r4, .L154+8
 1106 0070 236B     		ldr	r3, [r4, #48]
 1107 0072 43F48003 		orr	r3, r3, #4194304
 1108 0076 2363     		str	r3, [r4, #48]
 1109 0078 E2E7     		b	.L141
 1110              	.L144:
 1111              		.loc 1 488 0
 1112 007a 1046     		mov	r0, r2
 1113              	.LVL58:
 1114              		.loc 1 489 0
 1115 007c F8BD     		pop	{r3, r4, r5, r6, r7, pc}
 1116              	.LVL59:
 1117              	.L143:
 1118              		.loc 1 466 0
 1119 007e 2046     		mov	r0, r4
 1120              	.LVL60:
 1121              		.loc 1 489 0
 1122 0080 F8BD     		pop	{r3, r4, r5, r6, r7, pc}
 1123              	.LVL61:
 1124              	.L155:
 1125 0082 00BF     		.align	2
 1126              	.L154:
 1127 0084 00000000 		.word	.LANCHOR1
 1128 0088 00000000 		.word	.LANCHOR0
 1129 008c 00380240 		.word	1073887232
 1130              		.cfi_endproc
 1131              	.LFE277:
 1132              		.size	dmaStreamAllocate, .-dmaStreamAllocate
 1133              		.section	.text.dmaStreamRelease,"ax",%progbits
 1134              		.align	1
 1135              		.p2align 4,,15
 1136              		.global	dmaStreamRelease
 1137              		.syntax unified
 1138              		.thumb
 1139              		.thumb_func
 1140              		.fpu softvfp
ARM GAS  /var/folders/qd/4mxf5pkd0zdf0b9dd1hp39180000gn/T//ccujoLrR.s 			page 21


 1141              		.type	dmaStreamRelease, %function
 1142              	dmaStreamRelease:
 1143              	.LFB278:
 1144              		.loc 1 504 0
 1145              		.cfi_startproc
 1146              		@ args = 0, pretend = 0, frame = 0
 1147              		@ frame_needed = 0, uses_anonymous_args = 0
 1148              	.LVL62:
 1149 0000 10B5     		push	{r4, lr}
 1150              		.cfi_def_cfa_offset 8
 1151              		.cfi_offset 4, -8
 1152              		.cfi_offset 14, -4
 1153              		.loc 1 504 0
 1154 0002 0446     		mov	r4, r0
 1155              		.loc 1 513 0
 1156 0004 807A     		ldrb	r0, [r0, #10]	@ zero_extendqisi2
 1157              	.LVL63:
 1158 0006 FFF7FEFF 		bl	nvicDisableVector
 1159              	.LVL64:
 1160              		.loc 1 516 0
 1161 000a 0C49     		ldr	r1, .L160
 1162 000c 607A     		ldrb	r0, [r4, #9]	@ zero_extendqisi2
 1163 000e 0B68     		ldr	r3, [r1]
 1164 0010 0122     		movs	r2, #1
 1165 0012 8240     		lsls	r2, r2, r0
 1166 0014 23EA0203 		bic	r3, r3, r2
 1167              		.loc 1 519 0
 1168 0018 13F0FF0F 		tst	r3, #255
 1169              		.loc 1 516 0
 1170 001c 0B60     		str	r3, [r1]
 1171              		.loc 1 519 0
 1172 001e 04D1     		bne	.L157
 1173              		.loc 1 520 0
 1174 0020 0749     		ldr	r1, .L160+4
 1175 0022 0A6B     		ldr	r2, [r1, #48]
 1176 0024 22F40012 		bic	r2, r2, #2097152
 1177 0028 0A63     		str	r2, [r1, #48]
 1178              	.L157:
 1179              		.loc 1 521 0
 1180 002a 13F47F4F 		tst	r3, #65280
 1181 002e 04D1     		bne	.L156
 1182              		.loc 1 522 0
 1183 0030 034A     		ldr	r2, .L160+4
 1184 0032 136B     		ldr	r3, [r2, #48]
 1185 0034 23F48003 		bic	r3, r3, #4194304
 1186 0038 1363     		str	r3, [r2, #48]
 1187              	.L156:
 1188              		.loc 1 523 0
 1189 003a 10BD     		pop	{r4, pc}
 1190              	.LVL65:
 1191              	.L161:
 1192              		.align	2
 1193              	.L160:
 1194 003c 00000000 		.word	.LANCHOR1
 1195 0040 00380240 		.word	1073887232
 1196              		.cfi_endproc
 1197              	.LFE278:
ARM GAS  /var/folders/qd/4mxf5pkd0zdf0b9dd1hp39180000gn/T//ccujoLrR.s 			page 22


 1198              		.size	dmaStreamRelease, .-dmaStreamRelease
 1199              		.global	_stm32_dma_streams
 1200              		.section	.bss.dma_isr_redir,"aw",%nobits
 1201              		.align	2
 1202              		.set	.LANCHOR0,. + 0
 1203              		.type	dma_isr_redir, %object
 1204              		.size	dma_isr_redir, 128
 1205              	dma_isr_redir:
 1206 0000 00000000 		.space	128
 1206      00000000 
 1206      00000000 
 1206      00000000 
 1206      00000000 
 1207              		.section	.bss.dma_streams_mask,"aw",%nobits
 1208              		.align	2
 1209              		.set	.LANCHOR1,. + 0
 1210              		.type	dma_streams_mask, %object
 1211              		.size	dma_streams_mask, 4
 1212              	dma_streams_mask:
 1213 0000 00000000 		.space	4
 1214              		.section	.rodata._stm32_dma_streams,"a",%progbits
 1215              		.align	2
 1216              		.set	.LANCHOR2,. + 0
 1217              		.type	_stm32_dma_streams, %object
 1218              		.size	_stm32_dma_streams, 192
 1219              	_stm32_dma_streams:
 1220 0000 10600240 		.word	1073897488
 1221 0004 08600240 		.word	1073897480
 1222 0008 00       		.byte	0
 1223 0009 00       		.byte	0
 1224 000a 0B       		.byte	11
 1225 000b 00       		.space	1
 1226 000c 28600240 		.word	1073897512
 1227 0010 08600240 		.word	1073897480
 1228 0014 06       		.byte	6
 1229 0015 01       		.byte	1
 1230 0016 0C       		.byte	12
 1231 0017 00       		.space	1
 1232 0018 40600240 		.word	1073897536
 1233 001c 08600240 		.word	1073897480
 1234 0020 10       		.byte	16
 1235 0021 02       		.byte	2
 1236 0022 0D       		.byte	13
 1237 0023 00       		.space	1
 1238 0024 58600240 		.word	1073897560
 1239 0028 08600240 		.word	1073897480
 1240 002c 16       		.byte	22
 1241 002d 03       		.byte	3
 1242 002e 0E       		.byte	14
 1243 002f 00       		.space	1
 1244 0030 70600240 		.word	1073897584
 1245 0034 0C600240 		.word	1073897484
 1246 0038 00       		.byte	0
 1247 0039 04       		.byte	4
 1248 003a 0F       		.byte	15
 1249 003b 00       		.space	1
 1250 003c 88600240 		.word	1073897608
ARM GAS  /var/folders/qd/4mxf5pkd0zdf0b9dd1hp39180000gn/T//ccujoLrR.s 			page 23


 1251 0040 0C600240 		.word	1073897484
 1252 0044 06       		.byte	6
 1253 0045 05       		.byte	5
 1254 0046 10       		.byte	16
 1255 0047 00       		.space	1
 1256 0048 A0600240 		.word	1073897632
 1257 004c 0C600240 		.word	1073897484
 1258 0050 10       		.byte	16
 1259 0051 06       		.byte	6
 1260 0052 11       		.byte	17
 1261 0053 00       		.space	1
 1262 0054 B8600240 		.word	1073897656
 1263 0058 0C600240 		.word	1073897484
 1264 005c 16       		.byte	22
 1265 005d 07       		.byte	7
 1266 005e 2F       		.byte	47
 1267 005f 00       		.space	1
 1268 0060 10640240 		.word	1073898512
 1269 0064 08640240 		.word	1073898504
 1270 0068 00       		.byte	0
 1271 0069 08       		.byte	8
 1272 006a 38       		.byte	56
 1273 006b 00       		.space	1
 1274 006c 28640240 		.word	1073898536
 1275 0070 08640240 		.word	1073898504
 1276 0074 06       		.byte	6
 1277 0075 09       		.byte	9
 1278 0076 39       		.byte	57
 1279 0077 00       		.space	1
 1280 0078 40640240 		.word	1073898560
 1281 007c 08640240 		.word	1073898504
 1282 0080 10       		.byte	16
 1283 0081 0A       		.byte	10
 1284 0082 3A       		.byte	58
 1285 0083 00       		.space	1
 1286 0084 58640240 		.word	1073898584
 1287 0088 08640240 		.word	1073898504
 1288 008c 16       		.byte	22
 1289 008d 0B       		.byte	11
 1290 008e 3B       		.byte	59
 1291 008f 00       		.space	1
 1292 0090 70640240 		.word	1073898608
 1293 0094 0C640240 		.word	1073898508
 1294 0098 00       		.byte	0
 1295 0099 0C       		.byte	12
 1296 009a 3C       		.byte	60
 1297 009b 00       		.space	1
 1298 009c 88640240 		.word	1073898632
 1299 00a0 0C640240 		.word	1073898508
 1300 00a4 06       		.byte	6
 1301 00a5 0D       		.byte	13
 1302 00a6 44       		.byte	68
 1303 00a7 00       		.space	1
 1304 00a8 A0640240 		.word	1073898656
 1305 00ac 0C640240 		.word	1073898508
 1306 00b0 10       		.byte	16
 1307 00b1 0E       		.byte	14
ARM GAS  /var/folders/qd/4mxf5pkd0zdf0b9dd1hp39180000gn/T//ccujoLrR.s 			page 24


 1308 00b2 45       		.byte	69
 1309 00b3 00       		.space	1
 1310 00b4 B8640240 		.word	1073898680
 1311 00b8 0C640240 		.word	1073898508
 1312 00bc 16       		.byte	22
 1313 00bd 0F       		.byte	15
 1314 00be 46       		.byte	70
 1315 00bf 00       		.space	1
 1316              		.text
 1317              	.Letext0:
 1318              		.file 2 "/Applications/Eclipse_e-puck2.app/Contents/Eclipse_e-puck2/Tools/gcc-arm-none-eabi-7-2017
 1319              		.file 3 "/Applications/Eclipse_e-puck2.app/Contents/Eclipse_e-puck2/Tools/gcc-arm-none-eabi-7-2017
 1320              		.file 4 "/Applications/Eclipse_e-puck2.app/Contents/Eclipse_e-puck2/Tools/gcc-arm-none-eabi-7-2017
 1321              		.file 5 "../../../os/rt/ports/ARMCMx/compilers/GCC/chtypes.h"
 1322              		.file 6 "../../../os/rt/include/chsystypes.h"
 1323              		.file 7 "../../../os/rt/include/chschd.h"
 1324              		.file 8 "../../../os/ext/CMSIS/include/core_cm4.h"
 1325              		.file 9 "../../../os/ext/CMSIS/ST/system_stm32f4xx.h"
 1326              		.file 10 "../../../os/ext/CMSIS/ST/stm32f407xx.h"
 1327              		.file 11 "../../../os/rt/ports/ARMCMx/chcore.h"
 1328              		.file 12 "../../../os/rt/ports/ARMCMx/chcore_v7m.h"
 1329              		.file 13 "../../../os/hal/ports/STM32/LLD/TIMv1/stm32_tim.h"
 1330              		.file 14 "../../../os/rt/include/chtm.h"
 1331              		.file 15 "../../../os/rt/include/chsem.h"
 1332              		.file 16 "../../../os/rt/include/chmtx.h"
 1333              		.file 17 "../../../os/rt/include/chregistry.h"
 1334              		.file 18 "../../../os/rt/include/chevents.h"
 1335              		.file 19 "../../../os/rt/include/chqueues.h"
 1336              		.file 20 "../../../os/hal/ports/STM32/STM32F4xx/stm32_dma.h"
 1337              		.file 21 "../../../os/hal/ports/STM32/LLD/GPIOv2/pal_lld.h"
 1338              		.file 22 "../../../os/hal/include/pwm.h"
 1339              		.file 23 "../../../os/hal/ports/STM32/LLD/TIMv1/pwm_lld.h"
 1340              		.file 24 "../../../os/hal/include/serial.h"
 1341              		.file 25 "../../../os/hal/ports/STM32/LLD/USARTv1/serial_lld.h"
 1342              		.file 26 "../../../os/hal/include/spi.h"
 1343              		.file 27 "../../../os/hal/ports/STM32/LLD/SPIv1/spi_lld.h"
 1344              		.file 28 "../../../os/hal/ports/common/ARMCMx/nvic.h"