ARM GAS  /var/folders/qd/4mxf5pkd0zdf0b9dd1hp39180000gn/T//ccdQiej2.s 			page 1


   1              		.cpu cortex-m4
   2              		.eabi_attribute 20, 1
   3              		.eabi_attribute 21, 1
   4              		.eabi_attribute 23, 3
   5              		.eabi_attribute 24, 1
   6              		.eabi_attribute 25, 1
   7              		.eabi_attribute 26, 1
   8              		.eabi_attribute 30, 2
   9              		.eabi_attribute 34, 1
  10              		.eabi_attribute 18, 4
  11              		.file	"testqueues.c"
  12              		.text
  13              	.Ltext0:
  14              		.cfi_sections	.debug_frame
  15              		.section	.text.notify,"ax",%progbits
  16              		.align	1
  17              		.p2align 4,,15
  18              		.syntax unified
  19              		.thumb
  20              		.thumb_func
  21              		.fpu softvfp
  22              		.type	notify, %function
  23              	notify:
  24              	.LFB229:
  25              		.file 1 "../../../test/rt/testqueues.c"
  26              		.loc 1 57 0
  27              		.cfi_startproc
  28              		@ args = 0, pretend = 0, frame = 0
  29              		@ frame_needed = 0, uses_anonymous_args = 0
  30              		@ link register save eliminated.
  31              	.LVL0:
  32              		.loc 1 59 0
  33 0000 7047     		bx	lr
  34              		.cfi_endproc
  35              	.LFE229:
  36              		.size	notify, .-notify
  37 0002 00BF     		.section	.text.thread1,"ax",%progbits
  38              		.align	1
  39              		.p2align 4,,15
  40              		.syntax unified
  41              		.thumb
  42              		.thumb_func
  43              		.fpu softvfp
  44              		.type	thread1, %function
  45              	thread1:
  46              	.LFB231:
  47              		.loc 1 83 0
  48              		.cfi_startproc
  49              		@ args = 0, pretend = 0, frame = 0
  50              		@ frame_needed = 0, uses_anonymous_args = 0
  51              		@ link register save eliminated.
  52              	.LVL1:
  53              		.loc 1 86 0
  54 0000 4FF4FA61 		mov	r1, #2000
  55 0004 0148     		ldr	r0, .L4
  56              	.LVL2:
  57 0006 FFF7FEBF 		b	chIQGetTimeout
ARM GAS  /var/folders/qd/4mxf5pkd0zdf0b9dd1hp39180000gn/T//ccdQiej2.s 			page 2


  58              	.LVL3:
  59              	.L5:
  60 000a 00BF     		.align	2
  61              	.L4:
  62 000c 00000000 		.word	.LANCHOR0
  63              		.cfi_endproc
  64              	.LFE231:
  65              		.size	thread1, .-thread1
  66              		.section	.text.queues1_setup,"ax",%progbits
  67              		.align	1
  68              		.p2align 4,,15
  69              		.syntax unified
  70              		.thumb
  71              		.thumb_func
  72              		.fpu softvfp
  73              		.type	queues1_setup, %function
  74              	queues1_setup:
  75              	.LFB230:
  76              		.loc 1 78 0
  77              		.cfi_startproc
  78              		@ args = 0, pretend = 0, frame = 0
  79              		@ frame_needed = 0, uses_anonymous_args = 0
  80 0000 00B5     		push	{lr}
  81              		.cfi_def_cfa_offset 4
  82              		.cfi_offset 14, -4
  83              		.loc 1 80 0
  84 0002 064A     		ldr	r2, .L8
  85 0004 064B     		ldr	r3, .L8+4
  86 0006 1168     		ldr	r1, [r2]
  87 0008 0648     		ldr	r0, .L8+8
  88              		.loc 1 78 0
  89 000a 83B0     		sub	sp, sp, #12
  90              		.cfi_def_cfa_offset 16
  91              		.loc 1 80 0
  92 000c 0022     		movs	r2, #0
  93 000e 0092     		str	r2, [sp]
  94 0010 0422     		movs	r2, #4
  95 0012 FFF7FEFF 		bl	chIQObjectInit
  96              	.LVL4:
  97              		.loc 1 81 0
  98 0016 03B0     		add	sp, sp, #12
  99              		.cfi_def_cfa_offset 4
 100              		@ sp needed
 101 0018 5DF804FB 		ldr	pc, [sp], #4
 102              	.L9:
 103              		.align	2
 104              	.L8:
 105 001c 00000000 		.word	wa
 106 0020 00000000 		.word	notify
 107 0024 00000000 		.word	.LANCHOR0
 108              		.cfi_endproc
 109              	.LFE230:
 110              		.size	queues1_setup, .-queues1_setup
 111              		.section	.text.thread2,"ax",%progbits
 112              		.align	1
 113              		.p2align 4,,15
 114              		.syntax unified
ARM GAS  /var/folders/qd/4mxf5pkd0zdf0b9dd1hp39180000gn/T//ccdQiej2.s 			page 3


 115              		.thumb
 116              		.thumb_func
 117              		.fpu softvfp
 118              		.type	thread2, %function
 119              	thread2:
 120              	.LFB234:
 121              		.loc 1 169 0
 122              		.cfi_startproc
 123              		@ args = 0, pretend = 0, frame = 0
 124              		@ frame_needed = 0, uses_anonymous_args = 0
 125              		@ link register save eliminated.
 126              	.LVL5:
 127              		.loc 1 172 0
 128 0000 4FF4FA62 		mov	r2, #2000
 129 0004 0021     		movs	r1, #0
 130 0006 0148     		ldr	r0, .L11
 131              	.LVL6:
 132 0008 FFF7FEBF 		b	chOQPutTimeout
 133              	.LVL7:
 134              	.L12:
 135              		.align	2
 136              	.L11:
 137 000c 00000000 		.word	.LANCHOR1
 138              		.cfi_endproc
 139              	.LFE234:
 140              		.size	thread2, .-thread2
 141              		.section	.text.queues2_setup,"ax",%progbits
 142              		.align	1
 143              		.p2align 4,,15
 144              		.syntax unified
 145              		.thumb
 146              		.thumb_func
 147              		.fpu softvfp
 148              		.type	queues2_setup, %function
 149              	queues2_setup:
 150              	.LFB233:
 151              		.loc 1 164 0
 152              		.cfi_startproc
 153              		@ args = 0, pretend = 0, frame = 0
 154              		@ frame_needed = 0, uses_anonymous_args = 0
 155 0000 00B5     		push	{lr}
 156              		.cfi_def_cfa_offset 4
 157              		.cfi_offset 14, -4
 158              		.loc 1 166 0
 159 0002 064A     		ldr	r2, .L15
 160 0004 064B     		ldr	r3, .L15+4
 161 0006 1168     		ldr	r1, [r2]
 162 0008 0648     		ldr	r0, .L15+8
 163              		.loc 1 164 0
 164 000a 83B0     		sub	sp, sp, #12
 165              		.cfi_def_cfa_offset 16
 166              		.loc 1 166 0
 167 000c 0022     		movs	r2, #0
 168 000e 0092     		str	r2, [sp]
 169 0010 0422     		movs	r2, #4
 170 0012 FFF7FEFF 		bl	chOQObjectInit
 171              	.LVL8:
ARM GAS  /var/folders/qd/4mxf5pkd0zdf0b9dd1hp39180000gn/T//ccdQiej2.s 			page 4


 172              		.loc 1 167 0
 173 0016 03B0     		add	sp, sp, #12
 174              		.cfi_def_cfa_offset 4
 175              		@ sp needed
 176 0018 5DF804FB 		ldr	pc, [sp], #4
 177              	.L16:
 178              		.align	2
 179              	.L15:
 180 001c 00000000 		.word	wa
 181 0020 00000000 		.word	notify
 182 0024 00000000 		.word	.LANCHOR1
 183              		.cfi_endproc
 184              	.LFE233:
 185              		.size	queues2_setup, .-queues2_setup
 186              		.section	.text.queues1_execute,"ax",%progbits
 187              		.align	1
 188              		.p2align 4,,15
 189              		.syntax unified
 190              		.thumb
 191              		.thumb_func
 192              		.fpu softvfp
 193              		.type	queues1_execute, %function
 194              	queues1_execute:
 195              	.LFB232:
 196              		.loc 1 89 0
 197              		.cfi_startproc
 198              		@ args = 0, pretend = 0, frame = 0
 199              		@ frame_needed = 0, uses_anonymous_args = 0
 200              	.LVL9:
 201 0000 2DE9F041 		push	{r4, r5, r6, r7, r8, lr}
 202              		.cfi_def_cfa_offset 24
 203              		.cfi_offset 4, -24
 204              		.cfi_offset 5, -20
 205              		.cfi_offset 6, -16
 206              		.cfi_offset 7, -12
 207              		.cfi_offset 8, -8
 208              		.cfi_offset 14, -4
 209              	.LBB882:
 210              	.LBB883:
 211              	.LBB884:
 212              	.LBB885:
 213              		.file 2 "../../../os/ext/CMSIS/include/core_cmFunc.h"
 214              		.loc 2 546 0
 215 0004 2026     		movs	r6, #32
 216              	.LBE885:
 217              	.LBE884:
 218              	.LBE883:
 219              	.LBE882:
 220              		.loc 1 89 0
 221 0006 82B0     		sub	sp, sp, #8
 222              		.cfi_def_cfa_offset 32
 223              	.LBB889:
 224              	.LBB888:
 225              	.LBB887:
 226              	.LBB886:
 227              		.loc 2 546 0
 228              		.syntax unified
ARM GAS  /var/folders/qd/4mxf5pkd0zdf0b9dd1hp39180000gn/T//ccdQiej2.s 			page 5


 229              	@ 546 "../../../os/ext/CMSIS/include/core_cmFunc.h" 1
 230 0008 86F31188 		MSR basepri, r6
 231              	@ 0 "" 2
 232              	.LVL10:
 233              		.thumb
 234              		.syntax unified
 235              	.LBE886:
 236              	.LBE887:
 237              	.LBE888:
 238              	.LBE889:
 239              	.LBB890:
 240              	.LBB891:
 241              		.file 3 "../../../os/rt/include/chqueues.h"
 242              		.loc 3 307 0
 243 000c 994C     		ldr	r4, .L36
 244 000e A168     		ldr	r1, [r4, #8]
 245              	.LBE891:
 246              	.LBE890:
 247              		.loc 1 94 0
 248 0010 B1FA81F1 		clz	r1, r1
 249 0014 4909     		lsrs	r1, r1, #5
 250 0016 0120     		movs	r0, #1
 251 0018 FFF7FEFF 		bl	_test_assert
 252              	.LVL11:
 253 001c 10BB     		cbnz	r0, .L34
 254 001e 0546     		mov	r5, r0
 255              	.LVL12:
 256              	.LBB892:
 257              	.LBB893:
 258              	.LBB894:
 259              	.LBB895:
 260              	.LBB896:
 261              		.loc 2 546 0
 262              		.syntax unified
 263              	@ 546 "../../../os/ext/CMSIS/include/core_cmFunc.h" 1
 264 0020 80F31188 		MSR basepri, r0
 265              	@ 0 "" 2
 266              	.LVL13:
 267              		.thumb
 268              		.syntax unified
 269              	.LBE896:
 270              	.LBE895:
 271              	.LBE894:
 272              	.LBE893:
 273              	.LBE892:
 274              	.LBB897:
 275              	.LBB898:
 276              	.LBB899:
 277              	.LBB900:
 278              		.syntax unified
 279              	@ 546 "../../../os/ext/CMSIS/include/core_cmFunc.h" 1
 280 0024 86F31188 		MSR basepri, r6
 281              	@ 0 "" 2
 282              	.LVL14:
 283              		.thumb
 284              		.syntax unified
 285              	.LBE900:
ARM GAS  /var/folders/qd/4mxf5pkd0zdf0b9dd1hp39180000gn/T//ccdQiej2.s 			page 6


 286              	.LBE899:
 287              	.LBE898:
 288              	.LBE897:
 289              		.loc 1 99 0
 290 0028 4121     		movs	r1, #65
 291 002a 2046     		mov	r0, r4
 292 002c FFF7FEFF 		bl	chIQPutI
 293              	.LVL15:
 294 0030 2046     		mov	r0, r4
 295 0032 4221     		movs	r1, #66
 296 0034 FFF7FEFF 		bl	chIQPutI
 297              	.LVL16:
 298 0038 2046     		mov	r0, r4
 299 003a 4321     		movs	r1, #67
 300 003c FFF7FEFF 		bl	chIQPutI
 301              	.LVL17:
 302 0040 2046     		mov	r0, r4
 303 0042 4421     		movs	r1, #68
 304 0044 FFF7FEFF 		bl	chIQPutI
 305              	.LVL18:
 306              	.LBB901:
 307              	.LBB902:
 308              	.LBB903:
 309              	.LBB904:
 310              	.LBB905:
 311              		.loc 2 546 0
 312              		.syntax unified
 313              	@ 546 "../../../os/ext/CMSIS/include/core_cmFunc.h" 1
 314 0048 85F31188 		MSR basepri, r5
 315              	@ 0 "" 2
 316              	.LVL19:
 317              		.thumb
 318              		.syntax unified
 319              	.LBE905:
 320              	.LBE904:
 321              	.LBE903:
 322              	.LBE902:
 323              	.LBE901:
 324              	.LBB906:
 325              	.LBB907:
 326              	.LBB908:
 327              	.LBB909:
 328              		.syntax unified
 329              	@ 546 "../../../os/ext/CMSIS/include/core_cmFunc.h" 1
 330 004c 86F31188 		MSR basepri, r6
 331              	@ 0 "" 2
 332              	.LVL20:
 333              		.thumb
 334              		.syntax unified
 335              	.LBE909:
 336              	.LBE908:
 337              	.LBE907:
 338              	.LBE906:
 339              	.LBB910:
 340              	.LBB911:
 341              		.loc 3 324 0
 342 0050 D4E90532 		ldrd	r3, r2, [r4, #20]
ARM GAS  /var/folders/qd/4mxf5pkd0zdf0b9dd1hp39180000gn/T//ccdQiej2.s 			page 7


 343 0054 9A42     		cmp	r2, r3
 344 0056 3AD0     		beq	.L35
 345              	.LVL21:
 346              	.LBE911:
 347              	.LBE910:
 348              		.loc 1 101 0
 349 0058 2946     		mov	r1, r5
 350 005a 0220     		movs	r0, #2
 351 005c FFF7FEFF 		bl	_test_assert
 352              	.LVL22:
 353 0060 0546     		mov	r5, r0
 354 0062 28B1     		cbz	r0, .L21
 355              	.LVL23:
 356              	.L34:
 357              	.LBB913:
 358              	.LBB914:
 359              	.LBB915:
 360              	.LBB916:
 361              	.LBB917:
 362              		.loc 2 546 0
 363 0064 0023     		movs	r3, #0
 364              		.syntax unified
 365              	@ 546 "../../../os/ext/CMSIS/include/core_cmFunc.h" 1
 366 0066 83F31188 		MSR basepri, r3
 367              	@ 0 "" 2
 368              	.LVL24:
 369              		.thumb
 370              		.syntax unified
 371              	.L17:
 372              	.LBE917:
 373              	.LBE916:
 374              	.LBE915:
 375              	.LBE914:
 376              	.LBE913:
 377              		.loc 1 146 0
 378 006a 02B0     		add	sp, sp, #8
 379              		.cfi_remember_state
 380              		.cfi_def_cfa_offset 24
 381              		@ sp needed
 382 006c BDE8F081 		pop	{r4, r5, r6, r7, r8, pc}
 383              	.LVL25:
 384              	.L21:
 385              		.cfi_restore_state
 386              	.LBB918:
 387              	.LBB919:
 388              	.LBB920:
 389              	.LBB921:
 390              	.LBB922:
 391              	.LBB923:
 392              	.LBB924:
 393              		.loc 2 546 0
 394              		.syntax unified
 395              	@ 546 "../../../os/ext/CMSIS/include/core_cmFunc.h" 1
 396 0070 80F31188 		MSR basepri, r0
 397              	@ 0 "" 2
 398              	.LVL26:
 399              		.thumb
ARM GAS  /var/folders/qd/4mxf5pkd0zdf0b9dd1hp39180000gn/T//ccdQiej2.s 			page 8


 400              		.syntax unified
 401              	.LBE924:
 402              	.LBE923:
 403              	.LBE922:
 404              	.LBE921:
 405              	.LBE920:
 406              	.LBB925:
 407              	.LBB926:
 408              	.LBB927:
 409              	.LBB928:
 410 0074 2023     		movs	r3, #32
 411              		.syntax unified
 412              	@ 546 "../../../os/ext/CMSIS/include/core_cmFunc.h" 1
 413 0076 83F31188 		MSR basepri, r3
 414              	@ 0 "" 2
 415              	.LVL27:
 416              		.thumb
 417              		.syntax unified
 418              	.LBE928:
 419              	.LBE927:
 420              	.LBE926:
 421              	.LBE925:
 422              		.loc 1 102 0
 423 007a 7E48     		ldr	r0, .L36
 424 007c 2946     		mov	r1, r5
 425 007e FFF7FEFF 		bl	chIQPutI
 426              	.LVL28:
 427 0082 0430     		adds	r0, r0, #4
 428 0084 14BF     		ite	ne
 429 0086 0021     		movne	r1, #0
 430 0088 0121     		moveq	r1, #1
 431 008a 0320     		movs	r0, #3
 432 008c FFF7FEFF 		bl	_test_assert
 433              	.LVL29:
 434 0090 C0B9     		cbnz	r0, .L33
 435              	.LVL30:
 436              	.LBB929:
 437              	.LBB930:
 438              	.LBB931:
 439              	.LBB932:
 440              	.LBB933:
 441              		.loc 2 546 0
 442              		.syntax unified
 443              	@ 546 "../../../os/ext/CMSIS/include/core_cmFunc.h" 1
 444 0092 80F31188 		MSR basepri, r0
 445              	@ 0 "" 2
 446              	.LVL31:
 447              		.thumb
 448              		.syntax unified
 449              	.LBE933:
 450              	.LBE932:
 451              	.LBE931:
 452              	.LBE930:
 453              	.LBE929:
 454              	.LBB938:
 455              	.LBB939:
 456              		.loc 3 341 0
ARM GAS  /var/folders/qd/4mxf5pkd0zdf0b9dd1hp39180000gn/T//ccdQiej2.s 			page 9


 457 0096 774E     		ldr	r6, .L36
 458              	.LBE939:
 459              	.LBE938:
 460              	.LBB941:
 461              	.LBB937:
 462              	.LBB936:
 463              	.LBB935:
 464              	.LBB934:
 465              		.loc 2 546 0
 466 0098 0425     		movs	r5, #4
 467              	.LVL32:
 468              	.L23:
 469              	.LBE934:
 470              	.LBE935:
 471              	.LBE936:
 472              	.LBE937:
 473              	.LBE941:
 474              	.LBB942:
 475              	.LBB940:
 476              		.loc 3 341 0
 477 009a 4FF0FF31 		mov	r1, #-1
 478 009e 3046     		mov	r0, r6
 479 00a0 FFF7FEFF 		bl	chIQGetTimeout
 480              	.LVL33:
 481              	.LBE940:
 482              	.LBE942:
 483              		.loc 1 106 0
 484 00a4 C0B2     		uxtb	r0, r0
 485 00a6 FFF7FEFF 		bl	test_emit_token
 486              	.LVL34:
 487              		.loc 1 105 0
 488 00aa 013D     		subs	r5, r5, #1
 489              	.LVL35:
 490 00ac F5D1     		bne	.L23
 491              	.LVL36:
 492              	.LBB943:
 493              	.LBB944:
 494              	.LBB945:
 495              	.LBB946:
 496              		.loc 2 546 0
 497 00ae 2026     		movs	r6, #32
 498              		.syntax unified
 499              	@ 546 "../../../os/ext/CMSIS/include/core_cmFunc.h" 1
 500 00b0 86F31188 		MSR basepri, r6
 501              	@ 0 "" 2
 502              	.LVL37:
 503              		.thumb
 504              		.syntax unified
 505              	.LBE946:
 506              	.LBE945:
 507              	.LBE944:
 508              	.LBE943:
 509              	.LBB947:
 510              	.LBB948:
 511              		.loc 3 307 0
 512 00b4 A168     		ldr	r1, [r4, #8]
 513              	.LBE948:
ARM GAS  /var/folders/qd/4mxf5pkd0zdf0b9dd1hp39180000gn/T//ccdQiej2.s 			page 10


 514              	.LBE947:
 515              		.loc 1 107 0
 516 00b6 B1FA81F1 		clz	r1, r1
 517 00ba 4909     		lsrs	r1, r1, #5
 518 00bc 0420     		movs	r0, #4
 519 00be FFF7FEFF 		bl	_test_assert
 520              	.LVL38:
 521 00c2 80B1     		cbz	r0, .L24
 522              	.LVL39:
 523              	.L33:
 524              	.LBB949:
 525              	.LBB950:
 526              	.LBB951:
 527              	.LBB952:
 528              	.LBB953:
 529              		.loc 2 546 0
 530              		.syntax unified
 531              	@ 546 "../../../os/ext/CMSIS/include/core_cmFunc.h" 1
 532 00c4 85F31188 		MSR basepri, r5
 533              	@ 0 "" 2
 534              	.LVL40:
 535              		.thumb
 536              		.syntax unified
 537              	.LBE953:
 538              	.LBE952:
 539              	.LBE951:
 540              	.LBE950:
 541              	.LBE949:
 542              	.LBE919:
 543              	.LBE918:
 544              		.loc 1 146 0
 545 00c8 02B0     		add	sp, sp, #8
 546              		.cfi_remember_state
 547              		.cfi_def_cfa_offset 24
 548              		@ sp needed
 549 00ca BDE8F081 		pop	{r4, r5, r6, r7, r8, pc}
 550              	.LVL41:
 551              	.L35:
 552              		.cfi_restore_state
 553              	.LBB1044:
 554              	.LBB912:
 555              		.loc 3 324 0
 556 00ce A568     		ldr	r5, [r4, #8]
 557 00d0 0035     		adds	r5, r5, #0
 558 00d2 18BF     		it	ne
 559 00d4 0125     		movne	r5, #1
 560              	.LVL42:
 561              	.LBE912:
 562              	.LBE1044:
 563              		.loc 1 101 0
 564 00d6 2946     		mov	r1, r5
 565 00d8 0220     		movs	r0, #2
 566 00da FFF7FEFF 		bl	_test_assert
 567              	.LVL43:
 568 00de 0546     		mov	r5, r0
 569 00e0 0028     		cmp	r0, #0
 570 00e2 BFD1     		bne	.L34
ARM GAS  /var/folders/qd/4mxf5pkd0zdf0b9dd1hp39180000gn/T//ccdQiej2.s 			page 11


 571 00e4 C4E7     		b	.L21
 572              	.LVL44:
 573              	.L24:
 574              	.LBB1045:
 575              	.LBB1042:
 576              	.LBB954:
 577              	.LBB955:
 578              	.LBB956:
 579              	.LBB957:
 580              	.LBB958:
 581              		.loc 2 546 0
 582              		.syntax unified
 583              	@ 546 "../../../os/ext/CMSIS/include/core_cmFunc.h" 1
 584 00e6 85F31188 		MSR basepri, r5
 585              	@ 0 "" 2
 586              	.LVL45:
 587              		.thumb
 588              		.syntax unified
 589              	.LBE958:
 590              	.LBE957:
 591              	.LBE956:
 592              	.LBE955:
 593              	.LBE954:
 594              		.loc 1 108 0
 595 00ea 6349     		ldr	r1, .L36+4
 596 00ec 0520     		movs	r0, #5
 597 00ee FFF7FEFF 		bl	_test_assert_sequence
 598              	.LVL46:
 599 00f2 0028     		cmp	r0, #0
 600 00f4 B9D1     		bne	.L17
 601              	.LVL47:
 602              	.LBB959:
 603              	.LBB960:
 604              	.LBB961:
 605              	.LBB962:
 606              		.loc 2 546 0
 607              		.syntax unified
 608              	@ 546 "../../../os/ext/CMSIS/include/core_cmFunc.h" 1
 609 00f6 86F31188 		MSR basepri, r6
 610              	@ 0 "" 2
 611              	.LVL48:
 612              		.thumb
 613              		.syntax unified
 614              	.LBE962:
 615              	.LBE961:
 616              	.LBE960:
 617              	.LBE959:
 618              		.loc 1 113 0
 619 00fa 4121     		movs	r1, #65
 620 00fc 5D48     		ldr	r0, .L36
 621 00fe FFF7FEFF 		bl	chIQPutI
 622              	.LVL49:
 623 0102 4221     		movs	r1, #66
 624 0104 5B48     		ldr	r0, .L36
 625 0106 FFF7FEFF 		bl	chIQPutI
 626              	.LVL50:
 627 010a 4321     		movs	r1, #67
ARM GAS  /var/folders/qd/4mxf5pkd0zdf0b9dd1hp39180000gn/T//ccdQiej2.s 			page 12


 628 010c 5948     		ldr	r0, .L36
 629 010e FFF7FEFF 		bl	chIQPutI
 630              	.LVL51:
 631 0112 4421     		movs	r1, #68
 632 0114 5748     		ldr	r0, .L36
 633 0116 FFF7FEFF 		bl	chIQPutI
 634              	.LVL52:
 635              	.LBB963:
 636              	.LBB964:
 637              	.LBB965:
 638              	.LBB966:
 639              	.LBB967:
 640              		.loc 2 546 0
 641              		.syntax unified
 642              	@ 546 "../../../os/ext/CMSIS/include/core_cmFunc.h" 1
 643 011a 85F31188 		MSR basepri, r5
 644              	@ 0 "" 2
 645              	.LVL53:
 646              		.thumb
 647              		.syntax unified
 648              	.LBE967:
 649              	.LBE966:
 650              	.LBE965:
 651              	.LBE964:
 652              	.LBE963:
 653              		.loc 1 117 0
 654 011e DFF86881 		ldr	r8, .L36+20
 655 0122 5448     		ldr	r0, .L36
 656 0124 D8F80470 		ldr	r7, [r8, #4]
 657 0128 2B46     		mov	r3, r5
 658 012a 3946     		mov	r1, r7
 659 012c 0822     		movs	r2, #8
 660 012e FFF7FEFF 		bl	chIQReadTimeout
 661              	.LVL54:
 662              		.loc 1 118 0
 663 0132 A0F10401 		sub	r1, r0, #4
 664 0136 B1FA81F1 		clz	r1, r1
 665 013a 4909     		lsrs	r1, r1, #5
 666 013c 0620     		movs	r0, #6
 667              	.LVL55:
 668 013e FFF7FEFF 		bl	_test_assert
 669              	.LVL56:
 670 0142 0028     		cmp	r0, #0
 671 0144 91D1     		bne	.L17
 672              	.LVL57:
 673              	.LBB968:
 674              	.LBB969:
 675              	.LBB970:
 676              	.LBB971:
 677              		.loc 2 546 0
 678              		.syntax unified
 679              	@ 546 "../../../os/ext/CMSIS/include/core_cmFunc.h" 1
 680 0146 86F31188 		MSR basepri, r6
 681              	@ 0 "" 2
 682              	.LVL58:
 683              		.thumb
 684              		.syntax unified
ARM GAS  /var/folders/qd/4mxf5pkd0zdf0b9dd1hp39180000gn/T//ccdQiej2.s 			page 13


 685              	.LBE971:
 686              	.LBE970:
 687              	.LBE969:
 688              	.LBE968:
 689              	.LBB972:
 690              	.LBB973:
 691              		.loc 3 307 0
 692 014a A168     		ldr	r1, [r4, #8]
 693              	.LBE973:
 694              	.LBE972:
 695              		.loc 1 119 0
 696 014c B1FA81F1 		clz	r1, r1
 697 0150 4909     		lsrs	r1, r1, #5
 698 0152 0720     		movs	r0, #7
 699 0154 FFF7FEFF 		bl	_test_assert
 700              	.LVL59:
 701 0158 0028     		cmp	r0, #0
 702 015a B3D1     		bne	.L33
 703              	.LVL60:
 704              	.LBB974:
 705              	.LBB975:
 706              	.LBB976:
 707              	.LBB977:
 708              	.LBB978:
 709              		.loc 2 546 0
 710              		.syntax unified
 711              	@ 546 "../../../os/ext/CMSIS/include/core_cmFunc.h" 1
 712 015c 85F31188 		MSR basepri, r5
 713              	@ 0 "" 2
 714              	.LVL61:
 715              		.thumb
 716              		.syntax unified
 717              	.LBE978:
 718              	.LBE977:
 719              	.LBE976:
 720              	.LBE975:
 721              	.LBE974:
 722              	.LBB979:
 723              	.LBB980:
 724              	.LBB981:
 725              	.LBB982:
 726              		.syntax unified
 727              	@ 546 "../../../os/ext/CMSIS/include/core_cmFunc.h" 1
 728 0160 86F31188 		MSR basepri, r6
 729              	@ 0 "" 2
 730              	.LVL62:
 731              		.thumb
 732              		.syntax unified
 733              	.LBE982:
 734              	.LBE981:
 735              	.LBE980:
 736              	.LBE979:
 737              		.loc 1 124 0
 738 0164 4121     		movs	r1, #65
 739 0166 4348     		ldr	r0, .L36
 740 0168 FFF7FEFF 		bl	chIQPutI
 741              	.LVL63:
ARM GAS  /var/folders/qd/4mxf5pkd0zdf0b9dd1hp39180000gn/T//ccdQiej2.s 			page 14


 742 016c 4221     		movs	r1, #66
 743 016e 4148     		ldr	r0, .L36
 744 0170 FFF7FEFF 		bl	chIQPutI
 745              	.LVL64:
 746 0174 4321     		movs	r1, #67
 747 0176 3F48     		ldr	r0, .L36
 748 0178 FFF7FEFF 		bl	chIQPutI
 749              	.LVL65:
 750 017c 4421     		movs	r1, #68
 751 017e 3D48     		ldr	r0, .L36
 752 0180 FFF7FEFF 		bl	chIQPutI
 753              	.LVL66:
 754              	.LBB983:
 755              	.LBB984:
 756              	.LBB985:
 757              	.LBB986:
 758              	.LBB987:
 759              		.loc 2 546 0
 760              		.syntax unified
 761              	@ 546 "../../../os/ext/CMSIS/include/core_cmFunc.h" 1
 762 0184 85F31188 		MSR basepri, r5
 763              	@ 0 "" 2
 764              	.LVL67:
 765              		.thumb
 766              		.syntax unified
 767              	.LBE987:
 768              	.LBE986:
 769              	.LBE985:
 770              	.LBE984:
 771              	.LBE983:
 772              		.loc 1 128 0
 773 0188 0222     		movs	r2, #2
 774 018a 3946     		mov	r1, r7
 775 018c 2B46     		mov	r3, r5
 776 018e 3948     		ldr	r0, .L36
 777 0190 FFF7FEFF 		bl	chIQReadTimeout
 778              	.LVL68:
 779              		.loc 1 129 0
 780 0194 A0F10201 		sub	r1, r0, #2
 781 0198 B1FA81F1 		clz	r1, r1
 782 019c 4909     		lsrs	r1, r1, #5
 783 019e 0820     		movs	r0, #8
 784              	.LVL69:
 785 01a0 FFF7FEFF 		bl	_test_assert
 786              	.LVL70:
 787 01a4 0028     		cmp	r0, #0
 788 01a6 7FF460AF 		bne	.L17
 789              		.loc 1 130 0
 790 01aa 3946     		mov	r1, r7
 791 01ac 2B46     		mov	r3, r5
 792 01ae 0222     		movs	r2, #2
 793 01b0 3048     		ldr	r0, .L36
 794 01b2 FFF7FEFF 		bl	chIQReadTimeout
 795              	.LVL71:
 796              		.loc 1 131 0
 797 01b6 A0F10201 		sub	r1, r0, #2
 798 01ba B1FA81F1 		clz	r1, r1
ARM GAS  /var/folders/qd/4mxf5pkd0zdf0b9dd1hp39180000gn/T//ccdQiej2.s 			page 15


 799 01be 4909     		lsrs	r1, r1, #5
 800 01c0 0920     		movs	r0, #9
 801              	.LVL72:
 802 01c2 FFF7FEFF 		bl	_test_assert
 803              	.LVL73:
 804 01c6 0028     		cmp	r0, #0
 805 01c8 7FF44FAF 		bne	.L17
 806              	.LVL74:
 807              	.LBB988:
 808              	.LBB989:
 809              	.LBB990:
 810              	.LBB991:
 811              		.loc 2 546 0
 812              		.syntax unified
 813              	@ 546 "../../../os/ext/CMSIS/include/core_cmFunc.h" 1
 814 01cc 86F31188 		MSR basepri, r6
 815              	@ 0 "" 2
 816              	.LVL75:
 817              		.thumb
 818              		.syntax unified
 819              	.LBE991:
 820              	.LBE990:
 821              	.LBE989:
 822              	.LBE988:
 823              	.LBB992:
 824              	.LBB993:
 825              		.loc 3 307 0
 826 01d0 A168     		ldr	r1, [r4, #8]
 827              	.LBE993:
 828              	.LBE992:
 829              		.loc 1 132 0
 830 01d2 B1FA81F1 		clz	r1, r1
 831 01d6 4909     		lsrs	r1, r1, #5
 832 01d8 0A20     		movs	r0, #10
 833 01da FFF7FEFF 		bl	_test_assert
 834              	.LVL76:
 835 01de 0028     		cmp	r0, #0
 836 01e0 7FF470AF 		bne	.L33
 837              	.LVL77:
 838              	.LBB994:
 839              	.LBB995:
 840              	.LBB996:
 841              	.LBB997:
 842              	.LBB998:
 843              		.loc 2 546 0
 844              		.syntax unified
 845              	@ 546 "../../../os/ext/CMSIS/include/core_cmFunc.h" 1
 846 01e4 85F31188 		MSR basepri, r5
 847              	@ 0 "" 2
 848              	.LVL78:
 849              		.thumb
 850              		.syntax unified
 851              	.LBE998:
 852              	.LBE997:
 853              	.LBE996:
 854              	.LBE995:
 855              	.LBE994:
ARM GAS  /var/folders/qd/4mxf5pkd0zdf0b9dd1hp39180000gn/T//ccdQiej2.s 			page 16


 856              	.LBB999:
 857              	.LBB1000:
 858              	.LBB1001:
 859              	.LBB1002:
 860              		.syntax unified
 861              	@ 546 "../../../os/ext/CMSIS/include/core_cmFunc.h" 1
 862 01e8 86F31188 		MSR basepri, r6
 863              	@ 0 "" 2
 864              	.LVL79:
 865              		.thumb
 866              		.syntax unified
 867              	.LBE1002:
 868              	.LBE1001:
 869              	.LBE1000:
 870              	.LBE999:
 871              		.loc 1 136 0
 872 01ec 2148     		ldr	r0, .L36
 873 01ee 2946     		mov	r1, r5
 874 01f0 FFF7FEFF 		bl	chIQPutI
 875              	.LVL80:
 876              		.loc 1 137 0
 877 01f4 1F48     		ldr	r0, .L36
 878 01f6 FFF7FEFF 		bl	chIQResetI
 879              	.LVL81:
 880              	.LBB1003:
 881              	.LBB1004:
 882              	.LBB1005:
 883              	.LBB1006:
 884              	.LBB1007:
 885              		.loc 2 546 0
 886              		.syntax unified
 887              	@ 546 "../../../os/ext/CMSIS/include/core_cmFunc.h" 1
 888 01fa 85F31188 		MSR basepri, r5
 889              	@ 0 "" 2
 890              	.LVL82:
 891              		.thumb
 892              		.syntax unified
 893              	.LBE1007:
 894              	.LBE1006:
 895              	.LBE1005:
 896              	.LBE1004:
 897              	.LBE1003:
 898              	.LBB1008:
 899              	.LBB1009:
 900              	.LBB1010:
 901              	.LBB1011:
 902              		.syntax unified
 903              	@ 546 "../../../os/ext/CMSIS/include/core_cmFunc.h" 1
 904 01fe 86F31188 		MSR basepri, r6
 905              	@ 0 "" 2
 906              	.LVL83:
 907              		.thumb
 908              		.syntax unified
 909              	.LBE1011:
 910              	.LBE1010:
 911              	.LBE1009:
 912              	.LBE1008:
ARM GAS  /var/folders/qd/4mxf5pkd0zdf0b9dd1hp39180000gn/T//ccdQiej2.s 			page 17


 913              		.loc 1 139 0
 914 0202 A168     		ldr	r1, [r4, #8]
 915 0204 B1FA81F1 		clz	r1, r1
 916 0208 4909     		lsrs	r1, r1, #5
 917 020a 0B20     		movs	r0, #11
 918 020c FFF7FEFF 		bl	_test_assert
 919              	.LVL84:
 920 0210 0028     		cmp	r0, #0
 921 0212 7FF457AF 		bne	.L33
 922              	.LVL85:
 923              	.LBB1012:
 924              	.LBB1013:
 925              	.LBB1014:
 926              	.LBB1015:
 927              	.LBB1016:
 928              		.loc 2 546 0
 929              		.syntax unified
 930              	@ 546 "../../../os/ext/CMSIS/include/core_cmFunc.h" 1
 931 0216 85F31188 		MSR basepri, r5
 932              	@ 0 "" 2
 933              	.LVL86:
 934              		.thumb
 935              		.syntax unified
 936              	.LBE1016:
 937              	.LBE1015:
 938              	.LBE1014:
 939              	.LBE1013:
 940              	.LBE1012:
 941              	.LBB1017:
 942              	.LBB1018:
 943              	.LBB1019:
 944              	.LBB1020:
 945              		.file 4 "../../../os/rt/include/chthreads.h"
 946              		.loc 4 176 0
 947 021a 184B     		ldr	r3, .L36+8
 948              	.LBE1020:
 949              	.LBE1019:
 950              	.LBE1018:
 951              	.LBE1017:
 952              		.loc 1 140 0
 953 021c D8F80000 		ldr	r0, [r8]
 954              	.LBB1022:
 955              	.LBB1021:
 956              		.loc 4 189 0
 957 0220 9A69     		ldr	r2, [r3, #24]
 958              	.LBE1021:
 959              	.LBE1022:
 960              		.loc 1 140 0
 961 0222 174B     		ldr	r3, .L36+12
 962 0224 9268     		ldr	r2, [r2, #8]
 963 0226 0095     		str	r5, [sp]
 964 0228 0132     		adds	r2, r2, #1
 965 022a 4FF4A471 		mov	r1, #328
 966 022e FFF7FEFF 		bl	chThdCreateStatic
 967              	.LVL87:
 968 0232 144B     		ldr	r3, .L36+16
 969 0234 1860     		str	r0, [r3]
ARM GAS  /var/folders/qd/4mxf5pkd0zdf0b9dd1hp39180000gn/T//ccdQiej2.s 			page 18


 970              	.LVL88:
 971              	.LBB1023:
 972              	.LBB1024:
 973              	.LBB1025:
 974              	.LBB1026:
 975              		.loc 2 546 0
 976              		.syntax unified
 977              	@ 546 "../../../os/ext/CMSIS/include/core_cmFunc.h" 1
 978 0236 86F31188 		MSR basepri, r6
 979              	@ 0 "" 2
 980              	.LVL89:
 981              		.thumb
 982              		.syntax unified
 983              	.LBE1026:
 984              	.LBE1025:
 985              	.LBE1024:
 986              	.LBE1023:
 987              		.loc 1 141 0
 988 023a A168     		ldr	r1, [r4, #8]
 989 023c B1FA81F1 		clz	r1, r1
 990 0240 4909     		lsrs	r1, r1, #5
 991 0242 0C20     		movs	r0, #12
 992 0244 FFF7FEFF 		bl	_test_assert
 993              	.LVL90:
 994              	.LBB1027:
 995              	.LBB1028:
 996              	.LBB1029:
 997              	.LBB1030:
 998              	.LBB1031:
 999              		.loc 2 546 0
 1000 0248 0023     		movs	r3, #0
 1001              	.LBE1031:
 1002              	.LBE1030:
 1003              	.LBE1029:
 1004              	.LBE1028:
 1005              	.LBE1027:
 1006              		.loc 1 141 0
 1007 024a 10B1     		cbz	r0, .L30
 1008              	.LVL91:
 1009              	.LBB1036:
 1010              	.LBB1035:
 1011              	.LBB1034:
 1012              	.LBB1033:
 1013              	.LBB1032:
 1014              		.loc 2 546 0
 1015              		.syntax unified
 1016              	@ 546 "../../../os/ext/CMSIS/include/core_cmFunc.h" 1
 1017 024c 83F31188 		MSR basepri, r3
 1018              	@ 0 "" 2
 1019              	.LVL92:
 1020              		.thumb
 1021              		.syntax unified
 1022 0250 0BE7     		b	.L17
 1023              	.L30:
 1024              	.LVL93:
 1025              	.LBE1032:
 1026              	.LBE1033:
ARM GAS  /var/folders/qd/4mxf5pkd0zdf0b9dd1hp39180000gn/T//ccdQiej2.s 			page 19


 1027              	.LBE1034:
 1028              	.LBE1035:
 1029              	.LBE1036:
 1030              	.LBB1037:
 1031              	.LBB1038:
 1032              	.LBB1039:
 1033              	.LBB1040:
 1034              	.LBB1041:
 1035              		.syntax unified
 1036              	@ 546 "../../../os/ext/CMSIS/include/core_cmFunc.h" 1
 1037 0252 83F31188 		MSR basepri, r3
 1038              	@ 0 "" 2
 1039              	.LVL94:
 1040              		.thumb
 1041              		.syntax unified
 1042              	.LBE1041:
 1043              	.LBE1040:
 1044              	.LBE1039:
 1045              	.LBE1038:
 1046              	.LBE1037:
 1047              		.loc 1 142 0
 1048 0256 FFF7FEFF 		bl	test_wait_threads
 1049              	.LVL95:
 1050              		.loc 1 145 0
 1051 025a 0A21     		movs	r1, #10
 1052 025c 0548     		ldr	r0, .L36
 1053 025e FFF7FEFF 		bl	chIQGetTimeout
 1054              	.LVL96:
 1055 0262 431C     		adds	r3, r0, #1
 1056 0264 5942     		rsbs	r1, r3, #0
 1057 0266 5941     		adcs	r1, r1, r3
 1058 0268 0D20     		movs	r0, #13
 1059              	.LBE1042:
 1060              	.LBE1045:
 1061              		.loc 1 146 0
 1062 026a 02B0     		add	sp, sp, #8
 1063              		.cfi_def_cfa_offset 24
 1064              		@ sp needed
 1065 026c BDE8F041 		pop	{r4, r5, r6, r7, r8, lr}
 1066              		.cfi_restore 14
 1067              		.cfi_restore 8
 1068              		.cfi_restore 7
 1069              		.cfi_restore 6
 1070              		.cfi_restore 5
 1071              		.cfi_restore 4
 1072              		.cfi_def_cfa_offset 0
 1073              	.LBB1046:
 1074              	.LBB1043:
 1075              		.loc 1 145 0
 1076 0270 FFF7FEBF 		b	_test_assert
 1077              	.LVL97:
 1078              	.L37:
 1079              		.align	2
 1080              	.L36:
 1081 0274 00000000 		.word	.LANCHOR0
 1082 0278 00000000 		.word	.LC0
 1083 027c 00000000 		.word	ch
ARM GAS  /var/folders/qd/4mxf5pkd0zdf0b9dd1hp39180000gn/T//ccdQiej2.s 			page 20


 1084 0280 00000000 		.word	thread1
 1085 0284 00000000 		.word	threads
 1086 0288 00000000 		.word	wa
 1087              	.LBE1043:
 1088              	.LBE1046:
 1089              		.cfi_endproc
 1090              	.LFE232:
 1091              		.size	queues1_execute, .-queues1_execute
 1092              		.section	.text.queues2_execute,"ax",%progbits
 1093              		.align	1
 1094              		.p2align 4,,15
 1095              		.syntax unified
 1096              		.thumb
 1097              		.thumb_func
 1098              		.fpu softvfp
 1099              		.type	queues2_execute, %function
 1100              	queues2_execute:
 1101              	.LFB235:
 1102              		.loc 1 175 0
 1103              		.cfi_startproc
 1104              		@ args = 0, pretend = 0, frame = 0
 1105              		@ frame_needed = 0, uses_anonymous_args = 0
 1106              	.LVL98:
 1107 0000 2DE9F043 		push	{r4, r5, r6, r7, r8, r9, lr}
 1108              		.cfi_def_cfa_offset 28
 1109              		.cfi_offset 4, -28
 1110              		.cfi_offset 5, -24
 1111              		.cfi_offset 6, -20
 1112              		.cfi_offset 7, -16
 1113              		.cfi_offset 8, -12
 1114              		.cfi_offset 9, -8
 1115              		.cfi_offset 14, -4
 1116              	.LBB1229:
 1117              	.LBB1230:
 1118              	.LBB1231:
 1119              	.LBB1232:
 1120              		.loc 2 546 0
 1121 0004 2023     		movs	r3, #32
 1122              	.LBE1232:
 1123              	.LBE1231:
 1124              	.LBE1230:
 1125              	.LBE1229:
 1126              		.loc 1 175 0
 1127 0006 83B0     		sub	sp, sp, #12
 1128              		.cfi_def_cfa_offset 40
 1129              	.LBB1236:
 1130              	.LBB1235:
 1131              	.LBB1234:
 1132              	.LBB1233:
 1133              		.loc 2 546 0
 1134              		.syntax unified
 1135              	@ 546 "../../../os/ext/CMSIS/include/core_cmFunc.h" 1
 1136 0008 83F31188 		MSR basepri, r3
 1137              	@ 0 "" 2
 1138              	.LVL99:
 1139              		.thumb
 1140              		.syntax unified
ARM GAS  /var/folders/qd/4mxf5pkd0zdf0b9dd1hp39180000gn/T//ccdQiej2.s 			page 21


 1141              	.LBE1233:
 1142              	.LBE1234:
 1143              	.LBE1235:
 1144              	.LBE1236:
 1145              	.LBB1237:
 1146              	.LBB1238:
 1147              		.loc 3 390 0
 1148 000c 854D     		ldr	r5, .L62
 1149 000e D5E90532 		ldrd	r3, r2, [r5, #20]
 1150 0012 9A42     		cmp	r2, r3
 1151 0014 41D0     		beq	.L60
 1152 0016 0021     		movs	r1, #0
 1153              	.L39:
 1154              	.LVL100:
 1155              	.LBE1238:
 1156              	.LBE1237:
 1157              		.loc 1 180 0
 1158 0018 0120     		movs	r0, #1
 1159 001a FFF7FEFF 		bl	_test_assert
 1160              	.LVL101:
 1161 001e B0BB     		cbnz	r0, .L59
 1162              	.LVL102:
 1163              	.LBB1240:
 1164              	.LBB1241:
 1165              	.LBB1242:
 1166              	.LBB1243:
 1167              	.LBB1244:
 1168              		.loc 2 546 0
 1169              		.syntax unified
 1170              	@ 546 "../../../os/ext/CMSIS/include/core_cmFunc.h" 1
 1171 0020 80F31188 		MSR basepri, r0
 1172              	@ 0 "" 2
 1173              	.LVL103:
 1174              		.thumb
 1175              		.syntax unified
 1176              	.LBE1244:
 1177              	.LBE1243:
 1178              	.LBE1242:
 1179              	.LBE1241:
 1180              	.LBE1240:
 1181              	.LBB1249:
 1182              	.LBB1250:
 1183              		.loc 3 426 0
 1184 0024 7F4E     		ldr	r6, .L62
 1185              	.LBE1250:
 1186              	.LBE1249:
 1187              	.LBB1252:
 1188              	.LBB1248:
 1189              	.LBB1247:
 1190              	.LBB1246:
 1191              	.LBB1245:
 1192              		.loc 2 546 0
 1193 0026 4124     		movs	r4, #65
 1194              	.LVL104:
 1195              	.L42:
 1196              	.LBE1245:
 1197              	.LBE1246:
ARM GAS  /var/folders/qd/4mxf5pkd0zdf0b9dd1hp39180000gn/T//ccdQiej2.s 			page 22


 1198              	.LBE1247:
 1199              	.LBE1248:
 1200              	.LBE1252:
 1201              	.LBB1253:
 1202              	.LBB1251:
 1203              		.loc 3 426 0 discriminator 3
 1204 0028 2146     		mov	r1, r4
 1205 002a 0134     		adds	r4, r4, #1
 1206              	.LVL105:
 1207 002c 4FF0FF32 		mov	r2, #-1
 1208 0030 3046     		mov	r0, r6
 1209 0032 E4B2     		uxtb	r4, r4
 1210 0034 FFF7FEFF 		bl	chOQPutTimeout
 1211              	.LVL106:
 1212              	.LBE1251:
 1213              	.LBE1253:
 1214              		.loc 1 183 0 discriminator 3
 1215 0038 452C     		cmp	r4, #69
 1216 003a F5D1     		bne	.L42
 1217              	.LVL107:
 1218              	.LBB1254:
 1219              	.LBB1255:
 1220              	.LBB1256:
 1221              	.LBB1257:
 1222              		.loc 2 546 0
 1223 003c 2026     		movs	r6, #32
 1224              		.syntax unified
 1225              	@ 546 "../../../os/ext/CMSIS/include/core_cmFunc.h" 1
 1226 003e 86F31188 		MSR basepri, r6
 1227              	@ 0 "" 2
 1228              	.LVL108:
 1229              		.thumb
 1230              		.syntax unified
 1231              	.LBE1257:
 1232              	.LBE1256:
 1233              	.LBE1255:
 1234              	.LBE1254:
 1235              	.LBB1258:
 1236              	.LBB1259:
 1237              		.loc 3 407 0
 1238 0042 A968     		ldr	r1, [r5, #8]
 1239              	.LBE1259:
 1240              	.LBE1258:
 1241              		.loc 1 185 0
 1242 0044 B1FA81F1 		clz	r1, r1
 1243 0048 4909     		lsrs	r1, r1, #5
 1244 004a 0220     		movs	r0, #2
 1245 004c FFF7FEFF 		bl	_test_assert
 1246              	.LVL109:
 1247 0050 0746     		mov	r7, r0
 1248 0052 E0B9     		cbnz	r0, .L59
 1249              	.LVL110:
 1250              	.LBB1260:
 1251              	.LBB1261:
 1252              	.LBB1262:
 1253              	.LBB1263:
 1254              	.LBB1264:
ARM GAS  /var/folders/qd/4mxf5pkd0zdf0b9dd1hp39180000gn/T//ccdQiej2.s 			page 23


 1255              	.LBB1265:
 1256              	.LBB1266:
 1257              		.loc 2 546 0
 1258              		.syntax unified
 1259              	@ 546 "../../../os/ext/CMSIS/include/core_cmFunc.h" 1
 1260 0054 80F31188 		MSR basepri, r0
 1261              	@ 0 "" 2
 1262              	.LVL111:
 1263              		.thumb
 1264              		.syntax unified
 1265              	.LBE1266:
 1266              	.LBE1265:
 1267              	.LBE1264:
 1268              	.LBE1263:
 1269              	.LBE1262:
 1270              	.LBB1271:
 1271              		.loc 1 192 0
 1272 0058 DFF8C891 		ldr	r9, .L62
 1273              	.LBB1272:
 1274              	.LBB1273:
 1275              	.LBB1274:
 1276              	.LBB1275:
 1277              	.LBB1276:
 1278              		.loc 2 546 0
 1279 005c 8046     		mov	r8, r0
 1280              	.LBE1276:
 1281              	.LBE1275:
 1282              	.LBE1274:
 1283              	.LBE1273:
 1284              	.LBE1272:
 1285              	.LBE1271:
 1286              	.LBB1286:
 1287              	.LBB1270:
 1288              	.LBB1269:
 1289              	.LBB1268:
 1290              	.LBB1267:
 1291 005e 0424     		movs	r4, #4
 1292              	.LVL112:
 1293              	.L44:
 1294              	.LBE1267:
 1295              	.LBE1268:
 1296              	.LBE1269:
 1297              	.LBE1270:
 1298              	.LBE1286:
 1299              	.LBB1287:
 1300              	.LBB1281:
 1301              	.LBB1282:
 1302              	.LBB1283:
 1303              	.LBB1284:
 1304              		.syntax unified
 1305              	@ 546 "../../../os/ext/CMSIS/include/core_cmFunc.h" 1
 1306 0060 86F31188 		MSR basepri, r6
 1307              	@ 0 "" 2
 1308              	.LVL113:
 1309              		.thumb
 1310              		.syntax unified
 1311              	.LBE1284:
ARM GAS  /var/folders/qd/4mxf5pkd0zdf0b9dd1hp39180000gn/T//ccdQiej2.s 			page 24


 1312              	.LBE1283:
 1313              	.LBE1282:
 1314              	.LBE1281:
 1315              		.loc 1 192 0
 1316 0064 4846     		mov	r0, r9
 1317 0066 FFF7FEFF 		bl	chOQGetI
 1318              	.LVL114:
 1319              	.LBB1285:
 1320              	.LBB1280:
 1321              	.LBB1279:
 1322              	.LBB1278:
 1323              	.LBB1277:
 1324              		.loc 2 546 0
 1325              		.syntax unified
 1326              	@ 546 "../../../os/ext/CMSIS/include/core_cmFunc.h" 1
 1327 006a 88F31188 		MSR basepri, r8
 1328              	@ 0 "" 2
 1329              	.LVL115:
 1330              		.thumb
 1331              		.syntax unified
 1332              	.LBE1277:
 1333              	.LBE1278:
 1334              	.LBE1279:
 1335              	.LBE1280:
 1336              	.LBE1285:
 1337              		.loc 1 194 0
 1338 006e C0B2     		uxtb	r0, r0
 1339 0070 FFF7FEFF 		bl	test_emit_token
 1340              	.LVL116:
 1341              	.LBE1287:
 1342              		.loc 1 188 0
 1343 0074 013C     		subs	r4, r4, #1
 1344              	.LVL117:
 1345 0076 F3D1     		bne	.L44
 1346              	.LVL118:
 1347              	.LBB1288:
 1348              	.LBB1289:
 1349              	.LBB1290:
 1350              	.LBB1291:
 1351              		.loc 2 546 0
 1352              		.syntax unified
 1353              	@ 546 "../../../os/ext/CMSIS/include/core_cmFunc.h" 1
 1354 0078 86F31188 		MSR basepri, r6
 1355              	@ 0 "" 2
 1356              	.LVL119:
 1357              		.thumb
 1358              		.syntax unified
 1359              	.LBE1291:
 1360              	.LBE1290:
 1361              	.LBE1289:
 1362              	.LBE1288:
 1363              	.LBB1292:
 1364              	.LBB1293:
 1365              		.loc 3 390 0
 1366 007c D5E90523 		ldrd	r2, r3, [r5, #20]
 1367 0080 9A42     		cmp	r2, r3
 1368 0082 2AD0     		beq	.L61
ARM GAS  /var/folders/qd/4mxf5pkd0zdf0b9dd1hp39180000gn/T//ccdQiej2.s 			page 25


 1369              	.L45:
 1370              	.LVL120:
 1371              	.LBE1293:
 1372              	.LBE1292:
 1373              		.loc 1 196 0
 1374 0084 3946     		mov	r1, r7
 1375 0086 0320     		movs	r0, #3
 1376 0088 FFF7FEFF 		bl	_test_assert
 1377              	.LVL121:
 1378 008c 50B1     		cbz	r0, .L46
 1379              	.LVL122:
 1380              	.L59:
 1381              	.LBB1295:
 1382              	.LBB1296:
 1383              	.LBB1297:
 1384              	.LBB1298:
 1385              	.LBB1299:
 1386              		.loc 2 546 0
 1387 008e 0023     		movs	r3, #0
 1388              		.syntax unified
 1389              	@ 546 "../../../os/ext/CMSIS/include/core_cmFunc.h" 1
 1390 0090 83F31188 		MSR basepri, r3
 1391              	@ 0 "" 2
 1392              	.LVL123:
 1393              		.thumb
 1394              		.syntax unified
 1395              	.L38:
 1396              	.LBE1299:
 1397              	.LBE1298:
 1398              	.LBE1297:
 1399              	.LBE1296:
 1400              	.LBE1295:
 1401              	.LBE1261:
 1402              	.LBE1260:
 1403              		.loc 1 223 0
 1404 0094 03B0     		add	sp, sp, #12
 1405              		.cfi_remember_state
 1406              		.cfi_def_cfa_offset 28
 1407              		@ sp needed
 1408 0096 BDE8F083 		pop	{r4, r5, r6, r7, r8, r9, pc}
 1409              	.LVL124:
 1410              	.L60:
 1411              		.cfi_restore_state
 1412              	.LBB1398:
 1413              	.LBB1239:
 1414              		.loc 3 390 0
 1415 009a A968     		ldr	r1, [r5, #8]
 1416 009c 0031     		adds	r1, r1, #0
 1417 009e 18BF     		it	ne
 1418 00a0 0121     		movne	r1, #1
 1419 00a2 B9E7     		b	.L39
 1420              	.LVL125:
 1421              	.L46:
 1422              	.LBE1239:
 1423              	.LBE1398:
 1424              	.LBB1399:
 1425              	.LBB1396:
ARM GAS  /var/folders/qd/4mxf5pkd0zdf0b9dd1hp39180000gn/T//ccdQiej2.s 			page 26


 1426              	.LBB1300:
 1427              	.LBB1301:
 1428              	.LBB1302:
 1429              	.LBB1303:
 1430              	.LBB1304:
 1431              		.loc 2 546 0
 1432              		.syntax unified
 1433              	@ 546 "../../../os/ext/CMSIS/include/core_cmFunc.h" 1
 1434 00a4 80F31188 		MSR basepri, r0
 1435              	@ 0 "" 2
 1436              	.LVL126:
 1437              		.thumb
 1438              		.syntax unified
 1439              	.LBE1304:
 1440              	.LBE1303:
 1441              	.LBE1302:
 1442              	.LBE1301:
 1443              	.LBE1300:
 1444              		.loc 1 197 0
 1445 00a8 5F49     		ldr	r1, .L62+4
 1446 00aa 0420     		movs	r0, #4
 1447 00ac FFF7FEFF 		bl	_test_assert_sequence
 1448              	.LVL127:
 1449 00b0 0446     		mov	r4, r0
 1450              	.LVL128:
 1451 00b2 0028     		cmp	r0, #0
 1452 00b4 EED1     		bne	.L38
 1453              	.LVL129:
 1454              	.LBB1305:
 1455              	.LBB1306:
 1456              	.LBB1307:
 1457              	.LBB1308:
 1458              		.loc 2 546 0
 1459 00b6 2026     		movs	r6, #32
 1460              		.syntax unified
 1461              	@ 546 "../../../os/ext/CMSIS/include/core_cmFunc.h" 1
 1462 00b8 86F31188 		MSR basepri, r6
 1463              	@ 0 "" 2
 1464              	.LVL130:
 1465              		.thumb
 1466              		.syntax unified
 1467              	.LBE1308:
 1468              	.LBE1307:
 1469              	.LBE1306:
 1470              	.LBE1305:
 1471              		.loc 1 198 0
 1472 00bc 5948     		ldr	r0, .L62
 1473 00be FFF7FEFF 		bl	chOQGetI
 1474              	.LVL131:
 1475 00c2 0330     		adds	r0, r0, #3
 1476 00c4 14BF     		ite	ne
 1477 00c6 0021     		movne	r1, #0
 1478 00c8 0121     		moveq	r1, #1
 1479 00ca 0520     		movs	r0, #5
 1480 00cc FFF7FEFF 		bl	_test_assert
 1481              	.LVL132:
 1482 00d0 0346     		mov	r3, r0
ARM GAS  /var/folders/qd/4mxf5pkd0zdf0b9dd1hp39180000gn/T//ccdQiej2.s 			page 27


 1483 00d2 38B1     		cbz	r0, .L48
 1484              	.LVL133:
 1485              	.LBB1309:
 1486              	.LBB1310:
 1487              	.LBB1311:
 1488              	.LBB1312:
 1489              	.LBB1313:
 1490              		.loc 2 546 0
 1491              		.syntax unified
 1492              	@ 546 "../../../os/ext/CMSIS/include/core_cmFunc.h" 1
 1493 00d4 84F31188 		MSR basepri, r4
 1494              	@ 0 "" 2
 1495              	.LVL134:
 1496              		.thumb
 1497              		.syntax unified
 1498 00d8 DCE7     		b	.L38
 1499              	.LVL135:
 1500              	.L61:
 1501              	.LBE1313:
 1502              	.LBE1312:
 1503              	.LBE1311:
 1504              	.LBE1310:
 1505              	.LBE1309:
 1506              	.LBB1314:
 1507              	.LBB1294:
 1508              		.loc 3 390 0
 1509 00da AF68     		ldr	r7, [r5, #8]
 1510 00dc 0037     		adds	r7, r7, #0
 1511 00de 18BF     		it	ne
 1512 00e0 0127     		movne	r7, #1
 1513 00e2 CFE7     		b	.L45
 1514              	.LVL136:
 1515              	.L48:
 1516              	.LBE1294:
 1517              	.LBE1314:
 1518              	.LBB1315:
 1519              	.LBB1316:
 1520              	.LBB1317:
 1521              	.LBB1318:
 1522              	.LBB1319:
 1523              		.loc 2 546 0
 1524              		.syntax unified
 1525              	@ 546 "../../../os/ext/CMSIS/include/core_cmFunc.h" 1
 1526 00e4 80F31188 		MSR basepri, r0
 1527              	@ 0 "" 2
 1528              	.LVL137:
 1529              		.thumb
 1530              		.syntax unified
 1531              	.LBE1319:
 1532              	.LBE1318:
 1533              	.LBE1317:
 1534              	.LBE1316:
 1535              	.LBE1315:
 1536              		.loc 1 201 0
 1537 00e8 504F     		ldr	r7, .L62+8
 1538 00ea 4E48     		ldr	r0, .L62
 1539 00ec 7C68     		ldr	r4, [r7, #4]
ARM GAS  /var/folders/qd/4mxf5pkd0zdf0b9dd1hp39180000gn/T//ccdQiej2.s 			page 28


 1540 00ee 0822     		movs	r2, #8
 1541 00f0 2146     		mov	r1, r4
 1542 00f2 FFF7FEFF 		bl	chOQWriteTimeout
 1543              	.LVL138:
 1544              		.loc 1 202 0
 1545 00f6 A0F10401 		sub	r1, r0, #4
 1546 00fa B1FA81F1 		clz	r1, r1
 1547 00fe 4909     		lsrs	r1, r1, #5
 1548 0100 0620     		movs	r0, #6
 1549              	.LVL139:
 1550 0102 FFF7FEFF 		bl	_test_assert
 1551              	.LVL140:
 1552 0106 8046     		mov	r8, r0
 1553 0108 0028     		cmp	r0, #0
 1554 010a C3D1     		bne	.L38
 1555              	.LVL141:
 1556              	.LBB1320:
 1557              	.LBB1321:
 1558              	.LBB1322:
 1559              	.LBB1323:
 1560              		.loc 2 546 0
 1561              		.syntax unified
 1562              	@ 546 "../../../os/ext/CMSIS/include/core_cmFunc.h" 1
 1563 010c 86F31188 		MSR basepri, r6
 1564              	@ 0 "" 2
 1565              	.LVL142:
 1566              		.thumb
 1567              		.syntax unified
 1568              	.LBE1323:
 1569              	.LBE1322:
 1570              	.LBE1321:
 1571              	.LBE1320:
 1572              	.LBB1324:
 1573              	.LBB1325:
 1574              		.loc 3 407 0
 1575 0110 A968     		ldr	r1, [r5, #8]
 1576              	.LBE1325:
 1577              	.LBE1324:
 1578              		.loc 1 203 0
 1579 0112 B1FA81F1 		clz	r1, r1
 1580 0116 4909     		lsrs	r1, r1, #5
 1581 0118 0720     		movs	r0, #7
 1582 011a FFF7FEFF 		bl	_test_assert
 1583              	.LVL143:
 1584 011e 8146     		mov	r9, r0
 1585 0120 10B1     		cbz	r0, .L50
 1586              	.LVL144:
 1587              	.LBB1326:
 1588              	.LBB1327:
 1589              	.LBB1328:
 1590              	.LBB1329:
 1591              	.LBB1330:
 1592              		.loc 2 546 0
 1593              		.syntax unified
 1594              	@ 546 "../../../os/ext/CMSIS/include/core_cmFunc.h" 1
 1595 0122 88F31188 		MSR basepri, r8
 1596              	@ 0 "" 2
ARM GAS  /var/folders/qd/4mxf5pkd0zdf0b9dd1hp39180000gn/T//ccdQiej2.s 			page 29


 1597              	.LVL145:
 1598              		.thumb
 1599              		.syntax unified
 1600 0126 B5E7     		b	.L38
 1601              	.L50:
 1602              	.LVL146:
 1603              	.LBE1330:
 1604              	.LBE1329:
 1605              	.LBE1328:
 1606              	.LBE1327:
 1607              	.LBE1326:
 1608              	.LBB1331:
 1609              	.LBB1332:
 1610              	.LBB1333:
 1611              	.LBB1334:
 1612              	.LBB1335:
 1613              		.syntax unified
 1614              	@ 546 "../../../os/ext/CMSIS/include/core_cmFunc.h" 1
 1615 0128 80F31188 		MSR basepri, r0
 1616              	@ 0 "" 2
 1617              	.LVL147:
 1618              		.thumb
 1619              		.syntax unified
 1620              	.LBE1335:
 1621              	.LBE1334:
 1622              	.LBE1333:
 1623              	.LBE1332:
 1624              	.LBE1331:
 1625              	.LBB1336:
 1626              	.LBB1337:
 1627              	.LBB1338:
 1628              	.LBB1339:
 1629              		.loc 4 176 0
 1630 012c 404B     		ldr	r3, .L62+12
 1631              	.LBE1339:
 1632              	.LBE1338:
 1633              	.LBE1337:
 1634              	.LBE1336:
 1635              		.loc 1 204 0
 1636 012e 3868     		ldr	r0, [r7]
 1637              	.LBB1341:
 1638              	.LBB1340:
 1639              		.loc 4 189 0
 1640 0130 9A69     		ldr	r2, [r3, #24]
 1641              	.LBE1340:
 1642              	.LBE1341:
 1643              		.loc 1 204 0
 1644 0132 404B     		ldr	r3, .L62+16
 1645 0134 9268     		ldr	r2, [r2, #8]
 1646 0136 CDF80090 		str	r9, [sp]
 1647 013a 0132     		adds	r2, r2, #1
 1648 013c 4FF4A471 		mov	r1, #328
 1649 0140 FFF7FEFF 		bl	chThdCreateStatic
 1650              	.LVL148:
 1651 0144 3C4B     		ldr	r3, .L62+20
 1652 0146 1860     		str	r0, [r3]
 1653              	.LVL149:
ARM GAS  /var/folders/qd/4mxf5pkd0zdf0b9dd1hp39180000gn/T//ccdQiej2.s 			page 30


 1654              	.LBB1342:
 1655              	.LBB1343:
 1656              	.LBB1344:
 1657              	.LBB1345:
 1658              		.loc 2 546 0
 1659              		.syntax unified
 1660              	@ 546 "../../../os/ext/CMSIS/include/core_cmFunc.h" 1
 1661 0148 86F31188 		MSR basepri, r6
 1662              	@ 0 "" 2
 1663              	.LVL150:
 1664              		.thumb
 1665              		.syntax unified
 1666              	.LBE1345:
 1667              	.LBE1344:
 1668              	.LBE1343:
 1669              	.LBE1342:
 1670              	.LBB1346:
 1671              	.LBB1347:
 1672              		.loc 3 357 0
 1673 014c D5E90323 		ldrd	r2, r3, [r5, #12]
 1674 0150 A968     		ldr	r1, [r5, #8]
 1675 0152 9B1A     		subs	r3, r3, r2
 1676 0154 591A     		subs	r1, r3, r1
 1677              	.LBE1347:
 1678              	.LBE1346:
 1679              		.loc 1 205 0
 1680 0156 A1F10401 		sub	r1, #4
 1681 015a B1FA81F1 		clz	r1, r1
 1682 015e 4909     		lsrs	r1, r1, #5
 1683 0160 0820     		movs	r0, #8
 1684 0162 FFF7FEFF 		bl	_test_assert
 1685              	.LVL151:
 1686 0166 0746     		mov	r7, r0
 1687 0168 10B1     		cbz	r0, .L51
 1688              	.LVL152:
 1689              	.LBB1348:
 1690              	.LBB1349:
 1691              	.LBB1350:
 1692              	.LBB1351:
 1693              	.LBB1352:
 1694              		.loc 2 546 0
 1695              		.syntax unified
 1696              	@ 546 "../../../os/ext/CMSIS/include/core_cmFunc.h" 1
 1697 016a 89F31188 		MSR basepri, r9
 1698              	@ 0 "" 2
 1699              	.LVL153:
 1700              		.thumb
 1701              		.syntax unified
 1702 016e 91E7     		b	.L38
 1703              	.L51:
 1704              	.LVL154:
 1705              	.LBE1352:
 1706              	.LBE1351:
 1707              	.LBE1350:
 1708              	.LBE1349:
 1709              	.LBE1348:
 1710              	.LBB1353:
ARM GAS  /var/folders/qd/4mxf5pkd0zdf0b9dd1hp39180000gn/T//ccdQiej2.s 			page 31


 1711              	.LBB1354:
 1712              	.LBB1355:
 1713              	.LBB1356:
 1714              	.LBB1357:
 1715              		.syntax unified
 1716              	@ 546 "../../../os/ext/CMSIS/include/core_cmFunc.h" 1
 1717 0170 80F31188 		MSR basepri, r0
 1718              	@ 0 "" 2
 1719              	.LVL155:
 1720              		.thumb
 1721              		.syntax unified
 1722              	.LBE1357:
 1723              	.LBE1356:
 1724              	.LBE1355:
 1725              	.LBE1354:
 1726              	.LBE1353:
 1727              		.loc 1 206 0
 1728 0174 FFF7FEFF 		bl	test_wait_threads
 1729              	.LVL156:
 1730              	.LBB1358:
 1731              	.LBB1359:
 1732              	.LBB1360:
 1733              	.LBB1361:
 1734              		.loc 2 546 0
 1735              		.syntax unified
 1736              	@ 546 "../../../os/ext/CMSIS/include/core_cmFunc.h" 1
 1737 0178 86F31188 		MSR basepri, r6
 1738              	@ 0 "" 2
 1739              	.LVL157:
 1740              		.thumb
 1741              		.syntax unified
 1742              	.LBE1361:
 1743              	.LBE1360:
 1744              	.LBE1359:
 1745              	.LBE1358:
 1746              		.loc 1 210 0
 1747 017c 2948     		ldr	r0, .L62
 1748 017e FFF7FEFF 		bl	chOQResetI
 1749              	.LVL158:
 1750              	.LBB1362:
 1751              	.LBB1363:
 1752              	.LBB1364:
 1753              	.LBB1365:
 1754              	.LBB1366:
 1755              		.loc 2 546 0
 1756              		.syntax unified
 1757              	@ 546 "../../../os/ext/CMSIS/include/core_cmFunc.h" 1
 1758 0182 87F31188 		MSR basepri, r7
 1759              	@ 0 "" 2
 1760              	.LVL159:
 1761              		.thumb
 1762              		.syntax unified
 1763              	.LBE1366:
 1764              	.LBE1365:
 1765              	.LBE1364:
 1766              	.LBE1363:
 1767              	.LBE1362:
ARM GAS  /var/folders/qd/4mxf5pkd0zdf0b9dd1hp39180000gn/T//ccdQiej2.s 			page 32


 1768              	.LBB1367:
 1769              	.LBB1368:
 1770              	.LBB1369:
 1771              	.LBB1370:
 1772              		.syntax unified
 1773              	@ 546 "../../../os/ext/CMSIS/include/core_cmFunc.h" 1
 1774 0186 86F31188 		MSR basepri, r6
 1775              	@ 0 "" 2
 1776              	.LVL160:
 1777              		.thumb
 1778              		.syntax unified
 1779              	.LBE1370:
 1780              	.LBE1369:
 1781              	.LBE1368:
 1782              	.LBE1367:
 1783              	.LBB1371:
 1784              	.LBB1372:
 1785              		.loc 3 357 0
 1786 018a D5E90323 		ldrd	r2, r3, [r5, #12]
 1787              	.LBE1372:
 1788              	.LBE1371:
 1789              		.loc 1 212 0
 1790 018e A968     		ldr	r1, [r5, #8]
 1791              	.LBB1374:
 1792              	.LBB1373:
 1793              		.loc 3 357 0
 1794 0190 9B1A     		subs	r3, r3, r2
 1795              	.LBE1373:
 1796              	.LBE1374:
 1797              		.loc 1 212 0
 1798 0192 A3EB010C 		sub	ip, r3, r1
 1799 0196 DCF10001 		rsbs	r1, ip, #0
 1800 019a 41EB0C01 		adc	r1, r1, ip
 1801 019e 0920     		movs	r0, #9
 1802 01a0 FFF7FEFF 		bl	_test_assert
 1803              	.LVL161:
 1804 01a4 0346     		mov	r3, r0
 1805 01a6 10B1     		cbz	r0, .L52
 1806              	.LVL162:
 1807              	.LBB1375:
 1808              	.LBB1376:
 1809              	.LBB1377:
 1810              	.LBB1378:
 1811              	.LBB1379:
 1812              		.loc 2 546 0
 1813              		.syntax unified
 1814              	@ 546 "../../../os/ext/CMSIS/include/core_cmFunc.h" 1
 1815 01a8 87F31188 		MSR basepri, r7
 1816              	@ 0 "" 2
 1817              	.LVL163:
 1818              		.thumb
 1819              		.syntax unified
 1820 01ac 72E7     		b	.L38
 1821              	.L52:
 1822              	.LVL164:
 1823              	.LBE1379:
 1824              	.LBE1378:
ARM GAS  /var/folders/qd/4mxf5pkd0zdf0b9dd1hp39180000gn/T//ccdQiej2.s 			page 33


 1825              	.LBE1377:
 1826              	.LBE1376:
 1827              	.LBE1375:
 1828              	.LBB1380:
 1829              	.LBB1381:
 1830              	.LBB1382:
 1831              	.LBB1383:
 1832              	.LBB1384:
 1833              		.syntax unified
 1834              	@ 546 "../../../os/ext/CMSIS/include/core_cmFunc.h" 1
 1835 01ae 80F31188 		MSR basepri, r0
 1836              	@ 0 "" 2
 1837              	.LVL165:
 1838              		.thumb
 1839              		.syntax unified
 1840              	.LBE1384:
 1841              	.LBE1383:
 1842              	.LBE1382:
 1843              	.LBE1381:
 1844              	.LBE1380:
 1845              		.loc 1 215 0
 1846 01b2 0222     		movs	r2, #2
 1847 01b4 2146     		mov	r1, r4
 1848 01b6 1B48     		ldr	r0, .L62
 1849 01b8 FFF7FEFF 		bl	chOQWriteTimeout
 1850              	.LVL166:
 1851              		.loc 1 216 0
 1852 01bc 0238     		subs	r0, r0, #2
 1853              	.LVL167:
 1854 01be 4142     		rsbs	r1, r0, #0
 1855 01c0 4141     		adcs	r1, r1, r0
 1856 01c2 0A20     		movs	r0, #10
 1857              	.LVL168:
 1858 01c4 FFF7FEFF 		bl	_test_assert
 1859              	.LVL169:
 1860 01c8 0346     		mov	r3, r0
 1861 01ca 0028     		cmp	r0, #0
 1862 01cc 7FF462AF 		bne	.L38
 1863              		.loc 1 217 0
 1864 01d0 2146     		mov	r1, r4
 1865 01d2 0222     		movs	r2, #2
 1866 01d4 1348     		ldr	r0, .L62
 1867 01d6 FFF7FEFF 		bl	chOQWriteTimeout
 1868              	.LVL170:
 1869              		.loc 1 218 0
 1870 01da 821E     		subs	r2, r0, #2
 1871 01dc 5142     		rsbs	r1, r2, #0
 1872 01de 5141     		adcs	r1, r1, r2
 1873 01e0 0B20     		movs	r0, #11
 1874              	.LVL171:
 1875 01e2 FFF7FEFF 		bl	_test_assert
 1876              	.LVL172:
 1877 01e6 0028     		cmp	r0, #0
 1878 01e8 7FF454AF 		bne	.L38
 1879              	.LVL173:
 1880              	.LBB1385:
 1881              	.LBB1386:
ARM GAS  /var/folders/qd/4mxf5pkd0zdf0b9dd1hp39180000gn/T//ccdQiej2.s 			page 34


 1882              	.LBB1387:
 1883              	.LBB1388:
 1884              		.loc 2 546 0
 1885              		.syntax unified
 1886              	@ 546 "../../../os/ext/CMSIS/include/core_cmFunc.h" 1
 1887 01ec 86F31188 		MSR basepri, r6
 1888              	@ 0 "" 2
 1889              	.LVL174:
 1890              		.thumb
 1891              		.syntax unified
 1892              	.LBE1388:
 1893              	.LBE1387:
 1894              	.LBE1386:
 1895              	.LBE1385:
 1896              	.LBB1389:
 1897              	.LBB1390:
 1898              		.loc 3 407 0
 1899 01f0 A968     		ldr	r1, [r5, #8]
 1900              	.LBE1390:
 1901              	.LBE1389:
 1902              		.loc 1 219 0
 1903 01f2 B1FA81F1 		clz	r1, r1
 1904 01f6 4909     		lsrs	r1, r1, #5
 1905 01f8 0C20     		movs	r0, #12
 1906 01fa FFF7FEFF 		bl	_test_assert
 1907              	.LVL175:
 1908 01fe 0028     		cmp	r0, #0
 1909 0200 7FF445AF 		bne	.L59
 1910              	.LVL176:
 1911              	.LBB1391:
 1912              	.LBB1392:
 1913              	.LBB1393:
 1914              	.LBB1394:
 1915              	.LBB1395:
 1916              		.loc 2 546 0
 1917 0204 0021     		movs	r1, #0
 1918              		.syntax unified
 1919              	@ 546 "../../../os/ext/CMSIS/include/core_cmFunc.h" 1
 1920 0206 81F31188 		MSR basepri, r1
 1921              	@ 0 "" 2
 1922              	.LVL177:
 1923              		.thumb
 1924              		.syntax unified
 1925              	.LBE1395:
 1926              	.LBE1394:
 1927              	.LBE1393:
 1928              	.LBE1392:
 1929              	.LBE1391:
 1930              		.loc 1 222 0
 1931 020a 0A22     		movs	r2, #10
 1932 020c 0548     		ldr	r0, .L62
 1933 020e FFF7FEFF 		bl	chOQPutTimeout
 1934              	.LVL178:
 1935 0212 431C     		adds	r3, r0, #1
 1936 0214 5942     		rsbs	r1, r3, #0
 1937 0216 5941     		adcs	r1, r1, r3
 1938 0218 0D20     		movs	r0, #13
ARM GAS  /var/folders/qd/4mxf5pkd0zdf0b9dd1hp39180000gn/T//ccdQiej2.s 			page 35


 1939              	.LBE1396:
 1940              	.LBE1399:
 1941              		.loc 1 223 0
 1942 021a 03B0     		add	sp, sp, #12
 1943              		.cfi_def_cfa_offset 28
 1944              		@ sp needed
 1945 021c BDE8F043 		pop	{r4, r5, r6, r7, r8, r9, lr}
 1946              		.cfi_restore 14
 1947              		.cfi_restore 9
 1948              		.cfi_restore 8
 1949              		.cfi_restore 7
 1950              		.cfi_restore 6
 1951              		.cfi_restore 5
 1952              		.cfi_restore 4
 1953              		.cfi_def_cfa_offset 0
 1954              	.LBB1400:
 1955              	.LBB1397:
 1956              		.loc 1 222 0
 1957 0220 FFF7FEBF 		b	_test_assert
 1958              	.LVL179:
 1959              	.L63:
 1960              		.align	2
 1961              	.L62:
 1962 0224 00000000 		.word	.LANCHOR1
 1963 0228 00000000 		.word	.LC0
 1964 022c 00000000 		.word	wa
 1965 0230 00000000 		.word	ch
 1966 0234 00000000 		.word	thread2
 1967 0238 00000000 		.word	threads
 1968              	.LBE1397:
 1969              	.LBE1400:
 1970              		.cfi_endproc
 1971              	.LFE235:
 1972              		.size	queues2_execute, .-queues2_execute
 1973              		.global	patternqueues
 1974              		.global	testqueues2
 1975              		.global	testqueues1
 1976              		.section	.data.iq,"aw",%progbits
 1977              		.align	2
 1978              		.set	.LANCHOR0,. + 0
 1979              		.type	iq, %object
 1980              		.size	iq, 36
 1981              	iq:
 1982 0000 00000000 		.word	iq
 1983 0004 00000000 		.word	iq
 1984 0008 00000000 		.word	0
 1985 000c 00000000 		.word	test
 1986 0010 04000000 		.word	test+4
 1987 0014 00000000 		.word	test
 1988 0018 00000000 		.word	test
 1989 001c 00000000 		.word	notify
 1990 0020 00000000 		.word	0
 1991              		.section	.data.oq,"aw",%progbits
 1992              		.align	2
 1993              		.set	.LANCHOR1,. + 0
 1994              		.type	oq, %object
 1995              		.size	oq, 36
ARM GAS  /var/folders/qd/4mxf5pkd0zdf0b9dd1hp39180000gn/T//ccdQiej2.s 			page 36


 1996              	oq:
 1997 0000 00000000 		.word	oq
 1998 0004 00000000 		.word	oq
 1999 0008 04000000 		.word	4
 2000 000c 48010000 		.word	test+328
 2001 0010 4C010000 		.word	test+332
 2002 0014 48010000 		.word	test+328
 2003 0018 48010000 		.word	test+328
 2004 001c 00000000 		.word	notify
 2005 0020 00000000 		.word	0
 2006              		.section	.rodata.patternqueues,"a",%progbits
 2007              		.align	2
 2008              		.type	patternqueues, %object
 2009              		.size	patternqueues, 12
 2010              	patternqueues:
 2011 0000 00000000 		.word	testqueues1
 2012 0004 00000000 		.word	testqueues2
 2013 0008 00000000 		.word	0
 2014              		.section	.rodata.queues1_execute.str1.4,"aMS",%progbits,1
 2015              		.align	2
 2016              	.LC0:
 2017 0000 41424344 		.ascii	"ABCD\000"
 2017      00
 2018              		.section	.rodata.str1.4,"aMS",%progbits,1
 2019              		.align	2
 2020              	.LC1:
 2021 0000 51756575 		.ascii	"Queues, output queues\000"
 2021      65732C20 
 2021      6F757470 
 2021      75742071 
 2021      75657565 
 2022 0016 0000     		.space	2
 2023              	.LC2:
 2024 0018 51756575 		.ascii	"Queues, input queues\000"
 2024      65732C20 
 2024      696E7075 
 2024      74207175 
 2024      65756573 
 2025              		.section	.rodata.testqueues1,"a",%progbits
 2026              		.align	2
 2027              		.type	testqueues1, %object
 2028              		.size	testqueues1, 16
 2029              	testqueues1:
 2030 0000 18000000 		.word	.LC2
 2031 0004 00000000 		.word	queues1_setup
 2032 0008 00000000 		.word	0
 2033 000c 00000000 		.word	queues1_execute
 2034              		.section	.rodata.testqueues2,"a",%progbits
 2035              		.align	2
 2036              		.type	testqueues2, %object
 2037              		.size	testqueues2, 16
 2038              	testqueues2:
 2039 0000 00000000 		.word	.LC1
 2040 0004 00000000 		.word	queues2_setup
 2041 0008 00000000 		.word	0
 2042 000c 00000000 		.word	queues2_execute
 2043              		.text
ARM GAS  /var/folders/qd/4mxf5pkd0zdf0b9dd1hp39180000gn/T//ccdQiej2.s 			page 37


 2044              	.Letext0:
 2045              		.file 5 "/Applications/Eclipse_e-puck2.app/Contents/Eclipse_e-puck2/Tools/gcc-arm-none-eabi-7-2017
 2046              		.file 6 "/Applications/Eclipse_e-puck2.app/Contents/Eclipse_e-puck2/Tools/gcc-arm-none-eabi-7-2017
 2047              		.file 7 "/Applications/Eclipse_e-puck2.app/Contents/Eclipse_e-puck2/Tools/gcc-arm-none-eabi-7-2017
 2048              		.file 8 "../../../os/rt/ports/ARMCMx/compilers/GCC/chtypes.h"
 2049              		.file 9 "../../../os/rt/include/chsystypes.h"
 2050              		.file 10 "../../../os/rt/include/chschd.h"
 2051              		.file 11 "../../../os/ext/CMSIS/include/core_cm4.h"
 2052              		.file 12 "../../../os/ext/CMSIS/ST/system_stm32f4xx.h"
 2053              		.file 13 "../../../os/rt/ports/ARMCMx/chcore.h"
 2054              		.file 14 "../../../os/rt/ports/ARMCMx/chcore_v7m.h"
 2055              		.file 15 "../../../os/rt/include/chtm.h"
 2056              		.file 16 "../../../os/rt/include/chsem.h"
 2057              		.file 17 "../../../os/rt/include/chmtx.h"
 2058              		.file 18 "../../../os/rt/include/chregistry.h"
 2059              		.file 19 "../../../test/rt/test.h"
 2060              		.file 20 "../../../os/rt/include/chsys.h"