ARM GAS  /var/folders/qd/4mxf5pkd0zdf0b9dd1hp39180000gn/T//ccvUrqcz.s 			page 1


   1              		.cpu cortex-m4
   2              		.eabi_attribute 20, 1
   3              		.eabi_attribute 21, 1
   4              		.eabi_attribute 23, 3
   5              		.eabi_attribute 24, 1
   6              		.eabi_attribute 25, 1
   7              		.eabi_attribute 26, 1
   8              		.eabi_attribute 30, 2
   9              		.eabi_attribute 34, 1
  10              		.eabi_attribute 18, 4
  11              		.file	"testmbox.c"
  12              		.text
  13              	.Ltext0:
  14              		.cfi_sections	.debug_frame
  15              		.section	.text.mbox1_execute,"ax",%progbits
  16              		.align	1
  17              		.p2align 4,,15
  18              		.syntax unified
  19              		.thumb
  20              		.thumb_func
  21              		.fpu softvfp
  22              		.type	mbox1_execute, %function
  23              	mbox1_execute:
  24              	.LFB230:
  25              		.file 1 "../../../test/rt/testmbox.c"
  26              		.loc 1 76 0
  27              		.cfi_startproc
  28              		@ args = 0, pretend = 0, frame = 8
  29              		@ frame_needed = 0, uses_anonymous_args = 0
  30              	.LVL0:
  31 0000 2DE9F041 		push	{r4, r5, r6, r7, r8, lr}
  32              		.cfi_def_cfa_offset 24
  33              		.cfi_offset 4, -24
  34              		.cfi_offset 5, -20
  35              		.cfi_offset 6, -16
  36              		.cfi_offset 7, -12
  37              		.cfi_offset 8, -8
  38              		.cfi_offset 14, -4
  39              	.LBB335:
  40              	.LBB336:
  41              	.LBB337:
  42              	.LBB338:
  43              		.file 2 "../../../os/ext/CMSIS/include/core_cmFunc.h"
  44              		.loc 2 546 0
  45 0004 2023     		movs	r3, #32
  46              	.LBE338:
  47              	.LBE337:
  48              	.LBE336:
  49              	.LBE335:
  50              		.loc 1 76 0
  51 0006 82B0     		sub	sp, sp, #8
  52              		.cfi_def_cfa_offset 32
  53              	.LBB342:
  54              	.LBB341:
  55              	.LBB340:
  56              	.LBB339:
  57              		.loc 2 546 0
ARM GAS  /var/folders/qd/4mxf5pkd0zdf0b9dd1hp39180000gn/T//ccvUrqcz.s 			page 2


  58              		.syntax unified
  59              	@ 546 "../../../os/ext/CMSIS/include/core_cmFunc.h" 1
  60 0008 83F31188 		MSR basepri, r3
  61              	@ 0 "" 2
  62              	.LVL1:
  63              		.thumb
  64              		.syntax unified
  65              	.LBE339:
  66              	.LBE340:
  67              	.LBE341:
  68              	.LBE342:
  69              		.loc 1 83 0
  70 000c 194D     		ldr	r5, .L38
  71 000e 696A     		ldr	r1, [r5, #36]
  72 0010 A1F10501 		sub	r1, #5
  73 0014 B1FA81F1 		clz	r1, r1
  74 0018 0120     		movs	r0, #1
  75 001a 4909     		lsrs	r1, r1, #5
  76 001c FFF7FEFF 		bl	_test_assert
  77              	.LVL2:
  78 0020 0028     		cmp	r0, #0
  79 0022 40F09881 		bne	.L33
  80              	.LVL3:
  81              	.LBB343:
  82              	.LBB344:
  83              	.LBB345:
  84              	.LBB346:
  85              	.LBB347:
  86              		.loc 2 546 0
  87              		.syntax unified
  88              	@ 546 "../../../os/ext/CMSIS/include/core_cmFunc.h" 1
  89 0026 80F31188 		MSR basepri, r0
  90              	@ 0 "" 2
  91              	.LVL4:
  92              		.thumb
  93              		.syntax unified
  94 002a 4224     		movs	r4, #66
  95              	.LBE347:
  96              	.LBE346:
  97              	.LBE345:
  98              	.LBE344:
  99              	.LBE343:
 100              		.loc 1 89 0
 101 002c 2E46     		mov	r6, r5
 102              	.LVL5:
 103              	.L5:
 104 002e 2146     		mov	r1, r4
 105 0030 4FF0FF32 		mov	r2, #-1
 106 0034 3046     		mov	r0, r6
 107 0036 FFF7FEFF 		bl	chMBPost
 108              	.LVL6:
 109              		.loc 1 90 0
 110 003a B0FA80F1 		clz	r1, r0
 111 003e 4909     		lsrs	r1, r1, #5
 112 0040 0220     		movs	r0, #2
 113              	.LVL7:
 114 0042 FFF7FEFF 		bl	_test_assert
ARM GAS  /var/folders/qd/4mxf5pkd0zdf0b9dd1hp39180000gn/T//ccvUrqcz.s 			page 3


 115              	.LVL8:
 116 0046 0134     		adds	r4, r4, #1
 117              	.LVL9:
 118 0048 80B9     		cbnz	r0, .L1
 119              		.loc 1 88 0 discriminator 2
 120 004a 462C     		cmp	r4, #70
 121 004c EFD1     		bne	.L5
 122              		.loc 1 92 0
 123 004e 4121     		movs	r1, #65
 124 0050 4FF0FF32 		mov	r2, #-1
 125 0054 0748     		ldr	r0, .L38
 126 0056 FFF7FEFF 		bl	chMBPostAhead
 127              	.LVL10:
 128              		.loc 1 93 0
 129 005a B0FA80F1 		clz	r1, r0
 130 005e 4909     		lsrs	r1, r1, #5
 131 0060 0320     		movs	r0, #3
 132              	.LVL11:
 133 0062 FFF7FEFF 		bl	_test_assert
 134              	.LVL12:
 135 0066 0028     		cmp	r0, #0
 136 0068 00F08081 		beq	.L35
 137              	.LVL13:
 138              	.L1:
 139              		.loc 1 220 0
 140 006c 02B0     		add	sp, sp, #8
 141              		.cfi_remember_state
 142              		.cfi_def_cfa_offset 24
 143              		@ sp needed
 144 006e BDE8F081 		pop	{r4, r5, r6, r7, r8, pc}
 145              	.L39:
 146 0072 00BF     		.align	2
 147              	.L38:
 148 0074 00000000 		.word	.LANCHOR0
 149              	.LVL14:
 150              	.L12:
 151              		.cfi_restore_state
 152              	.LBB348:
 153              	.LBB349:
 154              	.LBB350:
 155              	.LBB351:
 156              	.LBB352:
 157              		.loc 2 546 0
 158              		.syntax unified
 159              	@ 546 "../../../os/ext/CMSIS/include/core_cmFunc.h" 1
 160 0078 80F31188 		MSR basepri, r0
 161              	@ 0 "" 2
 162              	.LVL15:
 163              		.thumb
 164              		.syntax unified
 165              	.LBE352:
 166              	.LBE351:
 167              	.LBE350:
 168              	.LBE349:
 169              	.LBE348:
 170              	.LBB353:
 171              	.LBB354:
ARM GAS  /var/folders/qd/4mxf5pkd0zdf0b9dd1hp39180000gn/T//ccvUrqcz.s 			page 4


 172              	.LBB355:
 173              	.LBB356:
 174              		.syntax unified
 175              	@ 546 "../../../os/ext/CMSIS/include/core_cmFunc.h" 1
 176 007c 84F31188 		MSR basepri, r4
 177              	@ 0 "" 2
 178              	.LVL16:
 179              		.thumb
 180              		.syntax unified
 181              	.LBE356:
 182              	.LBE355:
 183              	.LBE354:
 184              	.LBE353:
 185              		.loc 1 159 0
 186 0080 4121     		movs	r1, #65
 187 0082 B848     		ldr	r0, .L40
 188 0084 FFF7FEFF 		bl	chMBPostI
 189              	.LVL17:
 190              		.loc 1 160 0
 191 0088 B0FA80F1 		clz	r1, r0
 192 008c 4909     		lsrs	r1, r1, #5
 193 008e 1620     		movs	r0, #22
 194              	.LVL18:
 195 0090 FFF7FEFF 		bl	_test_assert
 196              	.LVL19:
 197 0094 0028     		cmp	r0, #0
 198 0096 E9D1     		bne	.L1
 199              		.loc 1 161 0
 200 0098 4221     		movs	r1, #66
 201 009a B248     		ldr	r0, .L40
 202 009c FFF7FEFF 		bl	chMBPostI
 203              	.LVL20:
 204              		.loc 1 162 0
 205 00a0 B0FA80F1 		clz	r1, r0
 206 00a4 4909     		lsrs	r1, r1, #5
 207 00a6 1720     		movs	r0, #23
 208              	.LVL21:
 209 00a8 FFF7FEFF 		bl	_test_assert
 210              	.LVL22:
 211 00ac 0028     		cmp	r0, #0
 212 00ae DDD1     		bne	.L1
 213              		.loc 1 163 0
 214 00b0 4321     		movs	r1, #67
 215 00b2 AC48     		ldr	r0, .L40
 216 00b4 FFF7FEFF 		bl	chMBPostI
 217              	.LVL23:
 218              		.loc 1 164 0
 219 00b8 B0FA80F1 		clz	r1, r0
 220 00bc 4909     		lsrs	r1, r1, #5
 221 00be 1820     		movs	r0, #24
 222              	.LVL24:
 223 00c0 FFF7FEFF 		bl	_test_assert
 224              	.LVL25:
 225 00c4 0028     		cmp	r0, #0
 226 00c6 D1D1     		bne	.L1
 227              		.loc 1 165 0
 228 00c8 4421     		movs	r1, #68
ARM GAS  /var/folders/qd/4mxf5pkd0zdf0b9dd1hp39180000gn/T//ccvUrqcz.s 			page 5


 229 00ca A648     		ldr	r0, .L40
 230 00cc FFF7FEFF 		bl	chMBPostI
 231              	.LVL26:
 232              		.loc 1 166 0
 233 00d0 B0FA80F1 		clz	r1, r0
 234 00d4 4909     		lsrs	r1, r1, #5
 235 00d6 1920     		movs	r0, #25
 236              	.LVL27:
 237 00d8 FFF7FEFF 		bl	_test_assert
 238              	.LVL28:
 239 00dc 0646     		mov	r6, r0
 240 00de 0028     		cmp	r0, #0
 241 00e0 C4D1     		bne	.L1
 242              		.loc 1 167 0
 243 00e2 4521     		movs	r1, #69
 244 00e4 9F48     		ldr	r0, .L40
 245 00e6 FFF7FEFF 		bl	chMBPostI
 246              	.LVL29:
 247              	.LBB357:
 248              	.LBB358:
 249              	.LBB359:
 250              	.LBB360:
 251              	.LBB361:
 252              		.loc 2 546 0
 253              		.syntax unified
 254              	@ 546 "../../../os/ext/CMSIS/include/core_cmFunc.h" 1
 255 00ea 86F31188 		MSR basepri, r6
 256              	@ 0 "" 2
 257              	.LVL30:
 258              		.thumb
 259              		.syntax unified
 260              	.LBE361:
 261              	.LBE360:
 262              	.LBE359:
 263              	.LBE358:
 264              	.LBE357:
 265              		.loc 1 169 0
 266 00ee B0FA80F1 		clz	r1, r0
 267 00f2 4909     		lsrs	r1, r1, #5
 268 00f4 1A20     		movs	r0, #26
 269              	.LVL31:
 270 00f6 FFF7FEFF 		bl	_test_assert
 271              	.LVL32:
 272 00fa 0028     		cmp	r0, #0
 273 00fc B6D1     		bne	.L1
 274              		.loc 1 170 0
 275 00fe D5E90231 		ldrd	r3, r1, [r5, #8]
 276 0102 C81A     		subs	r0, r1, r3
 277 0104 4142     		rsbs	r1, r0, #0
 278 0106 4141     		adcs	r1, r1, r0
 279 0108 1B20     		movs	r0, #27
 280 010a FFF7FEFF 		bl	_test_assert
 281              	.LVL33:
 282 010e 0028     		cmp	r0, #0
 283 0110 ACD1     		bne	.L1
 284              		.loc 1 173 0
 285 0112 DFF85082 		ldr	r8, .L40
ARM GAS  /var/folders/qd/4mxf5pkd0zdf0b9dd1hp39180000gn/T//ccvUrqcz.s 			page 6


 286              	.LBB362:
 287              	.LBB363:
 288              	.LBB364:
 289              	.LBB365:
 290              	.LBB366:
 291              		.loc 2 546 0
 292 0116 0746     		mov	r7, r0
 293              	.LBE366:
 294              	.LBE365:
 295              	.LBE364:
 296              	.LBE363:
 297              	.LBE362:
 298 0118 0526     		movs	r6, #5
 299              	.L13:
 300              	.LVL34:
 301              	.LBB371:
 302              	.LBB372:
 303              	.LBB373:
 304              	.LBB374:
 305              		.syntax unified
 306              	@ 546 "../../../os/ext/CMSIS/include/core_cmFunc.h" 1
 307 011a 84F31188 		MSR basepri, r4
 308              	@ 0 "" 2
 309              	.LVL35:
 310              		.thumb
 311              		.syntax unified
 312              	.LBE374:
 313              	.LBE373:
 314              	.LBE372:
 315              	.LBE371:
 316              		.loc 1 173 0
 317 011e 01A9     		add	r1, sp, #4
 318 0120 4046     		mov	r0, r8
 319 0122 FFF7FEFF 		bl	chMBFetchI
 320              	.LVL36:
 321              	.LBB375:
 322              	.LBB370:
 323              	.LBB369:
 324              	.LBB368:
 325              	.LBB367:
 326              		.loc 2 546 0
 327              		.syntax unified
 328              	@ 546 "../../../os/ext/CMSIS/include/core_cmFunc.h" 1
 329 0126 87F31188 		MSR basepri, r7
 330              	@ 0 "" 2
 331              	.LVL37:
 332              		.thumb
 333              		.syntax unified
 334              	.LBE367:
 335              	.LBE368:
 336              	.LBE369:
 337              	.LBE370:
 338              	.LBE375:
 339              		.loc 1 175 0
 340 012a B0FA80F1 		clz	r1, r0
 341 012e 4909     		lsrs	r1, r1, #5
 342 0130 1C20     		movs	r0, #28
ARM GAS  /var/folders/qd/4mxf5pkd0zdf0b9dd1hp39180000gn/T//ccvUrqcz.s 			page 7


 343              	.LVL38:
 344 0132 FFF7FEFF 		bl	_test_assert
 345              	.LVL39:
 346 0136 0028     		cmp	r0, #0
 347 0138 98D1     		bne	.L1
 348              		.loc 1 176 0 discriminator 2
 349 013a 9DF80400 		ldrb	r0, [sp, #4]	@ zero_extendqisi2
 350 013e FFF7FEFF 		bl	test_emit_token
 351              	.LVL40:
 352              		.loc 1 171 0 discriminator 2
 353 0142 013E     		subs	r6, r6, #1
 354              	.LVL41:
 355 0144 E9D1     		bne	.L13
 356              		.loc 1 178 0
 357 0146 8849     		ldr	r1, .L40+4
 358 0148 1D20     		movs	r0, #29
 359 014a FFF7FEFF 		bl	_test_assert_sequence
 360              	.LVL42:
 361 014e 0028     		cmp	r0, #0
 362 0150 8CD1     		bne	.L1
 363              	.LVL43:
 364              	.LBB376:
 365              	.LBB377:
 366              	.LBB378:
 367              	.LBB379:
 368              		.loc 2 546 0
 369              		.syntax unified
 370              	@ 546 "../../../os/ext/CMSIS/include/core_cmFunc.h" 1
 371 0152 84F31188 		MSR basepri, r4
 372              	@ 0 "" 2
 373              	.LVL44:
 374              		.thumb
 375              		.syntax unified
 376              	.LBE379:
 377              	.LBE378:
 378              	.LBE377:
 379              	.LBE376:
 380              		.loc 1 179 0
 381 0156 696A     		ldr	r1, [r5, #36]
 382 0158 4A1F     		subs	r2, r1, #5
 383 015a 5142     		rsbs	r1, r2, #0
 384 015c 5141     		adcs	r1, r1, r2
 385 015e 1E20     		movs	r0, #30
 386 0160 FFF7FEFF 		bl	_test_assert
 387              	.LVL45:
 388 0164 0028     		cmp	r0, #0
 389 0166 40F02982 		bne	.L32
 390              	.LVL46:
 391              	.LBB380:
 392              	.LBB381:
 393              	.LBB382:
 394              	.LBB383:
 395              	.LBB384:
 396              		.loc 2 546 0
 397              		.syntax unified
 398              	@ 546 "../../../os/ext/CMSIS/include/core_cmFunc.h" 1
 399 016a 86F31188 		MSR basepri, r6
ARM GAS  /var/folders/qd/4mxf5pkd0zdf0b9dd1hp39180000gn/T//ccvUrqcz.s 			page 8


 400              	@ 0 "" 2
 401              	.LVL47:
 402              		.thumb
 403              		.syntax unified
 404              	.LBE384:
 405              	.LBE383:
 406              	.LBE382:
 407              	.LBE381:
 408              	.LBE380:
 409              	.LBB385:
 410              	.LBB386:
 411              	.LBB387:
 412              	.LBB388:
 413              		.syntax unified
 414              	@ 546 "../../../os/ext/CMSIS/include/core_cmFunc.h" 1
 415 016e 84F31188 		MSR basepri, r4
 416              	@ 0 "" 2
 417              	.LVL48:
 418              		.thumb
 419              		.syntax unified
 420              	.LBE388:
 421              	.LBE387:
 422              	.LBE386:
 423              	.LBE385:
 424              		.loc 1 180 0
 425 0172 A969     		ldr	r1, [r5, #24]
 426 0174 B1FA81F1 		clz	r1, r1
 427 0178 4909     		lsrs	r1, r1, #5
 428 017a 1F20     		movs	r0, #31
 429 017c FFF7FEFF 		bl	_test_assert
 430              	.LVL49:
 431 0180 0028     		cmp	r0, #0
 432 0182 40F01B82 		bne	.L32
 433              	.LVL50:
 434              	.LBB389:
 435              	.LBB390:
 436              	.LBB391:
 437              	.LBB392:
 438              	.LBB393:
 439              		.loc 2 546 0
 440              		.syntax unified
 441              	@ 546 "../../../os/ext/CMSIS/include/core_cmFunc.h" 1
 442 0186 86F31188 		MSR basepri, r6
 443              	@ 0 "" 2
 444              	.LVL51:
 445              		.thumb
 446              		.syntax unified
 447              	.LBE393:
 448              	.LBE392:
 449              	.LBE391:
 450              	.LBE390:
 451              	.LBE389:
 452              		.loc 1 181 0
 453 018a D5E90231 		ldrd	r3, r1, [r5, #8]
 454 018e CB1A     		subs	r3, r1, r3
 455 0190 5942     		rsbs	r1, r3, #0
 456 0192 5941     		adcs	r1, r1, r3
ARM GAS  /var/folders/qd/4mxf5pkd0zdf0b9dd1hp39180000gn/T//ccvUrqcz.s 			page 9


 457 0194 2020     		movs	r0, #32
 458 0196 FFF7FEFF 		bl	_test_assert
 459              	.LVL52:
 460 019a 0028     		cmp	r0, #0
 461 019c 7FF466AF 		bne	.L1
 462              	.LVL53:
 463              	.LBB394:
 464              	.LBB395:
 465              	.LBB396:
 466              	.LBB397:
 467              		.loc 2 546 0
 468              		.syntax unified
 469              	@ 546 "../../../os/ext/CMSIS/include/core_cmFunc.h" 1
 470 01a0 84F31188 		MSR basepri, r4
 471              	@ 0 "" 2
 472              	.LVL54:
 473              		.thumb
 474              		.syntax unified
 475              	.LBE397:
 476              	.LBE396:
 477              	.LBE395:
 478              	.LBE394:
 479              		.loc 1 184 0
 480 01a4 4521     		movs	r1, #69
 481 01a6 6F48     		ldr	r0, .L40
 482 01a8 FFF7FEFF 		bl	chMBPostAheadI
 483              	.LVL55:
 484              		.loc 1 185 0
 485 01ac B0FA80F1 		clz	r1, r0
 486 01b0 4909     		lsrs	r1, r1, #5
 487 01b2 2120     		movs	r0, #33
 488              	.LVL56:
 489 01b4 FFF7FEFF 		bl	_test_assert
 490              	.LVL57:
 491 01b8 0028     		cmp	r0, #0
 492 01ba 7FF457AF 		bne	.L1
 493              		.loc 1 186 0
 494 01be 4421     		movs	r1, #68
 495 01c0 6848     		ldr	r0, .L40
 496 01c2 FFF7FEFF 		bl	chMBPostAheadI
 497              	.LVL58:
 498              		.loc 1 187 0
 499 01c6 B0FA80F1 		clz	r1, r0
 500 01ca 4909     		lsrs	r1, r1, #5
 501 01cc 2220     		movs	r0, #34
 502              	.LVL59:
 503 01ce FFF7FEFF 		bl	_test_assert
 504              	.LVL60:
 505 01d2 0028     		cmp	r0, #0
 506 01d4 7FF44AAF 		bne	.L1
 507              		.loc 1 188 0
 508 01d8 4321     		movs	r1, #67
 509 01da 6248     		ldr	r0, .L40
 510 01dc FFF7FEFF 		bl	chMBPostAheadI
 511              	.LVL61:
 512              		.loc 1 189 0
 513 01e0 B0FA80F1 		clz	r1, r0
ARM GAS  /var/folders/qd/4mxf5pkd0zdf0b9dd1hp39180000gn/T//ccvUrqcz.s 			page 10


 514 01e4 4909     		lsrs	r1, r1, #5
 515 01e6 2320     		movs	r0, #35
 516              	.LVL62:
 517 01e8 FFF7FEFF 		bl	_test_assert
 518              	.LVL63:
 519 01ec 0028     		cmp	r0, #0
 520 01ee 7FF43DAF 		bne	.L1
 521              		.loc 1 190 0
 522 01f2 4221     		movs	r1, #66
 523 01f4 5B48     		ldr	r0, .L40
 524 01f6 FFF7FEFF 		bl	chMBPostAheadI
 525              	.LVL64:
 526              		.loc 1 191 0
 527 01fa B0FA80F1 		clz	r1, r0
 528 01fe 4909     		lsrs	r1, r1, #5
 529 0200 2420     		movs	r0, #36
 530              	.LVL65:
 531 0202 FFF7FEFF 		bl	_test_assert
 532              	.LVL66:
 533 0206 0028     		cmp	r0, #0
 534 0208 7FF430AF 		bne	.L1
 535              		.loc 1 192 0
 536 020c 4121     		movs	r1, #65
 537 020e 5548     		ldr	r0, .L40
 538 0210 FFF7FEFF 		bl	chMBPostAheadI
 539              	.LVL67:
 540              	.LBB398:
 541              	.LBB399:
 542              	.LBB400:
 543              	.LBB401:
 544              	.LBB402:
 545              		.loc 2 546 0
 546 0214 0023     		movs	r3, #0
 547              		.syntax unified
 548              	@ 546 "../../../os/ext/CMSIS/include/core_cmFunc.h" 1
 549 0216 83F31188 		MSR basepri, r3
 550              	@ 0 "" 2
 551              	.LVL68:
 552              		.thumb
 553              		.syntax unified
 554              	.LBE402:
 555              	.LBE401:
 556              	.LBE400:
 557              	.LBE399:
 558              	.LBE398:
 559              		.loc 1 194 0
 560 021a B0FA80F1 		clz	r1, r0
 561 021e 4909     		lsrs	r1, r1, #5
 562 0220 2520     		movs	r0, #37
 563              	.LVL69:
 564 0222 FFF7FEFF 		bl	_test_assert
 565              	.LVL70:
 566 0226 0028     		cmp	r0, #0
 567 0228 7FF420AF 		bne	.L1
 568              		.loc 1 195 0
 569 022c D5E90231 		ldrd	r3, r1, [r5, #8]
 570 0230 A1EB0308 		sub	r8, r1, r3
ARM GAS  /var/folders/qd/4mxf5pkd0zdf0b9dd1hp39180000gn/T//ccvUrqcz.s 			page 11


 571 0234 D8F10001 		rsbs	r1, r8, #0
 572 0238 41EB0801 		adc	r1, r1, r8
 573 023c 2620     		movs	r0, #38
 574 023e FFF7FEFF 		bl	_test_assert
 575              	.LVL71:
 576 0242 0028     		cmp	r0, #0
 577 0244 7FF412AF 		bne	.L1
 578              		.loc 1 198 0
 579 0248 DFF81881 		ldr	r8, .L40
 580              	.LBB403:
 581              	.LBB404:
 582              	.LBB405:
 583              	.LBB406:
 584              	.LBB407:
 585              		.loc 2 546 0
 586 024c 0646     		mov	r6, r0
 587              	.LVL72:
 588              	.LBE407:
 589              	.LBE406:
 590              	.LBE405:
 591              	.LBE404:
 592              	.LBE403:
 593 024e 0524     		movs	r4, #5
 594              	.LBB412:
 595              	.LBB413:
 596              	.LBB414:
 597              	.LBB415:
 598 0250 2027     		movs	r7, #32
 599              	.L16:
 600              	.LVL73:
 601              		.syntax unified
 602              	@ 546 "../../../os/ext/CMSIS/include/core_cmFunc.h" 1
 603 0252 87F31188 		MSR basepri, r7
 604              	@ 0 "" 2
 605              	.LVL74:
 606              		.thumb
 607              		.syntax unified
 608              	.LBE415:
 609              	.LBE414:
 610              	.LBE413:
 611              	.LBE412:
 612              		.loc 1 198 0
 613 0256 01A9     		add	r1, sp, #4
 614 0258 4046     		mov	r0, r8
 615 025a FFF7FEFF 		bl	chMBFetchI
 616              	.LVL75:
 617              	.LBB416:
 618              	.LBB411:
 619              	.LBB410:
 620              	.LBB409:
 621              	.LBB408:
 622              		.loc 2 546 0
 623              		.syntax unified
 624              	@ 546 "../../../os/ext/CMSIS/include/core_cmFunc.h" 1
 625 025e 86F31188 		MSR basepri, r6
 626              	@ 0 "" 2
 627              	.LVL76:
ARM GAS  /var/folders/qd/4mxf5pkd0zdf0b9dd1hp39180000gn/T//ccvUrqcz.s 			page 12


 628              		.thumb
 629              		.syntax unified
 630              	.LBE408:
 631              	.LBE409:
 632              	.LBE410:
 633              	.LBE411:
 634              	.LBE416:
 635              		.loc 1 200 0
 636 0262 B0FA80F1 		clz	r1, r0
 637 0266 4909     		lsrs	r1, r1, #5
 638 0268 2720     		movs	r0, #39
 639              	.LVL77:
 640 026a FFF7FEFF 		bl	_test_assert
 641              	.LVL78:
 642 026e 0028     		cmp	r0, #0
 643 0270 7FF4FCAE 		bne	.L1
 644              		.loc 1 201 0 discriminator 2
 645 0274 9DF80400 		ldrb	r0, [sp, #4]	@ zero_extendqisi2
 646 0278 FFF7FEFF 		bl	test_emit_token
 647              	.LVL79:
 648              		.loc 1 196 0 discriminator 2
 649 027c 013C     		subs	r4, r4, #1
 650              	.LVL80:
 651 027e E8D1     		bne	.L16
 652              		.loc 1 203 0
 653 0280 3949     		ldr	r1, .L40+4
 654 0282 2820     		movs	r0, #40
 655 0284 FFF7FEFF 		bl	_test_assert_sequence
 656              	.LVL81:
 657 0288 0028     		cmp	r0, #0
 658 028a 7FF4EFAE 		bne	.L1
 659              	.LVL82:
 660              	.LBB417:
 661              	.LBB418:
 662              	.LBB419:
 663              	.LBB420:
 664              		.loc 2 546 0
 665              		.syntax unified
 666              	@ 546 "../../../os/ext/CMSIS/include/core_cmFunc.h" 1
 667 028e 87F31188 		MSR basepri, r7
 668              	@ 0 "" 2
 669              	.LVL83:
 670              		.thumb
 671              		.syntax unified
 672              	.LBE420:
 673              	.LBE419:
 674              	.LBE418:
 675              	.LBE417:
 676              		.loc 1 204 0
 677 0292 696A     		ldr	r1, [r5, #36]
 678 0294 A1F1050E 		sub	lr, r1, #5
 679 0298 DEF10001 		rsbs	r1, lr, #0
 680 029c 41EB0E01 		adc	r1, r1, lr
 681 02a0 2920     		movs	r0, #41
 682 02a2 FFF7FEFF 		bl	_test_assert
 683              	.LVL84:
 684 02a6 0028     		cmp	r0, #0
ARM GAS  /var/folders/qd/4mxf5pkd0zdf0b9dd1hp39180000gn/T//ccvUrqcz.s 			page 13


 685 02a8 40F0B780 		bne	.L30
 686              	.LVL85:
 687              	.LBB421:
 688              	.LBB422:
 689              	.LBB423:
 690              	.LBB424:
 691              	.LBB425:
 692              		.loc 2 546 0
 693              		.syntax unified
 694              	@ 546 "../../../os/ext/CMSIS/include/core_cmFunc.h" 1
 695 02ac 84F31188 		MSR basepri, r4
 696              	@ 0 "" 2
 697              	.LVL86:
 698              		.thumb
 699              		.syntax unified
 700              	.LBE425:
 701              	.LBE424:
 702              	.LBE423:
 703              	.LBE422:
 704              	.LBE421:
 705              	.LBB426:
 706              	.LBB427:
 707              	.LBB428:
 708              	.LBB429:
 709              		.syntax unified
 710              	@ 546 "../../../os/ext/CMSIS/include/core_cmFunc.h" 1
 711 02b0 87F31188 		MSR basepri, r7
 712              	@ 0 "" 2
 713              	.LVL87:
 714              		.thumb
 715              		.syntax unified
 716              	.LBE429:
 717              	.LBE428:
 718              	.LBE427:
 719              	.LBE426:
 720              		.loc 1 205 0
 721 02b4 A969     		ldr	r1, [r5, #24]
 722 02b6 B1FA81F1 		clz	r1, r1
 723 02ba 4909     		lsrs	r1, r1, #5
 724 02bc 2A20     		movs	r0, #42
 725 02be FFF7FEFF 		bl	_test_assert
 726              	.LVL88:
 727 02c2 0028     		cmp	r0, #0
 728 02c4 40F0A980 		bne	.L30
 729              	.LVL89:
 730              	.LBB430:
 731              	.LBB431:
 732              	.LBB432:
 733              	.LBB433:
 734              	.LBB434:
 735              		.loc 2 546 0
 736              		.syntax unified
 737              	@ 546 "../../../os/ext/CMSIS/include/core_cmFunc.h" 1
 738 02c8 84F31188 		MSR basepri, r4
 739              	@ 0 "" 2
 740              	.LVL90:
 741              		.thumb
ARM GAS  /var/folders/qd/4mxf5pkd0zdf0b9dd1hp39180000gn/T//ccvUrqcz.s 			page 14


 742              		.syntax unified
 743              	.LBE434:
 744              	.LBE433:
 745              	.LBE432:
 746              	.LBE431:
 747              	.LBE430:
 748              		.loc 1 206 0
 749 02cc D5E90231 		ldrd	r3, r1, [r5, #8]
 750 02d0 A1EB030C 		sub	ip, r1, r3
 751 02d4 DCF10001 		rsbs	r1, ip, #0
 752 02d8 41EB0C01 		adc	r1, r1, ip
 753 02dc 2B20     		movs	r0, #43
 754 02de FFF7FEFF 		bl	_test_assert
 755              	.LVL91:
 756 02e2 0028     		cmp	r0, #0
 757 02e4 7FF4C2AE 		bne	.L1
 758              		.loc 1 211 0
 759 02e8 1E48     		ldr	r0, .L40
 760 02ea FFF7FEFF 		bl	chMBReset
 761              	.LVL92:
 762              	.LBB435:
 763              	.LBB436:
 764              	.LBB437:
 765              	.LBB438:
 766              		.loc 2 546 0
 767              		.syntax unified
 768              	@ 546 "../../../os/ext/CMSIS/include/core_cmFunc.h" 1
 769 02ee 87F31188 		MSR basepri, r7
 770              	@ 0 "" 2
 771              	.LVL93:
 772              		.thumb
 773              		.syntax unified
 774              	.LBE438:
 775              	.LBE437:
 776              	.LBE436:
 777              	.LBE435:
 778              		.loc 1 216 0
 779 02f2 696A     		ldr	r1, [r5, #36]
 780 02f4 4E1F     		subs	r6, r1, #5
 781 02f6 7142     		rsbs	r1, r6, #0
 782 02f8 7141     		adcs	r1, r1, r6
 783 02fa 2C20     		movs	r0, #44
 784 02fc FFF7FEFF 		bl	_test_assert
 785              	.LVL94:
 786 0300 0028     		cmp	r0, #0
 787 0302 40F08A80 		bne	.L30
 788              	.LVL95:
 789              	.LBB439:
 790              	.LBB440:
 791              	.LBB441:
 792              	.LBB442:
 793              	.LBB443:
 794              		.loc 2 546 0
 795              		.syntax unified
 796              	@ 546 "../../../os/ext/CMSIS/include/core_cmFunc.h" 1
 797 0306 84F31188 		MSR basepri, r4
 798              	@ 0 "" 2
ARM GAS  /var/folders/qd/4mxf5pkd0zdf0b9dd1hp39180000gn/T//ccvUrqcz.s 			page 15


 799              	.LVL96:
 800              		.thumb
 801              		.syntax unified
 802              	.LBE443:
 803              	.LBE442:
 804              	.LBE441:
 805              	.LBE440:
 806              	.LBE439:
 807              	.LBB444:
 808              	.LBB445:
 809              	.LBB446:
 810              	.LBB447:
 811              		.syntax unified
 812              	@ 546 "../../../os/ext/CMSIS/include/core_cmFunc.h" 1
 813 030a 87F31188 		MSR basepri, r7
 814              	@ 0 "" 2
 815              	.LVL97:
 816              		.thumb
 817              		.syntax unified
 818              	.LBE447:
 819              	.LBE446:
 820              	.LBE445:
 821              	.LBE444:
 822              		.loc 1 217 0
 823 030e A969     		ldr	r1, [r5, #24]
 824 0310 B1FA81F1 		clz	r1, r1
 825 0314 4909     		lsrs	r1, r1, #5
 826 0316 2D20     		movs	r0, #45
 827 0318 FFF7FEFF 		bl	_test_assert
 828              	.LVL98:
 829 031c 0028     		cmp	r0, #0
 830 031e 7CD1     		bne	.L30
 831              	.LVL99:
 832              	.LBB448:
 833              	.LBB449:
 834              	.LBB450:
 835              	.LBB451:
 836              	.LBB452:
 837              		.loc 2 546 0
 838              		.syntax unified
 839              	@ 546 "../../../os/ext/CMSIS/include/core_cmFunc.h" 1
 840 0320 84F31188 		MSR basepri, r4
 841              	@ 0 "" 2
 842              	.LVL100:
 843              		.thumb
 844              		.syntax unified
 845              	.LBE452:
 846              	.LBE451:
 847              	.LBE450:
 848              	.LBE449:
 849              	.LBE448:
 850              	.LBB453:
 851              	.LBB454:
 852              	.LBB455:
 853              	.LBB456:
 854              		.syntax unified
 855              	@ 546 "../../../os/ext/CMSIS/include/core_cmFunc.h" 1
ARM GAS  /var/folders/qd/4mxf5pkd0zdf0b9dd1hp39180000gn/T//ccvUrqcz.s 			page 16


 856 0324 87F31188 		MSR basepri, r7
 857              	@ 0 "" 2
 858              	.LVL101:
 859              		.thumb
 860              		.syntax unified
 861              	.LBE456:
 862              	.LBE455:
 863              	.LBE454:
 864              	.LBE453:
 865              		.loc 1 218 0
 866 0328 2968     		ldr	r1, [r5]
 867 032a AB68     		ldr	r3, [r5, #8]
 868 032c CA1A     		subs	r2, r1, r3
 869 032e 5142     		rsbs	r1, r2, #0
 870 0330 5141     		adcs	r1, r1, r2
 871 0332 2E20     		movs	r0, #46
 872 0334 FFF7FEFF 		bl	_test_assert
 873              	.LVL102:
 874 0338 0028     		cmp	r0, #0
 875 033a 6ED1     		bne	.L30
 876              	.LVL103:
 877              	.LBB457:
 878              	.LBB458:
 879              	.LBB459:
 880              	.LBB460:
 881              	.LBB461:
 882              		.loc 2 546 0
 883              		.syntax unified
 884              	@ 546 "../../../os/ext/CMSIS/include/core_cmFunc.h" 1
 885 033c 84F31188 		MSR basepri, r4
 886              	@ 0 "" 2
 887              	.LVL104:
 888              		.thumb
 889              		.syntax unified
 890              	.LBE461:
 891              	.LBE460:
 892              	.LBE459:
 893              	.LBE458:
 894              	.LBE457:
 895              	.LBB462:
 896              	.LBB463:
 897              	.LBB464:
 898              	.LBB465:
 899              		.syntax unified
 900              	@ 546 "../../../os/ext/CMSIS/include/core_cmFunc.h" 1
 901 0340 87F31188 		MSR basepri, r7
 902              	@ 0 "" 2
 903              	.LVL105:
 904              		.thumb
 905              		.syntax unified
 906              	.LBE465:
 907              	.LBE464:
 908              	.LBE463:
 909              	.LBE462:
 910              		.loc 1 219 0
 911 0344 2968     		ldr	r1, [r5]
 912 0346 EB68     		ldr	r3, [r5, #12]
ARM GAS  /var/folders/qd/4mxf5pkd0zdf0b9dd1hp39180000gn/T//ccvUrqcz.s 			page 17


 913 0348 CB1A     		subs	r3, r1, r3
 914 034a 5942     		rsbs	r1, r3, #0
 915 034c 4FF02F00 		mov	r0, #47
 916 0350 5941     		adcs	r1, r1, r3
 917 0352 FFF7FEFF 		bl	_test_assert
 918              	.LVL106:
 919              	.L33:
 920              	.LBB466:
 921              	.LBB467:
 922              	.LBB468:
 923              	.LBB469:
 924              	.LBB470:
 925              		.loc 2 546 0
 926 0356 0023     		movs	r3, #0
 927              	.L22:
 928              	.LVL107:
 929              	.LBE470:
 930              	.LBE469:
 931              	.LBE468:
 932              	.LBE467:
 933              	.LBE466:
 934              	.LBB471:
 935              	.LBB472:
 936              	.LBB473:
 937              	.LBB474:
 938              	.LBB475:
 939              		.syntax unified
 940              	@ 546 "../../../os/ext/CMSIS/include/core_cmFunc.h" 1
 941 0358 83F31188 		MSR basepri, r3
 942              	@ 0 "" 2
 943              	.LVL108:
 944              		.thumb
 945              		.syntax unified
 946              	.LBE475:
 947              	.LBE474:
 948              	.LBE473:
 949              	.LBE472:
 950              	.LBE471:
 951              		.loc 1 220 0
 952 035c 02B0     		add	sp, sp, #8
 953              		.cfi_remember_state
 954              		.cfi_def_cfa_offset 24
 955              		@ sp needed
 956 035e BDE8F081 		pop	{r4, r5, r6, r7, r8, pc}
 957              	.L41:
 958 0362 00BF     		.align	2
 959              	.L40:
 960 0364 00000000 		.word	.LANCHOR0
 961 0368 00000000 		.word	.LC0
 962              	.LVL109:
 963              	.L35:
 964              		.cfi_restore_state
 965              		.loc 1 98 0
 966 036c 0122     		movs	r2, #1
 967 036e 5821     		movs	r1, #88
 968 0370 9448     		ldr	r0, .L42
 969 0372 FFF7FEFF 		bl	chMBPost
ARM GAS  /var/folders/qd/4mxf5pkd0zdf0b9dd1hp39180000gn/T//ccvUrqcz.s 			page 18


 970              	.LVL110:
 971              		.loc 1 99 0
 972 0376 A0F1FF31 		sub	r1, r0, #-1
 973 037a B1FA81F1 		clz	r1, r1
 974 037e 4909     		lsrs	r1, r1, #5
 975 0380 0420     		movs	r0, #4
 976              	.LVL111:
 977 0382 FFF7FEFF 		bl	_test_assert
 978              	.LVL112:
 979 0386 0446     		mov	r4, r0
 980              	.LVL113:
 981 0388 0028     		cmp	r0, #0
 982 038a 7FF46FAE 		bne	.L1
 983              	.LVL114:
 984              	.LBB476:
 985              	.LBB477:
 986              	.LBB478:
 987              	.LBB479:
 988              		.loc 2 546 0
 989 038e 2026     		movs	r6, #32
 990              		.syntax unified
 991              	@ 546 "../../../os/ext/CMSIS/include/core_cmFunc.h" 1
 992 0390 86F31188 		MSR basepri, r6
 993              	@ 0 "" 2
 994              	.LVL115:
 995              		.thumb
 996              		.syntax unified
 997              	.LBE479:
 998              	.LBE478:
 999              	.LBE477:
 1000              	.LBE476:
 1001              		.loc 1 101 0
 1002 0394 5821     		movs	r1, #88
 1003 0396 8B48     		ldr	r0, .L42
 1004 0398 FFF7FEFF 		bl	chMBPostI
 1005              	.LVL116:
 1006 039c 0146     		mov	r1, r0
 1007              	.LVL117:
 1008              	.LBB480:
 1009              	.LBB481:
 1010              	.LBB482:
 1011              	.LBB483:
 1012              	.LBB484:
 1013              		.loc 2 546 0
 1014              		.syntax unified
 1015              	@ 546 "../../../os/ext/CMSIS/include/core_cmFunc.h" 1
 1016 039e 84F31188 		MSR basepri, r4
 1017              	@ 0 "" 2
 1018              	.LVL118:
 1019              		.thumb
 1020              		.syntax unified
 1021              	.LBE484:
 1022              	.LBE483:
 1023              	.LBE482:
 1024              	.LBE481:
 1025              	.LBE480:
 1026              		.loc 1 103 0
ARM GAS  /var/folders/qd/4mxf5pkd0zdf0b9dd1hp39180000gn/T//ccvUrqcz.s 			page 19


 1027 03a2 A1F1FF31 		sub	r1, r1, #-1
 1028 03a6 B1FA81F1 		clz	r1, r1
 1029 03aa 0520     		movs	r0, #5
 1030              	.LVL119:
 1031 03ac 4909     		lsrs	r1, r1, #5
 1032 03ae FFF7FEFF 		bl	_test_assert
 1033              	.LVL120:
 1034 03b2 0028     		cmp	r0, #0
 1035 03b4 7FF45AAE 		bne	.L1
 1036              		.loc 1 104 0
 1037 03b8 0122     		movs	r2, #1
 1038 03ba 5821     		movs	r1, #88
 1039 03bc 8148     		ldr	r0, .L42
 1040 03be FFF7FEFF 		bl	chMBPostAhead
 1041              	.LVL121:
 1042              		.loc 1 105 0
 1043 03c2 A0F1FF31 		sub	r1, r0, #-1
 1044 03c6 B1FA81F1 		clz	r1, r1
 1045 03ca 4909     		lsrs	r1, r1, #5
 1046 03cc 0620     		movs	r0, #6
 1047              	.LVL122:
 1048 03ce FFF7FEFF 		bl	_test_assert
 1049              	.LVL123:
 1050 03d2 0446     		mov	r4, r0
 1051 03d4 0028     		cmp	r0, #0
 1052 03d6 7FF449AE 		bne	.L1
 1053              	.LVL124:
 1054              	.LBB485:
 1055              	.LBB486:
 1056              	.LBB487:
 1057              	.LBB488:
 1058              		.loc 2 546 0
 1059              		.syntax unified
 1060              	@ 546 "../../../os/ext/CMSIS/include/core_cmFunc.h" 1
 1061 03da 86F31188 		MSR basepri, r6
 1062              	@ 0 "" 2
 1063              	.LVL125:
 1064              		.thumb
 1065              		.syntax unified
 1066              	.LBE488:
 1067              	.LBE487:
 1068              	.LBE486:
 1069              	.LBE485:
 1070              		.loc 1 107 0
 1071 03de 5821     		movs	r1, #88
 1072 03e0 7848     		ldr	r0, .L42
 1073 03e2 FFF7FEFF 		bl	chMBPostAheadI
 1074              	.LVL126:
 1075 03e6 0146     		mov	r1, r0
 1076              	.LVL127:
 1077              	.LBB489:
 1078              	.LBB490:
 1079              	.LBB491:
 1080              	.LBB492:
 1081              	.LBB493:
 1082              		.loc 2 546 0
 1083              		.syntax unified
ARM GAS  /var/folders/qd/4mxf5pkd0zdf0b9dd1hp39180000gn/T//ccvUrqcz.s 			page 20


 1084              	@ 546 "../../../os/ext/CMSIS/include/core_cmFunc.h" 1
 1085 03e8 84F31188 		MSR basepri, r4
 1086              	@ 0 "" 2
 1087              	.LVL128:
 1088              		.thumb
 1089              		.syntax unified
 1090              	.LBE493:
 1091              	.LBE492:
 1092              	.LBE491:
 1093              	.LBE490:
 1094              	.LBE489:
 1095              		.loc 1 109 0
 1096 03ec A1F1FF31 		sub	r1, r1, #-1
 1097 03f0 B1FA81F1 		clz	r1, r1
 1098 03f4 0720     		movs	r0, #7
 1099              	.LVL129:
 1100 03f6 4909     		lsrs	r1, r1, #5
 1101 03f8 FFF7FEFF 		bl	_test_assert
 1102              	.LVL130:
 1103 03fc 0446     		mov	r4, r0
 1104 03fe 0028     		cmp	r0, #0
 1105 0400 7FF434AE 		bne	.L1
 1106              	.LVL131:
 1107              	.LBB494:
 1108              	.LBB495:
 1109              	.LBB496:
 1110              	.LBB497:
 1111              		.loc 2 546 0
 1112              		.syntax unified
 1113              	@ 546 "../../../os/ext/CMSIS/include/core_cmFunc.h" 1
 1114 0404 86F31188 		MSR basepri, r6
 1115              	@ 0 "" 2
 1116              	.LVL132:
 1117              		.thumb
 1118              		.syntax unified
 1119              	.LBE497:
 1120              	.LBE496:
 1121              	.LBE495:
 1122              	.LBE494:
 1123              		.loc 1 114 0
 1124 0408 696A     		ldr	r1, [r5, #36]
 1125 040a B1FA81F1 		clz	r1, r1
 1126 040e 4909     		lsrs	r1, r1, #5
 1127 0410 0820     		movs	r0, #8
 1128 0412 FFF7FEFF 		bl	_test_assert
 1129              	.LVL133:
 1130 0416 0746     		mov	r7, r0
 1131 0418 10B1     		cbz	r0, .L6
 1132              	.LVL134:
 1133              	.L30:
 1134              	.LBB498:
 1135              	.LBB499:
 1136              	.LBB500:
 1137              	.LBB501:
 1138              	.LBB502:
 1139              		.loc 2 546 0
 1140              		.syntax unified
ARM GAS  /var/folders/qd/4mxf5pkd0zdf0b9dd1hp39180000gn/T//ccvUrqcz.s 			page 21


 1141              	@ 546 "../../../os/ext/CMSIS/include/core_cmFunc.h" 1
 1142 041a 84F31188 		MSR basepri, r4
 1143              	@ 0 "" 2
 1144              	.LVL135:
 1145              		.thumb
 1146              		.syntax unified
 1147 041e 25E6     		b	.L1
 1148              	.LVL136:
 1149              	.L6:
 1150              	.LBE502:
 1151              	.LBE501:
 1152              	.LBE500:
 1153              	.LBE499:
 1154              	.LBE498:
 1155              	.LBB503:
 1156              	.LBB504:
 1157              	.LBB505:
 1158              	.LBB506:
 1159              	.LBB507:
 1160              		.syntax unified
 1161              	@ 546 "../../../os/ext/CMSIS/include/core_cmFunc.h" 1
 1162 0420 80F31188 		MSR basepri, r0
 1163              	@ 0 "" 2
 1164              	.LVL137:
 1165              		.thumb
 1166              		.syntax unified
 1167              	.LBE507:
 1168              	.LBE506:
 1169              	.LBE505:
 1170              	.LBE504:
 1171              	.LBE503:
 1172              	.LBB508:
 1173              	.LBB509:
 1174              	.LBB510:
 1175              	.LBB511:
 1176              		.syntax unified
 1177              	@ 546 "../../../os/ext/CMSIS/include/core_cmFunc.h" 1
 1178 0424 86F31188 		MSR basepri, r6
 1179              	@ 0 "" 2
 1180              	.LVL138:
 1181              		.thumb
 1182              		.syntax unified
 1183              	.LBE511:
 1184              	.LBE510:
 1185              	.LBE509:
 1186              	.LBE508:
 1187              		.loc 1 115 0
 1188 0428 A969     		ldr	r1, [r5, #24]
 1189 042a A1F1050C 		sub	ip, r1, #5
 1190 042e DCF10001 		rsbs	r1, ip, #0
 1191 0432 41EB0C01 		adc	r1, r1, ip
 1192 0436 0920     		movs	r0, #9
 1193 0438 FFF7FEFF 		bl	_test_assert
 1194              	.LVL139:
 1195 043c 10B1     		cbz	r0, .L7
 1196              	.L31:
 1197              	.LVL140:
ARM GAS  /var/folders/qd/4mxf5pkd0zdf0b9dd1hp39180000gn/T//ccvUrqcz.s 			page 22


 1198              	.LBB512:
 1199              	.LBB513:
 1200              	.LBB514:
 1201              	.LBB515:
 1202              	.LBB516:
 1203              		.loc 2 546 0
 1204              		.syntax unified
 1205              	@ 546 "../../../os/ext/CMSIS/include/core_cmFunc.h" 1
 1206 043e 87F31188 		MSR basepri, r7
 1207              	@ 0 "" 2
 1208              	.LVL141:
 1209              		.thumb
 1210              		.syntax unified
 1211 0442 13E6     		b	.L1
 1212              	.L7:
 1213              	.LVL142:
 1214              	.LBE516:
 1215              	.LBE515:
 1216              	.LBE514:
 1217              	.LBE513:
 1218              	.LBE512:
 1219              	.LBB517:
 1220              	.LBB518:
 1221              	.LBB519:
 1222              	.LBB520:
 1223              	.LBB521:
 1224              		.syntax unified
 1225              	@ 546 "../../../os/ext/CMSIS/include/core_cmFunc.h" 1
 1226 0444 80F31188 		MSR basepri, r0
 1227              	@ 0 "" 2
 1228              	.LVL143:
 1229              		.thumb
 1230              		.syntax unified
 1231              	.LBE521:
 1232              	.LBE520:
 1233              	.LBE519:
 1234              	.LBE518:
 1235              	.LBE517:
 1236              	.LBB522:
 1237              	.LBB523:
 1238              	.LBB524:
 1239              	.LBB525:
 1240              		.syntax unified
 1241              	@ 546 "../../../os/ext/CMSIS/include/core_cmFunc.h" 1
 1242 0448 86F31188 		MSR basepri, r6
 1243              	@ 0 "" 2
 1244              	.LVL144:
 1245              		.thumb
 1246              		.syntax unified
 1247              	.LBE525:
 1248              	.LBE524:
 1249              	.LBE523:
 1250              	.LBE522:
 1251              		.loc 1 116 0
 1252 044c D5E90231 		ldrd	r3, r1, [r5, #8]
 1253 0450 CC1A     		subs	r4, r1, r3
 1254 0452 6142     		rsbs	r1, r4, #0
ARM GAS  /var/folders/qd/4mxf5pkd0zdf0b9dd1hp39180000gn/T//ccvUrqcz.s 			page 23


 1255 0454 4FF00A00 		mov	r0, #10
 1256 0458 6141     		adcs	r1, r1, r4
 1257 045a FFF7FEFF 		bl	_test_assert
 1258              	.LVL145:
 1259              	.LBB526:
 1260              	.LBB527:
 1261              	.LBB528:
 1262              	.LBB529:
 1263              	.LBB530:
 1264              		.loc 2 546 0
 1265 045e 0023     		movs	r3, #0
 1266              	.LBE530:
 1267              	.LBE529:
 1268              	.LBE528:
 1269              	.LBE527:
 1270              	.LBE526:
 1271              		.loc 1 116 0
 1272 0460 0028     		cmp	r0, #0
 1273 0462 7FF479AF 		bne	.L22
 1274              	.LVL146:
 1275              	.LBB531:
 1276              	.LBB532:
 1277              	.LBB533:
 1278              	.LBB534:
 1279              	.LBB535:
 1280              		.loc 2 546 0
 1281              		.syntax unified
 1282              	@ 546 "../../../os/ext/CMSIS/include/core_cmFunc.h" 1
 1283 0466 83F31188 		MSR basepri, r3
 1284              	@ 0 "" 2
 1285              	.LVL147:
 1286              		.thumb
 1287              		.syntax unified
 1288              	.LBE535:
 1289              	.LBE534:
 1290              	.LBE533:
 1291              	.LBE532:
 1292              	.LBE531:
 1293              		.loc 1 122 0
 1294 046a 564E     		ldr	r6, .L42
 1295              	.LBB540:
 1296              	.LBB539:
 1297              	.LBB538:
 1298              	.LBB537:
 1299              	.LBB536:
 1300              		.loc 2 546 0
 1301 046c 0524     		movs	r4, #5
 1302 046e 05E0     		b	.L9
 1303              	.LVL148:
 1304              	.L37:
 1305              	.LBE536:
 1306              	.LBE537:
 1307              	.LBE538:
 1308              	.LBE539:
 1309              	.LBE540:
 1310              		.loc 1 124 0 discriminator 2
 1311 0470 9DF80400 		ldrb	r0, [sp, #4]	@ zero_extendqisi2
ARM GAS  /var/folders/qd/4mxf5pkd0zdf0b9dd1hp39180000gn/T//ccvUrqcz.s 			page 24


 1312 0474 FFF7FEFF 		bl	test_emit_token
 1313              	.LVL149:
 1314              		.loc 1 121 0 discriminator 2
 1315 0478 013C     		subs	r4, r4, #1
 1316              	.LVL150:
 1317 047a 0ED0     		beq	.L36
 1318              	.LVL151:
 1319              	.L9:
 1320              		.loc 1 122 0
 1321 047c 01A9     		add	r1, sp, #4
 1322 047e 4FF0FF32 		mov	r2, #-1
 1323 0482 3046     		mov	r0, r6
 1324 0484 FFF7FEFF 		bl	chMBFetch
 1325              	.LVL152:
 1326              		.loc 1 123 0
 1327 0488 B0FA80F1 		clz	r1, r0
 1328 048c 4909     		lsrs	r1, r1, #5
 1329 048e 0B20     		movs	r0, #11
 1330              	.LVL153:
 1331 0490 FFF7FEFF 		bl	_test_assert
 1332              	.LVL154:
 1333 0494 0028     		cmp	r0, #0
 1334 0496 EBD0     		beq	.L37
 1335 0498 E8E5     		b	.L1
 1336              	.L36:
 1337              		.loc 1 126 0
 1338 049a 4B49     		ldr	r1, .L42+4
 1339 049c 0C20     		movs	r0, #12
 1340 049e FFF7FEFF 		bl	_test_assert_sequence
 1341              	.LVL155:
 1342 04a2 0028     		cmp	r0, #0
 1343 04a4 7FF4E2AD 		bne	.L1
 1344              		.loc 1 131 0
 1345 04a8 4721     		movs	r1, #71
 1346 04aa 4FF0FF32 		mov	r2, #-1
 1347 04ae 4548     		ldr	r0, .L42
 1348 04b0 FFF7FEFF 		bl	chMBPost
 1349              	.LVL156:
 1350              		.loc 1 132 0
 1351 04b4 B0FA80F1 		clz	r1, r0
 1352 04b8 4909     		lsrs	r1, r1, #5
 1353 04ba 0D20     		movs	r0, #13
 1354              	.LVL157:
 1355 04bc FFF7FEFF 		bl	_test_assert
 1356              	.LVL158:
 1357 04c0 0028     		cmp	r0, #0
 1358 04c2 7FF4D3AD 		bne	.L1
 1359              		.loc 1 133 0
 1360 04c6 01A9     		add	r1, sp, #4
 1361 04c8 4FF0FF32 		mov	r2, #-1
 1362 04cc 3D48     		ldr	r0, .L42
 1363 04ce FFF7FEFF 		bl	chMBFetch
 1364              	.LVL159:
 1365              		.loc 1 134 0
 1366 04d2 B0FA80F1 		clz	r1, r0
 1367 04d6 4909     		lsrs	r1, r1, #5
 1368 04d8 0E20     		movs	r0, #14
ARM GAS  /var/folders/qd/4mxf5pkd0zdf0b9dd1hp39180000gn/T//ccvUrqcz.s 			page 25


 1369              	.LVL160:
 1370 04da FFF7FEFF 		bl	_test_assert
 1371              	.LVL161:
 1372 04de 0028     		cmp	r0, #0
 1373 04e0 7FF4C4AD 		bne	.L1
 1374              		.loc 1 135 0
 1375 04e4 2968     		ldr	r1, [r5]
 1376 04e6 AB68     		ldr	r3, [r5, #8]
 1377 04e8 CA1A     		subs	r2, r1, r3
 1378 04ea 5142     		rsbs	r1, r2, #0
 1379 04ec 5141     		adcs	r1, r1, r2
 1380 04ee 0F20     		movs	r0, #15
 1381 04f0 FFF7FEFF 		bl	_test_assert
 1382              	.LVL162:
 1383 04f4 0028     		cmp	r0, #0
 1384 04f6 7FF4B9AD 		bne	.L1
 1385              		.loc 1 136 0
 1386 04fa 2968     		ldr	r1, [r5]
 1387 04fc EB68     		ldr	r3, [r5, #12]
 1388 04fe CB1A     		subs	r3, r1, r3
 1389 0500 5942     		rsbs	r1, r3, #0
 1390 0502 5941     		adcs	r1, r1, r3
 1391 0504 1020     		movs	r0, #16
 1392 0506 FFF7FEFF 		bl	_test_assert
 1393              	.LVL163:
 1394 050a 0028     		cmp	r0, #0
 1395 050c 7FF4AEAD 		bne	.L1
 1396              		.loc 1 141 0
 1397 0510 01A9     		add	r1, sp, #4
 1398 0512 0122     		movs	r2, #1
 1399 0514 2B48     		ldr	r0, .L42
 1400 0516 FFF7FEFF 		bl	chMBFetch
 1401              	.LVL164:
 1402              		.loc 1 142 0
 1403 051a 00F10108 		add	r8, r0, #1
 1404 051e D8F10001 		rsbs	r1, r8, #0
 1405 0522 41EB0801 		adc	r1, r1, r8
 1406 0526 1120     		movs	r0, #17
 1407              	.LVL165:
 1408 0528 FFF7FEFF 		bl	_test_assert
 1409              	.LVL166:
 1410 052c 0028     		cmp	r0, #0
 1411 052e 7FF49DAD 		bne	.L1
 1412              	.LVL167:
 1413              	.LBB541:
 1414              	.LBB542:
 1415              	.LBB543:
 1416              	.LBB544:
 1417              		.loc 2 546 0
 1418 0532 2026     		movs	r6, #32
 1419              		.syntax unified
 1420              	@ 546 "../../../os/ext/CMSIS/include/core_cmFunc.h" 1
 1421 0534 86F31188 		MSR basepri, r6
 1422              	@ 0 "" 2
 1423              	.LVL168:
 1424              		.thumb
 1425              		.syntax unified
ARM GAS  /var/folders/qd/4mxf5pkd0zdf0b9dd1hp39180000gn/T//ccvUrqcz.s 			page 26


 1426              	.LBE544:
 1427              	.LBE543:
 1428              	.LBE542:
 1429              	.LBE541:
 1430              		.loc 1 144 0
 1431 0538 2248     		ldr	r0, .L42
 1432 053a 01A9     		add	r1, sp, #4
 1433 053c FFF7FEFF 		bl	chMBFetchI
 1434              	.LVL169:
 1435 0540 0146     		mov	r1, r0
 1436              	.LVL170:
 1437              	.LBB545:
 1438              	.LBB546:
 1439              	.LBB547:
 1440              	.LBB548:
 1441              	.LBB549:
 1442              		.loc 2 546 0
 1443              		.syntax unified
 1444              	@ 546 "../../../os/ext/CMSIS/include/core_cmFunc.h" 1
 1445 0542 84F31188 		MSR basepri, r4
 1446              	@ 0 "" 2
 1447              	.LVL171:
 1448              		.thumb
 1449              		.syntax unified
 1450              	.LBE549:
 1451              	.LBE548:
 1452              	.LBE547:
 1453              	.LBE546:
 1454              	.LBE545:
 1455              		.loc 1 146 0
 1456 0546 01F1010E 		add	lr, r1, #1
 1457 054a DEF10001 		rsbs	r1, lr, #0
 1458 054e 41EB0E01 		adc	r1, r1, lr
 1459 0552 1220     		movs	r0, #18
 1460              	.LVL172:
 1461 0554 FFF7FEFF 		bl	_test_assert
 1462              	.LVL173:
 1463 0558 0028     		cmp	r0, #0
 1464 055a 7FF487AD 		bne	.L1
 1465              	.LVL174:
 1466              	.LBB550:
 1467              	.LBB551:
 1468              	.LBB552:
 1469              	.LBB553:
 1470              		.loc 2 546 0
 1471              		.syntax unified
 1472              	@ 546 "../../../os/ext/CMSIS/include/core_cmFunc.h" 1
 1473 055e 86F31188 		MSR basepri, r6
 1474              	@ 0 "" 2
 1475              	.LVL175:
 1476              		.thumb
 1477              		.syntax unified
 1478              	.LBE553:
 1479              	.LBE552:
 1480              	.LBE551:
 1481              	.LBE550:
 1482              		.loc 1 151 0
ARM GAS  /var/folders/qd/4mxf5pkd0zdf0b9dd1hp39180000gn/T//ccvUrqcz.s 			page 27


 1483 0562 696A     		ldr	r1, [r5, #36]
 1484 0564 A1F1050C 		sub	ip, r1, #5
 1485 0568 DCF10001 		rsbs	r1, ip, #0
 1486 056c 41EB0C01 		adc	r1, r1, ip
 1487 0570 1320     		movs	r0, #19
 1488 0572 FFF7FEFF 		bl	_test_assert
 1489              	.LVL176:
 1490 0576 0028     		cmp	r0, #0
 1491 0578 7FF4EDAE 		bne	.L33
 1492              	.LVL177:
 1493              	.LBB554:
 1494              	.LBB555:
 1495              	.LBB556:
 1496              	.LBB557:
 1497              	.LBB558:
 1498              		.loc 2 546 0
 1499 057c 0027     		movs	r7, #0
 1500              		.syntax unified
 1501              	@ 546 "../../../os/ext/CMSIS/include/core_cmFunc.h" 1
 1502 057e 87F31188 		MSR basepri, r7
 1503              	@ 0 "" 2
 1504              	.LVL178:
 1505              		.thumb
 1506              		.syntax unified
 1507              	.LBE558:
 1508              	.LBE557:
 1509              	.LBE556:
 1510              	.LBE555:
 1511              	.LBE554:
 1512              	.LBB559:
 1513              	.LBB560:
 1514              	.LBB561:
 1515              	.LBB562:
 1516 0582 2024     		movs	r4, #32
 1517              	.LVL179:
 1518              		.syntax unified
 1519              	@ 546 "../../../os/ext/CMSIS/include/core_cmFunc.h" 1
 1520 0584 84F31188 		MSR basepri, r4
 1521              	@ 0 "" 2
 1522              	.LVL180:
 1523              		.thumb
 1524              		.syntax unified
 1525              	.LBE562:
 1526              	.LBE561:
 1527              	.LBE560:
 1528              	.LBE559:
 1529              		.loc 1 152 0
 1530 0588 A969     		ldr	r1, [r5, #24]
 1531 058a B1FA81F1 		clz	r1, r1
 1532 058e 4909     		lsrs	r1, r1, #5
 1533 0590 1420     		movs	r0, #20
 1534 0592 FFF7FEFF 		bl	_test_assert
 1535              	.LVL181:
 1536 0596 0646     		mov	r6, r0
 1537 0598 0028     		cmp	r0, #0
 1538 059a 7FF450AF 		bne	.L31
 1539              	.LVL182:
ARM GAS  /var/folders/qd/4mxf5pkd0zdf0b9dd1hp39180000gn/T//ccvUrqcz.s 			page 28


 1540              	.LBB563:
 1541              	.LBB564:
 1542              	.LBB565:
 1543              	.LBB566:
 1544              	.LBB567:
 1545              		.loc 2 546 0
 1546              		.syntax unified
 1547              	@ 546 "../../../os/ext/CMSIS/include/core_cmFunc.h" 1
 1548 059e 80F31188 		MSR basepri, r0
 1549              	@ 0 "" 2
 1550              	.LVL183:
 1551              		.thumb
 1552              		.syntax unified
 1553              	.LBE567:
 1554              	.LBE566:
 1555              	.LBE565:
 1556              	.LBE564:
 1557              	.LBE563:
 1558              	.LBB568:
 1559              	.LBB569:
 1560              	.LBB570:
 1561              	.LBB571:
 1562              		.syntax unified
 1563              	@ 546 "../../../os/ext/CMSIS/include/core_cmFunc.h" 1
 1564 05a2 84F31188 		MSR basepri, r4
 1565              	@ 0 "" 2
 1566              	.LVL184:
 1567              		.thumb
 1568              		.syntax unified
 1569              	.LBE571:
 1570              	.LBE570:
 1571              	.LBE569:
 1572              	.LBE568:
 1573              		.loc 1 153 0
 1574 05a6 D5E90231 		ldrd	r3, r1, [r5, #8]
 1575 05aa CF1A     		subs	r7, r1, r3
 1576 05ac 7942     		rsbs	r1, r7, #0
 1577 05ae 7941     		adcs	r1, r1, r7
 1578 05b0 1520     		movs	r0, #21
 1579 05b2 FFF7FEFF 		bl	_test_assert
 1580              	.LVL185:
 1581 05b6 0028     		cmp	r0, #0
 1582 05b8 3FF45EAD 		beq	.L12
 1583              	.LVL186:
 1584              	.L32:
 1585              	.LBB572:
 1586              	.LBB573:
 1587              	.LBB574:
 1588              	.LBB575:
 1589              	.LBB576:
 1590              		.loc 2 546 0
 1591              		.syntax unified
 1592              	@ 546 "../../../os/ext/CMSIS/include/core_cmFunc.h" 1
 1593 05bc 86F31188 		MSR basepri, r6
 1594              	@ 0 "" 2
 1595              	.LVL187:
 1596              		.thumb
ARM GAS  /var/folders/qd/4mxf5pkd0zdf0b9dd1hp39180000gn/T//ccvUrqcz.s 			page 29


 1597              		.syntax unified
 1598 05c0 54E5     		b	.L1
 1599              	.L43:
 1600 05c2 00BF     		.align	2
 1601              	.L42:
 1602 05c4 00000000 		.word	.LANCHOR0
 1603 05c8 00000000 		.word	.LC0
 1604              	.LBE576:
 1605              	.LBE575:
 1606              	.LBE574:
 1607              	.LBE573:
 1608              	.LBE572:
 1609              		.cfi_endproc
 1610              	.LFE230:
 1611              		.size	mbox1_execute, .-mbox1_execute
 1612              		.section	.text.mbox1_setup,"ax",%progbits
 1613              		.align	1
 1614              		.p2align 4,,15
 1615              		.syntax unified
 1616              		.thumb
 1617              		.thumb_func
 1618              		.fpu softvfp
 1619              		.type	mbox1_setup, %function
 1620              	mbox1_setup:
 1621              	.LFB229:
 1622              		.loc 1 71 0
 1623              		.cfi_startproc
 1624              		@ args = 0, pretend = 0, frame = 0
 1625              		@ frame_needed = 0, uses_anonymous_args = 0
 1626              		@ link register save eliminated.
 1627              		.loc 1 73 0
 1628 0000 0522     		movs	r2, #5
 1629 0002 0249     		ldr	r1, .L45
 1630 0004 0248     		ldr	r0, .L45+4
 1631 0006 FFF7FEBF 		b	chMBObjectInit
 1632              	.LVL188:
 1633              	.L46:
 1634 000a 00BF     		.align	2
 1635              	.L45:
 1636 000c 00000000 		.word	test
 1637 0010 00000000 		.word	.LANCHOR0
 1638              		.cfi_endproc
 1639              	.LFE229:
 1640              		.size	mbox1_setup, .-mbox1_setup
 1641              		.global	patternmbox
 1642              		.global	testmbox1
 1643              		.section	.data.mb1,"aw",%progbits
 1644              		.align	2
 1645              		.set	.LANCHOR0,. + 0
 1646              		.type	mb1, %object
 1647              		.size	mb1, 40
 1648              	mb1:
 1649 0000 00000000 		.word	test
 1650 0004 14000000 		.word	test+20
 1651 0008 00000000 		.word	test
 1652 000c 00000000 		.word	test
 1653 0010 10000000 		.word	mb1+16
ARM GAS  /var/folders/qd/4mxf5pkd0zdf0b9dd1hp39180000gn/T//ccvUrqcz.s 			page 30


 1654 0014 10000000 		.word	mb1+16
 1655 0018 00000000 		.word	0
 1656 001c 1C000000 		.word	mb1+28
 1657 0020 1C000000 		.word	mb1+28
 1658 0024 05000000 		.word	5
 1659              		.section	.rodata.mbox1_execute.str1.4,"aMS",%progbits,1
 1660              		.align	2
 1661              	.LC0:
 1662 0000 41424344 		.ascii	"ABCDE\000"
 1662      4500
 1663              		.section	.rodata.patternmbox,"a",%progbits
 1664              		.align	2
 1665              		.type	patternmbox, %object
 1666              		.size	patternmbox, 8
 1667              	patternmbox:
 1668 0000 00000000 		.word	testmbox1
 1669 0004 00000000 		.word	0
 1670              		.section	.rodata.str1.4,"aMS",%progbits,1
 1671              		.align	2
 1672              	.LC1:
 1673 0000 4D61696C 		.ascii	"Mailboxes, queuing and timeouts\000"
 1673      626F7865 
 1673      732C2071 
 1673      75657569 
 1673      6E672061 
 1674              		.section	.rodata.testmbox1,"a",%progbits
 1675              		.align	2
 1676              		.type	testmbox1, %object
 1677              		.size	testmbox1, 16
 1678              	testmbox1:
 1679 0000 00000000 		.word	.LC1
 1680 0004 00000000 		.word	mbox1_setup
 1681 0008 00000000 		.word	0
 1682 000c 00000000 		.word	mbox1_execute
 1683              		.text
 1684              	.Letext0:
 1685              		.file 3 "/Applications/Eclipse_e-puck2.app/Contents/Eclipse_e-puck2/Tools/gcc-arm-none-eabi-7-2017
 1686              		.file 4 "/Applications/Eclipse_e-puck2.app/Contents/Eclipse_e-puck2/Tools/gcc-arm-none-eabi-7-2017
 1687              		.file 5 "/Applications/Eclipse_e-puck2.app/Contents/Eclipse_e-puck2/Tools/gcc-arm-none-eabi-7-2017
 1688              		.file 6 "../../../os/rt/ports/ARMCMx/compilers/GCC/chtypes.h"
 1689              		.file 7 "../../../os/rt/include/chsystypes.h"
 1690              		.file 8 "../../../os/rt/include/chschd.h"
 1691              		.file 9 "../../../os/ext/CMSIS/include/core_cm4.h"
 1692              		.file 10 "../../../os/ext/CMSIS/ST/system_stm32f4xx.h"
 1693              		.file 11 "../../../os/rt/ports/ARMCMx/chcore.h"
 1694              		.file 12 "../../../os/rt/ports/ARMCMx/chcore_v7m.h"
 1695              		.file 13 "../../../os/rt/include/chtm.h"
 1696              		.file 14 "../../../os/rt/include/chsem.h"
 1697              		.file 15 "../../../os/rt/include/chmtx.h"
 1698              		.file 16 "../../../os/rt/include/chregistry.h"
 1699              		.file 17 "../../../os/rt/include/chmboxes.h"
 1700              		.file 18 "../../../test/rt/test.h"
 1701              		.file 19 "../../../os/rt/include/chsys.h"