
build/ch.elf:     file format elf32-littlearm


Disassembly of section .text:

080001a0 <Reset_Handler>:
 80001a0:	b672      	cpsid	i
 80001a2:	4821      	ldr	r0, [pc, #132]	; (8000228 <endfiniloop+0x6>)
 80001a4:	f380 8809 	msr	PSP, r0
 80001a8:	2002      	movs	r0, #2
 80001aa:	f380 8814 	msr	CONTROL, r0
 80001ae:	f3bf 8f6f 	isb	sy
 80001b2:	f001 ffed 	bl	8002190 <__early_init>
 80001b6:	f04f 3055 	mov.w	r0, #1431655765	; 0x55555555
 80001ba:	491c      	ldr	r1, [pc, #112]	; (800022c <endfiniloop+0xa>)
 80001bc:	4a1c      	ldr	r2, [pc, #112]	; (8000230 <endfiniloop+0xe>)

080001be <msloop>:
 80001be:	4291      	cmp	r1, r2
 80001c0:	bf3c      	itt	cc
 80001c2:	f841 0b04 	strcc.w	r0, [r1], #4
 80001c6:	e7fa      	bcc.n	80001be <msloop>
 80001c8:	491a      	ldr	r1, [pc, #104]	; (8000234 <endfiniloop+0x12>)
 80001ca:	4a17      	ldr	r2, [pc, #92]	; (8000228 <endfiniloop+0x6>)

080001cc <psloop>:
 80001cc:	4291      	cmp	r1, r2
 80001ce:	bf3c      	itt	cc
 80001d0:	f841 0b04 	strcc.w	r0, [r1], #4
 80001d4:	e7fa      	bcc.n	80001cc <psloop>
 80001d6:	4918      	ldr	r1, [pc, #96]	; (8000238 <endfiniloop+0x16>)
 80001d8:	4a18      	ldr	r2, [pc, #96]	; (800023c <endfiniloop+0x1a>)
 80001da:	4b19      	ldr	r3, [pc, #100]	; (8000240 <endfiniloop+0x1e>)

080001dc <dloop>:
 80001dc:	429a      	cmp	r2, r3
 80001de:	bf3e      	ittt	cc
 80001e0:	f851 0b04 	ldrcc.w	r0, [r1], #4
 80001e4:	f842 0b04 	strcc.w	r0, [r2], #4
 80001e8:	e7f8      	bcc.n	80001dc <dloop>
 80001ea:	2000      	movs	r0, #0
 80001ec:	4915      	ldr	r1, [pc, #84]	; (8000244 <endfiniloop+0x22>)
 80001ee:	4a16      	ldr	r2, [pc, #88]	; (8000248 <endfiniloop+0x26>)

080001f0 <bloop>:
 80001f0:	4291      	cmp	r1, r2
 80001f2:	bf3c      	itt	cc
 80001f4:	f841 0b04 	strcc.w	r0, [r1], #4
 80001f8:	e7fa      	bcc.n	80001f0 <bloop>
 80001fa:	f009 fc51 	bl	8009aa0 <__late_init>
 80001fe:	4c13      	ldr	r4, [pc, #76]	; (800024c <endfiniloop+0x2a>)
 8000200:	4d13      	ldr	r5, [pc, #76]	; (8000250 <endfiniloop+0x2e>)

08000202 <initloop>:
 8000202:	42ac      	cmp	r4, r5
 8000204:	da03      	bge.n	800020e <endinitloop>
 8000206:	f854 1b04 	ldr.w	r1, [r4], #4
 800020a:	4788      	blx	r1
 800020c:	e7f9      	b.n	8000202 <initloop>

0800020e <endinitloop>:
 800020e:	f006 f8df 	bl	80063d0 <main>
 8000212:	4c10      	ldr	r4, [pc, #64]	; (8000254 <endfiniloop+0x32>)
 8000214:	4d10      	ldr	r5, [pc, #64]	; (8000258 <endfiniloop+0x36>)

08000216 <finiloop>:
 8000216:	42ac      	cmp	r4, r5
 8000218:	da03      	bge.n	8000222 <endfiniloop>
 800021a:	f854 1b04 	ldr.w	r1, [r4], #4
 800021e:	4788      	blx	r1
 8000220:	e7f9      	b.n	8000216 <finiloop>

08000222 <endfiniloop>:
 8000222:	f009 bc35 	b.w	8009a90 <__default_exit>
 8000226:	0000      	.short	0x0000
 8000228:	20000800 	.word	0x20000800
 800022c:	20000000 	.word	0x20000000
 8000230:	20000400 	.word	0x20000400
 8000234:	20000400 	.word	0x20000400
 8000238:	0800b5e8 	.word	0x0800b5e8
 800023c:	20000800 	.word	0x20000800
 8000240:	20001278 	.word	0x20001278
 8000244:	20001278 	.word	0x20001278
 8000248:	20002538 	.word	0x20002538
 800024c:	080001a0 	.word	0x080001a0
 8000250:	080001a0 	.word	0x080001a0
 8000254:	080001a0 	.word	0x080001a0
 8000258:	080001a0 	.word	0x080001a0
 800025c:	00000000 	.word	0x00000000

08000260 <_port_switch>:
 8000260:	e92d 4ff0 	stmdb	sp!, {r4, r5, r6, r7, r8, r9, sl, fp, lr}
 8000264:	f8c1 d00c 	str.w	sp, [r1, #12]
 8000268:	f8d0 d00c 	ldr.w	sp, [r0, #12]
 800026c:	e8bd 8ff0 	ldmia.w	sp!, {r4, r5, r6, r7, r8, r9, sl, fp, pc}

08000270 <_port_thread_start>:
 8000270:	f001 fff6 	bl	8002260 <_dbg_check_unlock>
 8000274:	f001 ffdc 	bl	8002230 <_stats_stop_measure_crit_thd>
 8000278:	2300      	movs	r3, #0
 800027a:	f383 8811 	msr	BASEPRI, r3
 800027e:	4628      	mov	r0, r5
 8000280:	47a0      	blx	r4
 8000282:	2000      	movs	r0, #0
 8000284:	f005 f8f4 	bl	8005470 <chThdExit>

08000288 <_port_switch_from_isr>:
 8000288:	f001 ffda 	bl	8002240 <_stats_start_measure_crit_thd>
 800028c:	f002 f8c8 	bl	8002420 <_dbg_check_lock>
 8000290:	f001 ffde 	bl	8002250 <chSchDoReschedule>
 8000294:	f001 ffe4 	bl	8002260 <_dbg_check_unlock>
 8000298:	f001 ffca 	bl	8002230 <_stats_stop_measure_crit_thd>

0800029c <_port_exit_from_isr>:
 800029c:	df00      	svc	0
 800029e:	e7fe      	b.n	800029e <_port_exit_from_isr+0x2>

080002a0 <tmr>:
 80002a0:	4b01      	ldr	r3, [pc, #4]	; (80002a8 <tmr+0x8>)
 80002a2:	2201      	movs	r2, #1
 80002a4:	701a      	strb	r2, [r3, #0]
 80002a6:	4770      	bx	lr
 80002a8:	20002368 	.word	0x20002368
 80002ac:	00000000 	.word	0x00000000

080002b0 <_idle_thread>:
 80002b0:	e7fe      	b.n	80002b0 <_idle_thread>
 80002b2:	bf00      	nop
	...

080002c0 <get_descriptor>:
 80002c0:	2902      	cmp	r1, #2
 80002c2:	d006      	beq.n	80002d2 <get_descriptor+0x12>
 80002c4:	2903      	cmp	r1, #3
 80002c6:	d006      	beq.n	80002d6 <get_descriptor+0x16>
 80002c8:	2901      	cmp	r1, #1
 80002ca:	4806      	ldr	r0, [pc, #24]	; (80002e4 <get_descriptor+0x24>)
 80002cc:	bf18      	it	ne
 80002ce:	2000      	movne	r0, #0
 80002d0:	4770      	bx	lr
 80002d2:	4805      	ldr	r0, [pc, #20]	; (80002e8 <get_descriptor+0x28>)
 80002d4:	4770      	bx	lr
 80002d6:	2a03      	cmp	r2, #3
 80002d8:	bf9a      	itte	ls
 80002da:	4804      	ldrls	r0, [pc, #16]	; (80002ec <get_descriptor+0x2c>)
 80002dc:	eb00 00c2 	addls.w	r0, r0, r2, lsl #3
 80002e0:	2000      	movhi	r0, #0
 80002e2:	4770      	bx	lr
 80002e4:	0800b390 	.word	0x0800b390
 80002e8:	0800b330 	.word	0x0800b330
 80002ec:	0800b450 	.word	0x0800b450

080002f0 <bmk12_setup>:
 80002f0:	4b02      	ldr	r3, [pc, #8]	; (80002fc <bmk12_setup+0xc>)
 80002f2:	2200      	movs	r2, #0
 80002f4:	e9c3 3300 	strd	r3, r3, [r3]
 80002f8:	609a      	str	r2, [r3, #8]
 80002fa:	4770      	bx	lr
 80002fc:	20001c14 	.word	0x20001c14

08000300 <notify>:
 8000300:	4770      	bx	lr
 8000302:	bf00      	nop
	...

08000310 <tmo>:
 8000310:	4770      	bx	lr
 8000312:	bf00      	nop
	...

08000320 <queues2_setup>:
 8000320:	b430      	push	{r4, r5}
 8000322:	4a08      	ldr	r2, [pc, #32]	; (8000344 <queues2_setup+0x24>)
 8000324:	4b08      	ldr	r3, [pc, #32]	; (8000348 <queues2_setup+0x28>)
 8000326:	4809      	ldr	r0, [pc, #36]	; (800034c <queues2_setup+0x2c>)
 8000328:	601b      	str	r3, [r3, #0]
 800032a:	1d15      	adds	r5, r2, #4
 800032c:	2404      	movs	r4, #4
 800032e:	2100      	movs	r1, #0
 8000330:	611d      	str	r5, [r3, #16]
 8000332:	609c      	str	r4, [r3, #8]
 8000334:	605b      	str	r3, [r3, #4]
 8000336:	60da      	str	r2, [r3, #12]
 8000338:	e9c3 2205 	strd	r2, r2, [r3, #20]
 800033c:	e9c3 0107 	strd	r0, r1, [r3, #28]
 8000340:	bc30      	pop	{r4, r5}
 8000342:	4770      	bx	lr
 8000344:	20001c38 	.word	0x20001c38
 8000348:	20000cac 	.word	0x20000cac
 800034c:	08000301 	.word	0x08000301

08000350 <queues1_setup>:
 8000350:	4a08      	ldr	r2, [pc, #32]	; (8000374 <queues1_setup+0x24>)
 8000352:	4b09      	ldr	r3, [pc, #36]	; (8000378 <queues1_setup+0x28>)
 8000354:	4809      	ldr	r0, [pc, #36]	; (800037c <queues1_setup+0x2c>)
 8000356:	b410      	push	{r4}
 8000358:	2100      	movs	r1, #0
 800035a:	1d14      	adds	r4, r2, #4
 800035c:	611c      	str	r4, [r3, #16]
 800035e:	601b      	str	r3, [r3, #0]
 8000360:	605b      	str	r3, [r3, #4]
 8000362:	60da      	str	r2, [r3, #12]
 8000364:	e9c3 2205 	strd	r2, r2, [r3, #20]
 8000368:	61d8      	str	r0, [r3, #28]
 800036a:	6099      	str	r1, [r3, #8]
 800036c:	6219      	str	r1, [r3, #32]
 800036e:	bc10      	pop	{r4}
 8000370:	4770      	bx	lr
 8000372:	bf00      	nop
 8000374:	20001c38 	.word	0x20001c38
 8000378:	20000c14 	.word	0x20000c14
 800037c:	08000301 	.word	0x08000301

08000380 <dyn1_setup>:
 8000380:	4b08      	ldr	r3, [pc, #32]	; (80003a4 <dyn1_setup+0x24>)
 8000382:	4909      	ldr	r1, [pc, #36]	; (80003a8 <dyn1_setup+0x28>)
 8000384:	b410      	push	{r4}
 8000386:	2200      	movs	r2, #0
 8000388:	f44f 64e0 	mov.w	r4, #1792	; 0x700
 800038c:	f103 0010 	add.w	r0, r3, #16
 8000390:	e9c1 2400 	strd	r2, r4, [r1]
 8000394:	6099      	str	r1, [r3, #8]
 8000396:	e9c3 0004 	strd	r0, r0, [r3, #16]
 800039a:	601a      	str	r2, [r3, #0]
 800039c:	60da      	str	r2, [r3, #12]
 800039e:	619a      	str	r2, [r3, #24]
 80003a0:	bc10      	pop	{r4}
 80003a2:	4770      	bx	lr
 80003a4:	20001bb0 	.word	0x20001bb0
 80003a8:	20001c38 	.word	0x20001c38
 80003ac:	00000000 	.word	0x00000000

080003b0 <dyn3_setup>:
 80003b0:	f7ff bfe6 	b.w	8000380 <dyn1_setup>
	...

080003c0 <null_provider>:
 80003c0:	2000      	movs	r0, #0
 80003c2:	4770      	bx	lr
	...

080003d0 <heap1_setup>:
 80003d0:	4b08      	ldr	r3, [pc, #32]	; (80003f4 <heap1_setup+0x24>)
 80003d2:	4909      	ldr	r1, [pc, #36]	; (80003f8 <heap1_setup+0x28>)
 80003d4:	b410      	push	{r4}
 80003d6:	2200      	movs	r2, #0
 80003d8:	f44f 64e0 	mov.w	r4, #1792	; 0x700
 80003dc:	f103 0010 	add.w	r0, r3, #16
 80003e0:	e9c1 2400 	strd	r2, r4, [r1]
 80003e4:	6099      	str	r1, [r3, #8]
 80003e6:	e9c3 0004 	strd	r0, r0, [r3, #16]
 80003ea:	601a      	str	r2, [r3, #0]
 80003ec:	60da      	str	r2, [r3, #12]
 80003ee:	619a      	str	r2, [r3, #24]
 80003f0:	bc10      	pop	{r4}
 80003f2:	4770      	bx	lr
 80003f4:	20002348 	.word	0x20002348
 80003f8:	20001c38 	.word	0x20001c38
 80003fc:	00000000 	.word	0x00000000

08000400 <test_printn.part.1>:
 8000400:	b320      	cbz	r0, 800044c <test_printn.part.1+0x4c>
 8000402:	b570      	push	{r4, r5, r6, lr}
 8000404:	b084      	sub	sp, #16
 8000406:	466d      	mov	r5, sp
 8000408:	462c      	mov	r4, r5
 800040a:	4e11      	ldr	r6, [pc, #68]	; (8000450 <test_printn.part.1+0x50>)
 800040c:	e000      	b.n	8000410 <test_printn.part.1+0x10>
 800040e:	4614      	mov	r4, r2
 8000410:	fba6 2300 	umull	r2, r3, r6, r0
 8000414:	08db      	lsrs	r3, r3, #3
 8000416:	eb03 0183 	add.w	r1, r3, r3, lsl #2
 800041a:	eba0 0041 	sub.w	r0, r0, r1, lsl #1
 800041e:	f100 0130 	add.w	r1, r0, #48	; 0x30
 8000422:	4622      	mov	r2, r4
 8000424:	b2c9      	uxtb	r1, r1
 8000426:	f802 1b01 	strb.w	r1, [r2], #1
 800042a:	4618      	mov	r0, r3
 800042c:	2b00      	cmp	r3, #0
 800042e:	d1ee      	bne.n	800040e <test_printn.part.1+0xe>
 8000430:	42aa      	cmp	r2, r5
 8000432:	d909      	bls.n	8000448 <test_printn.part.1+0x48>
 8000434:	4e07      	ldr	r6, [pc, #28]	; (8000454 <test_printn.part.1+0x54>)
 8000436:	e001      	b.n	800043c <test_printn.part.1+0x3c>
 8000438:	f814 1d01 	ldrb.w	r1, [r4, #-1]!
 800043c:	6830      	ldr	r0, [r6, #0]
 800043e:	6803      	ldr	r3, [r0, #0]
 8000440:	689b      	ldr	r3, [r3, #8]
 8000442:	4798      	blx	r3
 8000444:	42a5      	cmp	r5, r4
 8000446:	d1f7      	bne.n	8000438 <test_printn.part.1+0x38>
 8000448:	b004      	add	sp, #16
 800044a:	bd70      	pop	{r4, r5, r6, pc}
 800044c:	4770      	bx	lr
 800044e:	bf00      	nop
 8000450:	cccccccd 	.word	0xcccccccd
 8000454:	20001b30 	.word	0x20001b30
	...

08000460 <test_printn>:
 8000460:	b928      	cbnz	r0, 800046e <test_printn+0xe>
 8000462:	4b04      	ldr	r3, [pc, #16]	; (8000474 <test_printn+0x14>)
 8000464:	6818      	ldr	r0, [r3, #0]
 8000466:	6803      	ldr	r3, [r0, #0]
 8000468:	2130      	movs	r1, #48	; 0x30
 800046a:	689b      	ldr	r3, [r3, #8]
 800046c:	4718      	bx	r3
 800046e:	f7ff bfc7 	b.w	8000400 <test_printn.part.1>
 8000472:	bf00      	nop
 8000474:	20001b30 	.word	0x20001b30
	...

08000480 <print_line>:
 8000480:	b570      	push	{r4, r5, r6, lr}
 8000482:	4d08      	ldr	r5, [pc, #32]	; (80004a4 <print_line+0x24>)
 8000484:	244c      	movs	r4, #76	; 0x4c
 8000486:	6828      	ldr	r0, [r5, #0]
 8000488:	6803      	ldr	r3, [r0, #0]
 800048a:	212d      	movs	r1, #45	; 0x2d
 800048c:	689b      	ldr	r3, [r3, #8]
 800048e:	4798      	blx	r3
 8000490:	3c01      	subs	r4, #1
 8000492:	d1f8      	bne.n	8000486 <print_line+0x6>
 8000494:	6828      	ldr	r0, [r5, #0]
 8000496:	4904      	ldr	r1, [pc, #16]	; (80004a8 <print_line+0x28>)
 8000498:	6803      	ldr	r3, [r0, #0]
 800049a:	2202      	movs	r2, #2
 800049c:	681b      	ldr	r3, [r3, #0]
 800049e:	e8bd 4070 	ldmia.w	sp!, {r4, r5, r6, lr}
 80004a2:	4718      	bx	r3
 80004a4:	20001b30 	.word	0x20001b30
 80004a8:	0800a76c 	.word	0x0800a76c
 80004ac:	00000000 	.word	0x00000000

080004b0 <_test_assert_sequence>:
 80004b0:	b4f0      	push	{r4, r5, r6, r7}
 80004b2:	4e0e      	ldr	r6, [pc, #56]	; (80004ec <_test_assert_sequence+0x3c>)
 80004b4:	4f0e      	ldr	r7, [pc, #56]	; (80004f0 <_test_assert_sequence+0x40>)
 80004b6:	6835      	ldr	r5, [r6, #0]
 80004b8:	3901      	subs	r1, #1
 80004ba:	463b      	mov	r3, r7
 80004bc:	e003      	b.n	80004c6 <_test_assert_sequence+0x16>
 80004be:	f813 4b01 	ldrb.w	r4, [r3], #1
 80004c2:	4294      	cmp	r4, r2
 80004c4:	d108      	bne.n	80004d8 <_test_assert_sequence+0x28>
 80004c6:	429d      	cmp	r5, r3
 80004c8:	f811 2f01 	ldrb.w	r2, [r1, #1]!
 80004cc:	d8f7      	bhi.n	80004be <_test_assert_sequence+0xe>
 80004ce:	b91a      	cbnz	r2, 80004d8 <_test_assert_sequence+0x28>
 80004d0:	6037      	str	r7, [r6, #0]
 80004d2:	4610      	mov	r0, r2
 80004d4:	bcf0      	pop	{r4, r5, r6, r7}
 80004d6:	4770      	bx	lr
 80004d8:	4c06      	ldr	r4, [pc, #24]	; (80004f4 <_test_assert_sequence+0x44>)
 80004da:	4907      	ldr	r1, [pc, #28]	; (80004f8 <_test_assert_sequence+0x48>)
 80004dc:	4b07      	ldr	r3, [pc, #28]	; (80004fc <_test_assert_sequence+0x4c>)
 80004de:	2201      	movs	r2, #1
 80004e0:	7022      	strb	r2, [r4, #0]
 80004e2:	6018      	str	r0, [r3, #0]
 80004e4:	700a      	strb	r2, [r1, #0]
 80004e6:	4610      	mov	r0, r2
 80004e8:	bcf0      	pop	{r4, r5, r6, r7}
 80004ea:	4770      	bx	lr
 80004ec:	20002390 	.word	0x20002390
 80004f0:	20002380 	.word	0x20002380
 80004f4:	20002340 	.word	0x20002340
 80004f8:	20001c04 	.word	0x20001c04
 80004fc:	20001bac 	.word	0x20001bac

08000500 <_test_assert>:
 8000500:	b951      	cbnz	r1, 8000518 <_test_assert+0x18>
 8000502:	b410      	push	{r4}
 8000504:	4906      	ldr	r1, [pc, #24]	; (8000520 <_test_assert+0x20>)
 8000506:	4c07      	ldr	r4, [pc, #28]	; (8000524 <_test_assert+0x24>)
 8000508:	4a07      	ldr	r2, [pc, #28]	; (8000528 <_test_assert+0x28>)
 800050a:	2301      	movs	r3, #1
 800050c:	7023      	strb	r3, [r4, #0]
 800050e:	6010      	str	r0, [r2, #0]
 8000510:	700b      	strb	r3, [r1, #0]
 8000512:	4618      	mov	r0, r3
 8000514:	bc10      	pop	{r4}
 8000516:	4770      	bx	lr
 8000518:	2300      	movs	r3, #0
 800051a:	4618      	mov	r0, r3
 800051c:	4770      	bx	lr
 800051e:	bf00      	nop
 8000520:	20001c04 	.word	0x20001c04
 8000524:	20002340 	.word	0x20002340
 8000528:	20001bac 	.word	0x20001bac
 800052c:	00000000 	.word	0x00000000

08000530 <test_println>:
 8000530:	b570      	push	{r4, r5, r6, lr}
 8000532:	7801      	ldrb	r1, [r0, #0]
 8000534:	b189      	cbz	r1, 800055a <test_println+0x2a>
 8000536:	4d0a      	ldr	r5, [pc, #40]	; (8000560 <test_println+0x30>)
 8000538:	4604      	mov	r4, r0
 800053a:	6828      	ldr	r0, [r5, #0]
 800053c:	6803      	ldr	r3, [r0, #0]
 800053e:	689b      	ldr	r3, [r3, #8]
 8000540:	4798      	blx	r3
 8000542:	f814 1f01 	ldrb.w	r1, [r4, #1]!
 8000546:	2900      	cmp	r1, #0
 8000548:	d1f7      	bne.n	800053a <test_println+0xa>
 800054a:	6828      	ldr	r0, [r5, #0]
 800054c:	4905      	ldr	r1, [pc, #20]	; (8000564 <test_println+0x34>)
 800054e:	6803      	ldr	r3, [r0, #0]
 8000550:	2202      	movs	r2, #2
 8000552:	681b      	ldr	r3, [r3, #0]
 8000554:	e8bd 4070 	ldmia.w	sp!, {r4, r5, r6, lr}
 8000558:	4718      	bx	r3
 800055a:	4d01      	ldr	r5, [pc, #4]	; (8000560 <test_println+0x30>)
 800055c:	e7f5      	b.n	800054a <test_println+0x1a>
 800055e:	bf00      	nop
 8000560:	20001b30 	.word	0x20001b30
 8000564:	0800a76c 	.word	0x0800a76c
	...

08000570 <test_print>:
 8000570:	7801      	ldrb	r1, [r0, #0]
 8000572:	b159      	cbz	r1, 800058c <test_print+0x1c>
 8000574:	b538      	push	{r3, r4, r5, lr}
 8000576:	4d06      	ldr	r5, [pc, #24]	; (8000590 <test_print+0x20>)
 8000578:	4604      	mov	r4, r0
 800057a:	6828      	ldr	r0, [r5, #0]
 800057c:	6803      	ldr	r3, [r0, #0]
 800057e:	689b      	ldr	r3, [r3, #8]
 8000580:	4798      	blx	r3
 8000582:	f814 1f01 	ldrb.w	r1, [r4, #1]!
 8000586:	2900      	cmp	r1, #0
 8000588:	d1f7      	bne.n	800057a <test_print+0xa>
 800058a:	bd38      	pop	{r3, r4, r5, pc}
 800058c:	4770      	bx	lr
 800058e:	bf00      	nop
 8000590:	20001b30 	.word	0x20001b30
	...

080005a0 <usb_lld_prepare_receive>:
 80005a0:	eb00 0181 	add.w	r1, r0, r1, lsl #2
 80005a4:	68c9      	ldr	r1, [r1, #12]
 80005a6:	698a      	ldr	r2, [r1, #24]
 80005a8:	6853      	ldr	r3, [r2, #4]
 80005aa:	b133      	cbz	r3, 80005ba <usb_lld_prepare_receive+0x1a>
 80005ac:	8a49      	ldrh	r1, [r1, #18]
 80005ae:	440b      	add	r3, r1
 80005b0:	3b01      	subs	r3, #1
 80005b2:	fbb3 f3f1 	udiv	r3, r3, r1
 80005b6:	8213      	strh	r3, [r2, #16]
 80005b8:	4770      	bx	lr
 80005ba:	2301      	movs	r3, #1
 80005bc:	8213      	strh	r3, [r2, #16]
 80005be:	4770      	bx	lr

080005c0 <usb_lld_init_endpoint>:
 80005c0:	eb00 0381 	add.w	r3, r0, r1, lsl #2
 80005c4:	b4f0      	push	{r4, r5, r6, r7}
 80005c6:	68dc      	ldr	r4, [r3, #12]
 80005c8:	6823      	ldr	r3, [r4, #0]
 80005ca:	f003 0303 	and.w	r3, r3, #3
 80005ce:	3b01      	subs	r3, #1
 80005d0:	2b02      	cmp	r3, #2
 80005d2:	bf9c      	itt	ls
 80005d4:	4a32      	ldrls	r2, [pc, #200]	; (80006a0 <usb_lld_init_endpoint+0xe0>)
 80005d6:	f832 3013 	ldrhls.w	r3, [r2, r3, lsl #1]
 80005da:	68a2      	ldr	r2, [r4, #8]
 80005dc:	bf88      	it	hi
 80005de:	f44f 7300 	movhi.w	r3, #512	; 0x200
 80005e2:	b10a      	cbz	r2, 80005e8 <usb_lld_init_endpoint+0x28>
 80005e4:	f043 0320 	orr.w	r3, r3, #32
 80005e8:	68e2      	ldr	r2, [r4, #12]
 80005ea:	b10a      	cbz	r2, 80005f0 <usb_lld_init_endpoint+0x30>
 80005ec:	f443 5300 	orr.w	r3, r3, #8192	; 0x2000
 80005f0:	ea43 0201 	orr.w	r2, r3, r1
 80005f4:	008d      	lsls	r5, r1, #2
 80005f6:	f422 4278 	bic.w	r2, r2, #63488	; 0xf800
 80005fa:	f105 4580 	add.w	r5, r5, #1073741824	; 0x40000000
 80005fe:	f505 45b8 	add.w	r5, r5, #23552	; 0x5c00
 8000602:	f248 0680 	movw	r6, #32896	; 0x8080
 8000606:	f022 02f0 	bic.w	r2, r2, #240	; 0xf0
 800060a:	4332      	orrs	r2, r6
 800060c:	602a      	str	r2, [r5, #0]
 800060e:	682f      	ldr	r7, [r5, #0]
 8000610:	8a62      	ldrh	r2, [r4, #18]
 8000612:	f647 0c70 	movw	ip, #30832	; 0x7870
 8000616:	ea03 030c 	and.w	r3, r3, ip
 800061a:	407b      	eors	r3, r7
 800061c:	4333      	orrs	r3, r6
 800061e:	2a3e      	cmp	r2, #62	; 0x3e
 8000620:	602b      	str	r3, [r5, #0]
 8000622:	f102 33ff 	add.w	r3, r2, #4294967295	; 0xffffffff
 8000626:	d928      	bls.n	800067a <usb_lld_init_endpoint+0xba>
 8000628:	f043 031f 	orr.w	r3, r3, #31
 800062c:	3301      	adds	r3, #1
 800062e:	4d1d      	ldr	r5, [pc, #116]	; (80006a4 <usb_lld_init_endpoint+0xe4>)
 8000630:	115b      	asrs	r3, r3, #5
 8000632:	ea45 2383 	orr.w	r3, r5, r3, lsl #10
 8000636:	b29b      	uxth	r3, r3
 8000638:	4e1b      	ldr	r6, [pc, #108]	; (80006a8 <usb_lld_init_endpoint+0xe8>)
 800063a:	8a25      	ldrh	r5, [r4, #16]
 800063c:	6d34      	ldr	r4, [r6, #80]	; 0x50
 800063e:	f104 5400 	add.w	r4, r4, #536870912	; 0x20000000
 8000642:	f504 5440 	add.w	r4, r4, #12288	; 0x3000
 8000646:	eb04 01c1 	add.w	r1, r4, r1, lsl #3
 800064a:	0049      	lsls	r1, r1, #1
 800064c:	2400      	movs	r4, #0
 800064e:	604c      	str	r4, [r1, #4]
 8000650:	60cb      	str	r3, [r1, #12]
 8000652:	f8d0 4080 	ldr.w	r4, [r0, #128]	; 0x80
 8000656:	4425      	add	r5, r4
 8000658:	f5b5 7f00 	cmp.w	r5, #512	; 0x200
 800065c:	f8c0 5080 	str.w	r5, [r0, #128]	; 0x80
 8000660:	d819      	bhi.n	8000696 <usb_lld_init_endpoint+0xd6>
 8000662:	600c      	str	r4, [r1, #0]
 8000664:	f8d0 3080 	ldr.w	r3, [r0, #128]	; 0x80
 8000668:	441a      	add	r2, r3
 800066a:	f5b2 7f00 	cmp.w	r2, #512	; 0x200
 800066e:	f8c0 2080 	str.w	r2, [r0, #128]	; 0x80
 8000672:	d80b      	bhi.n	800068c <usb_lld_init_endpoint+0xcc>
 8000674:	608b      	str	r3, [r1, #8]
 8000676:	bcf0      	pop	{r4, r5, r6, r7}
 8000678:	4770      	bx	lr
 800067a:	f043 0301 	orr.w	r3, r3, #1
 800067e:	3301      	adds	r3, #1
 8000680:	eb03 73d3 	add.w	r3, r3, r3, lsr #31
 8000684:	025b      	lsls	r3, r3, #9
 8000686:	f403 437c 	and.w	r3, r3, #64512	; 0xfc00
 800068a:	e7d5      	b.n	8000638 <usb_lld_init_endpoint+0x78>
 800068c:	b672      	cpsid	i
 800068e:	4b07      	ldr	r3, [pc, #28]	; (80006ac <usb_lld_init_endpoint+0xec>)
 8000690:	4a07      	ldr	r2, [pc, #28]	; (80006b0 <usb_lld_init_endpoint+0xf0>)
 8000692:	62da      	str	r2, [r3, #44]	; 0x2c
 8000694:	e7fe      	b.n	8000694 <usb_lld_init_endpoint+0xd4>
 8000696:	b672      	cpsid	i
 8000698:	4b04      	ldr	r3, [pc, #16]	; (80006ac <usb_lld_init_endpoint+0xec>)
 800069a:	4a05      	ldr	r2, [pc, #20]	; (80006b0 <usb_lld_init_endpoint+0xf0>)
 800069c:	62da      	str	r2, [r3, #44]	; 0x2c
 800069e:	e7fe      	b.n	800069e <usb_lld_init_endpoint+0xde>
 80006a0:	08009c00 	.word	0x08009c00
 80006a4:	ffff8000 	.word	0xffff8000
 80006a8:	40005c00 	.word	0x40005c00
 80006ac:	20001558 	.word	0x20001558
 80006b0:	0800a1a0 	.word	0x0800a1a0
	...

080006c0 <usb_lld_reset.constprop.13>:
 80006c0:	4b0d      	ldr	r3, [pc, #52]	; (80006f8 <usb_lld_reset.constprop.13+0x38>)
 80006c2:	480e      	ldr	r0, [pc, #56]	; (80006fc <usb_lld_reset.constprop.13+0x3c>)
 80006c4:	6859      	ldr	r1, [r3, #4]
 80006c6:	4a0e      	ldr	r2, [pc, #56]	; (8000700 <usb_lld_reset.constprop.13+0x40>)
 80006c8:	68c9      	ldr	r1, [r1, #12]
 80006ca:	b430      	push	{r4, r5}
 80006cc:	2900      	cmp	r1, #0
 80006ce:	60d8      	str	r0, [r3, #12]
 80006d0:	f04f 0100 	mov.w	r1, #0
 80006d4:	bf0c      	ite	eq
 80006d6:	f44f 401c 	moveq.w	r0, #39936	; 0x9c00
 80006da:	f44f 401e 	movne.w	r0, #40448	; 0x9e00
 80006de:	2580      	movs	r5, #128	; 0x80
 80006e0:	2440      	movs	r4, #64	; 0x40
 80006e2:	6511      	str	r1, [r2, #80]	; 0x50
 80006e4:	6451      	str	r1, [r2, #68]	; 0x44
 80006e6:	64d5      	str	r5, [r2, #76]	; 0x4c
 80006e8:	6410      	str	r0, [r2, #64]	; 0x40
 80006ea:	f8c3 4080 	str.w	r4, [r3, #128]	; 0x80
 80006ee:	4618      	mov	r0, r3
 80006f0:	bc30      	pop	{r4, r5}
 80006f2:	f7ff bf65 	b.w	80005c0 <usb_lld_init_endpoint>
 80006f6:	bf00      	nop
 80006f8:	200014d0 	.word	0x200014d0
 80006fc:	0800a7d0 	.word	0x0800a7d0
 8000700:	40005c00 	.word	0x40005c00
	...

08000710 <set_address>:
 8000710:	f890 3076 	ldrb.w	r3, [r0, #118]	; 0x76
 8000714:	6842      	ldr	r2, [r0, #4]
 8000716:	f880 307e 	strb.w	r3, [r0, #126]	; 0x7e
 800071a:	4906      	ldr	r1, [pc, #24]	; (8000734 <set_address+0x24>)
 800071c:	6812      	ldr	r2, [r2, #0]
 800071e:	f043 0380 	orr.w	r3, r3, #128	; 0x80
 8000722:	b510      	push	{r4, lr}
 8000724:	4604      	mov	r4, r0
 8000726:	64cb      	str	r3, [r1, #76]	; 0x4c
 8000728:	b10a      	cbz	r2, 800072e <set_address+0x1e>
 800072a:	2101      	movs	r1, #1
 800072c:	4790      	blx	r2
 800072e:	2303      	movs	r3, #3
 8000730:	7023      	strb	r3, [r4, #0]
 8000732:	bd10      	pop	{r4, pc}
 8000734:	40005c00 	.word	0x40005c00
	...

08000740 <sduInterruptTransmitted>:
 8000740:	4770      	bx	lr
 8000742:	bf00      	nop
	...

08000750 <sduRequestsHook>:
 8000750:	f890 3074 	ldrb.w	r3, [r0, #116]	; 0x74
 8000754:	f003 0360 	and.w	r3, r3, #96	; 0x60
 8000758:	2b20      	cmp	r3, #32
 800075a:	d001      	beq.n	8000760 <sduRequestsHook+0x10>
 800075c:	2000      	movs	r0, #0
 800075e:	4770      	bx	lr
 8000760:	f890 3075 	ldrb.w	r3, [r0, #117]	; 0x75
 8000764:	2b20      	cmp	r3, #32
 8000766:	d3f9      	bcc.n	800075c <sduRequestsHook+0xc>
 8000768:	2b21      	cmp	r3, #33	; 0x21
 800076a:	d807      	bhi.n	800077c <sduRequestsHook+0x2c>
 800076c:	4b07      	ldr	r3, [pc, #28]	; (800078c <sduRequestsHook+0x3c>)
 800076e:	6683      	str	r3, [r0, #104]	; 0x68
 8000770:	2207      	movs	r2, #7
 8000772:	2300      	movs	r3, #0
 8000774:	e9c0 231b 	strd	r2, r3, [r0, #108]	; 0x6c
 8000778:	2001      	movs	r0, #1
 800077a:	4770      	bx	lr
 800077c:	2b22      	cmp	r3, #34	; 0x22
 800077e:	d1ed      	bne.n	800075c <sduRequestsHook+0xc>
 8000780:	2300      	movs	r3, #0
 8000782:	e9c0 331a 	strd	r3, r3, [r0, #104]	; 0x68
 8000786:	6703      	str	r3, [r0, #112]	; 0x70
 8000788:	2001      	movs	r0, #1
 800078a:	4770      	bx	lr
 800078c:	20000c38 	.word	0x20000c38

08000790 <stSetAlarm>:
 8000790:	f04f 4380 	mov.w	r3, #1073741824	; 0x40000000
 8000794:	68da      	ldr	r2, [r3, #12]
 8000796:	0792      	lsls	r2, r2, #30
 8000798:	d501      	bpl.n	800079e <stSetAlarm+0xe>
 800079a:	6358      	str	r0, [r3, #52]	; 0x34
 800079c:	4770      	bx	lr
 800079e:	b672      	cpsid	i
 80007a0:	4b01      	ldr	r3, [pc, #4]	; (80007a8 <stSetAlarm+0x18>)
 80007a2:	4a02      	ldr	r2, [pc, #8]	; (80007ac <stSetAlarm+0x1c>)
 80007a4:	62da      	str	r2, [r3, #44]	; 0x2c
 80007a6:	e7fe      	b.n	80007a6 <stSetAlarm+0x16>
 80007a8:	20001558 	.word	0x20001558
 80007ac:	0800a180 	.word	0x0800a180

080007b0 <_port_irq_epilogue>:
 80007b0:	2320      	movs	r3, #32
 80007b2:	f383 8811 	msr	BASEPRI, r3
 80007b6:	4b11      	ldr	r3, [pc, #68]	; (80007fc <_port_irq_epilogue+0x4c>)
 80007b8:	685b      	ldr	r3, [r3, #4]
 80007ba:	f413 6300 	ands.w	r3, r3, #2048	; 0x800
 80007be:	d102      	bne.n	80007c6 <_port_irq_epilogue+0x16>
 80007c0:	f383 8811 	msr	BASEPRI, r3
 80007c4:	4770      	bx	lr
 80007c6:	b480      	push	{r7}
 80007c8:	af00      	add	r7, sp, #0
 80007ca:	f3ef 8309 	mrs	r3, PSP
 80007ce:	f04f 7280 	mov.w	r2, #16777216	; 0x1000000
 80007d2:	f843 2c04 	str.w	r2, [r3, #-4]
 80007d6:	f1a3 0220 	sub.w	r2, r3, #32
 80007da:	f382 8809 	msr	PSP, r2
 80007de:	4a08      	ldr	r2, [pc, #32]	; (8000800 <_port_irq_epilogue+0x50>)
 80007e0:	6811      	ldr	r1, [r2, #0]
 80007e2:	6992      	ldr	r2, [r2, #24]
 80007e4:	6889      	ldr	r1, [r1, #8]
 80007e6:	6892      	ldr	r2, [r2, #8]
 80007e8:	4291      	cmp	r1, r2
 80007ea:	bf8c      	ite	hi
 80007ec:	4a05      	ldrhi	r2, [pc, #20]	; (8000804 <_port_irq_epilogue+0x54>)
 80007ee:	4a06      	ldrls	r2, [pc, #24]	; (8000808 <_port_irq_epilogue+0x58>)
 80007f0:	f843 2c08 	str.w	r2, [r3, #-8]
 80007f4:	46bd      	mov	sp, r7
 80007f6:	bc80      	pop	{r7}
 80007f8:	4770      	bx	lr
 80007fa:	bf00      	nop
 80007fc:	e000ed00 	.word	0xe000ed00
 8000800:	20001558 	.word	0x20001558
 8000804:	08000289 	.word	0x08000289
 8000808:	0800029c 	.word	0x0800029c
 800080c:	00000000 	.word	0x00000000

08000810 <SVC_Handler>:
 8000810:	b480      	push	{r7}
 8000812:	af00      	add	r7, sp, #0
 8000814:	f3ef 8309 	mrs	r3, PSP
 8000818:	3320      	adds	r3, #32
 800081a:	f383 8809 	msr	PSP, r3
 800081e:	2300      	movs	r3, #0
 8000820:	f383 8811 	msr	BASEPRI, r3
 8000824:	46bd      	mov	sp, r7
 8000826:	bc80      	pop	{r7}
 8000828:	4770      	bx	lr
 800082a:	bf00      	nop
 800082c:	0000      	movs	r0, r0
	...

08000830 <chTMChainMeasurementToX>:
 8000830:	4b0e      	ldr	r3, [pc, #56]	; (800086c <chTMChainMeasurementToX+0x3c>)
 8000832:	6842      	ldr	r2, [r0, #4]
 8000834:	685b      	ldr	r3, [r3, #4]
 8000836:	b4f0      	push	{r4, r5, r6, r7}
 8000838:	608b      	str	r3, [r1, #8]
 800083a:	e9d0 6102 	ldrd	r6, r1, [r0, #8]
 800083e:	e9d0 4504 	ldrd	r4, r5, [r0, #16]
 8000842:	1b9b      	subs	r3, r3, r6
 8000844:	18e6      	adds	r6, r4, r3
 8000846:	f145 0700 	adc.w	r7, r5, #0
 800084a:	3101      	adds	r1, #1
 800084c:	4293      	cmp	r3, r2
 800084e:	e9c0 3102 	strd	r3, r1, [r0, #8]
 8000852:	e9c0 6704 	strd	r6, r7, [r0, #16]
 8000856:	d805      	bhi.n	8000864 <chTMChainMeasurementToX+0x34>
 8000858:	6802      	ldr	r2, [r0, #0]
 800085a:	4293      	cmp	r3, r2
 800085c:	bf38      	it	cc
 800085e:	6003      	strcc	r3, [r0, #0]
 8000860:	bcf0      	pop	{r4, r5, r6, r7}
 8000862:	4770      	bx	lr
 8000864:	6043      	str	r3, [r0, #4]
 8000866:	bcf0      	pop	{r4, r5, r6, r7}
 8000868:	4770      	bx	lr
 800086a:	bf00      	nop
 800086c:	e0001000 	.word	0xe0001000

08000870 <_stats_ctxswc>:
 8000870:	4a07      	ldr	r2, [pc, #28]	; (8000890 <_stats_ctxswc+0x20>)
 8000872:	f8d2 34ac 	ldr.w	r3, [r2, #1196]	; 0x4ac
 8000876:	b410      	push	{r4}
 8000878:	f101 0448 	add.w	r4, r1, #72	; 0x48
 800087c:	3301      	adds	r3, #1
 800087e:	f100 0148 	add.w	r1, r0, #72	; 0x48
 8000882:	4620      	mov	r0, r4
 8000884:	bc10      	pop	{r4}
 8000886:	f8c2 34ac 	str.w	r3, [r2, #1196]	; 0x4ac
 800088a:	f7ff bfd1 	b.w	8000830 <chTMChainMeasurementToX>
 800088e:	bf00      	nop
 8000890:	20001558 	.word	0x20001558
	...

080008a0 <chTMStopMeasurementX>:
 80008a0:	4b0f      	ldr	r3, [pc, #60]	; (80008e0 <chTMStopMeasurementX+0x40>)
 80008a2:	4a10      	ldr	r2, [pc, #64]	; (80008e4 <chTMStopMeasurementX+0x44>)
 80008a4:	685b      	ldr	r3, [r3, #4]
 80008a6:	68c1      	ldr	r1, [r0, #12]
 80008a8:	b4f0      	push	{r4, r5, r6, r7}
 80008aa:	6884      	ldr	r4, [r0, #8]
 80008ac:	f8d2 64a0 	ldr.w	r6, [r2, #1184]	; 0x4a0
 80008b0:	6842      	ldr	r2, [r0, #4]
 80008b2:	1b1b      	subs	r3, r3, r4
 80008b4:	e9d0 4504 	ldrd	r4, r5, [r0, #16]
 80008b8:	1b9b      	subs	r3, r3, r6
 80008ba:	18e6      	adds	r6, r4, r3
 80008bc:	f145 0700 	adc.w	r7, r5, #0
 80008c0:	3101      	adds	r1, #1
 80008c2:	4293      	cmp	r3, r2
 80008c4:	e9c0 3102 	strd	r3, r1, [r0, #8]
 80008c8:	e9c0 6704 	strd	r6, r7, [r0, #16]
 80008cc:	d805      	bhi.n	80008da <chTMStopMeasurementX+0x3a>
 80008ce:	6802      	ldr	r2, [r0, #0]
 80008d0:	4293      	cmp	r3, r2
 80008d2:	bf38      	it	cc
 80008d4:	6003      	strcc	r3, [r0, #0]
 80008d6:	bcf0      	pop	{r4, r5, r6, r7}
 80008d8:	4770      	bx	lr
 80008da:	6043      	str	r3, [r0, #4]
 80008dc:	bcf0      	pop	{r4, r5, r6, r7}
 80008de:	4770      	bx	lr
 80008e0:	e0001000 	.word	0xe0001000
 80008e4:	20001558 	.word	0x20001558
	...

080008f0 <_stats_stop_measure_crit_isr>:
 80008f0:	4801      	ldr	r0, [pc, #4]	; (80008f8 <_stats_stop_measure_crit_isr+0x8>)
 80008f2:	f7ff bfd5 	b.w	80008a0 <chTMStopMeasurementX>
 80008f6:	bf00      	nop
 80008f8:	20001a20 	.word	0x20001a20
 80008fc:	00000000 	.word	0x00000000

08000900 <chTMStartMeasurementX>:
 8000900:	4b01      	ldr	r3, [pc, #4]	; (8000908 <chTMStartMeasurementX+0x8>)
 8000902:	685b      	ldr	r3, [r3, #4]
 8000904:	6083      	str	r3, [r0, #8]
 8000906:	4770      	bx	lr
 8000908:	e0001000 	.word	0xe0001000
 800090c:	00000000 	.word	0x00000000

08000910 <_stats_start_measure_crit_isr>:
 8000910:	4801      	ldr	r0, [pc, #4]	; (8000918 <_stats_start_measure_crit_isr+0x8>)
 8000912:	f7ff bff5 	b.w	8000900 <chTMStartMeasurementX>
 8000916:	bf00      	nop
 8000918:	20001a20 	.word	0x20001a20
 800091c:	00000000 	.word	0x00000000

08000920 <_dbg_trace>:
 8000920:	4a0b      	ldr	r2, [pc, #44]	; (8000950 <_dbg_trace+0x30>)
 8000922:	b430      	push	{r4, r5}
 8000924:	6bd3      	ldr	r3, [r2, #60]	; 0x3c
 8000926:	6a44      	ldr	r4, [r0, #36]	; 0x24
 8000928:	6991      	ldr	r1, [r2, #24]
 800092a:	f04f 4580 	mov.w	r5, #1073741824	; 0x40000000
 800092e:	6a6d      	ldr	r5, [r5, #36]	; 0x24
 8000930:	601d      	str	r5, [r3, #0]
 8000932:	e9c3 1401 	strd	r1, r4, [r3, #4]
 8000936:	f890 1020 	ldrb.w	r1, [r0, #32]
 800093a:	7319      	strb	r1, [r3, #12]
 800093c:	3310      	adds	r3, #16
 800093e:	f502 6188 	add.w	r1, r2, #1088	; 0x440
 8000942:	428b      	cmp	r3, r1
 8000944:	bf28      	it	cs
 8000946:	f102 0340 	addcs.w	r3, r2, #64	; 0x40
 800094a:	63d3      	str	r3, [r2, #60]	; 0x3c
 800094c:	bc30      	pop	{r4, r5}
 800094e:	4770      	bx	lr
 8000950:	20001558 	.word	0x20001558
	...

08000960 <chDbgCheckClassS>:
 8000960:	4b05      	ldr	r3, [pc, #20]	; (8000978 <chDbgCheckClassS+0x18>)
 8000962:	6b1a      	ldr	r2, [r3, #48]	; 0x30
 8000964:	b91a      	cbnz	r2, 800096e <chDbgCheckClassS+0xe>
 8000966:	6b5a      	ldr	r2, [r3, #52]	; 0x34
 8000968:	2a00      	cmp	r2, #0
 800096a:	dd00      	ble.n	800096e <chDbgCheckClassS+0xe>
 800096c:	4770      	bx	lr
 800096e:	b672      	cpsid	i
 8000970:	4a02      	ldr	r2, [pc, #8]	; (800097c <chDbgCheckClassS+0x1c>)
 8000972:	62da      	str	r2, [r3, #44]	; 0x2c
 8000974:	e7fe      	b.n	8000974 <chDbgCheckClassS+0x14>
 8000976:	bf00      	nop
 8000978:	20001558 	.word	0x20001558
 800097c:	0800a460 	.word	0x0800a460

08000980 <chDbgCheckClassI>:
 8000980:	4b05      	ldr	r3, [pc, #20]	; (8000998 <chDbgCheckClassI+0x18>)
 8000982:	6b1a      	ldr	r2, [r3, #48]	; 0x30
 8000984:	2a00      	cmp	r2, #0
 8000986:	db03      	blt.n	8000990 <chDbgCheckClassI+0x10>
 8000988:	6b5a      	ldr	r2, [r3, #52]	; 0x34
 800098a:	2a00      	cmp	r2, #0
 800098c:	dd00      	ble.n	8000990 <chDbgCheckClassI+0x10>
 800098e:	4770      	bx	lr
 8000990:	b672      	cpsid	i
 8000992:	4a02      	ldr	r2, [pc, #8]	; (800099c <chDbgCheckClassI+0x1c>)
 8000994:	62da      	str	r2, [r3, #44]	; 0x2c
 8000996:	e7fe      	b.n	8000996 <chDbgCheckClassI+0x16>
 8000998:	20001558 	.word	0x20001558
 800099c:	0800a450 	.word	0x0800a450

080009a0 <usbStartTransmitI>:
 80009a0:	b570      	push	{r4, r5, r6, lr}
 80009a2:	f7ff ffed 	bl	8000980 <chDbgCheckClassI>
 80009a6:	b1f0      	cbz	r0, 80009e6 <usbStartTransmitI+0x46>
 80009a8:	2301      	movs	r3, #1
 80009aa:	fa03 f501 	lsl.w	r5, r3, r1
 80009ae:	8904      	ldrh	r4, [r0, #8]
 80009b0:	b2ad      	uxth	r5, r5
 80009b2:	ea14 0605 	ands.w	r6, r4, r5
 80009b6:	d001      	beq.n	80009bc <usbStartTransmitI+0x1c>
 80009b8:	4618      	mov	r0, r3
 80009ba:	bd70      	pop	{r4, r5, r6, pc}
 80009bc:	008a      	lsls	r2, r1, #2
 80009be:	f102 4280 	add.w	r2, r2, #1073741824	; 0x40000000
 80009c2:	f502 42b8 	add.w	r2, r2, #23552	; 0x5c00
 80009c6:	432c      	orrs	r4, r5
 80009c8:	6813      	ldr	r3, [r2, #0]
 80009ca:	8104      	strh	r4, [r0, #8]
 80009cc:	f423 43f0 	bic.w	r3, r3, #30720	; 0x7800
 80009d0:	f023 0340 	bic.w	r3, r3, #64	; 0x40
 80009d4:	f083 0330 	eor.w	r3, r3, #48	; 0x30
 80009d8:	f443 4300 	orr.w	r3, r3, #32768	; 0x8000
 80009dc:	f043 0380 	orr.w	r3, r3, #128	; 0x80
 80009e0:	4630      	mov	r0, r6
 80009e2:	6013      	str	r3, [r2, #0]
 80009e4:	bd70      	pop	{r4, r5, r6, pc}
 80009e6:	b672      	cpsid	i
 80009e8:	4b01      	ldr	r3, [pc, #4]	; (80009f0 <usbStartTransmitI+0x50>)
 80009ea:	4a02      	ldr	r2, [pc, #8]	; (80009f4 <usbStartTransmitI+0x54>)
 80009ec:	62da      	str	r2, [r3, #44]	; 0x2c
 80009ee:	e7fe      	b.n	80009ee <usbStartTransmitI+0x4e>
 80009f0:	20001558 	.word	0x20001558
 80009f4:	0800a200 	.word	0x0800a200
	...

08000a00 <usbStartReceiveI>:
 8000a00:	b570      	push	{r4, r5, r6, lr}
 8000a02:	f7ff ffbd 	bl	8000980 <chDbgCheckClassI>
 8000a06:	b1f0      	cbz	r0, 8000a46 <usbStartReceiveI+0x46>
 8000a08:	2301      	movs	r3, #1
 8000a0a:	fa03 f501 	lsl.w	r5, r3, r1
 8000a0e:	8944      	ldrh	r4, [r0, #10]
 8000a10:	b2ad      	uxth	r5, r5
 8000a12:	ea14 0605 	ands.w	r6, r4, r5
 8000a16:	d001      	beq.n	8000a1c <usbStartReceiveI+0x1c>
 8000a18:	4618      	mov	r0, r3
 8000a1a:	bd70      	pop	{r4, r5, r6, pc}
 8000a1c:	008a      	lsls	r2, r1, #2
 8000a1e:	f102 4280 	add.w	r2, r2, #1073741824	; 0x40000000
 8000a22:	f502 42b8 	add.w	r2, r2, #23552	; 0x5c00
 8000a26:	432c      	orrs	r4, r5
 8000a28:	6813      	ldr	r3, [r2, #0]
 8000a2a:	8144      	strh	r4, [r0, #10]
 8000a2c:	f423 4390 	bic.w	r3, r3, #18432	; 0x4800
 8000a30:	f023 0370 	bic.w	r3, r3, #112	; 0x70
 8000a34:	f483 5340 	eor.w	r3, r3, #12288	; 0x3000
 8000a38:	f443 4300 	orr.w	r3, r3, #32768	; 0x8000
 8000a3c:	f043 0380 	orr.w	r3, r3, #128	; 0x80
 8000a40:	4630      	mov	r0, r6
 8000a42:	6013      	str	r3, [r2, #0]
 8000a44:	bd70      	pop	{r4, r5, r6, pc}
 8000a46:	b672      	cpsid	i
 8000a48:	4b01      	ldr	r3, [pc, #4]	; (8000a50 <usbStartReceiveI+0x50>)
 8000a4a:	4a02      	ldr	r2, [pc, #8]	; (8000a54 <usbStartReceiveI+0x54>)
 8000a4c:	62da      	str	r2, [r3, #44]	; 0x2c
 8000a4e:	e7fe      	b.n	8000a4e <usbStartReceiveI+0x4e>
 8000a50:	20001558 	.word	0x20001558
 8000a54:	0800a1e0 	.word	0x0800a1e0
	...

08000a60 <chThdCreateI>:
 8000a60:	b5f8      	push	{r3, r4, r5, r6, r7, lr}
 8000a62:	4604      	mov	r4, r0
 8000a64:	461f      	mov	r7, r3
 8000a66:	4610      	mov	r0, r2
 8000a68:	9d06      	ldr	r5, [sp, #24]
 8000a6a:	f7ff ff89 	bl	8000980 <chDbgCheckClassI>
 8000a6e:	2c00      	cmp	r4, #0
 8000a70:	d036      	beq.n	8000ae0 <chThdCreateI+0x80>
 8000a72:	29e7      	cmp	r1, #231	; 0xe7
 8000a74:	d934      	bls.n	8000ae0 <chThdCreateI+0x80>
 8000a76:	287f      	cmp	r0, #127	; 0x7f
 8000a78:	d832      	bhi.n	8000ae0 <chThdCreateI+0x80>
 8000a7a:	3924      	subs	r1, #36	; 0x24
 8000a7c:	1862      	adds	r2, r4, r1
 8000a7e:	60e2      	str	r2, [r4, #12]
 8000a80:	4e1a      	ldr	r6, [pc, #104]	; (8000aec <chThdCreateI+0x8c>)
 8000a82:	5067      	str	r7, [r4, r1]
 8000a84:	491a      	ldr	r1, [pc, #104]	; (8000af0 <chThdCreateI+0x90>)
 8000a86:	6055      	str	r5, [r2, #4]
 8000a88:	6216      	str	r6, [r2, #32]
 8000a8a:	6121      	str	r1, [r4, #16]
 8000a8c:	694d      	ldr	r5, [r1, #20]
 8000a8e:	6420      	str	r0, [r4, #64]	; 0x40
 8000a90:	2300      	movs	r3, #0
 8000a92:	f104 0628 	add.w	r6, r4, #40	; 0x28
 8000a96:	2202      	movs	r2, #2
 8000a98:	2701      	movs	r7, #1
 8000a9a:	60a0      	str	r0, [r4, #8]
 8000a9c:	6165      	str	r5, [r4, #20]
 8000a9e:	8422      	strh	r2, [r4, #32]
 8000aa0:	f884 7022 	strb.w	r7, [r4, #34]	; 0x22
 8000aa4:	e9c4 330e 	strd	r3, r3, [r4, #56]	; 0x38
 8000aa8:	61a3      	str	r3, [r4, #24]
 8000aaa:	f104 022c 	add.w	r2, r4, #44	; 0x2c
 8000aae:	612c      	str	r4, [r5, #16]
 8000ab0:	f104 0c60 	add.w	ip, r4, #96	; 0x60
 8000ab4:	62a6      	str	r6, [r4, #40]	; 0x28
 8000ab6:	f04f 30ff 	mov.w	r0, #4294967295	; 0xffffffff
 8000aba:	2600      	movs	r6, #0
 8000abc:	2700      	movs	r7, #0
 8000abe:	64a0      	str	r0, [r4, #72]	; 0x48
 8000ac0:	e9c4 3313 	strd	r3, r3, [r4, #76]	; 0x4c
 8000ac4:	f104 0048 	add.w	r0, r4, #72	; 0x48
 8000ac8:	6563      	str	r3, [r4, #84]	; 0x54
 8000aca:	e9c4 220b 	strd	r2, r2, [r4, #44]	; 0x2c
 8000ace:	f8c4 c01c 	str.w	ip, [r4, #28]
 8000ad2:	e9c4 6716 	strd	r6, r7, [r4, #88]	; 0x58
 8000ad6:	614c      	str	r4, [r1, #20]
 8000ad8:	f7ff ff12 	bl	8000900 <chTMStartMeasurementX>
 8000adc:	4620      	mov	r0, r4
 8000ade:	bdf8      	pop	{r3, r4, r5, r6, r7, pc}
 8000ae0:	b672      	cpsid	i
 8000ae2:	4b03      	ldr	r3, [pc, #12]	; (8000af0 <chThdCreateI+0x90>)
 8000ae4:	4a03      	ldr	r2, [pc, #12]	; (8000af4 <chThdCreateI+0x94>)
 8000ae6:	62da      	str	r2, [r3, #44]	; 0x2c
 8000ae8:	e7fe      	b.n	8000ae8 <chThdCreateI+0x88>
 8000aea:	bf00      	nop
 8000aec:	08000271 	.word	0x08000271
 8000af0:	20001558 	.word	0x20001558
 8000af4:	08009fd0 	.word	0x08009fd0
	...

08000b00 <chSchReadyI>:
 8000b00:	b508      	push	{r3, lr}
 8000b02:	f7ff ff3d 	bl	8000980 <chDbgCheckClassI>
 8000b06:	b1d0      	cbz	r0, 8000b3e <chSchReadyI+0x3e>
 8000b08:	f890 3020 	ldrb.w	r3, [r0, #32]
 8000b0c:	4601      	mov	r1, r0
 8000b0e:	b18b      	cbz	r3, 8000b34 <chSchReadyI+0x34>
 8000b10:	2b0f      	cmp	r3, #15
 8000b12:	d00f      	beq.n	8000b34 <chSchReadyI+0x34>
 8000b14:	2200      	movs	r2, #0
 8000b16:	4b0c      	ldr	r3, [pc, #48]	; (8000b48 <chSchReadyI+0x48>)
 8000b18:	6880      	ldr	r0, [r0, #8]
 8000b1a:	f881 2020 	strb.w	r2, [r1, #32]
 8000b1e:	681b      	ldr	r3, [r3, #0]
 8000b20:	689a      	ldr	r2, [r3, #8]
 8000b22:	4282      	cmp	r2, r0
 8000b24:	d2fb      	bcs.n	8000b1e <chSchReadyI+0x1e>
 8000b26:	685a      	ldr	r2, [r3, #4]
 8000b28:	4608      	mov	r0, r1
 8000b2a:	e9c1 3200 	strd	r3, r2, [r1]
 8000b2e:	6011      	str	r1, [r2, #0]
 8000b30:	6059      	str	r1, [r3, #4]
 8000b32:	bd08      	pop	{r3, pc}
 8000b34:	b672      	cpsid	i
 8000b36:	4b04      	ldr	r3, [pc, #16]	; (8000b48 <chSchReadyI+0x48>)
 8000b38:	4a04      	ldr	r2, [pc, #16]	; (8000b4c <chSchReadyI+0x4c>)
 8000b3a:	62da      	str	r2, [r3, #44]	; 0x2c
 8000b3c:	e7fe      	b.n	8000b3c <chSchReadyI+0x3c>
 8000b3e:	b672      	cpsid	i
 8000b40:	4b01      	ldr	r3, [pc, #4]	; (8000b48 <chSchReadyI+0x48>)
 8000b42:	4a02      	ldr	r2, [pc, #8]	; (8000b4c <chSchReadyI+0x4c>)
 8000b44:	62da      	str	r2, [r3, #44]	; 0x2c
 8000b46:	e7fe      	b.n	8000b46 <chSchReadyI+0x46>
 8000b48:	20001558 	.word	0x20001558
 8000b4c:	08009f50 	.word	0x08009f50

08000b50 <chIQPutI>:
 8000b50:	b510      	push	{r4, lr}
 8000b52:	f7ff ff15 	bl	8000980 <chDbgCheckClassI>
 8000b56:	f7ff ff13 	bl	8000980 <chDbgCheckClassI>
 8000b5a:	e9d0 2405 	ldrd	r2, r4, [r0, #20]
 8000b5e:	42a2      	cmp	r2, r4
 8000b60:	6883      	ldr	r3, [r0, #8]
 8000b62:	d022      	beq.n	8000baa <chIQPutI+0x5a>
 8000b64:	3301      	adds	r3, #1
 8000b66:	1c54      	adds	r4, r2, #1
 8000b68:	6083      	str	r3, [r0, #8]
 8000b6a:	6144      	str	r4, [r0, #20]
 8000b6c:	7011      	strb	r1, [r2, #0]
 8000b6e:	e9d0 3204 	ldrd	r3, r2, [r0, #16]
 8000b72:	429a      	cmp	r2, r3
 8000b74:	d301      	bcc.n	8000b7a <chIQPutI+0x2a>
 8000b76:	68c3      	ldr	r3, [r0, #12]
 8000b78:	6143      	str	r3, [r0, #20]
 8000b7a:	6803      	ldr	r3, [r0, #0]
 8000b7c:	4298      	cmp	r0, r3
 8000b7e:	d00b      	beq.n	8000b98 <chIQPutI+0x48>
 8000b80:	681a      	ldr	r2, [r3, #0]
 8000b82:	6002      	str	r2, [r0, #0]
 8000b84:	6050      	str	r0, [r2, #4]
 8000b86:	f893 2020 	ldrb.w	r2, [r3, #32]
 8000b8a:	2a04      	cmp	r2, #4
 8000b8c:	d006      	beq.n	8000b9c <chIQPutI+0x4c>
 8000b8e:	b672      	cpsid	i
 8000b90:	4b08      	ldr	r3, [pc, #32]	; (8000bb4 <chIQPutI+0x64>)
 8000b92:	4a09      	ldr	r2, [pc, #36]	; (8000bb8 <chIQPutI+0x68>)
 8000b94:	62da      	str	r2, [r3, #44]	; 0x2c
 8000b96:	e7fe      	b.n	8000b96 <chIQPutI+0x46>
 8000b98:	2000      	movs	r0, #0
 8000b9a:	bd10      	pop	{r4, pc}
 8000b9c:	2400      	movs	r4, #0
 8000b9e:	625c      	str	r4, [r3, #36]	; 0x24
 8000ba0:	4618      	mov	r0, r3
 8000ba2:	f7ff ffad 	bl	8000b00 <chSchReadyI>
 8000ba6:	4620      	mov	r0, r4
 8000ba8:	bd10      	pop	{r4, pc}
 8000baa:	2b00      	cmp	r3, #0
 8000bac:	d0da      	beq.n	8000b64 <chIQPutI+0x14>
 8000bae:	f06f 0003 	mvn.w	r0, #3
 8000bb2:	bd10      	pop	{r4, pc}
 8000bb4:	20001558 	.word	0x20001558
 8000bb8:	08009ef0 	.word	0x08009ef0
 8000bbc:	00000000 	.word	0x00000000

08000bc0 <chOQGetI.constprop.29>:
 8000bc0:	b538      	push	{r3, r4, r5, lr}
 8000bc2:	f7ff fedd 	bl	8000980 <chDbgCheckClassI>
 8000bc6:	f7ff fedb 	bl	8000980 <chDbgCheckClassI>
 8000bca:	4b15      	ldr	r3, [pc, #84]	; (8000c20 <chOQGetI.constprop.29+0x60>)
 8000bcc:	e9d3 0105 	ldrd	r0, r1, [r3, #20]
 8000bd0:	4288      	cmp	r0, r1
 8000bd2:	689a      	ldr	r2, [r3, #8]
 8000bd4:	d01e      	beq.n	8000c14 <chOQGetI.constprop.29+0x54>
 8000bd6:	691d      	ldr	r5, [r3, #16]
 8000bd8:	1c48      	adds	r0, r1, #1
 8000bda:	3201      	adds	r2, #1
 8000bdc:	609a      	str	r2, [r3, #8]
 8000bde:	6198      	str	r0, [r3, #24]
 8000be0:	42a8      	cmp	r0, r5
 8000be2:	780c      	ldrb	r4, [r1, #0]
 8000be4:	d301      	bcc.n	8000bea <chOQGetI.constprop.29+0x2a>
 8000be6:	68da      	ldr	r2, [r3, #12]
 8000be8:	619a      	str	r2, [r3, #24]
 8000bea:	6818      	ldr	r0, [r3, #0]
 8000bec:	4298      	cmp	r0, r3
 8000bee:	d00f      	beq.n	8000c10 <chOQGetI.constprop.29+0x50>
 8000bf0:	6802      	ldr	r2, [r0, #0]
 8000bf2:	601a      	str	r2, [r3, #0]
 8000bf4:	6053      	str	r3, [r2, #4]
 8000bf6:	f890 3020 	ldrb.w	r3, [r0, #32]
 8000bfa:	2b04      	cmp	r3, #4
 8000bfc:	d004      	beq.n	8000c08 <chOQGetI.constprop.29+0x48>
 8000bfe:	b672      	cpsid	i
 8000c00:	4b08      	ldr	r3, [pc, #32]	; (8000c24 <chOQGetI.constprop.29+0x64>)
 8000c02:	4a09      	ldr	r2, [pc, #36]	; (8000c28 <chOQGetI.constprop.29+0x68>)
 8000c04:	62da      	str	r2, [r3, #44]	; 0x2c
 8000c06:	e7fe      	b.n	8000c06 <chOQGetI.constprop.29+0x46>
 8000c08:	2300      	movs	r3, #0
 8000c0a:	6243      	str	r3, [r0, #36]	; 0x24
 8000c0c:	f7ff ff78 	bl	8000b00 <chSchReadyI>
 8000c10:	4620      	mov	r0, r4
 8000c12:	bd38      	pop	{r3, r4, r5, pc}
 8000c14:	2a00      	cmp	r2, #0
 8000c16:	d0de      	beq.n	8000bd6 <chOQGetI.constprop.29+0x16>
 8000c18:	f06f 0002 	mvn.w	r0, #2
 8000c1c:	bd38      	pop	{r3, r4, r5, pc}
 8000c1e:	bf00      	nop
 8000c20:	20000cac 	.word	0x20000cac
 8000c24:	20001558 	.word	0x20001558
 8000c28:	08009ef0 	.word	0x08009ef0
 8000c2c:	00000000 	.word	0x00000000

08000c30 <chEvtSignalI>:
 8000c30:	b508      	push	{r3, lr}
 8000c32:	f7ff fea5 	bl	8000980 <chDbgCheckClassI>
 8000c36:	b1b0      	cbz	r0, 8000c66 <chEvtSignalI+0x36>
 8000c38:	6b83      	ldr	r3, [r0, #56]	; 0x38
 8000c3a:	f890 2020 	ldrb.w	r2, [r0, #32]
 8000c3e:	430b      	orrs	r3, r1
 8000c40:	2a0a      	cmp	r2, #10
 8000c42:	6383      	str	r3, [r0, #56]	; 0x38
 8000c44:	d006      	beq.n	8000c54 <chEvtSignalI+0x24>
 8000c46:	2a0b      	cmp	r2, #11
 8000c48:	d103      	bne.n	8000c52 <chEvtSignalI+0x22>
 8000c4a:	6a42      	ldr	r2, [r0, #36]	; 0x24
 8000c4c:	ea32 0303 	bics.w	r3, r2, r3
 8000c50:	d003      	beq.n	8000c5a <chEvtSignalI+0x2a>
 8000c52:	bd08      	pop	{r3, pc}
 8000c54:	6a42      	ldr	r2, [r0, #36]	; 0x24
 8000c56:	4213      	tst	r3, r2
 8000c58:	d0fb      	beq.n	8000c52 <chEvtSignalI+0x22>
 8000c5a:	2300      	movs	r3, #0
 8000c5c:	6243      	str	r3, [r0, #36]	; 0x24
 8000c5e:	e8bd 4008 	ldmia.w	sp!, {r3, lr}
 8000c62:	f7ff bf4d 	b.w	8000b00 <chSchReadyI>
 8000c66:	b672      	cpsid	i
 8000c68:	4b01      	ldr	r3, [pc, #4]	; (8000c70 <chEvtSignalI+0x40>)
 8000c6a:	4a02      	ldr	r2, [pc, #8]	; (8000c74 <chEvtSignalI+0x44>)
 8000c6c:	62da      	str	r2, [r3, #44]	; 0x2c
 8000c6e:	e7fe      	b.n	8000c6e <chEvtSignalI+0x3e>
 8000c70:	20001558 	.word	0x20001558
 8000c74:	0800a0e0 	.word	0x0800a0e0
	...

08000c80 <chEvtBroadcastFlagsI>:
 8000c80:	b570      	push	{r4, r5, r6, lr}
 8000c82:	f7ff fe7d 	bl	8000980 <chDbgCheckClassI>
 8000c86:	6804      	ldr	r4, [r0, #0]
 8000c88:	42a0      	cmp	r0, r4
 8000c8a:	d00f      	beq.n	8000cac <chEvtBroadcastFlagsI+0x2c>
 8000c8c:	4605      	mov	r5, r0
 8000c8e:	460e      	mov	r6, r1
 8000c90:	68e3      	ldr	r3, [r4, #12]
 8000c92:	4333      	orrs	r3, r6
 8000c94:	60e3      	str	r3, [r4, #12]
 8000c96:	b116      	cbz	r6, 8000c9e <chEvtBroadcastFlagsI+0x1e>
 8000c98:	6922      	ldr	r2, [r4, #16]
 8000c9a:	4213      	tst	r3, r2
 8000c9c:	d003      	beq.n	8000ca6 <chEvtBroadcastFlagsI+0x26>
 8000c9e:	e9d4 0101 	ldrd	r0, r1, [r4, #4]
 8000ca2:	f7ff ffc5 	bl	8000c30 <chEvtSignalI>
 8000ca6:	6824      	ldr	r4, [r4, #0]
 8000ca8:	42a5      	cmp	r5, r4
 8000caa:	d1f1      	bne.n	8000c90 <chEvtBroadcastFlagsI+0x10>
 8000cac:	bd70      	pop	{r4, r5, r6, pc}
 8000cae:	bf00      	nop

08000cb0 <chMtxUnlockS>:
 8000cb0:	b570      	push	{r4, r5, r6, lr}
 8000cb2:	f7ff fe55 	bl	8000960 <chDbgCheckClassS>
 8000cb6:	b190      	cbz	r0, 8000cde <chMtxUnlockS+0x2e>
 8000cb8:	4b20      	ldr	r3, [pc, #128]	; (8000d3c <chMtxUnlockS+0x8c>)
 8000cba:	699d      	ldr	r5, [r3, #24]
 8000cbc:	6bee      	ldr	r6, [r5, #60]	; 0x3c
 8000cbe:	2e00      	cmp	r6, #0
 8000cc0:	d037      	beq.n	8000d32 <chMtxUnlockS+0x82>
 8000cc2:	68b2      	ldr	r2, [r6, #8]
 8000cc4:	42aa      	cmp	r2, r5
 8000cc6:	d003      	beq.n	8000cd0 <chMtxUnlockS+0x20>
 8000cc8:	b672      	cpsid	i
 8000cca:	4a1d      	ldr	r2, [pc, #116]	; (8000d40 <chMtxUnlockS+0x90>)
 8000ccc:	62da      	str	r2, [r3, #44]	; 0x2c
 8000cce:	e7fe      	b.n	8000cce <chMtxUnlockS+0x1e>
 8000cd0:	4286      	cmp	r6, r0
 8000cd2:	4601      	mov	r1, r0
 8000cd4:	d008      	beq.n	8000ce8 <chMtxUnlockS+0x38>
 8000cd6:	b672      	cpsid	i
 8000cd8:	4a19      	ldr	r2, [pc, #100]	; (8000d40 <chMtxUnlockS+0x90>)
 8000cda:	62da      	str	r2, [r3, #44]	; 0x2c
 8000cdc:	e7fe      	b.n	8000cdc <chMtxUnlockS+0x2c>
 8000cde:	b672      	cpsid	i
 8000ce0:	4b16      	ldr	r3, [pc, #88]	; (8000d3c <chMtxUnlockS+0x8c>)
 8000ce2:	4a17      	ldr	r2, [pc, #92]	; (8000d40 <chMtxUnlockS+0x90>)
 8000ce4:	62da      	str	r2, [r3, #44]	; 0x2c
 8000ce6:	e7fe      	b.n	8000ce6 <chMtxUnlockS+0x36>
 8000ce8:	68c0      	ldr	r0, [r0, #12]
 8000cea:	63e8      	str	r0, [r5, #60]	; 0x3c
 8000cec:	f7ff fe38 	bl	8000960 <chDbgCheckClassS>
 8000cf0:	680c      	ldr	r4, [r1, #0]
 8000cf2:	42a1      	cmp	r1, r4
 8000cf4:	d01a      	beq.n	8000d2c <chMtxUnlockS+0x7c>
 8000cf6:	6c2e      	ldr	r6, [r5, #64]	; 0x40
 8000cf8:	b158      	cbz	r0, 8000d12 <chMtxUnlockS+0x62>
 8000cfa:	f7ff fe31 	bl	8000960 <chDbgCheckClassS>
 8000cfe:	6803      	ldr	r3, [r0, #0]
 8000d00:	4298      	cmp	r0, r3
 8000d02:	d003      	beq.n	8000d0c <chMtxUnlockS+0x5c>
 8000d04:	689b      	ldr	r3, [r3, #8]
 8000d06:	429e      	cmp	r6, r3
 8000d08:	bf38      	it	cc
 8000d0a:	461e      	movcc	r6, r3
 8000d0c:	68c0      	ldr	r0, [r0, #12]
 8000d0e:	2800      	cmp	r0, #0
 8000d10:	d1f3      	bne.n	8000cfa <chMtxUnlockS+0x4a>
 8000d12:	6be2      	ldr	r2, [r4, #60]	; 0x3c
 8000d14:	6823      	ldr	r3, [r4, #0]
 8000d16:	60ae      	str	r6, [r5, #8]
 8000d18:	4620      	mov	r0, r4
 8000d1a:	600b      	str	r3, [r1, #0]
 8000d1c:	6059      	str	r1, [r3, #4]
 8000d1e:	e9c1 4202 	strd	r4, r2, [r1, #8]
 8000d22:	63e1      	str	r1, [r4, #60]	; 0x3c
 8000d24:	e8bd 4070 	ldmia.w	sp!, {r4, r5, r6, lr}
 8000d28:	f7ff beea 	b.w	8000b00 <chSchReadyI>
 8000d2c:	2300      	movs	r3, #0
 8000d2e:	60b3      	str	r3, [r6, #8]
 8000d30:	bd70      	pop	{r4, r5, r6, pc}
 8000d32:	b672      	cpsid	i
 8000d34:	4a02      	ldr	r2, [pc, #8]	; (8000d40 <chMtxUnlockS+0x90>)
 8000d36:	62da      	str	r2, [r3, #44]	; 0x2c
 8000d38:	e7fe      	b.n	8000d38 <chMtxUnlockS+0x88>
 8000d3a:	bf00      	nop
 8000d3c:	20001558 	.word	0x20001558
 8000d40:	0800a0b0 	.word	0x0800a0b0
	...

08000d50 <chSemSignalI>:
 8000d50:	b508      	push	{r3, lr}
 8000d52:	f7ff fe15 	bl	8000980 <chDbgCheckClassI>
 8000d56:	b188      	cbz	r0, 8000d7c <chSemSignalI+0x2c>
 8000d58:	6882      	ldr	r2, [r0, #8]
 8000d5a:	6803      	ldr	r3, [r0, #0]
 8000d5c:	2a00      	cmp	r2, #0
 8000d5e:	db06      	blt.n	8000d6e <chSemSignalI+0x1e>
 8000d60:	4283      	cmp	r3, r0
 8000d62:	d006      	beq.n	8000d72 <chSemSignalI+0x22>
 8000d64:	b672      	cpsid	i
 8000d66:	4b0d      	ldr	r3, [pc, #52]	; (8000d9c <chSemSignalI+0x4c>)
 8000d68:	4a0d      	ldr	r2, [pc, #52]	; (8000da0 <chSemSignalI+0x50>)
 8000d6a:	62da      	str	r2, [r3, #44]	; 0x2c
 8000d6c:	e7fe      	b.n	8000d6c <chSemSignalI+0x1c>
 8000d6e:	4283      	cmp	r3, r0
 8000d70:	d0f8      	beq.n	8000d64 <chSemSignalI+0x14>
 8000d72:	3201      	adds	r2, #1
 8000d74:	2a00      	cmp	r2, #0
 8000d76:	6082      	str	r2, [r0, #8]
 8000d78:	dd05      	ble.n	8000d86 <chSemSignalI+0x36>
 8000d7a:	bd08      	pop	{r3, pc}
 8000d7c:	b672      	cpsid	i
 8000d7e:	4b07      	ldr	r3, [pc, #28]	; (8000d9c <chSemSignalI+0x4c>)
 8000d80:	4a07      	ldr	r2, [pc, #28]	; (8000da0 <chSemSignalI+0x50>)
 8000d82:	62da      	str	r2, [r3, #44]	; 0x2c
 8000d84:	e7fe      	b.n	8000d84 <chSemSignalI+0x34>
 8000d86:	681a      	ldr	r2, [r3, #0]
 8000d88:	6002      	str	r2, [r0, #0]
 8000d8a:	2100      	movs	r1, #0
 8000d8c:	6050      	str	r0, [r2, #4]
 8000d8e:	4618      	mov	r0, r3
 8000d90:	6259      	str	r1, [r3, #36]	; 0x24
 8000d92:	e8bd 4008 	ldmia.w	sp!, {r3, lr}
 8000d96:	f7ff beb3 	b.w	8000b00 <chSchReadyI>
 8000d9a:	bf00      	nop
 8000d9c:	20001558 	.word	0x20001558
 8000da0:	0800a0a0 	.word	0x0800a0a0
	...

08000db0 <chMBFetchI.constprop.30>:
 8000db0:	b510      	push	{r4, lr}
 8000db2:	490f      	ldr	r1, [pc, #60]	; (8000df0 <chMBFetchI.constprop.30+0x40>)
 8000db4:	f7ff fde4 	bl	8000980 <chDbgCheckClassI>
 8000db8:	f7ff fde2 	bl	8000980 <chDbgCheckClassI>
 8000dbc:	698c      	ldr	r4, [r1, #24]
 8000dbe:	2c00      	cmp	r4, #0
 8000dc0:	dd13      	ble.n	8000dea <chMBFetchI.constprop.30+0x3a>
 8000dc2:	f7ff fddd 	bl	8000980 <chDbgCheckClassI>
 8000dc6:	3c01      	subs	r4, #1
 8000dc8:	68cb      	ldr	r3, [r1, #12]
 8000dca:	618c      	str	r4, [r1, #24]
 8000dcc:	684a      	ldr	r2, [r1, #4]
 8000dce:	681c      	ldr	r4, [r3, #0]
 8000dd0:	3304      	adds	r3, #4
 8000dd2:	4293      	cmp	r3, r2
 8000dd4:	60cb      	str	r3, [r1, #12]
 8000dd6:	6004      	str	r4, [r0, #0]
 8000dd8:	bf28      	it	cs
 8000dda:	680b      	ldrcs	r3, [r1, #0]
 8000ddc:	4805      	ldr	r0, [pc, #20]	; (8000df4 <chMBFetchI.constprop.30+0x44>)
 8000dde:	bf28      	it	cs
 8000de0:	60cb      	strcs	r3, [r1, #12]
 8000de2:	f7ff ffb5 	bl	8000d50 <chSemSignalI>
 8000de6:	2000      	movs	r0, #0
 8000de8:	e001      	b.n	8000dee <chMBFetchI.constprop.30+0x3e>
 8000dea:	f04f 30ff 	mov.w	r0, #4294967295	; 0xffffffff
 8000dee:	bd10      	pop	{r4, pc}
 8000df0:	20000c78 	.word	0x20000c78
 8000df4:	20000c94 	.word	0x20000c94
	...

08000e00 <chSemResetI>:
 8000e00:	b570      	push	{r4, r5, r6, lr}
 8000e02:	f7ff fdbd 	bl	8000980 <chDbgCheckClassI>
 8000e06:	2900      	cmp	r1, #0
 8000e08:	db1e      	blt.n	8000e48 <chSemResetI+0x48>
 8000e0a:	6885      	ldr	r5, [r0, #8]
 8000e0c:	6803      	ldr	r3, [r0, #0]
 8000e0e:	2d00      	cmp	r5, #0
 8000e10:	4604      	mov	r4, r0
 8000e12:	db06      	blt.n	8000e22 <chSemResetI+0x22>
 8000e14:	4298      	cmp	r0, r3
 8000e16:	d006      	beq.n	8000e26 <chSemResetI+0x26>
 8000e18:	b672      	cpsid	i
 8000e1a:	4b0e      	ldr	r3, [pc, #56]	; (8000e54 <chSemResetI+0x54>)
 8000e1c:	4a0e      	ldr	r2, [pc, #56]	; (8000e58 <chSemResetI+0x58>)
 8000e1e:	62da      	str	r2, [r3, #44]	; 0x2c
 8000e20:	e7fe      	b.n	8000e20 <chSemResetI+0x20>
 8000e22:	4298      	cmp	r0, r3
 8000e24:	d0f8      	beq.n	8000e18 <chSemResetI+0x18>
 8000e26:	3501      	adds	r5, #1
 8000e28:	2d00      	cmp	r5, #0
 8000e2a:	60a1      	str	r1, [r4, #8]
 8000e2c:	dc0b      	bgt.n	8000e46 <chSemResetI+0x46>
 8000e2e:	f06f 0601 	mvn.w	r6, #1
 8000e32:	6860      	ldr	r0, [r4, #4]
 8000e34:	6843      	ldr	r3, [r0, #4]
 8000e36:	6063      	str	r3, [r4, #4]
 8000e38:	601c      	str	r4, [r3, #0]
 8000e3a:	f7ff fe61 	bl	8000b00 <chSchReadyI>
 8000e3e:	3501      	adds	r5, #1
 8000e40:	2d01      	cmp	r5, #1
 8000e42:	6246      	str	r6, [r0, #36]	; 0x24
 8000e44:	d1f5      	bne.n	8000e32 <chSemResetI+0x32>
 8000e46:	bd70      	pop	{r4, r5, r6, pc}
 8000e48:	b672      	cpsid	i
 8000e4a:	4b02      	ldr	r3, [pc, #8]	; (8000e54 <chSemResetI+0x54>)
 8000e4c:	4a02      	ldr	r2, [pc, #8]	; (8000e58 <chSemResetI+0x58>)
 8000e4e:	62da      	str	r2, [r3, #44]	; 0x2c
 8000e50:	e7fe      	b.n	8000e50 <chSemResetI+0x50>
 8000e52:	bf00      	nop
 8000e54:	20001558 	.word	0x20001558
 8000e58:	08009fa0 	.word	0x08009fa0
 8000e5c:	00000000 	.word	0x00000000

08000e60 <chThdDequeueAllI>:
 8000e60:	b538      	push	{r3, r4, r5, lr}
 8000e62:	4604      	mov	r4, r0
 8000e64:	6800      	ldr	r0, [r0, #0]
 8000e66:	4284      	cmp	r4, r0
 8000e68:	d00b      	beq.n	8000e82 <chThdDequeueAllI+0x22>
 8000e6a:	6802      	ldr	r2, [r0, #0]
 8000e6c:	6022      	str	r2, [r4, #0]
 8000e6e:	6054      	str	r4, [r2, #4]
 8000e70:	f890 2020 	ldrb.w	r2, [r0, #32]
 8000e74:	2a04      	cmp	r2, #4
 8000e76:	d005      	beq.n	8000e84 <chThdDequeueAllI+0x24>
 8000e78:	b672      	cpsid	i
 8000e7a:	4b0a      	ldr	r3, [pc, #40]	; (8000ea4 <chThdDequeueAllI+0x44>)
 8000e7c:	4a0a      	ldr	r2, [pc, #40]	; (8000ea8 <chThdDequeueAllI+0x48>)
 8000e7e:	62da      	str	r2, [r3, #44]	; 0x2c
 8000e80:	e7fe      	b.n	8000e80 <chThdDequeueAllI+0x20>
 8000e82:	bd38      	pop	{r3, r4, r5, pc}
 8000e84:	460d      	mov	r5, r1
 8000e86:	6245      	str	r5, [r0, #36]	; 0x24
 8000e88:	f7ff fe3a 	bl	8000b00 <chSchReadyI>
 8000e8c:	6820      	ldr	r0, [r4, #0]
 8000e8e:	4284      	cmp	r4, r0
 8000e90:	d0f7      	beq.n	8000e82 <chThdDequeueAllI+0x22>
 8000e92:	6803      	ldr	r3, [r0, #0]
 8000e94:	6023      	str	r3, [r4, #0]
 8000e96:	605c      	str	r4, [r3, #4]
 8000e98:	f890 3020 	ldrb.w	r3, [r0, #32]
 8000e9c:	2b04      	cmp	r3, #4
 8000e9e:	d1eb      	bne.n	8000e78 <chThdDequeueAllI+0x18>
 8000ea0:	e7f1      	b.n	8000e86 <chThdDequeueAllI+0x26>
 8000ea2:	bf00      	nop
 8000ea4:	20001558 	.word	0x20001558
 8000ea8:	08009ef0 	.word	0x08009ef0
 8000eac:	00000000 	.word	0x00000000

08000eb0 <chVTDoResetI>:
 8000eb0:	b510      	push	{r4, lr}
 8000eb2:	f7ff fd65 	bl	8000980 <chDbgCheckClassI>
 8000eb6:	68c3      	ldr	r3, [r0, #12]
 8000eb8:	2b00      	cmp	r3, #0
 8000eba:	d02f      	beq.n	8000f1c <chVTDoResetI+0x6c>
 8000ebc:	4a1c      	ldr	r2, [pc, #112]	; (8000f30 <chVTDoResetI+0x80>)
 8000ebe:	69d3      	ldr	r3, [r2, #28]
 8000ec0:	4283      	cmp	r3, r0
 8000ec2:	d00e      	beq.n	8000ee2 <chVTDoResetI+0x32>
 8000ec4:	e9d0 3100 	ldrd	r3, r1, [r0]
 8000ec8:	600b      	str	r3, [r1, #0]
 8000eca:	6803      	ldr	r3, [r0, #0]
 8000ecc:	321c      	adds	r2, #28
 8000ece:	2400      	movs	r4, #0
 8000ed0:	4293      	cmp	r3, r2
 8000ed2:	6059      	str	r1, [r3, #4]
 8000ed4:	60c4      	str	r4, [r0, #12]
 8000ed6:	d003      	beq.n	8000ee0 <chVTDoResetI+0x30>
 8000ed8:	6881      	ldr	r1, [r0, #8]
 8000eda:	689a      	ldr	r2, [r3, #8]
 8000edc:	440a      	add	r2, r1
 8000ede:	609a      	str	r2, [r3, #8]
 8000ee0:	bd10      	pop	{r4, pc}
 8000ee2:	4610      	mov	r0, r2
 8000ee4:	6819      	ldr	r1, [r3, #0]
 8000ee6:	f840 1f1c 	str.w	r1, [r0, #28]!
 8000eea:	2400      	movs	r4, #0
 8000eec:	4281      	cmp	r1, r0
 8000eee:	6048      	str	r0, [r1, #4]
 8000ef0:	60dc      	str	r4, [r3, #12]
 8000ef2:	d018      	beq.n	8000f26 <chVTDoResetI+0x76>
 8000ef4:	6898      	ldr	r0, [r3, #8]
 8000ef6:	688b      	ldr	r3, [r1, #8]
 8000ef8:	6a92      	ldr	r2, [r2, #40]	; 0x28
 8000efa:	4403      	add	r3, r0
 8000efc:	f04f 4080 	mov.w	r0, #1073741824	; 0x40000000
 8000f00:	608b      	str	r3, [r1, #8]
 8000f02:	6a40      	ldr	r0, [r0, #36]	; 0x24
 8000f04:	1a82      	subs	r2, r0, r2
 8000f06:	4293      	cmp	r3, r2
 8000f08:	d9ea      	bls.n	8000ee0 <chVTDoResetI+0x30>
 8000f0a:	1a9b      	subs	r3, r3, r2
 8000f0c:	2b02      	cmp	r3, #2
 8000f0e:	bf2c      	ite	cs
 8000f10:	18c0      	addcs	r0, r0, r3
 8000f12:	3002      	addcc	r0, #2
 8000f14:	e8bd 4010 	ldmia.w	sp!, {r4, lr}
 8000f18:	f7ff bc3a 	b.w	8000790 <stSetAlarm>
 8000f1c:	b672      	cpsid	i
 8000f1e:	4b04      	ldr	r3, [pc, #16]	; (8000f30 <chVTDoResetI+0x80>)
 8000f20:	4a04      	ldr	r2, [pc, #16]	; (8000f34 <chVTDoResetI+0x84>)
 8000f22:	62da      	str	r2, [r3, #44]	; 0x2c
 8000f24:	e7fe      	b.n	8000f24 <chVTDoResetI+0x74>
 8000f26:	f04f 4380 	mov.w	r3, #1073741824	; 0x40000000
 8000f2a:	60dc      	str	r4, [r3, #12]
 8000f2c:	bd10      	pop	{r4, pc}
 8000f2e:	bf00      	nop
 8000f30:	20001558 	.word	0x20001558
 8000f34:	08009fc0 	.word	0x08009fc0
	...

08000f40 <chVTDoSetI>:
 8000f40:	b5f8      	push	{r3, r4, r5, r6, r7, lr}
 8000f42:	4604      	mov	r4, r0
 8000f44:	4617      	mov	r7, r2
 8000f46:	4618      	mov	r0, r3
 8000f48:	f7ff fd1a 	bl	8000980 <chDbgCheckClassI>
 8000f4c:	b361      	cbz	r1, 8000fa8 <chVTDoSetI+0x68>
 8000f4e:	4d23      	ldr	r5, [pc, #140]	; (8000fdc <chVTDoSetI+0x9c>)
 8000f50:	6120      	str	r0, [r4, #16]
 8000f52:	46ac      	mov	ip, r5
 8000f54:	2902      	cmp	r1, #2
 8000f56:	f85c 6f1c 	ldr.w	r6, [ip, #28]!
 8000f5a:	60e7      	str	r7, [r4, #12]
 8000f5c:	f04f 4080 	mov.w	r0, #1073741824	; 0x40000000
 8000f60:	460b      	mov	r3, r1
 8000f62:	bf38      	it	cc
 8000f64:	2302      	movcc	r3, #2
 8000f66:	4566      	cmp	r6, ip
 8000f68:	6a47      	ldr	r7, [r0, #36]	; 0x24
 8000f6a:	d022      	beq.n	8000fb2 <chVTDoSetI+0x72>
 8000f6c:	6aa9      	ldr	r1, [r5, #40]	; 0x28
 8000f6e:	68b2      	ldr	r2, [r6, #8]
 8000f70:	19d8      	adds	r0, r3, r7
 8000f72:	1a41      	subs	r1, r0, r1
 8000f74:	428a      	cmp	r2, r1
 8000f76:	d901      	bls.n	8000f7c <chVTDoSetI+0x3c>
 8000f78:	f7ff fc0a 	bl	8000790 <stSetAlarm>
 8000f7c:	69eb      	ldr	r3, [r5, #28]
 8000f7e:	689a      	ldr	r2, [r3, #8]
 8000f80:	4291      	cmp	r1, r2
 8000f82:	d904      	bls.n	8000f8e <chVTDoSetI+0x4e>
 8000f84:	681b      	ldr	r3, [r3, #0]
 8000f86:	1a89      	subs	r1, r1, r2
 8000f88:	689a      	ldr	r2, [r3, #8]
 8000f8a:	428a      	cmp	r2, r1
 8000f8c:	d3fa      	bcc.n	8000f84 <chVTDoSetI+0x44>
 8000f8e:	685a      	ldr	r2, [r3, #4]
 8000f90:	e9c4 3200 	strd	r3, r2, [r4]
 8000f94:	6014      	str	r4, [r2, #0]
 8000f96:	605c      	str	r4, [r3, #4]
 8000f98:	60a1      	str	r1, [r4, #8]
 8000f9a:	689a      	ldr	r2, [r3, #8]
 8000f9c:	f04f 30ff 	mov.w	r0, #4294967295	; 0xffffffff
 8000fa0:	1a52      	subs	r2, r2, r1
 8000fa2:	609a      	str	r2, [r3, #8]
 8000fa4:	6268      	str	r0, [r5, #36]	; 0x24
 8000fa6:	e013      	b.n	8000fd0 <chVTDoSetI+0x90>
 8000fa8:	b672      	cpsid	i
 8000faa:	4b0c      	ldr	r3, [pc, #48]	; (8000fdc <chVTDoSetI+0x9c>)
 8000fac:	4a0c      	ldr	r2, [pc, #48]	; (8000fe0 <chVTDoSetI+0xa0>)
 8000fae:	62da      	str	r2, [r3, #44]	; 0x2c
 8000fb0:	e7fe      	b.n	8000fb0 <chVTDoSetI+0x70>
 8000fb2:	62af      	str	r7, [r5, #40]	; 0x28
 8000fb4:	e9c5 4407 	strd	r4, r4, [r5, #28]
 8000fb8:	60a3      	str	r3, [r4, #8]
 8000fba:	68c2      	ldr	r2, [r0, #12]
 8000fbc:	f012 0202 	ands.w	r2, r2, #2
 8000fc0:	e9c4 6600 	strd	r6, r6, [r4]
 8000fc4:	443b      	add	r3, r7
 8000fc6:	d104      	bne.n	8000fd2 <chVTDoSetI+0x92>
 8000fc8:	2102      	movs	r1, #2
 8000fca:	6343      	str	r3, [r0, #52]	; 0x34
 8000fcc:	6102      	str	r2, [r0, #16]
 8000fce:	60c1      	str	r1, [r0, #12]
 8000fd0:	bdf8      	pop	{r3, r4, r5, r6, r7, pc}
 8000fd2:	b672      	cpsid	i
 8000fd4:	4b03      	ldr	r3, [pc, #12]	; (8000fe4 <chVTDoSetI+0xa4>)
 8000fd6:	62eb      	str	r3, [r5, #44]	; 0x2c
 8000fd8:	e7fe      	b.n	8000fd8 <chVTDoSetI+0x98>
 8000fda:	bf00      	nop
 8000fdc:	20001558 	.word	0x20001558
 8000fe0:	08009f80 	.word	0x08009f80
 8000fe4:	0800a170 	.word	0x0800a170
	...

08000ff0 <_dbg_check_leave_isr>:
 8000ff0:	2320      	movs	r3, #32
 8000ff2:	f383 8811 	msr	BASEPRI, r3
 8000ff6:	4b07      	ldr	r3, [pc, #28]	; (8001014 <_dbg_check_leave_isr+0x24>)
 8000ff8:	6b1a      	ldr	r2, [r3, #48]	; 0x30
 8000ffa:	2a00      	cmp	r2, #0
 8000ffc:	dd01      	ble.n	8001002 <_dbg_check_leave_isr+0x12>
 8000ffe:	6b59      	ldr	r1, [r3, #52]	; 0x34
 8001000:	b119      	cbz	r1, 800100a <_dbg_check_leave_isr+0x1a>
 8001002:	b672      	cpsid	i
 8001004:	4a04      	ldr	r2, [pc, #16]	; (8001018 <_dbg_check_leave_isr+0x28>)
 8001006:	62da      	str	r2, [r3, #44]	; 0x2c
 8001008:	e7fe      	b.n	8001008 <_dbg_check_leave_isr+0x18>
 800100a:	3a01      	subs	r2, #1
 800100c:	631a      	str	r2, [r3, #48]	; 0x30
 800100e:	f381 8811 	msr	BASEPRI, r1
 8001012:	4770      	bx	lr
 8001014:	20001558 	.word	0x20001558
 8001018:	0800a260 	.word	0x0800a260
 800101c:	00000000 	.word	0x00000000

08001020 <_dbg_check_enter_isr>:
 8001020:	2320      	movs	r3, #32
 8001022:	f383 8811 	msr	BASEPRI, r3
 8001026:	4b07      	ldr	r3, [pc, #28]	; (8001044 <_dbg_check_enter_isr+0x24>)
 8001028:	6b1a      	ldr	r2, [r3, #48]	; 0x30
 800102a:	2a00      	cmp	r2, #0
 800102c:	db01      	blt.n	8001032 <_dbg_check_enter_isr+0x12>
 800102e:	6b59      	ldr	r1, [r3, #52]	; 0x34
 8001030:	b119      	cbz	r1, 800103a <_dbg_check_enter_isr+0x1a>
 8001032:	b672      	cpsid	i
 8001034:	4a04      	ldr	r2, [pc, #16]	; (8001048 <_dbg_check_enter_isr+0x28>)
 8001036:	62da      	str	r2, [r3, #44]	; 0x2c
 8001038:	e7fe      	b.n	8001038 <_dbg_check_enter_isr+0x18>
 800103a:	3201      	adds	r2, #1
 800103c:	631a      	str	r2, [r3, #48]	; 0x30
 800103e:	f381 8811 	msr	BASEPRI, r1
 8001042:	4770      	bx	lr
 8001044:	20001558 	.word	0x20001558
 8001048:	0800a250 	.word	0x0800a250
 800104c:	00000000 	.word	0x00000000

08001050 <Vector168>:
 8001050:	b508      	push	{r3, lr}
 8001052:	4a07      	ldr	r2, [pc, #28]	; (8001070 <Vector168+0x20>)
 8001054:	f8d2 34a8 	ldr.w	r3, [r2, #1192]	; 0x4a8
 8001058:	3301      	adds	r3, #1
 800105a:	f8c2 34a8 	str.w	r3, [r2, #1192]	; 0x4a8
 800105e:	f7ff ffdf 	bl	8001020 <_dbg_check_enter_isr>
 8001062:	f7ff ffc5 	bl	8000ff0 <_dbg_check_leave_isr>
 8001066:	e8bd 4008 	ldmia.w	sp!, {r3, lr}
 800106a:	f7ff bba1 	b.w	80007b0 <_port_irq_epilogue>
 800106e:	bf00      	nop
 8001070:	20001558 	.word	0x20001558
	...

08001080 <_dbg_check_unlock_from_isr>:
 8001080:	4b06      	ldr	r3, [pc, #24]	; (800109c <_dbg_check_unlock_from_isr+0x1c>)
 8001082:	6b1a      	ldr	r2, [r3, #48]	; 0x30
 8001084:	2a00      	cmp	r2, #0
 8001086:	dd05      	ble.n	8001094 <_dbg_check_unlock_from_isr+0x14>
 8001088:	6b5a      	ldr	r2, [r3, #52]	; 0x34
 800108a:	2a00      	cmp	r2, #0
 800108c:	dd02      	ble.n	8001094 <_dbg_check_unlock_from_isr+0x14>
 800108e:	2200      	movs	r2, #0
 8001090:	635a      	str	r2, [r3, #52]	; 0x34
 8001092:	4770      	bx	lr
 8001094:	b672      	cpsid	i
 8001096:	4a02      	ldr	r2, [pc, #8]	; (80010a0 <_dbg_check_unlock_from_isr+0x20>)
 8001098:	62da      	str	r2, [r3, #44]	; 0x2c
 800109a:	e7fe      	b.n	800109a <_dbg_check_unlock_from_isr+0x1a>
 800109c:	20001558 	.word	0x20001558
 80010a0:	0800a2b0 	.word	0x0800a2b0
	...

080010b0 <_dbg_check_lock_from_isr>:
 80010b0:	4b06      	ldr	r3, [pc, #24]	; (80010cc <_dbg_check_lock_from_isr+0x1c>)
 80010b2:	6b1a      	ldr	r2, [r3, #48]	; 0x30
 80010b4:	2a00      	cmp	r2, #0
 80010b6:	dd01      	ble.n	80010bc <_dbg_check_lock_from_isr+0xc>
 80010b8:	6b5a      	ldr	r2, [r3, #52]	; 0x34
 80010ba:	b11a      	cbz	r2, 80010c4 <_dbg_check_lock_from_isr+0x14>
 80010bc:	b672      	cpsid	i
 80010be:	4a04      	ldr	r2, [pc, #16]	; (80010d0 <_dbg_check_lock_from_isr+0x20>)
 80010c0:	62da      	str	r2, [r3, #44]	; 0x2c
 80010c2:	e7fe      	b.n	80010c2 <_dbg_check_lock_from_isr+0x12>
 80010c4:	2201      	movs	r2, #1
 80010c6:	635a      	str	r2, [r3, #52]	; 0x34
 80010c8:	4770      	bx	lr
 80010ca:	bf00      	nop
 80010cc:	20001558 	.word	0x20001558
 80010d0:	0800a280 	.word	0x0800a280
	...

080010e0 <VectorB0>:
 80010e0:	e92d 47f0 	stmdb	sp!, {r4, r5, r6, r7, r8, r9, sl, lr}
 80010e4:	4c39      	ldr	r4, [pc, #228]	; (80011cc <VectorB0+0xec>)
 80010e6:	f8d4 34a8 	ldr.w	r3, [r4, #1192]	; 0x4a8
 80010ea:	f04f 4980 	mov.w	r9, #1073741824	; 0x40000000
 80010ee:	3301      	adds	r3, #1
 80010f0:	f8c4 34a8 	str.w	r3, [r4, #1192]	; 0x4a8
 80010f4:	f7ff ff94 	bl	8001020 <_dbg_check_enter_isr>
 80010f8:	f8d9 3010 	ldr.w	r3, [r9, #16]
 80010fc:	079b      	lsls	r3, r3, #30
 80010fe:	d405      	bmi.n	800110c <VectorB0+0x2c>
 8001100:	f7ff ff76 	bl	8000ff0 <_dbg_check_leave_isr>
 8001104:	e8bd 47f0 	ldmia.w	sp!, {r4, r5, r6, r7, r8, r9, sl, lr}
 8001108:	f7ff bb52 	b.w	80007b0 <_port_irq_epilogue>
 800110c:	2700      	movs	r7, #0
 800110e:	f8c9 7010 	str.w	r7, [r9, #16]
 8001112:	f04f 0820 	mov.w	r8, #32
 8001116:	f388 8811 	msr	BASEPRI, r8
 800111a:	f7ff fbf9 	bl	8000910 <_stats_start_measure_crit_isr>
 800111e:	f7ff ffc7 	bl	80010b0 <_dbg_check_lock_from_isr>
 8001122:	f7ff fc2d 	bl	8000980 <chDbgCheckClassI>
 8001126:	f7ff fc2b 	bl	8000980 <chDbgCheckClassI>
 800112a:	69e5      	ldr	r5, [r4, #28]
 800112c:	f8d9 3024 	ldr.w	r3, [r9, #36]	; 0x24
 8001130:	6aa1      	ldr	r1, [r4, #40]	; 0x28
 8001132:	68aa      	ldr	r2, [r5, #8]
 8001134:	1a58      	subs	r0, r3, r1
 8001136:	4290      	cmp	r0, r2
 8001138:	f104 061c 	add.w	r6, r4, #28
 800113c:	d321      	bcc.n	8001182 <VectorB0+0xa2>
 800113e:	682b      	ldr	r3, [r5, #0]
 8001140:	f8d5 a00c 	ldr.w	sl, [r5, #12]
 8001144:	4411      	add	r1, r2
 8001146:	42b3      	cmp	r3, r6
 8001148:	62a1      	str	r1, [r4, #40]	; 0x28
 800114a:	605e      	str	r6, [r3, #4]
 800114c:	61e3      	str	r3, [r4, #28]
 800114e:	60ef      	str	r7, [r5, #12]
 8001150:	bf08      	it	eq
 8001152:	f8c9 700c 	streq.w	r7, [r9, #12]
 8001156:	f7ff ff93 	bl	8001080 <_dbg_check_unlock_from_isr>
 800115a:	f7ff fbc9 	bl	80008f0 <_stats_stop_measure_crit_isr>
 800115e:	f387 8811 	msr	BASEPRI, r7
 8001162:	6928      	ldr	r0, [r5, #16]
 8001164:	47d0      	blx	sl
 8001166:	f388 8811 	msr	BASEPRI, r8
 800116a:	f7ff fbd1 	bl	8000910 <_stats_start_measure_crit_isr>
 800116e:	f7ff ff9f 	bl	80010b0 <_dbg_check_lock_from_isr>
 8001172:	69e5      	ldr	r5, [r4, #28]
 8001174:	f8d9 3024 	ldr.w	r3, [r9, #36]	; 0x24
 8001178:	6aa1      	ldr	r1, [r4, #40]	; 0x28
 800117a:	68aa      	ldr	r2, [r5, #8]
 800117c:	1a58      	subs	r0, r3, r1
 800117e:	4282      	cmp	r2, r0
 8001180:	d9dd      	bls.n	800113e <VectorB0+0x5e>
 8001182:	42b5      	cmp	r5, r6
 8001184:	d014      	beq.n	80011b0 <VectorB0+0xd0>
 8001186:	4411      	add	r1, r2
 8001188:	1ac9      	subs	r1, r1, r3
 800118a:	2902      	cmp	r1, #2
 800118c:	bf2c      	ite	cs
 800118e:	1859      	addcs	r1, r3, r1
 8001190:	1c99      	addcc	r1, r3, #2
 8001192:	4608      	mov	r0, r1
 8001194:	f7ff fafc 	bl	8000790 <stSetAlarm>
 8001198:	f04f 4380 	mov.w	r3, #1073741824	; 0x40000000
 800119c:	6aa0      	ldr	r0, [r4, #40]	; 0x28
 800119e:	6a5a      	ldr	r2, [r3, #36]	; 0x24
 80011a0:	1a0b      	subs	r3, r1, r0
 80011a2:	1a12      	subs	r2, r2, r0
 80011a4:	429a      	cmp	r2, r3
 80011a6:	d903      	bls.n	80011b0 <VectorB0+0xd0>
 80011a8:	b672      	cpsid	i
 80011aa:	4b09      	ldr	r3, [pc, #36]	; (80011d0 <VectorB0+0xf0>)
 80011ac:	62e3      	str	r3, [r4, #44]	; 0x2c
 80011ae:	e7fe      	b.n	80011ae <VectorB0+0xce>
 80011b0:	f7ff ff66 	bl	8001080 <_dbg_check_unlock_from_isr>
 80011b4:	f7ff fb9c 	bl	80008f0 <_stats_stop_measure_crit_isr>
 80011b8:	2300      	movs	r3, #0
 80011ba:	f383 8811 	msr	BASEPRI, r3
 80011be:	f7ff ff17 	bl	8000ff0 <_dbg_check_leave_isr>
 80011c2:	e8bd 47f0 	ldmia.w	sp!, {r4, r5, r6, r7, r8, r9, sl, lr}
 80011c6:	f7ff baf3 	b.w	80007b0 <_port_irq_epilogue>
 80011ca:	bf00      	nop
 80011cc:	20001558 	.word	0x20001558
 80011d0:	08009ed0 	.word	0x08009ed0
	...

080011e0 <sduDataReceived>:
 80011e0:	f101 0311 	add.w	r3, r1, #17
 80011e4:	e92d 47f0 	stmdb	sp!, {r4, r5, r6, r7, r8, r9, sl, lr}
 80011e8:	f850 4023 	ldr.w	r4, [r0, r3, lsl #2]
 80011ec:	b31c      	cbz	r4, 8001236 <sduDataReceived+0x56>
 80011ee:	4605      	mov	r5, r0
 80011f0:	460e      	mov	r6, r1
 80011f2:	f04f 0820 	mov.w	r8, #32
 80011f6:	f388 8811 	msr	BASEPRI, r8
 80011fa:	eb00 0981 	add.w	r9, r0, r1, lsl #2
 80011fe:	f7ff fb87 	bl	8000910 <_stats_start_measure_crit_isr>
 8001202:	f7ff ff55 	bl	80010b0 <_dbg_check_lock_from_isr>
 8001206:	1d20      	adds	r0, r4, #4
 8001208:	2104      	movs	r1, #4
 800120a:	f7ff fd39 	bl	8000c80 <chEvtBroadcastFlagsI>
 800120e:	f8d9 300c 	ldr.w	r3, [r9, #12]
 8001212:	f8b3 a012 	ldrh.w	sl, [r3, #18]
 8001216:	f7ff fbb3 	bl	8000980 <chDbgCheckClassI>
 800121a:	e9d4 2306 	ldrd	r2, r3, [r4, #24]
 800121e:	6967      	ldr	r7, [r4, #20]
 8001220:	1a9b      	subs	r3, r3, r2
 8001222:	1bdf      	subs	r7, r3, r7
 8001224:	45ba      	cmp	sl, r7
 8001226:	d908      	bls.n	800123a <sduDataReceived+0x5a>
 8001228:	f7ff ff2a 	bl	8001080 <_dbg_check_unlock_from_isr>
 800122c:	f7ff fb60 	bl	80008f0 <_stats_stop_measure_crit_isr>
 8001230:	2300      	movs	r3, #0
 8001232:	f383 8811 	msr	BASEPRI, r3
 8001236:	e8bd 87f0 	ldmia.w	sp!, {r4, r5, r6, r7, r8, r9, sl, pc}
 800123a:	f7ff ff21 	bl	8001080 <_dbg_check_unlock_from_isr>
 800123e:	f7ff fb57 	bl	80008f0 <_stats_stop_measure_crit_isr>
 8001242:	2200      	movs	r2, #0
 8001244:	f382 8811 	msr	BASEPRI, r2
 8001248:	f8d9 300c 	ldr.w	r3, [r9, #12]
 800124c:	fbb7 f7fa 	udiv	r7, r7, sl
 8001250:	699b      	ldr	r3, [r3, #24]
 8001252:	fb0a f707 	mul.w	r7, sl, r7
 8001256:	340c      	adds	r4, #12
 8001258:	2101      	movs	r1, #1
 800125a:	7019      	strb	r1, [r3, #0]
 800125c:	e9c3 7201 	strd	r7, r2, [r3, #4]
 8001260:	60dc      	str	r4, [r3, #12]
 8001262:	4631      	mov	r1, r6
 8001264:	4628      	mov	r0, r5
 8001266:	f7ff f99b 	bl	80005a0 <usb_lld_prepare_receive>
 800126a:	f388 8811 	msr	BASEPRI, r8
 800126e:	f7ff fb4f 	bl	8000910 <_stats_start_measure_crit_isr>
 8001272:	f7ff ff1d 	bl	80010b0 <_dbg_check_lock_from_isr>
 8001276:	4631      	mov	r1, r6
 8001278:	4628      	mov	r0, r5
 800127a:	f7ff fbc1 	bl	8000a00 <usbStartReceiveI>
 800127e:	e7d3      	b.n	8001228 <sduDataReceived+0x48>

08001280 <wakeup>:
 8001280:	b508      	push	{r3, lr}
 8001282:	4601      	mov	r1, r0
 8001284:	2320      	movs	r3, #32
 8001286:	f383 8811 	msr	BASEPRI, r3
 800128a:	f7ff fb41 	bl	8000910 <_stats_start_measure_crit_isr>
 800128e:	f7ff ff0f 	bl	80010b0 <_dbg_check_lock_from_isr>
 8001292:	f891 3020 	ldrb.w	r3, [r1, #32]
 8001296:	2b07      	cmp	r3, #7
 8001298:	d810      	bhi.n	80012bc <wakeup+0x3c>
 800129a:	e8df f003 	tbb	[pc, r3]
 800129e:	0f15      	.short	0x0f15
 80012a0:	040a1d0f 	.word	0x040a1d0f
 80012a4:	0a0f      	.short	0x0a0f
 80012a6:	6a48      	ldr	r0, [r1, #36]	; 0x24
 80012a8:	f7ff fb6a 	bl	8000980 <chDbgCheckClassI>
 80012ac:	6883      	ldr	r3, [r0, #8]
 80012ae:	3301      	adds	r3, #1
 80012b0:	6083      	str	r3, [r0, #8]
 80012b2:	e9d1 2300 	ldrd	r2, r3, [r1]
 80012b6:	601a      	str	r2, [r3, #0]
 80012b8:	680a      	ldr	r2, [r1, #0]
 80012ba:	6053      	str	r3, [r2, #4]
 80012bc:	f04f 33ff 	mov.w	r3, #4294967295	; 0xffffffff
 80012c0:	624b      	str	r3, [r1, #36]	; 0x24
 80012c2:	4608      	mov	r0, r1
 80012c4:	f7ff fc1c 	bl	8000b00 <chSchReadyI>
 80012c8:	f7ff feda 	bl	8001080 <_dbg_check_unlock_from_isr>
 80012cc:	f7ff fb10 	bl	80008f0 <_stats_stop_measure_crit_isr>
 80012d0:	2300      	movs	r3, #0
 80012d2:	f383 8811 	msr	BASEPRI, r3
 80012d6:	bd08      	pop	{r3, pc}
 80012d8:	6a4b      	ldr	r3, [r1, #36]	; 0x24
 80012da:	2200      	movs	r2, #0
 80012dc:	601a      	str	r2, [r3, #0]
 80012de:	f04f 33ff 	mov.w	r3, #4294967295	; 0xffffffff
 80012e2:	624b      	str	r3, [r1, #36]	; 0x24
 80012e4:	4608      	mov	r0, r1
 80012e6:	f7ff fc0b 	bl	8000b00 <chSchReadyI>
 80012ea:	e7ed      	b.n	80012c8 <wakeup+0x48>
 80012ec:	0000      	movs	r0, r0
	...

080012f0 <_dbg_check_enable>:
 80012f0:	4b04      	ldr	r3, [pc, #16]	; (8001304 <_dbg_check_enable+0x14>)
 80012f2:	6b1a      	ldr	r2, [r3, #48]	; 0x30
 80012f4:	b90a      	cbnz	r2, 80012fa <_dbg_check_enable+0xa>
 80012f6:	6b5a      	ldr	r2, [r3, #52]	; 0x34
 80012f8:	b11a      	cbz	r2, 8001302 <_dbg_check_enable+0x12>
 80012fa:	b672      	cpsid	i
 80012fc:	4a02      	ldr	r2, [pc, #8]	; (8001308 <_dbg_check_enable+0x18>)
 80012fe:	62da      	str	r2, [r3, #44]	; 0x2c
 8001300:	e7fe      	b.n	8001300 <_dbg_check_enable+0x10>
 8001302:	4770      	bx	lr
 8001304:	20001558 	.word	0x20001558
 8001308:	0800a240 	.word	0x0800a240
 800130c:	00000000 	.word	0x00000000

08001310 <_dbg_check_suspend>:
 8001310:	4b04      	ldr	r3, [pc, #16]	; (8001324 <_dbg_check_suspend+0x14>)
 8001312:	6b1a      	ldr	r2, [r3, #48]	; 0x30
 8001314:	b90a      	cbnz	r2, 800131a <_dbg_check_suspend+0xa>
 8001316:	6b5a      	ldr	r2, [r3, #52]	; 0x34
 8001318:	b11a      	cbz	r2, 8001322 <_dbg_check_suspend+0x12>
 800131a:	b672      	cpsid	i
 800131c:	4a02      	ldr	r2, [pc, #8]	; (8001328 <_dbg_check_suspend+0x18>)
 800131e:	62da      	str	r2, [r3, #44]	; 0x2c
 8001320:	e7fe      	b.n	8001320 <_dbg_check_suspend+0x10>
 8001322:	4770      	bx	lr
 8001324:	20001558 	.word	0x20001558
 8001328:	0800a290 	.word	0x0800a290
 800132c:	00000000 	.word	0x00000000

08001330 <sys2_execute>:
 8001330:	b508      	push	{r3, lr}
 8001332:	2020      	movs	r0, #32
 8001334:	f380 8811 	msr	BASEPRI, r0
 8001338:	b662      	cpsie	i
 800133a:	f7ff ffe9 	bl	8001310 <_dbg_check_suspend>
 800133e:	b672      	cpsid	i
 8001340:	4b09      	ldr	r3, [pc, #36]	; (8001368 <sys2_execute+0x38>)
 8001342:	6b1a      	ldr	r2, [r3, #48]	; 0x30
 8001344:	b90a      	cbnz	r2, 800134a <sys2_execute+0x1a>
 8001346:	6b59      	ldr	r1, [r3, #52]	; 0x34
 8001348:	b119      	cbz	r1, 8001352 <sys2_execute+0x22>
 800134a:	b672      	cpsid	i
 800134c:	4a07      	ldr	r2, [pc, #28]	; (800136c <sys2_execute+0x3c>)
 800134e:	62da      	str	r2, [r3, #44]	; 0x2c
 8001350:	e7fe      	b.n	8001350 <sys2_execute+0x20>
 8001352:	f380 8811 	msr	BASEPRI, r0
 8001356:	b662      	cpsie	i
 8001358:	f7ff ffda 	bl	8001310 <_dbg_check_suspend>
 800135c:	f7ff ffc8 	bl	80012f0 <_dbg_check_enable>
 8001360:	f381 8811 	msr	BASEPRI, r1
 8001364:	b662      	cpsie	i
 8001366:	bd08      	pop	{r3, pc}
 8001368:	20001558 	.word	0x20001558
 800136c:	0800b070 	.word	0x0800b070

08001370 <chSysIntegrityCheckI>:
 8001370:	b510      	push	{r4, lr}
 8001372:	f7ff fb05 	bl	8000980 <chDbgCheckClassI>
 8001376:	07c2      	lsls	r2, r0, #31
 8001378:	d512      	bpl.n	80013a0 <chSysIntegrityCheckI+0x30>
 800137a:	4b28      	ldr	r3, [pc, #160]	; (800141c <chSysIntegrityCheckI+0xac>)
 800137c:	e9d3 1400 	ldrd	r1, r4, [r3]
 8001380:	4299      	cmp	r1, r3
 8001382:	d03f      	beq.n	8001404 <chSysIntegrityCheckI+0x94>
 8001384:	2200      	movs	r2, #0
 8001386:	6809      	ldr	r1, [r1, #0]
 8001388:	4299      	cmp	r1, r3
 800138a:	f102 0201 	add.w	r2, r2, #1
 800138e:	d1fa      	bne.n	8001386 <chSysIntegrityCheckI+0x16>
 8001390:	428c      	cmp	r4, r1
 8001392:	d035      	beq.n	8001400 <chSysIntegrityCheckI+0x90>
 8001394:	6864      	ldr	r4, [r4, #4]
 8001396:	429c      	cmp	r4, r3
 8001398:	f102 32ff 	add.w	r2, r2, #4294967295	; 0xffffffff
 800139c:	d1fa      	bne.n	8001394 <chSysIntegrityCheckI+0x24>
 800139e:	bb7a      	cbnz	r2, 8001400 <chSysIntegrityCheckI+0x90>
 80013a0:	0783      	lsls	r3, r0, #30
 80013a2:	d513      	bpl.n	80013cc <chSysIntegrityCheckI+0x5c>
 80013a4:	4c1d      	ldr	r4, [pc, #116]	; (800141c <chSysIntegrityCheckI+0xac>)
 80013a6:	e9d4 2107 	ldrd	r2, r1, [r4, #28]
 80013aa:	341c      	adds	r4, #28
 80013ac:	42a2      	cmp	r2, r4
 80013ae:	d02d      	beq.n	800140c <chSysIntegrityCheckI+0x9c>
 80013b0:	2300      	movs	r3, #0
 80013b2:	6812      	ldr	r2, [r2, #0]
 80013b4:	42a2      	cmp	r2, r4
 80013b6:	f103 0301 	add.w	r3, r3, #1
 80013ba:	d1fa      	bne.n	80013b2 <chSysIntegrityCheckI+0x42>
 80013bc:	4291      	cmp	r1, r2
 80013be:	d01f      	beq.n	8001400 <chSysIntegrityCheckI+0x90>
 80013c0:	6849      	ldr	r1, [r1, #4]
 80013c2:	42a1      	cmp	r1, r4
 80013c4:	f103 33ff 	add.w	r3, r3, #4294967295	; 0xffffffff
 80013c8:	d1fa      	bne.n	80013c0 <chSysIntegrityCheckI+0x50>
 80013ca:	b9cb      	cbnz	r3, 8001400 <chSysIntegrityCheckI+0x90>
 80013cc:	f010 0004 	ands.w	r0, r0, #4
 80013d0:	d015      	beq.n	80013fe <chSysIntegrityCheckI+0x8e>
 80013d2:	4b12      	ldr	r3, [pc, #72]	; (800141c <chSysIntegrityCheckI+0xac>)
 80013d4:	e9d3 2104 	ldrd	r2, r1, [r3, #16]
 80013d8:	429a      	cmp	r2, r3
 80013da:	f04f 0000 	mov.w	r0, #0
 80013de:	d019      	beq.n	8001414 <chSysIntegrityCheckI+0xa4>
 80013e0:	6912      	ldr	r2, [r2, #16]
 80013e2:	429a      	cmp	r2, r3
 80013e4:	f100 0001 	add.w	r0, r0, #1
 80013e8:	d1fa      	bne.n	80013e0 <chSysIntegrityCheckI+0x70>
 80013ea:	4291      	cmp	r1, r2
 80013ec:	d008      	beq.n	8001400 <chSysIntegrityCheckI+0x90>
 80013ee:	6949      	ldr	r1, [r1, #20]
 80013f0:	4299      	cmp	r1, r3
 80013f2:	f100 30ff 	add.w	r0, r0, #4294967295	; 0xffffffff
 80013f6:	d1fa      	bne.n	80013ee <chSysIntegrityCheckI+0x7e>
 80013f8:	3000      	adds	r0, #0
 80013fa:	bf18      	it	ne
 80013fc:	2001      	movne	r0, #1
 80013fe:	bd10      	pop	{r4, pc}
 8001400:	2001      	movs	r0, #1
 8001402:	bd10      	pop	{r4, pc}
 8001404:	429c      	cmp	r4, r3
 8001406:	d0cb      	beq.n	80013a0 <chSysIntegrityCheckI+0x30>
 8001408:	2200      	movs	r2, #0
 800140a:	e7c3      	b.n	8001394 <chSysIntegrityCheckI+0x24>
 800140c:	42a1      	cmp	r1, r4
 800140e:	d0dd      	beq.n	80013cc <chSysIntegrityCheckI+0x5c>
 8001410:	2300      	movs	r3, #0
 8001412:	e7d5      	b.n	80013c0 <chSysIntegrityCheckI+0x50>
 8001414:	4291      	cmp	r1, r2
 8001416:	d1ea      	bne.n	80013ee <chSysIntegrityCheckI+0x7e>
 8001418:	bd10      	pop	{r4, pc}
 800141a:	bf00      	nop
 800141c:	20001558 	.word	0x20001558

08001420 <BusFault_Handler>:
 8001420:	b672      	cpsid	i
 8001422:	4b02      	ldr	r3, [pc, #8]	; (800142c <BusFault_Handler+0xc>)
 8001424:	4a02      	ldr	r2, [pc, #8]	; (8001430 <BusFault_Handler+0x10>)
 8001426:	62da      	str	r2, [r3, #44]	; 0x2c
 8001428:	e7fe      	b.n	8001428 <BusFault_Handler+0x8>
 800142a:	bf00      	nop
 800142c:	20001558 	.word	0x20001558
 8001430:	0800a2d0 	.word	0x0800a2d0
	...

08001440 <chCondSignalI.constprop.62>:
 8001440:	b510      	push	{r4, lr}
 8001442:	f7ff fa9d 	bl	8000980 <chDbgCheckClassI>
 8001446:	4b07      	ldr	r3, [pc, #28]	; (8001464 <chCondSignalI.constprop.62+0x24>)
 8001448:	681a      	ldr	r2, [r3, #0]
 800144a:	429a      	cmp	r2, r3
 800144c:	d009      	beq.n	8001462 <chCondSignalI.constprop.62+0x22>
 800144e:	6811      	ldr	r1, [r2, #0]
 8001450:	6019      	str	r1, [r3, #0]
 8001452:	2400      	movs	r4, #0
 8001454:	604b      	str	r3, [r1, #4]
 8001456:	4610      	mov	r0, r2
 8001458:	6254      	str	r4, [r2, #36]	; 0x24
 800145a:	e8bd 4010 	ldmia.w	sp!, {r4, lr}
 800145e:	f7ff bb4f 	b.w	8000b00 <chSchReadyI>
 8001462:	bd10      	pop	{r4, pc}
 8001464:	20000c04 	.word	0x20000c04
	...

08001470 <chMBPostI.constprop.36>:
 8001470:	b538      	push	{r3, r4, r5, lr}
 8001472:	490f      	ldr	r1, [pc, #60]	; (80014b0 <chMBPostI.constprop.36+0x40>)
 8001474:	f7ff fa84 	bl	8000980 <chDbgCheckClassI>
 8001478:	f7ff fa82 	bl	8000980 <chDbgCheckClassI>
 800147c:	6a4c      	ldr	r4, [r1, #36]	; 0x24
 800147e:	2c00      	cmp	r4, #0
 8001480:	dd13      	ble.n	80014aa <chMBPostI.constprop.36+0x3a>
 8001482:	f7ff fa7d 	bl	8000980 <chDbgCheckClassI>
 8001486:	e9d1 5201 	ldrd	r5, r2, [r1, #4]
 800148a:	1d13      	adds	r3, r2, #4
 800148c:	42ab      	cmp	r3, r5
 800148e:	f104 34ff 	add.w	r4, r4, #4294967295	; 0xffffffff
 8001492:	608b      	str	r3, [r1, #8]
 8001494:	624c      	str	r4, [r1, #36]	; 0x24
 8001496:	bf28      	it	cs
 8001498:	680b      	ldrcs	r3, [r1, #0]
 800149a:	6010      	str	r0, [r2, #0]
 800149c:	4805      	ldr	r0, [pc, #20]	; (80014b4 <chMBPostI.constprop.36+0x44>)
 800149e:	bf28      	it	cs
 80014a0:	608b      	strcs	r3, [r1, #8]
 80014a2:	f7ff fc55 	bl	8000d50 <chSemSignalI>
 80014a6:	2000      	movs	r0, #0
 80014a8:	bd38      	pop	{r3, r4, r5, pc}
 80014aa:	f04f 30ff 	mov.w	r0, #4294967295	; 0xffffffff
 80014ae:	bd38      	pop	{r3, r4, r5, pc}
 80014b0:	20000c78 	.word	0x20000c78
 80014b4:	20000c88 	.word	0x20000c88
	...

080014c0 <chMBPostAheadI.constprop.33>:
 80014c0:	b510      	push	{r4, lr}
 80014c2:	490f      	ldr	r1, [pc, #60]	; (8001500 <chMBPostAheadI.constprop.33+0x40>)
 80014c4:	f7ff fa5c 	bl	8000980 <chDbgCheckClassI>
 80014c8:	f7ff fa5a 	bl	8000980 <chDbgCheckClassI>
 80014cc:	6a4c      	ldr	r4, [r1, #36]	; 0x24
 80014ce:	2c00      	cmp	r4, #0
 80014d0:	dd12      	ble.n	80014f8 <chMBPostAheadI.constprop.33+0x38>
 80014d2:	f7ff fa55 	bl	8000980 <chDbgCheckClassI>
 80014d6:	68cb      	ldr	r3, [r1, #12]
 80014d8:	680a      	ldr	r2, [r1, #0]
 80014da:	3b04      	subs	r3, #4
 80014dc:	3c01      	subs	r4, #1
 80014de:	4293      	cmp	r3, r2
 80014e0:	624c      	str	r4, [r1, #36]	; 0x24
 80014e2:	60cb      	str	r3, [r1, #12]
 80014e4:	d202      	bcs.n	80014ec <chMBPostAheadI.constprop.33+0x2c>
 80014e6:	684b      	ldr	r3, [r1, #4]
 80014e8:	3b04      	subs	r3, #4
 80014ea:	60cb      	str	r3, [r1, #12]
 80014ec:	6018      	str	r0, [r3, #0]
 80014ee:	4805      	ldr	r0, [pc, #20]	; (8001504 <chMBPostAheadI.constprop.33+0x44>)
 80014f0:	f7ff fc2e 	bl	8000d50 <chSemSignalI>
 80014f4:	2000      	movs	r0, #0
 80014f6:	bd10      	pop	{r4, pc}
 80014f8:	f04f 30ff 	mov.w	r0, #4294967295	; 0xffffffff
 80014fc:	bd10      	pop	{r4, pc}
 80014fe:	bf00      	nop
 8001500:	20000c78 	.word	0x20000c78
 8001504:	20000c88 	.word	0x20000c88
	...

08001510 <bmk13_execute>:
 8001510:	b510      	push	{r4, lr}
 8001512:	482f      	ldr	r0, [pc, #188]	; (80015d0 <bmk13_execute+0xc0>)
 8001514:	4c2f      	ldr	r4, [pc, #188]	; (80015d4 <bmk13_execute+0xc4>)
 8001516:	f7ff f82b 	bl	8000570 <test_print>
 800151a:	f44f 60bb 	mov.w	r0, #1496	; 0x5d8
 800151e:	f7fe ff6f 	bl	8000400 <test_printn.part.1>
 8001522:	4620      	mov	r0, r4
 8001524:	f7ff f804 	bl	8000530 <test_println>
 8001528:	482b      	ldr	r0, [pc, #172]	; (80015d8 <bmk13_execute+0xc8>)
 800152a:	f7ff f821 	bl	8000570 <test_print>
 800152e:	2060      	movs	r0, #96	; 0x60
 8001530:	f7fe ff66 	bl	8000400 <test_printn.part.1>
 8001534:	4620      	mov	r0, r4
 8001536:	f7fe fffb 	bl	8000530 <test_println>
 800153a:	4828      	ldr	r0, [pc, #160]	; (80015dc <bmk13_execute+0xcc>)
 800153c:	f7ff f818 	bl	8000570 <test_print>
 8001540:	2014      	movs	r0, #20
 8001542:	f7fe ff5d 	bl	8000400 <test_printn.part.1>
 8001546:	4620      	mov	r0, r4
 8001548:	f7fe fff2 	bl	8000530 <test_println>
 800154c:	4824      	ldr	r0, [pc, #144]	; (80015e0 <bmk13_execute+0xd0>)
 800154e:	f7ff f80f 	bl	8000570 <test_print>
 8001552:	200c      	movs	r0, #12
 8001554:	f7fe ff54 	bl	8000400 <test_printn.part.1>
 8001558:	4620      	mov	r0, r4
 800155a:	f7fe ffe9 	bl	8000530 <test_println>
 800155e:	4821      	ldr	r0, [pc, #132]	; (80015e4 <bmk13_execute+0xd4>)
 8001560:	f7ff f806 	bl	8000570 <test_print>
 8001564:	2004      	movs	r0, #4
 8001566:	f7fe ff4b 	bl	8000400 <test_printn.part.1>
 800156a:	4620      	mov	r0, r4
 800156c:	f7fe ffe0 	bl	8000530 <test_println>
 8001570:	481d      	ldr	r0, [pc, #116]	; (80015e8 <bmk13_execute+0xd8>)
 8001572:	f7fe fffd 	bl	8000570 <test_print>
 8001576:	2014      	movs	r0, #20
 8001578:	f7fe ff42 	bl	8000400 <test_printn.part.1>
 800157c:	4620      	mov	r0, r4
 800157e:	f7fe ffd7 	bl	8000530 <test_println>
 8001582:	481a      	ldr	r0, [pc, #104]	; (80015ec <bmk13_execute+0xdc>)
 8001584:	f7fe fff4 	bl	8000570 <test_print>
 8001588:	2010      	movs	r0, #16
 800158a:	f7fe ff39 	bl	8000400 <test_printn.part.1>
 800158e:	4620      	mov	r0, r4
 8001590:	f7fe ffce 	bl	8000530 <test_println>
 8001594:	4816      	ldr	r0, [pc, #88]	; (80015f0 <bmk13_execute+0xe0>)
 8001596:	f7fe ffeb 	bl	8000570 <test_print>
 800159a:	2008      	movs	r0, #8
 800159c:	f7fe ff30 	bl	8000400 <test_printn.part.1>
 80015a0:	4620      	mov	r0, r4
 80015a2:	f7fe ffc5 	bl	8000530 <test_println>
 80015a6:	4813      	ldr	r0, [pc, #76]	; (80015f4 <bmk13_execute+0xe4>)
 80015a8:	f7fe ffe2 	bl	8000570 <test_print>
 80015ac:	2024      	movs	r0, #36	; 0x24
 80015ae:	f7fe ff27 	bl	8000400 <test_printn.part.1>
 80015b2:	4620      	mov	r0, r4
 80015b4:	f7fe ffbc 	bl	8000530 <test_println>
 80015b8:	480f      	ldr	r0, [pc, #60]	; (80015f8 <bmk13_execute+0xe8>)
 80015ba:	f7fe ffd9 	bl	8000570 <test_print>
 80015be:	2028      	movs	r0, #40	; 0x28
 80015c0:	f7fe ff1e 	bl	8000400 <test_printn.part.1>
 80015c4:	4620      	mov	r0, r4
 80015c6:	e8bd 4010 	ldmia.w	sp!, {r4, lr}
 80015ca:	f7fe bfb1 	b.w	8000530 <test_println>
 80015ce:	bf00      	nop
 80015d0:	0800a340 	.word	0x0800a340
 80015d4:	0800a350 	.word	0x0800a350
 80015d8:	0800a358 	.word	0x0800a358
 80015dc:	0800a368 	.word	0x0800a368
 80015e0:	0800a378 	.word	0x0800a378
 80015e4:	0800a388 	.word	0x0800a388
 80015e8:	0800a398 	.word	0x0800a398
 80015ec:	0800a3a8 	.word	0x0800a3a8
 80015f0:	0800a3b8 	.word	0x0800a3b8
 80015f4:	0800a3c8 	.word	0x0800a3c8
 80015f8:	0800a3d8 	.word	0x0800a3d8
 80015fc:	00000000 	.word	0x00000000

08001600 <bmk11_setup>:
 8001600:	4b02      	ldr	r3, [pc, #8]	; (800160c <bmk11_setup+0xc>)
 8001602:	2201      	movs	r2, #1
 8001604:	e9c3 3300 	strd	r3, r3, [r3]
 8001608:	609a      	str	r2, [r3, #8]
 800160a:	4770      	bx	lr
 800160c:	20001c28 	.word	0x20001c28

08001610 <bmk7_setup>:
 8001610:	4b02      	ldr	r3, [pc, #8]	; (800161c <bmk7_setup+0xc>)
 8001612:	2200      	movs	r2, #0
 8001614:	e9c3 3300 	strd	r3, r3, [r3]
 8001618:	609a      	str	r2, [r3, #8]
 800161a:	4770      	bx	lr
 800161c:	20001c28 	.word	0x20001c28

08001620 <dyn2_setup>:
 8001620:	4b03      	ldr	r3, [pc, #12]	; (8001630 <dyn2_setup+0x10>)
 8001622:	2200      	movs	r2, #0
 8001624:	f44f 71b4 	mov.w	r1, #360	; 0x168
 8001628:	e9c3 2100 	strd	r2, r1, [r3]
 800162c:	609a      	str	r2, [r3, #8]
 800162e:	4770      	bx	lr
 8001630:	20001c08 	.word	0x20001c08
	...

08001640 <pools1_setup>:
 8001640:	4b03      	ldr	r3, [pc, #12]	; (8001650 <pools1_setup+0x10>)
 8001642:	2200      	movs	r2, #0
 8001644:	f44f 71b4 	mov.w	r1, #360	; 0x168
 8001648:	e9c3 2100 	strd	r2, r1, [r3]
 800164c:	609a      	str	r2, [r3, #8]
 800164e:	4770      	bx	lr
 8001650:	20000ca0 	.word	0x20000ca0
	...

08001660 <mbox1_setup>:
 8001660:	b430      	push	{r4, r5}
 8001662:	4b0b      	ldr	r3, [pc, #44]	; (8001690 <mbox1_setup+0x30>)
 8001664:	4a0b      	ldr	r2, [pc, #44]	; (8001694 <mbox1_setup+0x34>)
 8001666:	601a      	str	r2, [r3, #0]
 8001668:	f102 0514 	add.w	r5, r2, #20
 800166c:	2405      	movs	r4, #5
 800166e:	f103 011c 	add.w	r1, r3, #28
 8001672:	2000      	movs	r0, #0
 8001674:	e9c3 2202 	strd	r2, r2, [r3, #8]
 8001678:	f103 0210 	add.w	r2, r3, #16
 800167c:	605d      	str	r5, [r3, #4]
 800167e:	625c      	str	r4, [r3, #36]	; 0x24
 8001680:	e9c3 0106 	strd	r0, r1, [r3, #24]
 8001684:	6219      	str	r1, [r3, #32]
 8001686:	e9c3 2204 	strd	r2, r2, [r3, #16]
 800168a:	bc30      	pop	{r4, r5}
 800168c:	4770      	bx	lr
 800168e:	bf00      	nop
 8001690:	20000c78 	.word	0x20000c78
 8001694:	20001c38 	.word	0x20001c38
	...

080016a0 <mtx8_setup>:
 80016a0:	4906      	ldr	r1, [pc, #24]	; (80016bc <mtx8_setup+0x1c>)
 80016a2:	4a07      	ldr	r2, [pc, #28]	; (80016c0 <mtx8_setup+0x20>)
 80016a4:	4b07      	ldr	r3, [pc, #28]	; (80016c4 <mtx8_setup+0x24>)
 80016a6:	6009      	str	r1, [r1, #0]
 80016a8:	2000      	movs	r0, #0
 80016aa:	6049      	str	r1, [r1, #4]
 80016ac:	e9c2 2200 	strd	r2, r2, [r2]
 80016b0:	6090      	str	r0, [r2, #8]
 80016b2:	6098      	str	r0, [r3, #8]
 80016b4:	e9c3 3300 	strd	r3, r3, [r3]
 80016b8:	4770      	bx	lr
 80016ba:	bf00      	nop
 80016bc:	20000c04 	.word	0x20000c04
 80016c0:	20000c58 	.word	0x20000c58
 80016c4:	20000c68 	.word	0x20000c68
	...

080016d0 <mtx6_setup>:
 80016d0:	4a04      	ldr	r2, [pc, #16]	; (80016e4 <mtx6_setup+0x14>)
 80016d2:	4b05      	ldr	r3, [pc, #20]	; (80016e8 <mtx6_setup+0x18>)
 80016d4:	6012      	str	r2, [r2, #0]
 80016d6:	2100      	movs	r1, #0
 80016d8:	6052      	str	r2, [r2, #4]
 80016da:	e9c3 3300 	strd	r3, r3, [r3]
 80016de:	6099      	str	r1, [r3, #8]
 80016e0:	4770      	bx	lr
 80016e2:	bf00      	nop
 80016e4:	20000c04 	.word	0x20000c04
 80016e8:	20000c58 	.word	0x20000c58
 80016ec:	00000000 	.word	0x00000000

080016f0 <mtx7_setup>:
 80016f0:	f7ff bfee 	b.w	80016d0 <mtx6_setup>
	...

08001700 <mtx4_setup>:
 8001700:	4a04      	ldr	r2, [pc, #16]	; (8001714 <mtx4_setup+0x14>)
 8001702:	4b05      	ldr	r3, [pc, #20]	; (8001718 <mtx4_setup+0x18>)
 8001704:	6012      	str	r2, [r2, #0]
 8001706:	2100      	movs	r1, #0
 8001708:	e9c2 2101 	strd	r2, r1, [r2, #4]
 800170c:	6099      	str	r1, [r3, #8]
 800170e:	e9c3 3300 	strd	r3, r3, [r3]
 8001712:	4770      	bx	lr
 8001714:	20000c58 	.word	0x20000c58
 8001718:	20000c68 	.word	0x20000c68
 800171c:	00000000 	.word	0x00000000

08001720 <mtx1_setup>:
 8001720:	4b02      	ldr	r3, [pc, #8]	; (800172c <mtx1_setup+0xc>)
 8001722:	2200      	movs	r2, #0
 8001724:	e9c3 3300 	strd	r3, r3, [r3]
 8001728:	609a      	str	r2, [r3, #8]
 800172a:	4770      	bx	lr
 800172c:	20000c58 	.word	0x20000c58

08001730 <mtx5_setup>:
 8001730:	f7ff bff6 	b.w	8001720 <mtx1_setup>
	...

08001740 <sem1_setup>:
 8001740:	4b02      	ldr	r3, [pc, #8]	; (800174c <sem1_setup+0xc>)
 8001742:	2200      	movs	r2, #0
 8001744:	e9c3 3300 	strd	r3, r3, [r3]
 8001748:	609a      	str	r2, [r3, #8]
 800174a:	4770      	bx	lr
 800174c:	20000cd0 	.word	0x20000cd0

08001750 <sem3_setup>:
 8001750:	f7ff bff6 	b.w	8001740 <sem1_setup>
	...

08001760 <sem2_setup>:
 8001760:	f7ff bfee 	b.w	8001740 <sem1_setup>
	...

08001770 <_strtok.constprop.3>:
 8001770:	b538      	push	{r3, r4, r5, lr}
 8001772:	460d      	mov	r5, r1
 8001774:	b198      	cbz	r0, 800179e <_strtok.constprop.3+0x2e>
 8001776:	4604      	mov	r4, r0
 8001778:	6028      	str	r0, [r5, #0]
 800177a:	490d      	ldr	r1, [pc, #52]	; (80017b0 <_strtok.constprop.3+0x40>)
 800177c:	4620      	mov	r0, r4
 800177e:	f008 f9e7 	bl	8009b50 <strspn>
 8001782:	4404      	add	r4, r0
 8001784:	4620      	mov	r0, r4
 8001786:	490a      	ldr	r1, [pc, #40]	; (80017b0 <_strtok.constprop.3+0x40>)
 8001788:	f008 f9ba 	bl	8009b00 <strpbrk>
 800178c:	b168      	cbz	r0, 80017aa <_strtok.constprop.3+0x3a>
 800178e:	1c42      	adds	r2, r0, #1
 8001790:	2300      	movs	r3, #0
 8001792:	602a      	str	r2, [r5, #0]
 8001794:	7003      	strb	r3, [r0, #0]
 8001796:	7823      	ldrb	r3, [r4, #0]
 8001798:	b123      	cbz	r3, 80017a4 <_strtok.constprop.3+0x34>
 800179a:	4620      	mov	r0, r4
 800179c:	bd38      	pop	{r3, r4, r5, pc}
 800179e:	680c      	ldr	r4, [r1, #0]
 80017a0:	2c00      	cmp	r4, #0
 80017a2:	d1ea      	bne.n	800177a <_strtok.constprop.3+0xa>
 80017a4:	2400      	movs	r4, #0
 80017a6:	4620      	mov	r0, r4
 80017a8:	bd38      	pop	{r3, r4, r5, pc}
 80017aa:	6028      	str	r0, [r5, #0]
 80017ac:	e7f3      	b.n	8001796 <_strtok.constprop.3+0x26>
 80017ae:	bf00      	nop
 80017b0:	0800a2c0 	.word	0x0800a2c0
	...

080017c0 <chprintf.lto_priv.148>:
 80017c0:	b40e      	push	{r1, r2, r3}
 80017c2:	e92d 4ff0 	stmdb	sp!, {r4, r5, r6, r7, r8, r9, sl, fp, lr}
 80017c6:	b086      	sub	sp, #24
 80017c8:	af0f      	add	r7, sp, #60	; 0x3c
 80017ca:	4604      	mov	r4, r0
 80017cc:	f857 6b04 	ldr.w	r6, [r7], #4
 80017d0:	9702      	str	r7, [sp, #8]
 80017d2:	f04f 0800 	mov.w	r8, #0
 80017d6:	7831      	ldrb	r1, [r6, #0]
 80017d8:	1c72      	adds	r2, r6, #1
 80017da:	b161      	cbz	r1, 80017f6 <chprintf.lto_priv.148+0x36>
 80017dc:	2925      	cmp	r1, #37	; 0x25
 80017de:	d010      	beq.n	8001802 <chprintf.lto_priv.148+0x42>
 80017e0:	6823      	ldr	r3, [r4, #0]
 80017e2:	4616      	mov	r6, r2
 80017e4:	689b      	ldr	r3, [r3, #8]
 80017e6:	4620      	mov	r0, r4
 80017e8:	4798      	blx	r3
 80017ea:	7831      	ldrb	r1, [r6, #0]
 80017ec:	f108 0801 	add.w	r8, r8, #1
 80017f0:	1c72      	adds	r2, r6, #1
 80017f2:	2900      	cmp	r1, #0
 80017f4:	d1f2      	bne.n	80017dc <chprintf.lto_priv.148+0x1c>
 80017f6:	4640      	mov	r0, r8
 80017f8:	b006      	add	sp, #24
 80017fa:	e8bd 4ff0 	ldmia.w	sp!, {r4, r5, r6, r7, r8, r9, sl, fp, lr}
 80017fe:	b003      	add	sp, #12
 8001800:	4770      	bx	lr
 8001802:	7871      	ldrb	r1, [r6, #1]
 8001804:	292d      	cmp	r1, #45	; 0x2d
 8001806:	bf03      	ittte	eq
 8001808:	78b1      	ldrbeq	r1, [r6, #2]
 800180a:	1cb2      	addeq	r2, r6, #2
 800180c:	f04f 0c01 	moveq.w	ip, #1
 8001810:	f04f 0c00 	movne.w	ip, #0
 8001814:	2930      	cmp	r1, #48	; 0x30
 8001816:	bf03      	ittte	eq
 8001818:	7851      	ldrbeq	r1, [r2, #1]
 800181a:	3201      	addeq	r2, #1
 800181c:	f04f 0a30 	moveq.w	sl, #48	; 0x30
 8001820:	f04f 0a20 	movne.w	sl, #32
 8001824:	3201      	adds	r2, #1
 8001826:	2500      	movs	r5, #0
 8001828:	e005      	b.n	8001836 <chprintf.lto_priv.148+0x76>
 800182a:	783b      	ldrb	r3, [r7, #0]
 800182c:	3704      	adds	r7, #4
 800182e:	f812 1b01 	ldrb.w	r1, [r2], #1
 8001832:	eb03 0540 	add.w	r5, r3, r0, lsl #1
 8001836:	f1a1 0330 	sub.w	r3, r1, #48	; 0x30
 800183a:	b2db      	uxtb	r3, r3
 800183c:	2b09      	cmp	r3, #9
 800183e:	4696      	mov	lr, r2
 8001840:	eb05 0085 	add.w	r0, r5, r5, lsl #2
 8001844:	d9f3      	bls.n	800182e <chprintf.lto_priv.148+0x6e>
 8001846:	292a      	cmp	r1, #42	; 0x2a
 8001848:	d0ef      	beq.n	800182a <chprintf.lto_priv.148+0x6a>
 800184a:	292e      	cmp	r1, #46	; 0x2e
 800184c:	f04f 0200 	mov.w	r2, #0
 8001850:	d048      	beq.n	80018e4 <chprintf.lto_priv.148+0x124>
 8001852:	f001 03df 	and.w	r3, r1, #223	; 0xdf
 8001856:	2b4c      	cmp	r3, #76	; 0x4c
 8001858:	f10e 0601 	add.w	r6, lr, #1
 800185c:	d04e      	beq.n	80018fc <chprintf.lto_priv.148+0x13c>
 800185e:	f1a1 0341 	sub.w	r3, r1, #65	; 0x41
 8001862:	f1a1 0044 	sub.w	r0, r1, #68	; 0x44
 8001866:	b2db      	uxtb	r3, r3
 8001868:	2834      	cmp	r0, #52	; 0x34
 800186a:	f200 8116 	bhi.w	8001a9a <chprintf.lto_priv.148+0x2da>
 800186e:	e8df f010 	tbh	[pc, r0, lsl #1]
 8001872:	0165      	.short	0x0165
 8001874:	01140114 	.word	0x01140114
 8001878:	01140114 	.word	0x01140114
 800187c:	01140165 	.word	0x01140165
 8001880:	01140114 	.word	0x01140114
 8001884:	01140114 	.word	0x01140114
 8001888:	01140110 	.word	0x01140110
 800188c:	01140114 	.word	0x01140114
 8001890:	01140114 	.word	0x01140114
 8001894:	011400e1 	.word	0x011400e1
 8001898:	016e0114 	.word	0x016e0114
 800189c:	01140114 	.word	0x01140114
 80018a0:	01140114 	.word	0x01140114
 80018a4:	01140114 	.word	0x01140114
 80018a8:	01140114 	.word	0x01140114
 80018ac:	01140114 	.word	0x01140114
 80018b0:	0165008f 	.word	0x0165008f
 80018b4:	01140114 	.word	0x01140114
 80018b8:	01140114 	.word	0x01140114
 80018bc:	01140165 	.word	0x01140165
 80018c0:	01140114 	.word	0x01140114
 80018c4:	01140114 	.word	0x01140114
 80018c8:	01140110 	.word	0x01140110
 80018cc:	01140114 	.word	0x01140114
 80018d0:	0114006d 	.word	0x0114006d
 80018d4:	011400e1 	.word	0x011400e1
 80018d8:	016e0114 	.word	0x016e0114
 80018dc:	783b      	ldrb	r3, [r7, #0]
 80018de:	3704      	adds	r7, #4
 80018e0:	eb03 0240 	add.w	r2, r3, r0, lsl #1
 80018e4:	f81e 1b01 	ldrb.w	r1, [lr], #1
 80018e8:	f1a1 0330 	sub.w	r3, r1, #48	; 0x30
 80018ec:	b2db      	uxtb	r3, r3
 80018ee:	2b09      	cmp	r3, #9
 80018f0:	eb02 0082 	add.w	r0, r2, r2, lsl #2
 80018f4:	d9f4      	bls.n	80018e0 <chprintf.lto_priv.148+0x120>
 80018f6:	292a      	cmp	r1, #42	; 0x2a
 80018f8:	d0f0      	beq.n	80018dc <chprintf.lto_priv.148+0x11c>
 80018fa:	e7aa      	b.n	8001852 <chprintf.lto_priv.148+0x92>
 80018fc:	f89e 3000 	ldrb.w	r3, [lr]
 8001900:	b30b      	cbz	r3, 8001946 <chprintf.lto_priv.148+0x186>
 8001902:	f1a3 0144 	sub.w	r1, r3, #68	; 0x44
 8001906:	2934      	cmp	r1, #52	; 0x34
 8001908:	f200 80c9 	bhi.w	8001a9e <chprintf.lto_priv.148+0x2de>
 800190c:	e8df f001 	tbb	[pc, r1]
 8001910:	c7c7c7d7 	.word	0xc7c7c7d7
 8001914:	c7c7d7c7 	.word	0xc7c7d7c7
 8001918:	c2c7c7c7 	.word	0xc2c7c7c7
 800191c:	c7c7c7c7 	.word	0xc7c7c7c7
 8001920:	c7c793c7 	.word	0xc7c793c7
 8001924:	c7c7c7d4 	.word	0xc7c7c7d4
 8001928:	c7c7c7c7 	.word	0xc7c7c7c7
 800192c:	41c7c7c7 	.word	0x41c7c7c7
 8001930:	c7c7c7d7 	.word	0xc7c7c7d7
 8001934:	c7c7d7c7 	.word	0xc7c7d7c7
 8001938:	c2c7c7c7 	.word	0xc2c7c7c7
 800193c:	1fc7c7c7 	.word	0x1fc7c7c7
 8001940:	c7c793c7 	.word	0xc7c793c7
 8001944:	d4          	.byte	0xd4
 8001945:	00          	.byte	0x00
 8001946:	460b      	mov	r3, r1
 8001948:	4676      	mov	r6, lr
 800194a:	e7da      	b.n	8001902 <chprintf.lto_priv.148+0x142>
 800194c:	4676      	mov	r6, lr
 800194e:	f8d7 9000 	ldr.w	r9, [r7]
 8001952:	3704      	adds	r7, #4
 8001954:	f1b9 0f00 	cmp.w	r9, #0
 8001958:	f000 80fd 	beq.w	8001b56 <chprintf.lto_priv.148+0x396>
 800195c:	f899 3000 	ldrb.w	r3, [r9]
 8001960:	4648      	mov	r0, r9
 8001962:	2a00      	cmp	r2, #0
 8001964:	f040 80fe 	bne.w	8001b64 <chprintf.lto_priv.148+0x3a4>
 8001968:	2b00      	cmp	r3, #0
 800196a:	f000 810c 	beq.w	8001b86 <chprintf.lto_priv.148+0x3c6>
 800196e:	f647 72fe 	movw	r2, #32766	; 0x7ffe
 8001972:	464b      	mov	r3, r9
 8001974:	e001      	b.n	800197a <chprintf.lto_priv.148+0x1ba>
 8001976:	3a01      	subs	r2, #1
 8001978:	d403      	bmi.n	8001982 <chprintf.lto_priv.148+0x1c2>
 800197a:	f813 1f01 	ldrb.w	r1, [r3, #1]!
 800197e:	2900      	cmp	r1, #0
 8001980:	d1f9      	bne.n	8001976 <chprintf.lto_priv.148+0x1b6>
 8001982:	1a1b      	subs	r3, r3, r0
 8001984:	1aed      	subs	r5, r5, r3
 8001986:	3b01      	subs	r3, #1
 8001988:	9300      	str	r3, [sp, #0]
 800198a:	f04f 0a20 	mov.w	sl, #32
 800198e:	e00b      	b.n	80019a8 <chprintf.lto_priv.148+0x1e8>
 8001990:	4676      	mov	r6, lr
 8001992:	f10d 0918 	add.w	r9, sp, #24
 8001996:	683b      	ldr	r3, [r7, #0]
 8001998:	f809 3d0c 	strb.w	r3, [r9, #-12]!
 800199c:	2300      	movs	r3, #0
 800199e:	3d01      	subs	r5, #1
 80019a0:	3704      	adds	r7, #4
 80019a2:	9300      	str	r3, [sp, #0]
 80019a4:	f04f 0a20 	mov.w	sl, #32
 80019a8:	2d00      	cmp	r5, #0
 80019aa:	db1e      	blt.n	80019ea <chprintf.lto_priv.148+0x22a>
 80019ac:	f1bc 0f00 	cmp.w	ip, #0
 80019b0:	d17e      	bne.n	8001ab0 <chprintf.lto_priv.148+0x2f0>
 80019b2:	426b      	negs	r3, r5
 80019b4:	2d00      	cmp	r5, #0
 80019b6:	d07a      	beq.n	8001aae <chprintf.lto_priv.148+0x2ee>
 80019b8:	f899 1000 	ldrb.w	r1, [r9]
 80019bc:	6822      	ldr	r2, [r4, #0]
 80019be:	292d      	cmp	r1, #45	; 0x2d
 80019c0:	6892      	ldr	r2, [r2, #8]
 80019c2:	f000 80a8 	beq.w	8001b16 <chprintf.lto_priv.148+0x356>
 80019c6:	469b      	mov	fp, r3
 80019c8:	e001      	b.n	80019ce <chprintf.lto_priv.148+0x20e>
 80019ca:	6823      	ldr	r3, [r4, #0]
 80019cc:	689a      	ldr	r2, [r3, #8]
 80019ce:	4651      	mov	r1, sl
 80019d0:	4620      	mov	r0, r4
 80019d2:	4790      	blx	r2
 80019d4:	f11b 0b01 	adds.w	fp, fp, #1
 80019d8:	d1f7      	bne.n	80019ca <chprintf.lto_priv.148+0x20a>
 80019da:	9a00      	ldr	r2, [sp, #0]
 80019dc:	2a00      	cmp	r2, #0
 80019de:	465b      	mov	r3, fp
 80019e0:	44a8      	add	r8, r5
 80019e2:	f6ff aef8 	blt.w	80017d6 <chprintf.lto_priv.148+0x16>
 80019e6:	461d      	mov	r5, r3
 80019e8:	e004      	b.n	80019f4 <chprintf.lto_priv.148+0x234>
 80019ea:	9b00      	ldr	r3, [sp, #0]
 80019ec:	2b00      	cmp	r3, #0
 80019ee:	f6ff aef2 	blt.w	80017d6 <chprintf.lto_priv.148+0x16>
 80019f2:	2500      	movs	r5, #0
 80019f4:	f8dd b000 	ldr.w	fp, [sp]
 80019f8:	6823      	ldr	r3, [r4, #0]
 80019fa:	f819 1b01 	ldrb.w	r1, [r9], #1
 80019fe:	689b      	ldr	r3, [r3, #8]
 8001a00:	f10b 3bff 	add.w	fp, fp, #4294967295	; 0xffffffff
 8001a04:	4620      	mov	r0, r4
 8001a06:	4798      	blx	r3
 8001a08:	f1bb 3fff 	cmp.w	fp, #4294967295	; 0xffffffff
 8001a0c:	d1f4      	bne.n	80019f8 <chprintf.lto_priv.148+0x238>
 8001a0e:	9b00      	ldr	r3, [sp, #0]
 8001a10:	f108 0801 	add.w	r8, r8, #1
 8001a14:	4443      	add	r3, r8
 8001a16:	4698      	mov	r8, r3
 8001a18:	2d00      	cmp	r5, #0
 8001a1a:	f43f aedc 	beq.w	80017d6 <chprintf.lto_priv.148+0x16>
 8001a1e:	46a9      	mov	r9, r5
 8001a20:	6823      	ldr	r3, [r4, #0]
 8001a22:	4651      	mov	r1, sl
 8001a24:	689b      	ldr	r3, [r3, #8]
 8001a26:	4620      	mov	r0, r4
 8001a28:	4798      	blx	r3
 8001a2a:	f1b9 0901 	subs.w	r9, r9, #1
 8001a2e:	d1f7      	bne.n	8001a20 <chprintf.lto_priv.148+0x260>
 8001a30:	44a8      	add	r8, r5
 8001a32:	e6d0      	b.n	80017d6 <chprintf.lto_priv.148+0x16>
 8001a34:	4676      	mov	r6, lr
 8001a36:	f04f 090a 	mov.w	r9, #10
 8001a3a:	f857 2b04 	ldr.w	r2, [r7], #4
 8001a3e:	f10d 0117 	add.w	r1, sp, #23
 8001a42:	e000      	b.n	8001a46 <chprintf.lto_priv.148+0x286>
 8001a44:	4601      	mov	r1, r0
 8001a46:	fbb2 fef9 	udiv	lr, r2, r9
 8001a4a:	fb09 221e 	mls	r2, r9, lr, r2
 8001a4e:	f102 0330 	add.w	r3, r2, #48	; 0x30
 8001a52:	2b39      	cmp	r3, #57	; 0x39
 8001a54:	bfc8      	it	gt
 8001a56:	f102 0337 	addgt.w	r3, r2, #55	; 0x37
 8001a5a:	b2db      	uxtb	r3, r3
 8001a5c:	4672      	mov	r2, lr
 8001a5e:	f801 3c01 	strb.w	r3, [r1, #-1]
 8001a62:	1e48      	subs	r0, r1, #1
 8001a64:	2a00      	cmp	r2, #0
 8001a66:	d1ed      	bne.n	8001a44 <chprintf.lto_priv.148+0x284>
 8001a68:	f10d 0217 	add.w	r2, sp, #23
 8001a6c:	eba2 0b00 	sub.w	fp, r2, r0
 8001a70:	f10d 090c 	add.w	r9, sp, #12
 8001a74:	464a      	mov	r2, r9
 8001a76:	4458      	add	r0, fp
 8001a78:	e001      	b.n	8001a7e <chprintf.lto_priv.148+0x2be>
 8001a7a:	f811 3b01 	ldrb.w	r3, [r1], #1
 8001a7e:	f802 3b01 	strb.w	r3, [r2], #1
 8001a82:	4281      	cmp	r1, r0
 8001a84:	d1f9      	bne.n	8001a7a <chprintf.lto_priv.148+0x2ba>
 8001a86:	f10b 33ff 	add.w	r3, fp, #4294967295	; 0xffffffff
 8001a8a:	eba5 050b 	sub.w	r5, r5, fp
 8001a8e:	9300      	str	r3, [sp, #0]
 8001a90:	e78a      	b.n	80019a8 <chprintf.lto_priv.148+0x1e8>
 8001a92:	4676      	mov	r6, lr
 8001a94:	f04f 0908 	mov.w	r9, #8
 8001a98:	e7cf      	b.n	8001a3a <chprintf.lto_priv.148+0x27a>
 8001a9a:	4676      	mov	r6, lr
 8001a9c:	460b      	mov	r3, r1
 8001a9e:	f10d 0918 	add.w	r9, sp, #24
 8001aa2:	3d01      	subs	r5, #1
 8001aa4:	f809 3d0c 	strb.w	r3, [r9, #-12]!
 8001aa8:	2300      	movs	r3, #0
 8001aaa:	9300      	str	r3, [sp, #0]
 8001aac:	e77c      	b.n	80019a8 <chprintf.lto_priv.148+0x1e8>
 8001aae:	461d      	mov	r5, r3
 8001ab0:	9b00      	ldr	r3, [sp, #0]
 8001ab2:	2b00      	cmp	r3, #0
 8001ab4:	da9e      	bge.n	80019f4 <chprintf.lto_priv.148+0x234>
 8001ab6:	e7af      	b.n	8001a18 <chprintf.lto_priv.148+0x258>
 8001ab8:	f04f 0910 	mov.w	r9, #16
 8001abc:	e7bd      	b.n	8001a3a <chprintf.lto_priv.148+0x27a>
 8001abe:	1d39      	adds	r1, r7, #4
 8001ac0:	683a      	ldr	r2, [r7, #0]
 8001ac2:	460f      	mov	r7, r1
 8001ac4:	2a00      	cmp	r2, #0
 8001ac6:	db55      	blt.n	8001b74 <chprintf.lto_priv.148+0x3b4>
 8001ac8:	f10d 090c 	add.w	r9, sp, #12
 8001acc:	4648      	mov	r0, r9
 8001ace:	f100 030b 	add.w	r3, r0, #11
 8001ad2:	9300      	str	r3, [sp, #0]
 8001ad4:	4619      	mov	r1, r3
 8001ad6:	4b2f      	ldr	r3, [pc, #188]	; (8001b94 <chprintf.lto_priv.148+0x3d4>)
 8001ad8:	fba3 e302 	umull	lr, r3, r3, r2
 8001adc:	08db      	lsrs	r3, r3, #3
 8001ade:	eb03 0b83 	add.w	fp, r3, r3, lsl #2
 8001ae2:	469e      	mov	lr, r3
 8001ae4:	eba2 034b 	sub.w	r3, r2, fp, lsl #1
 8001ae8:	3330      	adds	r3, #48	; 0x30
 8001aea:	b2db      	uxtb	r3, r3
 8001aec:	4672      	mov	r2, lr
 8001aee:	f801 3d01 	strb.w	r3, [r1, #-1]!
 8001af2:	2a00      	cmp	r2, #0
 8001af4:	d1ef      	bne.n	8001ad6 <chprintf.lto_priv.148+0x316>
 8001af6:	9a00      	ldr	r2, [sp, #0]
 8001af8:	1a52      	subs	r2, r2, r1
 8001afa:	4402      	add	r2, r0
 8001afc:	e001      	b.n	8001b02 <chprintf.lto_priv.148+0x342>
 8001afe:	f811 3f01 	ldrb.w	r3, [r1, #1]!
 8001b02:	f800 3b01 	strb.w	r3, [r0], #1
 8001b06:	4290      	cmp	r0, r2
 8001b08:	d1f9      	bne.n	8001afe <chprintf.lto_priv.148+0x33e>
 8001b0a:	eba0 0009 	sub.w	r0, r0, r9
 8001b0e:	1e43      	subs	r3, r0, #1
 8001b10:	1a2d      	subs	r5, r5, r0
 8001b12:	9300      	str	r3, [sp, #0]
 8001b14:	e748      	b.n	80019a8 <chprintf.lto_priv.148+0x1e8>
 8001b16:	f1ba 0f30 	cmp.w	sl, #48	; 0x30
 8001b1a:	f47f af54 	bne.w	80019c6 <chprintf.lto_priv.148+0x206>
 8001b1e:	4620      	mov	r0, r4
 8001b20:	9301      	str	r3, [sp, #4]
 8001b22:	4790      	blx	r2
 8001b24:	9b00      	ldr	r3, [sp, #0]
 8001b26:	6822      	ldr	r2, [r4, #0]
 8001b28:	3b01      	subs	r3, #1
 8001b2a:	9300      	str	r3, [sp, #0]
 8001b2c:	9b01      	ldr	r3, [sp, #4]
 8001b2e:	6892      	ldr	r2, [r2, #8]
 8001b30:	f108 0801 	add.w	r8, r8, #1
 8001b34:	f109 0901 	add.w	r9, r9, #1
 8001b38:	469b      	mov	fp, r3
 8001b3a:	e748      	b.n	80019ce <chprintf.lto_priv.148+0x20e>
 8001b3c:	4639      	mov	r1, r7
 8001b3e:	2b19      	cmp	r3, #25
 8001b40:	f851 2b04 	ldr.w	r2, [r1], #4
 8001b44:	4676      	mov	r6, lr
 8001b46:	bf88      	it	hi
 8001b48:	460f      	movhi	r7, r1
 8001b4a:	d8bb      	bhi.n	8001ac4 <chprintf.lto_priv.148+0x304>
 8001b4c:	e7b8      	b.n	8001ac0 <chprintf.lto_priv.148+0x300>
 8001b4e:	4676      	mov	r6, lr
 8001b50:	f04f 0910 	mov.w	r9, #16
 8001b54:	e771      	b.n	8001a3a <chprintf.lto_priv.148+0x27a>
 8001b56:	4810      	ldr	r0, [pc, #64]	; (8001b98 <chprintf.lto_priv.148+0x3d8>)
 8001b58:	4681      	mov	r9, r0
 8001b5a:	2a00      	cmp	r2, #0
 8001b5c:	f43f af07 	beq.w	800196e <chprintf.lto_priv.148+0x1ae>
 8001b60:	3a01      	subs	r2, #1
 8001b62:	e706      	b.n	8001972 <chprintf.lto_priv.148+0x1b2>
 8001b64:	2b00      	cmp	r3, #0
 8001b66:	d1fb      	bne.n	8001b60 <chprintf.lto_priv.148+0x3a0>
 8001b68:	f04f 33ff 	mov.w	r3, #4294967295	; 0xffffffff
 8001b6c:	9300      	str	r3, [sp, #0]
 8001b6e:	f04f 0a20 	mov.w	sl, #32
 8001b72:	e719      	b.n	80019a8 <chprintf.lto_priv.148+0x1e8>
 8001b74:	232d      	movs	r3, #45	; 0x2d
 8001b76:	4252      	negs	r2, r2
 8001b78:	f88d 300c 	strb.w	r3, [sp, #12]
 8001b7c:	f10d 000d 	add.w	r0, sp, #13
 8001b80:	f10d 090c 	add.w	r9, sp, #12
 8001b84:	e7a3      	b.n	8001ace <chprintf.lto_priv.148+0x30e>
 8001b86:	f04f 33ff 	mov.w	r3, #4294967295	; 0xffffffff
 8001b8a:	9300      	str	r3, [sp, #0]
 8001b8c:	f04f 0a20 	mov.w	sl, #32
 8001b90:	e70c      	b.n	80019ac <chprintf.lto_priv.148+0x1ec>
 8001b92:	bf00      	nop
 8001b94:	cccccccd 	.word	0xcccccccd
 8001b98:	0800a4a0 	.word	0x0800a4a0
 8001b9c:	00000000 	.word	0x00000000

08001ba0 <cmd_write>:
 8001ba0:	2900      	cmp	r1, #0
 8001ba2:	dc18      	bgt.n	8001bd6 <cmd_write+0x36>
 8001ba4:	b570      	push	{r4, r5, r6, lr}
 8001ba6:	4604      	mov	r4, r0
 8001ba8:	4e0c      	ldr	r6, [pc, #48]	; (8001bdc <cmd_write+0x3c>)
 8001baa:	4d0d      	ldr	r5, [pc, #52]	; (8001be0 <cmd_write+0x40>)
 8001bac:	e002      	b.n	8001bb4 <cmd_write+0x14>
 8001bae:	6833      	ldr	r3, [r6, #0]
 8001bb0:	681b      	ldr	r3, [r3, #0]
 8001bb2:	4798      	blx	r3
 8001bb4:	6823      	ldr	r3, [r4, #0]
 8001bb6:	2100      	movs	r1, #0
 8001bb8:	695b      	ldr	r3, [r3, #20]
 8001bba:	4620      	mov	r0, r4
 8001bbc:	4798      	blx	r3
 8001bbe:	3001      	adds	r0, #1
 8001bc0:	f44f 6280 	mov.w	r2, #1024	; 0x400
 8001bc4:	4629      	mov	r1, r5
 8001bc6:	4805      	ldr	r0, [pc, #20]	; (8001bdc <cmd_write+0x3c>)
 8001bc8:	d0f1      	beq.n	8001bae <cmd_write+0xe>
 8001bca:	4620      	mov	r0, r4
 8001bcc:	4905      	ldr	r1, [pc, #20]	; (8001be4 <cmd_write+0x44>)
 8001bce:	e8bd 4070 	ldmia.w	sp!, {r4, r5, r6, lr}
 8001bd2:	f7ff bdf5 	b.w	80017c0 <chprintf.lto_priv.148>
 8001bd6:	4904      	ldr	r1, [pc, #16]	; (8001be8 <cmd_write+0x48>)
 8001bd8:	f7ff bdf2 	b.w	80017c0 <chprintf.lto_priv.148>
 8001bdc:	20001278 	.word	0x20001278
 8001be0:	20000800 	.word	0x20000800
 8001be4:	0800a750 	.word	0x0800a750
 8001be8:	0800a760 	.word	0x0800a760
 8001bec:	00000000 	.word	0x00000000

08001bf0 <cmd_info>:
 8001bf0:	2900      	cmp	r1, #0
 8001bf2:	dd03      	ble.n	8001bfc <cmd_info+0xc>
 8001bf4:	4a19      	ldr	r2, [pc, #100]	; (8001c5c <cmd_info+0x6c>)
 8001bf6:	491a      	ldr	r1, [pc, #104]	; (8001c60 <cmd_info+0x70>)
 8001bf8:	f7ff bde2 	b.w	80017c0 <chprintf.lto_priv.148>
 8001bfc:	b510      	push	{r4, lr}
 8001bfe:	4a19      	ldr	r2, [pc, #100]	; (8001c64 <cmd_info+0x74>)
 8001c00:	4919      	ldr	r1, [pc, #100]	; (8001c68 <cmd_info+0x78>)
 8001c02:	b082      	sub	sp, #8
 8001c04:	4604      	mov	r4, r0
 8001c06:	f7ff fddb 	bl	80017c0 <chprintf.lto_priv.148>
 8001c0a:	4a18      	ldr	r2, [pc, #96]	; (8001c6c <cmd_info+0x7c>)
 8001c0c:	4918      	ldr	r1, [pc, #96]	; (8001c70 <cmd_info+0x80>)
 8001c0e:	4620      	mov	r0, r4
 8001c10:	f7ff fdd6 	bl	80017c0 <chprintf.lto_priv.148>
 8001c14:	4a17      	ldr	r2, [pc, #92]	; (8001c74 <cmd_info+0x84>)
 8001c16:	4918      	ldr	r1, [pc, #96]	; (8001c78 <cmd_info+0x88>)
 8001c18:	4620      	mov	r0, r4
 8001c1a:	f7ff fdd1 	bl	80017c0 <chprintf.lto_priv.148>
 8001c1e:	4a17      	ldr	r2, [pc, #92]	; (8001c7c <cmd_info+0x8c>)
 8001c20:	4917      	ldr	r1, [pc, #92]	; (8001c80 <cmd_info+0x90>)
 8001c22:	4620      	mov	r0, r4
 8001c24:	f7ff fdcc 	bl	80017c0 <chprintf.lto_priv.148>
 8001c28:	4a16      	ldr	r2, [pc, #88]	; (8001c84 <cmd_info+0x94>)
 8001c2a:	4917      	ldr	r1, [pc, #92]	; (8001c88 <cmd_info+0x98>)
 8001c2c:	4620      	mov	r0, r4
 8001c2e:	f7ff fdc7 	bl	80017c0 <chprintf.lto_priv.148>
 8001c32:	4a16      	ldr	r2, [pc, #88]	; (8001c8c <cmd_info+0x9c>)
 8001c34:	4916      	ldr	r1, [pc, #88]	; (8001c90 <cmd_info+0xa0>)
 8001c36:	4620      	mov	r0, r4
 8001c38:	f7ff fdc2 	bl	80017c0 <chprintf.lto_priv.148>
 8001c3c:	4a15      	ldr	r2, [pc, #84]	; (8001c94 <cmd_info+0xa4>)
 8001c3e:	4916      	ldr	r1, [pc, #88]	; (8001c98 <cmd_info+0xa8>)
 8001c40:	4620      	mov	r0, r4
 8001c42:	f7ff fdbd 	bl	80017c0 <chprintf.lto_priv.148>
 8001c46:	4b15      	ldr	r3, [pc, #84]	; (8001c9c <cmd_info+0xac>)
 8001c48:	9300      	str	r3, [sp, #0]
 8001c4a:	4620      	mov	r0, r4
 8001c4c:	4b14      	ldr	r3, [pc, #80]	; (8001ca0 <cmd_info+0xb0>)
 8001c4e:	4a15      	ldr	r2, [pc, #84]	; (8001ca4 <cmd_info+0xb4>)
 8001c50:	4915      	ldr	r1, [pc, #84]	; (8001ca8 <cmd_info+0xb8>)
 8001c52:	f7ff fdb5 	bl	80017c0 <chprintf.lto_priv.148>
 8001c56:	b002      	add	sp, #8
 8001c58:	bd10      	pop	{r4, pc}
 8001c5a:	bf00      	nop
 8001c5c:	0800a4b0 	.word	0x0800a4b0
 8001c60:	0800a4b8 	.word	0x0800a4b8
 8001c64:	0800a4c4 	.word	0x0800a4c4
 8001c68:	0800a4cc 	.word	0x0800a4cc
 8001c6c:	0800a4e0 	.word	0x0800a4e0
 8001c70:	0800a528 	.word	0x0800a528
 8001c74:	0800a53c 	.word	0x0800a53c
 8001c78:	0800a548 	.word	0x0800a548
 8001c7c:	0800a55c 	.word	0x0800a55c
 8001c80:	0800a568 	.word	0x0800a568
 8001c84:	0800a57c 	.word	0x0800a57c
 8001c88:	0800a594 	.word	0x0800a594
 8001c8c:	0800a5a8 	.word	0x0800a5a8
 8001c90:	0800a5c4 	.word	0x0800a5c4
 8001c94:	0800a5d8 	.word	0x0800a5d8
 8001c98:	0800a5fc 	.word	0x0800a5fc
 8001c9c:	0800a638 	.word	0x0800a638
 8001ca0:	0800a610 	.word	0x0800a610
 8001ca4:	0800a614 	.word	0x0800a614
 8001ca8:	0800a620 	.word	0x0800a620
 8001cac:	00000000 	.word	0x00000000

08001cb0 <usbInitEndpointI>:
 8001cb0:	b538      	push	{r3, r4, r5, lr}
 8001cb2:	4615      	mov	r5, r2
 8001cb4:	f7fe fe64 	bl	8000980 <chDbgCheckClassI>
 8001cb8:	b180      	cbz	r0, 8001cdc <usbInitEndpointI+0x2c>
 8001cba:	7803      	ldrb	r3, [r0, #0]
 8001cbc:	2b04      	cmp	r3, #4
 8001cbe:	d108      	bne.n	8001cd2 <usbInitEndpointI+0x22>
 8001cc0:	eb00 0281 	add.w	r2, r0, r1, lsl #2
 8001cc4:	68d4      	ldr	r4, [r2, #12]
 8001cc6:	b174      	cbz	r4, 8001ce6 <usbInitEndpointI+0x36>
 8001cc8:	b672      	cpsid	i
 8001cca:	4b10      	ldr	r3, [pc, #64]	; (8001d0c <usbInitEndpointI+0x5c>)
 8001ccc:	4a10      	ldr	r2, [pc, #64]	; (8001d10 <usbInitEndpointI+0x60>)
 8001cce:	62da      	str	r2, [r3, #44]	; 0x2c
 8001cd0:	e7fe      	b.n	8001cd0 <usbInitEndpointI+0x20>
 8001cd2:	b672      	cpsid	i
 8001cd4:	4b0d      	ldr	r3, [pc, #52]	; (8001d0c <usbInitEndpointI+0x5c>)
 8001cd6:	4a0e      	ldr	r2, [pc, #56]	; (8001d10 <usbInitEndpointI+0x60>)
 8001cd8:	62da      	str	r2, [r3, #44]	; 0x2c
 8001cda:	e7fe      	b.n	8001cda <usbInitEndpointI+0x2a>
 8001cdc:	b672      	cpsid	i
 8001cde:	4b0b      	ldr	r3, [pc, #44]	; (8001d0c <usbInitEndpointI+0x5c>)
 8001ce0:	4a0b      	ldr	r2, [pc, #44]	; (8001d10 <usbInitEndpointI+0x60>)
 8001ce2:	62da      	str	r2, [r3, #44]	; 0x2c
 8001ce4:	e7fe      	b.n	8001ce4 <usbInitEndpointI+0x34>
 8001ce6:	696b      	ldr	r3, [r5, #20]
 8001ce8:	b11b      	cbz	r3, 8001cf2 <usbInitEndpointI+0x42>
 8001cea:	601c      	str	r4, [r3, #0]
 8001cec:	605c      	str	r4, [r3, #4]
 8001cee:	609c      	str	r4, [r3, #8]
 8001cf0:	60dc      	str	r4, [r3, #12]
 8001cf2:	69ab      	ldr	r3, [r5, #24]
 8001cf4:	b12b      	cbz	r3, 8001d02 <usbInitEndpointI+0x52>
 8001cf6:	2400      	movs	r4, #0
 8001cf8:	601c      	str	r4, [r3, #0]
 8001cfa:	605c      	str	r4, [r3, #4]
 8001cfc:	609c      	str	r4, [r3, #8]
 8001cfe:	60dc      	str	r4, [r3, #12]
 8001d00:	611c      	str	r4, [r3, #16]
 8001d02:	60d5      	str	r5, [r2, #12]
 8001d04:	e8bd 4038 	ldmia.w	sp!, {r3, r4, r5, lr}
 8001d08:	f7fe bc5a 	b.w	80005c0 <usb_lld_init_endpoint>
 8001d0c:	20001558 	.word	0x20001558
 8001d10:	0800a1c0 	.word	0x0800a1c0
	...

08001d20 <usb_event>:
 8001d20:	2902      	cmp	r1, #2
 8001d22:	d152      	bne.n	8001dca <usb_event+0xaa>
 8001d24:	b5f8      	push	{r3, r4, r5, r6, r7, lr}
 8001d26:	4606      	mov	r6, r0
 8001d28:	460d      	mov	r5, r1
 8001d2a:	2320      	movs	r3, #32
 8001d2c:	f383 8811 	msr	BASEPRI, r3
 8001d30:	f7fe fdee 	bl	8000910 <_stats_start_measure_crit_isr>
 8001d34:	4c25      	ldr	r4, [pc, #148]	; (8001dcc <usb_event+0xac>)
 8001d36:	f7ff f9bb 	bl	80010b0 <_dbg_check_lock_from_isr>
 8001d3a:	4630      	mov	r0, r6
 8001d3c:	4a24      	ldr	r2, [pc, #144]	; (8001dd0 <usb_event+0xb0>)
 8001d3e:	2101      	movs	r1, #1
 8001d40:	f7ff ffb6 	bl	8001cb0 <usbInitEndpointI>
 8001d44:	4a23      	ldr	r2, [pc, #140]	; (8001dd4 <usb_event+0xb4>)
 8001d46:	4629      	mov	r1, r5
 8001d48:	f7ff ffb2 	bl	8001cb0 <usbInitEndpointI>
 8001d4c:	f8d4 3254 	ldr.w	r3, [r4, #596]	; 0x254
 8001d50:	f104 070c 	add.w	r7, r4, #12
 8001d54:	681e      	ldr	r6, [r3, #0]
 8001d56:	2500      	movs	r5, #0
 8001d58:	f7fe fe12 	bl	8000980 <chDbgCheckClassI>
 8001d5c:	69a3      	ldr	r3, [r4, #24]
 8001d5e:	6263      	str	r3, [r4, #36]	; 0x24
 8001d60:	4638      	mov	r0, r7
 8001d62:	f06f 0101 	mvn.w	r1, #1
 8001d66:	6223      	str	r3, [r4, #32]
 8001d68:	6165      	str	r5, [r4, #20]
 8001d6a:	f7ff f879 	bl	8000e60 <chThdDequeueAllI>
 8001d6e:	f7fe fe07 	bl	8000980 <chDbgCheckClassI>
 8001d72:	e9d4 230f 	ldrd	r2, r3, [r4, #60]	; 0x3c
 8001d76:	f104 0030 	add.w	r0, r4, #48	; 0x30
 8001d7a:	1a9b      	subs	r3, r3, r2
 8001d7c:	f06f 0101 	mvn.w	r1, #1
 8001d80:	64a2      	str	r2, [r4, #72]	; 0x48
 8001d82:	6462      	str	r2, [r4, #68]	; 0x44
 8001d84:	63a3      	str	r3, [r4, #56]	; 0x38
 8001d86:	f7ff f86b 	bl	8000e60 <chThdDequeueAllI>
 8001d8a:	1d20      	adds	r0, r4, #4
 8001d8c:	2101      	movs	r1, #1
 8001d8e:	f7fe ff77 	bl	8000c80 <chEvtBroadcastFlagsI>
 8001d92:	f8d4 3254 	ldr.w	r3, [r4, #596]	; 0x254
 8001d96:	7959      	ldrb	r1, [r3, #5]
 8001d98:	eb06 0381 	add.w	r3, r6, r1, lsl #2
 8001d9c:	4630      	mov	r0, r6
 8001d9e:	68da      	ldr	r2, [r3, #12]
 8001da0:	6993      	ldr	r3, [r2, #24]
 8001da2:	8a52      	ldrh	r2, [r2, #18]
 8001da4:	605a      	str	r2, [r3, #4]
 8001da6:	2201      	movs	r2, #1
 8001da8:	701a      	strb	r2, [r3, #0]
 8001daa:	e9c3 5702 	strd	r5, r7, [r3, #8]
 8001dae:	f7fe fbf7 	bl	80005a0 <usb_lld_prepare_receive>
 8001db2:	f8d4 3254 	ldr.w	r3, [r4, #596]	; 0x254
 8001db6:	7959      	ldrb	r1, [r3, #5]
 8001db8:	f7fe fe22 	bl	8000a00 <usbStartReceiveI>
 8001dbc:	f7ff f960 	bl	8001080 <_dbg_check_unlock_from_isr>
 8001dc0:	f7fe fd96 	bl	80008f0 <_stats_stop_measure_crit_isr>
 8001dc4:	f385 8811 	msr	BASEPRI, r5
 8001dc8:	bdf8      	pop	{r3, r4, r5, r6, r7, pc}
 8001dca:	4770      	bx	lr
 8001dcc:	20001278 	.word	0x20001278
 8001dd0:	0800a800 	.word	0x0800a800
 8001dd4:	0800a830 	.word	0x0800a830
	...

08001de0 <chSchDoRescheduleAhead>:
 8001de0:	b570      	push	{r4, r5, r6, lr}
 8001de2:	4d17      	ldr	r5, [pc, #92]	; (8001e40 <chSchDoRescheduleAhead+0x60>)
 8001de4:	682a      	ldr	r2, [r5, #0]
 8001de6:	69ac      	ldr	r4, [r5, #24]
 8001de8:	6813      	ldr	r3, [r2, #0]
 8001dea:	68a6      	ldr	r6, [r4, #8]
 8001dec:	602b      	str	r3, [r5, #0]
 8001dee:	2001      	movs	r0, #1
 8001df0:	2100      	movs	r1, #0
 8001df2:	605d      	str	r5, [r3, #4]
 8001df4:	f882 0020 	strb.w	r0, [r2, #32]
 8001df8:	61aa      	str	r2, [r5, #24]
 8001dfa:	f884 1020 	strb.w	r1, [r4, #32]
 8001dfe:	e000      	b.n	8001e02 <chSchDoRescheduleAhead+0x22>
 8001e00:	681b      	ldr	r3, [r3, #0]
 8001e02:	689a      	ldr	r2, [r3, #8]
 8001e04:	4296      	cmp	r6, r2
 8001e06:	d3fb      	bcc.n	8001e00 <chSchDoRescheduleAhead+0x20>
 8001e08:	685a      	ldr	r2, [r3, #4]
 8001e0a:	4620      	mov	r0, r4
 8001e0c:	e9c4 3200 	strd	r3, r2, [r4]
 8001e10:	6014      	str	r4, [r2, #0]
 8001e12:	605c      	str	r4, [r3, #4]
 8001e14:	f7fe fd84 	bl	8000920 <_dbg_trace>
 8001e18:	4621      	mov	r1, r4
 8001e1a:	69a8      	ldr	r0, [r5, #24]
 8001e1c:	f7fe fd28 	bl	8000870 <_stats_ctxswc>
 8001e20:	f3ef 8309 	mrs	r3, PSP
 8001e24:	69e2      	ldr	r2, [r4, #28]
 8001e26:	3b24      	subs	r3, #36	; 0x24
 8001e28:	429a      	cmp	r2, r3
 8001e2a:	d805      	bhi.n	8001e38 <chSchDoRescheduleAhead+0x58>
 8001e2c:	4621      	mov	r1, r4
 8001e2e:	69a8      	ldr	r0, [r5, #24]
 8001e30:	e8bd 4070 	ldmia.w	sp!, {r4, r5, r6, lr}
 8001e34:	f7fe ba14 	b.w	8000260 <_port_switch>
 8001e38:	b672      	cpsid	i
 8001e3a:	4b02      	ldr	r3, [pc, #8]	; (8001e44 <chSchDoRescheduleAhead+0x64>)
 8001e3c:	62eb      	str	r3, [r5, #44]	; 0x2c
 8001e3e:	e7fe      	b.n	8001e3e <chSchDoRescheduleAhead+0x5e>
 8001e40:	20001558 	.word	0x20001558
 8001e44:	0800a470 	.word	0x0800a470
	...

08001e50 <chSchRescheduleS>:
 8001e50:	b508      	push	{r3, lr}
 8001e52:	f7fe fd85 	bl	8000960 <chDbgCheckClassS>
 8001e56:	f7fe fd93 	bl	8000980 <chDbgCheckClassI>
 8001e5a:	4b06      	ldr	r3, [pc, #24]	; (8001e74 <chSchRescheduleS+0x24>)
 8001e5c:	681a      	ldr	r2, [r3, #0]
 8001e5e:	699b      	ldr	r3, [r3, #24]
 8001e60:	6892      	ldr	r2, [r2, #8]
 8001e62:	689b      	ldr	r3, [r3, #8]
 8001e64:	429a      	cmp	r2, r3
 8001e66:	d800      	bhi.n	8001e6a <chSchRescheduleS+0x1a>
 8001e68:	bd08      	pop	{r3, pc}
 8001e6a:	e8bd 4008 	ldmia.w	sp!, {r3, lr}
 8001e6e:	f7ff bfb7 	b.w	8001de0 <chSchDoRescheduleAhead>
 8001e72:	bf00      	nop
 8001e74:	20001558 	.word	0x20001558
	...

08001e80 <chSchWakeupS>:
 8001e80:	b570      	push	{r4, r5, r6, lr}
 8001e82:	4e16      	ldr	r6, [pc, #88]	; (8001edc <chSchWakeupS+0x5c>)
 8001e84:	4604      	mov	r4, r0
 8001e86:	f7fe fd6b 	bl	8000960 <chDbgCheckClassS>
 8001e8a:	69b0      	ldr	r0, [r6, #24]
 8001e8c:	68a2      	ldr	r2, [r4, #8]
 8001e8e:	6883      	ldr	r3, [r0, #8]
 8001e90:	6261      	str	r1, [r4, #36]	; 0x24
 8001e92:	429a      	cmp	r2, r3
 8001e94:	d918      	bls.n	8001ec8 <chSchWakeupS+0x48>
 8001e96:	f7fe fe33 	bl	8000b00 <chSchReadyI>
 8001e9a:	2301      	movs	r3, #1
 8001e9c:	f884 3020 	strb.w	r3, [r4, #32]
 8001ea0:	4605      	mov	r5, r0
 8001ea2:	61b4      	str	r4, [r6, #24]
 8001ea4:	f7fe fd3c 	bl	8000920 <_dbg_trace>
 8001ea8:	4601      	mov	r1, r0
 8001eaa:	4620      	mov	r0, r4
 8001eac:	f7fe fce0 	bl	8000870 <_stats_ctxswc>
 8001eb0:	f3ef 8309 	mrs	r3, PSP
 8001eb4:	69ea      	ldr	r2, [r5, #28]
 8001eb6:	3b24      	subs	r3, #36	; 0x24
 8001eb8:	429a      	cmp	r2, r3
 8001eba:	d80a      	bhi.n	8001ed2 <chSchWakeupS+0x52>
 8001ebc:	4629      	mov	r1, r5
 8001ebe:	4620      	mov	r0, r4
 8001ec0:	e8bd 4070 	ldmia.w	sp!, {r4, r5, r6, lr}
 8001ec4:	f7fe b9cc 	b.w	8000260 <_port_switch>
 8001ec8:	4620      	mov	r0, r4
 8001eca:	e8bd 4070 	ldmia.w	sp!, {r4, r5, r6, lr}
 8001ece:	f7fe be17 	b.w	8000b00 <chSchReadyI>
 8001ed2:	b672      	cpsid	i
 8001ed4:	4b02      	ldr	r3, [pc, #8]	; (8001ee0 <chSchWakeupS+0x60>)
 8001ed6:	62f3      	str	r3, [r6, #44]	; 0x2c
 8001ed8:	e7fe      	b.n	8001ed8 <chSchWakeupS+0x58>
 8001eda:	bf00      	nop
 8001edc:	20001558 	.word	0x20001558
 8001ee0:	0800a470 	.word	0x0800a470
	...

08001ef0 <chSchGoSleepS>:
 8001ef0:	b538      	push	{r3, r4, r5, lr}
 8001ef2:	4c12      	ldr	r4, [pc, #72]	; (8001f3c <chSchGoSleepS+0x4c>)
 8001ef4:	f7fe fd34 	bl	8000960 <chDbgCheckClassS>
 8001ef8:	69a5      	ldr	r5, [r4, #24]
 8001efa:	6823      	ldr	r3, [r4, #0]
 8001efc:	f885 0020 	strb.w	r0, [r5, #32]
 8001f00:	681a      	ldr	r2, [r3, #0]
 8001f02:	6022      	str	r2, [r4, #0]
 8001f04:	2101      	movs	r1, #1
 8001f06:	6054      	str	r4, [r2, #4]
 8001f08:	4628      	mov	r0, r5
 8001f0a:	f883 1020 	strb.w	r1, [r3, #32]
 8001f0e:	61a3      	str	r3, [r4, #24]
 8001f10:	f7fe fd06 	bl	8000920 <_dbg_trace>
 8001f14:	4629      	mov	r1, r5
 8001f16:	69a0      	ldr	r0, [r4, #24]
 8001f18:	f7fe fcaa 	bl	8000870 <_stats_ctxswc>
 8001f1c:	f3ef 8309 	mrs	r3, PSP
 8001f20:	69ea      	ldr	r2, [r5, #28]
 8001f22:	3b24      	subs	r3, #36	; 0x24
 8001f24:	429a      	cmp	r2, r3
 8001f26:	d805      	bhi.n	8001f34 <chSchGoSleepS+0x44>
 8001f28:	4629      	mov	r1, r5
 8001f2a:	69a0      	ldr	r0, [r4, #24]
 8001f2c:	e8bd 4038 	ldmia.w	sp!, {r3, r4, r5, lr}
 8001f30:	f7fe b996 	b.w	8000260 <_port_switch>
 8001f34:	b672      	cpsid	i
 8001f36:	4b02      	ldr	r3, [pc, #8]	; (8001f40 <chSchGoSleepS+0x50>)
 8001f38:	62e3      	str	r3, [r4, #44]	; 0x2c
 8001f3a:	e7fe      	b.n	8001f3a <chSchGoSleepS+0x4a>
 8001f3c:	20001558 	.word	0x20001558
 8001f40:	0800a470 	.word	0x0800a470
	...

08001f50 <chMtxLockS>:
 8001f50:	b5f8      	push	{r3, r4, r5, r6, r7, lr}
 8001f52:	4e3b      	ldr	r6, [pc, #236]	; (8002040 <chMtxLockS+0xf0>)
 8001f54:	69b4      	ldr	r4, [r6, #24]
 8001f56:	f7fe fd03 	bl	8000960 <chDbgCheckClassS>
 8001f5a:	2800      	cmp	r0, #0
 8001f5c:	d033      	beq.n	8001fc6 <chMtxLockS+0x76>
 8001f5e:	4605      	mov	r5, r0
 8001f60:	6880      	ldr	r0, [r0, #8]
 8001f62:	b358      	cbz	r0, 8001fbc <chMtxLockS+0x6c>
 8001f64:	68a2      	ldr	r2, [r4, #8]
 8001f66:	6883      	ldr	r3, [r0, #8]
 8001f68:	429a      	cmp	r2, r3
 8001f6a:	d907      	bls.n	8001f7c <chMtxLockS+0x2c>
 8001f6c:	f890 3020 	ldrb.w	r3, [r0, #32]
 8001f70:	6082      	str	r2, [r0, #8]
 8001f72:	2b06      	cmp	r3, #6
 8001f74:	d04a      	beq.n	800200c <chMtxLockS+0xbc>
 8001f76:	2b07      	cmp	r3, #7
 8001f78:	d034      	beq.n	8001fe4 <chMtxLockS+0x94>
 8001f7a:	b343      	cbz	r3, 8001fce <chMtxLockS+0x7e>
 8001f7c:	462b      	mov	r3, r5
 8001f7e:	e003      	b.n	8001f88 <chMtxLockS+0x38>
 8001f80:	6899      	ldr	r1, [r3, #8]
 8001f82:	68a2      	ldr	r2, [r4, #8]
 8001f84:	4291      	cmp	r1, r2
 8001f86:	d302      	bcc.n	8001f8e <chMtxLockS+0x3e>
 8001f88:	681b      	ldr	r3, [r3, #0]
 8001f8a:	429d      	cmp	r5, r3
 8001f8c:	d1f8      	bne.n	8001f80 <chMtxLockS+0x30>
 8001f8e:	685a      	ldr	r2, [r3, #4]
 8001f90:	2006      	movs	r0, #6
 8001f92:	e9c4 3200 	strd	r3, r2, [r4]
 8001f96:	6014      	str	r4, [r2, #0]
 8001f98:	605c      	str	r4, [r3, #4]
 8001f9a:	6265      	str	r5, [r4, #36]	; 0x24
 8001f9c:	f7ff ffa8 	bl	8001ef0 <chSchGoSleepS>
 8001fa0:	68ab      	ldr	r3, [r5, #8]
 8001fa2:	42a3      	cmp	r3, r4
 8001fa4:	d003      	beq.n	8001fae <chMtxLockS+0x5e>
 8001fa6:	b672      	cpsid	i
 8001fa8:	4b26      	ldr	r3, [pc, #152]	; (8002044 <chMtxLockS+0xf4>)
 8001faa:	62f3      	str	r3, [r6, #44]	; 0x2c
 8001fac:	e7fe      	b.n	8001fac <chMtxLockS+0x5c>
 8001fae:	6be3      	ldr	r3, [r4, #60]	; 0x3c
 8001fb0:	42ab      	cmp	r3, r5
 8001fb2:	d007      	beq.n	8001fc4 <chMtxLockS+0x74>
 8001fb4:	b672      	cpsid	i
 8001fb6:	4b23      	ldr	r3, [pc, #140]	; (8002044 <chMtxLockS+0xf4>)
 8001fb8:	62f3      	str	r3, [r6, #44]	; 0x2c
 8001fba:	e7fe      	b.n	8001fba <chMtxLockS+0x6a>
 8001fbc:	6be3      	ldr	r3, [r4, #60]	; 0x3c
 8001fbe:	e9c5 4302 	strd	r4, r3, [r5, #8]
 8001fc2:	63e5      	str	r5, [r4, #60]	; 0x3c
 8001fc4:	bdf8      	pop	{r3, r4, r5, r6, r7, pc}
 8001fc6:	b672      	cpsid	i
 8001fc8:	4b1e      	ldr	r3, [pc, #120]	; (8002044 <chMtxLockS+0xf4>)
 8001fca:	62f3      	str	r3, [r6, #44]	; 0x2c
 8001fcc:	e7fe      	b.n	8001fcc <chMtxLockS+0x7c>
 8001fce:	e9d0 2300 	ldrd	r2, r3, [r0]
 8001fd2:	2101      	movs	r1, #1
 8001fd4:	f880 1020 	strb.w	r1, [r0, #32]
 8001fd8:	601a      	str	r2, [r3, #0]
 8001fda:	6802      	ldr	r2, [r0, #0]
 8001fdc:	6053      	str	r3, [r2, #4]
 8001fde:	f7fe fd8f 	bl	8000b00 <chSchReadyI>
 8001fe2:	e7cb      	b.n	8001f7c <chMtxLockS+0x2c>
 8001fe4:	e9d0 1300 	ldrd	r1, r3, [r0]
 8001fe8:	6019      	str	r1, [r3, #0]
 8001fea:	6807      	ldr	r7, [r0, #0]
 8001fec:	6a41      	ldr	r1, [r0, #36]	; 0x24
 8001fee:	607b      	str	r3, [r7, #4]
 8001ff0:	460b      	mov	r3, r1
 8001ff2:	e002      	b.n	8001ffa <chMtxLockS+0xaa>
 8001ff4:	689f      	ldr	r7, [r3, #8]
 8001ff6:	4297      	cmp	r7, r2
 8001ff8:	d302      	bcc.n	8002000 <chMtxLockS+0xb0>
 8001ffa:	681b      	ldr	r3, [r3, #0]
 8001ffc:	4299      	cmp	r1, r3
 8001ffe:	d1f9      	bne.n	8001ff4 <chMtxLockS+0xa4>
 8002000:	685a      	ldr	r2, [r3, #4]
 8002002:	e9c0 3200 	strd	r3, r2, [r0]
 8002006:	6010      	str	r0, [r2, #0]
 8002008:	6058      	str	r0, [r3, #4]
 800200a:	e7b7      	b.n	8001f7c <chMtxLockS+0x2c>
 800200c:	e9d0 1300 	ldrd	r1, r3, [r0]
 8002010:	6019      	str	r1, [r3, #0]
 8002012:	6807      	ldr	r7, [r0, #0]
 8002014:	6a41      	ldr	r1, [r0, #36]	; 0x24
 8002016:	607b      	str	r3, [r7, #4]
 8002018:	460b      	mov	r3, r1
 800201a:	e002      	b.n	8002022 <chMtxLockS+0xd2>
 800201c:	689f      	ldr	r7, [r3, #8]
 800201e:	4297      	cmp	r7, r2
 8002020:	d302      	bcc.n	8002028 <chMtxLockS+0xd8>
 8002022:	681b      	ldr	r3, [r3, #0]
 8002024:	4299      	cmp	r1, r3
 8002026:	d1f9      	bne.n	800201c <chMtxLockS+0xcc>
 8002028:	685a      	ldr	r2, [r3, #4]
 800202a:	e9c0 3200 	strd	r3, r2, [r0]
 800202e:	6010      	str	r0, [r2, #0]
 8002030:	6058      	str	r0, [r3, #4]
 8002032:	6888      	ldr	r0, [r1, #8]
 8002034:	68a2      	ldr	r2, [r4, #8]
 8002036:	6883      	ldr	r3, [r0, #8]
 8002038:	4293      	cmp	r3, r2
 800203a:	d397      	bcc.n	8001f6c <chMtxLockS+0x1c>
 800203c:	e79e      	b.n	8001f7c <chMtxLockS+0x2c>
 800203e:	bf00      	nop
 8002040:	20001558 	.word	0x20001558
 8002044:	08009f90 	.word	0x08009f90
	...

08002050 <chThdExitS>:
 8002050:	4d10      	ldr	r5, [pc, #64]	; (8002094 <chThdExitS+0x44>)
 8002052:	69ac      	ldr	r4, [r5, #24]
 8002054:	b508      	push	{r3, lr}
 8002056:	6aa3      	ldr	r3, [r4, #40]	; 0x28
 8002058:	6260      	str	r0, [r4, #36]	; 0x24
 800205a:	f104 0628 	add.w	r6, r4, #40	; 0x28
 800205e:	42b3      	cmp	r3, r6
 8002060:	d007      	beq.n	8002072 <chThdExitS+0x22>
 8002062:	681a      	ldr	r2, [r3, #0]
 8002064:	62a2      	str	r2, [r4, #40]	; 0x28
 8002066:	4618      	mov	r0, r3
 8002068:	f7fe fd4a 	bl	8000b00 <chSchReadyI>
 800206c:	6aa3      	ldr	r3, [r4, #40]	; 0x28
 800206e:	42b3      	cmp	r3, r6
 8002070:	d1f7      	bne.n	8002062 <chThdExitS+0x12>
 8002072:	f894 3021 	ldrb.w	r3, [r4, #33]	; 0x21
 8002076:	079b      	lsls	r3, r3, #30
 8002078:	d104      	bne.n	8002084 <chThdExitS+0x34>
 800207a:	e9d4 2304 	ldrd	r2, r3, [r4, #16]
 800207e:	611a      	str	r2, [r3, #16]
 8002080:	6922      	ldr	r2, [r4, #16]
 8002082:	6153      	str	r3, [r2, #20]
 8002084:	200f      	movs	r0, #15
 8002086:	f7ff ff33 	bl	8001ef0 <chSchGoSleepS>
 800208a:	b672      	cpsid	i
 800208c:	4b02      	ldr	r3, [pc, #8]	; (8002098 <chThdExitS+0x48>)
 800208e:	62eb      	str	r3, [r5, #44]	; 0x2c
 8002090:	e7fe      	b.n	8002090 <chThdExitS+0x40>
 8002092:	bf00      	nop
 8002094:	20001558 	.word	0x20001558
 8002098:	0800a130 	.word	0x0800a130
 800209c:	00000000 	.word	0x00000000

080020a0 <chSchGoSleepTimeoutS>:
 80020a0:	b530      	push	{r4, r5, lr}
 80020a2:	b087      	sub	sp, #28
 80020a4:	4605      	mov	r5, r0
 80020a6:	f7fe fc5b 	bl	8000960 <chDbgCheckClassS>
 80020aa:	1c4b      	adds	r3, r1, #1
 80020ac:	d013      	beq.n	80020d6 <chSchGoSleepTimeoutS+0x36>
 80020ae:	4c0d      	ldr	r4, [pc, #52]	; (80020e4 <chSchGoSleepTimeoutS+0x44>)
 80020b0:	4a0d      	ldr	r2, [pc, #52]	; (80020e8 <chSchGoSleepTimeoutS+0x48>)
 80020b2:	69a3      	ldr	r3, [r4, #24]
 80020b4:	a801      	add	r0, sp, #4
 80020b6:	f7fe ff43 	bl	8000f40 <chVTDoSetI>
 80020ba:	4628      	mov	r0, r5
 80020bc:	f7ff ff18 	bl	8001ef0 <chSchGoSleepS>
 80020c0:	f7fe fc5e 	bl	8000980 <chDbgCheckClassI>
 80020c4:	9b04      	ldr	r3, [sp, #16]
 80020c6:	b113      	cbz	r3, 80020ce <chSchGoSleepTimeoutS+0x2e>
 80020c8:	a801      	add	r0, sp, #4
 80020ca:	f7fe fef1 	bl	8000eb0 <chVTDoResetI>
 80020ce:	69a3      	ldr	r3, [r4, #24]
 80020d0:	6a58      	ldr	r0, [r3, #36]	; 0x24
 80020d2:	b007      	add	sp, #28
 80020d4:	bd30      	pop	{r4, r5, pc}
 80020d6:	4c03      	ldr	r4, [pc, #12]	; (80020e4 <chSchGoSleepTimeoutS+0x44>)
 80020d8:	f7ff ff0a 	bl	8001ef0 <chSchGoSleepS>
 80020dc:	69a3      	ldr	r3, [r4, #24]
 80020de:	6a58      	ldr	r0, [r3, #36]	; 0x24
 80020e0:	b007      	add	sp, #28
 80020e2:	bd30      	pop	{r4, r5, pc}
 80020e4:	20001558 	.word	0x20001558
 80020e8:	08001281 	.word	0x08001281
 80020ec:	00000000 	.word	0x00000000

080020f0 <chSemWaitTimeoutS>:
 80020f0:	b510      	push	{r4, lr}
 80020f2:	f7fe fc35 	bl	8000960 <chDbgCheckClassS>
 80020f6:	b198      	cbz	r0, 8002120 <chSemWaitTimeoutS+0x30>
 80020f8:	6883      	ldr	r3, [r0, #8]
 80020fa:	6802      	ldr	r2, [r0, #0]
 80020fc:	2b00      	cmp	r3, #0
 80020fe:	4604      	mov	r4, r0
 8002100:	db06      	blt.n	8002110 <chSemWaitTimeoutS+0x20>
 8002102:	4282      	cmp	r2, r0
 8002104:	d006      	beq.n	8002114 <chSemWaitTimeoutS+0x24>
 8002106:	b672      	cpsid	i
 8002108:	4b11      	ldr	r3, [pc, #68]	; (8002150 <chSemWaitTimeoutS+0x60>)
 800210a:	4a12      	ldr	r2, [pc, #72]	; (8002154 <chSemWaitTimeoutS+0x64>)
 800210c:	62da      	str	r2, [r3, #44]	; 0x2c
 800210e:	e7fe      	b.n	800210e <chSemWaitTimeoutS+0x1e>
 8002110:	4282      	cmp	r2, r0
 8002112:	d0f8      	beq.n	8002106 <chSemWaitTimeoutS+0x16>
 8002114:	1e5a      	subs	r2, r3, #1
 8002116:	2a00      	cmp	r2, #0
 8002118:	60a2      	str	r2, [r4, #8]
 800211a:	db06      	blt.n	800212a <chSemWaitTimeoutS+0x3a>
 800211c:	2000      	movs	r0, #0
 800211e:	bd10      	pop	{r4, pc}
 8002120:	b672      	cpsid	i
 8002122:	4b0b      	ldr	r3, [pc, #44]	; (8002150 <chSemWaitTimeoutS+0x60>)
 8002124:	4a0b      	ldr	r2, [pc, #44]	; (8002154 <chSemWaitTimeoutS+0x64>)
 8002126:	62da      	str	r2, [r3, #44]	; 0x2c
 8002128:	e7fe      	b.n	8002128 <chSemWaitTimeoutS+0x38>
 800212a:	b161      	cbz	r1, 8002146 <chSemWaitTimeoutS+0x56>
 800212c:	4b08      	ldr	r3, [pc, #32]	; (8002150 <chSemWaitTimeoutS+0x60>)
 800212e:	699b      	ldr	r3, [r3, #24]
 8002130:	625c      	str	r4, [r3, #36]	; 0x24
 8002132:	601c      	str	r4, [r3, #0]
 8002134:	6862      	ldr	r2, [r4, #4]
 8002136:	605a      	str	r2, [r3, #4]
 8002138:	2005      	movs	r0, #5
 800213a:	6013      	str	r3, [r2, #0]
 800213c:	6063      	str	r3, [r4, #4]
 800213e:	e8bd 4010 	ldmia.w	sp!, {r4, lr}
 8002142:	f7ff bfad 	b.w	80020a0 <chSchGoSleepTimeoutS>
 8002146:	60a3      	str	r3, [r4, #8]
 8002148:	f04f 30ff 	mov.w	r0, #4294967295	; 0xffffffff
 800214c:	bd10      	pop	{r4, pc}
 800214e:	bf00      	nop
 8002150:	20001558 	.word	0x20001558
 8002154:	0800a040 	.word	0x0800a040
	...

08002160 <chThdEnqueueTimeoutS>:
 8002160:	b161      	cbz	r1, 800217c <chThdEnqueueTimeoutS+0x1c>
 8002162:	4b08      	ldr	r3, [pc, #32]	; (8002184 <chThdEnqueueTimeoutS+0x24>)
 8002164:	699b      	ldr	r3, [r3, #24]
 8002166:	b410      	push	{r4}
 8002168:	6018      	str	r0, [r3, #0]
 800216a:	6844      	ldr	r4, [r0, #4]
 800216c:	605c      	str	r4, [r3, #4]
 800216e:	4602      	mov	r2, r0
 8002170:	6023      	str	r3, [r4, #0]
 8002172:	2004      	movs	r0, #4
 8002174:	6053      	str	r3, [r2, #4]
 8002176:	bc10      	pop	{r4}
 8002178:	f7ff bf92 	b.w	80020a0 <chSchGoSleepTimeoutS>
 800217c:	f04f 30ff 	mov.w	r0, #4294967295	; 0xffffffff
 8002180:	4770      	bx	lr
 8002182:	bf00      	nop
 8002184:	20001558 	.word	0x20001558
	...

08002190 <__early_init>:
 8002190:	4b23      	ldr	r3, [pc, #140]	; (8002220 <__early_init+0x90>)
 8002192:	681a      	ldr	r2, [r3, #0]
 8002194:	f042 0201 	orr.w	r2, r2, #1
 8002198:	601a      	str	r2, [r3, #0]
 800219a:	681a      	ldr	r2, [r3, #0]
 800219c:	0792      	lsls	r2, r2, #30
 800219e:	d5fc      	bpl.n	800219a <__early_init+0xa>
 80021a0:	6859      	ldr	r1, [r3, #4]
 80021a2:	4a1f      	ldr	r2, [pc, #124]	; (8002220 <__early_init+0x90>)
 80021a4:	f021 0103 	bic.w	r1, r1, #3
 80021a8:	6059      	str	r1, [r3, #4]
 80021aa:	6859      	ldr	r1, [r3, #4]
 80021ac:	6059      	str	r1, [r3, #4]
 80021ae:	6853      	ldr	r3, [r2, #4]
 80021b0:	f013 030c 	ands.w	r3, r3, #12
 80021b4:	d1fb      	bne.n	80021ae <__early_init+0x1e>
 80021b6:	6810      	ldr	r0, [r2, #0]
 80021b8:	4919      	ldr	r1, [pc, #100]	; (8002220 <__early_init+0x90>)
 80021ba:	f000 00f9 	and.w	r0, r0, #249	; 0xf9
 80021be:	6010      	str	r0, [r2, #0]
 80021c0:	6053      	str	r3, [r2, #4]
 80021c2:	6813      	ldr	r3, [r2, #0]
 80021c4:	f443 3380 	orr.w	r3, r3, #65536	; 0x10000
 80021c8:	6013      	str	r3, [r2, #0]
 80021ca:	680b      	ldr	r3, [r1, #0]
 80021cc:	0398      	lsls	r0, r3, #14
 80021ce:	d5fc      	bpl.n	80021ca <__early_init+0x3a>
 80021d0:	6a4b      	ldr	r3, [r1, #36]	; 0x24
 80021d2:	4a13      	ldr	r2, [pc, #76]	; (8002220 <__early_init+0x90>)
 80021d4:	f043 0301 	orr.w	r3, r3, #1
 80021d8:	624b      	str	r3, [r1, #36]	; 0x24
 80021da:	6a53      	ldr	r3, [r2, #36]	; 0x24
 80021dc:	0799      	lsls	r1, r3, #30
 80021de:	d5fc      	bpl.n	80021da <__early_init+0x4a>
 80021e0:	4b10      	ldr	r3, [pc, #64]	; (8002224 <__early_init+0x94>)
 80021e2:	6053      	str	r3, [r2, #4]
 80021e4:	2100      	movs	r1, #0
 80021e6:	2330      	movs	r3, #48	; 0x30
 80021e8:	62d1      	str	r1, [r2, #44]	; 0x2c
 80021ea:	6313      	str	r3, [r2, #48]	; 0x30
 80021ec:	6813      	ldr	r3, [r2, #0]
 80021ee:	f101 4180 	add.w	r1, r1, #1073741824	; 0x40000000
 80021f2:	f043 7380 	orr.w	r3, r3, #16777216	; 0x1000000
 80021f6:	f501 3104 	add.w	r1, r1, #135168	; 0x21000
 80021fa:	6013      	str	r3, [r2, #0]
 80021fc:	680b      	ldr	r3, [r1, #0]
 80021fe:	019b      	lsls	r3, r3, #6
 8002200:	d5fc      	bpl.n	80021fc <__early_init+0x6c>
 8002202:	4b09      	ldr	r3, [pc, #36]	; (8002228 <__early_init+0x98>)
 8002204:	4a06      	ldr	r2, [pc, #24]	; (8002220 <__early_init+0x90>)
 8002206:	2012      	movs	r0, #18
 8002208:	6018      	str	r0, [r3, #0]
 800220a:	684b      	ldr	r3, [r1, #4]
 800220c:	f043 0302 	orr.w	r3, r3, #2
 8002210:	604b      	str	r3, [r1, #4]
 8002212:	6853      	ldr	r3, [r2, #4]
 8002214:	f003 030c 	and.w	r3, r3, #12
 8002218:	2b08      	cmp	r3, #8
 800221a:	d1fa      	bne.n	8002212 <__early_init+0x82>
 800221c:	4770      	bx	lr
 800221e:	bf00      	nop
 8002220:	40021000 	.word	0x40021000
 8002224:	a81d6400 	.word	0xa81d6400
 8002228:	40022000 	.word	0x40022000
 800222c:	00000000 	.word	0x00000000

08002230 <_stats_stop_measure_crit_thd>:
 8002230:	4801      	ldr	r0, [pc, #4]	; (8002238 <_stats_stop_measure_crit_thd+0x8>)
 8002232:	f7fe bb35 	b.w	80008a0 <chTMStopMeasurementX>
 8002236:	bf00      	nop
 8002238:	20001a08 	.word	0x20001a08
 800223c:	00000000 	.word	0x00000000

08002240 <_stats_start_measure_crit_thd>:
 8002240:	4801      	ldr	r0, [pc, #4]	; (8002248 <_stats_start_measure_crit_thd+0x8>)
 8002242:	f7fe bb5d 	b.w	8000900 <chTMStartMeasurementX>
 8002246:	bf00      	nop
 8002248:	20001a08 	.word	0x20001a08
 800224c:	00000000 	.word	0x00000000

08002250 <chSchDoReschedule>:
 8002250:	f7ff bdc6 	b.w	8001de0 <chSchDoRescheduleAhead>
	...

08002260 <_dbg_check_unlock>:
 8002260:	4b05      	ldr	r3, [pc, #20]	; (8002278 <_dbg_check_unlock+0x18>)
 8002262:	6b1a      	ldr	r2, [r3, #48]	; 0x30
 8002264:	b922      	cbnz	r2, 8002270 <_dbg_check_unlock+0x10>
 8002266:	6b59      	ldr	r1, [r3, #52]	; 0x34
 8002268:	2900      	cmp	r1, #0
 800226a:	dd01      	ble.n	8002270 <_dbg_check_unlock+0x10>
 800226c:	635a      	str	r2, [r3, #52]	; 0x34
 800226e:	4770      	bx	lr
 8002270:	b672      	cpsid	i
 8002272:	4a02      	ldr	r2, [pc, #8]	; (800227c <_dbg_check_unlock+0x1c>)
 8002274:	62da      	str	r2, [r3, #44]	; 0x2c
 8002276:	e7fe      	b.n	8002276 <_dbg_check_unlock+0x16>
 8002278:	20001558 	.word	0x20001558
 800227c:	0800a2a0 	.word	0x0800a2a0

08002280 <chSysUnlock.lto_priv.88>:
 8002280:	b508      	push	{r3, lr}
 8002282:	f7ff ffed 	bl	8002260 <_dbg_check_unlock>
 8002286:	f7ff ffd3 	bl	8002230 <_stats_stop_measure_crit_thd>
 800228a:	4b08      	ldr	r3, [pc, #32]	; (80022ac <chSysUnlock.lto_priv.88+0x2c>)
 800228c:	681a      	ldr	r2, [r3, #0]
 800228e:	429a      	cmp	r2, r3
 8002290:	d004      	beq.n	800229c <chSysUnlock.lto_priv.88+0x1c>
 8002292:	6999      	ldr	r1, [r3, #24]
 8002294:	6892      	ldr	r2, [r2, #8]
 8002296:	6889      	ldr	r1, [r1, #8]
 8002298:	4291      	cmp	r1, r2
 800229a:	d303      	bcc.n	80022a4 <chSysUnlock.lto_priv.88+0x24>
 800229c:	2300      	movs	r3, #0
 800229e:	f383 8811 	msr	BASEPRI, r3
 80022a2:	bd08      	pop	{r3, pc}
 80022a4:	b672      	cpsid	i
 80022a6:	4a02      	ldr	r2, [pc, #8]	; (80022b0 <chSysUnlock.lto_priv.88+0x30>)
 80022a8:	62da      	str	r2, [r3, #44]	; 0x2c
 80022aa:	e7fe      	b.n	80022aa <chSysUnlock.lto_priv.88+0x2a>
 80022ac:	20001558 	.word	0x20001558
 80022b0:	08009dd0 	.word	0x08009dd0
	...

080022c0 <chSysUnlock.lto_priv.90>:
 80022c0:	b508      	push	{r3, lr}
 80022c2:	f7ff ffcd 	bl	8002260 <_dbg_check_unlock>
 80022c6:	f7ff ffb3 	bl	8002230 <_stats_stop_measure_crit_thd>
 80022ca:	4b08      	ldr	r3, [pc, #32]	; (80022ec <chSysUnlock.lto_priv.90+0x2c>)
 80022cc:	681a      	ldr	r2, [r3, #0]
 80022ce:	429a      	cmp	r2, r3
 80022d0:	d004      	beq.n	80022dc <chSysUnlock.lto_priv.90+0x1c>
 80022d2:	6999      	ldr	r1, [r3, #24]
 80022d4:	6892      	ldr	r2, [r2, #8]
 80022d6:	6889      	ldr	r1, [r1, #8]
 80022d8:	4291      	cmp	r1, r2
 80022da:	d303      	bcc.n	80022e4 <chSysUnlock.lto_priv.90+0x24>
 80022dc:	2300      	movs	r3, #0
 80022de:	f383 8811 	msr	BASEPRI, r3
 80022e2:	bd08      	pop	{r3, pc}
 80022e4:	b672      	cpsid	i
 80022e6:	4a02      	ldr	r2, [pc, #8]	; (80022f0 <chSysUnlock.lto_priv.90+0x30>)
 80022e8:	62da      	str	r2, [r3, #44]	; 0x2c
 80022ea:	e7fe      	b.n	80022ea <chSysUnlock.lto_priv.90+0x2a>
 80022ec:	20001558 	.word	0x20001558
 80022f0:	08009df0 	.word	0x08009df0
	...

08002300 <chSysUnlock.lto_priv.102>:
 8002300:	b508      	push	{r3, lr}
 8002302:	f7ff ffad 	bl	8002260 <_dbg_check_unlock>
 8002306:	f7ff ff93 	bl	8002230 <_stats_stop_measure_crit_thd>
 800230a:	4b08      	ldr	r3, [pc, #32]	; (800232c <chSysUnlock.lto_priv.102+0x2c>)
 800230c:	681a      	ldr	r2, [r3, #0]
 800230e:	429a      	cmp	r2, r3
 8002310:	d004      	beq.n	800231c <chSysUnlock.lto_priv.102+0x1c>
 8002312:	6999      	ldr	r1, [r3, #24]
 8002314:	6892      	ldr	r2, [r2, #8]
 8002316:	6889      	ldr	r1, [r1, #8]
 8002318:	4291      	cmp	r1, r2
 800231a:	d303      	bcc.n	8002324 <chSysUnlock.lto_priv.102+0x24>
 800231c:	2300      	movs	r3, #0
 800231e:	f383 8811 	msr	BASEPRI, r3
 8002322:	bd08      	pop	{r3, pc}
 8002324:	b672      	cpsid	i
 8002326:	4a02      	ldr	r2, [pc, #8]	; (8002330 <chSysUnlock.lto_priv.102+0x30>)
 8002328:	62da      	str	r2, [r3, #44]	; 0x2c
 800232a:	e7fe      	b.n	800232a <chSysUnlock.lto_priv.102+0x2a>
 800232c:	20001558 	.word	0x20001558
 8002330:	08009ea0 	.word	0x08009ea0
	...

08002340 <chSysUnlock.lto_priv.101>:
 8002340:	b508      	push	{r3, lr}
 8002342:	f7ff ff8d 	bl	8002260 <_dbg_check_unlock>
 8002346:	f7ff ff73 	bl	8002230 <_stats_stop_measure_crit_thd>
 800234a:	4b08      	ldr	r3, [pc, #32]	; (800236c <chSysUnlock.lto_priv.101+0x2c>)
 800234c:	681a      	ldr	r2, [r3, #0]
 800234e:	429a      	cmp	r2, r3
 8002350:	d004      	beq.n	800235c <chSysUnlock.lto_priv.101+0x1c>
 8002352:	6999      	ldr	r1, [r3, #24]
 8002354:	6892      	ldr	r2, [r2, #8]
 8002356:	6889      	ldr	r1, [r1, #8]
 8002358:	4291      	cmp	r1, r2
 800235a:	d303      	bcc.n	8002364 <chSysUnlock.lto_priv.101+0x24>
 800235c:	2300      	movs	r3, #0
 800235e:	f383 8811 	msr	BASEPRI, r3
 8002362:	bd08      	pop	{r3, pc}
 8002364:	b672      	cpsid	i
 8002366:	4a02      	ldr	r2, [pc, #8]	; (8002370 <chSysUnlock.lto_priv.101+0x30>)
 8002368:	62da      	str	r2, [r3, #44]	; 0x2c
 800236a:	e7fe      	b.n	800236a <chSysUnlock.lto_priv.101+0x2a>
 800236c:	20001558 	.word	0x20001558
 8002370:	08009e90 	.word	0x08009e90
	...

08002380 <chSysUnlock.lto_priv.100>:
 8002380:	b508      	push	{r3, lr}
 8002382:	f7ff ff6d 	bl	8002260 <_dbg_check_unlock>
 8002386:	f7ff ff53 	bl	8002230 <_stats_stop_measure_crit_thd>
 800238a:	4b08      	ldr	r3, [pc, #32]	; (80023ac <chSysUnlock.lto_priv.100+0x2c>)
 800238c:	681a      	ldr	r2, [r3, #0]
 800238e:	429a      	cmp	r2, r3
 8002390:	d004      	beq.n	800239c <chSysUnlock.lto_priv.100+0x1c>
 8002392:	6999      	ldr	r1, [r3, #24]
 8002394:	6892      	ldr	r2, [r2, #8]
 8002396:	6889      	ldr	r1, [r1, #8]
 8002398:	4291      	cmp	r1, r2
 800239a:	d303      	bcc.n	80023a4 <chSysUnlock.lto_priv.100+0x24>
 800239c:	2300      	movs	r3, #0
 800239e:	f383 8811 	msr	BASEPRI, r3
 80023a2:	bd08      	pop	{r3, pc}
 80023a4:	b672      	cpsid	i
 80023a6:	4a02      	ldr	r2, [pc, #8]	; (80023b0 <chSysUnlock.lto_priv.100+0x30>)
 80023a8:	62da      	str	r2, [r3, #44]	; 0x2c
 80023aa:	e7fe      	b.n	80023aa <chSysUnlock.lto_priv.100+0x2a>
 80023ac:	20001558 	.word	0x20001558
 80023b0:	08009e80 	.word	0x08009e80
	...

080023c0 <chSysRestoreStatusX>:
 80023c0:	b9c8      	cbnz	r0, 80023f6 <chSysRestoreStatusX+0x36>
 80023c2:	b510      	push	{r4, lr}
 80023c4:	4604      	mov	r4, r0
 80023c6:	f3ef 8305 	mrs	r3, IPSR
 80023ca:	f3c3 0308 	ubfx	r3, r3, #0, #9
 80023ce:	b99b      	cbnz	r3, 80023f8 <chSysRestoreStatusX+0x38>
 80023d0:	f7ff fd3e 	bl	8001e50 <chSchRescheduleS>
 80023d4:	f7ff ff44 	bl	8002260 <_dbg_check_unlock>
 80023d8:	f7ff ff2a 	bl	8002230 <_stats_stop_measure_crit_thd>
 80023dc:	4b0c      	ldr	r3, [pc, #48]	; (8002410 <chSysRestoreStatusX+0x50>)
 80023de:	681a      	ldr	r2, [r3, #0]
 80023e0:	429a      	cmp	r2, r3
 80023e2:	d010      	beq.n	8002406 <chSysRestoreStatusX+0x46>
 80023e4:	6999      	ldr	r1, [r3, #24]
 80023e6:	6892      	ldr	r2, [r2, #8]
 80023e8:	6889      	ldr	r1, [r1, #8]
 80023ea:	4291      	cmp	r1, r2
 80023ec:	d20b      	bcs.n	8002406 <chSysRestoreStatusX+0x46>
 80023ee:	b672      	cpsid	i
 80023f0:	4a08      	ldr	r2, [pc, #32]	; (8002414 <chSysRestoreStatusX+0x54>)
 80023f2:	62da      	str	r2, [r3, #44]	; 0x2c
 80023f4:	e7fe      	b.n	80023f4 <chSysRestoreStatusX+0x34>
 80023f6:	4770      	bx	lr
 80023f8:	f7fe fe42 	bl	8001080 <_dbg_check_unlock_from_isr>
 80023fc:	f7fe fa78 	bl	80008f0 <_stats_stop_measure_crit_isr>
 8002400:	f384 8811 	msr	BASEPRI, r4
 8002404:	bd10      	pop	{r4, pc}
 8002406:	2300      	movs	r3, #0
 8002408:	f383 8811 	msr	BASEPRI, r3
 800240c:	bd10      	pop	{r4, pc}
 800240e:	bf00      	nop
 8002410:	20001558 	.word	0x20001558
 8002414:	08009d60 	.word	0x08009d60
	...

08002420 <_dbg_check_lock>:
 8002420:	4b05      	ldr	r3, [pc, #20]	; (8002438 <_dbg_check_lock+0x18>)
 8002422:	6b1a      	ldr	r2, [r3, #48]	; 0x30
 8002424:	b90a      	cbnz	r2, 800242a <_dbg_check_lock+0xa>
 8002426:	6b5a      	ldr	r2, [r3, #52]	; 0x34
 8002428:	b11a      	cbz	r2, 8002432 <_dbg_check_lock+0x12>
 800242a:	b672      	cpsid	i
 800242c:	4a03      	ldr	r2, [pc, #12]	; (800243c <_dbg_check_lock+0x1c>)
 800242e:	62da      	str	r2, [r3, #44]	; 0x2c
 8002430:	e7fe      	b.n	8002430 <_dbg_check_lock+0x10>
 8002432:	2201      	movs	r2, #1
 8002434:	635a      	str	r2, [r3, #52]	; 0x34
 8002436:	4770      	bx	lr
 8002438:	20001558 	.word	0x20001558
 800243c:	0800a270 	.word	0x0800a270

08002440 <chSemReset.constprop.71>:
 8002440:	b508      	push	{r3, lr}
 8002442:	4601      	mov	r1, r0
 8002444:	2320      	movs	r3, #32
 8002446:	f383 8811 	msr	BASEPRI, r3
 800244a:	f7ff fef9 	bl	8002240 <_stats_start_measure_crit_thd>
 800244e:	f7ff ffe7 	bl	8002420 <_dbg_check_lock>
 8002452:	4608      	mov	r0, r1
 8002454:	2100      	movs	r1, #0
 8002456:	f7fe fcd3 	bl	8000e00 <chSemResetI>
 800245a:	f7ff fcf9 	bl	8001e50 <chSchRescheduleS>
 800245e:	f7ff feff 	bl	8002260 <_dbg_check_unlock>
 8002462:	f7ff fee5 	bl	8002230 <_stats_stop_measure_crit_thd>
 8002466:	4b08      	ldr	r3, [pc, #32]	; (8002488 <chSemReset.constprop.71+0x48>)
 8002468:	681a      	ldr	r2, [r3, #0]
 800246a:	429a      	cmp	r2, r3
 800246c:	d004      	beq.n	8002478 <chSemReset.constprop.71+0x38>
 800246e:	6999      	ldr	r1, [r3, #24]
 8002470:	6892      	ldr	r2, [r2, #8]
 8002472:	6889      	ldr	r1, [r1, #8]
 8002474:	4291      	cmp	r1, r2
 8002476:	d303      	bcc.n	8002480 <chSemReset.constprop.71+0x40>
 8002478:	2300      	movs	r3, #0
 800247a:	f383 8811 	msr	BASEPRI, r3
 800247e:	bd08      	pop	{r3, pc}
 8002480:	b672      	cpsid	i
 8002482:	4a02      	ldr	r2, [pc, #8]	; (800248c <chSemReset.constprop.71+0x4c>)
 8002484:	62da      	str	r2, [r3, #44]	; 0x2c
 8002486:	e7fe      	b.n	8002486 <chSemReset.constprop.71+0x46>
 8002488:	20001558 	.word	0x20001558
 800248c:	08009da0 	.word	0x08009da0

08002490 <chSemWaitTimeout.constprop.70>:
 8002490:	b510      	push	{r4, lr}
 8002492:	4601      	mov	r1, r0
 8002494:	2320      	movs	r3, #32
 8002496:	f383 8811 	msr	BASEPRI, r3
 800249a:	f7ff fed1 	bl	8002240 <_stats_start_measure_crit_thd>
 800249e:	f7ff ffbf 	bl	8002420 <_dbg_check_lock>
 80024a2:	480d      	ldr	r0, [pc, #52]	; (80024d8 <chSemWaitTimeout.constprop.70+0x48>)
 80024a4:	f7ff fe24 	bl	80020f0 <chSemWaitTimeoutS>
 80024a8:	4604      	mov	r4, r0
 80024aa:	f7ff fed9 	bl	8002260 <_dbg_check_unlock>
 80024ae:	f7ff febf 	bl	8002230 <_stats_stop_measure_crit_thd>
 80024b2:	4b0a      	ldr	r3, [pc, #40]	; (80024dc <chSemWaitTimeout.constprop.70+0x4c>)
 80024b4:	681a      	ldr	r2, [r3, #0]
 80024b6:	429a      	cmp	r2, r3
 80024b8:	d004      	beq.n	80024c4 <chSemWaitTimeout.constprop.70+0x34>
 80024ba:	6999      	ldr	r1, [r3, #24]
 80024bc:	6892      	ldr	r2, [r2, #8]
 80024be:	6889      	ldr	r1, [r1, #8]
 80024c0:	4291      	cmp	r1, r2
 80024c2:	d304      	bcc.n	80024ce <chSemWaitTimeout.constprop.70+0x3e>
 80024c4:	2300      	movs	r3, #0
 80024c6:	f383 8811 	msr	BASEPRI, r3
 80024ca:	4620      	mov	r0, r4
 80024cc:	bd10      	pop	{r4, pc}
 80024ce:	b672      	cpsid	i
 80024d0:	4a03      	ldr	r2, [pc, #12]	; (80024e0 <chSemWaitTimeout.constprop.70+0x50>)
 80024d2:	62da      	str	r2, [r3, #44]	; 0x2c
 80024d4:	e7fe      	b.n	80024d4 <chSemWaitTimeout.constprop.70+0x44>
 80024d6:	bf00      	nop
 80024d8:	20000cd0 	.word	0x20000cd0
 80024dc:	20001558 	.word	0x20001558
 80024e0:	08009da0 	.word	0x08009da0
	...

080024f0 <chSemSignalWait.constprop.68>:
 80024f0:	b570      	push	{r4, r5, r6, lr}
 80024f2:	4c26      	ldr	r4, [pc, #152]	; (800258c <chSemSignalWait.constprop.68+0x9c>)
 80024f4:	68a2      	ldr	r2, [r4, #8]
 80024f6:	6823      	ldr	r3, [r4, #0]
 80024f8:	2a00      	cmp	r2, #0
 80024fa:	db06      	blt.n	800250a <chSemSignalWait.constprop.68+0x1a>
 80024fc:	42a3      	cmp	r3, r4
 80024fe:	d006      	beq.n	800250e <chSemSignalWait.constprop.68+0x1e>
 8002500:	b672      	cpsid	i
 8002502:	4b23      	ldr	r3, [pc, #140]	; (8002590 <chSemSignalWait.constprop.68+0xa0>)
 8002504:	4a23      	ldr	r2, [pc, #140]	; (8002594 <chSemSignalWait.constprop.68+0xa4>)
 8002506:	62da      	str	r2, [r3, #44]	; 0x2c
 8002508:	e7fe      	b.n	8002508 <chSemSignalWait.constprop.68+0x18>
 800250a:	42a3      	cmp	r3, r4
 800250c:	d0f8      	beq.n	8002500 <chSemSignalWait.constprop.68+0x10>
 800250e:	2320      	movs	r3, #32
 8002510:	f383 8811 	msr	BASEPRI, r3
 8002514:	f7ff fe94 	bl	8002240 <_stats_start_measure_crit_thd>
 8002518:	f7ff ff82 	bl	8002420 <_dbg_check_lock>
 800251c:	68a3      	ldr	r3, [r4, #8]
 800251e:	3301      	adds	r3, #1
 8002520:	2b00      	cmp	r3, #0
 8002522:	60a3      	str	r3, [r4, #8]
 8002524:	dc07      	bgt.n	8002536 <chSemSignalWait.constprop.68+0x46>
 8002526:	6820      	ldr	r0, [r4, #0]
 8002528:	6803      	ldr	r3, [r0, #0]
 800252a:	6023      	str	r3, [r4, #0]
 800252c:	605c      	str	r4, [r3, #4]
 800252e:	f7fe fae7 	bl	8000b00 <chSchReadyI>
 8002532:	2300      	movs	r3, #0
 8002534:	6243      	str	r3, [r0, #36]	; 0x24
 8002536:	68a3      	ldr	r3, [r4, #8]
 8002538:	3b01      	subs	r3, #1
 800253a:	2b00      	cmp	r3, #0
 800253c:	60a3      	str	r3, [r4, #8]
 800253e:	db14      	blt.n	800256a <chSemSignalWait.constprop.68+0x7a>
 8002540:	f7ff fc86 	bl	8001e50 <chSchRescheduleS>
 8002544:	4d12      	ldr	r5, [pc, #72]	; (8002590 <chSemSignalWait.constprop.68+0xa0>)
 8002546:	2400      	movs	r4, #0
 8002548:	f7ff fe8a 	bl	8002260 <_dbg_check_unlock>
 800254c:	f7ff fe70 	bl	8002230 <_stats_stop_measure_crit_thd>
 8002550:	682b      	ldr	r3, [r5, #0]
 8002552:	42ab      	cmp	r3, r5
 8002554:	d004      	beq.n	8002560 <chSemSignalWait.constprop.68+0x70>
 8002556:	69aa      	ldr	r2, [r5, #24]
 8002558:	689b      	ldr	r3, [r3, #8]
 800255a:	6892      	ldr	r2, [r2, #8]
 800255c:	429a      	cmp	r2, r3
 800255e:	d311      	bcc.n	8002584 <chSemSignalWait.constprop.68+0x94>
 8002560:	2300      	movs	r3, #0
 8002562:	f383 8811 	msr	BASEPRI, r3
 8002566:	4620      	mov	r0, r4
 8002568:	bd70      	pop	{r4, r5, r6, pc}
 800256a:	4d09      	ldr	r5, [pc, #36]	; (8002590 <chSemSignalWait.constprop.68+0xa0>)
 800256c:	6863      	ldr	r3, [r4, #4]
 800256e:	69ae      	ldr	r6, [r5, #24]
 8002570:	2005      	movs	r0, #5
 8002572:	e9c6 4300 	strd	r4, r3, [r6]
 8002576:	601e      	str	r6, [r3, #0]
 8002578:	6274      	str	r4, [r6, #36]	; 0x24
 800257a:	6066      	str	r6, [r4, #4]
 800257c:	f7ff fcb8 	bl	8001ef0 <chSchGoSleepS>
 8002580:	6a74      	ldr	r4, [r6, #36]	; 0x24
 8002582:	e7e1      	b.n	8002548 <chSemSignalWait.constprop.68+0x58>
 8002584:	b672      	cpsid	i
 8002586:	4b04      	ldr	r3, [pc, #16]	; (8002598 <chSemSignalWait.constprop.68+0xa8>)
 8002588:	62eb      	str	r3, [r5, #44]	; 0x2c
 800258a:	e7fe      	b.n	800258a <chSemSignalWait.constprop.68+0x9a>
 800258c:	20000cd0 	.word	0x20000cd0
 8002590:	20001558 	.word	0x20001558
 8002594:	0800a110 	.word	0x0800a110
 8002598:	08009da0 	.word	0x08009da0
 800259c:	00000000 	.word	0x00000000

080025a0 <chMtxTryLock.constprop.65>:
 80025a0:	b538      	push	{r3, r4, r5, lr}
 80025a2:	2320      	movs	r3, #32
 80025a4:	f383 8811 	msr	BASEPRI, r3
 80025a8:	f7ff fe4a 	bl	8002240 <_stats_start_measure_crit_thd>
 80025ac:	f7ff ff38 	bl	8002420 <_dbg_check_lock>
 80025b0:	f7fe f9d6 	bl	8000960 <chDbgCheckClassS>
 80025b4:	4b10      	ldr	r3, [pc, #64]	; (80025f8 <chMtxTryLock.constprop.65+0x58>)
 80025b6:	4c11      	ldr	r4, [pc, #68]	; (80025fc <chMtxTryLock.constprop.65+0x5c>)
 80025b8:	689a      	ldr	r2, [r3, #8]
 80025ba:	b18a      	cbz	r2, 80025e0 <chMtxTryLock.constprop.65+0x40>
 80025bc:	2500      	movs	r5, #0
 80025be:	f7ff fe4f 	bl	8002260 <_dbg_check_unlock>
 80025c2:	f7ff fe35 	bl	8002230 <_stats_stop_measure_crit_thd>
 80025c6:	6823      	ldr	r3, [r4, #0]
 80025c8:	42a3      	cmp	r3, r4
 80025ca:	d004      	beq.n	80025d6 <chMtxTryLock.constprop.65+0x36>
 80025cc:	69a2      	ldr	r2, [r4, #24]
 80025ce:	689b      	ldr	r3, [r3, #8]
 80025d0:	6892      	ldr	r2, [r2, #8]
 80025d2:	429a      	cmp	r2, r3
 80025d4:	d30b      	bcc.n	80025ee <chMtxTryLock.constprop.65+0x4e>
 80025d6:	2300      	movs	r3, #0
 80025d8:	f383 8811 	msr	BASEPRI, r3
 80025dc:	4628      	mov	r0, r5
 80025de:	bd38      	pop	{r3, r4, r5, pc}
 80025e0:	69a2      	ldr	r2, [r4, #24]
 80025e2:	609a      	str	r2, [r3, #8]
 80025e4:	6bd1      	ldr	r1, [r2, #60]	; 0x3c
 80025e6:	60d9      	str	r1, [r3, #12]
 80025e8:	63d3      	str	r3, [r2, #60]	; 0x3c
 80025ea:	2501      	movs	r5, #1
 80025ec:	e7e7      	b.n	80025be <chMtxTryLock.constprop.65+0x1e>
 80025ee:	b672      	cpsid	i
 80025f0:	4b03      	ldr	r3, [pc, #12]	; (8002600 <chMtxTryLock.constprop.65+0x60>)
 80025f2:	62e3      	str	r3, [r4, #44]	; 0x2c
 80025f4:	e7fe      	b.n	80025f4 <chMtxTryLock.constprop.65+0x54>
 80025f6:	bf00      	nop
 80025f8:	20000c58 	.word	0x20000c58
 80025fc:	20001558 	.word	0x20001558
 8002600:	08009db0 	.word	0x08009db0
	...

08002610 <chCondSignal.constprop.63>:
 8002610:	b508      	push	{r3, lr}
 8002612:	2320      	movs	r3, #32
 8002614:	f383 8811 	msr	BASEPRI, r3
 8002618:	f7ff fe12 	bl	8002240 <_stats_start_measure_crit_thd>
 800261c:	f7ff ff00 	bl	8002420 <_dbg_check_lock>
 8002620:	4b0f      	ldr	r3, [pc, #60]	; (8002660 <chCondSignal.constprop.63+0x50>)
 8002622:	6818      	ldr	r0, [r3, #0]
 8002624:	4298      	cmp	r0, r3
 8002626:	d005      	beq.n	8002634 <chCondSignal.constprop.63+0x24>
 8002628:	6802      	ldr	r2, [r0, #0]
 800262a:	601a      	str	r2, [r3, #0]
 800262c:	6053      	str	r3, [r2, #4]
 800262e:	2100      	movs	r1, #0
 8002630:	f7ff fc26 	bl	8001e80 <chSchWakeupS>
 8002634:	f7ff fe14 	bl	8002260 <_dbg_check_unlock>
 8002638:	f7ff fdfa 	bl	8002230 <_stats_stop_measure_crit_thd>
 800263c:	4b09      	ldr	r3, [pc, #36]	; (8002664 <chCondSignal.constprop.63+0x54>)
 800263e:	681a      	ldr	r2, [r3, #0]
 8002640:	429a      	cmp	r2, r3
 8002642:	d004      	beq.n	800264e <chCondSignal.constprop.63+0x3e>
 8002644:	6999      	ldr	r1, [r3, #24]
 8002646:	6892      	ldr	r2, [r2, #8]
 8002648:	6889      	ldr	r1, [r1, #8]
 800264a:	4291      	cmp	r1, r2
 800264c:	d303      	bcc.n	8002656 <chCondSignal.constprop.63+0x46>
 800264e:	2300      	movs	r3, #0
 8002650:	f383 8811 	msr	BASEPRI, r3
 8002654:	bd08      	pop	{r3, pc}
 8002656:	b672      	cpsid	i
 8002658:	4a03      	ldr	r2, [pc, #12]	; (8002668 <chCondSignal.constprop.63+0x58>)
 800265a:	62da      	str	r2, [r3, #44]	; 0x2c
 800265c:	e7fe      	b.n	800265c <chCondSignal.constprop.63+0x4c>
 800265e:	bf00      	nop
 8002660:	20000c04 	.word	0x20000c04
 8002664:	20001558 	.word	0x20001558
 8002668:	08009dc0 	.word	0x08009dc0
 800266c:	00000000 	.word	0x00000000

08002670 <chEvtRegisterMaskWithFlags.constprop.55>:
 8002670:	b570      	push	{r4, r5, r6, lr}
 8002672:	2320      	movs	r3, #32
 8002674:	4605      	mov	r5, r0
 8002676:	4616      	mov	r6, r2
 8002678:	f383 8811 	msr	BASEPRI, r3
 800267c:	f7ff fde0 	bl	8002240 <_stats_start_measure_crit_thd>
 8002680:	4c10      	ldr	r4, [pc, #64]	; (80026c4 <chEvtRegisterMaskWithFlags.constprop.55+0x54>)
 8002682:	f7ff fecd 	bl	8002420 <_dbg_check_lock>
 8002686:	682b      	ldr	r3, [r5, #0]
 8002688:	69a2      	ldr	r2, [r4, #24]
 800268a:	600b      	str	r3, [r1, #0]
 800268c:	2000      	movs	r0, #0
 800268e:	f04f 33ff 	mov.w	r3, #4294967295	; 0xffffffff
 8002692:	6029      	str	r1, [r5, #0]
 8002694:	e9c1 0303 	strd	r0, r3, [r1, #12]
 8002698:	e9c1 2601 	strd	r2, r6, [r1, #4]
 800269c:	f7ff fde0 	bl	8002260 <_dbg_check_unlock>
 80026a0:	f7ff fdc6 	bl	8002230 <_stats_stop_measure_crit_thd>
 80026a4:	6823      	ldr	r3, [r4, #0]
 80026a6:	42a3      	cmp	r3, r4
 80026a8:	d004      	beq.n	80026b4 <chEvtRegisterMaskWithFlags.constprop.55+0x44>
 80026aa:	69a2      	ldr	r2, [r4, #24]
 80026ac:	689b      	ldr	r3, [r3, #8]
 80026ae:	6892      	ldr	r2, [r2, #8]
 80026b0:	429a      	cmp	r2, r3
 80026b2:	d303      	bcc.n	80026bc <chEvtRegisterMaskWithFlags.constprop.55+0x4c>
 80026b4:	2300      	movs	r3, #0
 80026b6:	f383 8811 	msr	BASEPRI, r3
 80026ba:	bd70      	pop	{r4, r5, r6, pc}
 80026bc:	b672      	cpsid	i
 80026be:	4b02      	ldr	r3, [pc, #8]	; (80026c8 <chEvtRegisterMaskWithFlags.constprop.55+0x58>)
 80026c0:	62e3      	str	r3, [r4, #44]	; 0x2c
 80026c2:	e7fe      	b.n	80026c2 <chEvtRegisterMaskWithFlags.constprop.55+0x52>
 80026c4:	20001558 	.word	0x20001558
 80026c8:	08009dd0 	.word	0x08009dd0
 80026cc:	00000000 	.word	0x00000000

080026d0 <chEvtGetAndClearEvents.constprop.54>:
 80026d0:	b538      	push	{r3, r4, r5, lr}
 80026d2:	2320      	movs	r3, #32
 80026d4:	f383 8811 	msr	BASEPRI, r3
 80026d8:	4c0e      	ldr	r4, [pc, #56]	; (8002714 <chEvtGetAndClearEvents.constprop.54+0x44>)
 80026da:	f7ff fdb1 	bl	8002240 <_stats_start_measure_crit_thd>
 80026de:	f7ff fe9f 	bl	8002420 <_dbg_check_lock>
 80026e2:	69a3      	ldr	r3, [r4, #24]
 80026e4:	2200      	movs	r2, #0
 80026e6:	6b9d      	ldr	r5, [r3, #56]	; 0x38
 80026e8:	639a      	str	r2, [r3, #56]	; 0x38
 80026ea:	f7ff fdb9 	bl	8002260 <_dbg_check_unlock>
 80026ee:	f7ff fd9f 	bl	8002230 <_stats_stop_measure_crit_thd>
 80026f2:	6823      	ldr	r3, [r4, #0]
 80026f4:	42a3      	cmp	r3, r4
 80026f6:	d004      	beq.n	8002702 <chEvtGetAndClearEvents.constprop.54+0x32>
 80026f8:	69a2      	ldr	r2, [r4, #24]
 80026fa:	689b      	ldr	r3, [r3, #8]
 80026fc:	6892      	ldr	r2, [r2, #8]
 80026fe:	429a      	cmp	r2, r3
 8002700:	d304      	bcc.n	800270c <chEvtGetAndClearEvents.constprop.54+0x3c>
 8002702:	2300      	movs	r3, #0
 8002704:	f383 8811 	msr	BASEPRI, r3
 8002708:	4628      	mov	r0, r5
 800270a:	bd38      	pop	{r3, r4, r5, pc}
 800270c:	b672      	cpsid	i
 800270e:	4b02      	ldr	r3, [pc, #8]	; (8002718 <chEvtGetAndClearEvents.constprop.54+0x48>)
 8002710:	62e3      	str	r3, [r4, #44]	; 0x2c
 8002712:	e7fe      	b.n	8002712 <chEvtGetAndClearEvents.constprop.54+0x42>
 8002714:	20001558 	.word	0x20001558
 8002718:	08009dd0 	.word	0x08009dd0
 800271c:	00000000 	.word	0x00000000

08002720 <evt1_setup>:
 8002720:	f7ff bfd6 	b.w	80026d0 <chEvtGetAndClearEvents.constprop.54>
	...

08002730 <evt3_setup>:
 8002730:	f7ff bff6 	b.w	8002720 <evt1_setup>
	...

08002740 <evt2_setup>:
 8002740:	f7ff bfee 	b.w	8002720 <evt1_setup>
	...

08002750 <chEvtWaitOne.constprop.50>:
 8002750:	b570      	push	{r4, r5, r6, lr}
 8002752:	4c16      	ldr	r4, [pc, #88]	; (80027ac <chEvtWaitOne.constprop.50+0x5c>)
 8002754:	2320      	movs	r3, #32
 8002756:	69a6      	ldr	r6, [r4, #24]
 8002758:	f383 8811 	msr	BASEPRI, r3
 800275c:	f7ff fd70 	bl	8002240 <_stats_start_measure_crit_thd>
 8002760:	f7ff fe5e 	bl	8002420 <_dbg_check_lock>
 8002764:	6bb3      	ldr	r3, [r6, #56]	; 0x38
 8002766:	b1ab      	cbz	r3, 8002794 <chEvtWaitOne.constprop.50+0x44>
 8002768:	425d      	negs	r5, r3
 800276a:	401d      	ands	r5, r3
 800276c:	ea23 0305 	bic.w	r3, r3, r5
 8002770:	63b3      	str	r3, [r6, #56]	; 0x38
 8002772:	f7ff fd75 	bl	8002260 <_dbg_check_unlock>
 8002776:	f7ff fd5b 	bl	8002230 <_stats_stop_measure_crit_thd>
 800277a:	6823      	ldr	r3, [r4, #0]
 800277c:	42a3      	cmp	r3, r4
 800277e:	d004      	beq.n	800278a <chEvtWaitOne.constprop.50+0x3a>
 8002780:	69a2      	ldr	r2, [r4, #24]
 8002782:	689b      	ldr	r3, [r3, #8]
 8002784:	6892      	ldr	r2, [r2, #8]
 8002786:	429a      	cmp	r2, r3
 8002788:	d30c      	bcc.n	80027a4 <chEvtWaitOne.constprop.50+0x54>
 800278a:	2300      	movs	r3, #0
 800278c:	f383 8811 	msr	BASEPRI, r3
 8002790:	4628      	mov	r0, r5
 8002792:	bd70      	pop	{r4, r5, r6, pc}
 8002794:	f04f 33ff 	mov.w	r3, #4294967295	; 0xffffffff
 8002798:	6273      	str	r3, [r6, #36]	; 0x24
 800279a:	200a      	movs	r0, #10
 800279c:	f7ff fba8 	bl	8001ef0 <chSchGoSleepS>
 80027a0:	6bb3      	ldr	r3, [r6, #56]	; 0x38
 80027a2:	e7e1      	b.n	8002768 <chEvtWaitOne.constprop.50+0x18>
 80027a4:	b672      	cpsid	i
 80027a6:	4b02      	ldr	r3, [pc, #8]	; (80027b0 <chEvtWaitOne.constprop.50+0x60>)
 80027a8:	62e3      	str	r3, [r4, #44]	; 0x2c
 80027aa:	e7fe      	b.n	80027aa <chEvtWaitOne.constprop.50+0x5a>
 80027ac:	20001558 	.word	0x20001558
 80027b0:	08009dd0 	.word	0x08009dd0
	...

080027c0 <chEvtWaitAny.constprop.49>:
 80027c0:	b570      	push	{r4, r5, r6, lr}
 80027c2:	4c15      	ldr	r4, [pc, #84]	; (8002818 <chEvtWaitAny.constprop.49+0x58>)
 80027c4:	2320      	movs	r3, #32
 80027c6:	69a5      	ldr	r5, [r4, #24]
 80027c8:	f383 8811 	msr	BASEPRI, r3
 80027cc:	f7ff fd38 	bl	8002240 <_stats_start_measure_crit_thd>
 80027d0:	f7ff fe26 	bl	8002420 <_dbg_check_lock>
 80027d4:	6bae      	ldr	r6, [r5, #56]	; 0x38
 80027d6:	b196      	cbz	r6, 80027fe <chEvtWaitAny.constprop.49+0x3e>
 80027d8:	2300      	movs	r3, #0
 80027da:	63ab      	str	r3, [r5, #56]	; 0x38
 80027dc:	f7ff fd40 	bl	8002260 <_dbg_check_unlock>
 80027e0:	f7ff fd26 	bl	8002230 <_stats_stop_measure_crit_thd>
 80027e4:	6823      	ldr	r3, [r4, #0]
 80027e6:	42a3      	cmp	r3, r4
 80027e8:	d004      	beq.n	80027f4 <chEvtWaitAny.constprop.49+0x34>
 80027ea:	69a2      	ldr	r2, [r4, #24]
 80027ec:	689b      	ldr	r3, [r3, #8]
 80027ee:	6892      	ldr	r2, [r2, #8]
 80027f0:	429a      	cmp	r2, r3
 80027f2:	d30c      	bcc.n	800280e <chEvtWaitAny.constprop.49+0x4e>
 80027f4:	2300      	movs	r3, #0
 80027f6:	f383 8811 	msr	BASEPRI, r3
 80027fa:	4630      	mov	r0, r6
 80027fc:	bd70      	pop	{r4, r5, r6, pc}
 80027fe:	f04f 33ff 	mov.w	r3, #4294967295	; 0xffffffff
 8002802:	626b      	str	r3, [r5, #36]	; 0x24
 8002804:	200a      	movs	r0, #10
 8002806:	f7ff fb73 	bl	8001ef0 <chSchGoSleepS>
 800280a:	6bae      	ldr	r6, [r5, #56]	; 0x38
 800280c:	e7e4      	b.n	80027d8 <chEvtWaitAny.constprop.49+0x18>
 800280e:	b672      	cpsid	i
 8002810:	4b02      	ldr	r3, [pc, #8]	; (800281c <chEvtWaitAny.constprop.49+0x5c>)
 8002812:	62e3      	str	r3, [r4, #44]	; 0x2c
 8002814:	e7fe      	b.n	8002814 <chEvtWaitAny.constprop.49+0x54>
 8002816:	bf00      	nop
 8002818:	20001558 	.word	0x20001558
 800281c:	08009dd0 	.word	0x08009dd0

08002820 <chEvtWaitOneTimeout.constprop.47>:
 8002820:	b570      	push	{r4, r5, r6, lr}
 8002822:	4c2a      	ldr	r4, [pc, #168]	; (80028cc <chEvtWaitOneTimeout.constprop.47+0xac>)
 8002824:	4601      	mov	r1, r0
 8002826:	69a6      	ldr	r6, [r4, #24]
 8002828:	2320      	movs	r3, #32
 800282a:	f383 8811 	msr	BASEPRI, r3
 800282e:	f7ff fd07 	bl	8002240 <_stats_start_measure_crit_thd>
 8002832:	f7ff fdf5 	bl	8002420 <_dbg_check_lock>
 8002836:	6bb3      	ldr	r3, [r6, #56]	; 0x38
 8002838:	b94b      	cbnz	r3, 800284e <chEvtWaitOneTimeout.constprop.47+0x2e>
 800283a:	b1f1      	cbz	r1, 800287a <chEvtWaitOneTimeout.constprop.47+0x5a>
 800283c:	f04f 33ff 	mov.w	r3, #4294967295	; 0xffffffff
 8002840:	6273      	str	r3, [r6, #36]	; 0x24
 8002842:	200a      	movs	r0, #10
 8002844:	f7ff fc2c 	bl	80020a0 <chSchGoSleepTimeoutS>
 8002848:	2800      	cmp	r0, #0
 800284a:	db2b      	blt.n	80028a4 <chEvtWaitOneTimeout.constprop.47+0x84>
 800284c:	6bb3      	ldr	r3, [r6, #56]	; 0x38
 800284e:	425d      	negs	r5, r3
 8002850:	401d      	ands	r5, r3
 8002852:	ea23 0305 	bic.w	r3, r3, r5
 8002856:	63b3      	str	r3, [r6, #56]	; 0x38
 8002858:	f7ff fd02 	bl	8002260 <_dbg_check_unlock>
 800285c:	f7ff fce8 	bl	8002230 <_stats_stop_measure_crit_thd>
 8002860:	6823      	ldr	r3, [r4, #0]
 8002862:	42a3      	cmp	r3, r4
 8002864:	d004      	beq.n	8002870 <chEvtWaitOneTimeout.constprop.47+0x50>
 8002866:	69a2      	ldr	r2, [r4, #24]
 8002868:	689b      	ldr	r3, [r3, #8]
 800286a:	6892      	ldr	r2, [r2, #8]
 800286c:	429a      	cmp	r2, r3
 800286e:	d315      	bcc.n	800289c <chEvtWaitOneTimeout.constprop.47+0x7c>
 8002870:	2300      	movs	r3, #0
 8002872:	f383 8811 	msr	BASEPRI, r3
 8002876:	4628      	mov	r0, r5
 8002878:	bd70      	pop	{r4, r5, r6, pc}
 800287a:	f7ff fcf1 	bl	8002260 <_dbg_check_unlock>
 800287e:	f7ff fcd7 	bl	8002230 <_stats_stop_measure_crit_thd>
 8002882:	6823      	ldr	r3, [r4, #0]
 8002884:	42a3      	cmp	r3, r4
 8002886:	d004      	beq.n	8002892 <chEvtWaitOneTimeout.constprop.47+0x72>
 8002888:	69a2      	ldr	r2, [r4, #24]
 800288a:	689b      	ldr	r3, [r3, #8]
 800288c:	6892      	ldr	r2, [r2, #8]
 800288e:	429a      	cmp	r2, r3
 8002890:	d318      	bcc.n	80028c4 <chEvtWaitOneTimeout.constprop.47+0xa4>
 8002892:	2500      	movs	r5, #0
 8002894:	f385 8811 	msr	BASEPRI, r5
 8002898:	4628      	mov	r0, r5
 800289a:	bd70      	pop	{r4, r5, r6, pc}
 800289c:	b672      	cpsid	i
 800289e:	4b0c      	ldr	r3, [pc, #48]	; (80028d0 <chEvtWaitOneTimeout.constprop.47+0xb0>)
 80028a0:	62e3      	str	r3, [r4, #44]	; 0x2c
 80028a2:	e7fe      	b.n	80028a2 <chEvtWaitOneTimeout.constprop.47+0x82>
 80028a4:	f7ff fcdc 	bl	8002260 <_dbg_check_unlock>
 80028a8:	f7ff fcc2 	bl	8002230 <_stats_stop_measure_crit_thd>
 80028ac:	6823      	ldr	r3, [r4, #0]
 80028ae:	42a3      	cmp	r3, r4
 80028b0:	d0ef      	beq.n	8002892 <chEvtWaitOneTimeout.constprop.47+0x72>
 80028b2:	69a2      	ldr	r2, [r4, #24]
 80028b4:	689b      	ldr	r3, [r3, #8]
 80028b6:	6892      	ldr	r2, [r2, #8]
 80028b8:	429a      	cmp	r2, r3
 80028ba:	d2ea      	bcs.n	8002892 <chEvtWaitOneTimeout.constprop.47+0x72>
 80028bc:	b672      	cpsid	i
 80028be:	4b04      	ldr	r3, [pc, #16]	; (80028d0 <chEvtWaitOneTimeout.constprop.47+0xb0>)
 80028c0:	62e3      	str	r3, [r4, #44]	; 0x2c
 80028c2:	e7fe      	b.n	80028c2 <chEvtWaitOneTimeout.constprop.47+0xa2>
 80028c4:	b672      	cpsid	i
 80028c6:	4b02      	ldr	r3, [pc, #8]	; (80028d0 <chEvtWaitOneTimeout.constprop.47+0xb0>)
 80028c8:	62e3      	str	r3, [r4, #44]	; 0x2c
 80028ca:	e7fe      	b.n	80028ca <chEvtWaitOneTimeout.constprop.47+0xaa>
 80028cc:	20001558 	.word	0x20001558
 80028d0:	08009dd0 	.word	0x08009dd0
	...

080028e0 <chMBPost.constprop.37>:
 80028e0:	b570      	push	{r4, r5, r6, lr}
 80028e2:	2320      	movs	r3, #32
 80028e4:	4606      	mov	r6, r0
 80028e6:	f383 8811 	msr	BASEPRI, r3
 80028ea:	4c18      	ldr	r4, [pc, #96]	; (800294c <chMBPost.constprop.37+0x6c>)
 80028ec:	f7ff fca8 	bl	8002240 <_stats_start_measure_crit_thd>
 80028f0:	f7ff fd96 	bl	8002420 <_dbg_check_lock>
 80028f4:	f7fe f834 	bl	8000960 <chDbgCheckClassS>
 80028f8:	f104 001c 	add.w	r0, r4, #28
 80028fc:	f7ff fbf8 	bl	80020f0 <chSemWaitTimeoutS>
 8002900:	4605      	mov	r5, r0
 8002902:	b968      	cbnz	r0, 8002920 <chMBPost.constprop.37+0x40>
 8002904:	e9d4 1201 	ldrd	r1, r2, [r4, #4]
 8002908:	1d13      	adds	r3, r2, #4
 800290a:	428b      	cmp	r3, r1
 800290c:	60a3      	str	r3, [r4, #8]
 800290e:	4810      	ldr	r0, [pc, #64]	; (8002950 <chMBPost.constprop.37+0x70>)
 8002910:	6016      	str	r6, [r2, #0]
 8002912:	bf24      	itt	cs
 8002914:	6823      	ldrcs	r3, [r4, #0]
 8002916:	60a3      	strcs	r3, [r4, #8]
 8002918:	f7fe fa1a 	bl	8000d50 <chSemSignalI>
 800291c:	f7ff fa98 	bl	8001e50 <chSchRescheduleS>
 8002920:	f7ff fc9e 	bl	8002260 <_dbg_check_unlock>
 8002924:	f7ff fc84 	bl	8002230 <_stats_stop_measure_crit_thd>
 8002928:	4b0a      	ldr	r3, [pc, #40]	; (8002954 <chMBPost.constprop.37+0x74>)
 800292a:	681a      	ldr	r2, [r3, #0]
 800292c:	429a      	cmp	r2, r3
 800292e:	d004      	beq.n	800293a <chMBPost.constprop.37+0x5a>
 8002930:	6999      	ldr	r1, [r3, #24]
 8002932:	6892      	ldr	r2, [r2, #8]
 8002934:	6889      	ldr	r1, [r1, #8]
 8002936:	4291      	cmp	r1, r2
 8002938:	d304      	bcc.n	8002944 <chMBPost.constprop.37+0x64>
 800293a:	2300      	movs	r3, #0
 800293c:	f383 8811 	msr	BASEPRI, r3
 8002940:	4628      	mov	r0, r5
 8002942:	bd70      	pop	{r4, r5, r6, pc}
 8002944:	b672      	cpsid	i
 8002946:	4a04      	ldr	r2, [pc, #16]	; (8002958 <chMBPost.constprop.37+0x78>)
 8002948:	62da      	str	r2, [r3, #44]	; 0x2c
 800294a:	e7fe      	b.n	800294a <chMBPost.constprop.37+0x6a>
 800294c:	20000c78 	.word	0x20000c78
 8002950:	20000c88 	.word	0x20000c88
 8002954:	20001558 	.word	0x20001558
 8002958:	08009df0 	.word	0x08009df0
 800295c:	00000000 	.word	0x00000000

08002960 <chMBPostAhead.constprop.34>:
 8002960:	b570      	push	{r4, r5, r6, lr}
 8002962:	2320      	movs	r3, #32
 8002964:	4606      	mov	r6, r0
 8002966:	f383 8811 	msr	BASEPRI, r3
 800296a:	4c19      	ldr	r4, [pc, #100]	; (80029d0 <chMBPostAhead.constprop.34+0x70>)
 800296c:	f7ff fc68 	bl	8002240 <_stats_start_measure_crit_thd>
 8002970:	f7ff fd56 	bl	8002420 <_dbg_check_lock>
 8002974:	f7fd fff4 	bl	8000960 <chDbgCheckClassS>
 8002978:	f104 001c 	add.w	r0, r4, #28
 800297c:	f7ff fbb8 	bl	80020f0 <chSemWaitTimeoutS>
 8002980:	4605      	mov	r5, r0
 8002982:	b958      	cbnz	r0, 800299c <chMBPostAhead.constprop.34+0x3c>
 8002984:	68e3      	ldr	r3, [r4, #12]
 8002986:	6822      	ldr	r2, [r4, #0]
 8002988:	3b04      	subs	r3, #4
 800298a:	4293      	cmp	r3, r2
 800298c:	60e3      	str	r3, [r4, #12]
 800298e:	d317      	bcc.n	80029c0 <chMBPostAhead.constprop.34+0x60>
 8002990:	601e      	str	r6, [r3, #0]
 8002992:	4810      	ldr	r0, [pc, #64]	; (80029d4 <chMBPostAhead.constprop.34+0x74>)
 8002994:	f7fe f9dc 	bl	8000d50 <chSemSignalI>
 8002998:	f7ff fa5a 	bl	8001e50 <chSchRescheduleS>
 800299c:	f7ff fc60 	bl	8002260 <_dbg_check_unlock>
 80029a0:	f7ff fc46 	bl	8002230 <_stats_stop_measure_crit_thd>
 80029a4:	4b0c      	ldr	r3, [pc, #48]	; (80029d8 <chMBPostAhead.constprop.34+0x78>)
 80029a6:	681a      	ldr	r2, [r3, #0]
 80029a8:	429a      	cmp	r2, r3
 80029aa:	d004      	beq.n	80029b6 <chMBPostAhead.constprop.34+0x56>
 80029ac:	6999      	ldr	r1, [r3, #24]
 80029ae:	6892      	ldr	r2, [r2, #8]
 80029b0:	6889      	ldr	r1, [r1, #8]
 80029b2:	4291      	cmp	r1, r2
 80029b4:	d308      	bcc.n	80029c8 <chMBPostAhead.constprop.34+0x68>
 80029b6:	2300      	movs	r3, #0
 80029b8:	f383 8811 	msr	BASEPRI, r3
 80029bc:	4628      	mov	r0, r5
 80029be:	bd70      	pop	{r4, r5, r6, pc}
 80029c0:	6863      	ldr	r3, [r4, #4]
 80029c2:	3b04      	subs	r3, #4
 80029c4:	60e3      	str	r3, [r4, #12]
 80029c6:	e7e3      	b.n	8002990 <chMBPostAhead.constprop.34+0x30>
 80029c8:	b672      	cpsid	i
 80029ca:	4a04      	ldr	r2, [pc, #16]	; (80029dc <chMBPostAhead.constprop.34+0x7c>)
 80029cc:	62da      	str	r2, [r3, #44]	; 0x2c
 80029ce:	e7fe      	b.n	80029ce <chMBPostAhead.constprop.34+0x6e>
 80029d0:	20000c78 	.word	0x20000c78
 80029d4:	20000c88 	.word	0x20000c88
 80029d8:	20001558 	.word	0x20001558
 80029dc:	08009df0 	.word	0x08009df0

080029e0 <chMBFetch.constprop.31>:
 80029e0:	b570      	push	{r4, r5, r6, lr}
 80029e2:	2320      	movs	r3, #32
 80029e4:	4606      	mov	r6, r0
 80029e6:	f383 8811 	msr	BASEPRI, r3
 80029ea:	4c10      	ldr	r4, [pc, #64]	; (8002a2c <chMBFetch.constprop.31+0x4c>)
 80029ec:	f7ff fc28 	bl	8002240 <_stats_start_measure_crit_thd>
 80029f0:	f7ff fd16 	bl	8002420 <_dbg_check_lock>
 80029f4:	f7fd ffb4 	bl	8000960 <chDbgCheckClassS>
 80029f8:	f104 0010 	add.w	r0, r4, #16
 80029fc:	f7ff fb78 	bl	80020f0 <chSemWaitTimeoutS>
 8002a00:	4605      	mov	r5, r0
 8002a02:	b970      	cbnz	r0, 8002a22 <chMBFetch.constprop.31+0x42>
 8002a04:	68e3      	ldr	r3, [r4, #12]
 8002a06:	6862      	ldr	r2, [r4, #4]
 8002a08:	6819      	ldr	r1, [r3, #0]
 8002a0a:	4809      	ldr	r0, [pc, #36]	; (8002a30 <chMBFetch.constprop.31+0x50>)
 8002a0c:	3304      	adds	r3, #4
 8002a0e:	4293      	cmp	r3, r2
 8002a10:	60e3      	str	r3, [r4, #12]
 8002a12:	6031      	str	r1, [r6, #0]
 8002a14:	bf24      	itt	cs
 8002a16:	6823      	ldrcs	r3, [r4, #0]
 8002a18:	60e3      	strcs	r3, [r4, #12]
 8002a1a:	f7fe f999 	bl	8000d50 <chSemSignalI>
 8002a1e:	f7ff fa17 	bl	8001e50 <chSchRescheduleS>
 8002a22:	f7ff fc4d 	bl	80022c0 <chSysUnlock.lto_priv.90>
 8002a26:	4628      	mov	r0, r5
 8002a28:	bd70      	pop	{r4, r5, r6, pc}
 8002a2a:	bf00      	nop
 8002a2c:	20000c78 	.word	0x20000c78
 8002a30:	20000c94 	.word	0x20000c94
	...

08002a40 <test_start_timer.constprop.5>:
 8002a40:	b508      	push	{r3, lr}
 8002a42:	4b16      	ldr	r3, [pc, #88]	; (8002a9c <test_start_timer.constprop.5+0x5c>)
 8002a44:	2200      	movs	r2, #0
 8002a46:	701a      	strb	r2, [r3, #0]
 8002a48:	2320      	movs	r3, #32
 8002a4a:	f383 8811 	msr	BASEPRI, r3
 8002a4e:	f7ff fbf7 	bl	8002240 <_stats_start_measure_crit_thd>
 8002a52:	f7ff fce5 	bl	8002420 <_dbg_check_lock>
 8002a56:	f7fd ff93 	bl	8000980 <chDbgCheckClassI>
 8002a5a:	4811      	ldr	r0, [pc, #68]	; (8002aa0 <test_start_timer.constprop.5+0x60>)
 8002a5c:	68c3      	ldr	r3, [r0, #12]
 8002a5e:	b10b      	cbz	r3, 8002a64 <test_start_timer.constprop.5+0x24>
 8002a60:	f7fe fa26 	bl	8000eb0 <chVTDoResetI>
 8002a64:	2300      	movs	r3, #0
 8002a66:	4a0f      	ldr	r2, [pc, #60]	; (8002aa4 <test_start_timer.constprop.5+0x64>)
 8002a68:	480d      	ldr	r0, [pc, #52]	; (8002aa0 <test_start_timer.constprop.5+0x60>)
 8002a6a:	f242 7110 	movw	r1, #10000	; 0x2710
 8002a6e:	f7fe fa67 	bl	8000f40 <chVTDoSetI>
 8002a72:	f7ff fbf5 	bl	8002260 <_dbg_check_unlock>
 8002a76:	f7ff fbdb 	bl	8002230 <_stats_stop_measure_crit_thd>
 8002a7a:	4b0b      	ldr	r3, [pc, #44]	; (8002aa8 <test_start_timer.constprop.5+0x68>)
 8002a7c:	681a      	ldr	r2, [r3, #0]
 8002a7e:	429a      	cmp	r2, r3
 8002a80:	d004      	beq.n	8002a8c <test_start_timer.constprop.5+0x4c>
 8002a82:	6999      	ldr	r1, [r3, #24]
 8002a84:	6892      	ldr	r2, [r2, #8]
 8002a86:	6889      	ldr	r1, [r1, #8]
 8002a88:	4291      	cmp	r1, r2
 8002a8a:	d303      	bcc.n	8002a94 <test_start_timer.constprop.5+0x54>
 8002a8c:	2300      	movs	r3, #0
 8002a8e:	f383 8811 	msr	BASEPRI, r3
 8002a92:	bd08      	pop	{r3, pc}
 8002a94:	b672      	cpsid	i
 8002a96:	4a05      	ldr	r2, [pc, #20]	; (8002aac <test_start_timer.constprop.5+0x6c>)
 8002a98:	62da      	str	r2, [r3, #44]	; 0x2c
 8002a9a:	e7fe      	b.n	8002a9a <test_start_timer.constprop.5+0x5a>
 8002a9c:	20002368 	.word	0x20002368
 8002aa0:	20002394 	.word	0x20002394
 8002aa4:	080002a1 	.word	0x080002a1
 8002aa8:	20001558 	.word	0x20001558
 8002aac:	08009e40 	.word	0x08009e40

08002ab0 <inotify>:
 8002ab0:	b570      	push	{r4, r5, r6, lr}
 8002ab2:	6a04      	ldr	r4, [r0, #32]
 8002ab4:	f8d4 2254 	ldr.w	r2, [r4, #596]	; 0x254
 8002ab8:	6813      	ldr	r3, [r2, #0]
 8002aba:	7819      	ldrb	r1, [r3, #0]
 8002abc:	2904      	cmp	r1, #4
 8002abe:	d000      	beq.n	8002ac2 <inotify+0x12>
 8002ac0:	bd70      	pop	{r4, r5, r6, pc}
 8002ac2:	7a21      	ldrb	r1, [r4, #8]
 8002ac4:	2902      	cmp	r1, #2
 8002ac6:	d1fb      	bne.n	8002ac0 <inotify+0x10>
 8002ac8:	7951      	ldrb	r1, [r2, #5]
 8002aca:	8958      	ldrh	r0, [r3, #10]
 8002acc:	2201      	movs	r2, #1
 8002ace:	408a      	lsls	r2, r1
 8002ad0:	4202      	tst	r2, r0
 8002ad2:	d1f5      	bne.n	8002ac0 <inotify+0x10>
 8002ad4:	eb03 0381 	add.w	r3, r3, r1, lsl #2
 8002ad8:	68db      	ldr	r3, [r3, #12]
 8002ada:	8a5e      	ldrh	r6, [r3, #18]
 8002adc:	f7fd ff50 	bl	8000980 <chDbgCheckClassI>
 8002ae0:	e9d4 2306 	ldrd	r2, r3, [r4, #24]
 8002ae4:	6965      	ldr	r5, [r4, #20]
 8002ae6:	1a9b      	subs	r3, r3, r2
 8002ae8:	1b5d      	subs	r5, r3, r5
 8002aea:	42ae      	cmp	r6, r5
 8002aec:	d8e8      	bhi.n	8002ac0 <inotify+0x10>
 8002aee:	f7ff fbb7 	bl	8002260 <_dbg_check_unlock>
 8002af2:	f7ff fb9d 	bl	8002230 <_stats_stop_measure_crit_thd>
 8002af6:	4b1a      	ldr	r3, [pc, #104]	; (8002b60 <inotify+0xb0>)
 8002af8:	681a      	ldr	r2, [r3, #0]
 8002afa:	429a      	cmp	r2, r3
 8002afc:	d004      	beq.n	8002b08 <inotify+0x58>
 8002afe:	6999      	ldr	r1, [r3, #24]
 8002b00:	6892      	ldr	r2, [r2, #8]
 8002b02:	6889      	ldr	r1, [r1, #8]
 8002b04:	4291      	cmp	r1, r2
 8002b06:	d326      	bcc.n	8002b56 <inotify+0xa6>
 8002b08:	2200      	movs	r2, #0
 8002b0a:	f382 8811 	msr	BASEPRI, r2
 8002b0e:	f8d4 3254 	ldr.w	r3, [r4, #596]	; 0x254
 8002b12:	fbb5 f5f6 	udiv	r5, r5, r6
 8002b16:	6818      	ldr	r0, [r3, #0]
 8002b18:	7959      	ldrb	r1, [r3, #5]
 8002b1a:	eb00 0381 	add.w	r3, r0, r1, lsl #2
 8002b1e:	fb06 f505 	mul.w	r5, r6, r5
 8002b22:	68db      	ldr	r3, [r3, #12]
 8002b24:	699b      	ldr	r3, [r3, #24]
 8002b26:	2601      	movs	r6, #1
 8002b28:	605d      	str	r5, [r3, #4]
 8002b2a:	f104 050c 	add.w	r5, r4, #12
 8002b2e:	609a      	str	r2, [r3, #8]
 8002b30:	701e      	strb	r6, [r3, #0]
 8002b32:	60dd      	str	r5, [r3, #12]
 8002b34:	f7fd fd34 	bl	80005a0 <usb_lld_prepare_receive>
 8002b38:	2320      	movs	r3, #32
 8002b3a:	f383 8811 	msr	BASEPRI, r3
 8002b3e:	f7ff fb7f 	bl	8002240 <_stats_start_measure_crit_thd>
 8002b42:	f7ff fc6d 	bl	8002420 <_dbg_check_lock>
 8002b46:	f8d4 3254 	ldr.w	r3, [r4, #596]	; 0x254
 8002b4a:	e8bd 4070 	ldmia.w	sp!, {r4, r5, r6, lr}
 8002b4e:	7959      	ldrb	r1, [r3, #5]
 8002b50:	6818      	ldr	r0, [r3, #0]
 8002b52:	f7fd bf55 	b.w	8000a00 <usbStartReceiveI>
 8002b56:	b672      	cpsid	i
 8002b58:	4a02      	ldr	r2, [pc, #8]	; (8002b64 <inotify+0xb4>)
 8002b5a:	62da      	str	r2, [r3, #44]	; 0x2c
 8002b5c:	e7fe      	b.n	8002b5c <inotify+0xac>
 8002b5e:	bf00      	nop
 8002b60:	20001558 	.word	0x20001558
 8002b64:	08009e30 	.word	0x08009e30
	...

08002b70 <chCoreAlloc>:
 8002b70:	b510      	push	{r4, lr}
 8002b72:	4601      	mov	r1, r0
 8002b74:	2320      	movs	r3, #32
 8002b76:	f383 8811 	msr	BASEPRI, r3
 8002b7a:	f7ff fb61 	bl	8002240 <_stats_start_measure_crit_thd>
 8002b7e:	f7ff fc4f 	bl	8002420 <_dbg_check_lock>
 8002b82:	f7fd fefd 	bl	8000980 <chDbgCheckClassI>
 8002b86:	4811      	ldr	r0, [pc, #68]	; (8002bcc <chCoreAlloc+0x5c>)
 8002b88:	4b11      	ldr	r3, [pc, #68]	; (8002bd0 <chCoreAlloc+0x60>)
 8002b8a:	6804      	ldr	r4, [r0, #0]
 8002b8c:	681a      	ldr	r2, [r3, #0]
 8002b8e:	1dcb      	adds	r3, r1, #7
 8002b90:	f023 0307 	bic.w	r3, r3, #7
 8002b94:	1b12      	subs	r2, r2, r4
 8002b96:	4293      	cmp	r3, r2
 8002b98:	bf9a      	itte	ls
 8002b9a:	191b      	addls	r3, r3, r4
 8002b9c:	6003      	strls	r3, [r0, #0]
 8002b9e:	2400      	movhi	r4, #0
 8002ba0:	f7ff fb5e 	bl	8002260 <_dbg_check_unlock>
 8002ba4:	f7ff fb44 	bl	8002230 <_stats_stop_measure_crit_thd>
 8002ba8:	4b0a      	ldr	r3, [pc, #40]	; (8002bd4 <chCoreAlloc+0x64>)
 8002baa:	681a      	ldr	r2, [r3, #0]
 8002bac:	429a      	cmp	r2, r3
 8002bae:	d004      	beq.n	8002bba <chCoreAlloc+0x4a>
 8002bb0:	6999      	ldr	r1, [r3, #24]
 8002bb2:	6892      	ldr	r2, [r2, #8]
 8002bb4:	6889      	ldr	r1, [r1, #8]
 8002bb6:	4291      	cmp	r1, r2
 8002bb8:	d304      	bcc.n	8002bc4 <chCoreAlloc+0x54>
 8002bba:	2300      	movs	r3, #0
 8002bbc:	f383 8811 	msr	BASEPRI, r3
 8002bc0:	4620      	mov	r0, r4
 8002bc2:	bd10      	pop	{r4, pc}
 8002bc4:	b672      	cpsid	i
 8002bc6:	4a04      	ldr	r2, [pc, #16]	; (8002bd8 <chCoreAlloc+0x68>)
 8002bc8:	62da      	str	r2, [r3, #44]	; 0x2c
 8002bca:	e7fe      	b.n	8002bca <chCoreAlloc+0x5a>
 8002bcc:	20001c24 	.word	0x20001c24
 8002bd0:	20001b58 	.word	0x20001b58
 8002bd4:	20001558 	.word	0x20001558
 8002bd8:	08009e10 	.word	0x08009e10
 8002bdc:	00000000 	.word	0x00000000

08002be0 <shell_thread>:
 8002be0:	e92d 4880 	stmdb	sp!, {r7, fp, lr}
 8002be4:	4b7f      	ldr	r3, [pc, #508]	; (8002de4 <shell_thread+0x204>)
 8002be6:	6804      	ldr	r4, [r0, #0]
 8002be8:	699b      	ldr	r3, [r3, #24]
 8002bea:	4a7f      	ldr	r2, [pc, #508]	; (8002de8 <shell_thread+0x208>)
 8002bec:	f8d0 9004 	ldr.w	r9, [r0, #4]
 8002bf0:	497e      	ldr	r1, [pc, #504]	; (8002dec <shell_thread+0x20c>)
 8002bf2:	619a      	str	r2, [r3, #24]
 8002bf4:	b099      	sub	sp, #100	; 0x64
 8002bf6:	4620      	mov	r0, r4
 8002bf8:	f7fe fde2 	bl	80017c0 <chprintf.lto_priv.148>
 8002bfc:	f8df 8220 	ldr.w	r8, [pc, #544]	; 8002e20 <shell_thread+0x240>
 8002c00:	ae08      	add	r6, sp, #32
 8002c02:	f10d 075f 	add.w	r7, sp, #95	; 0x5f
 8002c06:	4641      	mov	r1, r8
 8002c08:	4620      	mov	r0, r4
 8002c0a:	f7fe fdd9 	bl	80017c0 <chprintf.lto_priv.148>
 8002c0e:	6823      	ldr	r3, [r4, #0]
 8002c10:	4635      	mov	r5, r6
 8002c12:	685b      	ldr	r3, [r3, #4]
 8002c14:	2201      	movs	r2, #1
 8002c16:	f10d 0107 	add.w	r1, sp, #7
 8002c1a:	4620      	mov	r0, r4
 8002c1c:	4798      	blx	r3
 8002c1e:	2800      	cmp	r0, #0
 8002c20:	d070      	beq.n	8002d04 <shell_thread+0x124>
 8002c22:	f89d 1007 	ldrb.w	r1, [sp, #7]
 8002c26:	2904      	cmp	r1, #4
 8002c28:	d068      	beq.n	8002cfc <shell_thread+0x11c>
 8002c2a:	2908      	cmp	r1, #8
 8002c2c:	d011      	beq.n	8002c52 <shell_thread+0x72>
 8002c2e:	297f      	cmp	r1, #127	; 0x7f
 8002c30:	d00f      	beq.n	8002c52 <shell_thread+0x72>
 8002c32:	290d      	cmp	r1, #13
 8002c34:	d021      	beq.n	8002c7a <shell_thread+0x9a>
 8002c36:	291f      	cmp	r1, #31
 8002c38:	6823      	ldr	r3, [r4, #0]
 8002c3a:	d9ea      	bls.n	8002c12 <shell_thread+0x32>
 8002c3c:	42bd      	cmp	r5, r7
 8002c3e:	d2e8      	bcs.n	8002c12 <shell_thread+0x32>
 8002c40:	689b      	ldr	r3, [r3, #8]
 8002c42:	4620      	mov	r0, r4
 8002c44:	4798      	blx	r3
 8002c46:	f89d 3007 	ldrb.w	r3, [sp, #7]
 8002c4a:	702b      	strb	r3, [r5, #0]
 8002c4c:	6823      	ldr	r3, [r4, #0]
 8002c4e:	3501      	adds	r5, #1
 8002c50:	e7df      	b.n	8002c12 <shell_thread+0x32>
 8002c52:	42b5      	cmp	r5, r6
 8002c54:	6823      	ldr	r3, [r4, #0]
 8002c56:	d0dc      	beq.n	8002c12 <shell_thread+0x32>
 8002c58:	689b      	ldr	r3, [r3, #8]
 8002c5a:	4620      	mov	r0, r4
 8002c5c:	4798      	blx	r3
 8002c5e:	6823      	ldr	r3, [r4, #0]
 8002c60:	2120      	movs	r1, #32
 8002c62:	689b      	ldr	r3, [r3, #8]
 8002c64:	4620      	mov	r0, r4
 8002c66:	4798      	blx	r3
 8002c68:	6823      	ldr	r3, [r4, #0]
 8002c6a:	f89d 1007 	ldrb.w	r1, [sp, #7]
 8002c6e:	689b      	ldr	r3, [r3, #8]
 8002c70:	4620      	mov	r0, r4
 8002c72:	4798      	blx	r3
 8002c74:	3d01      	subs	r5, #1
 8002c76:	6823      	ldr	r3, [r4, #0]
 8002c78:	e7cb      	b.n	8002c12 <shell_thread+0x32>
 8002c7a:	495d      	ldr	r1, [pc, #372]	; (8002df0 <shell_thread+0x210>)
 8002c7c:	4620      	mov	r0, r4
 8002c7e:	f7fe fd9f 	bl	80017c0 <chprintf.lto_priv.148>
 8002c82:	2300      	movs	r3, #0
 8002c84:	a902      	add	r1, sp, #8
 8002c86:	702b      	strb	r3, [r5, #0]
 8002c88:	4630      	mov	r0, r6
 8002c8a:	461d      	mov	r5, r3
 8002c8c:	f7fe fd70 	bl	8001770 <_strtok.constprop.3>
 8002c90:	a902      	add	r1, sp, #8
 8002c92:	4683      	mov	fp, r0
 8002c94:	2000      	movs	r0, #0
 8002c96:	f10d 0a0c 	add.w	sl, sp, #12
 8002c9a:	f7fe fd69 	bl	8001770 <_strtok.constprop.3>
 8002c9e:	b150      	cbz	r0, 8002cb6 <shell_thread+0xd6>
 8002ca0:	2d04      	cmp	r5, #4
 8002ca2:	d024      	beq.n	8002cee <shell_thread+0x10e>
 8002ca4:	f84a 0b04 	str.w	r0, [sl], #4
 8002ca8:	a902      	add	r1, sp, #8
 8002caa:	2000      	movs	r0, #0
 8002cac:	3501      	adds	r5, #1
 8002cae:	f7fe fd5f 	bl	8001770 <_strtok.constprop.3>
 8002cb2:	2800      	cmp	r0, #0
 8002cb4:	d1f4      	bne.n	8002ca0 <shell_thread+0xc0>
 8002cb6:	ab18      	add	r3, sp, #96	; 0x60
 8002cb8:	eb03 0385 	add.w	r3, r3, r5, lsl #2
 8002cbc:	f843 0c54 	str.w	r0, [r3, #-84]
 8002cc0:	f1bb 0f00 	cmp.w	fp, #0
 8002cc4:	d09f      	beq.n	8002c06 <shell_thread+0x26>
 8002cc6:	494b      	ldr	r1, [pc, #300]	; (8002df4 <shell_thread+0x214>)
 8002cc8:	4658      	mov	r0, fp
 8002cca:	f006 fef1 	bl	8009ab0 <strcasecmp>
 8002cce:	b9f0      	cbnz	r0, 8002d0e <shell_thread+0x12e>
 8002cd0:	bb4d      	cbnz	r5, 8002d26 <shell_thread+0x146>
 8002cd2:	2320      	movs	r3, #32
 8002cd4:	f383 8811 	msr	BASEPRI, r3
 8002cd8:	f7ff fab2 	bl	8002240 <_stats_start_measure_crit_thd>
 8002cdc:	f7ff fba0 	bl	8002420 <_dbg_check_lock>
 8002ce0:	4845      	ldr	r0, [pc, #276]	; (8002df8 <shell_thread+0x218>)
 8002ce2:	2100      	movs	r1, #0
 8002ce4:	f7fd ffcc 	bl	8000c80 <chEvtBroadcastFlagsI>
 8002ce8:	2000      	movs	r0, #0
 8002cea:	f7ff f9b1 	bl	8002050 <chThdExitS>
 8002cee:	4943      	ldr	r1, [pc, #268]	; (8002dfc <shell_thread+0x21c>)
 8002cf0:	4620      	mov	r0, r4
 8002cf2:	f7fe fd65 	bl	80017c0 <chprintf.lto_priv.148>
 8002cf6:	2300      	movs	r3, #0
 8002cf8:	9307      	str	r3, [sp, #28]
 8002cfa:	e784      	b.n	8002c06 <shell_thread+0x26>
 8002cfc:	4940      	ldr	r1, [pc, #256]	; (8002e00 <shell_thread+0x220>)
 8002cfe:	4620      	mov	r0, r4
 8002d00:	f7fe fd5e 	bl	80017c0 <chprintf.lto_priv.148>
 8002d04:	4620      	mov	r0, r4
 8002d06:	493f      	ldr	r1, [pc, #252]	; (8002e04 <shell_thread+0x224>)
 8002d08:	f7fe fd5a 	bl	80017c0 <chprintf.lto_priv.148>
 8002d0c:	e7e1      	b.n	8002cd2 <shell_thread+0xf2>
 8002d0e:	493e      	ldr	r1, [pc, #248]	; (8002e08 <shell_thread+0x228>)
 8002d10:	4658      	mov	r0, fp
 8002d12:	f006 fecd 	bl	8009ab0 <strcasecmp>
 8002d16:	b960      	cbnz	r0, 8002d32 <shell_thread+0x152>
 8002d18:	b305      	cbz	r5, 8002d5c <shell_thread+0x17c>
 8002d1a:	4a3b      	ldr	r2, [pc, #236]	; (8002e08 <shell_thread+0x228>)
 8002d1c:	493b      	ldr	r1, [pc, #236]	; (8002e0c <shell_thread+0x22c>)
 8002d1e:	4620      	mov	r0, r4
 8002d20:	f7fe fd4e 	bl	80017c0 <chprintf.lto_priv.148>
 8002d24:	e76f      	b.n	8002c06 <shell_thread+0x26>
 8002d26:	4a33      	ldr	r2, [pc, #204]	; (8002df4 <shell_thread+0x214>)
 8002d28:	4938      	ldr	r1, [pc, #224]	; (8002e0c <shell_thread+0x22c>)
 8002d2a:	4620      	mov	r0, r4
 8002d2c:	f7fe fd48 	bl	80017c0 <chprintf.lto_priv.148>
 8002d30:	e769      	b.n	8002c06 <shell_thread+0x26>
 8002d32:	f8df a0f0 	ldr.w	sl, [pc, #240]	; 8002e24 <shell_thread+0x244>
 8002d36:	f8da 0000 	ldr.w	r0, [sl]
 8002d3a:	b918      	cbnz	r0, 8002d44 <shell_thread+0x164>
 8002d3c:	e036      	b.n	8002dac <shell_thread+0x1cc>
 8002d3e:	f85a 0f08 	ldr.w	r0, [sl, #8]!
 8002d42:	b398      	cbz	r0, 8002dac <shell_thread+0x1cc>
 8002d44:	4659      	mov	r1, fp
 8002d46:	f006 feb3 	bl	8009ab0 <strcasecmp>
 8002d4a:	2800      	cmp	r0, #0
 8002d4c:	d1f7      	bne.n	8002d3e <shell_thread+0x15e>
 8002d4e:	f8da 3004 	ldr.w	r3, [sl, #4]
 8002d52:	aa03      	add	r2, sp, #12
 8002d54:	4629      	mov	r1, r5
 8002d56:	4620      	mov	r0, r4
 8002d58:	4798      	blx	r3
 8002d5a:	e754      	b.n	8002c06 <shell_thread+0x26>
 8002d5c:	f8df a0c4 	ldr.w	sl, [pc, #196]	; 8002e24 <shell_thread+0x244>
 8002d60:	492b      	ldr	r1, [pc, #172]	; (8002e10 <shell_thread+0x230>)
 8002d62:	4620      	mov	r0, r4
 8002d64:	f7fe fd2c 	bl	80017c0 <chprintf.lto_priv.148>
 8002d68:	f8da 2000 	ldr.w	r2, [sl]
 8002d6c:	b142      	cbz	r2, 8002d80 <shell_thread+0x1a0>
 8002d6e:	4d29      	ldr	r5, [pc, #164]	; (8002e14 <shell_thread+0x234>)
 8002d70:	4629      	mov	r1, r5
 8002d72:	4620      	mov	r0, r4
 8002d74:	f7fe fd24 	bl	80017c0 <chprintf.lto_priv.148>
 8002d78:	f85a 2f08 	ldr.w	r2, [sl, #8]!
 8002d7c:	2a00      	cmp	r2, #0
 8002d7e:	d1f7      	bne.n	8002d70 <shell_thread+0x190>
 8002d80:	f1b9 0f00 	cmp.w	r9, #0
 8002d84:	d00d      	beq.n	8002da2 <shell_thread+0x1c2>
 8002d86:	f8d9 2000 	ldr.w	r2, [r9]
 8002d8a:	b152      	cbz	r2, 8002da2 <shell_thread+0x1c2>
 8002d8c:	f8df a084 	ldr.w	sl, [pc, #132]	; 8002e14 <shell_thread+0x234>
 8002d90:	464d      	mov	r5, r9
 8002d92:	4651      	mov	r1, sl
 8002d94:	4620      	mov	r0, r4
 8002d96:	f7fe fd13 	bl	80017c0 <chprintf.lto_priv.148>
 8002d9a:	f855 2f08 	ldr.w	r2, [r5, #8]!
 8002d9e:	2a00      	cmp	r2, #0
 8002da0:	d1f7      	bne.n	8002d92 <shell_thread+0x1b2>
 8002da2:	4913      	ldr	r1, [pc, #76]	; (8002df0 <shell_thread+0x210>)
 8002da4:	4620      	mov	r0, r4
 8002da6:	f7fe fd0b 	bl	80017c0 <chprintf.lto_priv.148>
 8002daa:	e72c      	b.n	8002c06 <shell_thread+0x26>
 8002dac:	f1b9 0f00 	cmp.w	r9, #0
 8002db0:	d00d      	beq.n	8002dce <shell_thread+0x1ee>
 8002db2:	f8d9 0000 	ldr.w	r0, [r9]
 8002db6:	b150      	cbz	r0, 8002dce <shell_thread+0x1ee>
 8002db8:	46ca      	mov	sl, r9
 8002dba:	e002      	b.n	8002dc2 <shell_thread+0x1e2>
 8002dbc:	f85a 0f08 	ldr.w	r0, [sl, #8]!
 8002dc0:	b128      	cbz	r0, 8002dce <shell_thread+0x1ee>
 8002dc2:	4659      	mov	r1, fp
 8002dc4:	f006 fe74 	bl	8009ab0 <strcasecmp>
 8002dc8:	2800      	cmp	r0, #0
 8002dca:	d1f7      	bne.n	8002dbc <shell_thread+0x1dc>
 8002dcc:	e7bf      	b.n	8002d4e <shell_thread+0x16e>
 8002dce:	465a      	mov	r2, fp
 8002dd0:	4911      	ldr	r1, [pc, #68]	; (8002e18 <shell_thread+0x238>)
 8002dd2:	4620      	mov	r0, r4
 8002dd4:	f7fe fcf4 	bl	80017c0 <chprintf.lto_priv.148>
 8002dd8:	4910      	ldr	r1, [pc, #64]	; (8002e1c <shell_thread+0x23c>)
 8002dda:	4620      	mov	r0, r4
 8002ddc:	f7fe fcf0 	bl	80017c0 <chprintf.lto_priv.148>
 8002de0:	e711      	b.n	8002c06 <shell_thread+0x26>
 8002de2:	bf00      	nop
 8002de4:	20001558 	.word	0x20001558
 8002de8:	0800aa30 	.word	0x0800aa30
 8002dec:	0800aa38 	.word	0x0800aa38
 8002df0:	0800a76c 	.word	0x0800a76c
 8002df4:	0800aa80 	.word	0x0800aa80
 8002df8:	20001c34 	.word	0x20001c34
 8002dfc:	0800aa68 	.word	0x0800aa68
 8002e00:	0800aa58 	.word	0x0800aa58
 8002e04:	0800aa5c 	.word	0x0800aa5c
 8002e08:	0800aa88 	.word	0x0800aa88
 8002e0c:	0800a4b8 	.word	0x0800a4b8
 8002e10:	0800aa90 	.word	0x0800aa90
 8002e14:	0800aaa8 	.word	0x0800aaa8
 8002e18:	0800aaac 	.word	0x0800aaac
 8002e1c:	0800aab0 	.word	0x0800aab0
 8002e20:	0800aa50 	.word	0x0800aa50
 8002e24:	20000c40 	.word	0x20000c40
	...

08002e30 <cmd_systime>:
 8002e30:	2900      	cmp	r1, #0
 8002e32:	dd03      	ble.n	8002e3c <cmd_systime+0xc>
 8002e34:	4a15      	ldr	r2, [pc, #84]	; (8002e8c <cmd_systime+0x5c>)
 8002e36:	4916      	ldr	r1, [pc, #88]	; (8002e90 <cmd_systime+0x60>)
 8002e38:	f7fe bcc2 	b.w	80017c0 <chprintf.lto_priv.148>
 8002e3c:	b538      	push	{r3, r4, r5, lr}
 8002e3e:	4604      	mov	r4, r0
 8002e40:	2320      	movs	r3, #32
 8002e42:	f383 8811 	msr	BASEPRI, r3
 8002e46:	f7ff f9fb 	bl	8002240 <_stats_start_measure_crit_thd>
 8002e4a:	f7ff fae9 	bl	8002420 <_dbg_check_lock>
 8002e4e:	f04f 4380 	mov.w	r3, #1073741824	; 0x40000000
 8002e52:	6a5d      	ldr	r5, [r3, #36]	; 0x24
 8002e54:	f7ff fa04 	bl	8002260 <_dbg_check_unlock>
 8002e58:	f7ff f9ea 	bl	8002230 <_stats_stop_measure_crit_thd>
 8002e5c:	4b0d      	ldr	r3, [pc, #52]	; (8002e94 <cmd_systime+0x64>)
 8002e5e:	6819      	ldr	r1, [r3, #0]
 8002e60:	4299      	cmp	r1, r3
 8002e62:	d004      	beq.n	8002e6e <cmd_systime+0x3e>
 8002e64:	6998      	ldr	r0, [r3, #24]
 8002e66:	688a      	ldr	r2, [r1, #8]
 8002e68:	6881      	ldr	r1, [r0, #8]
 8002e6a:	4291      	cmp	r1, r2
 8002e6c:	d309      	bcc.n	8002e82 <cmd_systime+0x52>
 8002e6e:	2300      	movs	r3, #0
 8002e70:	f383 8811 	msr	BASEPRI, r3
 8002e74:	4908      	ldr	r1, [pc, #32]	; (8002e98 <cmd_systime+0x68>)
 8002e76:	462a      	mov	r2, r5
 8002e78:	4620      	mov	r0, r4
 8002e7a:	e8bd 4038 	ldmia.w	sp!, {r3, r4, r5, lr}
 8002e7e:	f7fe bc9f 	b.w	80017c0 <chprintf.lto_priv.148>
 8002e82:	b672      	cpsid	i
 8002e84:	4a05      	ldr	r2, [pc, #20]	; (8002e9c <cmd_systime+0x6c>)
 8002e86:	62da      	str	r2, [r3, #44]	; 0x2c
 8002e88:	e7fe      	b.n	8002e88 <cmd_systime+0x58>
 8002e8a:	bf00      	nop
 8002e8c:	0800a6c0 	.word	0x0800a6c0
 8002e90:	0800a4b8 	.word	0x0800a4b8
 8002e94:	20001558 	.word	0x20001558
 8002e98:	0800a6c8 	.word	0x0800a6c8
 8002e9c:	08009f20 	.word	0x08009f20

08002ea0 <thread4.lto_priv.158>:
 8002ea0:	b538      	push	{r3, r4, r5, lr}
 8002ea2:	4c11      	ldr	r4, [pc, #68]	; (8002ee8 <thread4.lto_priv.158+0x48>)
 8002ea4:	2320      	movs	r3, #32
 8002ea6:	69a5      	ldr	r5, [r4, #24]
 8002ea8:	f383 8811 	msr	BASEPRI, r3
 8002eac:	f7ff f9c8 	bl	8002240 <_stats_start_measure_crit_thd>
 8002eb0:	f7ff fab6 	bl	8002420 <_dbg_check_lock>
 8002eb4:	2003      	movs	r0, #3
 8002eb6:	f7ff f81b 	bl	8001ef0 <chSchGoSleepS>
 8002eba:	6a6b      	ldr	r3, [r5, #36]	; 0x24
 8002ebc:	2b00      	cmp	r3, #0
 8002ebe:	d0f9      	beq.n	8002eb4 <thread4.lto_priv.158+0x14>
 8002ec0:	f7ff f9ce 	bl	8002260 <_dbg_check_unlock>
 8002ec4:	f7ff f9b4 	bl	8002230 <_stats_stop_measure_crit_thd>
 8002ec8:	6823      	ldr	r3, [r4, #0]
 8002eca:	42a3      	cmp	r3, r4
 8002ecc:	d004      	beq.n	8002ed8 <thread4.lto_priv.158+0x38>
 8002ece:	69a2      	ldr	r2, [r4, #24]
 8002ed0:	689b      	ldr	r3, [r3, #8]
 8002ed2:	6892      	ldr	r2, [r2, #8]
 8002ed4:	429a      	cmp	r2, r3
 8002ed6:	d303      	bcc.n	8002ee0 <thread4.lto_priv.158+0x40>
 8002ed8:	2300      	movs	r3, #0
 8002eda:	f383 8811 	msr	BASEPRI, r3
 8002ede:	bd38      	pop	{r3, r4, r5, pc}
 8002ee0:	b672      	cpsid	i
 8002ee2:	4b02      	ldr	r3, [pc, #8]	; (8002eec <thread4.lto_priv.158+0x4c>)
 8002ee4:	62e3      	str	r3, [r4, #44]	; 0x2c
 8002ee6:	e7fe      	b.n	8002ee6 <thread4.lto_priv.158+0x46>
 8002ee8:	20001558 	.word	0x20001558
 8002eec:	08009ec0 	.word	0x08009ec0

08002ef0 <sys3_execute>:
 8002ef0:	b538      	push	{r3, r4, r5, lr}
 8002ef2:	2320      	movs	r3, #32
 8002ef4:	f383 8811 	msr	BASEPRI, r3
 8002ef8:	f7ff f9a2 	bl	8002240 <_stats_start_measure_crit_thd>
 8002efc:	f7ff fa90 	bl	8002420 <_dbg_check_lock>
 8002f00:	2001      	movs	r0, #1
 8002f02:	f7fe fa35 	bl	8001370 <chSysIntegrityCheckI>
 8002f06:	4c47      	ldr	r4, [pc, #284]	; (8003024 <sys3_execute+0x134>)
 8002f08:	4605      	mov	r5, r0
 8002f0a:	f7ff f9a9 	bl	8002260 <_dbg_check_unlock>
 8002f0e:	f7ff f98f 	bl	8002230 <_stats_stop_measure_crit_thd>
 8002f12:	6823      	ldr	r3, [r4, #0]
 8002f14:	42a3      	cmp	r3, r4
 8002f16:	d004      	beq.n	8002f22 <sys3_execute+0x32>
 8002f18:	69a2      	ldr	r2, [r4, #24]
 8002f1a:	689b      	ldr	r3, [r3, #8]
 8002f1c:	6892      	ldr	r2, [r2, #8]
 8002f1e:	429a      	cmp	r2, r3
 8002f20:	d370      	bcc.n	8003004 <sys3_execute+0x114>
 8002f22:	2300      	movs	r3, #0
 8002f24:	f383 8811 	msr	BASEPRI, r3
 8002f28:	f085 0101 	eor.w	r1, r5, #1
 8002f2c:	b2c9      	uxtb	r1, r1
 8002f2e:	2001      	movs	r0, #1
 8002f30:	f7fd fae6 	bl	8000500 <_test_assert>
 8002f34:	b100      	cbz	r0, 8002f38 <sys3_execute+0x48>
 8002f36:	bd38      	pop	{r3, r4, r5, pc}
 8002f38:	2320      	movs	r3, #32
 8002f3a:	f383 8811 	msr	BASEPRI, r3
 8002f3e:	f7ff f97f 	bl	8002240 <_stats_start_measure_crit_thd>
 8002f42:	f7ff fa6d 	bl	8002420 <_dbg_check_lock>
 8002f46:	2002      	movs	r0, #2
 8002f48:	f7fe fa12 	bl	8001370 <chSysIntegrityCheckI>
 8002f4c:	4605      	mov	r5, r0
 8002f4e:	f7ff f987 	bl	8002260 <_dbg_check_unlock>
 8002f52:	f7ff f96d 	bl	8002230 <_stats_stop_measure_crit_thd>
 8002f56:	6823      	ldr	r3, [r4, #0]
 8002f58:	42a3      	cmp	r3, r4
 8002f5a:	d004      	beq.n	8002f66 <sys3_execute+0x76>
 8002f5c:	69a2      	ldr	r2, [r4, #24]
 8002f5e:	689b      	ldr	r3, [r3, #8]
 8002f60:	6892      	ldr	r2, [r2, #8]
 8002f62:	429a      	cmp	r2, r3
 8002f64:	d352      	bcc.n	800300c <sys3_execute+0x11c>
 8002f66:	2300      	movs	r3, #0
 8002f68:	f383 8811 	msr	BASEPRI, r3
 8002f6c:	f085 0101 	eor.w	r1, r5, #1
 8002f70:	b2c9      	uxtb	r1, r1
 8002f72:	2002      	movs	r0, #2
 8002f74:	f7fd fac4 	bl	8000500 <_test_assert>
 8002f78:	2800      	cmp	r0, #0
 8002f7a:	d1dc      	bne.n	8002f36 <sys3_execute+0x46>
 8002f7c:	2320      	movs	r3, #32
 8002f7e:	f383 8811 	msr	BASEPRI, r3
 8002f82:	f7ff f95d 	bl	8002240 <_stats_start_measure_crit_thd>
 8002f86:	f7ff fa4b 	bl	8002420 <_dbg_check_lock>
 8002f8a:	2004      	movs	r0, #4
 8002f8c:	f7fe f9f0 	bl	8001370 <chSysIntegrityCheckI>
 8002f90:	4605      	mov	r5, r0
 8002f92:	f7ff f965 	bl	8002260 <_dbg_check_unlock>
 8002f96:	f7ff f94b 	bl	8002230 <_stats_stop_measure_crit_thd>
 8002f9a:	6823      	ldr	r3, [r4, #0]
 8002f9c:	42a3      	cmp	r3, r4
 8002f9e:	d004      	beq.n	8002faa <sys3_execute+0xba>
 8002fa0:	69a2      	ldr	r2, [r4, #24]
 8002fa2:	689b      	ldr	r3, [r3, #8]
 8002fa4:	6892      	ldr	r2, [r2, #8]
 8002fa6:	429a      	cmp	r2, r3
 8002fa8:	d334      	bcc.n	8003014 <sys3_execute+0x124>
 8002faa:	2300      	movs	r3, #0
 8002fac:	f383 8811 	msr	BASEPRI, r3
 8002fb0:	f085 0101 	eor.w	r1, r5, #1
 8002fb4:	b2c9      	uxtb	r1, r1
 8002fb6:	2003      	movs	r0, #3
 8002fb8:	f7fd faa2 	bl	8000500 <_test_assert>
 8002fbc:	2800      	cmp	r0, #0
 8002fbe:	d1ba      	bne.n	8002f36 <sys3_execute+0x46>
 8002fc0:	2320      	movs	r3, #32
 8002fc2:	f383 8811 	msr	BASEPRI, r3
 8002fc6:	f7ff f93b 	bl	8002240 <_stats_start_measure_crit_thd>
 8002fca:	f7ff fa29 	bl	8002420 <_dbg_check_lock>
 8002fce:	2008      	movs	r0, #8
 8002fd0:	f7fe f9ce 	bl	8001370 <chSysIntegrityCheckI>
 8002fd4:	4605      	mov	r5, r0
 8002fd6:	f7ff f943 	bl	8002260 <_dbg_check_unlock>
 8002fda:	f7ff f929 	bl	8002230 <_stats_stop_measure_crit_thd>
 8002fde:	6823      	ldr	r3, [r4, #0]
 8002fe0:	42a3      	cmp	r3, r4
 8002fe2:	d004      	beq.n	8002fee <sys3_execute+0xfe>
 8002fe4:	69a2      	ldr	r2, [r4, #24]
 8002fe6:	689b      	ldr	r3, [r3, #8]
 8002fe8:	6892      	ldr	r2, [r2, #8]
 8002fea:	429a      	cmp	r2, r3
 8002fec:	d316      	bcc.n	800301c <sys3_execute+0x12c>
 8002fee:	2300      	movs	r3, #0
 8002ff0:	f383 8811 	msr	BASEPRI, r3
 8002ff4:	f085 0101 	eor.w	r1, r5, #1
 8002ff8:	b2c9      	uxtb	r1, r1
 8002ffa:	2004      	movs	r0, #4
 8002ffc:	e8bd 4038 	ldmia.w	sp!, {r3, r4, r5, lr}
 8003000:	f7fd ba7e 	b.w	8000500 <_test_assert>
 8003004:	b672      	cpsid	i
 8003006:	4b08      	ldr	r3, [pc, #32]	; (8003028 <sys3_execute+0x138>)
 8003008:	62e3      	str	r3, [r4, #44]	; 0x2c
 800300a:	e7fe      	b.n	800300a <sys3_execute+0x11a>
 800300c:	b672      	cpsid	i
 800300e:	4b06      	ldr	r3, [pc, #24]	; (8003028 <sys3_execute+0x138>)
 8003010:	62e3      	str	r3, [r4, #44]	; 0x2c
 8003012:	e7fe      	b.n	8003012 <sys3_execute+0x122>
 8003014:	b672      	cpsid	i
 8003016:	4b04      	ldr	r3, [pc, #16]	; (8003028 <sys3_execute+0x138>)
 8003018:	62e3      	str	r3, [r4, #44]	; 0x2c
 800301a:	e7fe      	b.n	800301a <sys3_execute+0x12a>
 800301c:	b672      	cpsid	i
 800301e:	4b02      	ldr	r3, [pc, #8]	; (8003028 <sys3_execute+0x138>)
 8003020:	62e3      	str	r3, [r4, #44]	; 0x2c
 8003022:	e7fe      	b.n	8003022 <sys3_execute+0x132>
 8003024:	20001558 	.word	0x20001558
 8003028:	08009eb0 	.word	0x08009eb0
 800302c:	00000000 	.word	0x00000000

08003030 <evt3_execute>:
 8003030:	b570      	push	{r4, r5, r6, lr}
 8003032:	2000      	movs	r0, #0
 8003034:	f7ff fbf4 	bl	8002820 <chEvtWaitOneTimeout.constprop.47>
 8003038:	fab0 f180 	clz	r1, r0
 800303c:	0949      	lsrs	r1, r1, #5
 800303e:	2001      	movs	r0, #1
 8003040:	f7fd fa5e 	bl	8000500 <_test_assert>
 8003044:	b100      	cbz	r0, 8003048 <evt3_execute+0x18>
 8003046:	bd70      	pop	{r4, r5, r6, pc}
 8003048:	4c78      	ldr	r4, [pc, #480]	; (800322c <evt3_execute+0x1fc>)
 800304a:	4605      	mov	r5, r0
 800304c:	2320      	movs	r3, #32
 800304e:	69a1      	ldr	r1, [r4, #24]
 8003050:	f383 8811 	msr	BASEPRI, r3
 8003054:	f7ff f8f4 	bl	8002240 <_stats_start_measure_crit_thd>
 8003058:	f7ff f9e2 	bl	8002420 <_dbg_check_lock>
 800305c:	6b8b      	ldr	r3, [r1, #56]	; 0x38
 800305e:	2b00      	cmp	r3, #0
 8003060:	f040 80a6 	bne.w	80031b0 <evt3_execute+0x180>
 8003064:	f7ff f8fc 	bl	8002260 <_dbg_check_unlock>
 8003068:	f7ff f8e2 	bl	8002230 <_stats_stop_measure_crit_thd>
 800306c:	6823      	ldr	r3, [r4, #0]
 800306e:	42a3      	cmp	r3, r4
 8003070:	d005      	beq.n	800307e <evt3_execute+0x4e>
 8003072:	69a2      	ldr	r2, [r4, #24]
 8003074:	689b      	ldr	r3, [r3, #8]
 8003076:	6892      	ldr	r2, [r2, #8]
 8003078:	429a      	cmp	r2, r3
 800307a:	f0c0 8095 	bcc.w	80031a8 <evt3_execute+0x178>
 800307e:	2300      	movs	r3, #0
 8003080:	f383 8811 	msr	BASEPRI, r3
 8003084:	2101      	movs	r1, #1
 8003086:	2002      	movs	r0, #2
 8003088:	f7fd fa3a 	bl	8000500 <_test_assert>
 800308c:	4601      	mov	r1, r0
 800308e:	4605      	mov	r5, r0
 8003090:	2800      	cmp	r0, #0
 8003092:	d1d8      	bne.n	8003046 <evt3_execute+0x16>
 8003094:	69a6      	ldr	r6, [r4, #24]
 8003096:	2320      	movs	r3, #32
 8003098:	f383 8811 	msr	BASEPRI, r3
 800309c:	f7ff f8d0 	bl	8002240 <_stats_start_measure_crit_thd>
 80030a0:	f7ff f9be 	bl	8002420 <_dbg_check_lock>
 80030a4:	6bb3      	ldr	r3, [r6, #56]	; 0x38
 80030a6:	3301      	adds	r3, #1
 80030a8:	f000 8097 	beq.w	80031da <evt3_execute+0x1aa>
 80030ac:	f7ff f8d8 	bl	8002260 <_dbg_check_unlock>
 80030b0:	f7ff f8be 	bl	8002230 <_stats_stop_measure_crit_thd>
 80030b4:	6823      	ldr	r3, [r4, #0]
 80030b6:	42a3      	cmp	r3, r4
 80030b8:	d005      	beq.n	80030c6 <evt3_execute+0x96>
 80030ba:	69a2      	ldr	r2, [r4, #24]
 80030bc:	689b      	ldr	r3, [r3, #8]
 80030be:	6892      	ldr	r2, [r2, #8]
 80030c0:	429a      	cmp	r2, r3
 80030c2:	f0c0 809b 	bcc.w	80031fc <evt3_execute+0x1cc>
 80030c6:	2300      	movs	r3, #0
 80030c8:	f383 8811 	msr	BASEPRI, r3
 80030cc:	2501      	movs	r5, #1
 80030ce:	4629      	mov	r1, r5
 80030d0:	2003      	movs	r0, #3
 80030d2:	f7fd fa15 	bl	8000500 <_test_assert>
 80030d6:	2800      	cmp	r0, #0
 80030d8:	d1b5      	bne.n	8003046 <evt3_execute+0x16>
 80030da:	200a      	movs	r0, #10
 80030dc:	f7ff fba0 	bl	8002820 <chEvtWaitOneTimeout.constprop.47>
 80030e0:	fab0 f180 	clz	r1, r0
 80030e4:	0949      	lsrs	r1, r1, #5
 80030e6:	2004      	movs	r0, #4
 80030e8:	f7fd fa0a 	bl	8000500 <_test_assert>
 80030ec:	2800      	cmp	r0, #0
 80030ee:	d1aa      	bne.n	8003046 <evt3_execute+0x16>
 80030f0:	69a5      	ldr	r5, [r4, #24]
 80030f2:	2320      	movs	r3, #32
 80030f4:	f383 8811 	msr	BASEPRI, r3
 80030f8:	f7ff f8a2 	bl	8002240 <_stats_start_measure_crit_thd>
 80030fc:	f7ff f990 	bl	8002420 <_dbg_check_lock>
 8003100:	6bae      	ldr	r6, [r5, #56]	; 0x38
 8003102:	b94e      	cbnz	r6, 8003118 <evt3_execute+0xe8>
 8003104:	f04f 33ff 	mov.w	r3, #4294967295	; 0xffffffff
 8003108:	210a      	movs	r1, #10
 800310a:	626b      	str	r3, [r5, #36]	; 0x24
 800310c:	4608      	mov	r0, r1
 800310e:	f7fe ffc7 	bl	80020a0 <chSchGoSleepTimeoutS>
 8003112:	2800      	cmp	r0, #0
 8003114:	db7a      	blt.n	800320c <evt3_execute+0x1dc>
 8003116:	6bae      	ldr	r6, [r5, #56]	; 0x38
 8003118:	2300      	movs	r3, #0
 800311a:	63ab      	str	r3, [r5, #56]	; 0x38
 800311c:	f7ff f8a0 	bl	8002260 <_dbg_check_unlock>
 8003120:	f7ff f886 	bl	8002230 <_stats_stop_measure_crit_thd>
 8003124:	6823      	ldr	r3, [r4, #0]
 8003126:	42a3      	cmp	r3, r4
 8003128:	d004      	beq.n	8003134 <evt3_execute+0x104>
 800312a:	69a2      	ldr	r2, [r4, #24]
 800312c:	689b      	ldr	r3, [r3, #8]
 800312e:	6892      	ldr	r2, [r2, #8]
 8003130:	429a      	cmp	r2, r3
 8003132:	d36e      	bcc.n	8003212 <evt3_execute+0x1e2>
 8003134:	2300      	movs	r3, #0
 8003136:	f383 8811 	msr	BASEPRI, r3
 800313a:	fab6 f186 	clz	r1, r6
 800313e:	0949      	lsrs	r1, r1, #5
 8003140:	2005      	movs	r0, #5
 8003142:	f7fd f9dd 	bl	8000500 <_test_assert>
 8003146:	4605      	mov	r5, r0
 8003148:	2800      	cmp	r0, #0
 800314a:	f47f af7c 	bne.w	8003046 <evt3_execute+0x16>
 800314e:	69a6      	ldr	r6, [r4, #24]
 8003150:	2320      	movs	r3, #32
 8003152:	f383 8811 	msr	BASEPRI, r3
 8003156:	f7ff f873 	bl	8002240 <_stats_start_measure_crit_thd>
 800315a:	f7ff f961 	bl	8002420 <_dbg_check_lock>
 800315e:	6bb3      	ldr	r3, [r6, #56]	; 0x38
 8003160:	3301      	adds	r3, #1
 8003162:	d008      	beq.n	8003176 <evt3_execute+0x146>
 8003164:	f04f 33ff 	mov.w	r3, #4294967295	; 0xffffffff
 8003168:	6273      	str	r3, [r6, #36]	; 0x24
 800316a:	210a      	movs	r1, #10
 800316c:	200b      	movs	r0, #11
 800316e:	f7fe ff97 	bl	80020a0 <chSchGoSleepTimeoutS>
 8003172:	2800      	cmp	r0, #0
 8003174:	db51      	blt.n	800321a <evt3_execute+0x1ea>
 8003176:	2300      	movs	r3, #0
 8003178:	63b3      	str	r3, [r6, #56]	; 0x38
 800317a:	f7ff f871 	bl	8002260 <_dbg_check_unlock>
 800317e:	f7ff f857 	bl	8002230 <_stats_stop_measure_crit_thd>
 8003182:	6823      	ldr	r3, [r4, #0]
 8003184:	42a3      	cmp	r3, r4
 8003186:	d004      	beq.n	8003192 <evt3_execute+0x162>
 8003188:	69a2      	ldr	r2, [r4, #24]
 800318a:	689b      	ldr	r3, [r3, #8]
 800318c:	6892      	ldr	r2, [r2, #8]
 800318e:	429a      	cmp	r2, r3
 8003190:	d347      	bcc.n	8003222 <evt3_execute+0x1f2>
 8003192:	2300      	movs	r3, #0
 8003194:	f383 8811 	msr	BASEPRI, r3
 8003198:	f04f 31ff 	mov.w	r1, #4294967295	; 0xffffffff
 800319c:	3101      	adds	r1, #1
 800319e:	2006      	movs	r0, #6
 80031a0:	e8bd 4070 	ldmia.w	sp!, {r4, r5, r6, lr}
 80031a4:	f7fd b9ac 	b.w	8000500 <_test_assert>
 80031a8:	b672      	cpsid	i
 80031aa:	4b21      	ldr	r3, [pc, #132]	; (8003230 <evt3_execute+0x200>)
 80031ac:	62e3      	str	r3, [r4, #44]	; 0x2c
 80031ae:	e7fe      	b.n	80031ae <evt3_execute+0x17e>
 80031b0:	638d      	str	r5, [r1, #56]	; 0x38
 80031b2:	f7ff f855 	bl	8002260 <_dbg_check_unlock>
 80031b6:	f7ff f83b 	bl	8002230 <_stats_stop_measure_crit_thd>
 80031ba:	6823      	ldr	r3, [r4, #0]
 80031bc:	42a3      	cmp	r3, r4
 80031be:	d004      	beq.n	80031ca <evt3_execute+0x19a>
 80031c0:	69a2      	ldr	r2, [r4, #24]
 80031c2:	689b      	ldr	r3, [r3, #8]
 80031c4:	6892      	ldr	r2, [r2, #8]
 80031c6:	429a      	cmp	r2, r3
 80031c8:	d303      	bcc.n	80031d2 <evt3_execute+0x1a2>
 80031ca:	2100      	movs	r1, #0
 80031cc:	f381 8811 	msr	BASEPRI, r1
 80031d0:	e759      	b.n	8003086 <evt3_execute+0x56>
 80031d2:	b672      	cpsid	i
 80031d4:	4b16      	ldr	r3, [pc, #88]	; (8003230 <evt3_execute+0x200>)
 80031d6:	62e3      	str	r3, [r4, #44]	; 0x2c
 80031d8:	e7fe      	b.n	80031d8 <evt3_execute+0x1a8>
 80031da:	63b1      	str	r1, [r6, #56]	; 0x38
 80031dc:	f7ff f840 	bl	8002260 <_dbg_check_unlock>
 80031e0:	f7ff f826 	bl	8002230 <_stats_stop_measure_crit_thd>
 80031e4:	6823      	ldr	r3, [r4, #0]
 80031e6:	42a3      	cmp	r3, r4
 80031e8:	d004      	beq.n	80031f4 <evt3_execute+0x1c4>
 80031ea:	69a2      	ldr	r2, [r4, #24]
 80031ec:	689b      	ldr	r3, [r3, #8]
 80031ee:	6892      	ldr	r2, [r2, #8]
 80031f0:	429a      	cmp	r2, r3
 80031f2:	d307      	bcc.n	8003204 <evt3_execute+0x1d4>
 80031f4:	2300      	movs	r3, #0
 80031f6:	f383 8811 	msr	BASEPRI, r3
 80031fa:	e768      	b.n	80030ce <evt3_execute+0x9e>
 80031fc:	b672      	cpsid	i
 80031fe:	4b0c      	ldr	r3, [pc, #48]	; (8003230 <evt3_execute+0x200>)
 8003200:	62e3      	str	r3, [r4, #44]	; 0x2c
 8003202:	e7fe      	b.n	8003202 <evt3_execute+0x1d2>
 8003204:	b672      	cpsid	i
 8003206:	4b0a      	ldr	r3, [pc, #40]	; (8003230 <evt3_execute+0x200>)
 8003208:	62e3      	str	r3, [r4, #44]	; 0x2c
 800320a:	e7fe      	b.n	800320a <evt3_execute+0x1da>
 800320c:	f7ff f838 	bl	8002280 <chSysUnlock.lto_priv.88>
 8003210:	e793      	b.n	800313a <evt3_execute+0x10a>
 8003212:	b672      	cpsid	i
 8003214:	4b06      	ldr	r3, [pc, #24]	; (8003230 <evt3_execute+0x200>)
 8003216:	62e3      	str	r3, [r4, #44]	; 0x2c
 8003218:	e7fe      	b.n	8003218 <evt3_execute+0x1e8>
 800321a:	f7ff f831 	bl	8002280 <chSysUnlock.lto_priv.88>
 800321e:	4629      	mov	r1, r5
 8003220:	e7bc      	b.n	800319c <evt3_execute+0x16c>
 8003222:	b672      	cpsid	i
 8003224:	4b02      	ldr	r3, [pc, #8]	; (8003230 <evt3_execute+0x200>)
 8003226:	62e3      	str	r3, [r4, #44]	; 0x2c
 8003228:	e7fe      	b.n	8003228 <evt3_execute+0x1f8>
 800322a:	bf00      	nop
 800322c:	20001558 	.word	0x20001558
 8003230:	08009dd0 	.word	0x08009dd0
	...

08003240 <thread4.lto_priv.157>:
 8003240:	b508      	push	{r3, lr}
 8003242:	4601      	mov	r1, r0
 8003244:	2320      	movs	r3, #32
 8003246:	f383 8811 	msr	BASEPRI, r3
 800324a:	f7fe fff9 	bl	8002240 <_stats_start_measure_crit_thd>
 800324e:	f7ff f8e7 	bl	8002420 <_dbg_check_lock>
 8003252:	f7fd fb95 	bl	8000980 <chDbgCheckClassI>
 8003256:	688b      	ldr	r3, [r1, #8]
 8003258:	2b00      	cmp	r3, #0
 800325a:	dd12      	ble.n	8003282 <thread4.lto_priv.157+0x42>
 800325c:	f7fe fdf8 	bl	8001e50 <chSchRescheduleS>
 8003260:	f7fe fffe 	bl	8002260 <_dbg_check_unlock>
 8003264:	f7fe ffe4 	bl	8002230 <_stats_stop_measure_crit_thd>
 8003268:	4b0a      	ldr	r3, [pc, #40]	; (8003294 <thread4.lto_priv.157+0x54>)
 800326a:	681a      	ldr	r2, [r3, #0]
 800326c:	429a      	cmp	r2, r3
 800326e:	d004      	beq.n	800327a <thread4.lto_priv.157+0x3a>
 8003270:	6999      	ldr	r1, [r3, #24]
 8003272:	6892      	ldr	r2, [r2, #8]
 8003274:	6889      	ldr	r1, [r1, #8]
 8003276:	4291      	cmp	r1, r2
 8003278:	d307      	bcc.n	800328a <thread4.lto_priv.157+0x4a>
 800327a:	2300      	movs	r3, #0
 800327c:	f383 8811 	msr	BASEPRI, r3
 8003280:	bd08      	pop	{r3, pc}
 8003282:	4608      	mov	r0, r1
 8003284:	f7fd fd64 	bl	8000d50 <chSemSignalI>
 8003288:	e7e8      	b.n	800325c <thread4.lto_priv.157+0x1c>
 800328a:	b672      	cpsid	i
 800328c:	4a02      	ldr	r2, [pc, #8]	; (8003298 <thread4.lto_priv.157+0x58>)
 800328e:	62da      	str	r2, [r3, #44]	; 0x2c
 8003290:	e7fe      	b.n	8003290 <thread4.lto_priv.157+0x50>
 8003292:	bf00      	nop
 8003294:	20001558 	.word	0x20001558
 8003298:	08009e60 	.word	0x08009e60
 800329c:	00000000 	.word	0x00000000

080032a0 <test_terminate_threads>:
 80032a0:	e92d 41f0 	stmdb	sp!, {r4, r5, r6, r7, r8, lr}
 80032a4:	4d15      	ldr	r5, [pc, #84]	; (80032fc <test_terminate_threads+0x5c>)
 80032a6:	4c16      	ldr	r4, [pc, #88]	; (8003300 <test_terminate_threads+0x60>)
 80032a8:	f105 0814 	add.w	r8, r5, #20
 80032ac:	2720      	movs	r7, #32
 80032ae:	2600      	movs	r6, #0
 80032b0:	f855 1b04 	ldr.w	r1, [r5], #4
 80032b4:	b1c9      	cbz	r1, 80032ea <test_terminate_threads+0x4a>
 80032b6:	f387 8811 	msr	BASEPRI, r7
 80032ba:	f7fe ffc1 	bl	8002240 <_stats_start_measure_crit_thd>
 80032be:	f7ff f8af 	bl	8002420 <_dbg_check_lock>
 80032c2:	f891 3021 	ldrb.w	r3, [r1, #33]	; 0x21
 80032c6:	f043 0304 	orr.w	r3, r3, #4
 80032ca:	f881 3021 	strb.w	r3, [r1, #33]	; 0x21
 80032ce:	f7fe ffc7 	bl	8002260 <_dbg_check_unlock>
 80032d2:	f7fe ffad 	bl	8002230 <_stats_stop_measure_crit_thd>
 80032d6:	6823      	ldr	r3, [r4, #0]
 80032d8:	42a3      	cmp	r3, r4
 80032da:	d004      	beq.n	80032e6 <test_terminate_threads+0x46>
 80032dc:	69a2      	ldr	r2, [r4, #24]
 80032de:	689b      	ldr	r3, [r3, #8]
 80032e0:	6892      	ldr	r2, [r2, #8]
 80032e2:	429a      	cmp	r2, r3
 80032e4:	d305      	bcc.n	80032f2 <test_terminate_threads+0x52>
 80032e6:	f386 8811 	msr	BASEPRI, r6
 80032ea:	4545      	cmp	r5, r8
 80032ec:	d1e0      	bne.n	80032b0 <test_terminate_threads+0x10>
 80032ee:	e8bd 81f0 	ldmia.w	sp!, {r4, r5, r6, r7, r8, pc}
 80032f2:	b672      	cpsid	i
 80032f4:	4b03      	ldr	r3, [pc, #12]	; (8003304 <test_terminate_threads+0x64>)
 80032f6:	62e3      	str	r3, [r4, #44]	; 0x2c
 80032f8:	e7fe      	b.n	80032f8 <test_terminate_threads+0x58>
 80032fa:	bf00      	nop
 80032fc:	2000236c 	.word	0x2000236c
 8003300:	20001558 	.word	0x20001558
 8003304:	08009d70 	.word	0x08009d70
	...

08003310 <_test_assert_time_window>:
 8003310:	b5f8      	push	{r3, r4, r5, r6, r7, lr}
 8003312:	4607      	mov	r7, r0
 8003314:	460e      	mov	r6, r1
 8003316:	4614      	mov	r4, r2
 8003318:	2320      	movs	r3, #32
 800331a:	f383 8811 	msr	BASEPRI, r3
 800331e:	f7fe ff8f 	bl	8002240 <_stats_start_measure_crit_thd>
 8003322:	f7ff f87d 	bl	8002420 <_dbg_check_lock>
 8003326:	f04f 4380 	mov.w	r3, #1073741824	; 0x40000000
 800332a:	6a5d      	ldr	r5, [r3, #36]	; 0x24
 800332c:	f7fe ff98 	bl	8002260 <_dbg_check_unlock>
 8003330:	f7fe ff7e 	bl	8002230 <_stats_stop_measure_crit_thd>
 8003334:	4b0e      	ldr	r3, [pc, #56]	; (8003370 <_test_assert_time_window+0x60>)
 8003336:	681a      	ldr	r2, [r3, #0]
 8003338:	429a      	cmp	r2, r3
 800333a:	d004      	beq.n	8003346 <_test_assert_time_window+0x36>
 800333c:	6999      	ldr	r1, [r3, #24]
 800333e:	6892      	ldr	r2, [r2, #8]
 8003340:	6889      	ldr	r1, [r1, #8]
 8003342:	4291      	cmp	r1, r2
 8003344:	d30f      	bcc.n	8003366 <_test_assert_time_window+0x56>
 8003346:	2300      	movs	r3, #0
 8003348:	f383 8811 	msr	BASEPRI, r3
 800334c:	1bad      	subs	r5, r5, r6
 800334e:	1ba4      	subs	r4, r4, r6
 8003350:	42a5      	cmp	r5, r4
 8003352:	d306      	bcc.n	8003362 <_test_assert_time_window+0x52>
 8003354:	4807      	ldr	r0, [pc, #28]	; (8003374 <_test_assert_time_window+0x64>)
 8003356:	4908      	ldr	r1, [pc, #32]	; (8003378 <_test_assert_time_window+0x68>)
 8003358:	4a08      	ldr	r2, [pc, #32]	; (800337c <_test_assert_time_window+0x6c>)
 800335a:	2301      	movs	r3, #1
 800335c:	7003      	strb	r3, [r0, #0]
 800335e:	700b      	strb	r3, [r1, #0]
 8003360:	6017      	str	r7, [r2, #0]
 8003362:	4618      	mov	r0, r3
 8003364:	bdf8      	pop	{r3, r4, r5, r6, r7, pc}
 8003366:	b672      	cpsid	i
 8003368:	4a05      	ldr	r2, [pc, #20]	; (8003380 <_test_assert_time_window+0x70>)
 800336a:	62da      	str	r2, [r3, #44]	; 0x2c
 800336c:	e7fe      	b.n	800336c <_test_assert_time_window+0x5c>
 800336e:	bf00      	nop
 8003370:	20001558 	.word	0x20001558
 8003374:	20002340 	.word	0x20002340
 8003378:	20001c04 	.word	0x20001c04
 800337c:	20001bac 	.word	0x20001bac
 8003380:	08009e40 	.word	0x08009e40
	...

08003390 <test_emit_token>:
 8003390:	b508      	push	{r3, lr}
 8003392:	4601      	mov	r1, r0
 8003394:	2320      	movs	r3, #32
 8003396:	f383 8811 	msr	BASEPRI, r3
 800339a:	f7fe ff51 	bl	8002240 <_stats_start_measure_crit_thd>
 800339e:	f7ff f83f 	bl	8002420 <_dbg_check_lock>
 80033a2:	4a0d      	ldr	r2, [pc, #52]	; (80033d8 <test_emit_token+0x48>)
 80033a4:	6813      	ldr	r3, [r2, #0]
 80033a6:	7019      	strb	r1, [r3, #0]
 80033a8:	3301      	adds	r3, #1
 80033aa:	6013      	str	r3, [r2, #0]
 80033ac:	f7fe ff58 	bl	8002260 <_dbg_check_unlock>
 80033b0:	f7fe ff3e 	bl	8002230 <_stats_stop_measure_crit_thd>
 80033b4:	4b09      	ldr	r3, [pc, #36]	; (80033dc <test_emit_token+0x4c>)
 80033b6:	681a      	ldr	r2, [r3, #0]
 80033b8:	429a      	cmp	r2, r3
 80033ba:	d004      	beq.n	80033c6 <test_emit_token+0x36>
 80033bc:	6999      	ldr	r1, [r3, #24]
 80033be:	6892      	ldr	r2, [r2, #8]
 80033c0:	6889      	ldr	r1, [r1, #8]
 80033c2:	4291      	cmp	r1, r2
 80033c4:	d303      	bcc.n	80033ce <test_emit_token+0x3e>
 80033c6:	2300      	movs	r3, #0
 80033c8:	f383 8811 	msr	BASEPRI, r3
 80033cc:	bd08      	pop	{r3, pc}
 80033ce:	b672      	cpsid	i
 80033d0:	4a03      	ldr	r2, [pc, #12]	; (80033e0 <test_emit_token+0x50>)
 80033d2:	62da      	str	r2, [r3, #44]	; 0x2c
 80033d4:	e7fe      	b.n	80033d4 <test_emit_token+0x44>
 80033d6:	bf00      	nop
 80033d8:	20002390 	.word	0x20002390
 80033dc:	20001558 	.word	0x20001558
 80033e0:	08009e40 	.word	0x08009e40
	...

080033f0 <h3>:
 80033f0:	2043      	movs	r0, #67	; 0x43
 80033f2:	f7ff bfcd 	b.w	8003390 <test_emit_token>
 80033f6:	bf00      	nop
	...

08003400 <h2>:
 8003400:	2042      	movs	r0, #66	; 0x42
 8003402:	f7ff bfc5 	b.w	8003390 <test_emit_token>
 8003406:	bf00      	nop
	...

08003410 <h1>:
 8003410:	2041      	movs	r0, #65	; 0x41
 8003412:	f7ff bfbd 	b.w	8003390 <test_emit_token>
 8003416:	bf00      	nop
	...

08003420 <mbox1_execute>:
 8003420:	b5f0      	push	{r4, r5, r6, r7, lr}
 8003422:	2320      	movs	r3, #32
 8003424:	b083      	sub	sp, #12
 8003426:	f383 8811 	msr	BASEPRI, r3
 800342a:	4c13      	ldr	r4, [pc, #76]	; (8003478 <mbox1_execute+0x58>)
 800342c:	f7fe ff08 	bl	8002240 <_stats_start_measure_crit_thd>
 8003430:	f7fe fff6 	bl	8002420 <_dbg_check_lock>
 8003434:	f7fd faa4 	bl	8000980 <chDbgCheckClassI>
 8003438:	f7fd faa2 	bl	8000980 <chDbgCheckClassI>
 800343c:	6a61      	ldr	r1, [r4, #36]	; 0x24
 800343e:	f1a1 0105 	sub.w	r1, r1, #5
 8003442:	fab1 f181 	clz	r1, r1
 8003446:	2001      	movs	r0, #1
 8003448:	0949      	lsrs	r1, r1, #5
 800344a:	f7fd f859 	bl	8000500 <_test_assert>
 800344e:	b1b8      	cbz	r0, 8003480 <mbox1_execute+0x60>
 8003450:	f7fe ff06 	bl	8002260 <_dbg_check_unlock>
 8003454:	f7fe feec 	bl	8002230 <_stats_stop_measure_crit_thd>
 8003458:	4b08      	ldr	r3, [pc, #32]	; (800347c <mbox1_execute+0x5c>)
 800345a:	681a      	ldr	r2, [r3, #0]
 800345c:	429a      	cmp	r2, r3
 800345e:	d005      	beq.n	800346c <mbox1_execute+0x4c>
 8003460:	6999      	ldr	r1, [r3, #24]
 8003462:	6892      	ldr	r2, [r2, #8]
 8003464:	6889      	ldr	r1, [r1, #8]
 8003466:	4291      	cmp	r1, r2
 8003468:	f0c0 835e 	bcc.w	8003b28 <mbox1_execute+0x708>
 800346c:	2300      	movs	r3, #0
 800346e:	f383 8811 	msr	BASEPRI, r3
 8003472:	b003      	add	sp, #12
 8003474:	bdf0      	pop	{r4, r5, r6, r7, pc}
 8003476:	bf00      	nop
 8003478:	20000c78 	.word	0x20000c78
 800347c:	20001558 	.word	0x20001558
 8003480:	4dd5      	ldr	r5, [pc, #852]	; (80037d8 <mbox1_execute+0x3b8>)
 8003482:	f7fe feed 	bl	8002260 <_dbg_check_unlock>
 8003486:	f7fe fed3 	bl	8002230 <_stats_stop_measure_crit_thd>
 800348a:	682b      	ldr	r3, [r5, #0]
 800348c:	42ab      	cmp	r3, r5
 800348e:	d005      	beq.n	800349c <mbox1_execute+0x7c>
 8003490:	69aa      	ldr	r2, [r5, #24]
 8003492:	689b      	ldr	r3, [r3, #8]
 8003494:	6892      	ldr	r2, [r2, #8]
 8003496:	429a      	cmp	r2, r3
 8003498:	f0c0 8342 	bcc.w	8003b20 <mbox1_execute+0x700>
 800349c:	2300      	movs	r3, #0
 800349e:	f383 8811 	msr	BASEPRI, r3
 80034a2:	2642      	movs	r6, #66	; 0x42
 80034a4:	f04f 31ff 	mov.w	r1, #4294967295	; 0xffffffff
 80034a8:	4630      	mov	r0, r6
 80034aa:	f7ff fa19 	bl	80028e0 <chMBPost.constprop.37>
 80034ae:	fab0 f180 	clz	r1, r0
 80034b2:	0949      	lsrs	r1, r1, #5
 80034b4:	2002      	movs	r0, #2
 80034b6:	f7fd f823 	bl	8000500 <_test_assert>
 80034ba:	3601      	adds	r6, #1
 80034bc:	2800      	cmp	r0, #0
 80034be:	d1d8      	bne.n	8003472 <mbox1_execute+0x52>
 80034c0:	2e46      	cmp	r6, #70	; 0x46
 80034c2:	d1ef      	bne.n	80034a4 <mbox1_execute+0x84>
 80034c4:	f04f 31ff 	mov.w	r1, #4294967295	; 0xffffffff
 80034c8:	2041      	movs	r0, #65	; 0x41
 80034ca:	f7ff fa49 	bl	8002960 <chMBPostAhead.constprop.34>
 80034ce:	fab0 f180 	clz	r1, r0
 80034d2:	0949      	lsrs	r1, r1, #5
 80034d4:	2003      	movs	r0, #3
 80034d6:	f7fd f813 	bl	8000500 <_test_assert>
 80034da:	2800      	cmp	r0, #0
 80034dc:	d1c9      	bne.n	8003472 <mbox1_execute+0x52>
 80034de:	2101      	movs	r1, #1
 80034e0:	2058      	movs	r0, #88	; 0x58
 80034e2:	f7ff f9fd 	bl	80028e0 <chMBPost.constprop.37>
 80034e6:	f1a0 31ff 	sub.w	r1, r0, #4294967295	; 0xffffffff
 80034ea:	fab1 f181 	clz	r1, r1
 80034ee:	0949      	lsrs	r1, r1, #5
 80034f0:	2004      	movs	r0, #4
 80034f2:	f7fd f805 	bl	8000500 <_test_assert>
 80034f6:	2800      	cmp	r0, #0
 80034f8:	d1bb      	bne.n	8003472 <mbox1_execute+0x52>
 80034fa:	2320      	movs	r3, #32
 80034fc:	f383 8811 	msr	BASEPRI, r3
 8003500:	f7fe fe9e 	bl	8002240 <_stats_start_measure_crit_thd>
 8003504:	f7fe ff8c 	bl	8002420 <_dbg_check_lock>
 8003508:	2058      	movs	r0, #88	; 0x58
 800350a:	f7fd ffb1 	bl	8001470 <chMBPostI.constprop.36>
 800350e:	4606      	mov	r6, r0
 8003510:	f7fe fea6 	bl	8002260 <_dbg_check_unlock>
 8003514:	f7fe fe8c 	bl	8002230 <_stats_stop_measure_crit_thd>
 8003518:	682b      	ldr	r3, [r5, #0]
 800351a:	42ab      	cmp	r3, r5
 800351c:	d005      	beq.n	800352a <mbox1_execute+0x10a>
 800351e:	69aa      	ldr	r2, [r5, #24]
 8003520:	689b      	ldr	r3, [r3, #8]
 8003522:	6892      	ldr	r2, [r2, #8]
 8003524:	429a      	cmp	r2, r3
 8003526:	f0c0 8303 	bcc.w	8003b30 <mbox1_execute+0x710>
 800352a:	2300      	movs	r3, #0
 800352c:	f383 8811 	msr	BASEPRI, r3
 8003530:	f106 0e01 	add.w	lr, r6, #1
 8003534:	f1de 0100 	rsbs	r1, lr, #0
 8003538:	eb41 010e 	adc.w	r1, r1, lr
 800353c:	2005      	movs	r0, #5
 800353e:	f7fc ffdf 	bl	8000500 <_test_assert>
 8003542:	2800      	cmp	r0, #0
 8003544:	d195      	bne.n	8003472 <mbox1_execute+0x52>
 8003546:	2101      	movs	r1, #1
 8003548:	2058      	movs	r0, #88	; 0x58
 800354a:	f7ff fa09 	bl	8002960 <chMBPostAhead.constprop.34>
 800354e:	f100 0c01 	add.w	ip, r0, #1
 8003552:	f1dc 0100 	rsbs	r1, ip, #0
 8003556:	eb41 010c 	adc.w	r1, r1, ip
 800355a:	2006      	movs	r0, #6
 800355c:	f7fc ffd0 	bl	8000500 <_test_assert>
 8003560:	2800      	cmp	r0, #0
 8003562:	d186      	bne.n	8003472 <mbox1_execute+0x52>
 8003564:	2320      	movs	r3, #32
 8003566:	f383 8811 	msr	BASEPRI, r3
 800356a:	f7fe fe69 	bl	8002240 <_stats_start_measure_crit_thd>
 800356e:	f7fe ff57 	bl	8002420 <_dbg_check_lock>
 8003572:	2058      	movs	r0, #88	; 0x58
 8003574:	f7fd ffa4 	bl	80014c0 <chMBPostAheadI.constprop.33>
 8003578:	4606      	mov	r6, r0
 800357a:	f7fe fe71 	bl	8002260 <_dbg_check_unlock>
 800357e:	f7fe fe57 	bl	8002230 <_stats_stop_measure_crit_thd>
 8003582:	682b      	ldr	r3, [r5, #0]
 8003584:	42ab      	cmp	r3, r5
 8003586:	d005      	beq.n	8003594 <mbox1_execute+0x174>
 8003588:	69aa      	ldr	r2, [r5, #24]
 800358a:	689b      	ldr	r3, [r3, #8]
 800358c:	6892      	ldr	r2, [r2, #8]
 800358e:	429a      	cmp	r2, r3
 8003590:	f0c0 82d2 	bcc.w	8003b38 <mbox1_execute+0x718>
 8003594:	2300      	movs	r3, #0
 8003596:	f383 8811 	msr	BASEPRI, r3
 800359a:	1c77      	adds	r7, r6, #1
 800359c:	4279      	negs	r1, r7
 800359e:	4179      	adcs	r1, r7
 80035a0:	2007      	movs	r0, #7
 80035a2:	f7fc ffad 	bl	8000500 <_test_assert>
 80035a6:	2800      	cmp	r0, #0
 80035a8:	f47f af63 	bne.w	8003472 <mbox1_execute+0x52>
 80035ac:	2520      	movs	r5, #32
 80035ae:	f385 8811 	msr	BASEPRI, r5
 80035b2:	f7fe fe45 	bl	8002240 <_stats_start_measure_crit_thd>
 80035b6:	f7fe ff33 	bl	8002420 <_dbg_check_lock>
 80035ba:	f7fd f9e1 	bl	8000980 <chDbgCheckClassI>
 80035be:	f7fd f9df 	bl	8000980 <chDbgCheckClassI>
 80035c2:	6a61      	ldr	r1, [r4, #36]	; 0x24
 80035c4:	fab1 f181 	clz	r1, r1
 80035c8:	0949      	lsrs	r1, r1, #5
 80035ca:	2008      	movs	r0, #8
 80035cc:	f7fc ff98 	bl	8000500 <_test_assert>
 80035d0:	2800      	cmp	r0, #0
 80035d2:	f040 82a2 	bne.w	8003b1a <mbox1_execute+0x6fa>
 80035d6:	f7fe fed3 	bl	8002380 <chSysUnlock.lto_priv.100>
 80035da:	f385 8811 	msr	BASEPRI, r5
 80035de:	f7fe fe2f 	bl	8002240 <_stats_start_measure_crit_thd>
 80035e2:	f7fe ff1d 	bl	8002420 <_dbg_check_lock>
 80035e6:	f7fd f9cb 	bl	8000980 <chDbgCheckClassI>
 80035ea:	f7fd f9c9 	bl	8000980 <chDbgCheckClassI>
 80035ee:	69a1      	ldr	r1, [r4, #24]
 80035f0:	1f4e      	subs	r6, r1, #5
 80035f2:	4271      	negs	r1, r6
 80035f4:	4171      	adcs	r1, r6
 80035f6:	2009      	movs	r0, #9
 80035f8:	f7fc ff82 	bl	8000500 <_test_assert>
 80035fc:	2800      	cmp	r0, #0
 80035fe:	f040 828c 	bne.w	8003b1a <mbox1_execute+0x6fa>
 8003602:	f7fe febd 	bl	8002380 <chSysUnlock.lto_priv.100>
 8003606:	f385 8811 	msr	BASEPRI, r5
 800360a:	f7fe fe19 	bl	8002240 <_stats_start_measure_crit_thd>
 800360e:	f7fe ff07 	bl	8002420 <_dbg_check_lock>
 8003612:	e9d4 3102 	ldrd	r3, r1, [r4, #8]
 8003616:	1acd      	subs	r5, r1, r3
 8003618:	4269      	negs	r1, r5
 800361a:	4169      	adcs	r1, r5
 800361c:	200a      	movs	r0, #10
 800361e:	f7fc ff6f 	bl	8000500 <_test_assert>
 8003622:	2800      	cmp	r0, #0
 8003624:	f040 8279 	bne.w	8003b1a <mbox1_execute+0x6fa>
 8003628:	f7fe feaa 	bl	8002380 <chSysUnlock.lto_priv.100>
 800362c:	2505      	movs	r5, #5
 800362e:	f04f 31ff 	mov.w	r1, #4294967295	; 0xffffffff
 8003632:	a801      	add	r0, sp, #4
 8003634:	f7ff f9d4 	bl	80029e0 <chMBFetch.constprop.31>
 8003638:	fab0 f180 	clz	r1, r0
 800363c:	0949      	lsrs	r1, r1, #5
 800363e:	200b      	movs	r0, #11
 8003640:	f7fc ff5e 	bl	8000500 <_test_assert>
 8003644:	2800      	cmp	r0, #0
 8003646:	f47f af14 	bne.w	8003472 <mbox1_execute+0x52>
 800364a:	f89d 0004 	ldrb.w	r0, [sp, #4]
 800364e:	f7ff fe9f 	bl	8003390 <test_emit_token>
 8003652:	3d01      	subs	r5, #1
 8003654:	d1eb      	bne.n	800362e <mbox1_execute+0x20e>
 8003656:	4961      	ldr	r1, [pc, #388]	; (80037dc <mbox1_execute+0x3bc>)
 8003658:	200c      	movs	r0, #12
 800365a:	f7fc ff29 	bl	80004b0 <_test_assert_sequence>
 800365e:	2800      	cmp	r0, #0
 8003660:	f47f af07 	bne.w	8003472 <mbox1_execute+0x52>
 8003664:	f04f 31ff 	mov.w	r1, #4294967295	; 0xffffffff
 8003668:	2047      	movs	r0, #71	; 0x47
 800366a:	f7ff f939 	bl	80028e0 <chMBPost.constprop.37>
 800366e:	fab0 f180 	clz	r1, r0
 8003672:	0949      	lsrs	r1, r1, #5
 8003674:	200d      	movs	r0, #13
 8003676:	f7fc ff43 	bl	8000500 <_test_assert>
 800367a:	2800      	cmp	r0, #0
 800367c:	f47f aef9 	bne.w	8003472 <mbox1_execute+0x52>
 8003680:	f04f 31ff 	mov.w	r1, #4294967295	; 0xffffffff
 8003684:	a801      	add	r0, sp, #4
 8003686:	f7ff f9ab 	bl	80029e0 <chMBFetch.constprop.31>
 800368a:	fab0 f180 	clz	r1, r0
 800368e:	0949      	lsrs	r1, r1, #5
 8003690:	200e      	movs	r0, #14
 8003692:	f7fc ff35 	bl	8000500 <_test_assert>
 8003696:	2800      	cmp	r0, #0
 8003698:	f47f aeeb 	bne.w	8003472 <mbox1_execute+0x52>
 800369c:	6821      	ldr	r1, [r4, #0]
 800369e:	68a3      	ldr	r3, [r4, #8]
 80036a0:	1aca      	subs	r2, r1, r3
 80036a2:	4251      	negs	r1, r2
 80036a4:	4151      	adcs	r1, r2
 80036a6:	200f      	movs	r0, #15
 80036a8:	f7fc ff2a 	bl	8000500 <_test_assert>
 80036ac:	2800      	cmp	r0, #0
 80036ae:	f47f aee0 	bne.w	8003472 <mbox1_execute+0x52>
 80036b2:	6821      	ldr	r1, [r4, #0]
 80036b4:	68e3      	ldr	r3, [r4, #12]
 80036b6:	1acb      	subs	r3, r1, r3
 80036b8:	4259      	negs	r1, r3
 80036ba:	4159      	adcs	r1, r3
 80036bc:	2010      	movs	r0, #16
 80036be:	f7fc ff1f 	bl	8000500 <_test_assert>
 80036c2:	2800      	cmp	r0, #0
 80036c4:	f47f aed5 	bne.w	8003472 <mbox1_execute+0x52>
 80036c8:	2101      	movs	r1, #1
 80036ca:	a801      	add	r0, sp, #4
 80036cc:	f7ff f988 	bl	80029e0 <chMBFetch.constprop.31>
 80036d0:	f100 0e01 	add.w	lr, r0, #1
 80036d4:	f1de 0100 	rsbs	r1, lr, #0
 80036d8:	eb41 010e 	adc.w	r1, r1, lr
 80036dc:	2011      	movs	r0, #17
 80036de:	f7fc ff0f 	bl	8000500 <_test_assert>
 80036e2:	2800      	cmp	r0, #0
 80036e4:	f47f aec5 	bne.w	8003472 <mbox1_execute+0x52>
 80036e8:	2520      	movs	r5, #32
 80036ea:	f385 8811 	msr	BASEPRI, r5
 80036ee:	f7fe fda7 	bl	8002240 <_stats_start_measure_crit_thd>
 80036f2:	f7fe fe95 	bl	8002420 <_dbg_check_lock>
 80036f6:	a801      	add	r0, sp, #4
 80036f8:	f7fd fb5a 	bl	8000db0 <chMBFetchI.constprop.30>
 80036fc:	4606      	mov	r6, r0
 80036fe:	f7fe fe3f 	bl	8002380 <chSysUnlock.lto_priv.100>
 8003702:	f106 0c01 	add.w	ip, r6, #1
 8003706:	f1dc 0100 	rsbs	r1, ip, #0
 800370a:	eb41 010c 	adc.w	r1, r1, ip
 800370e:	2012      	movs	r0, #18
 8003710:	f7fc fef6 	bl	8000500 <_test_assert>
 8003714:	2800      	cmp	r0, #0
 8003716:	f47f aeac 	bne.w	8003472 <mbox1_execute+0x52>
 800371a:	f385 8811 	msr	BASEPRI, r5
 800371e:	f7fe fd8f 	bl	8002240 <_stats_start_measure_crit_thd>
 8003722:	f7fe fe7d 	bl	8002420 <_dbg_check_lock>
 8003726:	f7fd f92b 	bl	8000980 <chDbgCheckClassI>
 800372a:	f7fd f929 	bl	8000980 <chDbgCheckClassI>
 800372e:	6a61      	ldr	r1, [r4, #36]	; 0x24
 8003730:	1f4f      	subs	r7, r1, #5
 8003732:	4279      	negs	r1, r7
 8003734:	4179      	adcs	r1, r7
 8003736:	2013      	movs	r0, #19
 8003738:	f7fc fee2 	bl	8000500 <_test_assert>
 800373c:	2800      	cmp	r0, #0
 800373e:	f040 81ec 	bne.w	8003b1a <mbox1_execute+0x6fa>
 8003742:	f7fe fe1d 	bl	8002380 <chSysUnlock.lto_priv.100>
 8003746:	f385 8811 	msr	BASEPRI, r5
 800374a:	f7fe fd79 	bl	8002240 <_stats_start_measure_crit_thd>
 800374e:	f7fe fe67 	bl	8002420 <_dbg_check_lock>
 8003752:	f7fd f915 	bl	8000980 <chDbgCheckClassI>
 8003756:	f7fd f913 	bl	8000980 <chDbgCheckClassI>
 800375a:	69a1      	ldr	r1, [r4, #24]
 800375c:	fab1 f181 	clz	r1, r1
 8003760:	0949      	lsrs	r1, r1, #5
 8003762:	2014      	movs	r0, #20
 8003764:	f7fc fecc 	bl	8000500 <_test_assert>
 8003768:	2800      	cmp	r0, #0
 800376a:	f040 81d6 	bne.w	8003b1a <mbox1_execute+0x6fa>
 800376e:	f7fe fe07 	bl	8002380 <chSysUnlock.lto_priv.100>
 8003772:	f385 8811 	msr	BASEPRI, r5
 8003776:	f7fe fd63 	bl	8002240 <_stats_start_measure_crit_thd>
 800377a:	f7fe fe51 	bl	8002420 <_dbg_check_lock>
 800377e:	e9d4 3102 	ldrd	r3, r1, [r4, #8]
 8003782:	1ace      	subs	r6, r1, r3
 8003784:	4271      	negs	r1, r6
 8003786:	4171      	adcs	r1, r6
 8003788:	2015      	movs	r0, #21
 800378a:	f7fc feb9 	bl	8000500 <_test_assert>
 800378e:	2800      	cmp	r0, #0
 8003790:	f040 81c3 	bne.w	8003b1a <mbox1_execute+0x6fa>
 8003794:	f7fe fdf4 	bl	8002380 <chSysUnlock.lto_priv.100>
 8003798:	f385 8811 	msr	BASEPRI, r5
 800379c:	f7fe fd50 	bl	8002240 <_stats_start_measure_crit_thd>
 80037a0:	f7fe fe3e 	bl	8002420 <_dbg_check_lock>
 80037a4:	2041      	movs	r0, #65	; 0x41
 80037a6:	f7fd fe63 	bl	8001470 <chMBPostI.constprop.36>
 80037aa:	fab0 f180 	clz	r1, r0
 80037ae:	0949      	lsrs	r1, r1, #5
 80037b0:	2016      	movs	r0, #22
 80037b2:	f7fc fea5 	bl	8000500 <_test_assert>
 80037b6:	2800      	cmp	r0, #0
 80037b8:	f47f ae5b 	bne.w	8003472 <mbox1_execute+0x52>
 80037bc:	2042      	movs	r0, #66	; 0x42
 80037be:	f7fd fe57 	bl	8001470 <chMBPostI.constprop.36>
 80037c2:	fab0 f180 	clz	r1, r0
 80037c6:	0949      	lsrs	r1, r1, #5
 80037c8:	2017      	movs	r0, #23
 80037ca:	f7fc fe99 	bl	8000500 <_test_assert>
 80037ce:	2800      	cmp	r0, #0
 80037d0:	f47f ae4f 	bne.w	8003472 <mbox1_execute+0x52>
 80037d4:	e004      	b.n	80037e0 <mbox1_execute+0x3c0>
 80037d6:	bf00      	nop
 80037d8:	20001558 	.word	0x20001558
 80037dc:	0800a8a0 	.word	0x0800a8a0
 80037e0:	2043      	movs	r0, #67	; 0x43
 80037e2:	f7fd fe45 	bl	8001470 <chMBPostI.constprop.36>
 80037e6:	fab0 f180 	clz	r1, r0
 80037ea:	0949      	lsrs	r1, r1, #5
 80037ec:	2018      	movs	r0, #24
 80037ee:	f7fc fe87 	bl	8000500 <_test_assert>
 80037f2:	2800      	cmp	r0, #0
 80037f4:	f47f ae3d 	bne.w	8003472 <mbox1_execute+0x52>
 80037f8:	2044      	movs	r0, #68	; 0x44
 80037fa:	f7fd fe39 	bl	8001470 <chMBPostI.constprop.36>
 80037fe:	fab0 f180 	clz	r1, r0
 8003802:	0949      	lsrs	r1, r1, #5
 8003804:	2019      	movs	r0, #25
 8003806:	f7fc fe7b 	bl	8000500 <_test_assert>
 800380a:	2800      	cmp	r0, #0
 800380c:	f47f ae31 	bne.w	8003472 <mbox1_execute+0x52>
 8003810:	2045      	movs	r0, #69	; 0x45
 8003812:	f7fd fe2d 	bl	8001470 <chMBPostI.constprop.36>
 8003816:	4606      	mov	r6, r0
 8003818:	f7fe fdb2 	bl	8002380 <chSysUnlock.lto_priv.100>
 800381c:	fab6 f186 	clz	r1, r6
 8003820:	0949      	lsrs	r1, r1, #5
 8003822:	201a      	movs	r0, #26
 8003824:	f7fc fe6c 	bl	8000500 <_test_assert>
 8003828:	2800      	cmp	r0, #0
 800382a:	f47f ae22 	bne.w	8003472 <mbox1_execute+0x52>
 800382e:	e9d4 3102 	ldrd	r3, r1, [r4, #8]
 8003832:	1ac8      	subs	r0, r1, r3
 8003834:	4241      	negs	r1, r0
 8003836:	4141      	adcs	r1, r0
 8003838:	201b      	movs	r0, #27
 800383a:	f7fc fe61 	bl	8000500 <_test_assert>
 800383e:	2800      	cmp	r0, #0
 8003840:	f47f ae17 	bne.w	8003472 <mbox1_execute+0x52>
 8003844:	2605      	movs	r6, #5
 8003846:	f385 8811 	msr	BASEPRI, r5
 800384a:	f7fe fcf9 	bl	8002240 <_stats_start_measure_crit_thd>
 800384e:	f7fe fde7 	bl	8002420 <_dbg_check_lock>
 8003852:	a801      	add	r0, sp, #4
 8003854:	f7fd faac 	bl	8000db0 <chMBFetchI.constprop.30>
 8003858:	4607      	mov	r7, r0
 800385a:	f7fe fd91 	bl	8002380 <chSysUnlock.lto_priv.100>
 800385e:	fab7 f187 	clz	r1, r7
 8003862:	0949      	lsrs	r1, r1, #5
 8003864:	201c      	movs	r0, #28
 8003866:	f7fc fe4b 	bl	8000500 <_test_assert>
 800386a:	2800      	cmp	r0, #0
 800386c:	f47f ae01 	bne.w	8003472 <mbox1_execute+0x52>
 8003870:	f89d 0004 	ldrb.w	r0, [sp, #4]
 8003874:	f7ff fd8c 	bl	8003390 <test_emit_token>
 8003878:	3e01      	subs	r6, #1
 800387a:	d1e4      	bne.n	8003846 <mbox1_execute+0x426>
 800387c:	49b0      	ldr	r1, [pc, #704]	; (8003b40 <mbox1_execute+0x720>)
 800387e:	201d      	movs	r0, #29
 8003880:	f7fc fe16 	bl	80004b0 <_test_assert_sequence>
 8003884:	2800      	cmp	r0, #0
 8003886:	f47f adf4 	bne.w	8003472 <mbox1_execute+0x52>
 800388a:	f385 8811 	msr	BASEPRI, r5
 800388e:	f7fe fcd7 	bl	8002240 <_stats_start_measure_crit_thd>
 8003892:	f7fe fdc5 	bl	8002420 <_dbg_check_lock>
 8003896:	f7fd f873 	bl	8000980 <chDbgCheckClassI>
 800389a:	f7fd f871 	bl	8000980 <chDbgCheckClassI>
 800389e:	6a61      	ldr	r1, [r4, #36]	; 0x24
 80038a0:	1f4a      	subs	r2, r1, #5
 80038a2:	4251      	negs	r1, r2
 80038a4:	4151      	adcs	r1, r2
 80038a6:	201e      	movs	r0, #30
 80038a8:	f7fc fe2a 	bl	8000500 <_test_assert>
 80038ac:	2800      	cmp	r0, #0
 80038ae:	f040 8134 	bne.w	8003b1a <mbox1_execute+0x6fa>
 80038b2:	f7fe fd65 	bl	8002380 <chSysUnlock.lto_priv.100>
 80038b6:	f385 8811 	msr	BASEPRI, r5
 80038ba:	f7fe fcc1 	bl	8002240 <_stats_start_measure_crit_thd>
 80038be:	f7fe fdaf 	bl	8002420 <_dbg_check_lock>
 80038c2:	f7fd f85d 	bl	8000980 <chDbgCheckClassI>
 80038c6:	f7fd f85b 	bl	8000980 <chDbgCheckClassI>
 80038ca:	69a1      	ldr	r1, [r4, #24]
 80038cc:	fab1 f181 	clz	r1, r1
 80038d0:	0949      	lsrs	r1, r1, #5
 80038d2:	201f      	movs	r0, #31
 80038d4:	f7fc fe14 	bl	8000500 <_test_assert>
 80038d8:	2800      	cmp	r0, #0
 80038da:	f040 811e 	bne.w	8003b1a <mbox1_execute+0x6fa>
 80038de:	f7fe fd4f 	bl	8002380 <chSysUnlock.lto_priv.100>
 80038e2:	e9d4 3102 	ldrd	r3, r1, [r4, #8]
 80038e6:	1acb      	subs	r3, r1, r3
 80038e8:	4259      	negs	r1, r3
 80038ea:	4159      	adcs	r1, r3
 80038ec:	2020      	movs	r0, #32
 80038ee:	f7fc fe07 	bl	8000500 <_test_assert>
 80038f2:	2800      	cmp	r0, #0
 80038f4:	f47f adbd 	bne.w	8003472 <mbox1_execute+0x52>
 80038f8:	f385 8811 	msr	BASEPRI, r5
 80038fc:	f7fe fca0 	bl	8002240 <_stats_start_measure_crit_thd>
 8003900:	f7fe fd8e 	bl	8002420 <_dbg_check_lock>
 8003904:	2045      	movs	r0, #69	; 0x45
 8003906:	f7fd fddb 	bl	80014c0 <chMBPostAheadI.constprop.33>
 800390a:	fab0 f180 	clz	r1, r0
 800390e:	0949      	lsrs	r1, r1, #5
 8003910:	2021      	movs	r0, #33	; 0x21
 8003912:	f7fc fdf5 	bl	8000500 <_test_assert>
 8003916:	2800      	cmp	r0, #0
 8003918:	f47f adab 	bne.w	8003472 <mbox1_execute+0x52>
 800391c:	2044      	movs	r0, #68	; 0x44
 800391e:	f7fd fdcf 	bl	80014c0 <chMBPostAheadI.constprop.33>
 8003922:	fab0 f180 	clz	r1, r0
 8003926:	0949      	lsrs	r1, r1, #5
 8003928:	2022      	movs	r0, #34	; 0x22
 800392a:	f7fc fde9 	bl	8000500 <_test_assert>
 800392e:	2800      	cmp	r0, #0
 8003930:	f47f ad9f 	bne.w	8003472 <mbox1_execute+0x52>
 8003934:	2043      	movs	r0, #67	; 0x43
 8003936:	f7fd fdc3 	bl	80014c0 <chMBPostAheadI.constprop.33>
 800393a:	fab0 f180 	clz	r1, r0
 800393e:	0949      	lsrs	r1, r1, #5
 8003940:	2023      	movs	r0, #35	; 0x23
 8003942:	f7fc fddd 	bl	8000500 <_test_assert>
 8003946:	2800      	cmp	r0, #0
 8003948:	f47f ad93 	bne.w	8003472 <mbox1_execute+0x52>
 800394c:	2042      	movs	r0, #66	; 0x42
 800394e:	f7fd fdb7 	bl	80014c0 <chMBPostAheadI.constprop.33>
 8003952:	fab0 f180 	clz	r1, r0
 8003956:	0949      	lsrs	r1, r1, #5
 8003958:	2024      	movs	r0, #36	; 0x24
 800395a:	f7fc fdd1 	bl	8000500 <_test_assert>
 800395e:	2800      	cmp	r0, #0
 8003960:	f47f ad87 	bne.w	8003472 <mbox1_execute+0x52>
 8003964:	2041      	movs	r0, #65	; 0x41
 8003966:	f7fd fdab 	bl	80014c0 <chMBPostAheadI.constprop.33>
 800396a:	4605      	mov	r5, r0
 800396c:	f7fe fd08 	bl	8002380 <chSysUnlock.lto_priv.100>
 8003970:	fab5 f185 	clz	r1, r5
 8003974:	0949      	lsrs	r1, r1, #5
 8003976:	2025      	movs	r0, #37	; 0x25
 8003978:	f7fc fdc2 	bl	8000500 <_test_assert>
 800397c:	2800      	cmp	r0, #0
 800397e:	f47f ad78 	bne.w	8003472 <mbox1_execute+0x52>
 8003982:	e9d4 3102 	ldrd	r3, r1, [r4, #8]
 8003986:	eba1 0e03 	sub.w	lr, r1, r3
 800398a:	f1de 0100 	rsbs	r1, lr, #0
 800398e:	eb41 010e 	adc.w	r1, r1, lr
 8003992:	2026      	movs	r0, #38	; 0x26
 8003994:	f7fc fdb4 	bl	8000500 <_test_assert>
 8003998:	2800      	cmp	r0, #0
 800399a:	f47f ad6a 	bne.w	8003472 <mbox1_execute+0x52>
 800399e:	2605      	movs	r6, #5
 80039a0:	2520      	movs	r5, #32
 80039a2:	f385 8811 	msr	BASEPRI, r5
 80039a6:	f7fe fc4b 	bl	8002240 <_stats_start_measure_crit_thd>
 80039aa:	f7fe fd39 	bl	8002420 <_dbg_check_lock>
 80039ae:	a801      	add	r0, sp, #4
 80039b0:	f7fd f9fe 	bl	8000db0 <chMBFetchI.constprop.30>
 80039b4:	4607      	mov	r7, r0
 80039b6:	f7fe fce3 	bl	8002380 <chSysUnlock.lto_priv.100>
 80039ba:	fab7 f187 	clz	r1, r7
 80039be:	0949      	lsrs	r1, r1, #5
 80039c0:	2027      	movs	r0, #39	; 0x27
 80039c2:	f7fc fd9d 	bl	8000500 <_test_assert>
 80039c6:	2800      	cmp	r0, #0
 80039c8:	f47f ad53 	bne.w	8003472 <mbox1_execute+0x52>
 80039cc:	f89d 0004 	ldrb.w	r0, [sp, #4]
 80039d0:	f7ff fcde 	bl	8003390 <test_emit_token>
 80039d4:	3e01      	subs	r6, #1
 80039d6:	d1e4      	bne.n	80039a2 <mbox1_execute+0x582>
 80039d8:	4959      	ldr	r1, [pc, #356]	; (8003b40 <mbox1_execute+0x720>)
 80039da:	2028      	movs	r0, #40	; 0x28
 80039dc:	f7fc fd68 	bl	80004b0 <_test_assert_sequence>
 80039e0:	2800      	cmp	r0, #0
 80039e2:	f47f ad46 	bne.w	8003472 <mbox1_execute+0x52>
 80039e6:	f385 8811 	msr	BASEPRI, r5
 80039ea:	f7fe fc29 	bl	8002240 <_stats_start_measure_crit_thd>
 80039ee:	f7fe fd17 	bl	8002420 <_dbg_check_lock>
 80039f2:	f7fc ffc5 	bl	8000980 <chDbgCheckClassI>
 80039f6:	f7fc ffc3 	bl	8000980 <chDbgCheckClassI>
 80039fa:	6a61      	ldr	r1, [r4, #36]	; 0x24
 80039fc:	f1a1 0c05 	sub.w	ip, r1, #5
 8003a00:	f1dc 0100 	rsbs	r1, ip, #0
 8003a04:	eb41 010c 	adc.w	r1, r1, ip
 8003a08:	2029      	movs	r0, #41	; 0x29
 8003a0a:	f7fc fd79 	bl	8000500 <_test_assert>
 8003a0e:	2800      	cmp	r0, #0
 8003a10:	f040 8083 	bne.w	8003b1a <mbox1_execute+0x6fa>
 8003a14:	f7fe fcb4 	bl	8002380 <chSysUnlock.lto_priv.100>
 8003a18:	f385 8811 	msr	BASEPRI, r5
 8003a1c:	f7fe fc10 	bl	8002240 <_stats_start_measure_crit_thd>
 8003a20:	f7fe fcfe 	bl	8002420 <_dbg_check_lock>
 8003a24:	f7fc ffac 	bl	8000980 <chDbgCheckClassI>
 8003a28:	f7fc ffaa 	bl	8000980 <chDbgCheckClassI>
 8003a2c:	69a1      	ldr	r1, [r4, #24]
 8003a2e:	fab1 f181 	clz	r1, r1
 8003a32:	0949      	lsrs	r1, r1, #5
 8003a34:	202a      	movs	r0, #42	; 0x2a
 8003a36:	f7fc fd63 	bl	8000500 <_test_assert>
 8003a3a:	2800      	cmp	r0, #0
 8003a3c:	d16d      	bne.n	8003b1a <mbox1_execute+0x6fa>
 8003a3e:	f7fe fc9f 	bl	8002380 <chSysUnlock.lto_priv.100>
 8003a42:	e9d4 3102 	ldrd	r3, r1, [r4, #8]
 8003a46:	1acf      	subs	r7, r1, r3
 8003a48:	4279      	negs	r1, r7
 8003a4a:	4179      	adcs	r1, r7
 8003a4c:	202b      	movs	r0, #43	; 0x2b
 8003a4e:	f7fc fd57 	bl	8000500 <_test_assert>
 8003a52:	2800      	cmp	r0, #0
 8003a54:	f47f ad0d 	bne.w	8003472 <mbox1_execute+0x52>
 8003a58:	f385 8811 	msr	BASEPRI, r5
 8003a5c:	f7fe fbf0 	bl	8002240 <_stats_start_measure_crit_thd>
 8003a60:	f7fe fcde 	bl	8002420 <_dbg_check_lock>
 8003a64:	f7fc ff8c 	bl	8000980 <chDbgCheckClassI>
 8003a68:	e9d4 3200 	ldrd	r3, r2, [r4]
 8003a6c:	1ad2      	subs	r2, r2, r3
 8003a6e:	1091      	asrs	r1, r2, #2
 8003a70:	4834      	ldr	r0, [pc, #208]	; (8003b44 <mbox1_execute+0x724>)
 8003a72:	60a3      	str	r3, [r4, #8]
 8003a74:	60e3      	str	r3, [r4, #12]
 8003a76:	f7fd f9c3 	bl	8000e00 <chSemResetI>
 8003a7a:	4631      	mov	r1, r6
 8003a7c:	4832      	ldr	r0, [pc, #200]	; (8003b48 <mbox1_execute+0x728>)
 8003a7e:	f7fd f9bf 	bl	8000e00 <chSemResetI>
 8003a82:	f7fe f9e5 	bl	8001e50 <chSchRescheduleS>
 8003a86:	f7fe fc1b 	bl	80022c0 <chSysUnlock.lto_priv.90>
 8003a8a:	f385 8811 	msr	BASEPRI, r5
 8003a8e:	f7fe fbd7 	bl	8002240 <_stats_start_measure_crit_thd>
 8003a92:	f7fe fcc5 	bl	8002420 <_dbg_check_lock>
 8003a96:	f7fc ff73 	bl	8000980 <chDbgCheckClassI>
 8003a9a:	f7fc ff71 	bl	8000980 <chDbgCheckClassI>
 8003a9e:	6a61      	ldr	r1, [r4, #36]	; 0x24
 8003aa0:	1f4e      	subs	r6, r1, #5
 8003aa2:	4271      	negs	r1, r6
 8003aa4:	4171      	adcs	r1, r6
 8003aa6:	202c      	movs	r0, #44	; 0x2c
 8003aa8:	f7fc fd2a 	bl	8000500 <_test_assert>
 8003aac:	bba8      	cbnz	r0, 8003b1a <mbox1_execute+0x6fa>
 8003aae:	f7fe fc67 	bl	8002380 <chSysUnlock.lto_priv.100>
 8003ab2:	f385 8811 	msr	BASEPRI, r5
 8003ab6:	f7fe fbc3 	bl	8002240 <_stats_start_measure_crit_thd>
 8003aba:	f7fe fcb1 	bl	8002420 <_dbg_check_lock>
 8003abe:	f7fc ff5f 	bl	8000980 <chDbgCheckClassI>
 8003ac2:	f7fc ff5d 	bl	8000980 <chDbgCheckClassI>
 8003ac6:	69a1      	ldr	r1, [r4, #24]
 8003ac8:	fab1 f181 	clz	r1, r1
 8003acc:	0949      	lsrs	r1, r1, #5
 8003ace:	202d      	movs	r0, #45	; 0x2d
 8003ad0:	f7fc fd16 	bl	8000500 <_test_assert>
 8003ad4:	bb08      	cbnz	r0, 8003b1a <mbox1_execute+0x6fa>
 8003ad6:	f7fe fc53 	bl	8002380 <chSysUnlock.lto_priv.100>
 8003ada:	f385 8811 	msr	BASEPRI, r5
 8003ade:	f7fe fbaf 	bl	8002240 <_stats_start_measure_crit_thd>
 8003ae2:	f7fe fc9d 	bl	8002420 <_dbg_check_lock>
 8003ae6:	6821      	ldr	r1, [r4, #0]
 8003ae8:	68a3      	ldr	r3, [r4, #8]
 8003aea:	1aca      	subs	r2, r1, r3
 8003aec:	4251      	negs	r1, r2
 8003aee:	4151      	adcs	r1, r2
 8003af0:	202e      	movs	r0, #46	; 0x2e
 8003af2:	f7fc fd05 	bl	8000500 <_test_assert>
 8003af6:	b980      	cbnz	r0, 8003b1a <mbox1_execute+0x6fa>
 8003af8:	f7fe fc42 	bl	8002380 <chSysUnlock.lto_priv.100>
 8003afc:	f385 8811 	msr	BASEPRI, r5
 8003b00:	f7fe fb9e 	bl	8002240 <_stats_start_measure_crit_thd>
 8003b04:	f7fe fc8c 	bl	8002420 <_dbg_check_lock>
 8003b08:	6821      	ldr	r1, [r4, #0]
 8003b0a:	68e3      	ldr	r3, [r4, #12]
 8003b0c:	1acb      	subs	r3, r1, r3
 8003b0e:	4259      	negs	r1, r3
 8003b10:	f04f 002f 	mov.w	r0, #47	; 0x2f
 8003b14:	4159      	adcs	r1, r3
 8003b16:	f7fc fcf3 	bl	8000500 <_test_assert>
 8003b1a:	f7fe fc31 	bl	8002380 <chSysUnlock.lto_priv.100>
 8003b1e:	e4a8      	b.n	8003472 <mbox1_execute+0x52>
 8003b20:	b672      	cpsid	i
 8003b22:	4b0a      	ldr	r3, [pc, #40]	; (8003b4c <mbox1_execute+0x72c>)
 8003b24:	62eb      	str	r3, [r5, #44]	; 0x2c
 8003b26:	e7fe      	b.n	8003b26 <mbox1_execute+0x706>
 8003b28:	b672      	cpsid	i
 8003b2a:	4a08      	ldr	r2, [pc, #32]	; (8003b4c <mbox1_execute+0x72c>)
 8003b2c:	62da      	str	r2, [r3, #44]	; 0x2c
 8003b2e:	e7fe      	b.n	8003b2e <mbox1_execute+0x70e>
 8003b30:	b672      	cpsid	i
 8003b32:	4b06      	ldr	r3, [pc, #24]	; (8003b4c <mbox1_execute+0x72c>)
 8003b34:	62eb      	str	r3, [r5, #44]	; 0x2c
 8003b36:	e7fe      	b.n	8003b36 <mbox1_execute+0x716>
 8003b38:	b672      	cpsid	i
 8003b3a:	4b04      	ldr	r3, [pc, #16]	; (8003b4c <mbox1_execute+0x72c>)
 8003b3c:	62eb      	str	r3, [r5, #44]	; 0x2c
 8003b3e:	e7fe      	b.n	8003b3e <mbox1_execute+0x71e>
 8003b40:	0800a8a0 	.word	0x0800a8a0
 8003b44:	20000c94 	.word	0x20000c94
 8003b48:	20000c88 	.word	0x20000c88
 8003b4c:	08009e80 	.word	0x08009e80

08003b50 <thread.lto_priv.78>:
 8003b50:	7800      	ldrb	r0, [r0, #0]
 8003b52:	f7ff bc1d 	b.w	8003390 <test_emit_token>
 8003b56:	bf00      	nop
	...

08003b60 <thread.lto_priv.80>:
 8003b60:	f7ff bff6 	b.w	8003b50 <thread.lto_priv.78>
	...

08003b70 <chPoolFree>:
 8003b70:	b510      	push	{r4, lr}
 8003b72:	2320      	movs	r3, #32
 8003b74:	4604      	mov	r4, r0
 8003b76:	f383 8811 	msr	BASEPRI, r3
 8003b7a:	f7fe fb61 	bl	8002240 <_stats_start_measure_crit_thd>
 8003b7e:	f7fe fc4f 	bl	8002420 <_dbg_check_lock>
 8003b82:	f7fc fefd 	bl	8000980 <chDbgCheckClassI>
 8003b86:	b1a4      	cbz	r4, 8003bb2 <chPoolFree+0x42>
 8003b88:	b199      	cbz	r1, 8003bb2 <chPoolFree+0x42>
 8003b8a:	6823      	ldr	r3, [r4, #0]
 8003b8c:	600b      	str	r3, [r1, #0]
 8003b8e:	6021      	str	r1, [r4, #0]
 8003b90:	f7fe fb66 	bl	8002260 <_dbg_check_unlock>
 8003b94:	f7fe fb4c 	bl	8002230 <_stats_stop_measure_crit_thd>
 8003b98:	4b0a      	ldr	r3, [pc, #40]	; (8003bc4 <chPoolFree+0x54>)
 8003b9a:	681a      	ldr	r2, [r3, #0]
 8003b9c:	429a      	cmp	r2, r3
 8003b9e:	d004      	beq.n	8003baa <chPoolFree+0x3a>
 8003ba0:	6999      	ldr	r1, [r3, #24]
 8003ba2:	6892      	ldr	r2, [r2, #8]
 8003ba4:	6889      	ldr	r1, [r1, #8]
 8003ba6:	4291      	cmp	r1, r2
 8003ba8:	d308      	bcc.n	8003bbc <chPoolFree+0x4c>
 8003baa:	2300      	movs	r3, #0
 8003bac:	f383 8811 	msr	BASEPRI, r3
 8003bb0:	bd10      	pop	{r4, pc}
 8003bb2:	b672      	cpsid	i
 8003bb4:	4b03      	ldr	r3, [pc, #12]	; (8003bc4 <chPoolFree+0x54>)
 8003bb6:	4a04      	ldr	r2, [pc, #16]	; (8003bc8 <chPoolFree+0x58>)
 8003bb8:	62da      	str	r2, [r3, #44]	; 0x2c
 8003bba:	e7fe      	b.n	8003bba <chPoolFree+0x4a>
 8003bbc:	b672      	cpsid	i
 8003bbe:	4a03      	ldr	r2, [pc, #12]	; (8003bcc <chPoolFree+0x5c>)
 8003bc0:	62da      	str	r2, [r3, #44]	; 0x2c
 8003bc2:	e7fe      	b.n	8003bc2 <chPoolFree+0x52>
 8003bc4:	20001558 	.word	0x20001558
 8003bc8:	0800a000 	.word	0x0800a000
 8003bcc:	08009e20 	.word	0x08009e20

08003bd0 <chPoolAlloc>:
 8003bd0:	b510      	push	{r4, lr}
 8003bd2:	4601      	mov	r1, r0
 8003bd4:	2320      	movs	r3, #32
 8003bd6:	f383 8811 	msr	BASEPRI, r3
 8003bda:	f7fe fb31 	bl	8002240 <_stats_start_measure_crit_thd>
 8003bde:	f7fe fc1f 	bl	8002420 <_dbg_check_lock>
 8003be2:	f7fc fecd 	bl	8000980 <chDbgCheckClassI>
 8003be6:	680c      	ldr	r4, [r1, #0]
 8003be8:	b19c      	cbz	r4, 8003c12 <chPoolAlloc+0x42>
 8003bea:	6823      	ldr	r3, [r4, #0]
 8003bec:	600b      	str	r3, [r1, #0]
 8003bee:	f7fe fb37 	bl	8002260 <_dbg_check_unlock>
 8003bf2:	f7fe fb1d 	bl	8002230 <_stats_stop_measure_crit_thd>
 8003bf6:	4b0c      	ldr	r3, [pc, #48]	; (8003c28 <chPoolAlloc+0x58>)
 8003bf8:	681a      	ldr	r2, [r3, #0]
 8003bfa:	429a      	cmp	r2, r3
 8003bfc:	d004      	beq.n	8003c08 <chPoolAlloc+0x38>
 8003bfe:	6999      	ldr	r1, [r3, #24]
 8003c00:	6892      	ldr	r2, [r2, #8]
 8003c02:	6889      	ldr	r1, [r1, #8]
 8003c04:	4291      	cmp	r1, r2
 8003c06:	d30b      	bcc.n	8003c20 <chPoolAlloc+0x50>
 8003c08:	2300      	movs	r3, #0
 8003c0a:	f383 8811 	msr	BASEPRI, r3
 8003c0e:	4620      	mov	r0, r4
 8003c10:	bd10      	pop	{r4, pc}
 8003c12:	688b      	ldr	r3, [r1, #8]
 8003c14:	2b00      	cmp	r3, #0
 8003c16:	d0ea      	beq.n	8003bee <chPoolAlloc+0x1e>
 8003c18:	6848      	ldr	r0, [r1, #4]
 8003c1a:	4798      	blx	r3
 8003c1c:	4604      	mov	r4, r0
 8003c1e:	e7e6      	b.n	8003bee <chPoolAlloc+0x1e>
 8003c20:	b672      	cpsid	i
 8003c22:	4a02      	ldr	r2, [pc, #8]	; (8003c2c <chPoolAlloc+0x5c>)
 8003c24:	62da      	str	r2, [r3, #44]	; 0x2c
 8003c26:	e7fe      	b.n	8003c26 <chPoolAlloc+0x56>
 8003c28:	20001558 	.word	0x20001558
 8003c2c:	08009e20 	.word	0x08009e20

08003c30 <chThdCreateFromMemoryPool.constprop.72>:
 8003c30:	b5f0      	push	{r4, r5, r6, r7, lr}
 8003c32:	4606      	mov	r6, r0
 8003c34:	b083      	sub	sp, #12
 8003c36:	4823      	ldr	r0, [pc, #140]	; (8003cc4 <chThdCreateFromMemoryPool.constprop.72+0x94>)
 8003c38:	460f      	mov	r7, r1
 8003c3a:	f7ff ffc9 	bl	8003bd0 <chPoolAlloc>
 8003c3e:	4604      	mov	r4, r0
 8003c40:	2800      	cmp	r0, #0
 8003c42:	d037      	beq.n	8003cb4 <chThdCreateFromMemoryPool.constprop.72+0x84>
 8003c44:	f100 0160 	add.w	r1, r0, #96	; 0x60
 8003c48:	4603      	mov	r3, r0
 8003c4a:	22ff      	movs	r2, #255	; 0xff
 8003c4c:	f803 2b01 	strb.w	r2, [r3], #1
 8003c50:	4299      	cmp	r1, r3
 8003c52:	d1fb      	bne.n	8003c4c <chThdCreateFromMemoryPool.constprop.72+0x1c>
 8003c54:	4d1b      	ldr	r5, [pc, #108]	; (8003cc4 <chThdCreateFromMemoryPool.constprop.72+0x94>)
 8003c56:	686a      	ldr	r2, [r5, #4]
 8003c58:	4422      	add	r2, r4
 8003c5a:	429a      	cmp	r2, r3
 8003c5c:	d904      	bls.n	8003c68 <chThdCreateFromMemoryPool.constprop.72+0x38>
 8003c5e:	2155      	movs	r1, #85	; 0x55
 8003c60:	f803 1b01 	strb.w	r1, [r3], #1
 8003c64:	429a      	cmp	r2, r3
 8003c66:	d1fb      	bne.n	8003c60 <chThdCreateFromMemoryPool.constprop.72+0x30>
 8003c68:	2320      	movs	r3, #32
 8003c6a:	f383 8811 	msr	BASEPRI, r3
 8003c6e:	f7fe fae7 	bl	8002240 <_stats_start_measure_crit_thd>
 8003c72:	f7fe fbd5 	bl	8002420 <_dbg_check_lock>
 8003c76:	4632      	mov	r2, r6
 8003c78:	6869      	ldr	r1, [r5, #4]
 8003c7a:	4b13      	ldr	r3, [pc, #76]	; (8003cc8 <chThdCreateFromMemoryPool.constprop.72+0x98>)
 8003c7c:	9700      	str	r7, [sp, #0]
 8003c7e:	4620      	mov	r0, r4
 8003c80:	f7fc feee 	bl	8000a60 <chThdCreateI>
 8003c84:	2302      	movs	r3, #2
 8003c86:	f880 3021 	strb.w	r3, [r0, #33]	; 0x21
 8003c8a:	6445      	str	r5, [r0, #68]	; 0x44
 8003c8c:	2100      	movs	r1, #0
 8003c8e:	4604      	mov	r4, r0
 8003c90:	f7fe f8f6 	bl	8001e80 <chSchWakeupS>
 8003c94:	f7fe fae4 	bl	8002260 <_dbg_check_unlock>
 8003c98:	f7fe faca 	bl	8002230 <_stats_stop_measure_crit_thd>
 8003c9c:	4b0b      	ldr	r3, [pc, #44]	; (8003ccc <chThdCreateFromMemoryPool.constprop.72+0x9c>)
 8003c9e:	681a      	ldr	r2, [r3, #0]
 8003ca0:	429a      	cmp	r2, r3
 8003ca2:	d004      	beq.n	8003cae <chThdCreateFromMemoryPool.constprop.72+0x7e>
 8003ca4:	6999      	ldr	r1, [r3, #24]
 8003ca6:	6892      	ldr	r2, [r2, #8]
 8003ca8:	6889      	ldr	r1, [r1, #8]
 8003caa:	4291      	cmp	r1, r2
 8003cac:	d305      	bcc.n	8003cba <chThdCreateFromMemoryPool.constprop.72+0x8a>
 8003cae:	2300      	movs	r3, #0
 8003cb0:	f383 8811 	msr	BASEPRI, r3
 8003cb4:	4620      	mov	r0, r4
 8003cb6:	b003      	add	sp, #12
 8003cb8:	bdf0      	pop	{r4, r5, r6, r7, pc}
 8003cba:	b672      	cpsid	i
 8003cbc:	4a04      	ldr	r2, [pc, #16]	; (8003cd0 <chThdCreateFromMemoryPool.constprop.72+0xa0>)
 8003cbe:	62da      	str	r2, [r3, #44]	; 0x2c
 8003cc0:	e7fe      	b.n	8003cc0 <chThdCreateFromMemoryPool.constprop.72+0x90>
 8003cc2:	bf00      	nop
 8003cc4:	20001c08 	.word	0x20001c08
 8003cc8:	08003b61 	.word	0x08003b61
 8003ccc:	20001558 	.word	0x20001558
 8003cd0:	08009d80 	.word	0x08009d80
	...

08003ce0 <pools1_execute>:
 8003ce0:	b5f8      	push	{r3, r4, r5, r6, r7, lr}
 8003ce2:	4e2f      	ldr	r6, [pc, #188]	; (8003da0 <pools1_execute+0xc0>)
 8003ce4:	4d2f      	ldr	r5, [pc, #188]	; (8003da4 <pools1_execute+0xc4>)
 8003ce6:	4637      	mov	r7, r6
 8003ce8:	2405      	movs	r4, #5
 8003cea:	4629      	mov	r1, r5
 8003cec:	4638      	mov	r0, r7
 8003cee:	f7ff ff3f 	bl	8003b70 <chPoolFree>
 8003cf2:	6873      	ldr	r3, [r6, #4]
 8003cf4:	3c01      	subs	r4, #1
 8003cf6:	441d      	add	r5, r3
 8003cf8:	d1f7      	bne.n	8003cea <pools1_execute+0xa>
 8003cfa:	4d29      	ldr	r5, [pc, #164]	; (8003da0 <pools1_execute+0xc0>)
 8003cfc:	2405      	movs	r4, #5
 8003cfe:	4628      	mov	r0, r5
 8003d00:	f7ff ff66 	bl	8003bd0 <chPoolAlloc>
 8003d04:	1c01      	adds	r1, r0, #0
 8003d06:	bf18      	it	ne
 8003d08:	2101      	movne	r1, #1
 8003d0a:	2001      	movs	r0, #1
 8003d0c:	f7fc fbf8 	bl	8000500 <_test_assert>
 8003d10:	bba0      	cbnz	r0, 8003d7c <pools1_execute+0x9c>
 8003d12:	3c01      	subs	r4, #1
 8003d14:	d1f3      	bne.n	8003cfe <pools1_execute+0x1e>
 8003d16:	4822      	ldr	r0, [pc, #136]	; (8003da0 <pools1_execute+0xc0>)
 8003d18:	f7ff ff5a 	bl	8003bd0 <chPoolAlloc>
 8003d1c:	fab0 f180 	clz	r1, r0
 8003d20:	0949      	lsrs	r1, r1, #5
 8003d22:	2002      	movs	r0, #2
 8003d24:	f7fc fbec 	bl	8000500 <_test_assert>
 8003d28:	bb40      	cbnz	r0, 8003d7c <pools1_execute+0x9c>
 8003d2a:	4c1f      	ldr	r4, [pc, #124]	; (8003da8 <pools1_execute+0xc8>)
 8003d2c:	4f1c      	ldr	r7, [pc, #112]	; (8003da0 <pools1_execute+0xc0>)
 8003d2e:	491d      	ldr	r1, [pc, #116]	; (8003da4 <pools1_execute+0xc4>)
 8003d30:	f104 0510 	add.w	r5, r4, #16
 8003d34:	4638      	mov	r0, r7
 8003d36:	f7ff ff1b 	bl	8003b70 <chPoolFree>
 8003d3a:	42a5      	cmp	r5, r4
 8003d3c:	d006      	beq.n	8003d4c <pools1_execute+0x6c>
 8003d3e:	f854 1b04 	ldr.w	r1, [r4], #4
 8003d42:	4638      	mov	r0, r7
 8003d44:	f7ff ff14 	bl	8003b70 <chPoolFree>
 8003d48:	42a5      	cmp	r5, r4
 8003d4a:	d1f8      	bne.n	8003d3e <pools1_execute+0x5e>
 8003d4c:	4d14      	ldr	r5, [pc, #80]	; (8003da0 <pools1_execute+0xc0>)
 8003d4e:	2405      	movs	r4, #5
 8003d50:	4628      	mov	r0, r5
 8003d52:	f7ff ff3d 	bl	8003bd0 <chPoolAlloc>
 8003d56:	1c01      	adds	r1, r0, #0
 8003d58:	bf18      	it	ne
 8003d5a:	2101      	movne	r1, #1
 8003d5c:	2003      	movs	r0, #3
 8003d5e:	f7fc fbcf 	bl	8000500 <_test_assert>
 8003d62:	b958      	cbnz	r0, 8003d7c <pools1_execute+0x9c>
 8003d64:	3c01      	subs	r4, #1
 8003d66:	d1f3      	bne.n	8003d50 <pools1_execute+0x70>
 8003d68:	480d      	ldr	r0, [pc, #52]	; (8003da0 <pools1_execute+0xc0>)
 8003d6a:	f7ff ff31 	bl	8003bd0 <chPoolAlloc>
 8003d6e:	fab0 f180 	clz	r1, r0
 8003d72:	0949      	lsrs	r1, r1, #5
 8003d74:	2004      	movs	r0, #4
 8003d76:	f7fc fbc3 	bl	8000500 <_test_assert>
 8003d7a:	b100      	cbz	r0, 8003d7e <pools1_execute+0x9e>
 8003d7c:	bdf8      	pop	{r3, r4, r5, r6, r7, pc}
 8003d7e:	4b0b      	ldr	r3, [pc, #44]	; (8003dac <pools1_execute+0xcc>)
 8003d80:	4807      	ldr	r0, [pc, #28]	; (8003da0 <pools1_execute+0xc0>)
 8003d82:	60b3      	str	r3, [r6, #8]
 8003d84:	2210      	movs	r2, #16
 8003d86:	e9c6 4200 	strd	r4, r2, [r6]
 8003d8a:	f7ff ff21 	bl	8003bd0 <chPoolAlloc>
 8003d8e:	fab0 f180 	clz	r1, r0
 8003d92:	0949      	lsrs	r1, r1, #5
 8003d94:	2005      	movs	r0, #5
 8003d96:	e8bd 40f8 	ldmia.w	sp!, {r3, r4, r5, r6, r7, lr}
 8003d9a:	f7fc bbb1 	b.w	8000500 <_test_assert>
 8003d9e:	bf00      	nop
 8003da0:	20000ca0 	.word	0x20000ca0
 8003da4:	20001c38 	.word	0x20001c38
 8003da8:	0800b494 	.word	0x0800b494
 8003dac:	080003c1 	.word	0x080003c1

08003db0 <chOQWriteTimeout>:
 8003db0:	2a00      	cmp	r2, #0
 8003db2:	d064      	beq.n	8003e7e <chOQWriteTimeout+0xce>
 8003db4:	e92d 4ff0 	stmdb	sp!, {r4, r5, r6, r7, r8, r9, sl, fp, lr}
 8003db8:	4617      	mov	r7, r2
 8003dba:	b083      	sub	sp, #12
 8003dbc:	4604      	mov	r4, r0
 8003dbe:	4688      	mov	r8, r1
 8003dc0:	469a      	mov	sl, r3
 8003dc2:	f8d0 901c 	ldr.w	r9, [r0, #28]
 8003dc6:	2220      	movs	r2, #32
 8003dc8:	f382 8811 	msr	BASEPRI, r2
 8003dcc:	f7fe fa38 	bl	8002240 <_stats_start_measure_crit_thd>
 8003dd0:	9201      	str	r2, [sp, #4]
 8003dd2:	f7fe fb25 	bl	8002420 <_dbg_check_lock>
 8003dd6:	4d2e      	ldr	r5, [pc, #184]	; (8003e90 <chOQWriteTimeout+0xe0>)
 8003dd8:	2600      	movs	r6, #0
 8003dda:	f7fc fdd1 	bl	8000980 <chDbgCheckClassI>
 8003dde:	68a3      	ldr	r3, [r4, #8]
 8003de0:	f108 0b01 	add.w	fp, r8, #1
 8003de4:	1e5a      	subs	r2, r3, #1
 8003de6:	4620      	mov	r0, r4
 8003de8:	b363      	cbz	r3, 8003e44 <chOQWriteTimeout+0x94>
 8003dea:	6963      	ldr	r3, [r4, #20]
 8003dec:	60a2      	str	r2, [r4, #8]
 8003dee:	1c5a      	adds	r2, r3, #1
 8003df0:	6162      	str	r2, [r4, #20]
 8003df2:	f898 2000 	ldrb.w	r2, [r8]
 8003df6:	701a      	strb	r2, [r3, #0]
 8003df8:	e9d4 3204 	ldrd	r3, r2, [r4, #16]
 8003dfc:	429a      	cmp	r2, r3
 8003dfe:	bf24      	itt	cs
 8003e00:	68e3      	ldrcs	r3, [r4, #12]
 8003e02:	6163      	strcs	r3, [r4, #20]
 8003e04:	f1b9 0f00 	cmp.w	r9, #0
 8003e08:	d000      	beq.n	8003e0c <chOQWriteTimeout+0x5c>
 8003e0a:	47c8      	blx	r9
 8003e0c:	f7fe fa28 	bl	8002260 <_dbg_check_unlock>
 8003e10:	f7fe fa0e 	bl	8002230 <_stats_stop_measure_crit_thd>
 8003e14:	682b      	ldr	r3, [r5, #0]
 8003e16:	42ab      	cmp	r3, r5
 8003e18:	d004      	beq.n	8003e24 <chOQWriteTimeout+0x74>
 8003e1a:	69aa      	ldr	r2, [r5, #24]
 8003e1c:	689b      	ldr	r3, [r3, #8]
 8003e1e:	6892      	ldr	r2, [r2, #8]
 8003e20:	429a      	cmp	r2, r3
 8003e22:	d328      	bcc.n	8003e76 <chOQWriteTimeout+0xc6>
 8003e24:	2300      	movs	r3, #0
 8003e26:	f383 8811 	msr	BASEPRI, r3
 8003e2a:	3f01      	subs	r7, #1
 8003e2c:	f106 0601 	add.w	r6, r6, #1
 8003e30:	d01d      	beq.n	8003e6e <chOQWriteTimeout+0xbe>
 8003e32:	9b01      	ldr	r3, [sp, #4]
 8003e34:	f383 8811 	msr	BASEPRI, r3
 8003e38:	f7fe fa02 	bl	8002240 <_stats_start_measure_crit_thd>
 8003e3c:	46d8      	mov	r8, fp
 8003e3e:	f7fe faef 	bl	8002420 <_dbg_check_lock>
 8003e42:	e7ca      	b.n	8003dda <chOQWriteTimeout+0x2a>
 8003e44:	4651      	mov	r1, sl
 8003e46:	4620      	mov	r0, r4
 8003e48:	f7fe f98a 	bl	8002160 <chThdEnqueueTimeoutS>
 8003e4c:	2800      	cmp	r0, #0
 8003e4e:	d0c4      	beq.n	8003dda <chOQWriteTimeout+0x2a>
 8003e50:	f7fe fa06 	bl	8002260 <_dbg_check_unlock>
 8003e54:	f7fe f9ec 	bl	8002230 <_stats_stop_measure_crit_thd>
 8003e58:	682b      	ldr	r3, [r5, #0]
 8003e5a:	42ab      	cmp	r3, r5
 8003e5c:	d004      	beq.n	8003e68 <chOQWriteTimeout+0xb8>
 8003e5e:	69aa      	ldr	r2, [r5, #24]
 8003e60:	689b      	ldr	r3, [r3, #8]
 8003e62:	6892      	ldr	r2, [r2, #8]
 8003e64:	429a      	cmp	r2, r3
 8003e66:	d30f      	bcc.n	8003e88 <chOQWriteTimeout+0xd8>
 8003e68:	2300      	movs	r3, #0
 8003e6a:	f383 8811 	msr	BASEPRI, r3
 8003e6e:	4630      	mov	r0, r6
 8003e70:	b003      	add	sp, #12
 8003e72:	e8bd 8ff0 	ldmia.w	sp!, {r4, r5, r6, r7, r8, r9, sl, fp, pc}
 8003e76:	b672      	cpsid	i
 8003e78:	4b06      	ldr	r3, [pc, #24]	; (8003e94 <chOQWriteTimeout+0xe4>)
 8003e7a:	62eb      	str	r3, [r5, #44]	; 0x2c
 8003e7c:	e7fe      	b.n	8003e7c <chOQWriteTimeout+0xcc>
 8003e7e:	b672      	cpsid	i
 8003e80:	4b03      	ldr	r3, [pc, #12]	; (8003e90 <chOQWriteTimeout+0xe0>)
 8003e82:	4a05      	ldr	r2, [pc, #20]	; (8003e98 <chOQWriteTimeout+0xe8>)
 8003e84:	62da      	str	r2, [r3, #44]	; 0x2c
 8003e86:	e7fe      	b.n	8003e86 <chOQWriteTimeout+0xd6>
 8003e88:	b672      	cpsid	i
 8003e8a:	4b02      	ldr	r3, [pc, #8]	; (8003e94 <chOQWriteTimeout+0xe4>)
 8003e8c:	62eb      	str	r3, [r5, #44]	; 0x2c
 8003e8e:	e7fe      	b.n	8003e8e <chOQWriteTimeout+0xde>
 8003e90:	20001558 	.word	0x20001558
 8003e94:	08009e00 	.word	0x08009e00
 8003e98:	0800a140 	.word	0x0800a140
 8003e9c:	00000000 	.word	0x00000000

08003ea0 <writet>:
 8003ea0:	3030      	adds	r0, #48	; 0x30
 8003ea2:	f7ff bf85 	b.w	8003db0 <chOQWriteTimeout>
 8003ea6:	bf00      	nop
	...

08003eb0 <write>:
 8003eb0:	3030      	adds	r0, #48	; 0x30
 8003eb2:	f04f 33ff 	mov.w	r3, #4294967295	; 0xffffffff
 8003eb6:	f7ff bf7b 	b.w	8003db0 <chOQWriteTimeout>
 8003eba:	bf00      	nop
 8003ebc:	0000      	movs	r0, r0
	...

08003ec0 <chOQPutTimeout>:
 8003ec0:	b5f8      	push	{r3, r4, r5, r6, r7, lr}
 8003ec2:	4604      	mov	r4, r0
 8003ec4:	460f      	mov	r7, r1
 8003ec6:	4616      	mov	r6, r2
 8003ec8:	2320      	movs	r3, #32
 8003eca:	f383 8811 	msr	BASEPRI, r3
 8003ece:	f7fe f9b7 	bl	8002240 <_stats_start_measure_crit_thd>
 8003ed2:	f7fe faa5 	bl	8002420 <_dbg_check_lock>
 8003ed6:	e003      	b.n	8003ee0 <chOQPutTimeout+0x20>
 8003ed8:	f7fe f942 	bl	8002160 <chThdEnqueueTimeoutS>
 8003edc:	1e05      	subs	r5, r0, #0
 8003ede:	db27      	blt.n	8003f30 <chOQPutTimeout+0x70>
 8003ee0:	f7fc fd4e 	bl	8000980 <chDbgCheckClassI>
 8003ee4:	68a3      	ldr	r3, [r4, #8]
 8003ee6:	4631      	mov	r1, r6
 8003ee8:	4620      	mov	r0, r4
 8003eea:	2b00      	cmp	r3, #0
 8003eec:	d0f4      	beq.n	8003ed8 <chOQPutTimeout+0x18>
 8003eee:	6962      	ldr	r2, [r4, #20]
 8003ef0:	3b01      	subs	r3, #1
 8003ef2:	1c51      	adds	r1, r2, #1
 8003ef4:	6161      	str	r1, [r4, #20]
 8003ef6:	60a3      	str	r3, [r4, #8]
 8003ef8:	7017      	strb	r7, [r2, #0]
 8003efa:	e9d4 3204 	ldrd	r3, r2, [r4, #16]
 8003efe:	429a      	cmp	r2, r3
 8003f00:	bf24      	itt	cs
 8003f02:	68e3      	ldrcs	r3, [r4, #12]
 8003f04:	6163      	strcs	r3, [r4, #20]
 8003f06:	69e3      	ldr	r3, [r4, #28]
 8003f08:	b103      	cbz	r3, 8003f0c <chOQPutTimeout+0x4c>
 8003f0a:	4798      	blx	r3
 8003f0c:	f7fe f9a8 	bl	8002260 <_dbg_check_unlock>
 8003f10:	f7fe f98e 	bl	8002230 <_stats_stop_measure_crit_thd>
 8003f14:	4b13      	ldr	r3, [pc, #76]	; (8003f64 <chOQPutTimeout+0xa4>)
 8003f16:	681a      	ldr	r2, [r3, #0]
 8003f18:	429a      	cmp	r2, r3
 8003f1a:	d004      	beq.n	8003f26 <chOQPutTimeout+0x66>
 8003f1c:	6999      	ldr	r1, [r3, #24]
 8003f1e:	6892      	ldr	r2, [r2, #8]
 8003f20:	6889      	ldr	r1, [r1, #8]
 8003f22:	4291      	cmp	r1, r2
 8003f24:	d31a      	bcc.n	8003f5c <chOQPutTimeout+0x9c>
 8003f26:	2500      	movs	r5, #0
 8003f28:	f385 8811 	msr	BASEPRI, r5
 8003f2c:	4628      	mov	r0, r5
 8003f2e:	bdf8      	pop	{r3, r4, r5, r6, r7, pc}
 8003f30:	f7fe f996 	bl	8002260 <_dbg_check_unlock>
 8003f34:	f7fe f97c 	bl	8002230 <_stats_stop_measure_crit_thd>
 8003f38:	4b0a      	ldr	r3, [pc, #40]	; (8003f64 <chOQPutTimeout+0xa4>)
 8003f3a:	681a      	ldr	r2, [r3, #0]
 8003f3c:	429a      	cmp	r2, r3
 8003f3e:	d004      	beq.n	8003f4a <chOQPutTimeout+0x8a>
 8003f40:	6999      	ldr	r1, [r3, #24]
 8003f42:	6892      	ldr	r2, [r2, #8]
 8003f44:	6889      	ldr	r1, [r1, #8]
 8003f46:	4291      	cmp	r1, r2
 8003f48:	d304      	bcc.n	8003f54 <chOQPutTimeout+0x94>
 8003f4a:	2300      	movs	r3, #0
 8003f4c:	f383 8811 	msr	BASEPRI, r3
 8003f50:	4628      	mov	r0, r5
 8003f52:	bdf8      	pop	{r3, r4, r5, r6, r7, pc}
 8003f54:	b672      	cpsid	i
 8003f56:	4a04      	ldr	r2, [pc, #16]	; (8003f68 <chOQPutTimeout+0xa8>)
 8003f58:	62da      	str	r2, [r3, #44]	; 0x2c
 8003f5a:	e7fe      	b.n	8003f5a <chOQPutTimeout+0x9a>
 8003f5c:	b672      	cpsid	i
 8003f5e:	4a02      	ldr	r2, [pc, #8]	; (8003f68 <chOQPutTimeout+0xa8>)
 8003f60:	62da      	str	r2, [r3, #44]	; 0x2c
 8003f62:	e7fe      	b.n	8003f62 <chOQPutTimeout+0xa2>
 8003f64:	20001558 	.word	0x20001558
 8003f68:	08009e00 	.word	0x08009e00
 8003f6c:	00000000 	.word	0x00000000

08003f70 <thread2.lto_priv.161>:
 8003f70:	f44f 62fa 	mov.w	r2, #2000	; 0x7d0
 8003f74:	2100      	movs	r1, #0
 8003f76:	4801      	ldr	r0, [pc, #4]	; (8003f7c <thread2.lto_priv.161+0xc>)
 8003f78:	f7ff bfa2 	b.w	8003ec0 <chOQPutTimeout>
 8003f7c:	20000cac 	.word	0x20000cac

08003f80 <putt>:
 8003f80:	3030      	adds	r0, #48	; 0x30
 8003f82:	f7ff bf9d 	b.w	8003ec0 <chOQPutTimeout>
 8003f86:	bf00      	nop
	...

08003f90 <put>:
 8003f90:	3030      	adds	r0, #48	; 0x30
 8003f92:	f04f 32ff 	mov.w	r2, #4294967295	; 0xffffffff
 8003f96:	f7ff bf93 	b.w	8003ec0 <chOQPutTimeout>
 8003f9a:	bf00      	nop
 8003f9c:	0000      	movs	r0, r0
	...

08003fa0 <chIQReadTimeout>:
 8003fa0:	2a00      	cmp	r2, #0
 8003fa2:	d064      	beq.n	800406e <chIQReadTimeout+0xce>
 8003fa4:	e92d 4ff0 	stmdb	sp!, {r4, r5, r6, r7, r8, r9, sl, fp, lr}
 8003fa8:	b083      	sub	sp, #12
 8003faa:	4698      	mov	r8, r3
 8003fac:	9201      	str	r2, [sp, #4]
 8003fae:	4681      	mov	r9, r0
 8003fb0:	f8d0 a01c 	ldr.w	sl, [r0, #28]
 8003fb4:	2720      	movs	r7, #32
 8003fb6:	f387 8811 	msr	BASEPRI, r7
 8003fba:	f7fe f941 	bl	8002240 <_stats_start_measure_crit_thd>
 8003fbe:	f7fe fa2f 	bl	8002420 <_dbg_check_lock>
 8003fc2:	2600      	movs	r6, #0
 8003fc4:	4c30      	ldr	r4, [pc, #192]	; (8004088 <chIQReadTimeout+0xe8>)
 8003fc6:	1e4d      	subs	r5, r1, #1
 8003fc8:	46b3      	mov	fp, r6
 8003fca:	f1ba 0f00 	cmp.w	sl, #0
 8003fce:	d005      	beq.n	8003fdc <chIQReadTimeout+0x3c>
 8003fd0:	4648      	mov	r0, r9
 8003fd2:	47d0      	blx	sl
 8003fd4:	e002      	b.n	8003fdc <chIQReadTimeout+0x3c>
 8003fd6:	f7fe f8c3 	bl	8002160 <chThdEnqueueTimeoutS>
 8003fda:	bba8      	cbnz	r0, 8004048 <chIQReadTimeout+0xa8>
 8003fdc:	f7fc fcd0 	bl	8000980 <chDbgCheckClassI>
 8003fe0:	f8d9 2008 	ldr.w	r2, [r9, #8]
 8003fe4:	4641      	mov	r1, r8
 8003fe6:	4648      	mov	r0, r9
 8003fe8:	2a00      	cmp	r2, #0
 8003fea:	d0f4      	beq.n	8003fd6 <chIQReadTimeout+0x36>
 8003fec:	f8d9 1018 	ldr.w	r1, [r9, #24]
 8003ff0:	3a01      	subs	r2, #1
 8003ff2:	1c48      	adds	r0, r1, #1
 8003ff4:	f8c9 0018 	str.w	r0, [r9, #24]
 8003ff8:	f8c9 2008 	str.w	r2, [r9, #8]
 8003ffc:	780a      	ldrb	r2, [r1, #0]
 8003ffe:	f805 2f01 	strb.w	r2, [r5, #1]!
 8004002:	f8d9 2010 	ldr.w	r2, [r9, #16]
 8004006:	f8d9 1018 	ldr.w	r1, [r9, #24]
 800400a:	4291      	cmp	r1, r2
 800400c:	bf24      	itt	cs
 800400e:	f8d9 200c 	ldrcs.w	r2, [r9, #12]
 8004012:	f8c9 2018 	strcs.w	r2, [r9, #24]
 8004016:	f7fe f923 	bl	8002260 <_dbg_check_unlock>
 800401a:	f7fe f909 	bl	8002230 <_stats_stop_measure_crit_thd>
 800401e:	6822      	ldr	r2, [r4, #0]
 8004020:	42a2      	cmp	r2, r4
 8004022:	d004      	beq.n	800402e <chIQReadTimeout+0x8e>
 8004024:	69a1      	ldr	r1, [r4, #24]
 8004026:	6892      	ldr	r2, [r2, #8]
 8004028:	6889      	ldr	r1, [r1, #8]
 800402a:	4291      	cmp	r1, r2
 800402c:	d324      	bcc.n	8004078 <chIQReadTimeout+0xd8>
 800402e:	f38b 8811 	msr	BASEPRI, fp
 8004032:	9b01      	ldr	r3, [sp, #4]
 8004034:	3601      	adds	r6, #1
 8004036:	42b3      	cmp	r3, r6
 8004038:	d015      	beq.n	8004066 <chIQReadTimeout+0xc6>
 800403a:	f387 8811 	msr	BASEPRI, r7
 800403e:	f7fe f8ff 	bl	8002240 <_stats_start_measure_crit_thd>
 8004042:	f7fe f9ed 	bl	8002420 <_dbg_check_lock>
 8004046:	e7c0      	b.n	8003fca <chIQReadTimeout+0x2a>
 8004048:	f7fe f90a 	bl	8002260 <_dbg_check_unlock>
 800404c:	f7fe f8f0 	bl	8002230 <_stats_stop_measure_crit_thd>
 8004050:	6823      	ldr	r3, [r4, #0]
 8004052:	42a3      	cmp	r3, r4
 8004054:	d004      	beq.n	8004060 <chIQReadTimeout+0xc0>
 8004056:	69a2      	ldr	r2, [r4, #24]
 8004058:	689b      	ldr	r3, [r3, #8]
 800405a:	6892      	ldr	r2, [r2, #8]
 800405c:	429a      	cmp	r2, r3
 800405e:	d30f      	bcc.n	8004080 <chIQReadTimeout+0xe0>
 8004060:	2300      	movs	r3, #0
 8004062:	f383 8811 	msr	BASEPRI, r3
 8004066:	4630      	mov	r0, r6
 8004068:	b003      	add	sp, #12
 800406a:	e8bd 8ff0 	ldmia.w	sp!, {r4, r5, r6, r7, r8, r9, sl, fp, pc}
 800406e:	b672      	cpsid	i
 8004070:	4b05      	ldr	r3, [pc, #20]	; (8004088 <chIQReadTimeout+0xe8>)
 8004072:	4a06      	ldr	r2, [pc, #24]	; (800408c <chIQReadTimeout+0xec>)
 8004074:	62da      	str	r2, [r3, #44]	; 0x2c
 8004076:	e7fe      	b.n	8004076 <chIQReadTimeout+0xd6>
 8004078:	b672      	cpsid	i
 800407a:	4b05      	ldr	r3, [pc, #20]	; (8004090 <chIQReadTimeout+0xf0>)
 800407c:	62e3      	str	r3, [r4, #44]	; 0x2c
 800407e:	e7fe      	b.n	800407e <chIQReadTimeout+0xde>
 8004080:	b672      	cpsid	i
 8004082:	4b03      	ldr	r3, [pc, #12]	; (8004090 <chIQReadTimeout+0xf0>)
 8004084:	62e3      	str	r3, [r4, #44]	; 0x2c
 8004086:	e7fe      	b.n	8004086 <chIQReadTimeout+0xe6>
 8004088:	20001558 	.word	0x20001558
 800408c:	0800a010 	.word	0x0800a010
 8004090:	08009e00 	.word	0x08009e00
	...

080040a0 <readt>:
 80040a0:	300c      	adds	r0, #12
 80040a2:	f7ff bf7d 	b.w	8003fa0 <chIQReadTimeout>
 80040a6:	bf00      	nop
	...

080040b0 <read>:
 80040b0:	300c      	adds	r0, #12
 80040b2:	f04f 33ff 	mov.w	r3, #4294967295	; 0xffffffff
 80040b6:	f7ff bf73 	b.w	8003fa0 <chIQReadTimeout>
 80040ba:	bf00      	nop
 80040bc:	0000      	movs	r0, r0
	...

080040c0 <chIQGetTimeout>:
 80040c0:	b570      	push	{r4, r5, r6, lr}
 80040c2:	2320      	movs	r3, #32
 80040c4:	4604      	mov	r4, r0
 80040c6:	460e      	mov	r6, r1
 80040c8:	f383 8811 	msr	BASEPRI, r3
 80040cc:	f7fe f8b8 	bl	8002240 <_stats_start_measure_crit_thd>
 80040d0:	f7fe f9a6 	bl	8002420 <_dbg_check_lock>
 80040d4:	69e3      	ldr	r3, [r4, #28]
 80040d6:	b133      	cbz	r3, 80040e6 <chIQGetTimeout+0x26>
 80040d8:	4620      	mov	r0, r4
 80040da:	4798      	blx	r3
 80040dc:	e003      	b.n	80040e6 <chIQGetTimeout+0x26>
 80040de:	f7fe f83f 	bl	8002160 <chThdEnqueueTimeoutS>
 80040e2:	1e05      	subs	r5, r0, #0
 80040e4:	db24      	blt.n	8004130 <chIQGetTimeout+0x70>
 80040e6:	f7fc fc4b 	bl	8000980 <chDbgCheckClassI>
 80040ea:	68a3      	ldr	r3, [r4, #8]
 80040ec:	4631      	mov	r1, r6
 80040ee:	4620      	mov	r0, r4
 80040f0:	2b00      	cmp	r3, #0
 80040f2:	d0f4      	beq.n	80040de <chIQGetTimeout+0x1e>
 80040f4:	69a1      	ldr	r1, [r4, #24]
 80040f6:	6920      	ldr	r0, [r4, #16]
 80040f8:	1c4a      	adds	r2, r1, #1
 80040fa:	3b01      	subs	r3, #1
 80040fc:	4282      	cmp	r2, r0
 80040fe:	60a3      	str	r3, [r4, #8]
 8004100:	61a2      	str	r2, [r4, #24]
 8004102:	bf28      	it	cs
 8004104:	68e3      	ldrcs	r3, [r4, #12]
 8004106:	780d      	ldrb	r5, [r1, #0]
 8004108:	bf28      	it	cs
 800410a:	61a3      	strcs	r3, [r4, #24]
 800410c:	f7fe f8a8 	bl	8002260 <_dbg_check_unlock>
 8004110:	f7fe f88e 	bl	8002230 <_stats_stop_measure_crit_thd>
 8004114:	4b11      	ldr	r3, [pc, #68]	; (800415c <chIQGetTimeout+0x9c>)
 8004116:	681a      	ldr	r2, [r3, #0]
 8004118:	429a      	cmp	r2, r3
 800411a:	d004      	beq.n	8004126 <chIQGetTimeout+0x66>
 800411c:	6999      	ldr	r1, [r3, #24]
 800411e:	6892      	ldr	r2, [r2, #8]
 8004120:	6889      	ldr	r1, [r1, #8]
 8004122:	4291      	cmp	r1, r2
 8004124:	d315      	bcc.n	8004152 <chIQGetTimeout+0x92>
 8004126:	2300      	movs	r3, #0
 8004128:	f383 8811 	msr	BASEPRI, r3
 800412c:	4628      	mov	r0, r5
 800412e:	bd70      	pop	{r4, r5, r6, pc}
 8004130:	f7fe f896 	bl	8002260 <_dbg_check_unlock>
 8004134:	f7fe f87c 	bl	8002230 <_stats_stop_measure_crit_thd>
 8004138:	4b08      	ldr	r3, [pc, #32]	; (800415c <chIQGetTimeout+0x9c>)
 800413a:	681a      	ldr	r2, [r3, #0]
 800413c:	429a      	cmp	r2, r3
 800413e:	d0f2      	beq.n	8004126 <chIQGetTimeout+0x66>
 8004140:	6999      	ldr	r1, [r3, #24]
 8004142:	6892      	ldr	r2, [r2, #8]
 8004144:	6889      	ldr	r1, [r1, #8]
 8004146:	4291      	cmp	r1, r2
 8004148:	d2ed      	bcs.n	8004126 <chIQGetTimeout+0x66>
 800414a:	b672      	cpsid	i
 800414c:	4a04      	ldr	r2, [pc, #16]	; (8004160 <chIQGetTimeout+0xa0>)
 800414e:	62da      	str	r2, [r3, #44]	; 0x2c
 8004150:	e7fe      	b.n	8004150 <chIQGetTimeout+0x90>
 8004152:	b672      	cpsid	i
 8004154:	4a02      	ldr	r2, [pc, #8]	; (8004160 <chIQGetTimeout+0xa0>)
 8004156:	62da      	str	r2, [r3, #44]	; 0x2c
 8004158:	e7fe      	b.n	8004158 <chIQGetTimeout+0x98>
 800415a:	bf00      	nop
 800415c:	20001558 	.word	0x20001558
 8004160:	08009e00 	.word	0x08009e00
	...

08004170 <thread1.lto_priv.155>:
 8004170:	f44f 61fa 	mov.w	r1, #2000	; 0x7d0
 8004174:	4801      	ldr	r0, [pc, #4]	; (800417c <thread1.lto_priv.155+0xc>)
 8004176:	f7ff bfa3 	b.w	80040c0 <chIQGetTimeout>
 800417a:	bf00      	nop
 800417c:	20000c14 	.word	0x20000c14

08004180 <gett>:
 8004180:	300c      	adds	r0, #12
 8004182:	f7ff bf9d 	b.w	80040c0 <chIQGetTimeout>
 8004186:	bf00      	nop
	...

08004190 <get>:
 8004190:	300c      	adds	r0, #12
 8004192:	f04f 31ff 	mov.w	r1, #4294967295	; 0xffffffff
 8004196:	f7ff bf93 	b.w	80040c0 <chIQGetTimeout>
 800419a:	bf00      	nop
 800419c:	0000      	movs	r0, r0
	...

080041a0 <chMsgRelease>:
 80041a0:	b510      	push	{r4, lr}
 80041a2:	2320      	movs	r3, #32
 80041a4:	4604      	mov	r4, r0
 80041a6:	f383 8811 	msr	BASEPRI, r3
 80041aa:	f7fe f849 	bl	8002240 <_stats_start_measure_crit_thd>
 80041ae:	f7fe f937 	bl	8002420 <_dbg_check_lock>
 80041b2:	f894 3020 	ldrb.w	r3, [r4, #32]
 80041b6:	2b0d      	cmp	r3, #13
 80041b8:	d004      	beq.n	80041c4 <chMsgRelease+0x24>
 80041ba:	b672      	cpsid	i
 80041bc:	4b0e      	ldr	r3, [pc, #56]	; (80041f8 <chMsgRelease+0x58>)
 80041be:	4a0f      	ldr	r2, [pc, #60]	; (80041fc <chMsgRelease+0x5c>)
 80041c0:	62da      	str	r2, [r3, #44]	; 0x2c
 80041c2:	e7fe      	b.n	80041c2 <chMsgRelease+0x22>
 80041c4:	f7fc fbcc 	bl	8000960 <chDbgCheckClassS>
 80041c8:	4620      	mov	r0, r4
 80041ca:	f7fd fe59 	bl	8001e80 <chSchWakeupS>
 80041ce:	f7fe f847 	bl	8002260 <_dbg_check_unlock>
 80041d2:	f7fe f82d 	bl	8002230 <_stats_stop_measure_crit_thd>
 80041d6:	4b08      	ldr	r3, [pc, #32]	; (80041f8 <chMsgRelease+0x58>)
 80041d8:	681a      	ldr	r2, [r3, #0]
 80041da:	429a      	cmp	r2, r3
 80041dc:	d004      	beq.n	80041e8 <chMsgRelease+0x48>
 80041de:	6999      	ldr	r1, [r3, #24]
 80041e0:	6892      	ldr	r2, [r2, #8]
 80041e2:	6889      	ldr	r1, [r1, #8]
 80041e4:	4291      	cmp	r1, r2
 80041e6:	d303      	bcc.n	80041f0 <chMsgRelease+0x50>
 80041e8:	2300      	movs	r3, #0
 80041ea:	f383 8811 	msr	BASEPRI, r3
 80041ee:	bd10      	pop	{r4, pc}
 80041f0:	b672      	cpsid	i
 80041f2:	4a03      	ldr	r2, [pc, #12]	; (8004200 <chMsgRelease+0x60>)
 80041f4:	62da      	str	r2, [r3, #44]	; 0x2c
 80041f6:	e7fe      	b.n	80041f6 <chMsgRelease+0x56>
 80041f8:	20001558 	.word	0x20001558
 80041fc:	08009fb0 	.word	0x08009fb0
 8004200:	08009de0 	.word	0x08009de0
	...

08004210 <chMsgWait>:
 8004210:	b538      	push	{r3, r4, r5, lr}
 8004212:	2320      	movs	r3, #32
 8004214:	f383 8811 	msr	BASEPRI, r3
 8004218:	4c17      	ldr	r4, [pc, #92]	; (8004278 <chMsgWait+0x68>)
 800421a:	f7fe f811 	bl	8002240 <_stats_start_measure_crit_thd>
 800421e:	f7fe f8ff 	bl	8002420 <_dbg_check_lock>
 8004222:	69a1      	ldr	r1, [r4, #24]
 8004224:	f7fc fbac 	bl	8000980 <chDbgCheckClassI>
 8004228:	460b      	mov	r3, r1
 800422a:	f853 5f2c 	ldr.w	r5, [r3, #44]!
 800422e:	429d      	cmp	r5, r3
 8004230:	d016      	beq.n	8004260 <chMsgWait+0x50>
 8004232:	682a      	ldr	r2, [r5, #0]
 8004234:	62ca      	str	r2, [r1, #44]	; 0x2c
 8004236:	210d      	movs	r1, #13
 8004238:	6053      	str	r3, [r2, #4]
 800423a:	f885 1020 	strb.w	r1, [r5, #32]
 800423e:	f7fe f80f 	bl	8002260 <_dbg_check_unlock>
 8004242:	f7fd fff5 	bl	8002230 <_stats_stop_measure_crit_thd>
 8004246:	6823      	ldr	r3, [r4, #0]
 8004248:	42a3      	cmp	r3, r4
 800424a:	d004      	beq.n	8004256 <chMsgWait+0x46>
 800424c:	69a2      	ldr	r2, [r4, #24]
 800424e:	689b      	ldr	r3, [r3, #8]
 8004250:	6892      	ldr	r2, [r2, #8]
 8004252:	429a      	cmp	r2, r3
 8004254:	d30c      	bcc.n	8004270 <chMsgWait+0x60>
 8004256:	2300      	movs	r3, #0
 8004258:	f383 8811 	msr	BASEPRI, r3
 800425c:	4628      	mov	r0, r5
 800425e:	bd38      	pop	{r3, r4, r5, pc}
 8004260:	200e      	movs	r0, #14
 8004262:	f7fd fe45 	bl	8001ef0 <chSchGoSleepS>
 8004266:	69a1      	ldr	r1, [r4, #24]
 8004268:	6acd      	ldr	r5, [r1, #44]	; 0x2c
 800426a:	f101 032c 	add.w	r3, r1, #44	; 0x2c
 800426e:	e7e0      	b.n	8004232 <chMsgWait+0x22>
 8004270:	b672      	cpsid	i
 8004272:	4b02      	ldr	r3, [pc, #8]	; (800427c <chMsgWait+0x6c>)
 8004274:	62e3      	str	r3, [r4, #44]	; 0x2c
 8004276:	e7fe      	b.n	8004276 <chMsgWait+0x66>
 8004278:	20001558 	.word	0x20001558
 800427c:	08009de0 	.word	0x08009de0

08004280 <thread2.lto_priv.162>:
 8004280:	b510      	push	{r4, lr}
 8004282:	f7ff ffc5 	bl	8004210 <chMsgWait>
 8004286:	6b44      	ldr	r4, [r0, #52]	; 0x34
 8004288:	4621      	mov	r1, r4
 800428a:	f7ff ff89 	bl	80041a0 <chMsgRelease>
 800428e:	2c00      	cmp	r4, #0
 8004290:	d1f7      	bne.n	8004282 <thread2.lto_priv.162+0x2>
 8004292:	bd10      	pop	{r4, pc}
	...

080042a0 <chMsgSend>:
 80042a0:	b360      	cbz	r0, 80042fc <chMsgSend+0x5c>
 80042a2:	b570      	push	{r4, r5, r6, lr}
 80042a4:	4e1c      	ldr	r6, [pc, #112]	; (8004318 <chMsgSend+0x78>)
 80042a6:	4604      	mov	r4, r0
 80042a8:	2320      	movs	r3, #32
 80042aa:	69b5      	ldr	r5, [r6, #24]
 80042ac:	f383 8811 	msr	BASEPRI, r3
 80042b0:	f7fd ffc6 	bl	8002240 <_stats_start_measure_crit_thd>
 80042b4:	f7fe f8b4 	bl	8002420 <_dbg_check_lock>
 80042b8:	f104 032c 	add.w	r3, r4, #44	; 0x2c
 80042bc:	626b      	str	r3, [r5, #36]	; 0x24
 80042be:	602b      	str	r3, [r5, #0]
 80042c0:	6b23      	ldr	r3, [r4, #48]	; 0x30
 80042c2:	606b      	str	r3, [r5, #4]
 80042c4:	6369      	str	r1, [r5, #52]	; 0x34
 80042c6:	601d      	str	r5, [r3, #0]
 80042c8:	f894 3020 	ldrb.w	r3, [r4, #32]
 80042cc:	6325      	str	r5, [r4, #48]	; 0x30
 80042ce:	2b0e      	cmp	r3, #14
 80042d0:	d01d      	beq.n	800430e <chMsgSend+0x6e>
 80042d2:	200c      	movs	r0, #12
 80042d4:	f7fd fe0c 	bl	8001ef0 <chSchGoSleepS>
 80042d8:	6a6c      	ldr	r4, [r5, #36]	; 0x24
 80042da:	f7fd ffc1 	bl	8002260 <_dbg_check_unlock>
 80042de:	f7fd ffa7 	bl	8002230 <_stats_stop_measure_crit_thd>
 80042e2:	6833      	ldr	r3, [r6, #0]
 80042e4:	42b3      	cmp	r3, r6
 80042e6:	d004      	beq.n	80042f2 <chMsgSend+0x52>
 80042e8:	69b2      	ldr	r2, [r6, #24]
 80042ea:	689b      	ldr	r3, [r3, #8]
 80042ec:	6892      	ldr	r2, [r2, #8]
 80042ee:	429a      	cmp	r2, r3
 80042f0:	d309      	bcc.n	8004306 <chMsgSend+0x66>
 80042f2:	2300      	movs	r3, #0
 80042f4:	f383 8811 	msr	BASEPRI, r3
 80042f8:	4620      	mov	r0, r4
 80042fa:	bd70      	pop	{r4, r5, r6, pc}
 80042fc:	b672      	cpsid	i
 80042fe:	4b06      	ldr	r3, [pc, #24]	; (8004318 <chMsgSend+0x78>)
 8004300:	4a06      	ldr	r2, [pc, #24]	; (800431c <chMsgSend+0x7c>)
 8004302:	62da      	str	r2, [r3, #44]	; 0x2c
 8004304:	e7fe      	b.n	8004304 <chMsgSend+0x64>
 8004306:	b672      	cpsid	i
 8004308:	4b05      	ldr	r3, [pc, #20]	; (8004320 <chMsgSend+0x80>)
 800430a:	62f3      	str	r3, [r6, #44]	; 0x2c
 800430c:	e7fe      	b.n	800430c <chMsgSend+0x6c>
 800430e:	4620      	mov	r0, r4
 8004310:	f7fc fbf6 	bl	8000b00 <chSchReadyI>
 8004314:	e7dd      	b.n	80042d2 <chMsgSend+0x32>
 8004316:	bf00      	nop
 8004318:	20001558 	.word	0x20001558
 800431c:	08009f40 	.word	0x08009f40
 8004320:	08009de0 	.word	0x08009de0
	...

08004330 <thread.lto_priv.79>:
 8004330:	b510      	push	{r4, lr}
 8004332:	2141      	movs	r1, #65	; 0x41
 8004334:	4604      	mov	r4, r0
 8004336:	f7ff ffb3 	bl	80042a0 <chMsgSend>
 800433a:	4620      	mov	r0, r4
 800433c:	2142      	movs	r1, #66	; 0x42
 800433e:	f7ff ffaf 	bl	80042a0 <chMsgSend>
 8004342:	4620      	mov	r0, r4
 8004344:	2143      	movs	r1, #67	; 0x43
 8004346:	e8bd 4010 	ldmia.w	sp!, {r4, lr}
 800434a:	f7ff bfa9 	b.w	80042a0 <chMsgSend>
 800434e:	bf00      	nop

08004350 <chEvtAddEvents>:
 8004350:	b538      	push	{r3, r4, r5, lr}
 8004352:	4605      	mov	r5, r0
 8004354:	2320      	movs	r3, #32
 8004356:	f383 8811 	msr	BASEPRI, r3
 800435a:	4c0f      	ldr	r4, [pc, #60]	; (8004398 <chEvtAddEvents+0x48>)
 800435c:	f7fd ff70 	bl	8002240 <_stats_start_measure_crit_thd>
 8004360:	f7fe f85e 	bl	8002420 <_dbg_check_lock>
 8004364:	69a3      	ldr	r3, [r4, #24]
 8004366:	6b9a      	ldr	r2, [r3, #56]	; 0x38
 8004368:	4315      	orrs	r5, r2
 800436a:	639d      	str	r5, [r3, #56]	; 0x38
 800436c:	f7fd ff78 	bl	8002260 <_dbg_check_unlock>
 8004370:	f7fd ff5e 	bl	8002230 <_stats_stop_measure_crit_thd>
 8004374:	6823      	ldr	r3, [r4, #0]
 8004376:	42a3      	cmp	r3, r4
 8004378:	d004      	beq.n	8004384 <chEvtAddEvents+0x34>
 800437a:	69a2      	ldr	r2, [r4, #24]
 800437c:	689b      	ldr	r3, [r3, #8]
 800437e:	6892      	ldr	r2, [r2, #8]
 8004380:	429a      	cmp	r2, r3
 8004382:	d304      	bcc.n	800438e <chEvtAddEvents+0x3e>
 8004384:	2300      	movs	r3, #0
 8004386:	f383 8811 	msr	BASEPRI, r3
 800438a:	4628      	mov	r0, r5
 800438c:	bd38      	pop	{r3, r4, r5, pc}
 800438e:	b672      	cpsid	i
 8004390:	4b02      	ldr	r3, [pc, #8]	; (800439c <chEvtAddEvents+0x4c>)
 8004392:	62e3      	str	r3, [r4, #44]	; 0x2c
 8004394:	e7fe      	b.n	8004394 <chEvtAddEvents+0x44>
 8004396:	bf00      	nop
 8004398:	20001558 	.word	0x20001558
 800439c:	08009dd0 	.word	0x08009dd0

080043a0 <chEvtUnregister>:
 80043a0:	b510      	push	{r4, lr}
 80043a2:	2320      	movs	r3, #32
 80043a4:	4604      	mov	r4, r0
 80043a6:	f383 8811 	msr	BASEPRI, r3
 80043aa:	f7fd ff49 	bl	8002240 <_stats_start_measure_crit_thd>
 80043ae:	f7fe f837 	bl	8002420 <_dbg_check_lock>
 80043b2:	4623      	mov	r3, r4
 80043b4:	e002      	b.n	80043bc <chEvtUnregister+0x1c>
 80043b6:	428a      	cmp	r2, r1
 80043b8:	d014      	beq.n	80043e4 <chEvtUnregister+0x44>
 80043ba:	4613      	mov	r3, r2
 80043bc:	681a      	ldr	r2, [r3, #0]
 80043be:	42a2      	cmp	r2, r4
 80043c0:	d1f9      	bne.n	80043b6 <chEvtUnregister+0x16>
 80043c2:	f7fd ff4d 	bl	8002260 <_dbg_check_unlock>
 80043c6:	f7fd ff33 	bl	8002230 <_stats_stop_measure_crit_thd>
 80043ca:	4b0a      	ldr	r3, [pc, #40]	; (80043f4 <chEvtUnregister+0x54>)
 80043cc:	681a      	ldr	r2, [r3, #0]
 80043ce:	429a      	cmp	r2, r3
 80043d0:	d004      	beq.n	80043dc <chEvtUnregister+0x3c>
 80043d2:	6999      	ldr	r1, [r3, #24]
 80043d4:	6892      	ldr	r2, [r2, #8]
 80043d6:	6889      	ldr	r1, [r1, #8]
 80043d8:	4291      	cmp	r1, r2
 80043da:	d306      	bcc.n	80043ea <chEvtUnregister+0x4a>
 80043dc:	2300      	movs	r3, #0
 80043de:	f383 8811 	msr	BASEPRI, r3
 80043e2:	bd10      	pop	{r4, pc}
 80043e4:	680a      	ldr	r2, [r1, #0]
 80043e6:	601a      	str	r2, [r3, #0]
 80043e8:	e7eb      	b.n	80043c2 <chEvtUnregister+0x22>
 80043ea:	b672      	cpsid	i
 80043ec:	4a02      	ldr	r2, [pc, #8]	; (80043f8 <chEvtUnregister+0x58>)
 80043ee:	62da      	str	r2, [r3, #44]	; 0x2c
 80043f0:	e7fe      	b.n	80043f0 <chEvtUnregister+0x50>
 80043f2:	bf00      	nop
 80043f4:	20001558 	.word	0x20001558
 80043f8:	08009dd0 	.word	0x08009dd0
 80043fc:	00000000 	.word	0x00000000

08004400 <evt1_execute>:
 8004400:	b5f0      	push	{r4, r5, r6, r7, lr}
 8004402:	4c29      	ldr	r4, [pc, #164]	; (80044a8 <evt1_execute+0xa8>)
 8004404:	b08b      	sub	sp, #44	; 0x2c
 8004406:	4620      	mov	r0, r4
 8004408:	a905      	add	r1, sp, #20
 800440a:	2201      	movs	r2, #1
 800440c:	6024      	str	r4, [r4, #0]
 800440e:	f7fe f92f 	bl	8002670 <chEvtRegisterMaskWithFlags.constprop.55>
 8004412:	4620      	mov	r0, r4
 8004414:	4669      	mov	r1, sp
 8004416:	2202      	movs	r2, #2
 8004418:	f7fe f92a 	bl	8002670 <chEvtRegisterMaskWithFlags.constprop.55>
 800441c:	6821      	ldr	r1, [r4, #0]
 800441e:	1b09      	subs	r1, r1, r4
 8004420:	bf18      	it	ne
 8004422:	2101      	movne	r1, #1
 8004424:	2001      	movs	r0, #1
 8004426:	f7fc f86b 	bl	8000500 <_test_assert>
 800442a:	b108      	cbz	r0, 8004430 <evt1_execute+0x30>
 800442c:	b00b      	add	sp, #44	; 0x2c
 800442e:	bdf0      	pop	{r4, r5, r6, r7, pc}
 8004430:	a905      	add	r1, sp, #20
 8004432:	4620      	mov	r0, r4
 8004434:	f7ff ffb4 	bl	80043a0 <chEvtUnregister>
 8004438:	6821      	ldr	r1, [r4, #0]
 800443a:	1b09      	subs	r1, r1, r4
 800443c:	bf18      	it	ne
 800443e:	2101      	movne	r1, #1
 8004440:	2002      	movs	r0, #2
 8004442:	f7fc f85d 	bl	8000500 <_test_assert>
 8004446:	2800      	cmp	r0, #0
 8004448:	d1f0      	bne.n	800442c <evt1_execute+0x2c>
 800444a:	4669      	mov	r1, sp
 800444c:	4620      	mov	r0, r4
 800444e:	f7ff ffa7 	bl	80043a0 <chEvtUnregister>
 8004452:	6821      	ldr	r1, [r4, #0]
 8004454:	1b09      	subs	r1, r1, r4
 8004456:	fab1 f181 	clz	r1, r1
 800445a:	2003      	movs	r0, #3
 800445c:	0949      	lsrs	r1, r1, #5
 800445e:	f7fc f84f 	bl	8000500 <_test_assert>
 8004462:	2800      	cmp	r0, #0
 8004464:	d1e2      	bne.n	800442c <evt1_execute+0x2c>
 8004466:	4f11      	ldr	r7, [pc, #68]	; (80044ac <evt1_execute+0xac>)
 8004468:	4604      	mov	r4, r0
 800446a:	2507      	movs	r5, #7
 800446c:	2601      	movs	r6, #1
 800446e:	fa25 f304 	lsr.w	r3, r5, r4
 8004472:	f013 0f01 	tst.w	r3, #1
 8004476:	fa06 f204 	lsl.w	r2, r6, r4
 800447a:	4620      	mov	r0, r4
 800447c:	d00d      	beq.n	800449a <evt1_execute+0x9a>
 800447e:	f857 3024 	ldr.w	r3, [r7, r4, lsl #2]
 8004482:	ea25 0502 	bic.w	r5, r5, r2
 8004486:	b153      	cbz	r3, 800449e <evt1_execute+0x9e>
 8004488:	4798      	blx	r3
 800448a:	3401      	adds	r4, #1
 800448c:	2d00      	cmp	r5, #0
 800448e:	d1ee      	bne.n	800446e <evt1_execute+0x6e>
 8004490:	4907      	ldr	r1, [pc, #28]	; (80044b0 <evt1_execute+0xb0>)
 8004492:	2004      	movs	r0, #4
 8004494:	f7fc f80c 	bl	80004b0 <_test_assert_sequence>
 8004498:	e7c8      	b.n	800442c <evt1_execute+0x2c>
 800449a:	3401      	adds	r4, #1
 800449c:	e7e7      	b.n	800446e <evt1_execute+0x6e>
 800449e:	b672      	cpsid	i
 80044a0:	4b04      	ldr	r3, [pc, #16]	; (80044b4 <evt1_execute+0xb4>)
 80044a2:	4a05      	ldr	r2, [pc, #20]	; (80044b8 <evt1_execute+0xb8>)
 80044a4:	62da      	str	r2, [r3, #44]	; 0x2c
 80044a6:	e7fe      	b.n	80044a6 <evt1_execute+0xa6>
 80044a8:	20000c0c 	.word	0x20000c0c
 80044ac:	0800a860 	.word	0x0800a860
 80044b0:	0800a870 	.word	0x0800a870
 80044b4:	20001558 	.word	0x20001558
 80044b8:	0800a120 	.word	0x0800a120
 80044bc:	00000000 	.word	0x00000000

080044c0 <chMtxUnlockAll>:
 80044c0:	b5f8      	push	{r3, r4, r5, r6, r7, lr}
 80044c2:	4c1e      	ldr	r4, [pc, #120]	; (800453c <chMtxUnlockAll+0x7c>)
 80044c4:	2320      	movs	r3, #32
 80044c6:	69a5      	ldr	r5, [r4, #24]
 80044c8:	f383 8811 	msr	BASEPRI, r3
 80044cc:	f7fd feb8 	bl	8002240 <_stats_start_measure_crit_thd>
 80044d0:	f7fd ffa6 	bl	8002420 <_dbg_check_lock>
 80044d4:	6be9      	ldr	r1, [r5, #60]	; 0x3c
 80044d6:	b1c1      	cbz	r1, 800450a <chMtxUnlockAll+0x4a>
 80044d8:	2700      	movs	r7, #0
 80044da:	68ce      	ldr	r6, [r1, #12]
 80044dc:	63ee      	str	r6, [r5, #60]	; 0x3c
 80044de:	f7fc fa3f 	bl	8000960 <chDbgCheckClassS>
 80044e2:	680b      	ldr	r3, [r1, #0]
 80044e4:	4299      	cmp	r1, r3
 80044e6:	4618      	mov	r0, r3
 80044e8:	d01f      	beq.n	800452a <chMtxUnlockAll+0x6a>
 80044ea:	6bde      	ldr	r6, [r3, #60]	; 0x3c
 80044ec:	681a      	ldr	r2, [r3, #0]
 80044ee:	600a      	str	r2, [r1, #0]
 80044f0:	6051      	str	r1, [r2, #4]
 80044f2:	e9c1 3602 	strd	r3, r6, [r1, #8]
 80044f6:	63d9      	str	r1, [r3, #60]	; 0x3c
 80044f8:	f7fc fb02 	bl	8000b00 <chSchReadyI>
 80044fc:	6be9      	ldr	r1, [r5, #60]	; 0x3c
 80044fe:	2900      	cmp	r1, #0
 8004500:	d1eb      	bne.n	80044da <chMtxUnlockAll+0x1a>
 8004502:	6c2b      	ldr	r3, [r5, #64]	; 0x40
 8004504:	60ab      	str	r3, [r5, #8]
 8004506:	f7fd fca3 	bl	8001e50 <chSchRescheduleS>
 800450a:	f7fd fea9 	bl	8002260 <_dbg_check_unlock>
 800450e:	f7fd fe8f 	bl	8002230 <_stats_stop_measure_crit_thd>
 8004512:	6823      	ldr	r3, [r4, #0]
 8004514:	42a3      	cmp	r3, r4
 8004516:	d004      	beq.n	8004522 <chMtxUnlockAll+0x62>
 8004518:	69a2      	ldr	r2, [r4, #24]
 800451a:	689b      	ldr	r3, [r3, #8]
 800451c:	6892      	ldr	r2, [r2, #8]
 800451e:	429a      	cmp	r2, r3
 8004520:	d308      	bcc.n	8004534 <chMtxUnlockAll+0x74>
 8004522:	2300      	movs	r3, #0
 8004524:	f383 8811 	msr	BASEPRI, r3
 8004528:	bdf8      	pop	{r3, r4, r5, r6, r7, pc}
 800452a:	608f      	str	r7, [r1, #8]
 800452c:	4631      	mov	r1, r6
 800452e:	2900      	cmp	r1, #0
 8004530:	d1d3      	bne.n	80044da <chMtxUnlockAll+0x1a>
 8004532:	e7e6      	b.n	8004502 <chMtxUnlockAll+0x42>
 8004534:	b672      	cpsid	i
 8004536:	4b02      	ldr	r3, [pc, #8]	; (8004540 <chMtxUnlockAll+0x80>)
 8004538:	62e3      	str	r3, [r4, #44]	; 0x2c
 800453a:	e7fe      	b.n	800453a <chMtxUnlockAll+0x7a>
 800453c:	20001558 	.word	0x20001558
 8004540:	08009db0 	.word	0x08009db0
	...

08004550 <chMtxUnlock>:
 8004550:	b5f8      	push	{r3, r4, r5, r6, r7, lr}
 8004552:	b1c8      	cbz	r0, 8004588 <chMtxUnlock+0x38>
 8004554:	4f2d      	ldr	r7, [pc, #180]	; (800460c <chMtxUnlock+0xbc>)
 8004556:	4604      	mov	r4, r0
 8004558:	2320      	movs	r3, #32
 800455a:	69be      	ldr	r6, [r7, #24]
 800455c:	f383 8811 	msr	BASEPRI, r3
 8004560:	f7fd fe6e 	bl	8002240 <_stats_start_measure_crit_thd>
 8004564:	f7fd ff5c 	bl	8002420 <_dbg_check_lock>
 8004568:	6bf0      	ldr	r0, [r6, #60]	; 0x3c
 800456a:	2800      	cmp	r0, #0
 800456c:	d049      	beq.n	8004602 <chMtxUnlock+0xb2>
 800456e:	6883      	ldr	r3, [r0, #8]
 8004570:	42b3      	cmp	r3, r6
 8004572:	d003      	beq.n	800457c <chMtxUnlock+0x2c>
 8004574:	b672      	cpsid	i
 8004576:	4b26      	ldr	r3, [pc, #152]	; (8004610 <chMtxUnlock+0xc0>)
 8004578:	62fb      	str	r3, [r7, #44]	; 0x2c
 800457a:	e7fe      	b.n	800457a <chMtxUnlock+0x2a>
 800457c:	42a0      	cmp	r0, r4
 800457e:	d008      	beq.n	8004592 <chMtxUnlock+0x42>
 8004580:	b672      	cpsid	i
 8004582:	4b23      	ldr	r3, [pc, #140]	; (8004610 <chMtxUnlock+0xc0>)
 8004584:	62fb      	str	r3, [r7, #44]	; 0x2c
 8004586:	e7fe      	b.n	8004586 <chMtxUnlock+0x36>
 8004588:	b672      	cpsid	i
 800458a:	4b20      	ldr	r3, [pc, #128]	; (800460c <chMtxUnlock+0xbc>)
 800458c:	4a20      	ldr	r2, [pc, #128]	; (8004610 <chMtxUnlock+0xc0>)
 800458e:	62da      	str	r2, [r3, #44]	; 0x2c
 8004590:	e7fe      	b.n	8004590 <chMtxUnlock+0x40>
 8004592:	68e1      	ldr	r1, [r4, #12]
 8004594:	63f1      	str	r1, [r6, #60]	; 0x3c
 8004596:	f7fc f9e3 	bl	8000960 <chDbgCheckClassS>
 800459a:	6825      	ldr	r5, [r4, #0]
 800459c:	42ac      	cmp	r4, r5
 800459e:	d02d      	beq.n	80045fc <chMtxUnlock+0xac>
 80045a0:	6c30      	ldr	r0, [r6, #64]	; 0x40
 80045a2:	b159      	cbz	r1, 80045bc <chMtxUnlock+0x6c>
 80045a4:	f7fc f9dc 	bl	8000960 <chDbgCheckClassS>
 80045a8:	680b      	ldr	r3, [r1, #0]
 80045aa:	4299      	cmp	r1, r3
 80045ac:	d003      	beq.n	80045b6 <chMtxUnlock+0x66>
 80045ae:	689b      	ldr	r3, [r3, #8]
 80045b0:	4298      	cmp	r0, r3
 80045b2:	bf38      	it	cc
 80045b4:	4618      	movcc	r0, r3
 80045b6:	68c9      	ldr	r1, [r1, #12]
 80045b8:	2900      	cmp	r1, #0
 80045ba:	d1f3      	bne.n	80045a4 <chMtxUnlock+0x54>
 80045bc:	682b      	ldr	r3, [r5, #0]
 80045be:	6bea      	ldr	r2, [r5, #60]	; 0x3c
 80045c0:	60b0      	str	r0, [r6, #8]
 80045c2:	2100      	movs	r1, #0
 80045c4:	6023      	str	r3, [r4, #0]
 80045c6:	4628      	mov	r0, r5
 80045c8:	605c      	str	r4, [r3, #4]
 80045ca:	e9c4 5202 	strd	r5, r2, [r4, #8]
 80045ce:	63ec      	str	r4, [r5, #60]	; 0x3c
 80045d0:	f7fd fc56 	bl	8001e80 <chSchWakeupS>
 80045d4:	f7fd fe44 	bl	8002260 <_dbg_check_unlock>
 80045d8:	f7fd fe2a 	bl	8002230 <_stats_stop_measure_crit_thd>
 80045dc:	683b      	ldr	r3, [r7, #0]
 80045de:	42bb      	cmp	r3, r7
 80045e0:	d004      	beq.n	80045ec <chMtxUnlock+0x9c>
 80045e2:	69ba      	ldr	r2, [r7, #24]
 80045e4:	689b      	ldr	r3, [r3, #8]
 80045e6:	6892      	ldr	r2, [r2, #8]
 80045e8:	429a      	cmp	r2, r3
 80045ea:	d303      	bcc.n	80045f4 <chMtxUnlock+0xa4>
 80045ec:	2300      	movs	r3, #0
 80045ee:	f383 8811 	msr	BASEPRI, r3
 80045f2:	bdf8      	pop	{r3, r4, r5, r6, r7, pc}
 80045f4:	b672      	cpsid	i
 80045f6:	4b07      	ldr	r3, [pc, #28]	; (8004614 <chMtxUnlock+0xc4>)
 80045f8:	62fb      	str	r3, [r7, #44]	; 0x2c
 80045fa:	e7fe      	b.n	80045fa <chMtxUnlock+0xaa>
 80045fc:	2300      	movs	r3, #0
 80045fe:	6083      	str	r3, [r0, #8]
 8004600:	e7e8      	b.n	80045d4 <chMtxUnlock+0x84>
 8004602:	b672      	cpsid	i
 8004604:	4b02      	ldr	r3, [pc, #8]	; (8004610 <chMtxUnlock+0xc0>)
 8004606:	62fb      	str	r3, [r7, #44]	; 0x2c
 8004608:	e7fe      	b.n	8004608 <chMtxUnlock+0xb8>
 800460a:	bf00      	nop
 800460c:	20001558 	.word	0x20001558
 8004610:	0800a030 	.word	0x0800a030
 8004614:	08009db0 	.word	0x08009db0
	...

08004620 <chMtxLock>:
 8004620:	b508      	push	{r3, lr}
 8004622:	4601      	mov	r1, r0
 8004624:	2320      	movs	r3, #32
 8004626:	f383 8811 	msr	BASEPRI, r3
 800462a:	f7fd fe09 	bl	8002240 <_stats_start_measure_crit_thd>
 800462e:	f7fd fef7 	bl	8002420 <_dbg_check_lock>
 8004632:	4608      	mov	r0, r1
 8004634:	f7fd fc8c 	bl	8001f50 <chMtxLockS>
 8004638:	f7fd fe12 	bl	8002260 <_dbg_check_unlock>
 800463c:	f7fd fdf8 	bl	8002230 <_stats_stop_measure_crit_thd>
 8004640:	4b08      	ldr	r3, [pc, #32]	; (8004664 <chMtxLock+0x44>)
 8004642:	681a      	ldr	r2, [r3, #0]
 8004644:	429a      	cmp	r2, r3
 8004646:	d004      	beq.n	8004652 <chMtxLock+0x32>
 8004648:	6999      	ldr	r1, [r3, #24]
 800464a:	6892      	ldr	r2, [r2, #8]
 800464c:	6889      	ldr	r1, [r1, #8]
 800464e:	4291      	cmp	r1, r2
 8004650:	d303      	bcc.n	800465a <chMtxLock+0x3a>
 8004652:	2300      	movs	r3, #0
 8004654:	f383 8811 	msr	BASEPRI, r3
 8004658:	bd08      	pop	{r3, pc}
 800465a:	b672      	cpsid	i
 800465c:	4a02      	ldr	r2, [pc, #8]	; (8004668 <chMtxLock+0x48>)
 800465e:	62da      	str	r2, [r3, #44]	; 0x2c
 8004660:	e7fe      	b.n	8004660 <chMtxLock+0x40>
 8004662:	bf00      	nop
 8004664:	20001558 	.word	0x20001558
 8004668:	08009db0 	.word	0x08009db0
 800466c:	00000000 	.word	0x00000000

08004670 <thread11>:
 8004670:	b5f8      	push	{r3, r4, r5, r6, r7, lr}
 8004672:	4607      	mov	r7, r0
 8004674:	4829      	ldr	r0, [pc, #164]	; (800471c <thread11+0xac>)
 8004676:	f7ff ffd3 	bl	8004620 <chMtxLock>
 800467a:	4829      	ldr	r0, [pc, #164]	; (8004720 <thread11+0xb0>)
 800467c:	f7ff ffd0 	bl	8004620 <chMtxLock>
 8004680:	2320      	movs	r3, #32
 8004682:	f383 8811 	msr	BASEPRI, r3
 8004686:	4c27      	ldr	r4, [pc, #156]	; (8004724 <thread11+0xb4>)
 8004688:	f7fd fdda 	bl	8002240 <_stats_start_measure_crit_thd>
 800468c:	f7fd fec8 	bl	8002420 <_dbg_check_lock>
 8004690:	f7fc f966 	bl	8000960 <chDbgCheckClassS>
 8004694:	69a3      	ldr	r3, [r4, #24]
 8004696:	6bdd      	ldr	r5, [r3, #60]	; 0x3c
 8004698:	2d00      	cmp	r5, #0
 800469a:	d037      	beq.n	800470c <thread11+0x9c>
 800469c:	4628      	mov	r0, r5
 800469e:	f7fc fb07 	bl	8000cb0 <chMtxUnlockS>
 80046a2:	4b21      	ldr	r3, [pc, #132]	; (8004728 <thread11+0xb8>)
 80046a4:	69a2      	ldr	r2, [r4, #24]
 80046a6:	4619      	mov	r1, r3
 80046a8:	6253      	str	r3, [r2, #36]	; 0x24
 80046aa:	e003      	b.n	80046b4 <thread11+0x44>
 80046ac:	689e      	ldr	r6, [r3, #8]
 80046ae:	6890      	ldr	r0, [r2, #8]
 80046b0:	4286      	cmp	r6, r0
 80046b2:	d302      	bcc.n	80046ba <thread11+0x4a>
 80046b4:	681b      	ldr	r3, [r3, #0]
 80046b6:	428b      	cmp	r3, r1
 80046b8:	d1f8      	bne.n	80046ac <thread11+0x3c>
 80046ba:	6859      	ldr	r1, [r3, #4]
 80046bc:	2007      	movs	r0, #7
 80046be:	e9c2 3100 	strd	r3, r1, [r2]
 80046c2:	600a      	str	r2, [r1, #0]
 80046c4:	f04f 31ff 	mov.w	r1, #4294967295	; 0xffffffff
 80046c8:	605a      	str	r2, [r3, #4]
 80046ca:	f7fd fce9 	bl	80020a0 <chSchGoSleepTimeoutS>
 80046ce:	3001      	adds	r0, #1
 80046d0:	d002      	beq.n	80046d8 <thread11+0x68>
 80046d2:	4628      	mov	r0, r5
 80046d4:	f7fd fc3c 	bl	8001f50 <chMtxLockS>
 80046d8:	f7fd fdc2 	bl	8002260 <_dbg_check_unlock>
 80046dc:	f7fd fda8 	bl	8002230 <_stats_stop_measure_crit_thd>
 80046e0:	6823      	ldr	r3, [r4, #0]
 80046e2:	42a3      	cmp	r3, r4
 80046e4:	d004      	beq.n	80046f0 <thread11+0x80>
 80046e6:	69a2      	ldr	r2, [r4, #24]
 80046e8:	689b      	ldr	r3, [r3, #8]
 80046ea:	6892      	ldr	r2, [r2, #8]
 80046ec:	429a      	cmp	r2, r3
 80046ee:	d311      	bcc.n	8004714 <thread11+0xa4>
 80046f0:	2300      	movs	r3, #0
 80046f2:	f383 8811 	msr	BASEPRI, r3
 80046f6:	7838      	ldrb	r0, [r7, #0]
 80046f8:	f7fe fe4a 	bl	8003390 <test_emit_token>
 80046fc:	4808      	ldr	r0, [pc, #32]	; (8004720 <thread11+0xb0>)
 80046fe:	f7ff ff27 	bl	8004550 <chMtxUnlock>
 8004702:	4806      	ldr	r0, [pc, #24]	; (800471c <thread11+0xac>)
 8004704:	e8bd 40f8 	ldmia.w	sp!, {r3, r4, r5, r6, r7, lr}
 8004708:	f7ff bf22 	b.w	8004550 <chMtxUnlock>
 800470c:	b672      	cpsid	i
 800470e:	4b07      	ldr	r3, [pc, #28]	; (800472c <thread11+0xbc>)
 8004710:	62e3      	str	r3, [r4, #44]	; 0x2c
 8004712:	e7fe      	b.n	8004712 <thread11+0xa2>
 8004714:	b672      	cpsid	i
 8004716:	4b06      	ldr	r3, [pc, #24]	; (8004730 <thread11+0xc0>)
 8004718:	62e3      	str	r3, [r4, #44]	; 0x2c
 800471a:	e7fe      	b.n	800471a <thread11+0xaa>
 800471c:	20000c68 	.word	0x20000c68
 8004720:	20000c58 	.word	0x20000c58
 8004724:	20001558 	.word	0x20001558
 8004728:	20000c04 	.word	0x20000c04
 800472c:	0800a0c0 	.word	0x0800a0c0
 8004730:	08009dc0 	.word	0x08009dc0
	...

08004740 <thread10>:
 8004740:	b5f8      	push	{r3, r4, r5, r6, r7, lr}
 8004742:	4607      	mov	r7, r0
 8004744:	4823      	ldr	r0, [pc, #140]	; (80047d4 <thread10+0x94>)
 8004746:	f7ff ff6b 	bl	8004620 <chMtxLock>
 800474a:	2320      	movs	r3, #32
 800474c:	f383 8811 	msr	BASEPRI, r3
 8004750:	4d21      	ldr	r5, [pc, #132]	; (80047d8 <thread10+0x98>)
 8004752:	f7fd fd75 	bl	8002240 <_stats_start_measure_crit_thd>
 8004756:	f7fd fe63 	bl	8002420 <_dbg_check_lock>
 800475a:	69ac      	ldr	r4, [r5, #24]
 800475c:	f7fc f900 	bl	8000960 <chDbgCheckClassS>
 8004760:	6be6      	ldr	r6, [r4, #60]	; 0x3c
 8004762:	b37e      	cbz	r6, 80047c4 <thread10+0x84>
 8004764:	4630      	mov	r0, r6
 8004766:	f7fc faa3 	bl	8000cb0 <chMtxUnlockS>
 800476a:	4a1c      	ldr	r2, [pc, #112]	; (80047dc <thread10+0x9c>)
 800476c:	6262      	str	r2, [r4, #36]	; 0x24
 800476e:	4613      	mov	r3, r2
 8004770:	e003      	b.n	800477a <thread10+0x3a>
 8004772:	6898      	ldr	r0, [r3, #8]
 8004774:	68a1      	ldr	r1, [r4, #8]
 8004776:	4288      	cmp	r0, r1
 8004778:	d302      	bcc.n	8004780 <thread10+0x40>
 800477a:	681b      	ldr	r3, [r3, #0]
 800477c:	4293      	cmp	r3, r2
 800477e:	d1f8      	bne.n	8004772 <thread10+0x32>
 8004780:	685a      	ldr	r2, [r3, #4]
 8004782:	2007      	movs	r0, #7
 8004784:	e9c4 3200 	strd	r3, r2, [r4]
 8004788:	6014      	str	r4, [r2, #0]
 800478a:	605c      	str	r4, [r3, #4]
 800478c:	f7fd fbb0 	bl	8001ef0 <chSchGoSleepS>
 8004790:	4630      	mov	r0, r6
 8004792:	f7fd fbdd 	bl	8001f50 <chMtxLockS>
 8004796:	f7fd fd63 	bl	8002260 <_dbg_check_unlock>
 800479a:	f7fd fd49 	bl	8002230 <_stats_stop_measure_crit_thd>
 800479e:	682b      	ldr	r3, [r5, #0]
 80047a0:	42ab      	cmp	r3, r5
 80047a2:	d004      	beq.n	80047ae <thread10+0x6e>
 80047a4:	69aa      	ldr	r2, [r5, #24]
 80047a6:	689b      	ldr	r3, [r3, #8]
 80047a8:	6892      	ldr	r2, [r2, #8]
 80047aa:	429a      	cmp	r2, r3
 80047ac:	d30e      	bcc.n	80047cc <thread10+0x8c>
 80047ae:	2300      	movs	r3, #0
 80047b0:	f383 8811 	msr	BASEPRI, r3
 80047b4:	7838      	ldrb	r0, [r7, #0]
 80047b6:	f7fe fdeb 	bl	8003390 <test_emit_token>
 80047ba:	4806      	ldr	r0, [pc, #24]	; (80047d4 <thread10+0x94>)
 80047bc:	e8bd 40f8 	ldmia.w	sp!, {r3, r4, r5, r6, r7, lr}
 80047c0:	f7ff bec6 	b.w	8004550 <chMtxUnlock>
 80047c4:	b672      	cpsid	i
 80047c6:	4b06      	ldr	r3, [pc, #24]	; (80047e0 <thread10+0xa0>)
 80047c8:	62eb      	str	r3, [r5, #44]	; 0x2c
 80047ca:	e7fe      	b.n	80047ca <thread10+0x8a>
 80047cc:	b672      	cpsid	i
 80047ce:	4b05      	ldr	r3, [pc, #20]	; (80047e4 <thread10+0xa4>)
 80047d0:	62eb      	str	r3, [r5, #44]	; 0x2c
 80047d2:	e7fe      	b.n	80047d2 <thread10+0x92>
 80047d4:	20000c58 	.word	0x20000c58
 80047d8:	20001558 	.word	0x20001558
 80047dc:	20000c04 	.word	0x20000c04
 80047e0:	0800a020 	.word	0x0800a020
 80047e4:	08009dc0 	.word	0x08009dc0
	...

080047f0 <thread12>:
 80047f0:	b538      	push	{r3, r4, r5, lr}
 80047f2:	4c06      	ldr	r4, [pc, #24]	; (800480c <thread12+0x1c>)
 80047f4:	4605      	mov	r5, r0
 80047f6:	4620      	mov	r0, r4
 80047f8:	f7ff ff12 	bl	8004620 <chMtxLock>
 80047fc:	7828      	ldrb	r0, [r5, #0]
 80047fe:	f7fe fdc7 	bl	8003390 <test_emit_token>
 8004802:	4620      	mov	r0, r4
 8004804:	e8bd 4038 	ldmia.w	sp!, {r3, r4, r5, lr}
 8004808:	f7ff bea2 	b.w	8004550 <chMtxUnlock>
 800480c:	20000c68 	.word	0x20000c68

08004810 <mtx5_execute>:
 8004810:	b570      	push	{r4, r5, r6, lr}
 8004812:	4c33      	ldr	r4, [pc, #204]	; (80048e0 <mtx5_execute+0xd0>)
 8004814:	69a3      	ldr	r3, [r4, #24]
 8004816:	689e      	ldr	r6, [r3, #8]
 8004818:	f7fd fec2 	bl	80025a0 <chMtxTryLock.constprop.65>
 800481c:	4601      	mov	r1, r0
 800481e:	2001      	movs	r0, #1
 8004820:	f7fb fe6e 	bl	8000500 <_test_assert>
 8004824:	b100      	cbz	r0, 8004828 <mtx5_execute+0x18>
 8004826:	bd70      	pop	{r4, r5, r6, pc}
 8004828:	f7fd feba 	bl	80025a0 <chMtxTryLock.constprop.65>
 800482c:	f080 0101 	eor.w	r1, r0, #1
 8004830:	b2c9      	uxtb	r1, r1
 8004832:	2002      	movs	r0, #2
 8004834:	f7fb fe64 	bl	8000500 <_test_assert>
 8004838:	2800      	cmp	r0, #0
 800483a:	d1f4      	bne.n	8004826 <mtx5_execute+0x16>
 800483c:	2320      	movs	r3, #32
 800483e:	f383 8811 	msr	BASEPRI, r3
 8004842:	f7fd fcfd 	bl	8002240 <_stats_start_measure_crit_thd>
 8004846:	f7fd fdeb 	bl	8002420 <_dbg_check_lock>
 800484a:	4826      	ldr	r0, [pc, #152]	; (80048e4 <mtx5_execute+0xd4>)
 800484c:	f7fc fa30 	bl	8000cb0 <chMtxUnlockS>
 8004850:	f7fd fd06 	bl	8002260 <_dbg_check_unlock>
 8004854:	f7fd fcec 	bl	8002230 <_stats_stop_measure_crit_thd>
 8004858:	6823      	ldr	r3, [r4, #0]
 800485a:	42a3      	cmp	r3, r4
 800485c:	d004      	beq.n	8004868 <mtx5_execute+0x58>
 800485e:	69a2      	ldr	r2, [r4, #24]
 8004860:	689b      	ldr	r3, [r3, #8]
 8004862:	6892      	ldr	r2, [r2, #8]
 8004864:	429a      	cmp	r2, r3
 8004866:	d337      	bcc.n	80048d8 <mtx5_execute+0xc8>
 8004868:	2300      	movs	r3, #0
 800486a:	f383 8811 	msr	BASEPRI, r3
 800486e:	4d1d      	ldr	r5, [pc, #116]	; (80048e4 <mtx5_execute+0xd4>)
 8004870:	6829      	ldr	r1, [r5, #0]
 8004872:	1b49      	subs	r1, r1, r5
 8004874:	fab1 f181 	clz	r1, r1
 8004878:	2003      	movs	r0, #3
 800487a:	0949      	lsrs	r1, r1, #5
 800487c:	f7fb fe40 	bl	8000500 <_test_assert>
 8004880:	2800      	cmp	r0, #0
 8004882:	d1d0      	bne.n	8004826 <mtx5_execute+0x16>
 8004884:	68a9      	ldr	r1, [r5, #8]
 8004886:	fab1 f181 	clz	r1, r1
 800488a:	0949      	lsrs	r1, r1, #5
 800488c:	2004      	movs	r0, #4
 800488e:	f7fb fe37 	bl	8000500 <_test_assert>
 8004892:	2800      	cmp	r0, #0
 8004894:	d1c7      	bne.n	8004826 <mtx5_execute+0x16>
 8004896:	69a3      	ldr	r3, [r4, #24]
 8004898:	6899      	ldr	r1, [r3, #8]
 800489a:	1b8a      	subs	r2, r1, r6
 800489c:	4251      	negs	r1, r2
 800489e:	4151      	adcs	r1, r2
 80048a0:	2005      	movs	r0, #5
 80048a2:	f7fb fe2d 	bl	8000500 <_test_assert>
 80048a6:	2800      	cmp	r0, #0
 80048a8:	d1bd      	bne.n	8004826 <mtx5_execute+0x16>
 80048aa:	4628      	mov	r0, r5
 80048ac:	f7ff feb8 	bl	8004620 <chMtxLock>
 80048b0:	f7ff fe06 	bl	80044c0 <chMtxUnlockAll>
 80048b4:	6829      	ldr	r1, [r5, #0]
 80048b6:	1b4b      	subs	r3, r1, r5
 80048b8:	4259      	negs	r1, r3
 80048ba:	4159      	adcs	r1, r3
 80048bc:	2006      	movs	r0, #6
 80048be:	f7fb fe1f 	bl	8000500 <_test_assert>
 80048c2:	2800      	cmp	r0, #0
 80048c4:	d1af      	bne.n	8004826 <mtx5_execute+0x16>
 80048c6:	68a9      	ldr	r1, [r5, #8]
 80048c8:	fab1 f181 	clz	r1, r1
 80048cc:	0949      	lsrs	r1, r1, #5
 80048ce:	2007      	movs	r0, #7
 80048d0:	e8bd 4070 	ldmia.w	sp!, {r4, r5, r6, lr}
 80048d4:	f7fb be14 	b.w	8000500 <_test_assert>
 80048d8:	b672      	cpsid	i
 80048da:	4b03      	ldr	r3, [pc, #12]	; (80048e8 <mtx5_execute+0xd8>)
 80048dc:	62e3      	str	r3, [r4, #44]	; 0x2c
 80048de:	e7fe      	b.n	80048de <mtx5_execute+0xce>
 80048e0:	20001558 	.word	0x20001558
 80048e4:	20000c58 	.word	0x20000c58
 80048e8:	08009e70 	.word	0x08009e70
 80048ec:	00000000 	.word	0x00000000

080048f0 <thread1.lto_priv.153>:
 80048f0:	b538      	push	{r3, r4, r5, lr}
 80048f2:	4c06      	ldr	r4, [pc, #24]	; (800490c <thread1.lto_priv.153+0x1c>)
 80048f4:	4605      	mov	r5, r0
 80048f6:	4620      	mov	r0, r4
 80048f8:	f7ff fe92 	bl	8004620 <chMtxLock>
 80048fc:	7828      	ldrb	r0, [r5, #0]
 80048fe:	f7fe fd47 	bl	8003390 <test_emit_token>
 8004902:	4620      	mov	r0, r4
 8004904:	e8bd 4038 	ldmia.w	sp!, {r3, r4, r5, lr}
 8004908:	f7ff be22 	b.w	8004550 <chMtxUnlock>
 800490c:	20000c58 	.word	0x20000c58

08004910 <chHeapStatus>:
 8004910:	b570      	push	{r4, r5, r6, lr}
 8004912:	4c11      	ldr	r4, [pc, #68]	; (8004958 <chHeapStatus+0x48>)
 8004914:	2800      	cmp	r0, #0
 8004916:	bf18      	it	ne
 8004918:	4604      	movne	r4, r0
 800491a:	f104 0510 	add.w	r5, r4, #16
 800491e:	4628      	mov	r0, r5
 8004920:	460e      	mov	r6, r1
 8004922:	f7ff fe7d 	bl	8004620 <chMtxLock>
 8004926:	68a3      	ldr	r3, [r4, #8]
 8004928:	b16b      	cbz	r3, 8004946 <chHeapStatus+0x36>
 800492a:	2200      	movs	r2, #0
 800492c:	4614      	mov	r4, r2
 800492e:	e9d3 3000 	ldrd	r3, r0, [r3]
 8004932:	3401      	adds	r4, #1
 8004934:	4402      	add	r2, r0
 8004936:	2b00      	cmp	r3, #0
 8004938:	d1f9      	bne.n	800492e <chHeapStatus+0x1e>
 800493a:	4628      	mov	r0, r5
 800493c:	6032      	str	r2, [r6, #0]
 800493e:	f7ff fe07 	bl	8004550 <chMtxUnlock>
 8004942:	4620      	mov	r0, r4
 8004944:	bd70      	pop	{r4, r5, r6, pc}
 8004946:	461a      	mov	r2, r3
 8004948:	461c      	mov	r4, r3
 800494a:	4628      	mov	r0, r5
 800494c:	6032      	str	r2, [r6, #0]
 800494e:	f7ff fdff 	bl	8004550 <chMtxUnlock>
 8004952:	4620      	mov	r0, r4
 8004954:	bd70      	pop	{r4, r5, r6, pc}
 8004956:	bf00      	nop
 8004958:	20001b38 	.word	0x20001b38
 800495c:	00000000 	.word	0x00000000

08004960 <cmd_mem>:
 8004960:	b530      	push	{r4, r5, lr}
 8004962:	2900      	cmp	r1, #0
 8004964:	b083      	sub	sp, #12
 8004966:	dd04      	ble.n	8004972 <cmd_mem+0x12>
 8004968:	490f      	ldr	r1, [pc, #60]	; (80049a8 <cmd_mem+0x48>)
 800496a:	f7fc ff29 	bl	80017c0 <chprintf.lto_priv.148>
 800496e:	b003      	add	sp, #12
 8004970:	bd30      	pop	{r4, r5, pc}
 8004972:	4604      	mov	r4, r0
 8004974:	a901      	add	r1, sp, #4
 8004976:	2000      	movs	r0, #0
 8004978:	f7ff ffca 	bl	8004910 <chHeapStatus>
 800497c:	4a0b      	ldr	r2, [pc, #44]	; (80049ac <cmd_mem+0x4c>)
 800497e:	4b0c      	ldr	r3, [pc, #48]	; (80049b0 <cmd_mem+0x50>)
 8004980:	6812      	ldr	r2, [r2, #0]
 8004982:	681b      	ldr	r3, [r3, #0]
 8004984:	490b      	ldr	r1, [pc, #44]	; (80049b4 <cmd_mem+0x54>)
 8004986:	1ad2      	subs	r2, r2, r3
 8004988:	4605      	mov	r5, r0
 800498a:	4620      	mov	r0, r4
 800498c:	f7fc ff18 	bl	80017c0 <chprintf.lto_priv.148>
 8004990:	462a      	mov	r2, r5
 8004992:	4909      	ldr	r1, [pc, #36]	; (80049b8 <cmd_mem+0x58>)
 8004994:	4620      	mov	r0, r4
 8004996:	f7fc ff13 	bl	80017c0 <chprintf.lto_priv.148>
 800499a:	4620      	mov	r0, r4
 800499c:	9a01      	ldr	r2, [sp, #4]
 800499e:	4907      	ldr	r1, [pc, #28]	; (80049bc <cmd_mem+0x5c>)
 80049a0:	f7fc ff0e 	bl	80017c0 <chprintf.lto_priv.148>
 80049a4:	b003      	add	sp, #12
 80049a6:	bd30      	pop	{r4, r5, pc}
 80049a8:	0800a650 	.word	0x0800a650
 80049ac:	20001b58 	.word	0x20001b58
 80049b0:	20001c24 	.word	0x20001c24
 80049b4:	0800a660 	.word	0x0800a660
 80049b8:	0800a680 	.word	0x0800a680
 80049bc:	0800a698 	.word	0x0800a698

080049c0 <chHeapFree>:
 80049c0:	b310      	cbz	r0, 8004a08 <chHeapFree+0x48>
 80049c2:	b570      	push	{r4, r5, r6, lr}
 80049c4:	f850 5c08 	ldr.w	r5, [r0, #-8]
 80049c8:	f105 0610 	add.w	r6, r5, #16
 80049cc:	4604      	mov	r4, r0
 80049ce:	3508      	adds	r5, #8
 80049d0:	4630      	mov	r0, r6
 80049d2:	f7ff fe25 	bl	8004620 <chMtxLock>
 80049d6:	f1a4 0108 	sub.w	r1, r4, #8
 80049da:	462b      	mov	r3, r5
 80049dc:	428b      	cmp	r3, r1
 80049de:	d804      	bhi.n	80049ea <chHeapFree+0x2a>
 80049e0:	685a      	ldr	r2, [r3, #4]
 80049e2:	3208      	adds	r2, #8
 80049e4:	441a      	add	r2, r3
 80049e6:	4291      	cmp	r1, r2
 80049e8:	d309      	bcc.n	80049fe <chHeapFree+0x3e>
 80049ea:	42ab      	cmp	r3, r5
 80049ec:	681a      	ldr	r2, [r3, #0]
 80049ee:	d001      	beq.n	80049f4 <chHeapFree+0x34>
 80049f0:	428b      	cmp	r3, r1
 80049f2:	d202      	bcs.n	80049fa <chHeapFree+0x3a>
 80049f4:	b16a      	cbz	r2, 8004a12 <chHeapFree+0x52>
 80049f6:	4291      	cmp	r1, r2
 80049f8:	d30b      	bcc.n	8004a12 <chHeapFree+0x52>
 80049fa:	4613      	mov	r3, r2
 80049fc:	e7ee      	b.n	80049dc <chHeapFree+0x1c>
 80049fe:	b672      	cpsid	i
 8004a00:	4b15      	ldr	r3, [pc, #84]	; (8004a58 <chHeapFree+0x98>)
 8004a02:	4a16      	ldr	r2, [pc, #88]	; (8004a5c <chHeapFree+0x9c>)
 8004a04:	62da      	str	r2, [r3, #44]	; 0x2c
 8004a06:	e7fe      	b.n	8004a06 <chHeapFree+0x46>
 8004a08:	b672      	cpsid	i
 8004a0a:	4b13      	ldr	r3, [pc, #76]	; (8004a58 <chHeapFree+0x98>)
 8004a0c:	4a13      	ldr	r2, [pc, #76]	; (8004a5c <chHeapFree+0x9c>)
 8004a0e:	62da      	str	r2, [r3, #44]	; 0x2c
 8004a10:	e7fe      	b.n	8004a10 <chHeapFree+0x50>
 8004a12:	f844 2c08 	str.w	r2, [r4, #-8]
 8004a16:	f854 2c04 	ldr.w	r2, [r4, #-4]
 8004a1a:	6019      	str	r1, [r3, #0]
 8004a1c:	f854 5c08 	ldr.w	r5, [r4, #-8]
 8004a20:	18a0      	adds	r0, r4, r2
 8004a22:	42a8      	cmp	r0, r5
 8004a24:	d107      	bne.n	8004a36 <chHeapFree+0x76>
 8004a26:	6840      	ldr	r0, [r0, #4]
 8004a28:	58a5      	ldr	r5, [r4, r2]
 8004a2a:	f844 5c08 	str.w	r5, [r4, #-8]
 8004a2e:	3208      	adds	r2, #8
 8004a30:	4402      	add	r2, r0
 8004a32:	f844 2c04 	str.w	r2, [r4, #-4]
 8004a36:	6858      	ldr	r0, [r3, #4]
 8004a38:	f100 0208 	add.w	r2, r0, #8
 8004a3c:	441a      	add	r2, r3
 8004a3e:	4291      	cmp	r1, r2
 8004a40:	d105      	bne.n	8004a4e <chHeapFree+0x8e>
 8004a42:	e954 1202 	ldrd	r1, r2, [r4, #-8]
 8004a46:	3208      	adds	r2, #8
 8004a48:	4402      	add	r2, r0
 8004a4a:	6019      	str	r1, [r3, #0]
 8004a4c:	605a      	str	r2, [r3, #4]
 8004a4e:	4630      	mov	r0, r6
 8004a50:	e8bd 4070 	ldmia.w	sp!, {r4, r5, r6, lr}
 8004a54:	f7ff bd7c 	b.w	8004550 <chMtxUnlock>
 8004a58:	20001558 	.word	0x20001558
 8004a5c:	08009ff0 	.word	0x08009ff0

08004a60 <chHeapAlloc>:
 8004a60:	b5f8      	push	{r3, r4, r5, r6, r7, lr}
 8004a62:	4e20      	ldr	r6, [pc, #128]	; (8004ae4 <chHeapAlloc+0x84>)
 8004a64:	2800      	cmp	r0, #0
 8004a66:	bf18      	it	ne
 8004a68:	4606      	movne	r6, r0
 8004a6a:	f106 0710 	add.w	r7, r6, #16
 8004a6e:	3107      	adds	r1, #7
 8004a70:	4638      	mov	r0, r7
 8004a72:	f021 0507 	bic.w	r5, r1, #7
 8004a76:	f106 0408 	add.w	r4, r6, #8
 8004a7a:	f7ff fdd1 	bl	8004620 <chMtxLock>
 8004a7e:	e003      	b.n	8004a88 <chHeapAlloc+0x28>
 8004a80:	6843      	ldr	r3, [r0, #4]
 8004a82:	42ab      	cmp	r3, r5
 8004a84:	d212      	bcs.n	8004aac <chHeapAlloc+0x4c>
 8004a86:	4604      	mov	r4, r0
 8004a88:	6820      	ldr	r0, [r4, #0]
 8004a8a:	2800      	cmp	r0, #0
 8004a8c:	d1f8      	bne.n	8004a80 <chHeapAlloc+0x20>
 8004a8e:	4638      	mov	r0, r7
 8004a90:	f7ff fd5e 	bl	8004550 <chMtxUnlock>
 8004a94:	6833      	ldr	r3, [r6, #0]
 8004a96:	b313      	cbz	r3, 8004ade <chHeapAlloc+0x7e>
 8004a98:	f105 0008 	add.w	r0, r5, #8
 8004a9c:	4798      	blx	r3
 8004a9e:	b1f0      	cbz	r0, 8004ade <chHeapAlloc+0x7e>
 8004aa0:	e9c0 6500 	strd	r6, r5, [r0]
 8004aa4:	f100 0408 	add.w	r4, r0, #8
 8004aa8:	4620      	mov	r0, r4
 8004aaa:	bdf8      	pop	{r3, r4, r5, r6, r7, pc}
 8004aac:	f105 0208 	add.w	r2, r5, #8
 8004ab0:	4293      	cmp	r3, r2
 8004ab2:	6801      	ldr	r1, [r0, #0]
 8004ab4:	d208      	bcs.n	8004ac8 <chHeapAlloc+0x68>
 8004ab6:	6021      	str	r1, [r4, #0]
 8004ab8:	4604      	mov	r4, r0
 8004aba:	4638      	mov	r0, r7
 8004abc:	f844 6b08 	str.w	r6, [r4], #8
 8004ac0:	f7ff fd46 	bl	8004550 <chMtxUnlock>
 8004ac4:	4620      	mov	r0, r4
 8004ac6:	bdf8      	pop	{r3, r4, r5, r6, r7, pc}
 8004ac8:	eb00 0c02 	add.w	ip, r0, r2
 8004acc:	1b5b      	subs	r3, r3, r5
 8004ace:	3b08      	subs	r3, #8
 8004ad0:	5081      	str	r1, [r0, r2]
 8004ad2:	f8cc 3004 	str.w	r3, [ip, #4]
 8004ad6:	f8c4 c000 	str.w	ip, [r4]
 8004ada:	6045      	str	r5, [r0, #4]
 8004adc:	e7ec      	b.n	8004ab8 <chHeapAlloc+0x58>
 8004ade:	2400      	movs	r4, #0
 8004ae0:	e7e2      	b.n	8004aa8 <chHeapAlloc+0x48>
 8004ae2:	bf00      	nop
 8004ae4:	20001b38 	.word	0x20001b38
	...

08004af0 <heap1_execute>:
 8004af0:	b570      	push	{r4, r5, r6, lr}
 8004af2:	b082      	sub	sp, #8
 8004af4:	4669      	mov	r1, sp
 8004af6:	2000      	movs	r0, #0
 8004af8:	f7ff ff0a 	bl	8004910 <chHeapStatus>
 8004afc:	2110      	movs	r1, #16
 8004afe:	2000      	movs	r0, #0
 8004b00:	f7ff ffae 	bl	8004a60 <chHeapAlloc>
 8004b04:	1c01      	adds	r1, r0, #0
 8004b06:	4605      	mov	r5, r0
 8004b08:	bf18      	it	ne
 8004b0a:	2101      	movne	r1, #1
 8004b0c:	2001      	movs	r0, #1
 8004b0e:	f7fb fcf7 	bl	8000500 <_test_assert>
 8004b12:	b108      	cbz	r0, 8004b18 <heap1_execute+0x28>
 8004b14:	b002      	add	sp, #8
 8004b16:	bd70      	pop	{r4, r5, r6, pc}
 8004b18:	4604      	mov	r4, r0
 8004b1a:	4628      	mov	r0, r5
 8004b1c:	f7ff ff50 	bl	80049c0 <chHeapFree>
 8004b20:	f06f 01ff 	mvn.w	r1, #255	; 0xff
 8004b24:	4620      	mov	r0, r4
 8004b26:	f7ff ff9b 	bl	8004a60 <chHeapAlloc>
 8004b2a:	fab0 f180 	clz	r1, r0
 8004b2e:	0949      	lsrs	r1, r1, #5
 8004b30:	2002      	movs	r0, #2
 8004b32:	f7fb fce5 	bl	8000500 <_test_assert>
 8004b36:	2800      	cmp	r0, #0
 8004b38:	d1ec      	bne.n	8004b14 <heap1_execute+0x24>
 8004b3a:	4669      	mov	r1, sp
 8004b3c:	487c      	ldr	r0, [pc, #496]	; (8004d30 <heap1_execute+0x240>)
 8004b3e:	f7ff fee7 	bl	8004910 <chHeapStatus>
 8004b42:	2110      	movs	r1, #16
 8004b44:	487a      	ldr	r0, [pc, #488]	; (8004d30 <heap1_execute+0x240>)
 8004b46:	f7ff ff8b 	bl	8004a60 <chHeapAlloc>
 8004b4a:	2110      	movs	r1, #16
 8004b4c:	4606      	mov	r6, r0
 8004b4e:	4878      	ldr	r0, [pc, #480]	; (8004d30 <heap1_execute+0x240>)
 8004b50:	f7ff ff86 	bl	8004a60 <chHeapAlloc>
 8004b54:	2110      	movs	r1, #16
 8004b56:	4605      	mov	r5, r0
 8004b58:	4875      	ldr	r0, [pc, #468]	; (8004d30 <heap1_execute+0x240>)
 8004b5a:	f7ff ff81 	bl	8004a60 <chHeapAlloc>
 8004b5e:	4604      	mov	r4, r0
 8004b60:	4630      	mov	r0, r6
 8004b62:	f7ff ff2d 	bl	80049c0 <chHeapFree>
 8004b66:	4628      	mov	r0, r5
 8004b68:	f7ff ff2a 	bl	80049c0 <chHeapFree>
 8004b6c:	4620      	mov	r0, r4
 8004b6e:	f7ff ff27 	bl	80049c0 <chHeapFree>
 8004b72:	a901      	add	r1, sp, #4
 8004b74:	486e      	ldr	r0, [pc, #440]	; (8004d30 <heap1_execute+0x240>)
 8004b76:	f7ff fecb 	bl	8004910 <chHeapStatus>
 8004b7a:	f1a0 0101 	sub.w	r1, r0, #1
 8004b7e:	fab1 f181 	clz	r1, r1
 8004b82:	0949      	lsrs	r1, r1, #5
 8004b84:	2003      	movs	r0, #3
 8004b86:	f7fb fcbb 	bl	8000500 <_test_assert>
 8004b8a:	2800      	cmp	r0, #0
 8004b8c:	d1c2      	bne.n	8004b14 <heap1_execute+0x24>
 8004b8e:	2110      	movs	r1, #16
 8004b90:	4867      	ldr	r0, [pc, #412]	; (8004d30 <heap1_execute+0x240>)
 8004b92:	f7ff ff65 	bl	8004a60 <chHeapAlloc>
 8004b96:	2110      	movs	r1, #16
 8004b98:	4604      	mov	r4, r0
 8004b9a:	4865      	ldr	r0, [pc, #404]	; (8004d30 <heap1_execute+0x240>)
 8004b9c:	f7ff ff60 	bl	8004a60 <chHeapAlloc>
 8004ba0:	2110      	movs	r1, #16
 8004ba2:	4605      	mov	r5, r0
 8004ba4:	4862      	ldr	r0, [pc, #392]	; (8004d30 <heap1_execute+0x240>)
 8004ba6:	f7ff ff5b 	bl	8004a60 <chHeapAlloc>
 8004baa:	f7ff ff09 	bl	80049c0 <chHeapFree>
 8004bae:	4628      	mov	r0, r5
 8004bb0:	f7ff ff06 	bl	80049c0 <chHeapFree>
 8004bb4:	4620      	mov	r0, r4
 8004bb6:	f7ff ff03 	bl	80049c0 <chHeapFree>
 8004bba:	a901      	add	r1, sp, #4
 8004bbc:	485c      	ldr	r0, [pc, #368]	; (8004d30 <heap1_execute+0x240>)
 8004bbe:	f7ff fea7 	bl	8004910 <chHeapStatus>
 8004bc2:	f1a0 0101 	sub.w	r1, r0, #1
 8004bc6:	fab1 f181 	clz	r1, r1
 8004bca:	0949      	lsrs	r1, r1, #5
 8004bcc:	2004      	movs	r0, #4
 8004bce:	f7fb fc97 	bl	8000500 <_test_assert>
 8004bd2:	2800      	cmp	r0, #0
 8004bd4:	d19e      	bne.n	8004b14 <heap1_execute+0x24>
 8004bd6:	2111      	movs	r1, #17
 8004bd8:	4855      	ldr	r0, [pc, #340]	; (8004d30 <heap1_execute+0x240>)
 8004bda:	f7ff ff41 	bl	8004a60 <chHeapAlloc>
 8004bde:	2110      	movs	r1, #16
 8004be0:	4604      	mov	r4, r0
 8004be2:	4853      	ldr	r0, [pc, #332]	; (8004d30 <heap1_execute+0x240>)
 8004be4:	f7ff ff3c 	bl	8004a60 <chHeapAlloc>
 8004be8:	4605      	mov	r5, r0
 8004bea:	4620      	mov	r0, r4
 8004bec:	f7ff fee8 	bl	80049c0 <chHeapFree>
 8004bf0:	a901      	add	r1, sp, #4
 8004bf2:	484f      	ldr	r0, [pc, #316]	; (8004d30 <heap1_execute+0x240>)
 8004bf4:	f7ff fe8c 	bl	8004910 <chHeapStatus>
 8004bf8:	f1a0 0102 	sub.w	r1, r0, #2
 8004bfc:	fab1 f181 	clz	r1, r1
 8004c00:	0949      	lsrs	r1, r1, #5
 8004c02:	2005      	movs	r0, #5
 8004c04:	f7fb fc7c 	bl	8000500 <_test_assert>
 8004c08:	2800      	cmp	r0, #0
 8004c0a:	d183      	bne.n	8004b14 <heap1_execute+0x24>
 8004c0c:	2110      	movs	r1, #16
 8004c0e:	4848      	ldr	r0, [pc, #288]	; (8004d30 <heap1_execute+0x240>)
 8004c10:	f7ff ff26 	bl	8004a60 <chHeapAlloc>
 8004c14:	a901      	add	r1, sp, #4
 8004c16:	4604      	mov	r4, r0
 8004c18:	4845      	ldr	r0, [pc, #276]	; (8004d30 <heap1_execute+0x240>)
 8004c1a:	f7ff fe79 	bl	8004910 <chHeapStatus>
 8004c1e:	2801      	cmp	r0, #1
 8004c20:	f000 8083 	beq.w	8004d2a <heap1_execute+0x23a>
 8004c24:	a901      	add	r1, sp, #4
 8004c26:	4842      	ldr	r0, [pc, #264]	; (8004d30 <heap1_execute+0x240>)
 8004c28:	f7ff fe72 	bl	8004910 <chHeapStatus>
 8004c2c:	f1a0 0102 	sub.w	r1, r0, #2
 8004c30:	fab1 f181 	clz	r1, r1
 8004c34:	0949      	lsrs	r1, r1, #5
 8004c36:	2006      	movs	r0, #6
 8004c38:	f7fb fc62 	bl	8000500 <_test_assert>
 8004c3c:	2800      	cmp	r0, #0
 8004c3e:	f47f af69 	bne.w	8004b14 <heap1_execute+0x24>
 8004c42:	4628      	mov	r0, r5
 8004c44:	f7ff febc 	bl	80049c0 <chHeapFree>
 8004c48:	4620      	mov	r0, r4
 8004c4a:	f7ff feb9 	bl	80049c0 <chHeapFree>
 8004c4e:	a901      	add	r1, sp, #4
 8004c50:	4837      	ldr	r0, [pc, #220]	; (8004d30 <heap1_execute+0x240>)
 8004c52:	f7ff fe5d 	bl	8004910 <chHeapStatus>
 8004c56:	f1a0 0101 	sub.w	r1, r0, #1
 8004c5a:	fab1 f181 	clz	r1, r1
 8004c5e:	0949      	lsrs	r1, r1, #5
 8004c60:	2007      	movs	r0, #7
 8004c62:	f7fb fc4d 	bl	8000500 <_test_assert>
 8004c66:	2800      	cmp	r0, #0
 8004c68:	f47f af54 	bne.w	8004b14 <heap1_execute+0x24>
 8004c6c:	2110      	movs	r1, #16
 8004c6e:	4830      	ldr	r0, [pc, #192]	; (8004d30 <heap1_execute+0x240>)
 8004c70:	f7ff fef6 	bl	8004a60 <chHeapAlloc>
 8004c74:	2110      	movs	r1, #16
 8004c76:	4605      	mov	r5, r0
 8004c78:	482d      	ldr	r0, [pc, #180]	; (8004d30 <heap1_execute+0x240>)
 8004c7a:	f7ff fef1 	bl	8004a60 <chHeapAlloc>
 8004c7e:	4604      	mov	r4, r0
 8004c80:	4628      	mov	r0, r5
 8004c82:	f7ff fe9d 	bl	80049c0 <chHeapFree>
 8004c86:	a901      	add	r1, sp, #4
 8004c88:	4829      	ldr	r0, [pc, #164]	; (8004d30 <heap1_execute+0x240>)
 8004c8a:	f7ff fe41 	bl	8004910 <chHeapStatus>
 8004c8e:	1e85      	subs	r5, r0, #2
 8004c90:	4269      	negs	r1, r5
 8004c92:	4169      	adcs	r1, r5
 8004c94:	2008      	movs	r0, #8
 8004c96:	f7fb fc33 	bl	8000500 <_test_assert>
 8004c9a:	2800      	cmp	r0, #0
 8004c9c:	f47f af3a 	bne.w	8004b14 <heap1_execute+0x24>
 8004ca0:	2120      	movs	r1, #32
 8004ca2:	4823      	ldr	r0, [pc, #140]	; (8004d30 <heap1_execute+0x240>)
 8004ca4:	f7ff fedc 	bl	8004a60 <chHeapAlloc>
 8004ca8:	f7ff fe8a 	bl	80049c0 <chHeapFree>
 8004cac:	4620      	mov	r0, r4
 8004cae:	f7ff fe87 	bl	80049c0 <chHeapFree>
 8004cb2:	a901      	add	r1, sp, #4
 8004cb4:	481e      	ldr	r0, [pc, #120]	; (8004d30 <heap1_execute+0x240>)
 8004cb6:	f7ff fe2b 	bl	8004910 <chHeapStatus>
 8004cba:	3801      	subs	r0, #1
 8004cbc:	4241      	negs	r1, r0
 8004cbe:	4141      	adcs	r1, r0
 8004cc0:	2009      	movs	r0, #9
 8004cc2:	f7fb fc1d 	bl	8000500 <_test_assert>
 8004cc6:	2800      	cmp	r0, #0
 8004cc8:	f47f af24 	bne.w	8004b14 <heap1_execute+0x24>
 8004ccc:	a901      	add	r1, sp, #4
 8004cce:	4818      	ldr	r0, [pc, #96]	; (8004d30 <heap1_execute+0x240>)
 8004cd0:	f7ff fe1e 	bl	8004910 <chHeapStatus>
 8004cd4:	9901      	ldr	r1, [sp, #4]
 8004cd6:	4816      	ldr	r0, [pc, #88]	; (8004d30 <heap1_execute+0x240>)
 8004cd8:	f7ff fec2 	bl	8004a60 <chHeapAlloc>
 8004cdc:	a901      	add	r1, sp, #4
 8004cde:	4604      	mov	r4, r0
 8004ce0:	4813      	ldr	r0, [pc, #76]	; (8004d30 <heap1_execute+0x240>)
 8004ce2:	f7ff fe15 	bl	8004910 <chHeapStatus>
 8004ce6:	fab0 f180 	clz	r1, r0
 8004cea:	0949      	lsrs	r1, r1, #5
 8004cec:	200a      	movs	r0, #10
 8004cee:	f7fb fc07 	bl	8000500 <_test_assert>
 8004cf2:	2800      	cmp	r0, #0
 8004cf4:	f47f af0e 	bne.w	8004b14 <heap1_execute+0x24>
 8004cf8:	4620      	mov	r0, r4
 8004cfa:	f7ff fe61 	bl	80049c0 <chHeapFree>
 8004cfe:	a901      	add	r1, sp, #4
 8004d00:	480b      	ldr	r0, [pc, #44]	; (8004d30 <heap1_execute+0x240>)
 8004d02:	f7ff fe05 	bl	8004910 <chHeapStatus>
 8004d06:	1e42      	subs	r2, r0, #1
 8004d08:	4251      	negs	r1, r2
 8004d0a:	4151      	adcs	r1, r2
 8004d0c:	200b      	movs	r0, #11
 8004d0e:	f7fb fbf7 	bl	8000500 <_test_assert>
 8004d12:	2800      	cmp	r0, #0
 8004d14:	f47f aefe 	bne.w	8004b14 <heap1_execute+0x24>
 8004d18:	e9dd 3100 	ldrd	r3, r1, [sp]
 8004d1c:	1acb      	subs	r3, r1, r3
 8004d1e:	4259      	negs	r1, r3
 8004d20:	4159      	adcs	r1, r3
 8004d22:	200c      	movs	r0, #12
 8004d24:	f7fb fbec 	bl	8000500 <_test_assert>
 8004d28:	e6f4      	b.n	8004b14 <heap1_execute+0x24>
 8004d2a:	4601      	mov	r1, r0
 8004d2c:	e783      	b.n	8004c36 <heap1_execute+0x146>
 8004d2e:	bf00      	nop
 8004d30:	20002348 	.word	0x20002348
	...

08004d40 <chSemSignal>:
 8004d40:	6882      	ldr	r2, [r0, #8]
 8004d42:	2a00      	cmp	r2, #0
 8004d44:	b508      	push	{r3, lr}
 8004d46:	6803      	ldr	r3, [r0, #0]
 8004d48:	db06      	blt.n	8004d58 <chSemSignal+0x18>
 8004d4a:	4283      	cmp	r3, r0
 8004d4c:	d006      	beq.n	8004d5c <chSemSignal+0x1c>
 8004d4e:	b672      	cpsid	i
 8004d50:	4b17      	ldr	r3, [pc, #92]	; (8004db0 <chSemSignal+0x70>)
 8004d52:	4a18      	ldr	r2, [pc, #96]	; (8004db4 <chSemSignal+0x74>)
 8004d54:	62da      	str	r2, [r3, #44]	; 0x2c
 8004d56:	e7fe      	b.n	8004d56 <chSemSignal+0x16>
 8004d58:	4283      	cmp	r3, r0
 8004d5a:	d0f8      	beq.n	8004d4e <chSemSignal+0xe>
 8004d5c:	4601      	mov	r1, r0
 8004d5e:	2320      	movs	r3, #32
 8004d60:	f383 8811 	msr	BASEPRI, r3
 8004d64:	f7fd fa6c 	bl	8002240 <_stats_start_measure_crit_thd>
 8004d68:	f7fd fb5a 	bl	8002420 <_dbg_check_lock>
 8004d6c:	688b      	ldr	r3, [r1, #8]
 8004d6e:	3301      	adds	r3, #1
 8004d70:	2b00      	cmp	r3, #0
 8004d72:	608b      	str	r3, [r1, #8]
 8004d74:	dd10      	ble.n	8004d98 <chSemSignal+0x58>
 8004d76:	f7fd fa73 	bl	8002260 <_dbg_check_unlock>
 8004d7a:	f7fd fa59 	bl	8002230 <_stats_stop_measure_crit_thd>
 8004d7e:	4b0c      	ldr	r3, [pc, #48]	; (8004db0 <chSemSignal+0x70>)
 8004d80:	681a      	ldr	r2, [r3, #0]
 8004d82:	429a      	cmp	r2, r3
 8004d84:	d004      	beq.n	8004d90 <chSemSignal+0x50>
 8004d86:	6999      	ldr	r1, [r3, #24]
 8004d88:	6892      	ldr	r2, [r2, #8]
 8004d8a:	6889      	ldr	r1, [r1, #8]
 8004d8c:	4291      	cmp	r1, r2
 8004d8e:	d30b      	bcc.n	8004da8 <chSemSignal+0x68>
 8004d90:	2300      	movs	r3, #0
 8004d92:	f383 8811 	msr	BASEPRI, r3
 8004d96:	bd08      	pop	{r3, pc}
 8004d98:	6808      	ldr	r0, [r1, #0]
 8004d9a:	6803      	ldr	r3, [r0, #0]
 8004d9c:	600b      	str	r3, [r1, #0]
 8004d9e:	6059      	str	r1, [r3, #4]
 8004da0:	2100      	movs	r1, #0
 8004da2:	f7fd f86d 	bl	8001e80 <chSchWakeupS>
 8004da6:	e7e6      	b.n	8004d76 <chSemSignal+0x36>
 8004da8:	b672      	cpsid	i
 8004daa:	4a03      	ldr	r2, [pc, #12]	; (8004db8 <chSemSignal+0x78>)
 8004dac:	62da      	str	r2, [r3, #44]	; 0x2c
 8004dae:	e7fe      	b.n	8004dae <chSemSignal+0x6e>
 8004db0:	20001558 	.word	0x20001558
 8004db4:	0800a080 	.word	0x0800a080
 8004db8:	08009da0 	.word	0x08009da0
 8004dbc:	00000000 	.word	0x00000000

08004dc0 <chSemWait>:
 8004dc0:	b538      	push	{r3, r4, r5, lr}
 8004dc2:	4601      	mov	r1, r0
 8004dc4:	2320      	movs	r3, #32
 8004dc6:	f383 8811 	msr	BASEPRI, r3
 8004dca:	f7fd fa39 	bl	8002240 <_stats_start_measure_crit_thd>
 8004dce:	f7fd fb27 	bl	8002420 <_dbg_check_lock>
 8004dd2:	f7fb fdc5 	bl	8000960 <chDbgCheckClassS>
 8004dd6:	688b      	ldr	r3, [r1, #8]
 8004dd8:	680a      	ldr	r2, [r1, #0]
 8004dda:	2b00      	cmp	r3, #0
 8004ddc:	db06      	blt.n	8004dec <chSemWait+0x2c>
 8004dde:	428a      	cmp	r2, r1
 8004de0:	d006      	beq.n	8004df0 <chSemWait+0x30>
 8004de2:	b672      	cpsid	i
 8004de4:	4b16      	ldr	r3, [pc, #88]	; (8004e40 <chSemWait+0x80>)
 8004de6:	4a17      	ldr	r2, [pc, #92]	; (8004e44 <chSemWait+0x84>)
 8004de8:	62da      	str	r2, [r3, #44]	; 0x2c
 8004dea:	e7fe      	b.n	8004dea <chSemWait+0x2a>
 8004dec:	428a      	cmp	r2, r1
 8004dee:	d0f8      	beq.n	8004de2 <chSemWait+0x22>
 8004df0:	3b01      	subs	r3, #1
 8004df2:	2b00      	cmp	r3, #0
 8004df4:	608b      	str	r3, [r1, #8]
 8004df6:	4c12      	ldr	r4, [pc, #72]	; (8004e40 <chSemWait+0x80>)
 8004df8:	db11      	blt.n	8004e1e <chSemWait+0x5e>
 8004dfa:	2500      	movs	r5, #0
 8004dfc:	f7fd fa30 	bl	8002260 <_dbg_check_unlock>
 8004e00:	f7fd fa16 	bl	8002230 <_stats_stop_measure_crit_thd>
 8004e04:	6823      	ldr	r3, [r4, #0]
 8004e06:	42a3      	cmp	r3, r4
 8004e08:	d004      	beq.n	8004e14 <chSemWait+0x54>
 8004e0a:	69a2      	ldr	r2, [r4, #24]
 8004e0c:	689b      	ldr	r3, [r3, #8]
 8004e0e:	6892      	ldr	r2, [r2, #8]
 8004e10:	429a      	cmp	r2, r3
 8004e12:	d311      	bcc.n	8004e38 <chSemWait+0x78>
 8004e14:	2300      	movs	r3, #0
 8004e16:	f383 8811 	msr	BASEPRI, r3
 8004e1a:	4628      	mov	r0, r5
 8004e1c:	bd38      	pop	{r3, r4, r5, pc}
 8004e1e:	69a3      	ldr	r3, [r4, #24]
 8004e20:	6259      	str	r1, [r3, #36]	; 0x24
 8004e22:	6019      	str	r1, [r3, #0]
 8004e24:	684a      	ldr	r2, [r1, #4]
 8004e26:	605a      	str	r2, [r3, #4]
 8004e28:	2005      	movs	r0, #5
 8004e2a:	6013      	str	r3, [r2, #0]
 8004e2c:	604b      	str	r3, [r1, #4]
 8004e2e:	f7fd f85f 	bl	8001ef0 <chSchGoSleepS>
 8004e32:	69a3      	ldr	r3, [r4, #24]
 8004e34:	6a5d      	ldr	r5, [r3, #36]	; 0x24
 8004e36:	e7e1      	b.n	8004dfc <chSemWait+0x3c>
 8004e38:	b672      	cpsid	i
 8004e3a:	4b03      	ldr	r3, [pc, #12]	; (8004e48 <chSemWait+0x88>)
 8004e3c:	62e3      	str	r3, [r4, #44]	; 0x2c
 8004e3e:	e7fe      	b.n	8004e3e <chSemWait+0x7e>
 8004e40:	20001558 	.word	0x20001558
 8004e44:	08009fe0 	.word	0x08009fe0
 8004e48:	08009da0 	.word	0x08009da0
 8004e4c:	00000000 	.word	0x00000000

08004e50 <thread3.lto_priv.151>:
 8004e50:	b538      	push	{r3, r4, r5, lr}
 8004e52:	4c08      	ldr	r4, [pc, #32]	; (8004e74 <thread3.lto_priv.151+0x24>)
 8004e54:	69a3      	ldr	r3, [r4, #24]
 8004e56:	f893 3021 	ldrb.w	r3, [r3, #33]	; 0x21
 8004e5a:	075a      	lsls	r2, r3, #29
 8004e5c:	d408      	bmi.n	8004e70 <thread3.lto_priv.151+0x20>
 8004e5e:	4d06      	ldr	r5, [pc, #24]	; (8004e78 <thread3.lto_priv.151+0x28>)
 8004e60:	4628      	mov	r0, r5
 8004e62:	f7ff ffad 	bl	8004dc0 <chSemWait>
 8004e66:	69a3      	ldr	r3, [r4, #24]
 8004e68:	f893 3021 	ldrb.w	r3, [r3, #33]	; 0x21
 8004e6c:	075b      	lsls	r3, r3, #29
 8004e6e:	d5f7      	bpl.n	8004e60 <thread3.lto_priv.151+0x10>
 8004e70:	bd38      	pop	{r3, r4, r5, pc}
 8004e72:	bf00      	nop
 8004e74:	20001558 	.word	0x20001558
 8004e78:	20001c28 	.word	0x20001c28
 8004e7c:	00000000 	.word	0x00000000

08004e80 <thread3.lto_priv.150>:
 8004e80:	b510      	push	{r4, lr}
 8004e82:	4c04      	ldr	r4, [pc, #16]	; (8004e94 <thread3.lto_priv.150+0x14>)
 8004e84:	4620      	mov	r0, r4
 8004e86:	f7ff ff9b 	bl	8004dc0 <chSemWait>
 8004e8a:	4620      	mov	r0, r4
 8004e8c:	e8bd 4010 	ldmia.w	sp!, {r4, lr}
 8004e90:	f7ff bf56 	b.w	8004d40 <chSemSignal>
 8004e94:	20000cd0 	.word	0x20000cd0
	...

08004ea0 <thread1.lto_priv.152>:
 8004ea0:	b510      	push	{r4, lr}
 8004ea2:	4604      	mov	r4, r0
 8004ea4:	4803      	ldr	r0, [pc, #12]	; (8004eb4 <thread1.lto_priv.152+0x14>)
 8004ea6:	f7ff ff8b 	bl	8004dc0 <chSemWait>
 8004eaa:	7820      	ldrb	r0, [r4, #0]
 8004eac:	e8bd 4010 	ldmia.w	sp!, {r4, lr}
 8004eb0:	f7fe ba6e 	b.w	8003390 <test_emit_token>
 8004eb4:	20000cd0 	.word	0x20000cd0
	...

08004ec0 <chRegFirstThread>:
 8004ec0:	b538      	push	{r3, r4, r5, lr}
 8004ec2:	2320      	movs	r3, #32
 8004ec4:	f383 8811 	msr	BASEPRI, r3
 8004ec8:	4c0f      	ldr	r4, [pc, #60]	; (8004f08 <chRegFirstThread+0x48>)
 8004eca:	f7fd f9b9 	bl	8002240 <_stats_start_measure_crit_thd>
 8004ece:	f7fd faa7 	bl	8002420 <_dbg_check_lock>
 8004ed2:	6925      	ldr	r5, [r4, #16]
 8004ed4:	f895 3022 	ldrb.w	r3, [r5, #34]	; 0x22
 8004ed8:	3301      	adds	r3, #1
 8004eda:	f885 3022 	strb.w	r3, [r5, #34]	; 0x22
 8004ede:	f7fd f9bf 	bl	8002260 <_dbg_check_unlock>
 8004ee2:	f7fd f9a5 	bl	8002230 <_stats_stop_measure_crit_thd>
 8004ee6:	6823      	ldr	r3, [r4, #0]
 8004ee8:	42a3      	cmp	r3, r4
 8004eea:	d004      	beq.n	8004ef6 <chRegFirstThread+0x36>
 8004eec:	69a2      	ldr	r2, [r4, #24]
 8004eee:	689b      	ldr	r3, [r3, #8]
 8004ef0:	6892      	ldr	r2, [r2, #8]
 8004ef2:	429a      	cmp	r2, r3
 8004ef4:	d304      	bcc.n	8004f00 <chRegFirstThread+0x40>
 8004ef6:	2300      	movs	r3, #0
 8004ef8:	f383 8811 	msr	BASEPRI, r3
 8004efc:	4628      	mov	r0, r5
 8004efe:	bd38      	pop	{r3, r4, r5, pc}
 8004f00:	b672      	cpsid	i
 8004f02:	4b02      	ldr	r3, [pc, #8]	; (8004f0c <chRegFirstThread+0x4c>)
 8004f04:	62e3      	str	r3, [r4, #44]	; 0x2c
 8004f06:	e7fe      	b.n	8004f06 <chRegFirstThread+0x46>
 8004f08:	20001558 	.word	0x20001558
 8004f0c:	08009d90 	.word	0x08009d90

08004f10 <chThdCreateFromHeap>:
 8004f10:	e92d 41f0 	stmdb	sp!, {r4, r5, r6, r7, r8, lr}
 8004f14:	b082      	sub	sp, #8
 8004f16:	4617      	mov	r7, r2
 8004f18:	4698      	mov	r8, r3
 8004f1a:	460e      	mov	r6, r1
 8004f1c:	9d08      	ldr	r5, [sp, #32]
 8004f1e:	f7ff fd9f 	bl	8004a60 <chHeapAlloc>
 8004f22:	4604      	mov	r4, r0
 8004f24:	b3a0      	cbz	r0, 8004f90 <chThdCreateFromHeap+0x80>
 8004f26:	f100 0160 	add.w	r1, r0, #96	; 0x60
 8004f2a:	4603      	mov	r3, r0
 8004f2c:	22ff      	movs	r2, #255	; 0xff
 8004f2e:	f803 2b01 	strb.w	r2, [r3], #1
 8004f32:	4299      	cmp	r1, r3
 8004f34:	d1fb      	bne.n	8004f2e <chThdCreateFromHeap+0x1e>
 8004f36:	19a2      	adds	r2, r4, r6
 8004f38:	429a      	cmp	r2, r3
 8004f3a:	d904      	bls.n	8004f46 <chThdCreateFromHeap+0x36>
 8004f3c:	2155      	movs	r1, #85	; 0x55
 8004f3e:	f803 1b01 	strb.w	r1, [r3], #1
 8004f42:	429a      	cmp	r2, r3
 8004f44:	d1fb      	bne.n	8004f3e <chThdCreateFromHeap+0x2e>
 8004f46:	2320      	movs	r3, #32
 8004f48:	f383 8811 	msr	BASEPRI, r3
 8004f4c:	f7fd f978 	bl	8002240 <_stats_start_measure_crit_thd>
 8004f50:	f7fd fa66 	bl	8002420 <_dbg_check_lock>
 8004f54:	463a      	mov	r2, r7
 8004f56:	4643      	mov	r3, r8
 8004f58:	4631      	mov	r1, r6
 8004f5a:	4620      	mov	r0, r4
 8004f5c:	9500      	str	r5, [sp, #0]
 8004f5e:	f7fb fd7f 	bl	8000a60 <chThdCreateI>
 8004f62:	2301      	movs	r3, #1
 8004f64:	f880 3021 	strb.w	r3, [r0, #33]	; 0x21
 8004f68:	2100      	movs	r1, #0
 8004f6a:	4604      	mov	r4, r0
 8004f6c:	f7fc ff88 	bl	8001e80 <chSchWakeupS>
 8004f70:	f7fd f976 	bl	8002260 <_dbg_check_unlock>
 8004f74:	f7fd f95c 	bl	8002230 <_stats_stop_measure_crit_thd>
 8004f78:	4b09      	ldr	r3, [pc, #36]	; (8004fa0 <chThdCreateFromHeap+0x90>)
 8004f7a:	681a      	ldr	r2, [r3, #0]
 8004f7c:	429a      	cmp	r2, r3
 8004f7e:	d004      	beq.n	8004f8a <chThdCreateFromHeap+0x7a>
 8004f80:	6999      	ldr	r1, [r3, #24]
 8004f82:	6892      	ldr	r2, [r2, #8]
 8004f84:	6889      	ldr	r1, [r1, #8]
 8004f86:	4291      	cmp	r1, r2
 8004f88:	d306      	bcc.n	8004f98 <chThdCreateFromHeap+0x88>
 8004f8a:	2300      	movs	r3, #0
 8004f8c:	f383 8811 	msr	BASEPRI, r3
 8004f90:	4620      	mov	r0, r4
 8004f92:	b002      	add	sp, #8
 8004f94:	e8bd 81f0 	ldmia.w	sp!, {r4, r5, r6, r7, r8, pc}
 8004f98:	b672      	cpsid	i
 8004f9a:	4a02      	ldr	r2, [pc, #8]	; (8004fa4 <chThdCreateFromHeap+0x94>)
 8004f9c:	62da      	str	r2, [r3, #44]	; 0x2c
 8004f9e:	e7fe      	b.n	8004f9e <chThdCreateFromHeap+0x8e>
 8004fa0:	20001558 	.word	0x20001558
 8004fa4:	08009d80 	.word	0x08009d80
	...

08004fb0 <chThdRelease>:
 8004fb0:	b538      	push	{r3, r4, r5, lr}
 8004fb2:	4604      	mov	r4, r0
 8004fb4:	2320      	movs	r3, #32
 8004fb6:	f383 8811 	msr	BASEPRI, r3
 8004fba:	f7fd f941 	bl	8002240 <_stats_start_measure_crit_thd>
 8004fbe:	f7fd fa2f 	bl	8002420 <_dbg_check_lock>
 8004fc2:	f894 3022 	ldrb.w	r3, [r4, #34]	; 0x22
 8004fc6:	b1cb      	cbz	r3, 8004ffc <chThdRelease+0x4c>
 8004fc8:	3b01      	subs	r3, #1
 8004fca:	b2dd      	uxtb	r5, r3
 8004fcc:	f884 5022 	strb.w	r5, [r4, #34]	; 0x22
 8004fd0:	f7fd f946 	bl	8002260 <_dbg_check_unlock>
 8004fd4:	f7fd f92c 	bl	8002230 <_stats_stop_measure_crit_thd>
 8004fd8:	4b1b      	ldr	r3, [pc, #108]	; (8005048 <chThdRelease+0x98>)
 8004fda:	681a      	ldr	r2, [r3, #0]
 8004fdc:	429a      	cmp	r2, r3
 8004fde:	d004      	beq.n	8004fea <chThdRelease+0x3a>
 8004fe0:	6999      	ldr	r1, [r3, #24]
 8004fe2:	6892      	ldr	r2, [r2, #8]
 8004fe4:	6889      	ldr	r1, [r1, #8]
 8004fe6:	4291      	cmp	r1, r2
 8004fe8:	d30d      	bcc.n	8005006 <chThdRelease+0x56>
 8004fea:	2300      	movs	r3, #0
 8004fec:	f383 8811 	msr	BASEPRI, r3
 8004ff0:	b91d      	cbnz	r5, 8004ffa <chThdRelease+0x4a>
 8004ff2:	f894 3020 	ldrb.w	r3, [r4, #32]
 8004ff6:	2b0f      	cmp	r3, #15
 8004ff8:	d009      	beq.n	800500e <chThdRelease+0x5e>
 8004ffa:	bd38      	pop	{r3, r4, r5, pc}
 8004ffc:	b672      	cpsid	i
 8004ffe:	4b12      	ldr	r3, [pc, #72]	; (8005048 <chThdRelease+0x98>)
 8005000:	4a12      	ldr	r2, [pc, #72]	; (800504c <chThdRelease+0x9c>)
 8005002:	62da      	str	r2, [r3, #44]	; 0x2c
 8005004:	e7fe      	b.n	8005004 <chThdRelease+0x54>
 8005006:	b672      	cpsid	i
 8005008:	4a11      	ldr	r2, [pc, #68]	; (8005050 <chThdRelease+0xa0>)
 800500a:	62da      	str	r2, [r3, #44]	; 0x2c
 800500c:	e7fe      	b.n	800500c <chThdRelease+0x5c>
 800500e:	f894 3021 	ldrb.w	r3, [r4, #33]	; 0x21
 8005012:	f003 0303 	and.w	r3, r3, #3
 8005016:	2b01      	cmp	r3, #1
 8005018:	d00c      	beq.n	8005034 <chThdRelease+0x84>
 800501a:	2b02      	cmp	r3, #2
 800501c:	d1ed      	bne.n	8004ffa <chThdRelease+0x4a>
 800501e:	e9d4 2304 	ldrd	r2, r3, [r4, #16]
 8005022:	611a      	str	r2, [r3, #16]
 8005024:	6922      	ldr	r2, [r4, #16]
 8005026:	6c60      	ldr	r0, [r4, #68]	; 0x44
 8005028:	6153      	str	r3, [r2, #20]
 800502a:	4621      	mov	r1, r4
 800502c:	e8bd 4038 	ldmia.w	sp!, {r3, r4, r5, lr}
 8005030:	f7fe bd9e 	b.w	8003b70 <chPoolFree>
 8005034:	e9d4 2304 	ldrd	r2, r3, [r4, #16]
 8005038:	611a      	str	r2, [r3, #16]
 800503a:	6922      	ldr	r2, [r4, #16]
 800503c:	4620      	mov	r0, r4
 800503e:	6153      	str	r3, [r2, #20]
 8005040:	e8bd 4038 	ldmia.w	sp!, {r3, r4, r5, lr}
 8005044:	f7ff bcbc 	b.w	80049c0 <chHeapFree>
 8005048:	20001558 	.word	0x20001558
 800504c:	08009f60 	.word	0x08009f60
 8005050:	08009d80 	.word	0x08009d80
	...

08005060 <chRegNextThread>:
 8005060:	b570      	push	{r4, r5, r6, lr}
 8005062:	2320      	movs	r3, #32
 8005064:	4606      	mov	r6, r0
 8005066:	f383 8811 	msr	BASEPRI, r3
 800506a:	f7fd f8e9 	bl	8002240 <_stats_start_measure_crit_thd>
 800506e:	4c15      	ldr	r4, [pc, #84]	; (80050c4 <chRegNextThread+0x64>)
 8005070:	f7fd f9d6 	bl	8002420 <_dbg_check_lock>
 8005074:	6935      	ldr	r5, [r6, #16]
 8005076:	42a5      	cmp	r5, r4
 8005078:	d022      	beq.n	80050c0 <chRegNextThread+0x60>
 800507a:	f895 3022 	ldrb.w	r3, [r5, #34]	; 0x22
 800507e:	2bff      	cmp	r3, #255	; 0xff
 8005080:	d016      	beq.n	80050b0 <chRegNextThread+0x50>
 8005082:	3301      	adds	r3, #1
 8005084:	f885 3022 	strb.w	r3, [r5, #34]	; 0x22
 8005088:	f7fd f8ea 	bl	8002260 <_dbg_check_unlock>
 800508c:	f7fd f8d0 	bl	8002230 <_stats_stop_measure_crit_thd>
 8005090:	6823      	ldr	r3, [r4, #0]
 8005092:	42a3      	cmp	r3, r4
 8005094:	d004      	beq.n	80050a0 <chRegNextThread+0x40>
 8005096:	69a2      	ldr	r2, [r4, #24]
 8005098:	689b      	ldr	r3, [r3, #8]
 800509a:	6892      	ldr	r2, [r2, #8]
 800509c:	429a      	cmp	r2, r3
 800509e:	d30b      	bcc.n	80050b8 <chRegNextThread+0x58>
 80050a0:	2300      	movs	r3, #0
 80050a2:	f383 8811 	msr	BASEPRI, r3
 80050a6:	4630      	mov	r0, r6
 80050a8:	f7ff ff82 	bl	8004fb0 <chThdRelease>
 80050ac:	4628      	mov	r0, r5
 80050ae:	bd70      	pop	{r4, r5, r6, pc}
 80050b0:	b672      	cpsid	i
 80050b2:	4b05      	ldr	r3, [pc, #20]	; (80050c8 <chRegNextThread+0x68>)
 80050b4:	62e3      	str	r3, [r4, #44]	; 0x2c
 80050b6:	e7fe      	b.n	80050b6 <chRegNextThread+0x56>
 80050b8:	b672      	cpsid	i
 80050ba:	4b04      	ldr	r3, [pc, #16]	; (80050cc <chRegNextThread+0x6c>)
 80050bc:	62e3      	str	r3, [r4, #44]	; 0x2c
 80050be:	e7fe      	b.n	80050be <chRegNextThread+0x5e>
 80050c0:	2500      	movs	r5, #0
 80050c2:	e7e1      	b.n	8005088 <chRegNextThread+0x28>
 80050c4:	20001558 	.word	0x20001558
 80050c8:	08009f70 	.word	0x08009f70
 80050cc:	08009d90 	.word	0x08009d90

080050d0 <cmd_threads>:
 80050d0:	2900      	cmp	r1, #0
 80050d2:	dd02      	ble.n	80050da <cmd_threads+0xa>
 80050d4:	4913      	ldr	r1, [pc, #76]	; (8005124 <cmd_threads+0x54>)
 80050d6:	f7fc bb73 	b.w	80017c0 <chprintf.lto_priv.148>
 80050da:	b5f0      	push	{r4, r5, r6, r7, lr}
 80050dc:	4912      	ldr	r1, [pc, #72]	; (8005128 <cmd_threads+0x58>)
 80050de:	4f13      	ldr	r7, [pc, #76]	; (800512c <cmd_threads+0x5c>)
 80050e0:	4e13      	ldr	r6, [pc, #76]	; (8005130 <cmd_threads+0x60>)
 80050e2:	b085      	sub	sp, #20
 80050e4:	4605      	mov	r5, r0
 80050e6:	f7fc fb6b 	bl	80017c0 <chprintf.lto_priv.148>
 80050ea:	f7ff fee9 	bl	8004ec0 <chRegFirstThread>
 80050ee:	4604      	mov	r4, r0
 80050f0:	f894 2020 	ldrb.w	r2, [r4, #32]
 80050f4:	68e3      	ldr	r3, [r4, #12]
 80050f6:	f857 2022 	ldr.w	r2, [r7, r2, lsl #2]
 80050fa:	9202      	str	r2, [sp, #8]
 80050fc:	f894 2022 	ldrb.w	r2, [r4, #34]	; 0x22
 8005100:	3a01      	subs	r2, #1
 8005102:	9201      	str	r2, [sp, #4]
 8005104:	68a2      	ldr	r2, [r4, #8]
 8005106:	9200      	str	r2, [sp, #0]
 8005108:	4631      	mov	r1, r6
 800510a:	4622      	mov	r2, r4
 800510c:	4628      	mov	r0, r5
 800510e:	f7fc fb57 	bl	80017c0 <chprintf.lto_priv.148>
 8005112:	4620      	mov	r0, r4
 8005114:	f7ff ffa4 	bl	8005060 <chRegNextThread>
 8005118:	4604      	mov	r4, r0
 800511a:	2800      	cmp	r0, #0
 800511c:	d1e8      	bne.n	80050f0 <cmd_threads+0x20>
 800511e:	b005      	add	sp, #20
 8005120:	bdf0      	pop	{r4, r5, r6, r7, pc}
 8005122:	bf00      	nop
 8005124:	0800a6f0 	.word	0x0800a6f0
 8005128:	0800a704 	.word	0x0800a704
 800512c:	0800aac0 	.word	0x0800aac0
 8005130:	0800a734 	.word	0x0800a734
	...

08005140 <regfind>:
 8005140:	b538      	push	{r3, r4, r5, lr}
 8005142:	4605      	mov	r5, r0
 8005144:	f7ff febc 	bl	8004ec0 <chRegFirstThread>
 8005148:	2400      	movs	r4, #0
 800514a:	4603      	mov	r3, r0
 800514c:	4618      	mov	r0, r3
 800514e:	42ab      	cmp	r3, r5
 8005150:	bf08      	it	eq
 8005152:	f044 0401 	orreq.w	r4, r4, #1
 8005156:	f7ff ff83 	bl	8005060 <chRegNextThread>
 800515a:	4603      	mov	r3, r0
 800515c:	2800      	cmp	r0, #0
 800515e:	d1f5      	bne.n	800514c <regfind+0xc>
 8005160:	4620      	mov	r0, r4
 8005162:	bd38      	pop	{r3, r4, r5, pc}
	...

08005170 <chThdWait>:
 8005170:	2800      	cmp	r0, #0
 8005172:	d03a      	beq.n	80051ea <chThdWait+0x7a>
 8005174:	b570      	push	{r4, r5, r6, lr}
 8005176:	2320      	movs	r3, #32
 8005178:	4604      	mov	r4, r0
 800517a:	f383 8811 	msr	BASEPRI, r3
 800517e:	4d1d      	ldr	r5, [pc, #116]	; (80051f4 <chThdWait+0x84>)
 8005180:	f7fd f85e 	bl	8002240 <_stats_start_measure_crit_thd>
 8005184:	f7fd f94c 	bl	8002420 <_dbg_check_lock>
 8005188:	69ab      	ldr	r3, [r5, #24]
 800518a:	42a3      	cmp	r3, r4
 800518c:	d029      	beq.n	80051e2 <chThdWait+0x72>
 800518e:	f894 2022 	ldrb.w	r2, [r4, #34]	; 0x22
 8005192:	b312      	cbz	r2, 80051da <chThdWait+0x6a>
 8005194:	f894 2020 	ldrb.w	r2, [r4, #32]
 8005198:	2a0f      	cmp	r2, #15
 800519a:	d005      	beq.n	80051a8 <chThdWait+0x38>
 800519c:	6aa2      	ldr	r2, [r4, #40]	; 0x28
 800519e:	601a      	str	r2, [r3, #0]
 80051a0:	2009      	movs	r0, #9
 80051a2:	62a3      	str	r3, [r4, #40]	; 0x28
 80051a4:	f7fc fea4 	bl	8001ef0 <chSchGoSleepS>
 80051a8:	6a66      	ldr	r6, [r4, #36]	; 0x24
 80051aa:	f7fd f859 	bl	8002260 <_dbg_check_unlock>
 80051ae:	f7fd f83f 	bl	8002230 <_stats_stop_measure_crit_thd>
 80051b2:	682b      	ldr	r3, [r5, #0]
 80051b4:	42ab      	cmp	r3, r5
 80051b6:	d008      	beq.n	80051ca <chThdWait+0x5a>
 80051b8:	69aa      	ldr	r2, [r5, #24]
 80051ba:	689b      	ldr	r3, [r3, #8]
 80051bc:	6892      	ldr	r2, [r2, #8]
 80051be:	429a      	cmp	r2, r3
 80051c0:	d203      	bcs.n	80051ca <chThdWait+0x5a>
 80051c2:	b672      	cpsid	i
 80051c4:	4b0c      	ldr	r3, [pc, #48]	; (80051f8 <chThdWait+0x88>)
 80051c6:	62eb      	str	r3, [r5, #44]	; 0x2c
 80051c8:	e7fe      	b.n	80051c8 <chThdWait+0x58>
 80051ca:	2300      	movs	r3, #0
 80051cc:	f383 8811 	msr	BASEPRI, r3
 80051d0:	4620      	mov	r0, r4
 80051d2:	f7ff feed 	bl	8004fb0 <chThdRelease>
 80051d6:	4630      	mov	r0, r6
 80051d8:	bd70      	pop	{r4, r5, r6, pc}
 80051da:	b672      	cpsid	i
 80051dc:	4b07      	ldr	r3, [pc, #28]	; (80051fc <chThdWait+0x8c>)
 80051de:	62eb      	str	r3, [r5, #44]	; 0x2c
 80051e0:	e7fe      	b.n	80051e0 <chThdWait+0x70>
 80051e2:	b672      	cpsid	i
 80051e4:	4b05      	ldr	r3, [pc, #20]	; (80051fc <chThdWait+0x8c>)
 80051e6:	62eb      	str	r3, [r5, #44]	; 0x2c
 80051e8:	e7fe      	b.n	80051e8 <chThdWait+0x78>
 80051ea:	b672      	cpsid	i
 80051ec:	4b01      	ldr	r3, [pc, #4]	; (80051f4 <chThdWait+0x84>)
 80051ee:	4a03      	ldr	r2, [pc, #12]	; (80051fc <chThdWait+0x8c>)
 80051f0:	62da      	str	r2, [r3, #44]	; 0x2c
 80051f2:	e7fe      	b.n	80051f2 <chThdWait+0x82>
 80051f4:	20001558 	.word	0x20001558
 80051f8:	08009d70 	.word	0x08009d70
 80051fc:	0800a160 	.word	0x0800a160

08005200 <cmd_test>:
 8005200:	2900      	cmp	r1, #0
 8005202:	dd02      	ble.n	800520a <cmd_test+0xa>
 8005204:	490e      	ldr	r1, [pc, #56]	; (8005240 <cmd_test+0x40>)
 8005206:	f7fc badb 	b.w	80017c0 <chprintf.lto_priv.148>
 800520a:	b510      	push	{r4, lr}
 800520c:	4a0d      	ldr	r2, [pc, #52]	; (8005244 <cmd_test+0x44>)
 800520e:	4b0e      	ldr	r3, [pc, #56]	; (8005248 <cmd_test+0x48>)
 8005210:	6992      	ldr	r2, [r2, #24]
 8005212:	b082      	sub	sp, #8
 8005214:	4604      	mov	r4, r0
 8005216:	6892      	ldr	r2, [r2, #8]
 8005218:	9000      	str	r0, [sp, #0]
 800521a:	f44f 71f4 	mov.w	r1, #488	; 0x1e8
 800521e:	2000      	movs	r0, #0
 8005220:	f7ff fe76 	bl	8004f10 <chThdCreateFromHeap>
 8005224:	b120      	cbz	r0, 8005230 <cmd_test+0x30>
 8005226:	b002      	add	sp, #8
 8005228:	e8bd 4010 	ldmia.w	sp!, {r4, lr}
 800522c:	f7ff bfa0 	b.w	8005170 <chThdWait>
 8005230:	4906      	ldr	r1, [pc, #24]	; (800524c <cmd_test+0x4c>)
 8005232:	4620      	mov	r0, r4
 8005234:	b002      	add	sp, #8
 8005236:	e8bd 4010 	ldmia.w	sp!, {r4, lr}
 800523a:	f7fc bac1 	b.w	80017c0 <chprintf.lto_priv.148>
 800523e:	bf00      	nop
 8005240:	0800a6d0 	.word	0x0800a6d0
 8005244:	20001558 	.word	0x20001558
 8005248:	08005611 	.word	0x08005611
 800524c:	0800a6e0 	.word	0x0800a6e0

08005250 <test_wait_threads>:
 8005250:	b570      	push	{r4, r5, r6, lr}
 8005252:	4c07      	ldr	r4, [pc, #28]	; (8005270 <test_wait_threads+0x20>)
 8005254:	2600      	movs	r6, #0
 8005256:	f104 0514 	add.w	r5, r4, #20
 800525a:	f854 0b04 	ldr.w	r0, [r4], #4
 800525e:	b118      	cbz	r0, 8005268 <test_wait_threads+0x18>
 8005260:	f7ff ff86 	bl	8005170 <chThdWait>
 8005264:	f844 6c04 	str.w	r6, [r4, #-4]
 8005268:	42ac      	cmp	r4, r5
 800526a:	d1f6      	bne.n	800525a <test_wait_threads+0xa>
 800526c:	bd70      	pop	{r4, r5, r6, pc}
 800526e:	bf00      	nop
 8005270:	2000236c 	.word	0x2000236c
	...

08005280 <dyn2_execute>:
 8005280:	b5f8      	push	{r3, r4, r5, r6, r7, lr}
 8005282:	4b30      	ldr	r3, [pc, #192]	; (8005344 <dyn2_execute+0xc4>)
 8005284:	4c30      	ldr	r4, [pc, #192]	; (8005348 <dyn2_execute+0xc8>)
 8005286:	4f31      	ldr	r7, [pc, #196]	; (800534c <dyn2_execute+0xcc>)
 8005288:	699b      	ldr	r3, [r3, #24]
 800528a:	4931      	ldr	r1, [pc, #196]	; (8005350 <dyn2_execute+0xd0>)
 800528c:	689d      	ldr	r5, [r3, #8]
 800528e:	f104 060c 	add.w	r6, r4, #12
 8005292:	4638      	mov	r0, r7
 8005294:	f7fe fc6c 	bl	8003b70 <chPoolFree>
 8005298:	42b4      	cmp	r4, r6
 800529a:	d006      	beq.n	80052aa <dyn2_execute+0x2a>
 800529c:	f854 1b04 	ldr.w	r1, [r4], #4
 80052a0:	4638      	mov	r0, r7
 80052a2:	f7fe fc65 	bl	8003b70 <chPoolFree>
 80052a6:	42b4      	cmp	r4, r6
 80052a8:	d1f8      	bne.n	800529c <dyn2_execute+0x1c>
 80052aa:	492a      	ldr	r1, [pc, #168]	; (8005354 <dyn2_execute+0xd4>)
 80052ac:	4c2a      	ldr	r4, [pc, #168]	; (8005358 <dyn2_execute+0xd8>)
 80052ae:	1e68      	subs	r0, r5, #1
 80052b0:	f7fe fcbe 	bl	8003c30 <chThdCreateFromMemoryPool.constprop.72>
 80052b4:	4929      	ldr	r1, [pc, #164]	; (800535c <dyn2_execute+0xdc>)
 80052b6:	6020      	str	r0, [r4, #0]
 80052b8:	1ea8      	subs	r0, r5, #2
 80052ba:	f7fe fcb9 	bl	8003c30 <chThdCreateFromMemoryPool.constprop.72>
 80052be:	4928      	ldr	r1, [pc, #160]	; (8005360 <dyn2_execute+0xe0>)
 80052c0:	6060      	str	r0, [r4, #4]
 80052c2:	1ee8      	subs	r0, r5, #3
 80052c4:	f7fe fcb4 	bl	8003c30 <chThdCreateFromMemoryPool.constprop.72>
 80052c8:	4926      	ldr	r1, [pc, #152]	; (8005364 <dyn2_execute+0xe4>)
 80052ca:	60a0      	str	r0, [r4, #8]
 80052cc:	1f28      	subs	r0, r5, #4
 80052ce:	f7fe fcaf 	bl	8003c30 <chThdCreateFromMemoryPool.constprop.72>
 80052d2:	4925      	ldr	r1, [pc, #148]	; (8005368 <dyn2_execute+0xe8>)
 80052d4:	60e0      	str	r0, [r4, #12]
 80052d6:	1f68      	subs	r0, r5, #5
 80052d8:	f7fe fcaa 	bl	8003c30 <chThdCreateFromMemoryPool.constprop.72>
 80052dc:	6821      	ldr	r1, [r4, #0]
 80052de:	6120      	str	r0, [r4, #16]
 80052e0:	b141      	cbz	r1, 80052f4 <dyn2_execute+0x74>
 80052e2:	6861      	ldr	r1, [r4, #4]
 80052e4:	b131      	cbz	r1, 80052f4 <dyn2_execute+0x74>
 80052e6:	68a1      	ldr	r1, [r4, #8]
 80052e8:	b121      	cbz	r1, 80052f4 <dyn2_execute+0x74>
 80052ea:	68e1      	ldr	r1, [r4, #12]
 80052ec:	b111      	cbz	r1, 80052f4 <dyn2_execute+0x74>
 80052ee:	fab0 f180 	clz	r1, r0
 80052f2:	0949      	lsrs	r1, r1, #5
 80052f4:	2001      	movs	r0, #1
 80052f6:	f7fb f903 	bl	8000500 <_test_assert>
 80052fa:	b100      	cbz	r0, 80052fe <dyn2_execute+0x7e>
 80052fc:	bdf8      	pop	{r3, r4, r5, r6, r7, pc}
 80052fe:	f7ff ffa7 	bl	8005250 <test_wait_threads>
 8005302:	491a      	ldr	r1, [pc, #104]	; (800536c <dyn2_execute+0xec>)
 8005304:	2002      	movs	r0, #2
 8005306:	f7fb f8d3 	bl	80004b0 <_test_assert_sequence>
 800530a:	2800      	cmp	r0, #0
 800530c:	d1f6      	bne.n	80052fc <dyn2_execute+0x7c>
 800530e:	4d0f      	ldr	r5, [pc, #60]	; (800534c <dyn2_execute+0xcc>)
 8005310:	2404      	movs	r4, #4
 8005312:	4628      	mov	r0, r5
 8005314:	f7fe fc5c 	bl	8003bd0 <chPoolAlloc>
 8005318:	1c01      	adds	r1, r0, #0
 800531a:	bf18      	it	ne
 800531c:	2101      	movne	r1, #1
 800531e:	2003      	movs	r0, #3
 8005320:	f7fb f8ee 	bl	8000500 <_test_assert>
 8005324:	2800      	cmp	r0, #0
 8005326:	d1e9      	bne.n	80052fc <dyn2_execute+0x7c>
 8005328:	3c01      	subs	r4, #1
 800532a:	d1f2      	bne.n	8005312 <dyn2_execute+0x92>
 800532c:	4807      	ldr	r0, [pc, #28]	; (800534c <dyn2_execute+0xcc>)
 800532e:	f7fe fc4f 	bl	8003bd0 <chPoolAlloc>
 8005332:	fab0 f180 	clz	r1, r0
 8005336:	0949      	lsrs	r1, r1, #5
 8005338:	2004      	movs	r0, #4
 800533a:	e8bd 40f8 	ldmia.w	sp!, {r3, r4, r5, r6, r7, lr}
 800533e:	f7fb b8df 	b.w	8000500 <_test_assert>
 8005342:	bf00      	nop
 8005344:	20001558 	.word	0x20001558
 8005348:	0800b494 	.word	0x0800b494
 800534c:	20001c08 	.word	0x20001c08
 8005350:	20001c38 	.word	0x20001c38
 8005354:	0800a7b0 	.word	0x0800a7b0
 8005358:	2000236c 	.word	0x2000236c
 800535c:	0800a7b4 	.word	0x0800a7b4
 8005360:	0800a7b8 	.word	0x0800a7b8
 8005364:	0800b000 	.word	0x0800b000
 8005368:	0800a8a4 	.word	0x0800a8a4
 800536c:	0800a7bc 	.word	0x0800a7bc

08005370 <dyn1_execute>:
 8005370:	b570      	push	{r4, r5, r6, lr}
 8005372:	4b34      	ldr	r3, [pc, #208]	; (8005444 <dyn1_execute+0xd4>)
 8005374:	4834      	ldr	r0, [pc, #208]	; (8005448 <dyn1_execute+0xd8>)
 8005376:	699b      	ldr	r3, [r3, #24]
 8005378:	4c34      	ldr	r4, [pc, #208]	; (800544c <dyn1_execute+0xdc>)
 800537a:	689d      	ldr	r5, [r3, #8]
 800537c:	b084      	sub	sp, #16
 800537e:	a902      	add	r1, sp, #8
 8005380:	f7ff fac6 	bl	8004910 <chHeapStatus>
 8005384:	4b32      	ldr	r3, [pc, #200]	; (8005450 <dyn1_execute+0xe0>)
 8005386:	9300      	str	r3, [sp, #0]
 8005388:	1e6a      	subs	r2, r5, #1
 800538a:	4b32      	ldr	r3, [pc, #200]	; (8005454 <dyn1_execute+0xe4>)
 800538c:	482e      	ldr	r0, [pc, #184]	; (8005448 <dyn1_execute+0xd8>)
 800538e:	f44f 71b4 	mov.w	r1, #360	; 0x168
 8005392:	f7ff fdbd 	bl	8004f10 <chThdCreateFromHeap>
 8005396:	4b30      	ldr	r3, [pc, #192]	; (8005458 <dyn1_execute+0xe8>)
 8005398:	6020      	str	r0, [r4, #0]
 800539a:	1eaa      	subs	r2, r5, #2
 800539c:	9300      	str	r3, [sp, #0]
 800539e:	f44f 71b4 	mov.w	r1, #360	; 0x168
 80053a2:	4b2c      	ldr	r3, [pc, #176]	; (8005454 <dyn1_execute+0xe4>)
 80053a4:	4828      	ldr	r0, [pc, #160]	; (8005448 <dyn1_execute+0xd8>)
 80053a6:	f7ff fdb3 	bl	8004f10 <chThdCreateFromHeap>
 80053aa:	a903      	add	r1, sp, #12
 80053ac:	6060      	str	r0, [r4, #4]
 80053ae:	4826      	ldr	r0, [pc, #152]	; (8005448 <dyn1_execute+0xd8>)
 80053b0:	f7ff faae 	bl	8004910 <chHeapStatus>
 80053b4:	9903      	ldr	r1, [sp, #12]
 80053b6:	4824      	ldr	r0, [pc, #144]	; (8005448 <dyn1_execute+0xd8>)
 80053b8:	f7ff fb52 	bl	8004a60 <chHeapAlloc>
 80053bc:	4b27      	ldr	r3, [pc, #156]	; (800545c <dyn1_execute+0xec>)
 80053be:	9300      	str	r3, [sp, #0]
 80053c0:	f44f 71b4 	mov.w	r1, #360	; 0x168
 80053c4:	4606      	mov	r6, r0
 80053c6:	1eea      	subs	r2, r5, #3
 80053c8:	4b22      	ldr	r3, [pc, #136]	; (8005454 <dyn1_execute+0xe4>)
 80053ca:	481f      	ldr	r0, [pc, #124]	; (8005448 <dyn1_execute+0xd8>)
 80053cc:	f7ff fda0 	bl	8004f10 <chThdCreateFromHeap>
 80053d0:	60a0      	str	r0, [r4, #8]
 80053d2:	4630      	mov	r0, r6
 80053d4:	f7ff faf4 	bl	80049c0 <chHeapFree>
 80053d8:	6821      	ldr	r1, [r4, #0]
 80053da:	b121      	cbz	r1, 80053e6 <dyn1_execute+0x76>
 80053dc:	6861      	ldr	r1, [r4, #4]
 80053de:	b111      	cbz	r1, 80053e6 <dyn1_execute+0x76>
 80053e0:	68a1      	ldr	r1, [r4, #8]
 80053e2:	b331      	cbz	r1, 8005432 <dyn1_execute+0xc2>
 80053e4:	2100      	movs	r1, #0
 80053e6:	2001      	movs	r0, #1
 80053e8:	f7fb f88a 	bl	8000500 <_test_assert>
 80053ec:	b108      	cbz	r0, 80053f2 <dyn1_execute+0x82>
 80053ee:	b004      	add	sp, #16
 80053f0:	bd70      	pop	{r4, r5, r6, pc}
 80053f2:	f7ff ff2d 	bl	8005250 <test_wait_threads>
 80053f6:	491a      	ldr	r1, [pc, #104]	; (8005460 <dyn1_execute+0xf0>)
 80053f8:	2002      	movs	r0, #2
 80053fa:	f7fb f859 	bl	80004b0 <_test_assert_sequence>
 80053fe:	2800      	cmp	r0, #0
 8005400:	d1f5      	bne.n	80053ee <dyn1_execute+0x7e>
 8005402:	a903      	add	r1, sp, #12
 8005404:	4810      	ldr	r0, [pc, #64]	; (8005448 <dyn1_execute+0xd8>)
 8005406:	f7ff fa83 	bl	8004910 <chHeapStatus>
 800540a:	f1a0 0101 	sub.w	r1, r0, #1
 800540e:	fab1 f181 	clz	r1, r1
 8005412:	0949      	lsrs	r1, r1, #5
 8005414:	2003      	movs	r0, #3
 8005416:	f7fb f873 	bl	8000500 <_test_assert>
 800541a:	2800      	cmp	r0, #0
 800541c:	d1e7      	bne.n	80053ee <dyn1_execute+0x7e>
 800541e:	e9dd 3102 	ldrd	r3, r1, [sp, #8]
 8005422:	1ac9      	subs	r1, r1, r3
 8005424:	fab1 f181 	clz	r1, r1
 8005428:	0949      	lsrs	r1, r1, #5
 800542a:	2004      	movs	r0, #4
 800542c:	f7fb f868 	bl	8000500 <_test_assert>
 8005430:	e7dd      	b.n	80053ee <dyn1_execute+0x7e>
 8005432:	68e3      	ldr	r3, [r4, #12]
 8005434:	2b00      	cmp	r3, #0
 8005436:	d1d6      	bne.n	80053e6 <dyn1_execute+0x76>
 8005438:	6921      	ldr	r1, [r4, #16]
 800543a:	fab1 f181 	clz	r1, r1
 800543e:	0949      	lsrs	r1, r1, #5
 8005440:	e7d1      	b.n	80053e6 <dyn1_execute+0x76>
 8005442:	bf00      	nop
 8005444:	20001558 	.word	0x20001558
 8005448:	20001bb0 	.word	0x20001bb0
 800544c:	2000236c 	.word	0x2000236c
 8005450:	0800a7b0 	.word	0x0800a7b0
 8005454:	08003b61 	.word	0x08003b61
 8005458:	0800a7b4 	.word	0x0800a7b4
 800545c:	0800a7b8 	.word	0x0800a7b8
 8005460:	0800a7a0 	.word	0x0800a7a0
	...

08005470 <chThdExit>:
 8005470:	b508      	push	{r3, lr}
 8005472:	4601      	mov	r1, r0
 8005474:	2320      	movs	r3, #32
 8005476:	f383 8811 	msr	BASEPRI, r3
 800547a:	f7fc fee1 	bl	8002240 <_stats_start_measure_crit_thd>
 800547e:	f7fc ffcf 	bl	8002420 <_dbg_check_lock>
 8005482:	4608      	mov	r0, r1
 8005484:	f7fc fde4 	bl	8002050 <chThdExitS>
	...

08005490 <thread1.lto_priv.156>:
 8005490:	b508      	push	{r3, lr}
 8005492:	f7ff ffed 	bl	8005470 <chThdExit>
 8005496:	bf00      	nop
	...

080054a0 <chThdYield>:
 80054a0:	b538      	push	{r3, r4, r5, lr}
 80054a2:	2320      	movs	r3, #32
 80054a4:	f383 8811 	msr	BASEPRI, r3
 80054a8:	4c21      	ldr	r4, [pc, #132]	; (8005530 <chThdYield+0x90>)
 80054aa:	f7fc fec9 	bl	8002240 <_stats_start_measure_crit_thd>
 80054ae:	f7fc ffb7 	bl	8002420 <_dbg_check_lock>
 80054b2:	f7fb fa55 	bl	8000960 <chDbgCheckClassS>
 80054b6:	f7fb fa53 	bl	8000960 <chDbgCheckClassS>
 80054ba:	6823      	ldr	r3, [r4, #0]
 80054bc:	69a5      	ldr	r5, [r4, #24]
 80054be:	6899      	ldr	r1, [r3, #8]
 80054c0:	68aa      	ldr	r2, [r5, #8]
 80054c2:	4291      	cmp	r1, r2
 80054c4:	d20f      	bcs.n	80054e6 <chThdYield+0x46>
 80054c6:	f7fc fecb 	bl	8002260 <_dbg_check_unlock>
 80054ca:	f7fc feb1 	bl	8002230 <_stats_stop_measure_crit_thd>
 80054ce:	6823      	ldr	r3, [r4, #0]
 80054d0:	42a3      	cmp	r3, r4
 80054d2:	d004      	beq.n	80054de <chThdYield+0x3e>
 80054d4:	69a2      	ldr	r2, [r4, #24]
 80054d6:	689b      	ldr	r3, [r3, #8]
 80054d8:	6892      	ldr	r2, [r2, #8]
 80054da:	429a      	cmp	r2, r3
 80054dc:	d323      	bcc.n	8005526 <chThdYield+0x86>
 80054de:	2300      	movs	r3, #0
 80054e0:	f383 8811 	msr	BASEPRI, r3
 80054e4:	bd38      	pop	{r3, r4, r5, pc}
 80054e6:	681a      	ldr	r2, [r3, #0]
 80054e8:	6022      	str	r2, [r4, #0]
 80054ea:	2101      	movs	r1, #1
 80054ec:	6054      	str	r4, [r2, #4]
 80054ee:	4628      	mov	r0, r5
 80054f0:	f883 1020 	strb.w	r1, [r3, #32]
 80054f4:	61a3      	str	r3, [r4, #24]
 80054f6:	f7fb fb03 	bl	8000b00 <chSchReadyI>
 80054fa:	4628      	mov	r0, r5
 80054fc:	f7fb fa10 	bl	8000920 <_dbg_trace>
 8005500:	4629      	mov	r1, r5
 8005502:	69a0      	ldr	r0, [r4, #24]
 8005504:	f7fb f9b4 	bl	8000870 <_stats_ctxswc>
 8005508:	f3ef 8309 	mrs	r3, PSP
 800550c:	69ea      	ldr	r2, [r5, #28]
 800550e:	3b24      	subs	r3, #36	; 0x24
 8005510:	429a      	cmp	r2, r3
 8005512:	d804      	bhi.n	800551e <chThdYield+0x7e>
 8005514:	4629      	mov	r1, r5
 8005516:	69a0      	ldr	r0, [r4, #24]
 8005518:	f7fa fea2 	bl	8000260 <_port_switch>
 800551c:	e7d3      	b.n	80054c6 <chThdYield+0x26>
 800551e:	b672      	cpsid	i
 8005520:	4b04      	ldr	r3, [pc, #16]	; (8005534 <chThdYield+0x94>)
 8005522:	62e3      	str	r3, [r4, #44]	; 0x2c
 8005524:	e7fe      	b.n	8005524 <chThdYield+0x84>
 8005526:	b672      	cpsid	i
 8005528:	4b03      	ldr	r3, [pc, #12]	; (8005538 <chThdYield+0x98>)
 800552a:	62e3      	str	r3, [r4, #44]	; 0x2c
 800552c:	e7fe      	b.n	800552c <chThdYield+0x8c>
 800552e:	bf00      	nop
 8005530:	20001558 	.word	0x20001558
 8005534:	0800a470 	.word	0x0800a470
 8005538:	08009d70 	.word	0x08009d70
 800553c:	00000000 	.word	0x00000000

08005540 <thread8>:
 8005540:	b538      	push	{r3, r4, r5, lr}
 8005542:	4d09      	ldr	r5, [pc, #36]	; (8005568 <thread8+0x28>)
 8005544:	4604      	mov	r4, r0
 8005546:	f7ff ffab 	bl	80054a0 <chThdYield>
 800554a:	f7ff ffa9 	bl	80054a0 <chThdYield>
 800554e:	f7ff ffa7 	bl	80054a0 <chThdYield>
 8005552:	f7ff ffa5 	bl	80054a0 <chThdYield>
 8005556:	6823      	ldr	r3, [r4, #0]
 8005558:	69aa      	ldr	r2, [r5, #24]
 800555a:	3304      	adds	r3, #4
 800555c:	6023      	str	r3, [r4, #0]
 800555e:	f892 3021 	ldrb.w	r3, [r2, #33]	; 0x21
 8005562:	075b      	lsls	r3, r3, #29
 8005564:	d5ef      	bpl.n	8005546 <thread8+0x6>
 8005566:	bd38      	pop	{r3, r4, r5, pc}
 8005568:	20001558 	.word	0x20001558
 800556c:	00000000 	.word	0x00000000

08005570 <chThdSleep>:
 8005570:	b508      	push	{r3, lr}
 8005572:	4601      	mov	r1, r0
 8005574:	2320      	movs	r3, #32
 8005576:	f383 8811 	msr	BASEPRI, r3
 800557a:	f7fc fe61 	bl	8002240 <_stats_start_measure_crit_thd>
 800557e:	f7fc ff4f 	bl	8002420 <_dbg_check_lock>
 8005582:	2008      	movs	r0, #8
 8005584:	f7fc fd8c 	bl	80020a0 <chSchGoSleepTimeoutS>
 8005588:	f7fc fe6a 	bl	8002260 <_dbg_check_unlock>
 800558c:	f7fc fe50 	bl	8002230 <_stats_stop_measure_crit_thd>
 8005590:	4b08      	ldr	r3, [pc, #32]	; (80055b4 <chThdSleep+0x44>)
 8005592:	681a      	ldr	r2, [r3, #0]
 8005594:	429a      	cmp	r2, r3
 8005596:	d004      	beq.n	80055a2 <chThdSleep+0x32>
 8005598:	6999      	ldr	r1, [r3, #24]
 800559a:	6892      	ldr	r2, [r2, #8]
 800559c:	6889      	ldr	r1, [r1, #8]
 800559e:	4291      	cmp	r1, r2
 80055a0:	d303      	bcc.n	80055aa <chThdSleep+0x3a>
 80055a2:	2300      	movs	r3, #0
 80055a4:	f383 8811 	msr	BASEPRI, r3
 80055a8:	bd08      	pop	{r3, pc}
 80055aa:	b672      	cpsid	i
 80055ac:	4a02      	ldr	r2, [pc, #8]	; (80055b8 <chThdSleep+0x48>)
 80055ae:	62da      	str	r2, [r3, #44]	; 0x2c
 80055b0:	e7fe      	b.n	80055b0 <chThdSleep+0x40>
 80055b2:	bf00      	nop
 80055b4:	20001558 	.word	0x20001558
 80055b8:	08009d70 	.word	0x08009d70
 80055bc:	00000000 	.word	0x00000000

080055c0 <Thread1>:
 80055c0:	4b0d      	ldr	r3, [pc, #52]	; (80055f8 <Thread1+0x38>)
 80055c2:	4a0e      	ldr	r2, [pc, #56]	; (80055fc <Thread1+0x3c>)
 80055c4:	699b      	ldr	r3, [r3, #24]
 80055c6:	f8df 803c 	ldr.w	r8, [pc, #60]	; 8005604 <Thread1+0x44>
 80055ca:	4d0d      	ldr	r5, [pc, #52]	; (8005600 <Thread1+0x40>)
 80055cc:	2601      	movs	r6, #1
 80055ce:	b580      	push	{r7, lr}
 80055d0:	619a      	str	r2, [r3, #24]
 80055d2:	4637      	mov	r7, r6
 80055d4:	f898 2000 	ldrb.w	r2, [r8]
 80055d8:	836f      	strh	r7, [r5, #26]
 80055da:	f640 13c4 	movw	r3, #2500	; 0x9c4
 80055de:	f241 3488 	movw	r4, #5000	; 0x1388
 80055e2:	2a04      	cmp	r2, #4
 80055e4:	bf08      	it	eq
 80055e6:	461c      	moveq	r4, r3
 80055e8:	4620      	mov	r0, r4
 80055ea:	f7ff ffc1 	bl	8005570 <chThdSleep>
 80055ee:	4620      	mov	r0, r4
 80055f0:	832e      	strh	r6, [r5, #24]
 80055f2:	f7ff ffbd 	bl	8005570 <chThdSleep>
 80055f6:	e7ed      	b.n	80055d4 <Thread1+0x14>
 80055f8:	20001558 	.word	0x20001558
 80055fc:	08009d50 	.word	0x08009d50
 8005600:	48000800 	.word	0x48000800
 8005604:	200014d0 	.word	0x200014d0
	...

08005610 <TestThread>:
 8005610:	e92d 4ff0 	stmdb	sp!, {r4, r5, r6, r7, r8, r9, sl, fp, lr}
 8005614:	4ca0      	ldr	r4, [pc, #640]	; (8005898 <TestThread+0x288>)
 8005616:	4da1      	ldr	r5, [pc, #644]	; (800589c <TestThread+0x28c>)
 8005618:	6020      	str	r0, [r4, #0]
 800561a:	b085      	sub	sp, #20
 800561c:	48a0      	ldr	r0, [pc, #640]	; (80058a0 <TestThread+0x290>)
 800561e:	f7fa ff87 	bl	8000530 <test_println>
 8005622:	48a0      	ldr	r0, [pc, #640]	; (80058a4 <TestThread+0x294>)
 8005624:	f7fa ff84 	bl	8000530 <test_println>
 8005628:	489f      	ldr	r0, [pc, #636]	; (80058a8 <TestThread+0x298>)
 800562a:	f7fa ff81 	bl	8000530 <test_println>
 800562e:	212a      	movs	r1, #42	; 0x2a
 8005630:	6820      	ldr	r0, [r4, #0]
 8005632:	6803      	ldr	r3, [r0, #0]
 8005634:	689b      	ldr	r3, [r3, #8]
 8005636:	4798      	blx	r3
 8005638:	f815 1f01 	ldrb.w	r1, [r5, #1]!
 800563c:	2900      	cmp	r1, #0
 800563e:	d1f7      	bne.n	8005630 <TestThread+0x20>
 8005640:	489a      	ldr	r0, [pc, #616]	; (80058ac <TestThread+0x29c>)
 8005642:	4d9b      	ldr	r5, [pc, #620]	; (80058b0 <TestThread+0x2a0>)
 8005644:	f7fa ff74 	bl	8000530 <test_println>
 8005648:	212a      	movs	r1, #42	; 0x2a
 800564a:	6820      	ldr	r0, [r4, #0]
 800564c:	6803      	ldr	r3, [r0, #0]
 800564e:	689b      	ldr	r3, [r3, #8]
 8005650:	4798      	blx	r3
 8005652:	f815 1f01 	ldrb.w	r1, [r5, #1]!
 8005656:	2900      	cmp	r1, #0
 8005658:	d1f7      	bne.n	800564a <TestThread+0x3a>
 800565a:	4896      	ldr	r0, [pc, #600]	; (80058b4 <TestThread+0x2a4>)
 800565c:	4d96      	ldr	r5, [pc, #600]	; (80058b8 <TestThread+0x2a8>)
 800565e:	f7fa ff67 	bl	8000530 <test_println>
 8005662:	212a      	movs	r1, #42	; 0x2a
 8005664:	6820      	ldr	r0, [r4, #0]
 8005666:	6803      	ldr	r3, [r0, #0]
 8005668:	689b      	ldr	r3, [r3, #8]
 800566a:	4798      	blx	r3
 800566c:	f815 1f01 	ldrb.w	r1, [r5, #1]!
 8005670:	2900      	cmp	r1, #0
 8005672:	d1f7      	bne.n	8005664 <TestThread+0x54>
 8005674:	4891      	ldr	r0, [pc, #580]	; (80058bc <TestThread+0x2ac>)
 8005676:	4d92      	ldr	r5, [pc, #584]	; (80058c0 <TestThread+0x2b0>)
 8005678:	f7fa ff5a 	bl	8000530 <test_println>
 800567c:	212a      	movs	r1, #42	; 0x2a
 800567e:	6820      	ldr	r0, [r4, #0]
 8005680:	6803      	ldr	r3, [r0, #0]
 8005682:	689b      	ldr	r3, [r3, #8]
 8005684:	4798      	blx	r3
 8005686:	f815 1f01 	ldrb.w	r1, [r5, #1]!
 800568a:	2900      	cmp	r1, #0
 800568c:	d1f7      	bne.n	800567e <TestThread+0x6e>
 800568e:	488d      	ldr	r0, [pc, #564]	; (80058c4 <TestThread+0x2b4>)
 8005690:	4d8d      	ldr	r5, [pc, #564]	; (80058c8 <TestThread+0x2b8>)
 8005692:	f7fa ff4d 	bl	8000530 <test_println>
 8005696:	212a      	movs	r1, #42	; 0x2a
 8005698:	6820      	ldr	r0, [r4, #0]
 800569a:	6803      	ldr	r3, [r0, #0]
 800569c:	689b      	ldr	r3, [r3, #8]
 800569e:	4798      	blx	r3
 80056a0:	f815 1f01 	ldrb.w	r1, [r5, #1]!
 80056a4:	2900      	cmp	r1, #0
 80056a6:	d1f7      	bne.n	8005698 <TestThread+0x88>
 80056a8:	4888      	ldr	r0, [pc, #544]	; (80058cc <TestThread+0x2bc>)
 80056aa:	4d89      	ldr	r5, [pc, #548]	; (80058d0 <TestThread+0x2c0>)
 80056ac:	f7fa ff40 	bl	8000530 <test_println>
 80056b0:	212a      	movs	r1, #42	; 0x2a
 80056b2:	6820      	ldr	r0, [r4, #0]
 80056b4:	6803      	ldr	r3, [r0, #0]
 80056b6:	689b      	ldr	r3, [r3, #8]
 80056b8:	4798      	blx	r3
 80056ba:	f815 1f01 	ldrb.w	r1, [r5, #1]!
 80056be:	2900      	cmp	r1, #0
 80056c0:	d1f7      	bne.n	80056b2 <TestThread+0xa2>
 80056c2:	4884      	ldr	r0, [pc, #528]	; (80058d4 <TestThread+0x2c4>)
 80056c4:	4d84      	ldr	r5, [pc, #528]	; (80058d8 <TestThread+0x2c8>)
 80056c6:	f7fa ff33 	bl	8000530 <test_println>
 80056ca:	212a      	movs	r1, #42	; 0x2a
 80056cc:	6820      	ldr	r0, [r4, #0]
 80056ce:	6803      	ldr	r3, [r0, #0]
 80056d0:	689b      	ldr	r3, [r3, #8]
 80056d2:	4798      	blx	r3
 80056d4:	f815 1f01 	ldrb.w	r1, [r5, #1]!
 80056d8:	2900      	cmp	r1, #0
 80056da:	d1f7      	bne.n	80056cc <TestThread+0xbc>
 80056dc:	487f      	ldr	r0, [pc, #508]	; (80058dc <TestThread+0x2cc>)
 80056de:	4d80      	ldr	r5, [pc, #512]	; (80058e0 <TestThread+0x2d0>)
 80056e0:	f7fa ff26 	bl	8000530 <test_println>
 80056e4:	212a      	movs	r1, #42	; 0x2a
 80056e6:	6820      	ldr	r0, [r4, #0]
 80056e8:	6803      	ldr	r3, [r0, #0]
 80056ea:	689b      	ldr	r3, [r3, #8]
 80056ec:	4798      	blx	r3
 80056ee:	f815 1f01 	ldrb.w	r1, [r5, #1]!
 80056f2:	2900      	cmp	r1, #0
 80056f4:	d1f7      	bne.n	80056e6 <TestThread+0xd6>
 80056f6:	4b7b      	ldr	r3, [pc, #492]	; (80058e4 <TestThread+0x2d4>)
 80056f8:	487b      	ldr	r0, [pc, #492]	; (80058e8 <TestThread+0x2d8>)
 80056fa:	9302      	str	r3, [sp, #8]
 80056fc:	4b7b      	ldr	r3, [pc, #492]	; (80058ec <TestThread+0x2dc>)
 80056fe:	9103      	str	r1, [sp, #12]
 8005700:	9301      	str	r3, [sp, #4]
 8005702:	f7fa ff15 	bl	8000530 <test_println>
 8005706:	4866      	ldr	r0, [pc, #408]	; (80058a0 <TestThread+0x290>)
 8005708:	f8df 8218 	ldr.w	r8, [pc, #536]	; 8005924 <TestThread+0x314>
 800570c:	4f78      	ldr	r7, [pc, #480]	; (80058f0 <TestThread+0x2e0>)
 800570e:	f8df a218 	ldr.w	sl, [pc, #536]	; 8005928 <TestThread+0x318>
 8005712:	f7fa ff0d 	bl	8000530 <test_println>
 8005716:	4b77      	ldr	r3, [pc, #476]	; (80058f4 <TestThread+0x2e4>)
 8005718:	9903      	ldr	r1, [sp, #12]
 800571a:	7019      	strb	r1, [r3, #0]
 800571c:	4b76      	ldr	r3, [pc, #472]	; (80058f8 <TestThread+0x2e8>)
 800571e:	468b      	mov	fp, r1
 8005720:	f10b 0b01 	add.w	fp, fp, #1
 8005724:	2600      	movs	r6, #0
 8005726:	2b00      	cmp	r3, #0
 8005728:	f000 8089 	beq.w	800583e <TestThread+0x22e>
 800572c:	4d73      	ldr	r5, [pc, #460]	; (80058fc <TestThread+0x2ec>)
 800572e:	f7fa fea7 	bl	8000480 <print_line>
 8005732:	212d      	movs	r1, #45	; 0x2d
 8005734:	6820      	ldr	r0, [r4, #0]
 8005736:	6803      	ldr	r3, [r0, #0]
 8005738:	689b      	ldr	r3, [r3, #8]
 800573a:	4798      	blx	r3
 800573c:	f815 1f01 	ldrb.w	r1, [r5, #1]!
 8005740:	2900      	cmp	r1, #0
 8005742:	d1f7      	bne.n	8005734 <TestThread+0x124>
 8005744:	4658      	mov	r0, fp
 8005746:	f7fa fe8b 	bl	8000460 <test_printn>
 800574a:	6820      	ldr	r0, [r4, #0]
 800574c:	f8df 91dc 	ldr.w	r9, [pc, #476]	; 800592c <TestThread+0x31c>
 8005750:	6803      	ldr	r3, [r0, #0]
 8005752:	212e      	movs	r1, #46	; 0x2e
 8005754:	689b      	ldr	r3, [r3, #8]
 8005756:	1c75      	adds	r5, r6, #1
 8005758:	4798      	blx	r3
 800575a:	4628      	mov	r0, r5
 800575c:	f7fa fe80 	bl	8000460 <test_printn>
 8005760:	2120      	movs	r1, #32
 8005762:	6820      	ldr	r0, [r4, #0]
 8005764:	6803      	ldr	r3, [r0, #0]
 8005766:	689b      	ldr	r3, [r3, #8]
 8005768:	4798      	blx	r3
 800576a:	f819 1f01 	ldrb.w	r1, [r9, #1]!
 800576e:	2900      	cmp	r1, #0
 8005770:	d1f7      	bne.n	8005762 <TestThread+0x152>
 8005772:	f858 3026 	ldr.w	r3, [r8, r6, lsl #2]
 8005776:	f8d3 9000 	ldr.w	r9, [r3]
 800577a:	f899 1000 	ldrb.w	r1, [r9]
 800577e:	b139      	cbz	r1, 8005790 <TestThread+0x180>
 8005780:	6820      	ldr	r0, [r4, #0]
 8005782:	6803      	ldr	r3, [r0, #0]
 8005784:	689b      	ldr	r3, [r3, #8]
 8005786:	4798      	blx	r3
 8005788:	f819 1f01 	ldrb.w	r1, [r9, #1]!
 800578c:	2900      	cmp	r1, #0
 800578e:	d1f7      	bne.n	8005780 <TestThread+0x170>
 8005790:	485b      	ldr	r0, [pc, #364]	; (8005900 <TestThread+0x2f0>)
 8005792:	f7fa fecd 	bl	8000530 <test_println>
 8005796:	f44f 60fa 	mov.w	r0, #2000	; 0x7d0
 800579a:	f7ff fee9 	bl	8005570 <chThdSleep>
 800579e:	4a59      	ldr	r2, [pc, #356]	; (8005904 <TestThread+0x2f4>)
 80057a0:	4b59      	ldr	r3, [pc, #356]	; (8005908 <TestThread+0x2f8>)
 80057a2:	603b      	str	r3, [r7, #0]
 80057a4:	2300      	movs	r3, #0
 80057a6:	f858 9026 	ldr.w	r9, [r8, r6, lsl #2]
 80057aa:	6113      	str	r3, [r2, #16]
 80057ac:	e9c2 3300 	strd	r3, r3, [r2]
 80057b0:	e9c2 3302 	strd	r3, r3, [r2, #8]
 80057b4:	f8d9 2004 	ldr.w	r2, [r9, #4]
 80057b8:	f88a 3000 	strb.w	r3, [sl]
 80057bc:	b102      	cbz	r2, 80057c0 <TestThread+0x1b0>
 80057be:	4790      	blx	r2
 80057c0:	f8d9 300c 	ldr.w	r3, [r9, #12]
 80057c4:	4798      	blx	r3
 80057c6:	f8d9 3008 	ldr.w	r3, [r9, #8]
 80057ca:	b103      	cbz	r3, 80057ce <TestThread+0x1be>
 80057cc:	4798      	blx	r3
 80057ce:	f7ff fd3f 	bl	8005250 <test_wait_threads>
 80057d2:	f89a 3000 	ldrb.w	r3, [sl]
 80057d6:	2b00      	cmp	r3, #0
 80057d8:	d03c      	beq.n	8005854 <TestThread+0x244>
 80057da:	f8df 9154 	ldr.w	r9, [pc, #340]	; 8005930 <TestThread+0x320>
 80057de:	212d      	movs	r1, #45	; 0x2d
 80057e0:	6820      	ldr	r0, [r4, #0]
 80057e2:	6803      	ldr	r3, [r0, #0]
 80057e4:	689b      	ldr	r3, [r3, #8]
 80057e6:	4798      	blx	r3
 80057e8:	f819 1f01 	ldrb.w	r1, [r9, #1]!
 80057ec:	2900      	cmp	r1, #0
 80057ee:	d1f7      	bne.n	80057e0 <TestThread+0x1d0>
 80057f0:	4b46      	ldr	r3, [pc, #280]	; (800590c <TestThread+0x2fc>)
 80057f2:	f8df 9140 	ldr.w	r9, [pc, #320]	; 8005934 <TestThread+0x324>
 80057f6:	6818      	ldr	r0, [r3, #0]
 80057f8:	f7fa fe32 	bl	8000460 <test_printn>
 80057fc:	2120      	movs	r1, #32
 80057fe:	6820      	ldr	r0, [r4, #0]
 8005800:	6803      	ldr	r3, [r0, #0]
 8005802:	689b      	ldr	r3, [r3, #8]
 8005804:	4798      	blx	r3
 8005806:	f819 1f01 	ldrb.w	r1, [r9, #1]!
 800580a:	2900      	cmp	r1, #0
 800580c:	d1f7      	bne.n	80057fe <TestThread+0x1ee>
 800580e:	683b      	ldr	r3, [r7, #0]
 8005810:	4a3d      	ldr	r2, [pc, #244]	; (8005908 <TestThread+0x2f8>)
 8005812:	4293      	cmp	r3, r2
 8005814:	d909      	bls.n	800582a <TestThread+0x21a>
 8005816:	4691      	mov	r9, r2
 8005818:	6820      	ldr	r0, [r4, #0]
 800581a:	f819 1b01 	ldrb.w	r1, [r9], #1
 800581e:	6803      	ldr	r3, [r0, #0]
 8005820:	689b      	ldr	r3, [r3, #8]
 8005822:	4798      	blx	r3
 8005824:	683b      	ldr	r3, [r7, #0]
 8005826:	4599      	cmp	r9, r3
 8005828:	d3f6      	bcc.n	8005818 <TestThread+0x208>
 800582a:	4839      	ldr	r0, [pc, #228]	; (8005910 <TestThread+0x300>)
 800582c:	f7fa fe80 	bl	8000530 <test_println>
 8005830:	eb08 0386 	add.w	r3, r8, r6, lsl #2
 8005834:	462e      	mov	r6, r5
 8005836:	685b      	ldr	r3, [r3, #4]
 8005838:	2b00      	cmp	r3, #0
 800583a:	f47f af77 	bne.w	800572c <TestThread+0x11c>
 800583e:	9a01      	ldr	r2, [sp, #4]
 8005840:	b162      	cbz	r2, 800585c <TestThread+0x24c>
 8005842:	6813      	ldr	r3, [r2, #0]
 8005844:	4690      	mov	r8, r2
 8005846:	9a02      	ldr	r2, [sp, #8]
 8005848:	4611      	mov	r1, r2
 800584a:	f851 2f04 	ldr.w	r2, [r1, #4]!
 800584e:	9201      	str	r2, [sp, #4]
 8005850:	9102      	str	r1, [sp, #8]
 8005852:	e765      	b.n	8005720 <TestThread+0x110>
 8005854:	482f      	ldr	r0, [pc, #188]	; (8005914 <TestThread+0x304>)
 8005856:	f7fa fe6b 	bl	8000530 <test_println>
 800585a:	e7e9      	b.n	8005830 <TestThread+0x220>
 800585c:	f7fa fe10 	bl	8000480 <print_line>
 8005860:	4d2d      	ldr	r5, [pc, #180]	; (8005918 <TestThread+0x308>)
 8005862:	480f      	ldr	r0, [pc, #60]	; (80058a0 <TestThread+0x290>)
 8005864:	f7fa fe64 	bl	8000530 <test_println>
 8005868:	2146      	movs	r1, #70	; 0x46
 800586a:	6820      	ldr	r0, [r4, #0]
 800586c:	6803      	ldr	r3, [r0, #0]
 800586e:	689b      	ldr	r3, [r3, #8]
 8005870:	4798      	blx	r3
 8005872:	f815 1f01 	ldrb.w	r1, [r5, #1]!
 8005876:	2900      	cmp	r1, #0
 8005878:	d1f7      	bne.n	800586a <TestThread+0x25a>
 800587a:	4b1e      	ldr	r3, [pc, #120]	; (80058f4 <TestThread+0x2e4>)
 800587c:	781b      	ldrb	r3, [r3, #0]
 800587e:	b92b      	cbnz	r3, 800588c <TestThread+0x27c>
 8005880:	4826      	ldr	r0, [pc, #152]	; (800591c <TestThread+0x30c>)
 8005882:	b005      	add	sp, #20
 8005884:	e8bd 4ff0 	ldmia.w	sp!, {r4, r5, r6, r7, r8, r9, sl, fp, lr}
 8005888:	f7fa be52 	b.w	8000530 <test_println>
 800588c:	4824      	ldr	r0, [pc, #144]	; (8005920 <TestThread+0x310>)
 800588e:	b005      	add	sp, #20
 8005890:	e8bd 4ff0 	ldmia.w	sp!, {r4, r5, r6, r7, r8, r9, sl, fp, lr}
 8005894:	f7fa be4c 	b.w	8000530 <test_println>
 8005898:	20001b30 	.word	0x20001b30
 800589c:	08009c10 	.word	0x08009c10
 80058a0:	0800aab4 	.word	0x0800aab4
 80058a4:	08009cf0 	.word	0x08009cf0
 80058a8:	08009d0c 	.word	0x08009d0c
 80058ac:	0800a4c4 	.word	0x0800a4c4
 80058b0:	08009c24 	.word	0x08009c24
 80058b4:	08009d10 	.word	0x08009d10
 80058b8:	08009c38 	.word	0x08009c38
 80058bc:	0800a4e0 	.word	0x0800a4e0
 80058c0:	08009c4c 	.word	0x08009c4c
 80058c4:	0800a53c 	.word	0x0800a53c
 80058c8:	08009c60 	.word	0x08009c60
 80058cc:	0800a55c 	.word	0x0800a55c
 80058d0:	08009c74 	.word	0x08009c74
 80058d4:	0800a57c 	.word	0x0800a57c
 80058d8:	08009c88 	.word	0x08009c88
 80058dc:	0800a5a8 	.word	0x0800a5a8
 80058e0:	08009c9c 	.word	0x08009c9c
 80058e4:	0800a984 	.word	0x0800a984
 80058e8:	0800a5d8 	.word	0x0800a5d8
 80058ec:	0800a9f0 	.word	0x0800a9f0
 80058f0:	20002390 	.word	0x20002390
 80058f4:	20002340 	.word	0x20002340
 80058f8:	0800b2b0 	.word	0x0800b2b0
 80058fc:	08009cb0 	.word	0x08009cb0
 8005900:	08009d28 	.word	0x08009d28
 8005904:	2000236c 	.word	0x2000236c
 8005908:	20002380 	.word	0x20002380
 800590c:	20001bac 	.word	0x20001bac
 8005910:	08009d2c 	.word	0x08009d2c
 8005914:	08009d30 	.word	0x08009d30
 8005918:	08009ce0 	.word	0x08009ce0
 800591c:	08009d3c 	.word	0x08009d3c
 8005920:	08009d44 	.word	0x08009d44
 8005924:	0800a9e0 	.word	0x0800a9e0
 8005928:	20001c04 	.word	0x20001c04
 800592c:	08009cc0 	.word	0x08009cc0
 8005930:	08009cc4 	.word	0x08009cc4
 8005934:	08009cdc 	.word	0x08009cdc
	...

08005940 <dyn3_execute>:
 8005940:	b530      	push	{r4, r5, lr}
 8005942:	4d5d      	ldr	r5, [pc, #372]	; (8005ab8 <dyn3_execute+0x178>)
 8005944:	495d      	ldr	r1, [pc, #372]	; (8005abc <dyn3_execute+0x17c>)
 8005946:	69aa      	ldr	r2, [r5, #24]
 8005948:	4b5d      	ldr	r3, [pc, #372]	; (8005ac0 <dyn3_execute+0x180>)
 800594a:	6892      	ldr	r2, [r2, #8]
 800594c:	485d      	ldr	r0, [pc, #372]	; (8005ac4 <dyn3_execute+0x184>)
 800594e:	b083      	sub	sp, #12
 8005950:	3a01      	subs	r2, #1
 8005952:	9100      	str	r1, [sp, #0]
 8005954:	f44f 71b4 	mov.w	r1, #360	; 0x168
 8005958:	f7ff fada 	bl	8004f10 <chThdCreateFromHeap>
 800595c:	4604      	mov	r4, r0
 800595e:	2001      	movs	r0, #1
 8005960:	f894 1022 	ldrb.w	r1, [r4, #34]	; 0x22
 8005964:	1a09      	subs	r1, r1, r0
 8005966:	fab1 f181 	clz	r1, r1
 800596a:	0949      	lsrs	r1, r1, #5
 800596c:	f7fa fdc8 	bl	8000500 <_test_assert>
 8005970:	b108      	cbz	r0, 8005976 <dyn3_execute+0x36>
 8005972:	b003      	add	sp, #12
 8005974:	bd30      	pop	{r4, r5, pc}
 8005976:	2320      	movs	r3, #32
 8005978:	f383 8811 	msr	BASEPRI, r3
 800597c:	f7fc fc60 	bl	8002240 <_stats_start_measure_crit_thd>
 8005980:	f7fc fd4e 	bl	8002420 <_dbg_check_lock>
 8005984:	f894 3022 	ldrb.w	r3, [r4, #34]	; 0x22
 8005988:	2bff      	cmp	r3, #255	; 0xff
 800598a:	f000 8091 	beq.w	8005ab0 <dyn3_execute+0x170>
 800598e:	3301      	adds	r3, #1
 8005990:	f884 3022 	strb.w	r3, [r4, #34]	; 0x22
 8005994:	f7fc fc64 	bl	8002260 <_dbg_check_unlock>
 8005998:	f7fc fc4a 	bl	8002230 <_stats_stop_measure_crit_thd>
 800599c:	682b      	ldr	r3, [r5, #0]
 800599e:	42ab      	cmp	r3, r5
 80059a0:	d004      	beq.n	80059ac <dyn3_execute+0x6c>
 80059a2:	69aa      	ldr	r2, [r5, #24]
 80059a4:	689b      	ldr	r3, [r3, #8]
 80059a6:	6892      	ldr	r2, [r2, #8]
 80059a8:	429a      	cmp	r2, r3
 80059aa:	d37d      	bcc.n	8005aa8 <dyn3_execute+0x168>
 80059ac:	2300      	movs	r3, #0
 80059ae:	f383 8811 	msr	BASEPRI, r3
 80059b2:	f894 1022 	ldrb.w	r1, [r4, #34]	; 0x22
 80059b6:	2002      	movs	r0, #2
 80059b8:	1a09      	subs	r1, r1, r0
 80059ba:	fab1 f181 	clz	r1, r1
 80059be:	0949      	lsrs	r1, r1, #5
 80059c0:	f7fa fd9e 	bl	8000500 <_test_assert>
 80059c4:	2800      	cmp	r0, #0
 80059c6:	d1d4      	bne.n	8005972 <dyn3_execute+0x32>
 80059c8:	4620      	mov	r0, r4
 80059ca:	f7ff faf1 	bl	8004fb0 <chThdRelease>
 80059ce:	f894 1022 	ldrb.w	r1, [r4, #34]	; 0x22
 80059d2:	f1a1 0101 	sub.w	r1, r1, #1
 80059d6:	fab1 f181 	clz	r1, r1
 80059da:	2003      	movs	r0, #3
 80059dc:	0949      	lsrs	r1, r1, #5
 80059de:	f7fa fd8f 	bl	8000500 <_test_assert>
 80059e2:	2800      	cmp	r0, #0
 80059e4:	d1c5      	bne.n	8005972 <dyn3_execute+0x32>
 80059e6:	4620      	mov	r0, r4
 80059e8:	f7ff fbaa 	bl	8005140 <regfind>
 80059ec:	4601      	mov	r1, r0
 80059ee:	2004      	movs	r0, #4
 80059f0:	f7fa fd86 	bl	8000500 <_test_assert>
 80059f4:	2800      	cmp	r0, #0
 80059f6:	d1bc      	bne.n	8005972 <dyn3_execute+0x32>
 80059f8:	4620      	mov	r0, r4
 80059fa:	f7ff fba1 	bl	8005140 <regfind>
 80059fe:	4601      	mov	r1, r0
 8005a00:	2005      	movs	r0, #5
 8005a02:	f7fa fd7d 	bl	8000500 <_test_assert>
 8005a06:	2800      	cmp	r0, #0
 8005a08:	d1b3      	bne.n	8005972 <dyn3_execute+0x32>
 8005a0a:	4620      	mov	r0, r4
 8005a0c:	f7ff fad0 	bl	8004fb0 <chThdRelease>
 8005a10:	f894 1022 	ldrb.w	r1, [r4, #34]	; 0x22
 8005a14:	fab1 f181 	clz	r1, r1
 8005a18:	0949      	lsrs	r1, r1, #5
 8005a1a:	2006      	movs	r0, #6
 8005a1c:	f7fa fd70 	bl	8000500 <_test_assert>
 8005a20:	2800      	cmp	r0, #0
 8005a22:	d1a6      	bne.n	8005972 <dyn3_execute+0x32>
 8005a24:	f894 1020 	ldrb.w	r1, [r4, #32]
 8005a28:	fab1 f181 	clz	r1, r1
 8005a2c:	0949      	lsrs	r1, r1, #5
 8005a2e:	2007      	movs	r0, #7
 8005a30:	f7fa fd66 	bl	8000500 <_test_assert>
 8005a34:	2800      	cmp	r0, #0
 8005a36:	d19c      	bne.n	8005972 <dyn3_execute+0x32>
 8005a38:	4620      	mov	r0, r4
 8005a3a:	f7ff fb81 	bl	8005140 <regfind>
 8005a3e:	4601      	mov	r1, r0
 8005a40:	2008      	movs	r0, #8
 8005a42:	f7fa fd5d 	bl	8000500 <_test_assert>
 8005a46:	2800      	cmp	r0, #0
 8005a48:	d193      	bne.n	8005972 <dyn3_execute+0x32>
 8005a4a:	4620      	mov	r0, r4
 8005a4c:	f7ff fb78 	bl	8005140 <regfind>
 8005a50:	4601      	mov	r1, r0
 8005a52:	2009      	movs	r0, #9
 8005a54:	f7fa fd54 	bl	8000500 <_test_assert>
 8005a58:	2800      	cmp	r0, #0
 8005a5a:	d18a      	bne.n	8005972 <dyn3_execute+0x32>
 8005a5c:	f44f 70fa 	mov.w	r0, #500	; 0x1f4
 8005a60:	f7ff fd86 	bl	8005570 <chThdSleep>
 8005a64:	f894 1020 	ldrb.w	r1, [r4, #32]
 8005a68:	f1a1 030f 	sub.w	r3, r1, #15
 8005a6c:	4259      	negs	r1, r3
 8005a6e:	4159      	adcs	r1, r3
 8005a70:	200a      	movs	r0, #10
 8005a72:	f7fa fd45 	bl	8000500 <_test_assert>
 8005a76:	2800      	cmp	r0, #0
 8005a78:	f47f af7b 	bne.w	8005972 <dyn3_execute+0x32>
 8005a7c:	4620      	mov	r0, r4
 8005a7e:	f7ff fb5f 	bl	8005140 <regfind>
 8005a82:	4601      	mov	r1, r0
 8005a84:	200b      	movs	r0, #11
 8005a86:	f7fa fd3b 	bl	8000500 <_test_assert>
 8005a8a:	2800      	cmp	r0, #0
 8005a8c:	f47f af71 	bne.w	8005972 <dyn3_execute+0x32>
 8005a90:	4620      	mov	r0, r4
 8005a92:	f7ff fb55 	bl	8005140 <regfind>
 8005a96:	f080 0101 	eor.w	r1, r0, #1
 8005a9a:	b2c9      	uxtb	r1, r1
 8005a9c:	200c      	movs	r0, #12
 8005a9e:	b003      	add	sp, #12
 8005aa0:	e8bd 4030 	ldmia.w	sp!, {r4, r5, lr}
 8005aa4:	f7fa bd2c 	b.w	8000500 <_test_assert>
 8005aa8:	b672      	cpsid	i
 8005aaa:	4b07      	ldr	r3, [pc, #28]	; (8005ac8 <dyn3_execute+0x188>)
 8005aac:	62eb      	str	r3, [r5, #44]	; 0x2c
 8005aae:	e7fe      	b.n	8005aae <dyn3_execute+0x16e>
 8005ab0:	b672      	cpsid	i
 8005ab2:	4b06      	ldr	r3, [pc, #24]	; (8005acc <dyn3_execute+0x18c>)
 8005ab4:	62eb      	str	r3, [r5, #44]	; 0x2c
 8005ab6:	e7fe      	b.n	8005ab6 <dyn3_execute+0x176>
 8005ab8:	20001558 	.word	0x20001558
 8005abc:	0800a7b0 	.word	0x0800a7b0
 8005ac0:	08003b61 	.word	0x08003b61
 8005ac4:	20001bb0 	.word	0x20001bb0
 8005ac8:	08009d80 	.word	0x08009d80
 8005acc:	08009f30 	.word	0x08009f30

08005ad0 <thread1.lto_priv.154>:
 8005ad0:	b510      	push	{r4, lr}
 8005ad2:	4604      	mov	r4, r0
 8005ad4:	f44f 70fa 	mov.w	r0, #500	; 0x1f4
 8005ad8:	f7ff fd4a 	bl	8005570 <chThdSleep>
 8005adc:	b1ec      	cbz	r4, 8005b1a <thread1.lto_priv.154+0x4a>
 8005ade:	2320      	movs	r3, #32
 8005ae0:	f383 8811 	msr	BASEPRI, r3
 8005ae4:	f7fc fbac 	bl	8002240 <_stats_start_measure_crit_thd>
 8005ae8:	f7fc fc9a 	bl	8002420 <_dbg_check_lock>
 8005aec:	4620      	mov	r0, r4
 8005aee:	2101      	movs	r1, #1
 8005af0:	f7fb f89e 	bl	8000c30 <chEvtSignalI>
 8005af4:	f7fc f9ac 	bl	8001e50 <chSchRescheduleS>
 8005af8:	f7fc fbb2 	bl	8002260 <_dbg_check_unlock>
 8005afc:	f7fc fb98 	bl	8002230 <_stats_stop_measure_crit_thd>
 8005b00:	4b0a      	ldr	r3, [pc, #40]	; (8005b2c <thread1.lto_priv.154+0x5c>)
 8005b02:	681a      	ldr	r2, [r3, #0]
 8005b04:	429a      	cmp	r2, r3
 8005b06:	d004      	beq.n	8005b12 <thread1.lto_priv.154+0x42>
 8005b08:	6999      	ldr	r1, [r3, #24]
 8005b0a:	6892      	ldr	r2, [r2, #8]
 8005b0c:	6889      	ldr	r1, [r1, #8]
 8005b0e:	4291      	cmp	r1, r2
 8005b10:	d308      	bcc.n	8005b24 <thread1.lto_priv.154+0x54>
 8005b12:	2300      	movs	r3, #0
 8005b14:	f383 8811 	msr	BASEPRI, r3
 8005b18:	bd10      	pop	{r4, pc}
 8005b1a:	b672      	cpsid	i
 8005b1c:	4b03      	ldr	r3, [pc, #12]	; (8005b2c <thread1.lto_priv.154+0x5c>)
 8005b1e:	4a04      	ldr	r2, [pc, #16]	; (8005b30 <thread1.lto_priv.154+0x60>)
 8005b20:	62da      	str	r2, [r3, #44]	; 0x2c
 8005b22:	e7fe      	b.n	8005b22 <thread1.lto_priv.154+0x52>
 8005b24:	b672      	cpsid	i
 8005b26:	4a03      	ldr	r2, [pc, #12]	; (8005b34 <thread1.lto_priv.154+0x64>)
 8005b28:	62da      	str	r2, [r3, #44]	; 0x2c
 8005b2a:	e7fe      	b.n	8005b2a <thread1.lto_priv.154+0x5a>
 8005b2c:	20001558 	.word	0x20001558
 8005b30:	0800a090 	.word	0x0800a090
 8005b34:	08009dd0 	.word	0x08009dd0
	...

08005b40 <thread2.lto_priv.160>:
 8005b40:	b538      	push	{r3, r4, r5, lr}
 8005b42:	2320      	movs	r3, #32
 8005b44:	f383 8811 	msr	BASEPRI, r3
 8005b48:	4c21      	ldr	r4, [pc, #132]	; (8005bd0 <thread2.lto_priv.160+0x90>)
 8005b4a:	f7fc fb79 	bl	8002240 <_stats_start_measure_crit_thd>
 8005b4e:	f7fc fc67 	bl	8002420 <_dbg_check_lock>
 8005b52:	2100      	movs	r1, #0
 8005b54:	481f      	ldr	r0, [pc, #124]	; (8005bd4 <thread2.lto_priv.160+0x94>)
 8005b56:	f7fb f893 	bl	8000c80 <chEvtBroadcastFlagsI>
 8005b5a:	f7fc f979 	bl	8001e50 <chSchRescheduleS>
 8005b5e:	f7fc fb7f 	bl	8002260 <_dbg_check_unlock>
 8005b62:	f7fc fb65 	bl	8002230 <_stats_stop_measure_crit_thd>
 8005b66:	6823      	ldr	r3, [r4, #0]
 8005b68:	42a3      	cmp	r3, r4
 8005b6a:	d004      	beq.n	8005b76 <thread2.lto_priv.160+0x36>
 8005b6c:	69a2      	ldr	r2, [r4, #24]
 8005b6e:	689b      	ldr	r3, [r3, #8]
 8005b70:	6892      	ldr	r2, [r2, #8]
 8005b72:	429a      	cmp	r2, r3
 8005b74:	d327      	bcc.n	8005bc6 <thread2.lto_priv.160+0x86>
 8005b76:	2500      	movs	r5, #0
 8005b78:	f385 8811 	msr	BASEPRI, r5
 8005b7c:	f44f 70fa 	mov.w	r0, #500	; 0x1f4
 8005b80:	f7ff fcf6 	bl	8005570 <chThdSleep>
 8005b84:	2320      	movs	r3, #32
 8005b86:	f383 8811 	msr	BASEPRI, r3
 8005b8a:	f7fc fb59 	bl	8002240 <_stats_start_measure_crit_thd>
 8005b8e:	f7fc fc47 	bl	8002420 <_dbg_check_lock>
 8005b92:	4629      	mov	r1, r5
 8005b94:	4810      	ldr	r0, [pc, #64]	; (8005bd8 <thread2.lto_priv.160+0x98>)
 8005b96:	f7fb f873 	bl	8000c80 <chEvtBroadcastFlagsI>
 8005b9a:	f7fc f959 	bl	8001e50 <chSchRescheduleS>
 8005b9e:	f7fc fb5f 	bl	8002260 <_dbg_check_unlock>
 8005ba2:	f7fc fb45 	bl	8002230 <_stats_stop_measure_crit_thd>
 8005ba6:	6823      	ldr	r3, [r4, #0]
 8005ba8:	42a3      	cmp	r3, r4
 8005baa:	d004      	beq.n	8005bb6 <thread2.lto_priv.160+0x76>
 8005bac:	69a2      	ldr	r2, [r4, #24]
 8005bae:	689b      	ldr	r3, [r3, #8]
 8005bb0:	6892      	ldr	r2, [r2, #8]
 8005bb2:	429a      	cmp	r2, r3
 8005bb4:	d303      	bcc.n	8005bbe <thread2.lto_priv.160+0x7e>
 8005bb6:	2300      	movs	r3, #0
 8005bb8:	f383 8811 	msr	BASEPRI, r3
 8005bbc:	bd38      	pop	{r3, r4, r5, pc}
 8005bbe:	b672      	cpsid	i
 8005bc0:	4b06      	ldr	r3, [pc, #24]	; (8005bdc <thread2.lto_priv.160+0x9c>)
 8005bc2:	62e3      	str	r3, [r4, #44]	; 0x2c
 8005bc4:	e7fe      	b.n	8005bc4 <thread2.lto_priv.160+0x84>
 8005bc6:	b672      	cpsid	i
 8005bc8:	4b04      	ldr	r3, [pc, #16]	; (8005bdc <thread2.lto_priv.160+0x9c>)
 8005bca:	62e3      	str	r3, [r4, #44]	; 0x2c
 8005bcc:	e7fe      	b.n	8005bcc <thread2.lto_priv.160+0x8c>
 8005bce:	bf00      	nop
 8005bd0:	20001558 	.word	0x20001558
 8005bd4:	20000c0c 	.word	0x20000c0c
 8005bd8:	20000c10 	.word	0x20000c10
 8005bdc:	08009dd0 	.word	0x08009dd0

08005be0 <thread4a>:
 8005be0:	b510      	push	{r4, lr}
 8005be2:	4c06      	ldr	r4, [pc, #24]	; (8005bfc <thread4a+0x1c>)
 8005be4:	f44f 70fa 	mov.w	r0, #500	; 0x1f4
 8005be8:	f7ff fcc2 	bl	8005570 <chThdSleep>
 8005bec:	4620      	mov	r0, r4
 8005bee:	f7fe fd17 	bl	8004620 <chMtxLock>
 8005bf2:	4620      	mov	r0, r4
 8005bf4:	e8bd 4010 	ldmia.w	sp!, {r4, lr}
 8005bf8:	f7fe bcaa 	b.w	8004550 <chMtxUnlock>
 8005bfc:	20000c68 	.word	0x20000c68

08005c00 <thread4b>:
 8005c00:	b510      	push	{r4, lr}
 8005c02:	4c06      	ldr	r4, [pc, #24]	; (8005c1c <thread4b+0x1c>)
 8005c04:	f240 50dc 	movw	r0, #1500	; 0x5dc
 8005c08:	f7ff fcb2 	bl	8005570 <chThdSleep>
 8005c0c:	4620      	mov	r0, r4
 8005c0e:	f7fe fd07 	bl	8004620 <chMtxLock>
 8005c12:	4620      	mov	r0, r4
 8005c14:	e8bd 4010 	ldmia.w	sp!, {r4, lr}
 8005c18:	f7fe bc9a 	b.w	8004550 <chMtxUnlock>
 8005c1c:	20000c58 	.word	0x20000c58

08005c20 <thread2.lto_priv.159>:
 8005c20:	b508      	push	{r3, lr}
 8005c22:	f44f 70fa 	mov.w	r0, #500	; 0x1f4
 8005c26:	f7ff fca3 	bl	8005570 <chThdSleep>
 8005c2a:	2320      	movs	r3, #32
 8005c2c:	f383 8811 	msr	BASEPRI, r3
 8005c30:	f7fc fb06 	bl	8002240 <_stats_start_measure_crit_thd>
 8005c34:	f7fc fbf4 	bl	8002420 <_dbg_check_lock>
 8005c38:	480c      	ldr	r0, [pc, #48]	; (8005c6c <thread2.lto_priv.159+0x4c>)
 8005c3a:	f7fb f889 	bl	8000d50 <chSemSignalI>
 8005c3e:	f7fc f907 	bl	8001e50 <chSchRescheduleS>
 8005c42:	f7fc fb0d 	bl	8002260 <_dbg_check_unlock>
 8005c46:	f7fc faf3 	bl	8002230 <_stats_stop_measure_crit_thd>
 8005c4a:	4b09      	ldr	r3, [pc, #36]	; (8005c70 <thread2.lto_priv.159+0x50>)
 8005c4c:	681a      	ldr	r2, [r3, #0]
 8005c4e:	429a      	cmp	r2, r3
 8005c50:	d004      	beq.n	8005c5c <thread2.lto_priv.159+0x3c>
 8005c52:	6999      	ldr	r1, [r3, #24]
 8005c54:	6892      	ldr	r2, [r2, #8]
 8005c56:	6889      	ldr	r1, [r1, #8]
 8005c58:	4291      	cmp	r1, r2
 8005c5a:	d303      	bcc.n	8005c64 <thread2.lto_priv.159+0x44>
 8005c5c:	2300      	movs	r3, #0
 8005c5e:	f383 8811 	msr	BASEPRI, r3
 8005c62:	bd08      	pop	{r3, pc}
 8005c64:	b672      	cpsid	i
 8005c66:	4a03      	ldr	r2, [pc, #12]	; (8005c74 <thread2.lto_priv.159+0x54>)
 8005c68:	62da      	str	r2, [r3, #44]	; 0x2c
 8005c6a:	e7fe      	b.n	8005c6a <thread2.lto_priv.159+0x4a>
 8005c6c:	20000cd0 	.word	0x20000cd0
 8005c70:	20001558 	.word	0x20001558
 8005c74:	08009e60 	.word	0x08009e60
	...

08005c80 <test_wait_tick>:
 8005c80:	b510      	push	{r4, lr}
 8005c82:	2001      	movs	r0, #1
 8005c84:	f7ff fc74 	bl	8005570 <chThdSleep>
 8005c88:	2320      	movs	r3, #32
 8005c8a:	f383 8811 	msr	BASEPRI, r3
 8005c8e:	f7fc fad7 	bl	8002240 <_stats_start_measure_crit_thd>
 8005c92:	f7fc fbc5 	bl	8002420 <_dbg_check_lock>
 8005c96:	f04f 4380 	mov.w	r3, #1073741824	; 0x40000000
 8005c9a:	6a5c      	ldr	r4, [r3, #36]	; 0x24
 8005c9c:	f7fc fae0 	bl	8002260 <_dbg_check_unlock>
 8005ca0:	f7fc fac6 	bl	8002230 <_stats_stop_measure_crit_thd>
 8005ca4:	4b08      	ldr	r3, [pc, #32]	; (8005cc8 <test_wait_tick+0x48>)
 8005ca6:	681a      	ldr	r2, [r3, #0]
 8005ca8:	429a      	cmp	r2, r3
 8005caa:	d004      	beq.n	8005cb6 <test_wait_tick+0x36>
 8005cac:	6999      	ldr	r1, [r3, #24]
 8005cae:	6892      	ldr	r2, [r2, #8]
 8005cb0:	6889      	ldr	r1, [r1, #8]
 8005cb2:	4291      	cmp	r1, r2
 8005cb4:	d304      	bcc.n	8005cc0 <test_wait_tick+0x40>
 8005cb6:	2300      	movs	r3, #0
 8005cb8:	f383 8811 	msr	BASEPRI, r3
 8005cbc:	4620      	mov	r0, r4
 8005cbe:	bd10      	pop	{r4, pc}
 8005cc0:	b672      	cpsid	i
 8005cc2:	4a02      	ldr	r2, [pc, #8]	; (8005ccc <test_wait_tick+0x4c>)
 8005cc4:	62da      	str	r2, [r3, #44]	; 0x2c
 8005cc6:	e7fe      	b.n	8005cc6 <test_wait_tick+0x46>
 8005cc8:	20001558 	.word	0x20001558
 8005ccc:	08009e40 	.word	0x08009e40

08005cd0 <bmk12_execute>:
 8005cd0:	b570      	push	{r4, r5, r6, lr}
 8005cd2:	f7ff ffd5 	bl	8005c80 <test_wait_tick>
 8005cd6:	f7fc feb3 	bl	8002a40 <test_start_timer.constprop.5>
 8005cda:	4e15      	ldr	r6, [pc, #84]	; (8005d30 <bmk12_execute+0x60>)
 8005cdc:	4c15      	ldr	r4, [pc, #84]	; (8005d34 <bmk12_execute+0x64>)
 8005cde:	2500      	movs	r5, #0
 8005ce0:	4620      	mov	r0, r4
 8005ce2:	f7fe fc9d 	bl	8004620 <chMtxLock>
 8005ce6:	4620      	mov	r0, r4
 8005ce8:	f7fe fc32 	bl	8004550 <chMtxUnlock>
 8005cec:	4620      	mov	r0, r4
 8005cee:	f7fe fc97 	bl	8004620 <chMtxLock>
 8005cf2:	4620      	mov	r0, r4
 8005cf4:	f7fe fc2c 	bl	8004550 <chMtxUnlock>
 8005cf8:	4620      	mov	r0, r4
 8005cfa:	f7fe fc91 	bl	8004620 <chMtxLock>
 8005cfe:	4620      	mov	r0, r4
 8005d00:	f7fe fc26 	bl	8004550 <chMtxUnlock>
 8005d04:	4620      	mov	r0, r4
 8005d06:	f7fe fc8b 	bl	8004620 <chMtxLock>
 8005d0a:	4620      	mov	r0, r4
 8005d0c:	f7fe fc20 	bl	8004550 <chMtxUnlock>
 8005d10:	7833      	ldrb	r3, [r6, #0]
 8005d12:	3501      	adds	r5, #1
 8005d14:	2b00      	cmp	r3, #0
 8005d16:	d0e3      	beq.n	8005ce0 <bmk12_execute+0x10>
 8005d18:	4807      	ldr	r0, [pc, #28]	; (8005d38 <bmk12_execute+0x68>)
 8005d1a:	f7fa fc29 	bl	8000570 <test_print>
 8005d1e:	00a8      	lsls	r0, r5, #2
 8005d20:	f7fa fb9e 	bl	8000460 <test_printn>
 8005d24:	4805      	ldr	r0, [pc, #20]	; (8005d3c <bmk12_execute+0x6c>)
 8005d26:	e8bd 4070 	ldmia.w	sp!, {r4, r5, r6, lr}
 8005d2a:	f7fa bc01 	b.w	8000530 <test_println>
 8005d2e:	bf00      	nop
 8005d30:	20002368 	.word	0x20002368
 8005d34:	20001c14 	.word	0x20001c14
 8005d38:	0800a320 	.word	0x0800a320
 8005d3c:	0800a330 	.word	0x0800a330

08005d40 <bmk11_execute>:
 8005d40:	b570      	push	{r4, r5, r6, lr}
 8005d42:	f7ff ff9d 	bl	8005c80 <test_wait_tick>
 8005d46:	f7fc fe7b 	bl	8002a40 <test_start_timer.constprop.5>
 8005d4a:	4e15      	ldr	r6, [pc, #84]	; (8005da0 <bmk11_execute+0x60>)
 8005d4c:	4c15      	ldr	r4, [pc, #84]	; (8005da4 <bmk11_execute+0x64>)
 8005d4e:	2500      	movs	r5, #0
 8005d50:	4620      	mov	r0, r4
 8005d52:	f7ff f835 	bl	8004dc0 <chSemWait>
 8005d56:	4620      	mov	r0, r4
 8005d58:	f7fe fff2 	bl	8004d40 <chSemSignal>
 8005d5c:	4620      	mov	r0, r4
 8005d5e:	f7ff f82f 	bl	8004dc0 <chSemWait>
 8005d62:	4620      	mov	r0, r4
 8005d64:	f7fe ffec 	bl	8004d40 <chSemSignal>
 8005d68:	4620      	mov	r0, r4
 8005d6a:	f7ff f829 	bl	8004dc0 <chSemWait>
 8005d6e:	4620      	mov	r0, r4
 8005d70:	f7fe ffe6 	bl	8004d40 <chSemSignal>
 8005d74:	4620      	mov	r0, r4
 8005d76:	f7ff f823 	bl	8004dc0 <chSemWait>
 8005d7a:	4620      	mov	r0, r4
 8005d7c:	f7fe ffe0 	bl	8004d40 <chSemSignal>
 8005d80:	7833      	ldrb	r3, [r6, #0]
 8005d82:	3501      	adds	r5, #1
 8005d84:	2b00      	cmp	r3, #0
 8005d86:	d0e3      	beq.n	8005d50 <bmk11_execute+0x10>
 8005d88:	4807      	ldr	r0, [pc, #28]	; (8005da8 <bmk11_execute+0x68>)
 8005d8a:	f7fa fbf1 	bl	8000570 <test_print>
 8005d8e:	00a8      	lsls	r0, r5, #2
 8005d90:	f7fa fb66 	bl	8000460 <test_printn>
 8005d94:	4805      	ldr	r0, [pc, #20]	; (8005dac <bmk11_execute+0x6c>)
 8005d96:	e8bd 4070 	ldmia.w	sp!, {r4, r5, r6, lr}
 8005d9a:	f7fa bbc9 	b.w	8000530 <test_println>
 8005d9e:	bf00      	nop
 8005da0:	20002368 	.word	0x20002368
 8005da4:	20001c28 	.word	0x20001c28
 8005da8:	0800a320 	.word	0x0800a320
 8005dac:	0800a310 	.word	0x0800a310

08005db0 <bmk10_execute>:
 8005db0:	e92d 43f8 	stmdb	sp!, {r3, r4, r5, r6, r7, r8, r9, lr}
 8005db4:	f7ff ff64 	bl	8005c80 <test_wait_tick>
 8005db8:	f7fc fe42 	bl	8002a40 <test_start_timer.constprop.5>
 8005dbc:	4c22      	ldr	r4, [pc, #136]	; (8005e48 <bmk10_execute+0x98>)
 8005dbe:	f8df 90a0 	ldr.w	r9, [pc, #160]	; 8005e60 <bmk10_execute+0xb0>
 8005dc2:	f8df 80a0 	ldr.w	r8, [pc, #160]	; 8005e64 <bmk10_execute+0xb4>
 8005dc6:	4f21      	ldr	r7, [pc, #132]	; (8005e4c <bmk10_execute+0x9c>)
 8005dc8:	4e21      	ldr	r6, [pc, #132]	; (8005e50 <bmk10_execute+0xa0>)
 8005dca:	2500      	movs	r5, #0
 8005dcc:	2320      	movs	r3, #32
 8005dce:	f383 8811 	msr	BASEPRI, r3
 8005dd2:	f7fc fa35 	bl	8002240 <_stats_start_measure_crit_thd>
 8005dd6:	f7fc fb23 	bl	8002420 <_dbg_check_lock>
 8005dda:	4642      	mov	r2, r8
 8005ddc:	4638      	mov	r0, r7
 8005dde:	2300      	movs	r3, #0
 8005de0:	2101      	movs	r1, #1
 8005de2:	f7fb f8ad 	bl	8000f40 <chVTDoSetI>
 8005de6:	4642      	mov	r2, r8
 8005de8:	2300      	movs	r3, #0
 8005dea:	f242 7110 	movw	r1, #10000	; 0x2710
 8005dee:	4630      	mov	r0, r6
 8005df0:	f7fb f8a6 	bl	8000f40 <chVTDoSetI>
 8005df4:	4638      	mov	r0, r7
 8005df6:	f7fb f85b 	bl	8000eb0 <chVTDoResetI>
 8005dfa:	4630      	mov	r0, r6
 8005dfc:	f7fb f858 	bl	8000eb0 <chVTDoResetI>
 8005e00:	f7fc fa2e 	bl	8002260 <_dbg_check_unlock>
 8005e04:	f7fc fa14 	bl	8002230 <_stats_stop_measure_crit_thd>
 8005e08:	6823      	ldr	r3, [r4, #0]
 8005e0a:	42a3      	cmp	r3, r4
 8005e0c:	f04f 0200 	mov.w	r2, #0
 8005e10:	d004      	beq.n	8005e1c <bmk10_execute+0x6c>
 8005e12:	69a1      	ldr	r1, [r4, #24]
 8005e14:	689b      	ldr	r3, [r3, #8]
 8005e16:	6889      	ldr	r1, [r1, #8]
 8005e18:	4299      	cmp	r1, r3
 8005e1a:	d311      	bcc.n	8005e40 <bmk10_execute+0x90>
 8005e1c:	f382 8811 	msr	BASEPRI, r2
 8005e20:	f899 3000 	ldrb.w	r3, [r9]
 8005e24:	3501      	adds	r5, #1
 8005e26:	2b00      	cmp	r3, #0
 8005e28:	d0d0      	beq.n	8005dcc <bmk10_execute+0x1c>
 8005e2a:	480a      	ldr	r0, [pc, #40]	; (8005e54 <bmk10_execute+0xa4>)
 8005e2c:	f7fa fba0 	bl	8000570 <test_print>
 8005e30:	0068      	lsls	r0, r5, #1
 8005e32:	f7fa fb15 	bl	8000460 <test_printn>
 8005e36:	4808      	ldr	r0, [pc, #32]	; (8005e58 <bmk10_execute+0xa8>)
 8005e38:	e8bd 43f8 	ldmia.w	sp!, {r3, r4, r5, r6, r7, r8, r9, lr}
 8005e3c:	f7fa bb78 	b.w	8000530 <test_println>
 8005e40:	b672      	cpsid	i
 8005e42:	4b06      	ldr	r3, [pc, #24]	; (8005e5c <bmk10_execute+0xac>)
 8005e44:	62e3      	str	r3, [r4, #44]	; 0x2c
 8005e46:	e7fe      	b.n	8005e46 <bmk10_execute+0x96>
 8005e48:	20001558 	.word	0x20001558
 8005e4c:	200023a8 	.word	0x200023a8
 8005e50:	200023bc 	.word	0x200023bc
 8005e54:	0800a320 	.word	0x0800a320
 8005e58:	0800a300 	.word	0x0800a300
 8005e5c:	08009ec0 	.word	0x08009ec0
 8005e60:	20002368 	.word	0x20002368
 8005e64:	08000311 	.word	0x08000311
	...

08005e70 <bmk9_execute>:
 8005e70:	e92d 43f8 	stmdb	sp!, {r3, r4, r5, r6, r7, r8, r9, lr}
 8005e74:	4b31      	ldr	r3, [pc, #196]	; (8005f3c <bmk9_execute+0xcc>)
 8005e76:	4c32      	ldr	r4, [pc, #200]	; (8005f40 <bmk9_execute+0xd0>)
 8005e78:	4e32      	ldr	r6, [pc, #200]	; (8005f44 <bmk9_execute+0xd4>)
 8005e7a:	60e3      	str	r3, [r4, #12]
 8005e7c:	f103 0210 	add.w	r2, r3, #16
 8005e80:	2500      	movs	r5, #0
 8005e82:	6122      	str	r2, [r4, #16]
 8005e84:	e9c4 3305 	strd	r3, r3, [r4, #20]
 8005e88:	6024      	str	r4, [r4, #0]
 8005e8a:	6064      	str	r4, [r4, #4]
 8005e8c:	60a5      	str	r5, [r4, #8]
 8005e8e:	e9c4 5507 	strd	r5, r5, [r4, #28]
 8005e92:	f7ff fef5 	bl	8005c80 <test_wait_tick>
 8005e96:	f7fc fdd3 	bl	8002a40 <test_start_timer.constprop.5>
 8005e9a:	f8df 90b8 	ldr.w	r9, [pc, #184]	; 8005f54 <bmk9_execute+0xe4>
 8005e9e:	46a8      	mov	r8, r5
 8005ea0:	2720      	movs	r7, #32
 8005ea2:	f387 8811 	msr	BASEPRI, r7
 8005ea6:	f7fc f9cb 	bl	8002240 <_stats_start_measure_crit_thd>
 8005eaa:	f7fc fab9 	bl	8002420 <_dbg_check_lock>
 8005eae:	2100      	movs	r1, #0
 8005eb0:	4620      	mov	r0, r4
 8005eb2:	f7fa fe4d 	bl	8000b50 <chIQPutI>
 8005eb6:	2101      	movs	r1, #1
 8005eb8:	4620      	mov	r0, r4
 8005eba:	f7fa fe49 	bl	8000b50 <chIQPutI>
 8005ebe:	2102      	movs	r1, #2
 8005ec0:	4620      	mov	r0, r4
 8005ec2:	f7fa fe45 	bl	8000b50 <chIQPutI>
 8005ec6:	2103      	movs	r1, #3
 8005ec8:	4620      	mov	r0, r4
 8005eca:	f7fa fe41 	bl	8000b50 <chIQPutI>
 8005ece:	f7fc f9c7 	bl	8002260 <_dbg_check_unlock>
 8005ed2:	f7fc f9ad 	bl	8002230 <_stats_stop_measure_crit_thd>
 8005ed6:	6833      	ldr	r3, [r6, #0]
 8005ed8:	42b3      	cmp	r3, r6
 8005eda:	d004      	beq.n	8005ee6 <bmk9_execute+0x76>
 8005edc:	69b2      	ldr	r2, [r6, #24]
 8005ede:	689b      	ldr	r3, [r3, #8]
 8005ee0:	6892      	ldr	r2, [r2, #8]
 8005ee2:	429a      	cmp	r2, r3
 8005ee4:	d325      	bcc.n	8005f32 <bmk9_execute+0xc2>
 8005ee6:	f388 8811 	msr	BASEPRI, r8
 8005eea:	f04f 31ff 	mov.w	r1, #4294967295	; 0xffffffff
 8005eee:	4620      	mov	r0, r4
 8005ef0:	f7fe f8e6 	bl	80040c0 <chIQGetTimeout>
 8005ef4:	f04f 31ff 	mov.w	r1, #4294967295	; 0xffffffff
 8005ef8:	4620      	mov	r0, r4
 8005efa:	f7fe f8e1 	bl	80040c0 <chIQGetTimeout>
 8005efe:	f04f 31ff 	mov.w	r1, #4294967295	; 0xffffffff
 8005f02:	4620      	mov	r0, r4
 8005f04:	f7fe f8dc 	bl	80040c0 <chIQGetTimeout>
 8005f08:	4620      	mov	r0, r4
 8005f0a:	f04f 31ff 	mov.w	r1, #4294967295	; 0xffffffff
 8005f0e:	f7fe f8d7 	bl	80040c0 <chIQGetTimeout>
 8005f12:	f899 3000 	ldrb.w	r3, [r9]
 8005f16:	3501      	adds	r5, #1
 8005f18:	2b00      	cmp	r3, #0
 8005f1a:	d0c2      	beq.n	8005ea2 <bmk9_execute+0x32>
 8005f1c:	480a      	ldr	r0, [pc, #40]	; (8005f48 <bmk9_execute+0xd8>)
 8005f1e:	f7fa fb27 	bl	8000570 <test_print>
 8005f22:	00a8      	lsls	r0, r5, #2
 8005f24:	f7fa fa9c 	bl	8000460 <test_printn>
 8005f28:	4808      	ldr	r0, [pc, #32]	; (8005f4c <bmk9_execute+0xdc>)
 8005f2a:	e8bd 43f8 	ldmia.w	sp!, {r3, r4, r5, r6, r7, r8, r9, lr}
 8005f2e:	f7fa baff 	b.w	8000530 <test_println>
 8005f32:	b672      	cpsid	i
 8005f34:	4b06      	ldr	r3, [pc, #24]	; (8005f50 <bmk9_execute+0xe0>)
 8005f36:	62f3      	str	r3, [r6, #44]	; 0x2c
 8005f38:	e7fe      	b.n	8005f38 <bmk9_execute+0xc8>
 8005f3a:	bf00      	nop
 8005f3c:	20001bd0 	.word	0x20001bd0
 8005f40:	20001be0 	.word	0x20001be0
 8005f44:	20001558 	.word	0x20001558
 8005f48:	0800a320 	.word	0x0800a320
 8005f4c:	0800a440 	.word	0x0800a440
 8005f50:	08009ec0 	.word	0x08009ec0
 8005f54:	20002368 	.word	0x20002368
	...

08005f60 <msg_loop_test>:
 8005f60:	b570      	push	{r4, r5, r6, lr}
 8005f62:	4605      	mov	r5, r0
 8005f64:	f7ff fe8c 	bl	8005c80 <test_wait_tick>
 8005f68:	f7fc fd6a 	bl	8002a40 <test_start_timer.constprop.5>
 8005f6c:	4e07      	ldr	r6, [pc, #28]	; (8005f8c <msg_loop_test+0x2c>)
 8005f6e:	2400      	movs	r4, #0
 8005f70:	2101      	movs	r1, #1
 8005f72:	4628      	mov	r0, r5
 8005f74:	f7fe f994 	bl	80042a0 <chMsgSend>
 8005f78:	7833      	ldrb	r3, [r6, #0]
 8005f7a:	3401      	adds	r4, #1
 8005f7c:	2b00      	cmp	r3, #0
 8005f7e:	d0f7      	beq.n	8005f70 <msg_loop_test+0x10>
 8005f80:	4628      	mov	r0, r5
 8005f82:	2100      	movs	r1, #0
 8005f84:	f7fe f98c 	bl	80042a0 <chMsgSend>
 8005f88:	4620      	mov	r0, r4
 8005f8a:	bd70      	pop	{r4, r5, r6, pc}
 8005f8c:	20002368 	.word	0x20002368

08005f90 <thd4_execute>:
 8005f90:	b570      	push	{r4, r5, r6, lr}
 8005f92:	f7ff fe75 	bl	8005c80 <test_wait_tick>
 8005f96:	2320      	movs	r3, #32
 8005f98:	f383 8811 	msr	BASEPRI, r3
 8005f9c:	f7fc f950 	bl	8002240 <_stats_start_measure_crit_thd>
 8005fa0:	4c62      	ldr	r4, [pc, #392]	; (800612c <thd4_execute+0x19c>)
 8005fa2:	f7fc fa3d 	bl	8002420 <_dbg_check_lock>
 8005fa6:	f04f 4380 	mov.w	r3, #1073741824	; 0x40000000
 8005faa:	6a5d      	ldr	r5, [r3, #36]	; 0x24
 8005fac:	f7fc f958 	bl	8002260 <_dbg_check_unlock>
 8005fb0:	f7fc f93e 	bl	8002230 <_stats_stop_measure_crit_thd>
 8005fb4:	6823      	ldr	r3, [r4, #0]
 8005fb6:	42a3      	cmp	r3, r4
 8005fb8:	d005      	beq.n	8005fc6 <thd4_execute+0x36>
 8005fba:	69a2      	ldr	r2, [r4, #24]
 8005fbc:	689b      	ldr	r3, [r3, #8]
 8005fbe:	6892      	ldr	r2, [r2, #8]
 8005fc0:	429a      	cmp	r2, r3
 8005fc2:	f0c0 809e 	bcc.w	8006102 <thd4_execute+0x172>
 8005fc6:	2300      	movs	r3, #0
 8005fc8:	f383 8811 	msr	BASEPRI, r3
 8005fcc:	f44f 707a 	mov.w	r0, #1000	; 0x3e8
 8005fd0:	f7ff face 	bl	8005570 <chThdSleep>
 8005fd4:	f205 32eb 	addw	r2, r5, #1003	; 0x3eb
 8005fd8:	f505 717a 	add.w	r1, r5, #1000	; 0x3e8
 8005fdc:	2001      	movs	r0, #1
 8005fde:	f7fd f997 	bl	8003310 <_test_assert_time_window>
 8005fe2:	b100      	cbz	r0, 8005fe6 <thd4_execute+0x56>
 8005fe4:	bd70      	pop	{r4, r5, r6, pc}
 8005fe6:	2320      	movs	r3, #32
 8005fe8:	f383 8811 	msr	BASEPRI, r3
 8005fec:	f7fc f928 	bl	8002240 <_stats_start_measure_crit_thd>
 8005ff0:	f7fc fa16 	bl	8002420 <_dbg_check_lock>
 8005ff4:	f04f 4380 	mov.w	r3, #1073741824	; 0x40000000
 8005ff8:	6a5d      	ldr	r5, [r3, #36]	; 0x24
 8005ffa:	f7fc f931 	bl	8002260 <_dbg_check_unlock>
 8005ffe:	f7fc f917 	bl	8002230 <_stats_stop_measure_crit_thd>
 8006002:	6823      	ldr	r3, [r4, #0]
 8006004:	42a3      	cmp	r3, r4
 8006006:	d004      	beq.n	8006012 <thd4_execute+0x82>
 8006008:	69a2      	ldr	r2, [r4, #24]
 800600a:	689b      	ldr	r3, [r3, #8]
 800600c:	6892      	ldr	r2, [r2, #8]
 800600e:	429a      	cmp	r2, r3
 8006010:	d37f      	bcc.n	8006112 <thd4_execute+0x182>
 8006012:	2300      	movs	r3, #0
 8006014:	f383 8811 	msr	BASEPRI, r3
 8006018:	f44f 707a 	mov.w	r0, #1000	; 0x3e8
 800601c:	f7ff faa8 	bl	8005570 <chThdSleep>
 8006020:	f205 32eb 	addw	r2, r5, #1003	; 0x3eb
 8006024:	f505 717a 	add.w	r1, r5, #1000	; 0x3e8
 8006028:	2002      	movs	r0, #2
 800602a:	f7fd f971 	bl	8003310 <_test_assert_time_window>
 800602e:	2800      	cmp	r0, #0
 8006030:	d1d8      	bne.n	8005fe4 <thd4_execute+0x54>
 8006032:	2320      	movs	r3, #32
 8006034:	f383 8811 	msr	BASEPRI, r3
 8006038:	f7fc f902 	bl	8002240 <_stats_start_measure_crit_thd>
 800603c:	f7fc f9f0 	bl	8002420 <_dbg_check_lock>
 8006040:	f04f 4380 	mov.w	r3, #1073741824	; 0x40000000
 8006044:	6a5d      	ldr	r5, [r3, #36]	; 0x24
 8006046:	f7fc f90b 	bl	8002260 <_dbg_check_unlock>
 800604a:	f7fc f8f1 	bl	8002230 <_stats_stop_measure_crit_thd>
 800604e:	6823      	ldr	r3, [r4, #0]
 8006050:	42a3      	cmp	r3, r4
 8006052:	d004      	beq.n	800605e <thd4_execute+0xce>
 8006054:	69a2      	ldr	r2, [r4, #24]
 8006056:	689b      	ldr	r3, [r3, #8]
 8006058:	6892      	ldr	r2, [r2, #8]
 800605a:	429a      	cmp	r2, r3
 800605c:	d35d      	bcc.n	800611a <thd4_execute+0x18a>
 800605e:	2300      	movs	r3, #0
 8006060:	f383 8811 	msr	BASEPRI, r3
 8006064:	f242 7010 	movw	r0, #10000	; 0x2710
 8006068:	f7ff fa82 	bl	8005570 <chThdSleep>
 800606c:	f505 521c 	add.w	r2, r5, #9984	; 0x2700
 8006070:	4611      	mov	r1, r2
 8006072:	3110      	adds	r1, #16
 8006074:	3213      	adds	r2, #19
 8006076:	2003      	movs	r0, #3
 8006078:	f7fd f94a 	bl	8003310 <_test_assert_time_window>
 800607c:	2800      	cmp	r0, #0
 800607e:	d1b1      	bne.n	8005fe4 <thd4_execute+0x54>
 8006080:	2320      	movs	r3, #32
 8006082:	f383 8811 	msr	BASEPRI, r3
 8006086:	f7fc f8db 	bl	8002240 <_stats_start_measure_crit_thd>
 800608a:	f7fc f9c9 	bl	8002420 <_dbg_check_lock>
 800608e:	f04f 4380 	mov.w	r3, #1073741824	; 0x40000000
 8006092:	6a5e      	ldr	r6, [r3, #36]	; 0x24
 8006094:	f7fc f8e4 	bl	8002260 <_dbg_check_unlock>
 8006098:	f7fc f8ca 	bl	8002230 <_stats_stop_measure_crit_thd>
 800609c:	6823      	ldr	r3, [r4, #0]
 800609e:	42a3      	cmp	r3, r4
 80060a0:	d004      	beq.n	80060ac <thd4_execute+0x11c>
 80060a2:	69a2      	ldr	r2, [r4, #24]
 80060a4:	689b      	ldr	r3, [r3, #8]
 80060a6:	6892      	ldr	r2, [r2, #8]
 80060a8:	429a      	cmp	r2, r3
 80060aa:	d33a      	bcc.n	8006122 <thd4_execute+0x192>
 80060ac:	2300      	movs	r3, #0
 80060ae:	f383 8811 	msr	BASEPRI, r3
 80060b2:	2320      	movs	r3, #32
 80060b4:	f506 757a 	add.w	r5, r6, #1000	; 0x3e8
 80060b8:	f383 8811 	msr	BASEPRI, r3
 80060bc:	f7fc f8c0 	bl	8002240 <_stats_start_measure_crit_thd>
 80060c0:	f7fc f9ae 	bl	8002420 <_dbg_check_lock>
 80060c4:	f04f 4380 	mov.w	r3, #1073741824	; 0x40000000
 80060c8:	6a59      	ldr	r1, [r3, #36]	; 0x24
 80060ca:	1a69      	subs	r1, r5, r1
 80060cc:	d002      	beq.n	80060d4 <thd4_execute+0x144>
 80060ce:	2008      	movs	r0, #8
 80060d0:	f7fb ffe6 	bl	80020a0 <chSchGoSleepTimeoutS>
 80060d4:	f7fc f8c4 	bl	8002260 <_dbg_check_unlock>
 80060d8:	f7fc f8aa 	bl	8002230 <_stats_stop_measure_crit_thd>
 80060dc:	6823      	ldr	r3, [r4, #0]
 80060de:	42a3      	cmp	r3, r4
 80060e0:	d004      	beq.n	80060ec <thd4_execute+0x15c>
 80060e2:	69a2      	ldr	r2, [r4, #24]
 80060e4:	689b      	ldr	r3, [r3, #8]
 80060e6:	6892      	ldr	r2, [r2, #8]
 80060e8:	429a      	cmp	r2, r3
 80060ea:	d30e      	bcc.n	800610a <thd4_execute+0x17a>
 80060ec:	2300      	movs	r3, #0
 80060ee:	f383 8811 	msr	BASEPRI, r3
 80060f2:	2004      	movs	r0, #4
 80060f4:	f206 32eb 	addw	r2, r6, #1003	; 0x3eb
 80060f8:	4629      	mov	r1, r5
 80060fa:	e8bd 4070 	ldmia.w	sp!, {r4, r5, r6, lr}
 80060fe:	f7fd b907 	b.w	8003310 <_test_assert_time_window>
 8006102:	b672      	cpsid	i
 8006104:	4b0a      	ldr	r3, [pc, #40]	; (8006130 <thd4_execute+0x1a0>)
 8006106:	62e3      	str	r3, [r4, #44]	; 0x2c
 8006108:	e7fe      	b.n	8006108 <thd4_execute+0x178>
 800610a:	b672      	cpsid	i
 800610c:	4b09      	ldr	r3, [pc, #36]	; (8006134 <thd4_execute+0x1a4>)
 800610e:	62e3      	str	r3, [r4, #44]	; 0x2c
 8006110:	e7fe      	b.n	8006110 <thd4_execute+0x180>
 8006112:	b672      	cpsid	i
 8006114:	4b06      	ldr	r3, [pc, #24]	; (8006130 <thd4_execute+0x1a0>)
 8006116:	62e3      	str	r3, [r4, #44]	; 0x2c
 8006118:	e7fe      	b.n	8006118 <thd4_execute+0x188>
 800611a:	b672      	cpsid	i
 800611c:	4b04      	ldr	r3, [pc, #16]	; (8006130 <thd4_execute+0x1a0>)
 800611e:	62e3      	str	r3, [r4, #44]	; 0x2c
 8006120:	e7fe      	b.n	8006120 <thd4_execute+0x190>
 8006122:	b672      	cpsid	i
 8006124:	4b02      	ldr	r3, [pc, #8]	; (8006130 <thd4_execute+0x1a0>)
 8006126:	62e3      	str	r3, [r4, #44]	; 0x2c
 8006128:	e7fe      	b.n	8006128 <thd4_execute+0x198>
 800612a:	bf00      	nop
 800612c:	20001558 	.word	0x20001558
 8006130:	08009e50 	.word	0x08009e50
 8006134:	08009d70 	.word	0x08009d70
	...

08006140 <chThdSetPriority>:
 8006140:	287f      	cmp	r0, #127	; 0x7f
 8006142:	b538      	push	{r3, r4, r5, lr}
 8006144:	d824      	bhi.n	8006190 <chThdSetPriority+0x50>
 8006146:	4601      	mov	r1, r0
 8006148:	2320      	movs	r3, #32
 800614a:	f383 8811 	msr	BASEPRI, r3
 800614e:	4c15      	ldr	r4, [pc, #84]	; (80061a4 <chThdSetPriority+0x64>)
 8006150:	f7fc f876 	bl	8002240 <_stats_start_measure_crit_thd>
 8006154:	f7fc f964 	bl	8002420 <_dbg_check_lock>
 8006158:	69a3      	ldr	r3, [r4, #24]
 800615a:	6c1d      	ldr	r5, [r3, #64]	; 0x40
 800615c:	689a      	ldr	r2, [r3, #8]
 800615e:	42aa      	cmp	r2, r5
 8006160:	d001      	beq.n	8006166 <chThdSetPriority+0x26>
 8006162:	428a      	cmp	r2, r1
 8006164:	d200      	bcs.n	8006168 <chThdSetPriority+0x28>
 8006166:	6099      	str	r1, [r3, #8]
 8006168:	6419      	str	r1, [r3, #64]	; 0x40
 800616a:	f7fb fe71 	bl	8001e50 <chSchRescheduleS>
 800616e:	f7fc f877 	bl	8002260 <_dbg_check_unlock>
 8006172:	f7fc f85d 	bl	8002230 <_stats_stop_measure_crit_thd>
 8006176:	6823      	ldr	r3, [r4, #0]
 8006178:	42a3      	cmp	r3, r4
 800617a:	d004      	beq.n	8006186 <chThdSetPriority+0x46>
 800617c:	69a2      	ldr	r2, [r4, #24]
 800617e:	689b      	ldr	r3, [r3, #8]
 8006180:	6892      	ldr	r2, [r2, #8]
 8006182:	429a      	cmp	r2, r3
 8006184:	d309      	bcc.n	800619a <chThdSetPriority+0x5a>
 8006186:	2300      	movs	r3, #0
 8006188:	f383 8811 	msr	BASEPRI, r3
 800618c:	4628      	mov	r0, r5
 800618e:	bd38      	pop	{r3, r4, r5, pc}
 8006190:	b672      	cpsid	i
 8006192:	4b04      	ldr	r3, [pc, #16]	; (80061a4 <chThdSetPriority+0x64>)
 8006194:	4a04      	ldr	r2, [pc, #16]	; (80061a8 <chThdSetPriority+0x68>)
 8006196:	62da      	str	r2, [r3, #44]	; 0x2c
 8006198:	e7fe      	b.n	8006198 <chThdSetPriority+0x58>
 800619a:	b672      	cpsid	i
 800619c:	4b03      	ldr	r3, [pc, #12]	; (80061ac <chThdSetPriority+0x6c>)
 800619e:	62e3      	str	r3, [r4, #44]	; 0x2c
 80061a0:	e7fe      	b.n	80061a0 <chThdSetPriority+0x60>
 80061a2:	bf00      	nop
 80061a4:	20001558 	.word	0x20001558
 80061a8:	0800a060 	.word	0x0800a060
 80061ac:	08009d70 	.word	0x08009d70

080061b0 <thd3_execute>:
 80061b0:	b5f8      	push	{r3, r4, r5, r6, r7, lr}
 80061b2:	4d60      	ldr	r5, [pc, #384]	; (8006334 <thd3_execute+0x184>)
 80061b4:	69ab      	ldr	r3, [r5, #24]
 80061b6:	689c      	ldr	r4, [r3, #8]
 80061b8:	1c66      	adds	r6, r4, #1
 80061ba:	4630      	mov	r0, r6
 80061bc:	f7ff ffc0 	bl	8006140 <chThdSetPriority>
 80061c0:	1b01      	subs	r1, r0, r4
 80061c2:	fab1 f181 	clz	r1, r1
 80061c6:	4607      	mov	r7, r0
 80061c8:	0949      	lsrs	r1, r1, #5
 80061ca:	2001      	movs	r0, #1
 80061cc:	f7fa f998 	bl	8000500 <_test_assert>
 80061d0:	b100      	cbz	r0, 80061d4 <thd3_execute+0x24>
 80061d2:	bdf8      	pop	{r3, r4, r5, r6, r7, pc}
 80061d4:	69ab      	ldr	r3, [r5, #24]
 80061d6:	6899      	ldr	r1, [r3, #8]
 80061d8:	1b89      	subs	r1, r1, r6
 80061da:	fab1 f181 	clz	r1, r1
 80061de:	2002      	movs	r0, #2
 80061e0:	0949      	lsrs	r1, r1, #5
 80061e2:	f7fa f98d 	bl	8000500 <_test_assert>
 80061e6:	2800      	cmp	r0, #0
 80061e8:	d1f3      	bne.n	80061d2 <thd3_execute+0x22>
 80061ea:	4638      	mov	r0, r7
 80061ec:	f7ff ffa8 	bl	8006140 <chThdSetPriority>
 80061f0:	1a31      	subs	r1, r6, r0
 80061f2:	fab1 f181 	clz	r1, r1
 80061f6:	0949      	lsrs	r1, r1, #5
 80061f8:	2003      	movs	r0, #3
 80061fa:	f7fa f981 	bl	8000500 <_test_assert>
 80061fe:	2800      	cmp	r0, #0
 8006200:	d1e7      	bne.n	80061d2 <thd3_execute+0x22>
 8006202:	69ab      	ldr	r3, [r5, #24]
 8006204:	6899      	ldr	r1, [r3, #8]
 8006206:	1b09      	subs	r1, r1, r4
 8006208:	fab1 f181 	clz	r1, r1
 800620c:	2004      	movs	r0, #4
 800620e:	0949      	lsrs	r1, r1, #5
 8006210:	f7fa f976 	bl	8000500 <_test_assert>
 8006214:	2800      	cmp	r0, #0
 8006216:	d1dc      	bne.n	80061d2 <thd3_execute+0x22>
 8006218:	2320      	movs	r3, #32
 800621a:	f383 8811 	msr	BASEPRI, r3
 800621e:	f7fc f80f 	bl	8002240 <_stats_start_measure_crit_thd>
 8006222:	f7fc f8fd 	bl	8002420 <_dbg_check_lock>
 8006226:	69aa      	ldr	r2, [r5, #24]
 8006228:	6893      	ldr	r3, [r2, #8]
 800622a:	3302      	adds	r3, #2
 800622c:	6093      	str	r3, [r2, #8]
 800622e:	f7fc f817 	bl	8002260 <_dbg_check_unlock>
 8006232:	f7fb fffd 	bl	8002230 <_stats_stop_measure_crit_thd>
 8006236:	682b      	ldr	r3, [r5, #0]
 8006238:	42ab      	cmp	r3, r5
 800623a:	d004      	beq.n	8006246 <thd3_execute+0x96>
 800623c:	69aa      	ldr	r2, [r5, #24]
 800623e:	689b      	ldr	r3, [r3, #8]
 8006240:	6892      	ldr	r2, [r2, #8]
 8006242:	429a      	cmp	r2, r3
 8006244:	d36d      	bcc.n	8006322 <thd3_execute+0x172>
 8006246:	2300      	movs	r3, #0
 8006248:	f383 8811 	msr	BASEPRI, r3
 800624c:	69ab      	ldr	r3, [r5, #24]
 800624e:	6899      	ldr	r1, [r3, #8]
 8006250:	1ca7      	adds	r7, r4, #2
 8006252:	1bc9      	subs	r1, r1, r7
 8006254:	fab1 f181 	clz	r1, r1
 8006258:	0949      	lsrs	r1, r1, #5
 800625a:	2005      	movs	r0, #5
 800625c:	f7fa f950 	bl	8000500 <_test_assert>
 8006260:	2800      	cmp	r0, #0
 8006262:	d1b6      	bne.n	80061d2 <thd3_execute+0x22>
 8006264:	4630      	mov	r0, r6
 8006266:	f7ff ff6b 	bl	8006140 <chThdSetPriority>
 800626a:	1b01      	subs	r1, r0, r4
 800626c:	fab1 f181 	clz	r1, r1
 8006270:	0949      	lsrs	r1, r1, #5
 8006272:	2006      	movs	r0, #6
 8006274:	f7fa f944 	bl	8000500 <_test_assert>
 8006278:	2800      	cmp	r0, #0
 800627a:	d1aa      	bne.n	80061d2 <thd3_execute+0x22>
 800627c:	69ab      	ldr	r3, [r5, #24]
 800627e:	6899      	ldr	r1, [r3, #8]
 8006280:	eba1 0c07 	sub.w	ip, r1, r7
 8006284:	f1dc 0100 	rsbs	r1, ip, #0
 8006288:	eb41 010c 	adc.w	r1, r1, ip
 800628c:	2007      	movs	r0, #7
 800628e:	f7fa f937 	bl	8000500 <_test_assert>
 8006292:	2800      	cmp	r0, #0
 8006294:	d19d      	bne.n	80061d2 <thd3_execute+0x22>
 8006296:	69ab      	ldr	r3, [r5, #24]
 8006298:	6c19      	ldr	r1, [r3, #64]	; 0x40
 800629a:	1b8f      	subs	r7, r1, r6
 800629c:	4279      	negs	r1, r7
 800629e:	4179      	adcs	r1, r7
 80062a0:	2008      	movs	r0, #8
 80062a2:	f7fa f92d 	bl	8000500 <_test_assert>
 80062a6:	2800      	cmp	r0, #0
 80062a8:	d193      	bne.n	80061d2 <thd3_execute+0x22>
 80062aa:	1ce7      	adds	r7, r4, #3
 80062ac:	4638      	mov	r0, r7
 80062ae:	f7ff ff47 	bl	8006140 <chThdSetPriority>
 80062b2:	1a30      	subs	r0, r6, r0
 80062b4:	4241      	negs	r1, r0
 80062b6:	4141      	adcs	r1, r0
 80062b8:	2009      	movs	r0, #9
 80062ba:	f7fa f921 	bl	8000500 <_test_assert>
 80062be:	2800      	cmp	r0, #0
 80062c0:	d187      	bne.n	80061d2 <thd3_execute+0x22>
 80062c2:	69ab      	ldr	r3, [r5, #24]
 80062c4:	6899      	ldr	r1, [r3, #8]
 80062c6:	1bca      	subs	r2, r1, r7
 80062c8:	4251      	negs	r1, r2
 80062ca:	4151      	adcs	r1, r2
 80062cc:	200a      	movs	r0, #10
 80062ce:	f7fa f917 	bl	8000500 <_test_assert>
 80062d2:	2800      	cmp	r0, #0
 80062d4:	f47f af7d 	bne.w	80061d2 <thd3_execute+0x22>
 80062d8:	69ab      	ldr	r3, [r5, #24]
 80062da:	6c19      	ldr	r1, [r3, #64]	; 0x40
 80062dc:	1bcb      	subs	r3, r1, r7
 80062de:	4259      	negs	r1, r3
 80062e0:	4159      	adcs	r1, r3
 80062e2:	200b      	movs	r0, #11
 80062e4:	f7fa f90c 	bl	8000500 <_test_assert>
 80062e8:	2800      	cmp	r0, #0
 80062ea:	f47f af72 	bne.w	80061d2 <thd3_execute+0x22>
 80062ee:	2320      	movs	r3, #32
 80062f0:	f383 8811 	msr	BASEPRI, r3
 80062f4:	f7fb ffa4 	bl	8002240 <_stats_start_measure_crit_thd>
 80062f8:	f7fc f892 	bl	8002420 <_dbg_check_lock>
 80062fc:	69ab      	ldr	r3, [r5, #24]
 80062fe:	609c      	str	r4, [r3, #8]
 8006300:	641c      	str	r4, [r3, #64]	; 0x40
 8006302:	f7fb ffad 	bl	8002260 <_dbg_check_unlock>
 8006306:	f7fb ff93 	bl	8002230 <_stats_stop_measure_crit_thd>
 800630a:	682b      	ldr	r3, [r5, #0]
 800630c:	42ab      	cmp	r3, r5
 800630e:	d004      	beq.n	800631a <thd3_execute+0x16a>
 8006310:	69aa      	ldr	r2, [r5, #24]
 8006312:	689b      	ldr	r3, [r3, #8]
 8006314:	6892      	ldr	r2, [r2, #8]
 8006316:	429a      	cmp	r2, r3
 8006318:	d307      	bcc.n	800632a <thd3_execute+0x17a>
 800631a:	2300      	movs	r3, #0
 800631c:	f383 8811 	msr	BASEPRI, r3
 8006320:	bdf8      	pop	{r3, r4, r5, r6, r7, pc}
 8006322:	b672      	cpsid	i
 8006324:	4b04      	ldr	r3, [pc, #16]	; (8006338 <thd3_execute+0x188>)
 8006326:	62eb      	str	r3, [r5, #44]	; 0x2c
 8006328:	e7fe      	b.n	8006328 <thd3_execute+0x178>
 800632a:	b672      	cpsid	i
 800632c:	4b02      	ldr	r3, [pc, #8]	; (8006338 <thd3_execute+0x188>)
 800632e:	62eb      	str	r3, [r5, #44]	; 0x2c
 8006330:	e7fe      	b.n	8006330 <thd3_execute+0x180>
 8006332:	bf00      	nop
 8006334:	20001558 	.word	0x20001558
 8006338:	08009e50 	.word	0x08009e50
 800633c:	00000000 	.word	0x00000000

08006340 <chThdCreateStatic>:
 8006340:	e92d 47f0 	stmdb	sp!, {r4, r5, r6, r7, r8, r9, sl, lr}
 8006344:	b082      	sub	sp, #8
 8006346:	4680      	mov	r8, r0
 8006348:	9f0a      	ldr	r7, [sp, #40]	; 0x28
 800634a:	4691      	mov	r9, r2
 800634c:	469a      	mov	sl, r3
 800634e:	f100 0660 	add.w	r6, r0, #96	; 0x60
 8006352:	4604      	mov	r4, r0
 8006354:	25ff      	movs	r5, #255	; 0xff
 8006356:	f804 5b01 	strb.w	r5, [r4], #1
 800635a:	42a6      	cmp	r6, r4
 800635c:	d1fb      	bne.n	8006356 <chThdCreateStatic+0x16>
 800635e:	eb08 0001 	add.w	r0, r8, r1
 8006362:	42a0      	cmp	r0, r4
 8006364:	d904      	bls.n	8006370 <chThdCreateStatic+0x30>
 8006366:	2555      	movs	r5, #85	; 0x55
 8006368:	f804 5b01 	strb.w	r5, [r4], #1
 800636c:	42a0      	cmp	r0, r4
 800636e:	d1fb      	bne.n	8006368 <chThdCreateStatic+0x28>
 8006370:	2320      	movs	r3, #32
 8006372:	f383 8811 	msr	BASEPRI, r3
 8006376:	f7fb ff63 	bl	8002240 <_stats_start_measure_crit_thd>
 800637a:	f7fc f851 	bl	8002420 <_dbg_check_lock>
 800637e:	4653      	mov	r3, sl
 8006380:	464a      	mov	r2, r9
 8006382:	9700      	str	r7, [sp, #0]
 8006384:	4640      	mov	r0, r8
 8006386:	f7fa fb6b 	bl	8000a60 <chThdCreateI>
 800638a:	2100      	movs	r1, #0
 800638c:	4604      	mov	r4, r0
 800638e:	f7fb fd77 	bl	8001e80 <chSchWakeupS>
 8006392:	f7fb ff65 	bl	8002260 <_dbg_check_unlock>
 8006396:	f7fb ff4b 	bl	8002230 <_stats_stop_measure_crit_thd>
 800639a:	4b0a      	ldr	r3, [pc, #40]	; (80063c4 <chThdCreateStatic+0x84>)
 800639c:	681a      	ldr	r2, [r3, #0]
 800639e:	429a      	cmp	r2, r3
 80063a0:	d004      	beq.n	80063ac <chThdCreateStatic+0x6c>
 80063a2:	6999      	ldr	r1, [r3, #24]
 80063a4:	6892      	ldr	r2, [r2, #8]
 80063a6:	6889      	ldr	r1, [r1, #8]
 80063a8:	4291      	cmp	r1, r2
 80063aa:	d306      	bcc.n	80063ba <chThdCreateStatic+0x7a>
 80063ac:	2300      	movs	r3, #0
 80063ae:	f383 8811 	msr	BASEPRI, r3
 80063b2:	4620      	mov	r0, r4
 80063b4:	b002      	add	sp, #8
 80063b6:	e8bd 87f0 	ldmia.w	sp!, {r4, r5, r6, r7, r8, r9, sl, pc}
 80063ba:	b672      	cpsid	i
 80063bc:	4a02      	ldr	r2, [pc, #8]	; (80063c8 <chThdCreateStatic+0x88>)
 80063be:	62da      	str	r2, [r3, #44]	; 0x2c
 80063c0:	e7fe      	b.n	80063c0 <chThdCreateStatic+0x80>
 80063c2:	bf00      	nop
 80063c4:	20001558 	.word	0x20001558
 80063c8:	08009d70 	.word	0x08009d70
 80063cc:	00000000 	.word	0x00000000

080063d0 <main>:
 80063d0:	4bb7      	ldr	r3, [pc, #732]	; (80066b0 <main+0x2e0>)
 80063d2:	48b8      	ldr	r0, [pc, #736]	; (80066b4 <main+0x2e4>)
 80063d4:	6a9a      	ldr	r2, [r3, #40]	; 0x28
 80063d6:	f04f 31ff 	mov.w	r1, #4294967295	; 0xffffffff
 80063da:	2200      	movs	r2, #0
 80063dc:	b580      	push	{r7, lr}
 80063de:	6299      	str	r1, [r3, #40]	; 0x28
 80063e0:	629a      	str	r2, [r3, #40]	; 0x28
 80063e2:	691c      	ldr	r4, [r3, #16]
 80063e4:	6119      	str	r1, [r3, #16]
 80063e6:	611a      	str	r2, [r3, #16]
 80063e8:	68dc      	ldr	r4, [r3, #12]
 80063ea:	60d9      	str	r1, [r3, #12]
 80063ec:	60da      	str	r2, [r3, #12]
 80063ee:	69d9      	ldr	r1, [r3, #28]
 80063f0:	f041 5180 	orr.w	r1, r1, #268435456	; 0x10000000
 80063f4:	61d9      	str	r1, [r3, #28]
 80063f6:	6801      	ldr	r1, [r0, #0]
 80063f8:	f441 7180 	orr.w	r1, r1, #256	; 0x100
 80063fc:	6001      	str	r1, [r0, #0]
 80063fe:	6a19      	ldr	r1, [r3, #32]
 8006400:	f401 7140 	and.w	r1, r1, #768	; 0x300
 8006404:	f5b1 7f00 	cmp.w	r1, #512	; 0x200
 8006408:	b08a      	sub	sp, #40	; 0x28
 800640a:	d003      	beq.n	8006414 <main+0x44>
 800640c:	f44f 3180 	mov.w	r1, #65536	; 0x10000
 8006410:	6219      	str	r1, [r3, #32]
 8006412:	621a      	str	r2, [r3, #32]
 8006414:	4ba6      	ldr	r3, [pc, #664]	; (80066b0 <main+0x2e0>)
 8006416:	6a1a      	ldr	r2, [r3, #32]
 8006418:	0412      	lsls	r2, r2, #16
 800641a:	d407      	bmi.n	800642c <main+0x5c>
 800641c:	6a1a      	ldr	r2, [r3, #32]
 800641e:	f442 7200 	orr.w	r2, r2, #512	; 0x200
 8006422:	621a      	str	r2, [r3, #32]
 8006424:	6a1a      	ldr	r2, [r3, #32]
 8006426:	f442 4200 	orr.w	r2, r2, #32768	; 0x8000
 800642a:	621a      	str	r2, [r3, #32]
 800642c:	4ba0      	ldr	r3, [pc, #640]	; (80066b0 <main+0x2e0>)
 800642e:	4fa2      	ldr	r7, [pc, #648]	; (80066b8 <main+0x2e8>)
 8006430:	699a      	ldr	r2, [r3, #24]
 8006432:	f8df c2f4 	ldr.w	ip, [pc, #756]	; 8006728 <main+0x358>
 8006436:	4da1      	ldr	r5, [pc, #644]	; (80066bc <main+0x2ec>)
 8006438:	4ca1      	ldr	r4, [pc, #644]	; (80066c0 <main+0x2f0>)
 800643a:	48a2      	ldr	r0, [pc, #648]	; (80066c4 <main+0x2f4>)
 800643c:	49a2      	ldr	r1, [pc, #648]	; (80066c8 <main+0x2f8>)
 800643e:	f042 0201 	orr.w	r2, r2, #1
 8006442:	619a      	str	r2, [r3, #24]
 8006444:	695e      	ldr	r6, [r3, #20]
 8006446:	4aa1      	ldr	r2, [pc, #644]	; (80066cc <main+0x2fc>)
 8006448:	f446 06fc 	orr.w	r6, r6, #8257536	; 0x7e0000
 800644c:	615e      	str	r6, [r3, #20]
 800644e:	f04f 4390 	mov.w	r3, #1207959552	; 0x48000000
 8006452:	f44f 66c0 	mov.w	r6, #1536	; 0x600
 8006456:	605e      	str	r6, [r3, #4]
 8006458:	f8c3 c008 	str.w	ip, [r3, #8]
 800645c:	f64f 767f 	movw	r6, #65407	; 0xff7f
 8006460:	60df      	str	r7, [r3, #12]
 8006462:	f44f 07a0 	mov.w	r7, #5242880	; 0x500000
 8006466:	615e      	str	r6, [r3, #20]
 8006468:	621f      	str	r7, [r3, #32]
 800646a:	4e99      	ldr	r6, [pc, #612]	; (80066d0 <main+0x300>)
 800646c:	4f99      	ldr	r7, [pc, #612]	; (80066d4 <main+0x304>)
 800646e:	625e      	str	r6, [r3, #36]	; 0x24
 8006470:	601f      	str	r7, [r3, #0]
 8006472:	26c0      	movs	r6, #192	; 0xc0
 8006474:	f24f 37c0 	movw	r7, #62400	; 0xf3c0
 8006478:	606e      	str	r6, [r5, #4]
 800647a:	4b97      	ldr	r3, [pc, #604]	; (80066d8 <main+0x308>)
 800647c:	60af      	str	r7, [r5, #8]
 800647e:	f64f 76ff 	movw	r6, #65535	; 0xffff
 8006482:	f04f 4788 	mov.w	r7, #1140850688	; 0x44000000
 8006486:	60eb      	str	r3, [r5, #12]
 8006488:	616e      	str	r6, [r5, #20]
 800648a:	2300      	movs	r3, #0
 800648c:	622f      	str	r7, [r5, #32]
 800648e:	f24a 078f 	movw	r7, #41103	; 0xa08f
 8006492:	626b      	str	r3, [r5, #36]	; 0x24
 8006494:	602f      	str	r7, [r5, #0]
 8006496:	250f      	movs	r5, #15
 8006498:	6065      	str	r5, [r4, #4]
 800649a:	4d90      	ldr	r5, [pc, #576]	; (80066dc <main+0x30c>)
 800649c:	60a5      	str	r5, [r4, #8]
 800649e:	4d90      	ldr	r5, [pc, #576]	; (80066e0 <main+0x310>)
 80064a0:	60e5      	str	r5, [r4, #12]
 80064a2:	4d90      	ldr	r5, [pc, #576]	; (80066e4 <main+0x314>)
 80064a4:	6166      	str	r6, [r4, #20]
 80064a6:	6223      	str	r3, [r4, #32]
 80064a8:	6265      	str	r5, [r4, #36]	; 0x24
 80064aa:	4d8f      	ldr	r5, [pc, #572]	; (80066e8 <main+0x318>)
 80064ac:	6025      	str	r5, [r4, #0]
 80064ae:	4c8f      	ldr	r4, [pc, #572]	; (80066ec <main+0x31c>)
 80064b0:	6043      	str	r3, [r0, #4]
 80064b2:	6084      	str	r4, [r0, #8]
 80064b4:	4c8e      	ldr	r4, [pc, #568]	; (80066f0 <main+0x320>)
 80064b6:	60c4      	str	r4, [r0, #12]
 80064b8:	f24f 74ff 	movw	r4, #63487	; 0xf7ff
 80064bc:	6144      	str	r4, [r0, #20]
 80064be:	4c8d      	ldr	r4, [pc, #564]	; (80066f4 <main+0x324>)
 80064c0:	6204      	str	r4, [r0, #32]
 80064c2:	4c8d      	ldr	r4, [pc, #564]	; (80066f8 <main+0x328>)
 80064c4:	6243      	str	r3, [r0, #36]	; 0x24
 80064c6:	6004      	str	r4, [r0, #0]
 80064c8:	2004      	movs	r0, #4
 80064ca:	6048      	str	r0, [r1, #4]
 80064cc:	488b      	ldr	r0, [pc, #556]	; (80066fc <main+0x32c>)
 80064ce:	6088      	str	r0, [r1, #8]
 80064d0:	f100 408c 	add.w	r0, r0, #1174405120	; 0x46000000
 80064d4:	f5a0 003f 	sub.w	r0, r0, #12517376	; 0xbf0000
 80064d8:	f6a0 30ab 	subw	r0, r0, #2987	; 0xbab
 80064dc:	60c8      	str	r0, [r1, #12]
 80064de:	4f88      	ldr	r7, [pc, #544]	; (8006700 <main+0x330>)
 80064e0:	f641 70ff 	movw	r0, #8191	; 0x1fff
 80064e4:	6148      	str	r0, [r1, #20]
 80064e6:	4887      	ldr	r0, [pc, #540]	; (8006704 <main+0x334>)
 80064e8:	620b      	str	r3, [r1, #32]
 80064ea:	607b      	str	r3, [r7, #4]
 80064ec:	624b      	str	r3, [r1, #36]	; 0x24
 80064ee:	6008      	str	r0, [r1, #0]
 80064f0:	4985      	ldr	r1, [pc, #532]	; (8006708 <main+0x338>)
 80064f2:	6053      	str	r3, [r2, #4]
 80064f4:	4885      	ldr	r0, [pc, #532]	; (800670c <main+0x33c>)
 80064f6:	6091      	str	r1, [r2, #8]
 80064f8:	2101      	movs	r1, #1
 80064fa:	60d0      	str	r0, [r2, #12]
 80064fc:	6156      	str	r6, [r2, #20]
 80064fe:	6213      	str	r3, [r2, #32]
 8006500:	461e      	mov	r6, r3
 8006502:	6253      	str	r3, [r2, #36]	; 0x24
 8006504:	6013      	str	r3, [r2, #0]
 8006506:	f107 032c 	add.w	r3, r7, #44	; 0x2c
 800650a:	7039      	strb	r1, [r7, #0]
 800650c:	f107 0248 	add.w	r2, r7, #72	; 0x48
 8006510:	f843 6b04 	str.w	r6, [r3], #4
 8006514:	4293      	cmp	r3, r2
 8006516:	619e      	str	r6, [r3, #24]
 8006518:	d1fa      	bne.n	8006510 <main+0x140>
 800651a:	4d65      	ldr	r5, [pc, #404]	; (80066b0 <main+0x2e0>)
 800651c:	f8df 820c 	ldr.w	r8, [pc, #524]	; 800672c <main+0x35c>
 8006520:	69eb      	ldr	r3, [r5, #28]
 8006522:	60be      	str	r6, [r7, #8]
 8006524:	f043 0301 	orr.w	r3, r3, #1
 8006528:	61eb      	str	r3, [r5, #28]
 800652a:	f8d8 5008 	ldr.w	r5, [r8, #8]
 800652e:	4c78      	ldr	r4, [pc, #480]	; (8006710 <main+0x340>)
 8006530:	4978      	ldr	r1, [pc, #480]	; (8006714 <main+0x344>)
 8006532:	6064      	str	r4, [r4, #4]
 8006534:	f04f 4380 	mov.w	r3, #1073741824	; 0x40000000
 8006538:	f045 0501 	orr.w	r5, r5, #1
 800653c:	f8c8 5008 	str.w	r5, [r8, #8]
 8006540:	f8df e1ec 	ldr.w	lr, [pc, #492]	; 8006730 <main+0x360>
 8006544:	4a74      	ldr	r2, [pc, #464]	; (8006718 <main+0x348>)
 8006546:	f8df c1ec 	ldr.w	ip, [pc, #492]	; 8006734 <main+0x364>
 800654a:	4874      	ldr	r0, [pc, #464]	; (800671c <main+0x34c>)
 800654c:	f04f 35ff 	mov.w	r5, #4294967295	; 0xffffffff
 8006550:	f04f 0801 	mov.w	r8, #1
 8006554:	f641 491f 	movw	r9, #7199	; 0x1c1f
 8006558:	f8c3 9028 	str.w	r9, [r3, #40]	; 0x28
 800655c:	62dd      	str	r5, [r3, #44]	; 0x2c
 800655e:	f04f 0980 	mov.w	r9, #128	; 0x80
 8006562:	619e      	str	r6, [r3, #24]
 8006564:	635e      	str	r6, [r3, #52]	; 0x34
 8006566:	60de      	str	r6, [r3, #12]
 8006568:	605e      	str	r6, [r3, #4]
 800656a:	f8c3 8014 	str.w	r8, [r3, #20]
 800656e:	f8c3 8000 	str.w	r8, [r3]
 8006572:	f04f 5380 	mov.w	r3, #268435456	; 0x10000000
 8006576:	f88e 931c 	strb.w	r9, [lr, #796]	; 0x31c
 800657a:	f8ce 3180 	str.w	r3, [lr, #384]	; 0x180
 800657e:	f8ce 3000 	str.w	r3, [lr]
 8006582:	608e      	str	r6, [r1, #8]
 8006584:	68cb      	ldr	r3, [r1, #12]
 8006586:	60a6      	str	r6, [r4, #8]
 8006588:	f64f 0eff 	movw	lr, #63743	; 0xf8ff
 800658c:	ea03 030e 	and.w	r3, r3, lr
 8006590:	431a      	orrs	r2, r3
 8006592:	60ca      	str	r2, [r1, #12]
 8006594:	f8dc 300c 	ldr.w	r3, [ip, #12]
 8006598:	6124      	str	r4, [r4, #16]
 800659a:	f043 7380 	orr.w	r3, r3, #16777216	; 0x1000000
 800659e:	f8cc 300c 	str.w	r3, [ip, #12]
 80065a2:	6803      	ldr	r3, [r0, #0]
 80065a4:	6164      	str	r4, [r4, #20]
 80065a6:	ea43 0308 	orr.w	r3, r3, r8
 80065aa:	2210      	movs	r2, #16
 80065ac:	6003      	str	r3, [r0, #0]
 80065ae:	f104 0c1c 	add.w	ip, r4, #28
 80065b2:	77ca      	strb	r2, [r1, #31]
 80065b4:	2300      	movs	r3, #0
 80065b6:	eb0d 0002 	add.w	r0, sp, r2
 80065ba:	f04f 0a20 	mov.w	sl, #32
 80065be:	2200      	movs	r2, #0
 80065c0:	f881 a022 	strb.w	sl, [r1, #34]	; 0x22
 80065c4:	f8c4 c01c 	str.w	ip, [r4, #28]
 80065c8:	6024      	str	r4, [r4, #0]
 80065ca:	e9c4 c508 	strd	ip, r5, [r4, #32]
 80065ce:	e9cd 2308 	strd	r2, r3, [sp, #32]
 80065d2:	e9cd 2302 	strd	r2, r3, [sp, #8]
 80065d6:	e9cd 5604 	strd	r5, r6, [sp, #16]
 80065da:	62a6      	str	r6, [r4, #40]	; 0x28
 80065dc:	f8c4 64a0 	str.w	r6, [r4, #1184]	; 0x4a0
 80065e0:	e9cd 6606 	strd	r6, r6, [sp, #24]
 80065e4:	f7fa f98c 	bl	8000900 <chTMStartMeasurementX>
 80065e8:	a804      	add	r0, sp, #16
 80065ea:	f7fa f959 	bl	80008a0 <chTMStopMeasurementX>
 80065ee:	e9dd 2302 	ldrd	r2, r3, [sp, #8]
 80065f2:	9906      	ldr	r1, [sp, #24]
 80065f4:	f8c4 14a0 	str.w	r1, [r4, #1184]	; 0x4a0
 80065f8:	f504 6198 	add.w	r1, r4, #1216	; 0x4c0
 80065fc:	e9c1 2300 	strd	r2, r3, [r1]
 8006600:	f504 619b 	add.w	r1, r4, #1240	; 0x4d8
 8006604:	e9c1 2300 	strd	r2, r3, [r1]
 8006608:	f8df e12c 	ldr.w	lr, [pc, #300]	; 8006738 <main+0x368>
 800660c:	f8df c12c 	ldr.w	ip, [pc, #300]	; 800673c <main+0x36c>
 8006610:	4843      	ldr	r0, [pc, #268]	; (8006720 <main+0x350>)
 8006612:	f8df 912c 	ldr.w	r9, [pc, #300]	; 8006740 <main+0x370>
 8006616:	f8c4 54b0 	str.w	r5, [r4, #1200]	; 0x4b0
 800661a:	f104 0140 	add.w	r1, r4, #64	; 0x40
 800661e:	63e1      	str	r1, [r4, #60]	; 0x3c
 8006620:	4940      	ldr	r1, [pc, #256]	; (8006724 <main+0x354>)
 8006622:	f8c4 54c8 	str.w	r5, [r4, #1224]	; 0x4c8
 8006626:	f02e 0e07 	bic.w	lr, lr, #7
 800662a:	f02c 0c07 	bic.w	ip, ip, #7
 800662e:	f8c9 e000 	str.w	lr, [r9]
 8006632:	f8c1 c000 	str.w	ip, [r1]
 8006636:	f8df e10c 	ldr.w	lr, [pc, #268]	; 8006744 <main+0x374>
 800663a:	6186      	str	r6, [r0, #24]
 800663c:	2140      	movs	r1, #64	; 0x40
 800663e:	f100 0c10 	add.w	ip, r0, #16
 8006642:	f04f 0902 	mov.w	r9, #2
 8006646:	e9c0 6602 	strd	r6, r6, [r0, #8]
 800664a:	f8c0 e000 	str.w	lr, [r0]
 800664e:	e9c0 cc04 	strd	ip, ip, [r0, #16]
 8006652:	63a1      	str	r1, [r4, #56]	; 0x38
 8006654:	f8c4 1448 	str.w	r1, [r4, #1096]	; 0x448
 8006658:	f8c4 1480 	str.w	r1, [r4, #1152]	; 0x480
 800665c:	f8c4 64a8 	str.w	r6, [r4, #1192]	; 0x4a8
 8006660:	f8c4 64ac 	str.w	r6, [r4, #1196]	; 0x4ac
 8006664:	f8c4 64b4 	str.w	r6, [r4, #1204]	; 0x4b4
 8006668:	f8c4 64b8 	str.w	r6, [r4, #1208]	; 0x4b8
 800666c:	f8c4 64bc 	str.w	r6, [r4, #1212]	; 0x4bc
 8006670:	f8c4 64cc 	str.w	r6, [r4, #1228]	; 0x4cc
 8006674:	f8c4 64d0 	str.w	r6, [r4, #1232]	; 0x4d0
 8006678:	f8c4 64d4 	str.w	r6, [r4, #1236]	; 0x4d4
 800667c:	f8c4 647c 	str.w	r6, [r4, #1148]	; 0x47c
 8006680:	f8c4 6478 	str.w	r6, [r4, #1144]	; 0x478
 8006684:	f884 8462 	strb.w	r8, [r4, #1122]	; 0x462
 8006688:	f8c4 6458 	str.w	r6, [r4, #1112]	; 0x458
 800668c:	f8c4 4450 	str.w	r4, [r4, #1104]	; 0x450
 8006690:	f8a4 9460 	strh.w	r9, [r4, #1120]	; 0x460
 8006694:	6960      	ldr	r0, [r4, #20]
 8006696:	f8c4 0454 	str.w	r0, [r4, #1108]	; 0x454
 800669a:	f504 6188 	add.w	r1, r4, #1088	; 0x440
 800669e:	6101      	str	r1, [r0, #16]
 80066a0:	f504 6e94 	add.w	lr, r4, #1184	; 0x4a0
 80066a4:	f504 6c93 	add.w	ip, r4, #1176	; 0x498
 80066a8:	f504 608d 	add.w	r0, r4, #1128	; 0x468
 80066ac:	e04c      	b.n	8006748 <main+0x378>
 80066ae:	bf00      	nop
 80066b0:	40021000 	.word	0x40021000
 80066b4:	40007000 	.word	0x40007000
 80066b8:	24001140 	.word	0x24001140
 80066bc:	48000400 	.word	0x48000400
 80066c0:	48000800 	.word	0x48000800
 80066c4:	48000c00 	.word	0x48000c00
 80066c8:	48001000 	.word	0x48001000
 80066cc:	48001400 	.word	0x48001400
 80066d0:	000ee440 	.word	0x000ee440
 80066d4:	aaa8400c 	.word	0xaaa8400c
 80066d8:	55550410 	.word	0x55550410
 80066dc:	f3f00cff 	.word	0xf3f00cff
 80066e0:	04455100 	.word	0x04455100
 80066e4:	00066600 	.word	0x00066600
 80066e8:	02a00455 	.word	0x02a00455
 80066ec:	00c03fff 	.word	0x00c03fff
 80066f0:	55154000 	.word	0x55154000
 80066f4:	07777077 	.word	0x07777077
 80066f8:	00402a9a 	.word	0x00402a9a
 80066fc:	000f30f0 	.word	0x000f30f0
 8006700:	200014d0 	.word	0x200014d0
 8006704:	000fc010 	.word	0x000fc010
 8006708:	003c033f 	.word	0x003c033f
 800670c:	55695660 	.word	0x55695660
 8006710:	20001558 	.word	0x20001558
 8006714:	e000ed00 	.word	0xe000ed00
 8006718:	05fa0300 	.word	0x05fa0300
 800671c:	e0001000 	.word	0xe0001000
 8006720:	20001b38 	.word	0x20001b38
 8006724:	20001b58 	.word	0x20001b58
 8006728:	fcfccc00 	.word	0xfcfccc00
 800672c:	e0042000 	.word	0xe0042000
 8006730:	e000e100 	.word	0xe000e100
 8006734:	e000edf0 	.word	0xe000edf0
 8006738:	2000253f 	.word	0x2000253f
 800673c:	20008000 	.word	0x20008000
 8006740:	20001c24 	.word	0x20001c24
 8006744:	08002b71 	.word	0x08002b71
 8006748:	f8c4 5488 	str.w	r5, [r4, #1160]	; 0x488
 800674c:	f204 456c 	addw	r5, r4, #1132	; 0x46c
 8006750:	e9cc 2300 	strd	r2, r3, [ip]
 8006754:	f8c4 0468 	str.w	r0, [r4, #1128]	; 0x468
 8006758:	f8c4 e45c 	str.w	lr, [r4, #1116]	; 0x45c
 800675c:	f504 6091 	add.w	r0, r4, #1160	; 0x488
 8006760:	f8c4 648c 	str.w	r6, [r4, #1164]	; 0x48c
 8006764:	f8c4 6490 	str.w	r6, [r4, #1168]	; 0x490
 8006768:	f8c4 6494 	str.w	r6, [r4, #1172]	; 0x494
 800676c:	f8c4 546c 	str.w	r5, [r4, #1132]	; 0x46c
 8006770:	f8c4 5470 	str.w	r5, [r4, #1136]	; 0x470
 8006774:	6161      	str	r1, [r4, #20]
 8006776:	f7fa f8c3 	bl	8000900 <chTMStartMeasurementX>
 800677a:	4b82      	ldr	r3, [pc, #520]	; (8006984 <main+0x5b4>)
 800677c:	f884 8460 	strb.w	r8, [r4, #1120]	; 0x460
 8006780:	f8c4 345c 	str.w	r3, [r4, #1116]	; 0x45c
 8006784:	61a1      	str	r1, [r4, #24]
 8006786:	f7fa fdb3 	bl	80012f0 <_dbg_check_enable>
 800678a:	f386 8811 	msr	BASEPRI, r6
 800678e:	b662      	cpsie	i
 8006790:	69a3      	ldr	r3, [r4, #24]
 8006792:	4d7d      	ldr	r5, [pc, #500]	; (8006988 <main+0x5b8>)
 8006794:	4a7d      	ldr	r2, [pc, #500]	; (800698c <main+0x5bc>)
 8006796:	619a      	str	r2, [r3, #24]
 8006798:	f504 609c 	add.w	r0, r4, #1248	; 0x4e0
 800679c:	4642      	mov	r2, r8
 800679e:	9600      	str	r6, [sp, #0]
 80067a0:	4b7b      	ldr	r3, [pc, #492]	; (8006990 <main+0x5c0>)
 80067a2:	21f8      	movs	r1, #248	; 0xf8
 80067a4:	f7ff fdcc 	bl	8006340 <chThdCreateStatic>
 80067a8:	4629      	mov	r1, r5
 80067aa:	4b7a      	ldr	r3, [pc, #488]	; (8006994 <main+0x5c4>)
 80067ac:	f841 3b04 	str.w	r3, [r1], #4
 80067b0:	4a79      	ldr	r2, [pc, #484]	; (8006998 <main+0x5c8>)
 80067b2:	4b7a      	ldr	r3, [pc, #488]	; (800699c <main+0x5cc>)
 80067b4:	6182      	str	r2, [r0, #24]
 80067b6:	f8df c220 	ldr.w	ip, [pc, #544]	; 80069d8 <main+0x608>
 80067ba:	f885 8008 	strb.w	r8, [r5, #8]
 80067be:	f105 0254 	add.w	r2, r5, #84	; 0x54
 80067c2:	f44f 7e80 	mov.w	lr, #256	; 0x100
 80067c6:	f505 7015 	add.w	r0, r5, #596	; 0x254
 80067ca:	f105 080c 	add.w	r8, r5, #12
 80067ce:	616e      	str	r6, [r5, #20]
 80067d0:	62ab      	str	r3, [r5, #40]	; 0x28
 80067d2:	f105 0630 	add.w	r6, r5, #48	; 0x30
 80067d6:	f505 73aa 	add.w	r3, r5, #340	; 0x154
 80067da:	62ed      	str	r5, [r5, #44]	; 0x2c
 80067dc:	652d      	str	r5, [r5, #80]	; 0x50
 80067de:	f8c5 e038 	str.w	lr, [r5, #56]	; 0x38
 80067e2:	6428      	str	r0, [r5, #64]	; 0x40
 80067e4:	f8c5 c04c 	str.w	ip, [r5, #76]	; 0x4c
 80067e8:	6069      	str	r1, [r5, #4]
 80067ea:	e9c5 8803 	strd	r8, r8, [r5, #12]
 80067ee:	61aa      	str	r2, [r5, #24]
 80067f0:	e9c5 2208 	strd	r2, r2, [r5, #32]
 80067f4:	61eb      	str	r3, [r5, #28]
 80067f6:	63eb      	str	r3, [r5, #60]	; 0x3c
 80067f8:	e9c5 3311 	strd	r3, r3, [r5, #68]	; 0x44
 80067fc:	e9c5 660c 	strd	r6, r6, [r5, #48]	; 0x30
 8006800:	f38a 8811 	msr	BASEPRI, sl
 8006804:	f7fb fd1c 	bl	8002240 <_stats_start_measure_crit_thd>
 8006808:	f7fb fe0a 	bl	8002420 <_dbg_check_lock>
 800680c:	7a2b      	ldrb	r3, [r5, #8]
 800680e:	3b01      	subs	r3, #1
 8006810:	2b01      	cmp	r3, #1
 8006812:	d86b      	bhi.n	80068ec <main+0x51c>
 8006814:	4b62      	ldr	r3, [pc, #392]	; (80069a0 <main+0x5d0>)
 8006816:	f8c5 3254 	str.w	r3, [r5, #596]	; 0x254
 800681a:	62fd      	str	r5, [r7, #44]	; 0x2c
 800681c:	64bd      	str	r5, [r7, #72]	; 0x48
 800681e:	633d      	str	r5, [r7, #48]	; 0x30
 8006820:	f885 9008 	strb.w	r9, [r5, #8]
 8006824:	f7fb fd1c 	bl	8002260 <_dbg_check_unlock>
 8006828:	f7fb fd02 	bl	8002230 <_stats_stop_measure_crit_thd>
 800682c:	6823      	ldr	r3, [r4, #0]
 800682e:	42a3      	cmp	r3, r4
 8006830:	d004      	beq.n	800683c <main+0x46c>
 8006832:	69a2      	ldr	r2, [r4, #24]
 8006834:	689b      	ldr	r3, [r3, #8]
 8006836:	6892      	ldr	r2, [r2, #8]
 8006838:	429a      	cmp	r2, r3
 800683a:	d35b      	bcc.n	80068f4 <main+0x524>
 800683c:	2600      	movs	r6, #0
 800683e:	f386 8811 	msr	BASEPRI, r6
 8006842:	4b58      	ldr	r3, [pc, #352]	; (80069a4 <main+0x5d4>)
 8006844:	f04f 0820 	mov.w	r8, #32
 8006848:	f8a3 8018 	strh.w	r8, [r3, #24]
 800684c:	f643 2098 	movw	r0, #15000	; 0x3a98
 8006850:	f7fe fe8e 	bl	8005570 <chThdSleep>
 8006854:	f388 8811 	msr	BASEPRI, r8
 8006858:	f7fb fcf2 	bl	8002240 <_stats_start_measure_crit_thd>
 800685c:	f7fb fde0 	bl	8002420 <_dbg_check_lock>
 8006860:	783a      	ldrb	r2, [r7, #0]
 8006862:	1e53      	subs	r3, r2, #1
 8006864:	2b01      	cmp	r3, #1
 8006866:	f200 8089 	bhi.w	800697c <main+0x5ac>
 800686a:	4b4f      	ldr	r3, [pc, #316]	; (80069a8 <main+0x5d8>)
 800686c:	607b      	str	r3, [r7, #4]
 800686e:	2a01      	cmp	r2, #1
 8006870:	e9c7 6603 	strd	r6, r6, [r7, #12]
 8006874:	e9c7 6605 	strd	r6, r6, [r7, #20]
 8006878:	e9c7 6607 	strd	r6, r6, [r7, #28]
 800687c:	e9c7 6609 	strd	r6, r6, [r7, #36]	; 0x24
 8006880:	d057      	beq.n	8006932 <main+0x562>
 8006882:	2302      	movs	r3, #2
 8006884:	703b      	strb	r3, [r7, #0]
 8006886:	f7fb fceb 	bl	8002260 <_dbg_check_unlock>
 800688a:	f7fb fcd1 	bl	8002230 <_stats_stop_measure_crit_thd>
 800688e:	6823      	ldr	r3, [r4, #0]
 8006890:	42a3      	cmp	r3, r4
 8006892:	d004      	beq.n	800689e <main+0x4ce>
 8006894:	69a2      	ldr	r2, [r4, #24]
 8006896:	689b      	ldr	r3, [r3, #8]
 8006898:	6892      	ldr	r2, [r2, #8]
 800689a:	429a      	cmp	r2, r3
 800689c:	d345      	bcc.n	800692a <main+0x55a>
 800689e:	2400      	movs	r4, #0
 80068a0:	f384 8811 	msr	BASEPRI, r4
 80068a4:	4a3f      	ldr	r2, [pc, #252]	; (80069a4 <main+0x5d4>)
 80068a6:	4e41      	ldr	r6, [pc, #260]	; (80069ac <main+0x5dc>)
 80068a8:	4b41      	ldr	r3, [pc, #260]	; (80069b0 <main+0x5e0>)
 80068aa:	4842      	ldr	r0, [pc, #264]	; (80069b4 <main+0x5e4>)
 80068ac:	4f42      	ldr	r7, [pc, #264]	; (80069b8 <main+0x5e8>)
 80068ae:	2120      	movs	r1, #32
 80068b0:	8351      	strh	r1, [r2, #26]
 80068b2:	9400      	str	r4, [sp, #0]
 80068b4:	2240      	movs	r2, #64	; 0x40
 80068b6:	6036      	str	r6, [r6, #0]
 80068b8:	f44f 71b4 	mov.w	r1, #360	; 0x168
 80068bc:	f7ff fd40 	bl	8006340 <chThdCreateStatic>
 80068c0:	4e3e      	ldr	r6, [pc, #248]	; (80069bc <main+0x5ec>)
 80068c2:	b14c      	cbz	r4, 80068d8 <main+0x508>
 80068c4:	f894 3020 	ldrb.w	r3, [r4, #32]
 80068c8:	2b0f      	cmp	r3, #15
 80068ca:	d017      	beq.n	80068fc <main+0x52c>
 80068cc:	f242 7010 	movw	r0, #10000	; 0x2710
 80068d0:	f7fe fe4e 	bl	8005570 <chThdSleep>
 80068d4:	2c00      	cmp	r4, #0
 80068d6:	d1f5      	bne.n	80068c4 <main+0x4f4>
 80068d8:	f8d5 3254 	ldr.w	r3, [r5, #596]	; 0x254
 80068dc:	681b      	ldr	r3, [r3, #0]
 80068de:	781b      	ldrb	r3, [r3, #0]
 80068e0:	2b04      	cmp	r3, #4
 80068e2:	d018      	beq.n	8006916 <main+0x546>
 80068e4:	2300      	movs	r3, #0
 80068e6:	f893 3020 	ldrb.w	r3, [r3, #32]
 80068ea:	deff      	udf	#255	; 0xff
 80068ec:	b672      	cpsid	i
 80068ee:	4b34      	ldr	r3, [pc, #208]	; (80069c0 <main+0x5f0>)
 80068f0:	62e3      	str	r3, [r4, #44]	; 0x2c
 80068f2:	e7fe      	b.n	80068f2 <main+0x522>
 80068f4:	b672      	cpsid	i
 80068f6:	4b33      	ldr	r3, [pc, #204]	; (80069c4 <main+0x5f4>)
 80068f8:	62e3      	str	r3, [r4, #44]	; 0x2c
 80068fa:	e7fe      	b.n	80068fa <main+0x52a>
 80068fc:	4620      	mov	r0, r4
 80068fe:	f7fe fb57 	bl	8004fb0 <chThdRelease>
 8006902:	f242 7010 	movw	r0, #10000	; 0x2710
 8006906:	f7fe fe33 	bl	8005570 <chThdSleep>
 800690a:	f8d5 3254 	ldr.w	r3, [r5, #596]	; 0x254
 800690e:	681b      	ldr	r3, [r3, #0]
 8006910:	781b      	ldrb	r3, [r3, #0]
 8006912:	2b04      	cmp	r3, #4
 8006914:	d1e6      	bne.n	80068e4 <main+0x514>
 8006916:	9700      	str	r7, [sp, #0]
 8006918:	4633      	mov	r3, r6
 800691a:	2240      	movs	r2, #64	; 0x40
 800691c:	f640 01e8 	movw	r1, #2280	; 0x8e8
 8006920:	2000      	movs	r0, #0
 8006922:	f7fe faf5 	bl	8004f10 <chThdCreateFromHeap>
 8006926:	4604      	mov	r4, r0
 8006928:	e7d0      	b.n	80068cc <main+0x4fc>
 800692a:	b672      	cpsid	i
 800692c:	4b26      	ldr	r3, [pc, #152]	; (80069c8 <main+0x5f8>)
 800692e:	62e3      	str	r3, [r4, #44]	; 0x2c
 8006930:	e7fe      	b.n	8006930 <main+0x560>
 8006932:	f8df c0a8 	ldr.w	ip, [pc, #168]	; 80069dc <main+0x60c>
 8006936:	67fe      	str	r6, [r7, #124]	; 0x7c
 8006938:	f8dc 101c 	ldr.w	r1, [ip, #28]
 800693c:	4823      	ldr	r0, [pc, #140]	; (80069cc <main+0x5fc>)
 800693e:	4b24      	ldr	r3, [pc, #144]	; (80069d0 <main+0x600>)
 8006940:	60be      	str	r6, [r7, #8]
 8006942:	f441 0100 	orr.w	r1, r1, #8388608	; 0x800000
 8006946:	f8cc 101c 	str.w	r1, [ip, #28]
 800694a:	6402      	str	r2, [r0, #64]	; 0x40
 800694c:	21d0      	movs	r1, #208	; 0xd0
 800694e:	f44f 6280 	mov.w	r2, #1024	; 0x400
 8006952:	f883 134a 	strb.w	r1, [r3, #842]	; 0x34a
 8006956:	f8c3 2188 	str.w	r2, [r3, #392]	; 0x188
 800695a:	21e0      	movs	r1, #224	; 0xe0
 800695c:	609a      	str	r2, [r3, #8]
 800695e:	f44f 6200 	mov.w	r2, #2048	; 0x800
 8006962:	f883 134b 	strb.w	r1, [r3, #843]	; 0x34b
 8006966:	f8c3 2188 	str.w	r2, [r3, #392]	; 0x188
 800696a:	609a      	str	r2, [r3, #8]
 800696c:	6406      	str	r6, [r0, #64]	; 0x40
 800696e:	2302      	movs	r3, #2
 8006970:	f887 6064 	strb.w	r6, [r7, #100]	; 0x64
 8006974:	703b      	strb	r3, [r7, #0]
 8006976:	f7f9 fea3 	bl	80006c0 <usb_lld_reset.constprop.13>
 800697a:	e782      	b.n	8006882 <main+0x4b2>
 800697c:	b672      	cpsid	i
 800697e:	4b15      	ldr	r3, [pc, #84]	; (80069d4 <main+0x604>)
 8006980:	62e3      	str	r3, [r4, #44]	; 0x2c
 8006982:	e7fe      	b.n	8006982 <main+0x5b2>
 8006984:	20000400 	.word	0x20000400
 8006988:	20001278 	.word	0x20001278
 800698c:	0800a480 	.word	0x0800a480
 8006990:	080002b1 	.word	0x080002b1
 8006994:	0800b470 	.word	0x0800b470
 8006998:	0800a890 	.word	0x0800a890
 800699c:	08002ab1 	.word	0x08002ab1
 80069a0:	0800aa10 	.word	0x0800aa10
 80069a4:	48000800 	.word	0x48000800
 80069a8:	0800b320 	.word	0x0800b320
 80069ac:	20001c34 	.word	0x20001c34
 80069b0:	080055c1 	.word	0x080055c1
 80069b4:	200023d0 	.word	0x200023d0
 80069b8:	0800aa20 	.word	0x0800aa20
 80069bc:	08002be1 	.word	0x08002be1
 80069c0:	0800a190 	.word	0x0800a190
 80069c4:	08009e30 	.word	0x08009e30
 80069c8:	08009f10 	.word	0x08009f10
 80069cc:	40005c00 	.word	0x40005c00
 80069d0:	e000e100 	.word	0xe000e100
 80069d4:	0800a1b0 	.word	0x0800a1b0
 80069d8:	08009581 	.word	0x08009581
 80069dc:	40021000 	.word	0x40021000

080069e0 <bmk8_execute>:
 80069e0:	e92d 41f0 	stmdb	sp!, {r4, r5, r6, r7, r8, lr}
 80069e4:	b084      	sub	sp, #16
 80069e6:	ac04      	add	r4, sp, #16
 80069e8:	f8df 80cc 	ldr.w	r8, [pc, #204]	; 8006ab8 <bmk8_execute+0xd8>
 80069ec:	4f2d      	ldr	r7, [pc, #180]	; (8006aa4 <bmk8_execute+0xc4>)
 80069ee:	4e2e      	ldr	r6, [pc, #184]	; (8006aa8 <bmk8_execute+0xc8>)
 80069f0:	4d2e      	ldr	r5, [pc, #184]	; (8006aac <bmk8_execute+0xcc>)
 80069f2:	2300      	movs	r3, #0
 80069f4:	f844 3d04 	str.w	r3, [r4, #-4]!
 80069f8:	f7ff f942 	bl	8005c80 <test_wait_tick>
 80069fc:	f8d8 3018 	ldr.w	r3, [r8, #24]
 8006a00:	689a      	ldr	r2, [r3, #8]
 8006a02:	9400      	str	r4, [sp, #0]
 8006a04:	463b      	mov	r3, r7
 8006a06:	3a01      	subs	r2, #1
 8006a08:	4630      	mov	r0, r6
 8006a0a:	f44f 71b4 	mov.w	r1, #360	; 0x168
 8006a0e:	f7ff fc97 	bl	8006340 <chThdCreateStatic>
 8006a12:	f8d8 3018 	ldr.w	r3, [r8, #24]
 8006a16:	6028      	str	r0, [r5, #0]
 8006a18:	689a      	ldr	r2, [r3, #8]
 8006a1a:	9400      	str	r4, [sp, #0]
 8006a1c:	463b      	mov	r3, r7
 8006a1e:	3a01      	subs	r2, #1
 8006a20:	f506 70b4 	add.w	r0, r6, #360	; 0x168
 8006a24:	f44f 71b4 	mov.w	r1, #360	; 0x168
 8006a28:	f7ff fc8a 	bl	8006340 <chThdCreateStatic>
 8006a2c:	f8d8 3018 	ldr.w	r3, [r8, #24]
 8006a30:	6068      	str	r0, [r5, #4]
 8006a32:	689a      	ldr	r2, [r3, #8]
 8006a34:	9400      	str	r4, [sp, #0]
 8006a36:	463b      	mov	r3, r7
 8006a38:	3a01      	subs	r2, #1
 8006a3a:	f506 7034 	add.w	r0, r6, #720	; 0x2d0
 8006a3e:	f44f 71b4 	mov.w	r1, #360	; 0x168
 8006a42:	f7ff fc7d 	bl	8006340 <chThdCreateStatic>
 8006a46:	f8d8 3018 	ldr.w	r3, [r8, #24]
 8006a4a:	60a8      	str	r0, [r5, #8]
 8006a4c:	689a      	ldr	r2, [r3, #8]
 8006a4e:	9400      	str	r4, [sp, #0]
 8006a50:	463b      	mov	r3, r7
 8006a52:	3a01      	subs	r2, #1
 8006a54:	f506 6087 	add.w	r0, r6, #1080	; 0x438
 8006a58:	f44f 71b4 	mov.w	r1, #360	; 0x168
 8006a5c:	f7ff fc70 	bl	8006340 <chThdCreateStatic>
 8006a60:	f8d8 3018 	ldr.w	r3, [r8, #24]
 8006a64:	60e8      	str	r0, [r5, #12]
 8006a66:	689a      	ldr	r2, [r3, #8]
 8006a68:	9400      	str	r4, [sp, #0]
 8006a6a:	3a01      	subs	r2, #1
 8006a6c:	463b      	mov	r3, r7
 8006a6e:	f44f 71b4 	mov.w	r1, #360	; 0x168
 8006a72:	f506 60b4 	add.w	r0, r6, #1440	; 0x5a0
 8006a76:	f7ff fc63 	bl	8006340 <chThdCreateStatic>
 8006a7a:	6128      	str	r0, [r5, #16]
 8006a7c:	f242 7010 	movw	r0, #10000	; 0x2710
 8006a80:	f7fe fd76 	bl	8005570 <chThdSleep>
 8006a84:	f7fc fc0c 	bl	80032a0 <test_terminate_threads>
 8006a88:	f7fe fbe2 	bl	8005250 <test_wait_threads>
 8006a8c:	4808      	ldr	r0, [pc, #32]	; (8006ab0 <bmk8_execute+0xd0>)
 8006a8e:	f7f9 fd6f 	bl	8000570 <test_print>
 8006a92:	9803      	ldr	r0, [sp, #12]
 8006a94:	f7f9 fce4 	bl	8000460 <test_printn>
 8006a98:	4806      	ldr	r0, [pc, #24]	; (8006ab4 <bmk8_execute+0xd4>)
 8006a9a:	f7f9 fd49 	bl	8000530 <test_println>
 8006a9e:	b004      	add	sp, #16
 8006aa0:	e8bd 81f0 	ldmia.w	sp!, {r4, r5, r6, r7, r8, pc}
 8006aa4:	08005541 	.word	0x08005541
 8006aa8:	20001c38 	.word	0x20001c38
 8006aac:	2000236c 	.word	0x2000236c
 8006ab0:	0800a320 	.word	0x0800a320
 8006ab4:	0800a430 	.word	0x0800a430
 8006ab8:	20001558 	.word	0x20001558
 8006abc:	00000000 	.word	0x00000000

08006ac0 <bmk7_execute>:
 8006ac0:	b5f0      	push	{r4, r5, r6, r7, lr}
 8006ac2:	4d31      	ldr	r5, [pc, #196]	; (8006b88 <bmk7_execute+0xc8>)
 8006ac4:	4b31      	ldr	r3, [pc, #196]	; (8006b8c <bmk7_execute+0xcc>)
 8006ac6:	69aa      	ldr	r2, [r5, #24]
 8006ac8:	4831      	ldr	r0, [pc, #196]	; (8006b90 <bmk7_execute+0xd0>)
 8006aca:	6892      	ldr	r2, [r2, #8]
 8006acc:	4f31      	ldr	r7, [pc, #196]	; (8006b94 <bmk7_execute+0xd4>)
 8006ace:	4e32      	ldr	r6, [pc, #200]	; (8006b98 <bmk7_execute+0xd8>)
 8006ad0:	b083      	sub	sp, #12
 8006ad2:	2400      	movs	r4, #0
 8006ad4:	3205      	adds	r2, #5
 8006ad6:	f44f 71b4 	mov.w	r1, #360	; 0x168
 8006ada:	9400      	str	r4, [sp, #0]
 8006adc:	f7ff fc30 	bl	8006340 <chThdCreateStatic>
 8006ae0:	69ab      	ldr	r3, [r5, #24]
 8006ae2:	6038      	str	r0, [r7, #0]
 8006ae4:	689a      	ldr	r2, [r3, #8]
 8006ae6:	482d      	ldr	r0, [pc, #180]	; (8006b9c <bmk7_execute+0xdc>)
 8006ae8:	4b28      	ldr	r3, [pc, #160]	; (8006b8c <bmk7_execute+0xcc>)
 8006aea:	9400      	str	r4, [sp, #0]
 8006aec:	3204      	adds	r2, #4
 8006aee:	f44f 71b4 	mov.w	r1, #360	; 0x168
 8006af2:	f7ff fc25 	bl	8006340 <chThdCreateStatic>
 8006af6:	69ab      	ldr	r3, [r5, #24]
 8006af8:	6078      	str	r0, [r7, #4]
 8006afa:	689a      	ldr	r2, [r3, #8]
 8006afc:	4828      	ldr	r0, [pc, #160]	; (8006ba0 <bmk7_execute+0xe0>)
 8006afe:	4b23      	ldr	r3, [pc, #140]	; (8006b8c <bmk7_execute+0xcc>)
 8006b00:	9400      	str	r4, [sp, #0]
 8006b02:	3203      	adds	r2, #3
 8006b04:	f44f 71b4 	mov.w	r1, #360	; 0x168
 8006b08:	f7ff fc1a 	bl	8006340 <chThdCreateStatic>
 8006b0c:	69ab      	ldr	r3, [r5, #24]
 8006b0e:	60b8      	str	r0, [r7, #8]
 8006b10:	689a      	ldr	r2, [r3, #8]
 8006b12:	4824      	ldr	r0, [pc, #144]	; (8006ba4 <bmk7_execute+0xe4>)
 8006b14:	4b1d      	ldr	r3, [pc, #116]	; (8006b8c <bmk7_execute+0xcc>)
 8006b16:	9400      	str	r4, [sp, #0]
 8006b18:	3202      	adds	r2, #2
 8006b1a:	f44f 71b4 	mov.w	r1, #360	; 0x168
 8006b1e:	f7ff fc0f 	bl	8006340 <chThdCreateStatic>
 8006b22:	69ab      	ldr	r3, [r5, #24]
 8006b24:	60f8      	str	r0, [r7, #12]
 8006b26:	689a      	ldr	r2, [r3, #8]
 8006b28:	481f      	ldr	r0, [pc, #124]	; (8006ba8 <bmk7_execute+0xe8>)
 8006b2a:	4b18      	ldr	r3, [pc, #96]	; (8006b8c <bmk7_execute+0xcc>)
 8006b2c:	9400      	str	r4, [sp, #0]
 8006b2e:	3201      	adds	r2, #1
 8006b30:	f44f 71b4 	mov.w	r1, #360	; 0x168
 8006b34:	f7ff fc04 	bl	8006340 <chThdCreateStatic>
 8006b38:	4d1c      	ldr	r5, [pc, #112]	; (8006bac <bmk7_execute+0xec>)
 8006b3a:	6138      	str	r0, [r7, #16]
 8006b3c:	f7ff f8a0 	bl	8005c80 <test_wait_tick>
 8006b40:	f7fb ff7e 	bl	8002a40 <test_start_timer.constprop.5>
 8006b44:	4628      	mov	r0, r5
 8006b46:	f7fb fc7b 	bl	8002440 <chSemReset.constprop.71>
 8006b4a:	7833      	ldrb	r3, [r6, #0]
 8006b4c:	3401      	adds	r4, #1
 8006b4e:	2b00      	cmp	r3, #0
 8006b50:	d0f8      	beq.n	8006b44 <bmk7_execute+0x84>
 8006b52:	f7fc fba5 	bl	80032a0 <test_terminate_threads>
 8006b56:	4815      	ldr	r0, [pc, #84]	; (8006bac <bmk7_execute+0xec>)
 8006b58:	f7fb fc72 	bl	8002440 <chSemReset.constprop.71>
 8006b5c:	f7fe fb78 	bl	8005250 <test_wait_threads>
 8006b60:	4813      	ldr	r0, [pc, #76]	; (8006bb0 <bmk7_execute+0xf0>)
 8006b62:	f7f9 fd05 	bl	8000570 <test_print>
 8006b66:	4620      	mov	r0, r4
 8006b68:	f7f9 fc7a 	bl	8000460 <test_printn>
 8006b6c:	eb04 0444 	add.w	r4, r4, r4, lsl #1
 8006b70:	4810      	ldr	r0, [pc, #64]	; (8006bb4 <bmk7_execute+0xf4>)
 8006b72:	f7f9 fcfd 	bl	8000570 <test_print>
 8006b76:	0060      	lsls	r0, r4, #1
 8006b78:	f7f9 fc72 	bl	8000460 <test_printn>
 8006b7c:	480e      	ldr	r0, [pc, #56]	; (8006bb8 <bmk7_execute+0xf8>)
 8006b7e:	b003      	add	sp, #12
 8006b80:	e8bd 40f0 	ldmia.w	sp!, {r4, r5, r6, r7, lr}
 8006b84:	f7f9 bcd4 	b.w	8000530 <test_println>
 8006b88:	20001558 	.word	0x20001558
 8006b8c:	08004e51 	.word	0x08004e51
 8006b90:	20001c38 	.word	0x20001c38
 8006b94:	2000236c 	.word	0x2000236c
 8006b98:	20002368 	.word	0x20002368
 8006b9c:	20001da0 	.word	0x20001da0
 8006ba0:	20001f08 	.word	0x20001f08
 8006ba4:	20002070 	.word	0x20002070
 8006ba8:	200021d8 	.word	0x200021d8
 8006bac:	20001c28 	.word	0x20001c28
 8006bb0:	0800a320 	.word	0x0800a320
 8006bb4:	0800a410 	.word	0x0800a410
 8006bb8:	0800a430 	.word	0x0800a430
 8006bbc:	00000000 	.word	0x00000000

08006bc0 <bmk6_execute>:
 8006bc0:	e92d 43f0 	stmdb	sp!, {r4, r5, r6, r7, r8, r9, lr}
 8006bc4:	4b14      	ldr	r3, [pc, #80]	; (8006c18 <bmk6_execute+0x58>)
 8006bc6:	f8df 9060 	ldr.w	r9, [pc, #96]	; 8006c28 <bmk6_execute+0x68>
 8006bca:	699b      	ldr	r3, [r3, #24]
 8006bcc:	f8df 805c 	ldr.w	r8, [pc, #92]	; 8006c2c <bmk6_execute+0x6c>
 8006bd0:	689d      	ldr	r5, [r3, #8]
 8006bd2:	4f12      	ldr	r7, [pc, #72]	; (8006c1c <bmk6_execute+0x5c>)
 8006bd4:	b083      	sub	sp, #12
 8006bd6:	f7ff f853 	bl	8005c80 <test_wait_tick>
 8006bda:	f7fb ff31 	bl	8002a40 <test_start_timer.constprop.5>
 8006bde:	2400      	movs	r4, #0
 8006be0:	3501      	adds	r5, #1
 8006be2:	4626      	mov	r6, r4
 8006be4:	4643      	mov	r3, r8
 8006be6:	9600      	str	r6, [sp, #0]
 8006be8:	462a      	mov	r2, r5
 8006bea:	f44f 71b4 	mov.w	r1, #360	; 0x168
 8006bee:	4638      	mov	r0, r7
 8006bf0:	f7ff fba6 	bl	8006340 <chThdCreateStatic>
 8006bf4:	f899 3000 	ldrb.w	r3, [r9]
 8006bf8:	3401      	adds	r4, #1
 8006bfa:	2b00      	cmp	r3, #0
 8006bfc:	d0f2      	beq.n	8006be4 <bmk6_execute+0x24>
 8006bfe:	4808      	ldr	r0, [pc, #32]	; (8006c20 <bmk6_execute+0x60>)
 8006c00:	f7f9 fcb6 	bl	8000570 <test_print>
 8006c04:	4620      	mov	r0, r4
 8006c06:	f7f9 fc2b 	bl	8000460 <test_printn>
 8006c0a:	4806      	ldr	r0, [pc, #24]	; (8006c24 <bmk6_execute+0x64>)
 8006c0c:	b003      	add	sp, #12
 8006c0e:	e8bd 43f0 	ldmia.w	sp!, {r4, r5, r6, r7, r8, r9, lr}
 8006c12:	f7f9 bc8d 	b.w	8000530 <test_println>
 8006c16:	bf00      	nop
 8006c18:	20001558 	.word	0x20001558
 8006c1c:	20001c38 	.word	0x20001c38
 8006c20:	0800a320 	.word	0x0800a320
 8006c24:	0800a400 	.word	0x0800a400
 8006c28:	20002368 	.word	0x20002368
 8006c2c:	08005491 	.word	0x08005491

08006c30 <bmk5_execute>:
 8006c30:	e92d 43f0 	stmdb	sp!, {r4, r5, r6, r7, r8, r9, lr}
 8006c34:	4b15      	ldr	r3, [pc, #84]	; (8006c8c <bmk5_execute+0x5c>)
 8006c36:	f8df 9064 	ldr.w	r9, [pc, #100]	; 8006c9c <bmk5_execute+0x6c>
 8006c3a:	699b      	ldr	r3, [r3, #24]
 8006c3c:	f8df 8060 	ldr.w	r8, [pc, #96]	; 8006ca0 <bmk5_execute+0x70>
 8006c40:	689d      	ldr	r5, [r3, #8]
 8006c42:	4f13      	ldr	r7, [pc, #76]	; (8006c90 <bmk5_execute+0x60>)
 8006c44:	b083      	sub	sp, #12
 8006c46:	f7ff f81b 	bl	8005c80 <test_wait_tick>
 8006c4a:	f7fb fef9 	bl	8002a40 <test_start_timer.constprop.5>
 8006c4e:	2400      	movs	r4, #0
 8006c50:	3d01      	subs	r5, #1
 8006c52:	4626      	mov	r6, r4
 8006c54:	4643      	mov	r3, r8
 8006c56:	462a      	mov	r2, r5
 8006c58:	f44f 71b4 	mov.w	r1, #360	; 0x168
 8006c5c:	9600      	str	r6, [sp, #0]
 8006c5e:	4638      	mov	r0, r7
 8006c60:	f7ff fb6e 	bl	8006340 <chThdCreateStatic>
 8006c64:	f7fe fa84 	bl	8005170 <chThdWait>
 8006c68:	f899 3000 	ldrb.w	r3, [r9]
 8006c6c:	3401      	adds	r4, #1
 8006c6e:	2b00      	cmp	r3, #0
 8006c70:	d0f0      	beq.n	8006c54 <bmk5_execute+0x24>
 8006c72:	4808      	ldr	r0, [pc, #32]	; (8006c94 <bmk5_execute+0x64>)
 8006c74:	f7f9 fc7c 	bl	8000570 <test_print>
 8006c78:	4620      	mov	r0, r4
 8006c7a:	f7f9 fbf1 	bl	8000460 <test_printn>
 8006c7e:	4806      	ldr	r0, [pc, #24]	; (8006c98 <bmk5_execute+0x68>)
 8006c80:	b003      	add	sp, #12
 8006c82:	e8bd 43f0 	ldmia.w	sp!, {r4, r5, r6, r7, r8, r9, lr}
 8006c86:	f7f9 bc53 	b.w	8000530 <test_println>
 8006c8a:	bf00      	nop
 8006c8c:	20001558 	.word	0x20001558
 8006c90:	20001c38 	.word	0x20001c38
 8006c94:	0800a320 	.word	0x0800a320
 8006c98:	0800a400 	.word	0x0800a400
 8006c9c:	20002368 	.word	0x20002368
 8006ca0:	08005491 	.word	0x08005491
	...

08006cb0 <bmk4_execute>:
 8006cb0:	e92d 43f0 	stmdb	sp!, {r4, r5, r6, r7, r8, r9, lr}
 8006cb4:	4c38      	ldr	r4, [pc, #224]	; (8006d98 <bmk4_execute+0xe8>)
 8006cb6:	4b39      	ldr	r3, [pc, #228]	; (8006d9c <bmk4_execute+0xec>)
 8006cb8:	69a2      	ldr	r2, [r4, #24]
 8006cba:	4839      	ldr	r0, [pc, #228]	; (8006da0 <bmk4_execute+0xf0>)
 8006cbc:	6892      	ldr	r2, [r2, #8]
 8006cbe:	f8df 90f4 	ldr.w	r9, [pc, #244]	; 8006db4 <bmk4_execute+0x104>
 8006cc2:	b083      	sub	sp, #12
 8006cc4:	2500      	movs	r5, #0
 8006cc6:	3201      	adds	r2, #1
 8006cc8:	f44f 71b4 	mov.w	r1, #360	; 0x168
 8006ccc:	9500      	str	r5, [sp, #0]
 8006cce:	f7ff fb37 	bl	8006340 <chThdCreateStatic>
 8006cd2:	4b34      	ldr	r3, [pc, #208]	; (8006da4 <bmk4_execute+0xf4>)
 8006cd4:	4606      	mov	r6, r0
 8006cd6:	6018      	str	r0, [r3, #0]
 8006cd8:	f7fe ffd2 	bl	8005c80 <test_wait_tick>
 8006cdc:	f7fb feb0 	bl	8002a40 <test_start_timer.constprop.5>
 8006ce0:	46a8      	mov	r8, r5
 8006ce2:	2720      	movs	r7, #32
 8006ce4:	f387 8811 	msr	BASEPRI, r7
 8006ce8:	f7fb faaa 	bl	8002240 <_stats_start_measure_crit_thd>
 8006cec:	f7fb fb98 	bl	8002420 <_dbg_check_lock>
 8006cf0:	4630      	mov	r0, r6
 8006cf2:	2100      	movs	r1, #0
 8006cf4:	f7fb f8c4 	bl	8001e80 <chSchWakeupS>
 8006cf8:	4630      	mov	r0, r6
 8006cfa:	2100      	movs	r1, #0
 8006cfc:	f7fb f8c0 	bl	8001e80 <chSchWakeupS>
 8006d00:	4630      	mov	r0, r6
 8006d02:	2100      	movs	r1, #0
 8006d04:	f7fb f8bc 	bl	8001e80 <chSchWakeupS>
 8006d08:	4630      	mov	r0, r6
 8006d0a:	2100      	movs	r1, #0
 8006d0c:	f7fb f8b8 	bl	8001e80 <chSchWakeupS>
 8006d10:	f7fb faa6 	bl	8002260 <_dbg_check_unlock>
 8006d14:	f7fb fa8c 	bl	8002230 <_stats_stop_measure_crit_thd>
 8006d18:	6823      	ldr	r3, [r4, #0]
 8006d1a:	42a3      	cmp	r3, r4
 8006d1c:	d004      	beq.n	8006d28 <bmk4_execute+0x78>
 8006d1e:	69a2      	ldr	r2, [r4, #24]
 8006d20:	689b      	ldr	r3, [r3, #8]
 8006d22:	6892      	ldr	r2, [r2, #8]
 8006d24:	429a      	cmp	r2, r3
 8006d26:	d32f      	bcc.n	8006d88 <bmk4_execute+0xd8>
 8006d28:	f388 8811 	msr	BASEPRI, r8
 8006d2c:	f899 3000 	ldrb.w	r3, [r9]
 8006d30:	3504      	adds	r5, #4
 8006d32:	2b00      	cmp	r3, #0
 8006d34:	d0d6      	beq.n	8006ce4 <bmk4_execute+0x34>
 8006d36:	2320      	movs	r3, #32
 8006d38:	f383 8811 	msr	BASEPRI, r3
 8006d3c:	f7fb fa80 	bl	8002240 <_stats_start_measure_crit_thd>
 8006d40:	f7fb fb6e 	bl	8002420 <_dbg_check_lock>
 8006d44:	4630      	mov	r0, r6
 8006d46:	f04f 31ff 	mov.w	r1, #4294967295	; 0xffffffff
 8006d4a:	f7fb f899 	bl	8001e80 <chSchWakeupS>
 8006d4e:	f7fb fa87 	bl	8002260 <_dbg_check_unlock>
 8006d52:	f7fb fa6d 	bl	8002230 <_stats_stop_measure_crit_thd>
 8006d56:	6823      	ldr	r3, [r4, #0]
 8006d58:	42a3      	cmp	r3, r4
 8006d5a:	d004      	beq.n	8006d66 <bmk4_execute+0xb6>
 8006d5c:	69a2      	ldr	r2, [r4, #24]
 8006d5e:	689b      	ldr	r3, [r3, #8]
 8006d60:	6892      	ldr	r2, [r2, #8]
 8006d62:	429a      	cmp	r2, r3
 8006d64:	d314      	bcc.n	8006d90 <bmk4_execute+0xe0>
 8006d66:	2300      	movs	r3, #0
 8006d68:	f383 8811 	msr	BASEPRI, r3
 8006d6c:	f7fe fa70 	bl	8005250 <test_wait_threads>
 8006d70:	480d      	ldr	r0, [pc, #52]	; (8006da8 <bmk4_execute+0xf8>)
 8006d72:	f7f9 fbfd 	bl	8000570 <test_print>
 8006d76:	0068      	lsls	r0, r5, #1
 8006d78:	f7f9 fb72 	bl	8000460 <test_printn>
 8006d7c:	480b      	ldr	r0, [pc, #44]	; (8006dac <bmk4_execute+0xfc>)
 8006d7e:	b003      	add	sp, #12
 8006d80:	e8bd 43f0 	ldmia.w	sp!, {r4, r5, r6, r7, r8, r9, lr}
 8006d84:	f7f9 bbd4 	b.w	8000530 <test_println>
 8006d88:	b672      	cpsid	i
 8006d8a:	4b09      	ldr	r3, [pc, #36]	; (8006db0 <bmk4_execute+0x100>)
 8006d8c:	62e3      	str	r3, [r4, #44]	; 0x2c
 8006d8e:	e7fe      	b.n	8006d8e <bmk4_execute+0xde>
 8006d90:	b672      	cpsid	i
 8006d92:	4b07      	ldr	r3, [pc, #28]	; (8006db0 <bmk4_execute+0x100>)
 8006d94:	62e3      	str	r3, [r4, #44]	; 0x2c
 8006d96:	e7fe      	b.n	8006d96 <bmk4_execute+0xe6>
 8006d98:	20001558 	.word	0x20001558
 8006d9c:	08002ea1 	.word	0x08002ea1
 8006da0:	20001c38 	.word	0x20001c38
 8006da4:	2000236c 	.word	0x2000236c
 8006da8:	0800a320 	.word	0x0800a320
 8006dac:	0800a430 	.word	0x0800a430
 8006db0:	08009ec0 	.word	0x08009ec0
 8006db4:	20002368 	.word	0x20002368
	...

08006dc0 <bmk3_execute>:
 8006dc0:	e92d 41f0 	stmdb	sp!, {r4, r5, r6, r7, r8, lr}
 8006dc4:	4f2c      	ldr	r7, [pc, #176]	; (8006e78 <bmk3_execute+0xb8>)
 8006dc6:	4d2d      	ldr	r5, [pc, #180]	; (8006e7c <bmk3_execute+0xbc>)
 8006dc8:	69ba      	ldr	r2, [r7, #24]
 8006dca:	4b2d      	ldr	r3, [pc, #180]	; (8006e80 <bmk3_execute+0xc0>)
 8006dcc:	6892      	ldr	r2, [r2, #8]
 8006dce:	4c2d      	ldr	r4, [pc, #180]	; (8006e84 <bmk3_execute+0xc4>)
 8006dd0:	f8df 80c0 	ldr.w	r8, [pc, #192]	; 8006e94 <bmk3_execute+0xd4>
 8006dd4:	b082      	sub	sp, #8
 8006dd6:	2600      	movs	r6, #0
 8006dd8:	3201      	adds	r2, #1
 8006dda:	4628      	mov	r0, r5
 8006ddc:	9600      	str	r6, [sp, #0]
 8006dde:	f44f 71b4 	mov.w	r1, #360	; 0x168
 8006de2:	f7ff faad 	bl	8006340 <chThdCreateStatic>
 8006de6:	69bb      	ldr	r3, [r7, #24]
 8006de8:	6020      	str	r0, [r4, #0]
 8006dea:	689a      	ldr	r2, [r3, #8]
 8006dec:	9600      	str	r6, [sp, #0]
 8006dee:	4643      	mov	r3, r8
 8006df0:	3a02      	subs	r2, #2
 8006df2:	f505 70b4 	add.w	r0, r5, #360	; 0x168
 8006df6:	f44f 71b4 	mov.w	r1, #360	; 0x168
 8006dfa:	f7ff faa1 	bl	8006340 <chThdCreateStatic>
 8006dfe:	69bb      	ldr	r3, [r7, #24]
 8006e00:	6060      	str	r0, [r4, #4]
 8006e02:	689a      	ldr	r2, [r3, #8]
 8006e04:	9600      	str	r6, [sp, #0]
 8006e06:	4643      	mov	r3, r8
 8006e08:	3a03      	subs	r2, #3
 8006e0a:	f505 7034 	add.w	r0, r5, #720	; 0x2d0
 8006e0e:	f44f 71b4 	mov.w	r1, #360	; 0x168
 8006e12:	f7ff fa95 	bl	8006340 <chThdCreateStatic>
 8006e16:	69bb      	ldr	r3, [r7, #24]
 8006e18:	60a0      	str	r0, [r4, #8]
 8006e1a:	689a      	ldr	r2, [r3, #8]
 8006e1c:	9600      	str	r6, [sp, #0]
 8006e1e:	4643      	mov	r3, r8
 8006e20:	3a04      	subs	r2, #4
 8006e22:	f505 6087 	add.w	r0, r5, #1080	; 0x438
 8006e26:	f44f 71b4 	mov.w	r1, #360	; 0x168
 8006e2a:	f7ff fa89 	bl	8006340 <chThdCreateStatic>
 8006e2e:	69bb      	ldr	r3, [r7, #24]
 8006e30:	60e0      	str	r0, [r4, #12]
 8006e32:	689a      	ldr	r2, [r3, #8]
 8006e34:	9600      	str	r6, [sp, #0]
 8006e36:	3a05      	subs	r2, #5
 8006e38:	4643      	mov	r3, r8
 8006e3a:	f44f 71b4 	mov.w	r1, #360	; 0x168
 8006e3e:	f505 60b4 	add.w	r0, r5, #1440	; 0x5a0
 8006e42:	f7ff fa7d 	bl	8006340 <chThdCreateStatic>
 8006e46:	6120      	str	r0, [r4, #16]
 8006e48:	6820      	ldr	r0, [r4, #0]
 8006e4a:	f7ff f889 	bl	8005f60 <msg_loop_test>
 8006e4e:	4604      	mov	r4, r0
 8006e50:	f7fe f9fe 	bl	8005250 <test_wait_threads>
 8006e54:	480c      	ldr	r0, [pc, #48]	; (8006e88 <bmk3_execute+0xc8>)
 8006e56:	f7f9 fb8b 	bl	8000570 <test_print>
 8006e5a:	4620      	mov	r0, r4
 8006e5c:	f7f9 fb00 	bl	8000460 <test_printn>
 8006e60:	480a      	ldr	r0, [pc, #40]	; (8006e8c <bmk3_execute+0xcc>)
 8006e62:	f7f9 fb85 	bl	8000570 <test_print>
 8006e66:	0060      	lsls	r0, r4, #1
 8006e68:	f7f9 fafa 	bl	8000460 <test_printn>
 8006e6c:	4808      	ldr	r0, [pc, #32]	; (8006e90 <bmk3_execute+0xd0>)
 8006e6e:	b002      	add	sp, #8
 8006e70:	e8bd 41f0 	ldmia.w	sp!, {r4, r5, r6, r7, r8, lr}
 8006e74:	f7f9 bb5c 	b.w	8000530 <test_println>
 8006e78:	20001558 	.word	0x20001558
 8006e7c:	20001c38 	.word	0x20001c38
 8006e80:	08004281 	.word	0x08004281
 8006e84:	2000236c 	.word	0x2000236c
 8006e88:	0800a320 	.word	0x0800a320
 8006e8c:	0800a3f0 	.word	0x0800a3f0
 8006e90:	0800a430 	.word	0x0800a430
 8006e94:	08005491 	.word	0x08005491
	...

08006ea0 <bmk2_execute>:
 8006ea0:	b510      	push	{r4, lr}
 8006ea2:	4a13      	ldr	r2, [pc, #76]	; (8006ef0 <bmk2_execute+0x50>)
 8006ea4:	4b13      	ldr	r3, [pc, #76]	; (8006ef4 <bmk2_execute+0x54>)
 8006ea6:	6992      	ldr	r2, [r2, #24]
 8006ea8:	4813      	ldr	r0, [pc, #76]	; (8006ef8 <bmk2_execute+0x58>)
 8006eaa:	6892      	ldr	r2, [r2, #8]
 8006eac:	b082      	sub	sp, #8
 8006eae:	2100      	movs	r1, #0
 8006eb0:	3201      	adds	r2, #1
 8006eb2:	9100      	str	r1, [sp, #0]
 8006eb4:	f44f 71b4 	mov.w	r1, #360	; 0x168
 8006eb8:	f7ff fa42 	bl	8006340 <chThdCreateStatic>
 8006ebc:	4b0f      	ldr	r3, [pc, #60]	; (8006efc <bmk2_execute+0x5c>)
 8006ebe:	6018      	str	r0, [r3, #0]
 8006ec0:	f7ff f84e 	bl	8005f60 <msg_loop_test>
 8006ec4:	4604      	mov	r4, r0
 8006ec6:	f7fe f9c3 	bl	8005250 <test_wait_threads>
 8006eca:	480d      	ldr	r0, [pc, #52]	; (8006f00 <bmk2_execute+0x60>)
 8006ecc:	f7f9 fb50 	bl	8000570 <test_print>
 8006ed0:	4620      	mov	r0, r4
 8006ed2:	f7f9 fac5 	bl	8000460 <test_printn>
 8006ed6:	480b      	ldr	r0, [pc, #44]	; (8006f04 <bmk2_execute+0x64>)
 8006ed8:	f7f9 fb4a 	bl	8000570 <test_print>
 8006edc:	0060      	lsls	r0, r4, #1
 8006ede:	f7f9 fabf 	bl	8000460 <test_printn>
 8006ee2:	4809      	ldr	r0, [pc, #36]	; (8006f08 <bmk2_execute+0x68>)
 8006ee4:	b002      	add	sp, #8
 8006ee6:	e8bd 4010 	ldmia.w	sp!, {r4, lr}
 8006eea:	f7f9 bb21 	b.w	8000530 <test_println>
 8006eee:	bf00      	nop
 8006ef0:	20001558 	.word	0x20001558
 8006ef4:	08004281 	.word	0x08004281
 8006ef8:	20001c38 	.word	0x20001c38
 8006efc:	2000236c 	.word	0x2000236c
 8006f00:	0800a320 	.word	0x0800a320
 8006f04:	0800a3f0 	.word	0x0800a3f0
 8006f08:	0800a430 	.word	0x0800a430
 8006f0c:	00000000 	.word	0x00000000

08006f10 <bmk1_execute>:
 8006f10:	b510      	push	{r4, lr}
 8006f12:	4a13      	ldr	r2, [pc, #76]	; (8006f60 <bmk1_execute+0x50>)
 8006f14:	4b13      	ldr	r3, [pc, #76]	; (8006f64 <bmk1_execute+0x54>)
 8006f16:	6992      	ldr	r2, [r2, #24]
 8006f18:	4813      	ldr	r0, [pc, #76]	; (8006f68 <bmk1_execute+0x58>)
 8006f1a:	6892      	ldr	r2, [r2, #8]
 8006f1c:	b082      	sub	sp, #8
 8006f1e:	2100      	movs	r1, #0
 8006f20:	3a01      	subs	r2, #1
 8006f22:	9100      	str	r1, [sp, #0]
 8006f24:	f44f 71b4 	mov.w	r1, #360	; 0x168
 8006f28:	f7ff fa0a 	bl	8006340 <chThdCreateStatic>
 8006f2c:	4b0f      	ldr	r3, [pc, #60]	; (8006f6c <bmk1_execute+0x5c>)
 8006f2e:	6018      	str	r0, [r3, #0]
 8006f30:	f7ff f816 	bl	8005f60 <msg_loop_test>
 8006f34:	4604      	mov	r4, r0
 8006f36:	f7fe f98b 	bl	8005250 <test_wait_threads>
 8006f3a:	480d      	ldr	r0, [pc, #52]	; (8006f70 <bmk1_execute+0x60>)
 8006f3c:	f7f9 fb18 	bl	8000570 <test_print>
 8006f40:	4620      	mov	r0, r4
 8006f42:	f7f9 fa8d 	bl	8000460 <test_printn>
 8006f46:	480b      	ldr	r0, [pc, #44]	; (8006f74 <bmk1_execute+0x64>)
 8006f48:	f7f9 fb12 	bl	8000570 <test_print>
 8006f4c:	0060      	lsls	r0, r4, #1
 8006f4e:	f7f9 fa87 	bl	8000460 <test_printn>
 8006f52:	4809      	ldr	r0, [pc, #36]	; (8006f78 <bmk1_execute+0x68>)
 8006f54:	b002      	add	sp, #8
 8006f56:	e8bd 4010 	ldmia.w	sp!, {r4, lr}
 8006f5a:	f7f9 bae9 	b.w	8000530 <test_println>
 8006f5e:	bf00      	nop
 8006f60:	20001558 	.word	0x20001558
 8006f64:	08004281 	.word	0x08004281
 8006f68:	20001c38 	.word	0x20001c38
 8006f6c:	2000236c 	.word	0x2000236c
 8006f70:	0800a320 	.word	0x0800a320
 8006f74:	0800a3f0 	.word	0x0800a3f0
 8006f78:	0800a430 	.word	0x0800a430
 8006f7c:	00000000 	.word	0x00000000

08006f80 <queues2_execute>:
 8006f80:	e92d 43f0 	stmdb	sp!, {r4, r5, r6, r7, r8, r9, lr}
 8006f84:	2320      	movs	r3, #32
 8006f86:	b083      	sub	sp, #12
 8006f88:	f383 8811 	msr	BASEPRI, r3
 8006f8c:	4d67      	ldr	r5, [pc, #412]	; (800712c <queues2_execute+0x1ac>)
 8006f8e:	f7fb f957 	bl	8002240 <_stats_start_measure_crit_thd>
 8006f92:	f7fb fa45 	bl	8002420 <_dbg_check_lock>
 8006f96:	f7f9 fcf3 	bl	8000980 <chDbgCheckClassI>
 8006f9a:	e9d5 2305 	ldrd	r2, r3, [r5, #20]
 8006f9e:	429a      	cmp	r2, r3
 8006fa0:	f000 80b2 	beq.w	8007108 <queues2_execute+0x188>
 8006fa4:	2100      	movs	r1, #0
 8006fa6:	2001      	movs	r0, #1
 8006fa8:	f7f9 faaa 	bl	8000500 <_test_assert>
 8006fac:	2800      	cmp	r0, #0
 8006fae:	f040 8084 	bne.w	80070ba <queues2_execute+0x13a>
 8006fb2:	4c5f      	ldr	r4, [pc, #380]	; (8007130 <queues2_execute+0x1b0>)
 8006fb4:	f7fb f954 	bl	8002260 <_dbg_check_unlock>
 8006fb8:	f7fb f93a 	bl	8002230 <_stats_stop_measure_crit_thd>
 8006fbc:	6823      	ldr	r3, [r4, #0]
 8006fbe:	42a3      	cmp	r3, r4
 8006fc0:	d005      	beq.n	8006fce <queues2_execute+0x4e>
 8006fc2:	69a2      	ldr	r2, [r4, #24]
 8006fc4:	689b      	ldr	r3, [r3, #8]
 8006fc6:	6892      	ldr	r2, [r2, #8]
 8006fc8:	429a      	cmp	r2, r3
 8006fca:	f0c0 8099 	bcc.w	8007100 <queues2_execute+0x180>
 8006fce:	2300      	movs	r3, #0
 8006fd0:	f383 8811 	msr	BASEPRI, r3
 8006fd4:	4f55      	ldr	r7, [pc, #340]	; (800712c <queues2_execute+0x1ac>)
 8006fd6:	2641      	movs	r6, #65	; 0x41
 8006fd8:	4631      	mov	r1, r6
 8006fda:	3601      	adds	r6, #1
 8006fdc:	f04f 32ff 	mov.w	r2, #4294967295	; 0xffffffff
 8006fe0:	4638      	mov	r0, r7
 8006fe2:	b2f6      	uxtb	r6, r6
 8006fe4:	f7fc ff6c 	bl	8003ec0 <chOQPutTimeout>
 8006fe8:	2e45      	cmp	r6, #69	; 0x45
 8006fea:	d1f5      	bne.n	8006fd8 <queues2_execute+0x58>
 8006fec:	2320      	movs	r3, #32
 8006fee:	f383 8811 	msr	BASEPRI, r3
 8006ff2:	f7fb f925 	bl	8002240 <_stats_start_measure_crit_thd>
 8006ff6:	f7fb fa13 	bl	8002420 <_dbg_check_lock>
 8006ffa:	f7f9 fcc1 	bl	8000980 <chDbgCheckClassI>
 8006ffe:	68a9      	ldr	r1, [r5, #8]
 8007000:	fab1 f181 	clz	r1, r1
 8007004:	0949      	lsrs	r1, r1, #5
 8007006:	2002      	movs	r0, #2
 8007008:	f7f9 fa7a 	bl	8000500 <_test_assert>
 800700c:	2800      	cmp	r0, #0
 800700e:	d165      	bne.n	80070dc <queues2_execute+0x15c>
 8007010:	f7fb f926 	bl	8002260 <_dbg_check_unlock>
 8007014:	f7fb f90c 	bl	8002230 <_stats_stop_measure_crit_thd>
 8007018:	6823      	ldr	r3, [r4, #0]
 800701a:	42a3      	cmp	r3, r4
 800701c:	d004      	beq.n	8007028 <queues2_execute+0xa8>
 800701e:	69a2      	ldr	r2, [r4, #24]
 8007020:	689b      	ldr	r3, [r3, #8]
 8007022:	6892      	ldr	r2, [r2, #8]
 8007024:	429a      	cmp	r2, r3
 8007026:	d378      	bcc.n	800711a <queues2_execute+0x19a>
 8007028:	2300      	movs	r3, #0
 800702a:	f383 8811 	msr	BASEPRI, r3
 800702e:	2604      	movs	r6, #4
 8007030:	461f      	mov	r7, r3
 8007032:	f04f 0820 	mov.w	r8, #32
 8007036:	f388 8811 	msr	BASEPRI, r8
 800703a:	f7fb f901 	bl	8002240 <_stats_start_measure_crit_thd>
 800703e:	f7fb f9ef 	bl	8002420 <_dbg_check_lock>
 8007042:	f7f9 fdbd 	bl	8000bc0 <chOQGetI.constprop.29>
 8007046:	fa5f f980 	uxtb.w	r9, r0
 800704a:	f7fb f909 	bl	8002260 <_dbg_check_unlock>
 800704e:	f7fb f8ef 	bl	8002230 <_stats_stop_measure_crit_thd>
 8007052:	6823      	ldr	r3, [r4, #0]
 8007054:	42a3      	cmp	r3, r4
 8007056:	d004      	beq.n	8007062 <queues2_execute+0xe2>
 8007058:	69a2      	ldr	r2, [r4, #24]
 800705a:	689b      	ldr	r3, [r3, #8]
 800705c:	6892      	ldr	r2, [r2, #8]
 800705e:	429a      	cmp	r2, r3
 8007060:	d357      	bcc.n	8007112 <queues2_execute+0x192>
 8007062:	f387 8811 	msr	BASEPRI, r7
 8007066:	4648      	mov	r0, r9
 8007068:	f7fc f992 	bl	8003390 <test_emit_token>
 800706c:	3e01      	subs	r6, #1
 800706e:	d1e2      	bne.n	8007036 <queues2_execute+0xb6>
 8007070:	2320      	movs	r3, #32
 8007072:	f383 8811 	msr	BASEPRI, r3
 8007076:	f7fb f8e3 	bl	8002240 <_stats_start_measure_crit_thd>
 800707a:	f7fb f9d1 	bl	8002420 <_dbg_check_lock>
 800707e:	f7f9 fc7f 	bl	8000980 <chDbgCheckClassI>
 8007082:	e9d5 2305 	ldrd	r2, r3, [r5, #20]
 8007086:	429a      	cmp	r2, r3
 8007088:	f000 8191 	beq.w	80073ae <queues2_execute+0x42e>
 800708c:	4631      	mov	r1, r6
 800708e:	2003      	movs	r0, #3
 8007090:	f7f9 fa36 	bl	8000500 <_test_assert>
 8007094:	2800      	cmp	r0, #0
 8007096:	f040 8178 	bne.w	800738a <queues2_execute+0x40a>
 800709a:	f7fb f8e1 	bl	8002260 <_dbg_check_unlock>
 800709e:	f7fb f8c7 	bl	8002230 <_stats_stop_measure_crit_thd>
 80070a2:	6823      	ldr	r3, [r4, #0]
 80070a4:	42a3      	cmp	r3, r4
 80070a6:	d047      	beq.n	8007138 <queues2_execute+0x1b8>
 80070a8:	69a2      	ldr	r2, [r4, #24]
 80070aa:	689b      	ldr	r3, [r3, #8]
 80070ac:	6892      	ldr	r2, [r2, #8]
 80070ae:	429a      	cmp	r2, r3
 80070b0:	d242      	bcs.n	8007138 <queues2_execute+0x1b8>
 80070b2:	b672      	cpsid	i
 80070b4:	4b1f      	ldr	r3, [pc, #124]	; (8007134 <queues2_execute+0x1b4>)
 80070b6:	62e3      	str	r3, [r4, #44]	; 0x2c
 80070b8:	e7fe      	b.n	80070b8 <queues2_execute+0x138>
 80070ba:	f7fb f8d1 	bl	8002260 <_dbg_check_unlock>
 80070be:	f7fb f8b7 	bl	8002230 <_stats_stop_measure_crit_thd>
 80070c2:	4b1b      	ldr	r3, [pc, #108]	; (8007130 <queues2_execute+0x1b0>)
 80070c4:	681a      	ldr	r2, [r3, #0]
 80070c6:	429a      	cmp	r2, r3
 80070c8:	d014      	beq.n	80070f4 <queues2_execute+0x174>
 80070ca:	6999      	ldr	r1, [r3, #24]
 80070cc:	6892      	ldr	r2, [r2, #8]
 80070ce:	6889      	ldr	r1, [r1, #8]
 80070d0:	4291      	cmp	r1, r2
 80070d2:	d20f      	bcs.n	80070f4 <queues2_execute+0x174>
 80070d4:	b672      	cpsid	i
 80070d6:	4a17      	ldr	r2, [pc, #92]	; (8007134 <queues2_execute+0x1b4>)
 80070d8:	62da      	str	r2, [r3, #44]	; 0x2c
 80070da:	e7fe      	b.n	80070da <queues2_execute+0x15a>
 80070dc:	f7fb f8c0 	bl	8002260 <_dbg_check_unlock>
 80070e0:	f7fb f8a6 	bl	8002230 <_stats_stop_measure_crit_thd>
 80070e4:	6823      	ldr	r3, [r4, #0]
 80070e6:	42a3      	cmp	r3, r4
 80070e8:	d004      	beq.n	80070f4 <queues2_execute+0x174>
 80070ea:	69a2      	ldr	r2, [r4, #24]
 80070ec:	689b      	ldr	r3, [r3, #8]
 80070ee:	6892      	ldr	r2, [r2, #8]
 80070f0:	429a      	cmp	r2, r3
 80070f2:	d316      	bcc.n	8007122 <queues2_execute+0x1a2>
 80070f4:	2300      	movs	r3, #0
 80070f6:	f383 8811 	msr	BASEPRI, r3
 80070fa:	b003      	add	sp, #12
 80070fc:	e8bd 83f0 	ldmia.w	sp!, {r4, r5, r6, r7, r8, r9, pc}
 8007100:	b672      	cpsid	i
 8007102:	4b0c      	ldr	r3, [pc, #48]	; (8007134 <queues2_execute+0x1b4>)
 8007104:	62e3      	str	r3, [r4, #44]	; 0x2c
 8007106:	e7fe      	b.n	8007106 <queues2_execute+0x186>
 8007108:	68a9      	ldr	r1, [r5, #8]
 800710a:	3100      	adds	r1, #0
 800710c:	bf18      	it	ne
 800710e:	2101      	movne	r1, #1
 8007110:	e749      	b.n	8006fa6 <queues2_execute+0x26>
 8007112:	b672      	cpsid	i
 8007114:	4b07      	ldr	r3, [pc, #28]	; (8007134 <queues2_execute+0x1b4>)
 8007116:	62e3      	str	r3, [r4, #44]	; 0x2c
 8007118:	e7fe      	b.n	8007118 <queues2_execute+0x198>
 800711a:	b672      	cpsid	i
 800711c:	4b05      	ldr	r3, [pc, #20]	; (8007134 <queues2_execute+0x1b4>)
 800711e:	62e3      	str	r3, [r4, #44]	; 0x2c
 8007120:	e7fe      	b.n	8007120 <queues2_execute+0x1a0>
 8007122:	b672      	cpsid	i
 8007124:	4b03      	ldr	r3, [pc, #12]	; (8007134 <queues2_execute+0x1b4>)
 8007126:	62e3      	str	r3, [r4, #44]	; 0x2c
 8007128:	e7fe      	b.n	8007128 <queues2_execute+0x1a8>
 800712a:	bf00      	nop
 800712c:	20000cac 	.word	0x20000cac
 8007130:	20001558 	.word	0x20001558
 8007134:	08009ea0 	.word	0x08009ea0
 8007138:	2300      	movs	r3, #0
 800713a:	f383 8811 	msr	BASEPRI, r3
 800713e:	49b6      	ldr	r1, [pc, #728]	; (8007418 <queues2_execute+0x498>)
 8007140:	2004      	movs	r0, #4
 8007142:	f7f9 f9b5 	bl	80004b0 <_test_assert_sequence>
 8007146:	2800      	cmp	r0, #0
 8007148:	d1d7      	bne.n	80070fa <queues2_execute+0x17a>
 800714a:	2320      	movs	r3, #32
 800714c:	f383 8811 	msr	BASEPRI, r3
 8007150:	f7fb f876 	bl	8002240 <_stats_start_measure_crit_thd>
 8007154:	f7fb f964 	bl	8002420 <_dbg_check_lock>
 8007158:	f7f9 fd32 	bl	8000bc0 <chOQGetI.constprop.29>
 800715c:	3003      	adds	r0, #3
 800715e:	bf14      	ite	ne
 8007160:	2100      	movne	r1, #0
 8007162:	2101      	moveq	r1, #1
 8007164:	2005      	movs	r0, #5
 8007166:	f7f9 f9cb 	bl	8000500 <_test_assert>
 800716a:	2800      	cmp	r0, #0
 800716c:	f040 8128 	bne.w	80073c0 <queues2_execute+0x440>
 8007170:	f7fb f876 	bl	8002260 <_dbg_check_unlock>
 8007174:	f7fb f85c 	bl	8002230 <_stats_stop_measure_crit_thd>
 8007178:	6823      	ldr	r3, [r4, #0]
 800717a:	42a3      	cmp	r3, r4
 800717c:	d005      	beq.n	800718a <queues2_execute+0x20a>
 800717e:	69a2      	ldr	r2, [r4, #24]
 8007180:	689b      	ldr	r3, [r3, #8]
 8007182:	6892      	ldr	r2, [r2, #8]
 8007184:	429a      	cmp	r2, r3
 8007186:	f0c0 8117 	bcc.w	80073b8 <queues2_execute+0x438>
 800718a:	2300      	movs	r3, #0
 800718c:	f383 8811 	msr	BASEPRI, r3
 8007190:	49a2      	ldr	r1, [pc, #648]	; (800741c <queues2_execute+0x49c>)
 8007192:	48a3      	ldr	r0, [pc, #652]	; (8007420 <queues2_execute+0x4a0>)
 8007194:	2208      	movs	r2, #8
 8007196:	f7fc fe0b 	bl	8003db0 <chOQWriteTimeout>
 800719a:	f1a0 0c04 	sub.w	ip, r0, #4
 800719e:	f1dc 0100 	rsbs	r1, ip, #0
 80071a2:	eb41 010c 	adc.w	r1, r1, ip
 80071a6:	2006      	movs	r0, #6
 80071a8:	f7f9 f9aa 	bl	8000500 <_test_assert>
 80071ac:	2800      	cmp	r0, #0
 80071ae:	d1a4      	bne.n	80070fa <queues2_execute+0x17a>
 80071b0:	2320      	movs	r3, #32
 80071b2:	f383 8811 	msr	BASEPRI, r3
 80071b6:	f7fb f843 	bl	8002240 <_stats_start_measure_crit_thd>
 80071ba:	f7fb f931 	bl	8002420 <_dbg_check_lock>
 80071be:	f7f9 fbdf 	bl	8000980 <chDbgCheckClassI>
 80071c2:	68a9      	ldr	r1, [r5, #8]
 80071c4:	fab1 f181 	clz	r1, r1
 80071c8:	0949      	lsrs	r1, r1, #5
 80071ca:	2007      	movs	r0, #7
 80071cc:	f7f9 f998 	bl	8000500 <_test_assert>
 80071d0:	2800      	cmp	r0, #0
 80071d2:	f040 810b 	bne.w	80073ec <queues2_execute+0x46c>
 80071d6:	f7fb f843 	bl	8002260 <_dbg_check_unlock>
 80071da:	f7fb f829 	bl	8002230 <_stats_stop_measure_crit_thd>
 80071de:	6823      	ldr	r3, [r4, #0]
 80071e0:	42a3      	cmp	r3, r4
 80071e2:	d005      	beq.n	80071f0 <queues2_execute+0x270>
 80071e4:	69a2      	ldr	r2, [r4, #24]
 80071e6:	689b      	ldr	r3, [r3, #8]
 80071e8:	6892      	ldr	r2, [r2, #8]
 80071ea:	429a      	cmp	r2, r3
 80071ec:	f0c0 80fa 	bcc.w	80073e4 <queues2_execute+0x464>
 80071f0:	2100      	movs	r1, #0
 80071f2:	f381 8811 	msr	BASEPRI, r1
 80071f6:	69a2      	ldr	r2, [r4, #24]
 80071f8:	4b8a      	ldr	r3, [pc, #552]	; (8007424 <queues2_execute+0x4a4>)
 80071fa:	6892      	ldr	r2, [r2, #8]
 80071fc:	488a      	ldr	r0, [pc, #552]	; (8007428 <queues2_execute+0x4a8>)
 80071fe:	9100      	str	r1, [sp, #0]
 8007200:	3201      	adds	r2, #1
 8007202:	f44f 71b4 	mov.w	r1, #360	; 0x168
 8007206:	f7ff f89b 	bl	8006340 <chThdCreateStatic>
 800720a:	4a88      	ldr	r2, [pc, #544]	; (800742c <queues2_execute+0x4ac>)
 800720c:	2320      	movs	r3, #32
 800720e:	6010      	str	r0, [r2, #0]
 8007210:	f383 8811 	msr	BASEPRI, r3
 8007214:	f7fb f814 	bl	8002240 <_stats_start_measure_crit_thd>
 8007218:	f7fb f902 	bl	8002420 <_dbg_check_lock>
 800721c:	f7f9 fbb0 	bl	8000980 <chDbgCheckClassI>
 8007220:	e9d5 2303 	ldrd	r2, r3, [r5, #12]
 8007224:	68a9      	ldr	r1, [r5, #8]
 8007226:	1a9b      	subs	r3, r3, r2
 8007228:	1a59      	subs	r1, r3, r1
 800722a:	1f0f      	subs	r7, r1, #4
 800722c:	4279      	negs	r1, r7
 800722e:	4179      	adcs	r1, r7
 8007230:	2008      	movs	r0, #8
 8007232:	f7f9 f965 	bl	8000500 <_test_assert>
 8007236:	2800      	cmp	r0, #0
 8007238:	f040 808c 	bne.w	8007354 <queues2_execute+0x3d4>
 800723c:	f7fb f810 	bl	8002260 <_dbg_check_unlock>
 8007240:	f7fa fff6 	bl	8002230 <_stats_stop_measure_crit_thd>
 8007244:	6823      	ldr	r3, [r4, #0]
 8007246:	42a3      	cmp	r3, r4
 8007248:	d005      	beq.n	8007256 <queues2_execute+0x2d6>
 800724a:	69a2      	ldr	r2, [r4, #24]
 800724c:	689b      	ldr	r3, [r3, #8]
 800724e:	6892      	ldr	r2, [r2, #8]
 8007250:	429a      	cmp	r2, r3
 8007252:	f0c0 80dd 	bcc.w	8007410 <queues2_execute+0x490>
 8007256:	2300      	movs	r3, #0
 8007258:	f383 8811 	msr	BASEPRI, r3
 800725c:	f7fd fff8 	bl	8005250 <test_wait_threads>
 8007260:	2320      	movs	r3, #32
 8007262:	f383 8811 	msr	BASEPRI, r3
 8007266:	f7fa ffeb 	bl	8002240 <_stats_start_measure_crit_thd>
 800726a:	f7fb f8d9 	bl	8002420 <_dbg_check_lock>
 800726e:	f7f9 fb87 	bl	8000980 <chDbgCheckClassI>
 8007272:	e9d5 2303 	ldrd	r2, r3, [r5, #12]
 8007276:	486a      	ldr	r0, [pc, #424]	; (8007420 <queues2_execute+0x4a0>)
 8007278:	61aa      	str	r2, [r5, #24]
 800727a:	1a9b      	subs	r3, r3, r2
 800727c:	f06f 0101 	mvn.w	r1, #1
 8007280:	60ab      	str	r3, [r5, #8]
 8007282:	616a      	str	r2, [r5, #20]
 8007284:	f7f9 fdec 	bl	8000e60 <chThdDequeueAllI>
 8007288:	f7fa ffea 	bl	8002260 <_dbg_check_unlock>
 800728c:	f7fa ffd0 	bl	8002230 <_stats_stop_measure_crit_thd>
 8007290:	6823      	ldr	r3, [r4, #0]
 8007292:	42a3      	cmp	r3, r4
 8007294:	d004      	beq.n	80072a0 <queues2_execute+0x320>
 8007296:	69a2      	ldr	r2, [r4, #24]
 8007298:	689b      	ldr	r3, [r3, #8]
 800729a:	6892      	ldr	r2, [r2, #8]
 800729c:	429a      	cmp	r2, r3
 800729e:	d36b      	bcc.n	8007378 <queues2_execute+0x3f8>
 80072a0:	2300      	movs	r3, #0
 80072a2:	f383 8811 	msr	BASEPRI, r3
 80072a6:	2420      	movs	r4, #32
 80072a8:	f384 8811 	msr	BASEPRI, r4
 80072ac:	f7fa ffc8 	bl	8002240 <_stats_start_measure_crit_thd>
 80072b0:	f7fb f8b6 	bl	8002420 <_dbg_check_lock>
 80072b4:	f7f9 fb64 	bl	8000980 <chDbgCheckClassI>
 80072b8:	e9d5 2303 	ldrd	r2, r3, [r5, #12]
 80072bc:	68a9      	ldr	r1, [r5, #8]
 80072be:	1a9b      	subs	r3, r3, r2
 80072c0:	1a5e      	subs	r6, r3, r1
 80072c2:	4271      	negs	r1, r6
 80072c4:	4171      	adcs	r1, r6
 80072c6:	2009      	movs	r0, #9
 80072c8:	f7f9 f91a 	bl	8000500 <_test_assert>
 80072cc:	4606      	mov	r6, r0
 80072ce:	2800      	cmp	r0, #0
 80072d0:	d156      	bne.n	8007380 <queues2_execute+0x400>
 80072d2:	f7fb f815 	bl	8002300 <chSysUnlock.lto_priv.102>
 80072d6:	4633      	mov	r3, r6
 80072d8:	2202      	movs	r2, #2
 80072da:	4950      	ldr	r1, [pc, #320]	; (800741c <queues2_execute+0x49c>)
 80072dc:	4850      	ldr	r0, [pc, #320]	; (8007420 <queues2_execute+0x4a0>)
 80072de:	f7fc fd67 	bl	8003db0 <chOQWriteTimeout>
 80072e2:	3802      	subs	r0, #2
 80072e4:	4241      	negs	r1, r0
 80072e6:	4141      	adcs	r1, r0
 80072e8:	200a      	movs	r0, #10
 80072ea:	f7f9 f909 	bl	8000500 <_test_assert>
 80072ee:	4603      	mov	r3, r0
 80072f0:	2800      	cmp	r0, #0
 80072f2:	f47f af02 	bne.w	80070fa <queues2_execute+0x17a>
 80072f6:	2202      	movs	r2, #2
 80072f8:	4948      	ldr	r1, [pc, #288]	; (800741c <queues2_execute+0x49c>)
 80072fa:	4849      	ldr	r0, [pc, #292]	; (8007420 <queues2_execute+0x4a0>)
 80072fc:	f7fc fd58 	bl	8003db0 <chOQWriteTimeout>
 8007300:	1e82      	subs	r2, r0, #2
 8007302:	4251      	negs	r1, r2
 8007304:	4151      	adcs	r1, r2
 8007306:	200b      	movs	r0, #11
 8007308:	f7f9 f8fa 	bl	8000500 <_test_assert>
 800730c:	2800      	cmp	r0, #0
 800730e:	f47f aef4 	bne.w	80070fa <queues2_execute+0x17a>
 8007312:	f384 8811 	msr	BASEPRI, r4
 8007316:	f7fa ff93 	bl	8002240 <_stats_start_measure_crit_thd>
 800731a:	f7fb f881 	bl	8002420 <_dbg_check_lock>
 800731e:	f7f9 fb2f 	bl	8000980 <chDbgCheckClassI>
 8007322:	68a9      	ldr	r1, [r5, #8]
 8007324:	fab1 f181 	clz	r1, r1
 8007328:	0949      	lsrs	r1, r1, #5
 800732a:	200c      	movs	r0, #12
 800732c:	f7f9 f8e8 	bl	8000500 <_test_assert>
 8007330:	4604      	mov	r4, r0
 8007332:	bb28      	cbnz	r0, 8007380 <queues2_execute+0x400>
 8007334:	f7fa ffe4 	bl	8002300 <chSysUnlock.lto_priv.102>
 8007338:	4621      	mov	r1, r4
 800733a:	220a      	movs	r2, #10
 800733c:	4838      	ldr	r0, [pc, #224]	; (8007420 <queues2_execute+0x4a0>)
 800733e:	f7fc fdbf 	bl	8003ec0 <chOQPutTimeout>
 8007342:	1c43      	adds	r3, r0, #1
 8007344:	4259      	negs	r1, r3
 8007346:	4159      	adcs	r1, r3
 8007348:	200d      	movs	r0, #13
 800734a:	b003      	add	sp, #12
 800734c:	e8bd 43f0 	ldmia.w	sp!, {r4, r5, r6, r7, r8, r9, lr}
 8007350:	f7f9 b8d6 	b.w	8000500 <_test_assert>
 8007354:	f7fa ff84 	bl	8002260 <_dbg_check_unlock>
 8007358:	f7fa ff6a 	bl	8002230 <_stats_stop_measure_crit_thd>
 800735c:	6823      	ldr	r3, [r4, #0]
 800735e:	42a3      	cmp	r3, r4
 8007360:	f43f aec8 	beq.w	80070f4 <queues2_execute+0x174>
 8007364:	69a2      	ldr	r2, [r4, #24]
 8007366:	689b      	ldr	r3, [r3, #8]
 8007368:	6892      	ldr	r2, [r2, #8]
 800736a:	429a      	cmp	r2, r3
 800736c:	f4bf aec2 	bcs.w	80070f4 <queues2_execute+0x174>
 8007370:	b672      	cpsid	i
 8007372:	4b2f      	ldr	r3, [pc, #188]	; (8007430 <queues2_execute+0x4b0>)
 8007374:	62e3      	str	r3, [r4, #44]	; 0x2c
 8007376:	e7fe      	b.n	8007376 <queues2_execute+0x3f6>
 8007378:	b672      	cpsid	i
 800737a:	4b2d      	ldr	r3, [pc, #180]	; (8007430 <queues2_execute+0x4b0>)
 800737c:	62e3      	str	r3, [r4, #44]	; 0x2c
 800737e:	e7fe      	b.n	800737e <queues2_execute+0x3fe>
 8007380:	b003      	add	sp, #12
 8007382:	e8bd 43f0 	ldmia.w	sp!, {r4, r5, r6, r7, r8, r9, lr}
 8007386:	f7fa bfbb 	b.w	8002300 <chSysUnlock.lto_priv.102>
 800738a:	f7fa ff69 	bl	8002260 <_dbg_check_unlock>
 800738e:	f7fa ff4f 	bl	8002230 <_stats_stop_measure_crit_thd>
 8007392:	6823      	ldr	r3, [r4, #0]
 8007394:	42a3      	cmp	r3, r4
 8007396:	f43f aead 	beq.w	80070f4 <queues2_execute+0x174>
 800739a:	69a2      	ldr	r2, [r4, #24]
 800739c:	689b      	ldr	r3, [r3, #8]
 800739e:	6892      	ldr	r2, [r2, #8]
 80073a0:	429a      	cmp	r2, r3
 80073a2:	f4bf aea7 	bcs.w	80070f4 <queues2_execute+0x174>
 80073a6:	b672      	cpsid	i
 80073a8:	4b21      	ldr	r3, [pc, #132]	; (8007430 <queues2_execute+0x4b0>)
 80073aa:	62e3      	str	r3, [r4, #44]	; 0x2c
 80073ac:	e7fe      	b.n	80073ac <queues2_execute+0x42c>
 80073ae:	68a9      	ldr	r1, [r5, #8]
 80073b0:	3100      	adds	r1, #0
 80073b2:	bf18      	it	ne
 80073b4:	2101      	movne	r1, #1
 80073b6:	e66a      	b.n	800708e <queues2_execute+0x10e>
 80073b8:	b672      	cpsid	i
 80073ba:	4b1d      	ldr	r3, [pc, #116]	; (8007430 <queues2_execute+0x4b0>)
 80073bc:	62e3      	str	r3, [r4, #44]	; 0x2c
 80073be:	e7fe      	b.n	80073be <queues2_execute+0x43e>
 80073c0:	f7fa ff4e 	bl	8002260 <_dbg_check_unlock>
 80073c4:	f7fa ff34 	bl	8002230 <_stats_stop_measure_crit_thd>
 80073c8:	6823      	ldr	r3, [r4, #0]
 80073ca:	42a3      	cmp	r3, r4
 80073cc:	f43f ae92 	beq.w	80070f4 <queues2_execute+0x174>
 80073d0:	69a2      	ldr	r2, [r4, #24]
 80073d2:	689b      	ldr	r3, [r3, #8]
 80073d4:	6892      	ldr	r2, [r2, #8]
 80073d6:	429a      	cmp	r2, r3
 80073d8:	f4bf ae8c 	bcs.w	80070f4 <queues2_execute+0x174>
 80073dc:	b672      	cpsid	i
 80073de:	4b14      	ldr	r3, [pc, #80]	; (8007430 <queues2_execute+0x4b0>)
 80073e0:	62e3      	str	r3, [r4, #44]	; 0x2c
 80073e2:	e7fe      	b.n	80073e2 <queues2_execute+0x462>
 80073e4:	b672      	cpsid	i
 80073e6:	4b12      	ldr	r3, [pc, #72]	; (8007430 <queues2_execute+0x4b0>)
 80073e8:	62e3      	str	r3, [r4, #44]	; 0x2c
 80073ea:	e7fe      	b.n	80073ea <queues2_execute+0x46a>
 80073ec:	f7fa ff38 	bl	8002260 <_dbg_check_unlock>
 80073f0:	f7fa ff1e 	bl	8002230 <_stats_stop_measure_crit_thd>
 80073f4:	6823      	ldr	r3, [r4, #0]
 80073f6:	42a3      	cmp	r3, r4
 80073f8:	f43f ae7c 	beq.w	80070f4 <queues2_execute+0x174>
 80073fc:	69a2      	ldr	r2, [r4, #24]
 80073fe:	689b      	ldr	r3, [r3, #8]
 8007400:	6892      	ldr	r2, [r2, #8]
 8007402:	429a      	cmp	r2, r3
 8007404:	f4bf ae76 	bcs.w	80070f4 <queues2_execute+0x174>
 8007408:	b672      	cpsid	i
 800740a:	4b09      	ldr	r3, [pc, #36]	; (8007430 <queues2_execute+0x4b0>)
 800740c:	62e3      	str	r3, [r4, #44]	; 0x2c
 800740e:	e7fe      	b.n	800740e <queues2_execute+0x48e>
 8007410:	b672      	cpsid	i
 8007412:	4b07      	ldr	r3, [pc, #28]	; (8007430 <queues2_execute+0x4b0>)
 8007414:	62e3      	str	r3, [r4, #44]	; 0x2c
 8007416:	e7fe      	b.n	8007416 <queues2_execute+0x496>
 8007418:	0800a7bc 	.word	0x0800a7bc
 800741c:	20001da0 	.word	0x20001da0
 8007420:	20000cac 	.word	0x20000cac
 8007424:	08003f71 	.word	0x08003f71
 8007428:	20001c38 	.word	0x20001c38
 800742c:	2000236c 	.word	0x2000236c
 8007430:	08009ea0 	.word	0x08009ea0
	...

08007440 <queues1_execute>:
 8007440:	b5f0      	push	{r4, r5, r6, r7, lr}
 8007442:	2320      	movs	r3, #32
 8007444:	b083      	sub	sp, #12
 8007446:	f383 8811 	msr	BASEPRI, r3
 800744a:	4d62      	ldr	r5, [pc, #392]	; (80075d4 <queues1_execute+0x194>)
 800744c:	f7fa fef8 	bl	8002240 <_stats_start_measure_crit_thd>
 8007450:	f7fa ffe6 	bl	8002420 <_dbg_check_lock>
 8007454:	f7f9 fa94 	bl	8000980 <chDbgCheckClassI>
 8007458:	68a9      	ldr	r1, [r5, #8]
 800745a:	fab1 f181 	clz	r1, r1
 800745e:	0949      	lsrs	r1, r1, #5
 8007460:	2001      	movs	r0, #1
 8007462:	f7f9 f84d 	bl	8000500 <_test_assert>
 8007466:	2800      	cmp	r0, #0
 8007468:	f040 8082 	bne.w	8007570 <queues1_execute+0x130>
 800746c:	4c5a      	ldr	r4, [pc, #360]	; (80075d8 <queues1_execute+0x198>)
 800746e:	4606      	mov	r6, r0
 8007470:	f7fa fef6 	bl	8002260 <_dbg_check_unlock>
 8007474:	f7fa fedc 	bl	8002230 <_stats_stop_measure_crit_thd>
 8007478:	6823      	ldr	r3, [r4, #0]
 800747a:	42a3      	cmp	r3, r4
 800747c:	d005      	beq.n	800748a <queues1_execute+0x4a>
 800747e:	69a2      	ldr	r2, [r4, #24]
 8007480:	689b      	ldr	r3, [r3, #8]
 8007482:	6892      	ldr	r2, [r2, #8]
 8007484:	429a      	cmp	r2, r3
 8007486:	f0c0 8095 	bcc.w	80075b4 <queues1_execute+0x174>
 800748a:	2300      	movs	r3, #0
 800748c:	f383 8811 	msr	BASEPRI, r3
 8007490:	2320      	movs	r3, #32
 8007492:	f383 8811 	msr	BASEPRI, r3
 8007496:	f7fa fed3 	bl	8002240 <_stats_start_measure_crit_thd>
 800749a:	f7fa ffc1 	bl	8002420 <_dbg_check_lock>
 800749e:	2141      	movs	r1, #65	; 0x41
 80074a0:	484c      	ldr	r0, [pc, #304]	; (80075d4 <queues1_execute+0x194>)
 80074a2:	f7f9 fb55 	bl	8000b50 <chIQPutI>
 80074a6:	2142      	movs	r1, #66	; 0x42
 80074a8:	484a      	ldr	r0, [pc, #296]	; (80075d4 <queues1_execute+0x194>)
 80074aa:	f7f9 fb51 	bl	8000b50 <chIQPutI>
 80074ae:	2143      	movs	r1, #67	; 0x43
 80074b0:	4848      	ldr	r0, [pc, #288]	; (80075d4 <queues1_execute+0x194>)
 80074b2:	f7f9 fb4d 	bl	8000b50 <chIQPutI>
 80074b6:	2144      	movs	r1, #68	; 0x44
 80074b8:	4846      	ldr	r0, [pc, #280]	; (80075d4 <queues1_execute+0x194>)
 80074ba:	f7f9 fb49 	bl	8000b50 <chIQPutI>
 80074be:	f7fa fecf 	bl	8002260 <_dbg_check_unlock>
 80074c2:	f7fa feb5 	bl	8002230 <_stats_stop_measure_crit_thd>
 80074c6:	6823      	ldr	r3, [r4, #0]
 80074c8:	42a3      	cmp	r3, r4
 80074ca:	d004      	beq.n	80074d6 <queues1_execute+0x96>
 80074cc:	69a2      	ldr	r2, [r4, #24]
 80074ce:	689b      	ldr	r3, [r3, #8]
 80074d0:	6892      	ldr	r2, [r2, #8]
 80074d2:	429a      	cmp	r2, r3
 80074d4:	d372      	bcc.n	80075bc <queues1_execute+0x17c>
 80074d6:	2300      	movs	r3, #0
 80074d8:	f383 8811 	msr	BASEPRI, r3
 80074dc:	2320      	movs	r3, #32
 80074de:	f383 8811 	msr	BASEPRI, r3
 80074e2:	f7fa fead 	bl	8002240 <_stats_start_measure_crit_thd>
 80074e6:	f7fa ff9b 	bl	8002420 <_dbg_check_lock>
 80074ea:	f7f9 fa49 	bl	8000980 <chDbgCheckClassI>
 80074ee:	e9d5 2305 	ldrd	r2, r3, [r5, #20]
 80074f2:	429a      	cmp	r2, r3
 80074f4:	d103      	bne.n	80074fe <queues1_execute+0xbe>
 80074f6:	68ae      	ldr	r6, [r5, #8]
 80074f8:	3600      	adds	r6, #0
 80074fa:	bf18      	it	ne
 80074fc:	2601      	movne	r6, #1
 80074fe:	4631      	mov	r1, r6
 8007500:	2002      	movs	r0, #2
 8007502:	f7f8 fffd 	bl	8000500 <_test_assert>
 8007506:	2800      	cmp	r0, #0
 8007508:	d143      	bne.n	8007592 <queues1_execute+0x152>
 800750a:	f7fa fea9 	bl	8002260 <_dbg_check_unlock>
 800750e:	f7fa fe8f 	bl	8002230 <_stats_stop_measure_crit_thd>
 8007512:	6823      	ldr	r3, [r4, #0]
 8007514:	42a3      	cmp	r3, r4
 8007516:	d004      	beq.n	8007522 <queues1_execute+0xe2>
 8007518:	69a2      	ldr	r2, [r4, #24]
 800751a:	689b      	ldr	r3, [r3, #8]
 800751c:	6892      	ldr	r2, [r2, #8]
 800751e:	429a      	cmp	r2, r3
 8007520:	d350      	bcc.n	80075c4 <queues1_execute+0x184>
 8007522:	2100      	movs	r1, #0
 8007524:	f381 8811 	msr	BASEPRI, r1
 8007528:	2320      	movs	r3, #32
 800752a:	f383 8811 	msr	BASEPRI, r3
 800752e:	f7fa fe87 	bl	8002240 <_stats_start_measure_crit_thd>
 8007532:	f7fa ff75 	bl	8002420 <_dbg_check_lock>
 8007536:	4827      	ldr	r0, [pc, #156]	; (80075d4 <queues1_execute+0x194>)
 8007538:	f7f9 fb0a 	bl	8000b50 <chIQPutI>
 800753c:	3004      	adds	r0, #4
 800753e:	bf14      	ite	ne
 8007540:	2100      	movne	r1, #0
 8007542:	2101      	moveq	r1, #1
 8007544:	2003      	movs	r0, #3
 8007546:	f7f8 ffdb 	bl	8000500 <_test_assert>
 800754a:	2800      	cmp	r0, #0
 800754c:	f040 818b 	bne.w	8007866 <queues1_execute+0x426>
 8007550:	f7fa fe86 	bl	8002260 <_dbg_check_unlock>
 8007554:	f7fa fe6c 	bl	8002230 <_stats_stop_measure_crit_thd>
 8007558:	6823      	ldr	r3, [r4, #0]
 800755a:	42a3      	cmp	r3, r4
 800755c:	d040      	beq.n	80075e0 <queues1_execute+0x1a0>
 800755e:	69a2      	ldr	r2, [r4, #24]
 8007560:	689b      	ldr	r3, [r3, #8]
 8007562:	6892      	ldr	r2, [r2, #8]
 8007564:	429a      	cmp	r2, r3
 8007566:	d23b      	bcs.n	80075e0 <queues1_execute+0x1a0>
 8007568:	b672      	cpsid	i
 800756a:	4b1c      	ldr	r3, [pc, #112]	; (80075dc <queues1_execute+0x19c>)
 800756c:	62e3      	str	r3, [r4, #44]	; 0x2c
 800756e:	e7fe      	b.n	800756e <queues1_execute+0x12e>
 8007570:	f7fa fe76 	bl	8002260 <_dbg_check_unlock>
 8007574:	f7fa fe5c 	bl	8002230 <_stats_stop_measure_crit_thd>
 8007578:	4b17      	ldr	r3, [pc, #92]	; (80075d8 <queues1_execute+0x198>)
 800757a:	681a      	ldr	r2, [r3, #0]
 800757c:	429a      	cmp	r2, r3
 800757e:	d014      	beq.n	80075aa <queues1_execute+0x16a>
 8007580:	6999      	ldr	r1, [r3, #24]
 8007582:	6892      	ldr	r2, [r2, #8]
 8007584:	6889      	ldr	r1, [r1, #8]
 8007586:	4291      	cmp	r1, r2
 8007588:	d20f      	bcs.n	80075aa <queues1_execute+0x16a>
 800758a:	b672      	cpsid	i
 800758c:	4a13      	ldr	r2, [pc, #76]	; (80075dc <queues1_execute+0x19c>)
 800758e:	62da      	str	r2, [r3, #44]	; 0x2c
 8007590:	e7fe      	b.n	8007590 <queues1_execute+0x150>
 8007592:	f7fa fe65 	bl	8002260 <_dbg_check_unlock>
 8007596:	f7fa fe4b 	bl	8002230 <_stats_stop_measure_crit_thd>
 800759a:	6823      	ldr	r3, [r4, #0]
 800759c:	42a3      	cmp	r3, r4
 800759e:	d004      	beq.n	80075aa <queues1_execute+0x16a>
 80075a0:	69a2      	ldr	r2, [r4, #24]
 80075a2:	689b      	ldr	r3, [r3, #8]
 80075a4:	6892      	ldr	r2, [r2, #8]
 80075a6:	429a      	cmp	r2, r3
 80075a8:	d310      	bcc.n	80075cc <queues1_execute+0x18c>
 80075aa:	2300      	movs	r3, #0
 80075ac:	f383 8811 	msr	BASEPRI, r3
 80075b0:	b003      	add	sp, #12
 80075b2:	bdf0      	pop	{r4, r5, r6, r7, pc}
 80075b4:	b672      	cpsid	i
 80075b6:	4b09      	ldr	r3, [pc, #36]	; (80075dc <queues1_execute+0x19c>)
 80075b8:	62e3      	str	r3, [r4, #44]	; 0x2c
 80075ba:	e7fe      	b.n	80075ba <queues1_execute+0x17a>
 80075bc:	b672      	cpsid	i
 80075be:	4b07      	ldr	r3, [pc, #28]	; (80075dc <queues1_execute+0x19c>)
 80075c0:	62e3      	str	r3, [r4, #44]	; 0x2c
 80075c2:	e7fe      	b.n	80075c2 <queues1_execute+0x182>
 80075c4:	b672      	cpsid	i
 80075c6:	4b05      	ldr	r3, [pc, #20]	; (80075dc <queues1_execute+0x19c>)
 80075c8:	62e3      	str	r3, [r4, #44]	; 0x2c
 80075ca:	e7fe      	b.n	80075ca <queues1_execute+0x18a>
 80075cc:	b672      	cpsid	i
 80075ce:	4b03      	ldr	r3, [pc, #12]	; (80075dc <queues1_execute+0x19c>)
 80075d0:	62e3      	str	r3, [r4, #44]	; 0x2c
 80075d2:	e7fe      	b.n	80075d2 <queues1_execute+0x192>
 80075d4:	20000c14 	.word	0x20000c14
 80075d8:	20001558 	.word	0x20001558
 80075dc:	08009ea0 	.word	0x08009ea0
 80075e0:	2300      	movs	r3, #0
 80075e2:	f383 8811 	msr	BASEPRI, r3
 80075e6:	4fc3      	ldr	r7, [pc, #780]	; (80078f4 <queues1_execute+0x4b4>)
 80075e8:	2604      	movs	r6, #4
 80075ea:	f04f 31ff 	mov.w	r1, #4294967295	; 0xffffffff
 80075ee:	4638      	mov	r0, r7
 80075f0:	f7fc fd66 	bl	80040c0 <chIQGetTimeout>
 80075f4:	b2c0      	uxtb	r0, r0
 80075f6:	f7fb fecb 	bl	8003390 <test_emit_token>
 80075fa:	3e01      	subs	r6, #1
 80075fc:	d1f5      	bne.n	80075ea <queues1_execute+0x1aa>
 80075fe:	2320      	movs	r3, #32
 8007600:	f383 8811 	msr	BASEPRI, r3
 8007604:	f7fa fe1c 	bl	8002240 <_stats_start_measure_crit_thd>
 8007608:	f7fa ff0a 	bl	8002420 <_dbg_check_lock>
 800760c:	f7f9 f9b8 	bl	8000980 <chDbgCheckClassI>
 8007610:	68a9      	ldr	r1, [r5, #8]
 8007612:	fab1 f181 	clz	r1, r1
 8007616:	0949      	lsrs	r1, r1, #5
 8007618:	2004      	movs	r0, #4
 800761a:	f7f8 ff71 	bl	8000500 <_test_assert>
 800761e:	2800      	cmp	r0, #0
 8007620:	f040 814e 	bne.w	80078c0 <queues1_execute+0x480>
 8007624:	f7fa fe1c 	bl	8002260 <_dbg_check_unlock>
 8007628:	f7fa fe02 	bl	8002230 <_stats_stop_measure_crit_thd>
 800762c:	6823      	ldr	r3, [r4, #0]
 800762e:	42a3      	cmp	r3, r4
 8007630:	d005      	beq.n	800763e <queues1_execute+0x1fe>
 8007632:	69a2      	ldr	r2, [r4, #24]
 8007634:	689b      	ldr	r3, [r3, #8]
 8007636:	6892      	ldr	r2, [r2, #8]
 8007638:	429a      	cmp	r2, r3
 800763a:	f0c0 8153 	bcc.w	80078e4 <queues1_execute+0x4a4>
 800763e:	2300      	movs	r3, #0
 8007640:	f383 8811 	msr	BASEPRI, r3
 8007644:	49ac      	ldr	r1, [pc, #688]	; (80078f8 <queues1_execute+0x4b8>)
 8007646:	2005      	movs	r0, #5
 8007648:	f7f8 ff32 	bl	80004b0 <_test_assert_sequence>
 800764c:	2800      	cmp	r0, #0
 800764e:	d1af      	bne.n	80075b0 <queues1_execute+0x170>
 8007650:	2320      	movs	r3, #32
 8007652:	f383 8811 	msr	BASEPRI, r3
 8007656:	f7fa fdf3 	bl	8002240 <_stats_start_measure_crit_thd>
 800765a:	f7fa fee1 	bl	8002420 <_dbg_check_lock>
 800765e:	2141      	movs	r1, #65	; 0x41
 8007660:	48a4      	ldr	r0, [pc, #656]	; (80078f4 <queues1_execute+0x4b4>)
 8007662:	f7f9 fa75 	bl	8000b50 <chIQPutI>
 8007666:	2142      	movs	r1, #66	; 0x42
 8007668:	48a2      	ldr	r0, [pc, #648]	; (80078f4 <queues1_execute+0x4b4>)
 800766a:	f7f9 fa71 	bl	8000b50 <chIQPutI>
 800766e:	2143      	movs	r1, #67	; 0x43
 8007670:	48a0      	ldr	r0, [pc, #640]	; (80078f4 <queues1_execute+0x4b4>)
 8007672:	f7f9 fa6d 	bl	8000b50 <chIQPutI>
 8007676:	2144      	movs	r1, #68	; 0x44
 8007678:	489e      	ldr	r0, [pc, #632]	; (80078f4 <queues1_execute+0x4b4>)
 800767a:	f7f9 fa69 	bl	8000b50 <chIQPutI>
 800767e:	f7fa fdef 	bl	8002260 <_dbg_check_unlock>
 8007682:	f7fa fdd5 	bl	8002230 <_stats_stop_measure_crit_thd>
 8007686:	6823      	ldr	r3, [r4, #0]
 8007688:	42a3      	cmp	r3, r4
 800768a:	d005      	beq.n	8007698 <queues1_execute+0x258>
 800768c:	69a2      	ldr	r2, [r4, #24]
 800768e:	689b      	ldr	r3, [r3, #8]
 8007690:	6892      	ldr	r2, [r2, #8]
 8007692:	429a      	cmp	r2, r3
 8007694:	f0c0 812a 	bcc.w	80078ec <queues1_execute+0x4ac>
 8007698:	2300      	movs	r3, #0
 800769a:	f383 8811 	msr	BASEPRI, r3
 800769e:	4997      	ldr	r1, [pc, #604]	; (80078fc <queues1_execute+0x4bc>)
 80076a0:	4894      	ldr	r0, [pc, #592]	; (80078f4 <queues1_execute+0x4b4>)
 80076a2:	2208      	movs	r2, #8
 80076a4:	f7fc fc7c 	bl	8003fa0 <chIQReadTimeout>
 80076a8:	1f06      	subs	r6, r0, #4
 80076aa:	4271      	negs	r1, r6
 80076ac:	4171      	adcs	r1, r6
 80076ae:	2006      	movs	r0, #6
 80076b0:	f7f8 ff26 	bl	8000500 <_test_assert>
 80076b4:	2800      	cmp	r0, #0
 80076b6:	f47f af7b 	bne.w	80075b0 <queues1_execute+0x170>
 80076ba:	2320      	movs	r3, #32
 80076bc:	f383 8811 	msr	BASEPRI, r3
 80076c0:	f7fa fdbe 	bl	8002240 <_stats_start_measure_crit_thd>
 80076c4:	f7fa feac 	bl	8002420 <_dbg_check_lock>
 80076c8:	f7f9 f95a 	bl	8000980 <chDbgCheckClassI>
 80076cc:	68a9      	ldr	r1, [r5, #8]
 80076ce:	fab1 f181 	clz	r1, r1
 80076d2:	0949      	lsrs	r1, r1, #5
 80076d4:	2007      	movs	r0, #7
 80076d6:	f7f8 ff13 	bl	8000500 <_test_assert>
 80076da:	2800      	cmp	r0, #0
 80076dc:	f040 80d5 	bne.w	800788a <queues1_execute+0x44a>
 80076e0:	f7fa fdbe 	bl	8002260 <_dbg_check_unlock>
 80076e4:	f7fa fda4 	bl	8002230 <_stats_stop_measure_crit_thd>
 80076e8:	6823      	ldr	r3, [r4, #0]
 80076ea:	42a3      	cmp	r3, r4
 80076ec:	d005      	beq.n	80076fa <queues1_execute+0x2ba>
 80076ee:	69a2      	ldr	r2, [r4, #24]
 80076f0:	689b      	ldr	r3, [r3, #8]
 80076f2:	6892      	ldr	r2, [r2, #8]
 80076f4:	429a      	cmp	r2, r3
 80076f6:	f0c0 810b 	bcc.w	8007910 <queues1_execute+0x4d0>
 80076fa:	2300      	movs	r3, #0
 80076fc:	f383 8811 	msr	BASEPRI, r3
 8007700:	2320      	movs	r3, #32
 8007702:	f383 8811 	msr	BASEPRI, r3
 8007706:	f7fa fd9b 	bl	8002240 <_stats_start_measure_crit_thd>
 800770a:	f7fa fe89 	bl	8002420 <_dbg_check_lock>
 800770e:	2141      	movs	r1, #65	; 0x41
 8007710:	4878      	ldr	r0, [pc, #480]	; (80078f4 <queues1_execute+0x4b4>)
 8007712:	f7f9 fa1d 	bl	8000b50 <chIQPutI>
 8007716:	2142      	movs	r1, #66	; 0x42
 8007718:	4876      	ldr	r0, [pc, #472]	; (80078f4 <queues1_execute+0x4b4>)
 800771a:	f7f9 fa19 	bl	8000b50 <chIQPutI>
 800771e:	2143      	movs	r1, #67	; 0x43
 8007720:	4874      	ldr	r0, [pc, #464]	; (80078f4 <queues1_execute+0x4b4>)
 8007722:	f7f9 fa15 	bl	8000b50 <chIQPutI>
 8007726:	2144      	movs	r1, #68	; 0x44
 8007728:	4872      	ldr	r0, [pc, #456]	; (80078f4 <queues1_execute+0x4b4>)
 800772a:	f7f9 fa11 	bl	8000b50 <chIQPutI>
 800772e:	f7fa fd97 	bl	8002260 <_dbg_check_unlock>
 8007732:	f7fa fd7d 	bl	8002230 <_stats_stop_measure_crit_thd>
 8007736:	6823      	ldr	r3, [r4, #0]
 8007738:	42a3      	cmp	r3, r4
 800773a:	d005      	beq.n	8007748 <queues1_execute+0x308>
 800773c:	69a2      	ldr	r2, [r4, #24]
 800773e:	689b      	ldr	r3, [r3, #8]
 8007740:	6892      	ldr	r2, [r2, #8]
 8007742:	429a      	cmp	r2, r3
 8007744:	f0c0 80b3 	bcc.w	80078ae <queues1_execute+0x46e>
 8007748:	2300      	movs	r3, #0
 800774a:	f383 8811 	msr	BASEPRI, r3
 800774e:	2202      	movs	r2, #2
 8007750:	496a      	ldr	r1, [pc, #424]	; (80078fc <queues1_execute+0x4bc>)
 8007752:	4868      	ldr	r0, [pc, #416]	; (80078f4 <queues1_execute+0x4b4>)
 8007754:	f7fc fc24 	bl	8003fa0 <chIQReadTimeout>
 8007758:	3802      	subs	r0, #2
 800775a:	4241      	negs	r1, r0
 800775c:	4141      	adcs	r1, r0
 800775e:	2008      	movs	r0, #8
 8007760:	f7f8 fece 	bl	8000500 <_test_assert>
 8007764:	4603      	mov	r3, r0
 8007766:	2800      	cmp	r0, #0
 8007768:	f47f af22 	bne.w	80075b0 <queues1_execute+0x170>
 800776c:	2202      	movs	r2, #2
 800776e:	4963      	ldr	r1, [pc, #396]	; (80078fc <queues1_execute+0x4bc>)
 8007770:	4860      	ldr	r0, [pc, #384]	; (80078f4 <queues1_execute+0x4b4>)
 8007772:	f7fc fc15 	bl	8003fa0 <chIQReadTimeout>
 8007776:	1e82      	subs	r2, r0, #2
 8007778:	4251      	negs	r1, r2
 800777a:	4151      	adcs	r1, r2
 800777c:	2009      	movs	r0, #9
 800777e:	f7f8 febf 	bl	8000500 <_test_assert>
 8007782:	2800      	cmp	r0, #0
 8007784:	f47f af14 	bne.w	80075b0 <queues1_execute+0x170>
 8007788:	2620      	movs	r6, #32
 800778a:	f386 8811 	msr	BASEPRI, r6
 800778e:	f7fa fd57 	bl	8002240 <_stats_start_measure_crit_thd>
 8007792:	f7fa fe45 	bl	8002420 <_dbg_check_lock>
 8007796:	f7f9 f8f3 	bl	8000980 <chDbgCheckClassI>
 800779a:	68a9      	ldr	r1, [r5, #8]
 800779c:	fab1 f181 	clz	r1, r1
 80077a0:	0949      	lsrs	r1, r1, #5
 80077a2:	200a      	movs	r0, #10
 80077a4:	f7f8 feac 	bl	8000500 <_test_assert>
 80077a8:	4607      	mov	r7, r0
 80077aa:	2800      	cmp	r0, #0
 80077ac:	f040 8083 	bne.w	80078b6 <queues1_execute+0x476>
 80077b0:	f7fa fda6 	bl	8002300 <chSysUnlock.lto_priv.102>
 80077b4:	f386 8811 	msr	BASEPRI, r6
 80077b8:	f7fa fd42 	bl	8002240 <_stats_start_measure_crit_thd>
 80077bc:	f7fa fe30 	bl	8002420 <_dbg_check_lock>
 80077c0:	4639      	mov	r1, r7
 80077c2:	484c      	ldr	r0, [pc, #304]	; (80078f4 <queues1_execute+0x4b4>)
 80077c4:	f7f9 f9c4 	bl	8000b50 <chIQPutI>
 80077c8:	f7f9 f8da 	bl	8000980 <chDbgCheckClassI>
 80077cc:	68eb      	ldr	r3, [r5, #12]
 80077ce:	4849      	ldr	r0, [pc, #292]	; (80078f4 <queues1_execute+0x4b4>)
 80077d0:	60af      	str	r7, [r5, #8]
 80077d2:	f06f 0101 	mvn.w	r1, #1
 80077d6:	e9c5 3305 	strd	r3, r3, [r5, #20]
 80077da:	f7f9 fb41 	bl	8000e60 <chThdDequeueAllI>
 80077de:	f7fa fd8f 	bl	8002300 <chSysUnlock.lto_priv.102>
 80077e2:	f386 8811 	msr	BASEPRI, r6
 80077e6:	f7fa fd2b 	bl	8002240 <_stats_start_measure_crit_thd>
 80077ea:	f7fa fe19 	bl	8002420 <_dbg_check_lock>
 80077ee:	f7f9 f8c7 	bl	8000980 <chDbgCheckClassI>
 80077f2:	68a9      	ldr	r1, [r5, #8]
 80077f4:	fab1 f181 	clz	r1, r1
 80077f8:	0949      	lsrs	r1, r1, #5
 80077fa:	200b      	movs	r0, #11
 80077fc:	f7f8 fe80 	bl	8000500 <_test_assert>
 8007800:	4607      	mov	r7, r0
 8007802:	2800      	cmp	r0, #0
 8007804:	d157      	bne.n	80078b6 <queues1_execute+0x476>
 8007806:	f7fa fd7b 	bl	8002300 <chSysUnlock.lto_priv.102>
 800780a:	69a2      	ldr	r2, [r4, #24]
 800780c:	4b3c      	ldr	r3, [pc, #240]	; (8007900 <queues1_execute+0x4c0>)
 800780e:	6892      	ldr	r2, [r2, #8]
 8007810:	483c      	ldr	r0, [pc, #240]	; (8007904 <queues1_execute+0x4c4>)
 8007812:	9700      	str	r7, [sp, #0]
 8007814:	3201      	adds	r2, #1
 8007816:	f44f 71b4 	mov.w	r1, #360	; 0x168
 800781a:	f7fe fd91 	bl	8006340 <chThdCreateStatic>
 800781e:	4b3a      	ldr	r3, [pc, #232]	; (8007908 <queues1_execute+0x4c8>)
 8007820:	6018      	str	r0, [r3, #0]
 8007822:	f386 8811 	msr	BASEPRI, r6
 8007826:	f7fa fd0b 	bl	8002240 <_stats_start_measure_crit_thd>
 800782a:	f7fa fdf9 	bl	8002420 <_dbg_check_lock>
 800782e:	f7f9 f8a7 	bl	8000980 <chDbgCheckClassI>
 8007832:	68a9      	ldr	r1, [r5, #8]
 8007834:	fab1 f181 	clz	r1, r1
 8007838:	0949      	lsrs	r1, r1, #5
 800783a:	200c      	movs	r0, #12
 800783c:	f7f8 fe60 	bl	8000500 <_test_assert>
 8007840:	2800      	cmp	r0, #0
 8007842:	d138      	bne.n	80078b6 <queues1_execute+0x476>
 8007844:	f7fa fd5c 	bl	8002300 <chSysUnlock.lto_priv.102>
 8007848:	f7fd fd02 	bl	8005250 <test_wait_threads>
 800784c:	210a      	movs	r1, #10
 800784e:	4829      	ldr	r0, [pc, #164]	; (80078f4 <queues1_execute+0x4b4>)
 8007850:	f7fc fc36 	bl	80040c0 <chIQGetTimeout>
 8007854:	1c43      	adds	r3, r0, #1
 8007856:	4259      	negs	r1, r3
 8007858:	4159      	adcs	r1, r3
 800785a:	200d      	movs	r0, #13
 800785c:	b003      	add	sp, #12
 800785e:	e8bd 40f0 	ldmia.w	sp!, {r4, r5, r6, r7, lr}
 8007862:	f7f8 be4d 	b.w	8000500 <_test_assert>
 8007866:	f7fa fcfb 	bl	8002260 <_dbg_check_unlock>
 800786a:	f7fa fce1 	bl	8002230 <_stats_stop_measure_crit_thd>
 800786e:	6823      	ldr	r3, [r4, #0]
 8007870:	42a3      	cmp	r3, r4
 8007872:	f43f ae9a 	beq.w	80075aa <queues1_execute+0x16a>
 8007876:	69a2      	ldr	r2, [r4, #24]
 8007878:	689b      	ldr	r3, [r3, #8]
 800787a:	6892      	ldr	r2, [r2, #8]
 800787c:	429a      	cmp	r2, r3
 800787e:	f4bf ae94 	bcs.w	80075aa <queues1_execute+0x16a>
 8007882:	b672      	cpsid	i
 8007884:	4b21      	ldr	r3, [pc, #132]	; (800790c <queues1_execute+0x4cc>)
 8007886:	62e3      	str	r3, [r4, #44]	; 0x2c
 8007888:	e7fe      	b.n	8007888 <queues1_execute+0x448>
 800788a:	f7fa fce9 	bl	8002260 <_dbg_check_unlock>
 800788e:	f7fa fccf 	bl	8002230 <_stats_stop_measure_crit_thd>
 8007892:	6823      	ldr	r3, [r4, #0]
 8007894:	42a3      	cmp	r3, r4
 8007896:	f43f ae88 	beq.w	80075aa <queues1_execute+0x16a>
 800789a:	69a2      	ldr	r2, [r4, #24]
 800789c:	689b      	ldr	r3, [r3, #8]
 800789e:	6892      	ldr	r2, [r2, #8]
 80078a0:	429a      	cmp	r2, r3
 80078a2:	f4bf ae82 	bcs.w	80075aa <queues1_execute+0x16a>
 80078a6:	b672      	cpsid	i
 80078a8:	4b18      	ldr	r3, [pc, #96]	; (800790c <queues1_execute+0x4cc>)
 80078aa:	62e3      	str	r3, [r4, #44]	; 0x2c
 80078ac:	e7fe      	b.n	80078ac <queues1_execute+0x46c>
 80078ae:	b672      	cpsid	i
 80078b0:	4b16      	ldr	r3, [pc, #88]	; (800790c <queues1_execute+0x4cc>)
 80078b2:	62e3      	str	r3, [r4, #44]	; 0x2c
 80078b4:	e7fe      	b.n	80078b4 <queues1_execute+0x474>
 80078b6:	b003      	add	sp, #12
 80078b8:	e8bd 40f0 	ldmia.w	sp!, {r4, r5, r6, r7, lr}
 80078bc:	f7fa bd20 	b.w	8002300 <chSysUnlock.lto_priv.102>
 80078c0:	f7fa fcce 	bl	8002260 <_dbg_check_unlock>
 80078c4:	f7fa fcb4 	bl	8002230 <_stats_stop_measure_crit_thd>
 80078c8:	6823      	ldr	r3, [r4, #0]
 80078ca:	42a3      	cmp	r3, r4
 80078cc:	f43f ae6d 	beq.w	80075aa <queues1_execute+0x16a>
 80078d0:	69a2      	ldr	r2, [r4, #24]
 80078d2:	689b      	ldr	r3, [r3, #8]
 80078d4:	6892      	ldr	r2, [r2, #8]
 80078d6:	429a      	cmp	r2, r3
 80078d8:	f4bf ae67 	bcs.w	80075aa <queues1_execute+0x16a>
 80078dc:	b672      	cpsid	i
 80078de:	4b0b      	ldr	r3, [pc, #44]	; (800790c <queues1_execute+0x4cc>)
 80078e0:	62e3      	str	r3, [r4, #44]	; 0x2c
 80078e2:	e7fe      	b.n	80078e2 <queues1_execute+0x4a2>
 80078e4:	b672      	cpsid	i
 80078e6:	4b09      	ldr	r3, [pc, #36]	; (800790c <queues1_execute+0x4cc>)
 80078e8:	62e3      	str	r3, [r4, #44]	; 0x2c
 80078ea:	e7fe      	b.n	80078ea <queues1_execute+0x4aa>
 80078ec:	b672      	cpsid	i
 80078ee:	4b07      	ldr	r3, [pc, #28]	; (800790c <queues1_execute+0x4cc>)
 80078f0:	62e3      	str	r3, [r4, #44]	; 0x2c
 80078f2:	e7fe      	b.n	80078f2 <queues1_execute+0x4b2>
 80078f4:	20000c14 	.word	0x20000c14
 80078f8:	0800a7bc 	.word	0x0800a7bc
 80078fc:	20001da0 	.word	0x20001da0
 8007900:	08004171 	.word	0x08004171
 8007904:	20001c38 	.word	0x20001c38
 8007908:	2000236c 	.word	0x2000236c
 800790c:	08009ea0 	.word	0x08009ea0
 8007910:	b672      	cpsid	i
 8007912:	4b01      	ldr	r3, [pc, #4]	; (8007918 <queues1_execute+0x4d8>)
 8007914:	62e3      	str	r3, [r4, #44]	; 0x2c
 8007916:	e7fe      	b.n	8007916 <queues1_execute+0x4d6>
 8007918:	08009ea0 	.word	0x08009ea0
 800791c:	00000000 	.word	0x00000000

08007920 <evt2_execute>:
 8007920:	e92d 47f0 	stmdb	sp!, {r4, r5, r6, r7, r8, r9, sl, lr}
 8007924:	2007      	movs	r0, #7
 8007926:	b08c      	sub	sp, #48	; 0x30
 8007928:	f7fc fd12 	bl	8004350 <chEvtAddEvents>
 800792c:	f7fa ff10 	bl	8002750 <chEvtWaitOne.constprop.50>
 8007930:	f1a0 0101 	sub.w	r1, r0, #1
 8007934:	fab1 f181 	clz	r1, r1
 8007938:	0949      	lsrs	r1, r1, #5
 800793a:	2001      	movs	r0, #1
 800793c:	f7f8 fde0 	bl	8000500 <_test_assert>
 8007940:	b110      	cbz	r0, 8007948 <evt2_execute+0x28>
 8007942:	b00c      	add	sp, #48	; 0x30
 8007944:	e8bd 87f0 	ldmia.w	sp!, {r4, r5, r6, r7, r8, r9, sl, pc}
 8007948:	f7fa ff02 	bl	8002750 <chEvtWaitOne.constprop.50>
 800794c:	f1a0 0102 	sub.w	r1, r0, #2
 8007950:	fab1 f181 	clz	r1, r1
 8007954:	0949      	lsrs	r1, r1, #5
 8007956:	2002      	movs	r0, #2
 8007958:	f7f8 fdd2 	bl	8000500 <_test_assert>
 800795c:	2800      	cmp	r0, #0
 800795e:	d1f0      	bne.n	8007942 <evt2_execute+0x22>
 8007960:	f7fa fef6 	bl	8002750 <chEvtWaitOne.constprop.50>
 8007964:	f1a0 0104 	sub.w	r1, r0, #4
 8007968:	fab1 f181 	clz	r1, r1
 800796c:	0949      	lsrs	r1, r1, #5
 800796e:	2003      	movs	r0, #3
 8007970:	f7f8 fdc6 	bl	8000500 <_test_assert>
 8007974:	2800      	cmp	r0, #0
 8007976:	d1e4      	bne.n	8007942 <evt2_execute+0x22>
 8007978:	f7fa feaa 	bl	80026d0 <chEvtGetAndClearEvents.constprop.54>
 800797c:	fab0 f180 	clz	r1, r0
 8007980:	0949      	lsrs	r1, r1, #5
 8007982:	2004      	movs	r0, #4
 8007984:	f7f8 fdbc 	bl	8000500 <_test_assert>
 8007988:	2800      	cmp	r0, #0
 800798a:	d1da      	bne.n	8007942 <evt2_execute+0x22>
 800798c:	f7fe f978 	bl	8005c80 <test_wait_tick>
 8007990:	2320      	movs	r3, #32
 8007992:	f383 8811 	msr	BASEPRI, r3
 8007996:	f7fa fc53 	bl	8002240 <_stats_start_measure_crit_thd>
 800799a:	4c87      	ldr	r4, [pc, #540]	; (8007bb8 <evt2_execute+0x298>)
 800799c:	f7fa fd40 	bl	8002420 <_dbg_check_lock>
 80079a0:	f04f 4380 	mov.w	r3, #1073741824	; 0x40000000
 80079a4:	6a5d      	ldr	r5, [r3, #36]	; 0x24
 80079a6:	f7fa fc5b 	bl	8002260 <_dbg_check_unlock>
 80079aa:	f7fa fc41 	bl	8002230 <_stats_stop_measure_crit_thd>
 80079ae:	6823      	ldr	r3, [r4, #0]
 80079b0:	42a3      	cmp	r3, r4
 80079b2:	d005      	beq.n	80079c0 <evt2_execute+0xa0>
 80079b4:	69a2      	ldr	r2, [r4, #24]
 80079b6:	689b      	ldr	r3, [r3, #8]
 80079b8:	6892      	ldr	r2, [r2, #8]
 80079ba:	429a      	cmp	r2, r3
 80079bc:	f0c0 80f8 	bcc.w	8007bb0 <evt2_execute+0x290>
 80079c0:	2300      	movs	r3, #0
 80079c2:	f383 8811 	msr	BASEPRI, r3
 80079c6:	69a1      	ldr	r1, [r4, #24]
 80079c8:	4b7c      	ldr	r3, [pc, #496]	; (8007bbc <evt2_execute+0x29c>)
 80079ca:	688a      	ldr	r2, [r1, #8]
 80079cc:	487c      	ldr	r0, [pc, #496]	; (8007bc0 <evt2_execute+0x2a0>)
 80079ce:	9100      	str	r1, [sp, #0]
 80079d0:	3a01      	subs	r2, #1
 80079d2:	f44f 71b4 	mov.w	r1, #360	; 0x168
 80079d6:	f7fe fcb3 	bl	8006340 <chThdCreateStatic>
 80079da:	f8df a1fc 	ldr.w	sl, [pc, #508]	; 8007bd8 <evt2_execute+0x2b8>
 80079de:	f8ca 0000 	str.w	r0, [sl]
 80079e2:	f7fa feb5 	bl	8002750 <chEvtWaitOne.constprop.50>
 80079e6:	f205 2226 	addw	r2, r5, #550	; 0x226
 80079ea:	4606      	mov	r6, r0
 80079ec:	f505 71fa 	add.w	r1, r5, #500	; 0x1f4
 80079f0:	2005      	movs	r0, #5
 80079f2:	f7fb fc8d 	bl	8003310 <_test_assert_time_window>
 80079f6:	2800      	cmp	r0, #0
 80079f8:	d1a3      	bne.n	8007942 <evt2_execute+0x22>
 80079fa:	f1a6 0101 	sub.w	r1, r6, #1
 80079fe:	fab1 f181 	clz	r1, r1
 8007a02:	0949      	lsrs	r1, r1, #5
 8007a04:	2006      	movs	r0, #6
 8007a06:	f7f8 fd7b 	bl	8000500 <_test_assert>
 8007a0a:	2800      	cmp	r0, #0
 8007a0c:	d199      	bne.n	8007942 <evt2_execute+0x22>
 8007a0e:	f7fa fe5f 	bl	80026d0 <chEvtGetAndClearEvents.constprop.54>
 8007a12:	fab0 f180 	clz	r1, r0
 8007a16:	0949      	lsrs	r1, r1, #5
 8007a18:	2007      	movs	r0, #7
 8007a1a:	f7f8 fd71 	bl	8000500 <_test_assert>
 8007a1e:	2800      	cmp	r0, #0
 8007a20:	d18f      	bne.n	8007942 <evt2_execute+0x22>
 8007a22:	f7fd fc15 	bl	8005250 <test_wait_threads>
 8007a26:	2005      	movs	r0, #5
 8007a28:	f7fc fc92 	bl	8004350 <chEvtAddEvents>
 8007a2c:	f7fa fec8 	bl	80027c0 <chEvtWaitAny.constprop.49>
 8007a30:	1f45      	subs	r5, r0, #5
 8007a32:	4269      	negs	r1, r5
 8007a34:	4169      	adcs	r1, r5
 8007a36:	2008      	movs	r0, #8
 8007a38:	f7f8 fd62 	bl	8000500 <_test_assert>
 8007a3c:	2800      	cmp	r0, #0
 8007a3e:	d180      	bne.n	8007942 <evt2_execute+0x22>
 8007a40:	f7fa fe46 	bl	80026d0 <chEvtGetAndClearEvents.constprop.54>
 8007a44:	fab0 f180 	clz	r1, r0
 8007a48:	0949      	lsrs	r1, r1, #5
 8007a4a:	2009      	movs	r0, #9
 8007a4c:	f7f8 fd58 	bl	8000500 <_test_assert>
 8007a50:	2800      	cmp	r0, #0
 8007a52:	f47f af76 	bne.w	8007942 <evt2_execute+0x22>
 8007a56:	f7fe f913 	bl	8005c80 <test_wait_tick>
 8007a5a:	f04f 0920 	mov.w	r9, #32
 8007a5e:	f389 8811 	msr	BASEPRI, r9
 8007a62:	f04f 4780 	mov.w	r7, #1073741824	; 0x40000000
 8007a66:	f7fa fbeb 	bl	8002240 <_stats_start_measure_crit_thd>
 8007a6a:	f7fa fcd9 	bl	8002420 <_dbg_check_lock>
 8007a6e:	6a7d      	ldr	r5, [r7, #36]	; 0x24
 8007a70:	f7fa fc66 	bl	8002340 <chSysUnlock.lto_priv.101>
 8007a74:	69a1      	ldr	r1, [r4, #24]
 8007a76:	4b51      	ldr	r3, [pc, #324]	; (8007bbc <evt2_execute+0x29c>)
 8007a78:	688a      	ldr	r2, [r1, #8]
 8007a7a:	4851      	ldr	r0, [pc, #324]	; (8007bc0 <evt2_execute+0x2a0>)
 8007a7c:	9100      	str	r1, [sp, #0]
 8007a7e:	3a01      	subs	r2, #1
 8007a80:	f44f 71b4 	mov.w	r1, #360	; 0x168
 8007a84:	f7fe fc5c 	bl	8006340 <chThdCreateStatic>
 8007a88:	f8ca 0000 	str.w	r0, [sl]
 8007a8c:	f7fa fe98 	bl	80027c0 <chEvtWaitAny.constprop.49>
 8007a90:	f205 2226 	addw	r2, r5, #550	; 0x226
 8007a94:	4606      	mov	r6, r0
 8007a96:	f505 71fa 	add.w	r1, r5, #500	; 0x1f4
 8007a9a:	200a      	movs	r0, #10
 8007a9c:	f7fb fc38 	bl	8003310 <_test_assert_time_window>
 8007aa0:	2800      	cmp	r0, #0
 8007aa2:	f47f af4e 	bne.w	8007942 <evt2_execute+0x22>
 8007aa6:	1e70      	subs	r0, r6, #1
 8007aa8:	4241      	negs	r1, r0
 8007aaa:	4141      	adcs	r1, r0
 8007aac:	200b      	movs	r0, #11
 8007aae:	f7f8 fd27 	bl	8000500 <_test_assert>
 8007ab2:	2800      	cmp	r0, #0
 8007ab4:	f47f af45 	bne.w	8007942 <evt2_execute+0x22>
 8007ab8:	f7fa fe0a 	bl	80026d0 <chEvtGetAndClearEvents.constprop.54>
 8007abc:	fab0 f180 	clz	r1, r0
 8007ac0:	0949      	lsrs	r1, r1, #5
 8007ac2:	200c      	movs	r0, #12
 8007ac4:	f7f8 fd1c 	bl	8000500 <_test_assert>
 8007ac8:	2800      	cmp	r0, #0
 8007aca:	f47f af3a 	bne.w	8007942 <evt2_execute+0x22>
 8007ace:	4e3d      	ldr	r6, [pc, #244]	; (8007bc4 <evt2_execute+0x2a4>)
 8007ad0:	4d3d      	ldr	r5, [pc, #244]	; (8007bc8 <evt2_execute+0x2a8>)
 8007ad2:	f7fd fbbd 	bl	8005250 <test_wait_threads>
 8007ad6:	4630      	mov	r0, r6
 8007ad8:	a902      	add	r1, sp, #8
 8007ada:	2201      	movs	r2, #1
 8007adc:	6036      	str	r6, [r6, #0]
 8007ade:	602d      	str	r5, [r5, #0]
 8007ae0:	f7fa fdc6 	bl	8002670 <chEvtRegisterMaskWithFlags.constprop.55>
 8007ae4:	4628      	mov	r0, r5
 8007ae6:	a907      	add	r1, sp, #28
 8007ae8:	2204      	movs	r2, #4
 8007aea:	f7fa fdc1 	bl	8002670 <chEvtRegisterMaskWithFlags.constprop.55>
 8007aee:	f7fe f8c7 	bl	8005c80 <test_wait_tick>
 8007af2:	f389 8811 	msr	BASEPRI, r9
 8007af6:	f7fa fba3 	bl	8002240 <_stats_start_measure_crit_thd>
 8007afa:	f7fa fc91 	bl	8002420 <_dbg_check_lock>
 8007afe:	6a7f      	ldr	r7, [r7, #36]	; 0x24
 8007b00:	f7fa fc1e 	bl	8002340 <chSysUnlock.lto_priv.101>
 8007b04:	69a3      	ldr	r3, [r4, #24]
 8007b06:	4931      	ldr	r1, [pc, #196]	; (8007bcc <evt2_execute+0x2ac>)
 8007b08:	689a      	ldr	r2, [r3, #8]
 8007b0a:	482d      	ldr	r0, [pc, #180]	; (8007bc0 <evt2_execute+0x2a0>)
 8007b0c:	9100      	str	r1, [sp, #0]
 8007b0e:	4b30      	ldr	r3, [pc, #192]	; (8007bd0 <evt2_execute+0x2b0>)
 8007b10:	3a01      	subs	r2, #1
 8007b12:	f44f 71b4 	mov.w	r1, #360	; 0x168
 8007b16:	f7fe fc13 	bl	8006340 <chThdCreateStatic>
 8007b1a:	f507 78fa 	add.w	r8, r7, #500	; 0x1f4
 8007b1e:	f8ca 0000 	str.w	r0, [sl]
 8007b22:	69a4      	ldr	r4, [r4, #24]
 8007b24:	f389 8811 	msr	BASEPRI, r9
 8007b28:	f7fa fb8a 	bl	8002240 <_stats_start_measure_crit_thd>
 8007b2c:	f7fa fc78 	bl	8002420 <_dbg_check_lock>
 8007b30:	6ba3      	ldr	r3, [r4, #56]	; 0x38
 8007b32:	f003 0205 	and.w	r2, r3, #5
 8007b36:	2a05      	cmp	r2, #5
 8007b38:	d005      	beq.n	8007b46 <evt2_execute+0x226>
 8007b3a:	2305      	movs	r3, #5
 8007b3c:	6263      	str	r3, [r4, #36]	; 0x24
 8007b3e:	200b      	movs	r0, #11
 8007b40:	f7fa f9d6 	bl	8001ef0 <chSchGoSleepS>
 8007b44:	6ba3      	ldr	r3, [r4, #56]	; 0x38
 8007b46:	f023 0305 	bic.w	r3, r3, #5
 8007b4a:	63a3      	str	r3, [r4, #56]	; 0x38
 8007b4c:	f7fa fb98 	bl	8002280 <chSysUnlock.lto_priv.88>
 8007b50:	f207 2226 	addw	r2, r7, #550	; 0x226
 8007b54:	4641      	mov	r1, r8
 8007b56:	200d      	movs	r0, #13
 8007b58:	f7fb fbda 	bl	8003310 <_test_assert_time_window>
 8007b5c:	2800      	cmp	r0, #0
 8007b5e:	f47f aef0 	bne.w	8007942 <evt2_execute+0x22>
 8007b62:	f7fa fdb5 	bl	80026d0 <chEvtGetAndClearEvents.constprop.54>
 8007b66:	fab0 f180 	clz	r1, r0
 8007b6a:	0949      	lsrs	r1, r1, #5
 8007b6c:	200e      	movs	r0, #14
 8007b6e:	f7f8 fcc7 	bl	8000500 <_test_assert>
 8007b72:	2800      	cmp	r0, #0
 8007b74:	f47f aee5 	bne.w	8007942 <evt2_execute+0x22>
 8007b78:	f7fd fb6a 	bl	8005250 <test_wait_threads>
 8007b7c:	a902      	add	r1, sp, #8
 8007b7e:	4811      	ldr	r0, [pc, #68]	; (8007bc4 <evt2_execute+0x2a4>)
 8007b80:	f7fc fc0e 	bl	80043a0 <chEvtUnregister>
 8007b84:	a907      	add	r1, sp, #28
 8007b86:	4810      	ldr	r0, [pc, #64]	; (8007bc8 <evt2_execute+0x2a8>)
 8007b88:	f7fc fc0a 	bl	80043a0 <chEvtUnregister>
 8007b8c:	6831      	ldr	r1, [r6, #0]
 8007b8e:	1b8a      	subs	r2, r1, r6
 8007b90:	4251      	negs	r1, r2
 8007b92:	4151      	adcs	r1, r2
 8007b94:	200f      	movs	r0, #15
 8007b96:	f7f8 fcb3 	bl	8000500 <_test_assert>
 8007b9a:	2800      	cmp	r0, #0
 8007b9c:	f47f aed1 	bne.w	8007942 <evt2_execute+0x22>
 8007ba0:	6829      	ldr	r1, [r5, #0]
 8007ba2:	1b4b      	subs	r3, r1, r5
 8007ba4:	4259      	negs	r1, r3
 8007ba6:	4159      	adcs	r1, r3
 8007ba8:	2010      	movs	r0, #16
 8007baa:	f7f8 fca9 	bl	8000500 <_test_assert>
 8007bae:	e6c8      	b.n	8007942 <evt2_execute+0x22>
 8007bb0:	b672      	cpsid	i
 8007bb2:	4b08      	ldr	r3, [pc, #32]	; (8007bd4 <evt2_execute+0x2b4>)
 8007bb4:	62e3      	str	r3, [r4, #44]	; 0x2c
 8007bb6:	e7fe      	b.n	8007bb6 <evt2_execute+0x296>
 8007bb8:	20001558 	.word	0x20001558
 8007bbc:	08005ad1 	.word	0x08005ad1
 8007bc0:	20001c38 	.word	0x20001c38
 8007bc4:	20000c0c 	.word	0x20000c0c
 8007bc8:	20000c10 	.word	0x20000c10
 8007bcc:	0800a7b0 	.word	0x0800a7b0
 8007bd0:	08005b41 	.word	0x08005b41
 8007bd4:	08009e90 	.word	0x08009e90
 8007bd8:	2000236c 	.word	0x2000236c
 8007bdc:	00000000 	.word	0x00000000

08007be0 <msg1_execute>:
 8007be0:	b510      	push	{r4, lr}
 8007be2:	4a18      	ldr	r2, [pc, #96]	; (8007c44 <msg1_execute+0x64>)
 8007be4:	4b18      	ldr	r3, [pc, #96]	; (8007c48 <msg1_execute+0x68>)
 8007be6:	6991      	ldr	r1, [r2, #24]
 8007be8:	4818      	ldr	r0, [pc, #96]	; (8007c4c <msg1_execute+0x6c>)
 8007bea:	688a      	ldr	r2, [r1, #8]
 8007bec:	b082      	sub	sp, #8
 8007bee:	3201      	adds	r2, #1
 8007bf0:	9100      	str	r1, [sp, #0]
 8007bf2:	f44f 71b4 	mov.w	r1, #360	; 0x168
 8007bf6:	f7fe fba3 	bl	8006340 <chThdCreateStatic>
 8007bfa:	4b15      	ldr	r3, [pc, #84]	; (8007c50 <msg1_execute+0x70>)
 8007bfc:	6018      	str	r0, [r3, #0]
 8007bfe:	f7fc fb07 	bl	8004210 <chMsgWait>
 8007c02:	6b44      	ldr	r4, [r0, #52]	; 0x34
 8007c04:	4621      	mov	r1, r4
 8007c06:	f7fc facb 	bl	80041a0 <chMsgRelease>
 8007c0a:	b2e0      	uxtb	r0, r4
 8007c0c:	f7fb fbc0 	bl	8003390 <test_emit_token>
 8007c10:	f7fc fafe 	bl	8004210 <chMsgWait>
 8007c14:	6b44      	ldr	r4, [r0, #52]	; 0x34
 8007c16:	4621      	mov	r1, r4
 8007c18:	f7fc fac2 	bl	80041a0 <chMsgRelease>
 8007c1c:	b2e0      	uxtb	r0, r4
 8007c1e:	f7fb fbb7 	bl	8003390 <test_emit_token>
 8007c22:	f7fc faf5 	bl	8004210 <chMsgWait>
 8007c26:	6b44      	ldr	r4, [r0, #52]	; 0x34
 8007c28:	4621      	mov	r1, r4
 8007c2a:	f7fc fab9 	bl	80041a0 <chMsgRelease>
 8007c2e:	b2e0      	uxtb	r0, r4
 8007c30:	f7fb fbae 	bl	8003390 <test_emit_token>
 8007c34:	4907      	ldr	r1, [pc, #28]	; (8007c54 <msg1_execute+0x74>)
 8007c36:	2001      	movs	r0, #1
 8007c38:	b002      	add	sp, #8
 8007c3a:	e8bd 4010 	ldmia.w	sp!, {r4, lr}
 8007c3e:	f7f8 bc37 	b.w	80004b0 <_test_assert_sequence>
 8007c42:	bf00      	nop
 8007c44:	20001558 	.word	0x20001558
 8007c48:	08004331 	.word	0x08004331
 8007c4c:	20001c38 	.word	0x20001c38
 8007c50:	2000236c 	.word	0x2000236c
 8007c54:	0800a870 	.word	0x0800a870
	...

08007c60 <mtx8_execute>:
 8007c60:	b570      	push	{r4, r5, r6, lr}
 8007c62:	4b19      	ldr	r3, [pc, #100]	; (8007cc8 <mtx8_execute+0x68>)
 8007c64:	4d19      	ldr	r5, [pc, #100]	; (8007ccc <mtx8_execute+0x6c>)
 8007c66:	699b      	ldr	r3, [r3, #24]
 8007c68:	4a19      	ldr	r2, [pc, #100]	; (8007cd0 <mtx8_execute+0x70>)
 8007c6a:	689e      	ldr	r6, [r3, #8]
 8007c6c:	4b19      	ldr	r3, [pc, #100]	; (8007cd4 <mtx8_execute+0x74>)
 8007c6e:	4c1a      	ldr	r4, [pc, #104]	; (8007cd8 <mtx8_execute+0x78>)
 8007c70:	b082      	sub	sp, #8
 8007c72:	4628      	mov	r0, r5
 8007c74:	9200      	str	r2, [sp, #0]
 8007c76:	f44f 71b4 	mov.w	r1, #360	; 0x168
 8007c7a:	1c72      	adds	r2, r6, #1
 8007c7c:	f7fe fb60 	bl	8006340 <chThdCreateStatic>
 8007c80:	4b16      	ldr	r3, [pc, #88]	; (8007cdc <mtx8_execute+0x7c>)
 8007c82:	6020      	str	r0, [r4, #0]
 8007c84:	1cb2      	adds	r2, r6, #2
 8007c86:	9300      	str	r3, [sp, #0]
 8007c88:	f505 70b4 	add.w	r0, r5, #360	; 0x168
 8007c8c:	4b14      	ldr	r3, [pc, #80]	; (8007ce0 <mtx8_execute+0x80>)
 8007c8e:	f44f 71b4 	mov.w	r1, #360	; 0x168
 8007c92:	f7fe fb55 	bl	8006340 <chThdCreateStatic>
 8007c96:	4b13      	ldr	r3, [pc, #76]	; (8007ce4 <mtx8_execute+0x84>)
 8007c98:	6060      	str	r0, [r4, #4]
 8007c9a:	1cf2      	adds	r2, r6, #3
 8007c9c:	f44f 71b4 	mov.w	r1, #360	; 0x168
 8007ca0:	9300      	str	r3, [sp, #0]
 8007ca2:	f505 7034 	add.w	r0, r5, #720	; 0x2d0
 8007ca6:	4b10      	ldr	r3, [pc, #64]	; (8007ce8 <mtx8_execute+0x88>)
 8007ca8:	f7fe fb4a 	bl	8006340 <chThdCreateStatic>
 8007cac:	60a0      	str	r0, [r4, #8]
 8007cae:	f7fa fcaf 	bl	8002610 <chCondSignal.constprop.63>
 8007cb2:	f7fa fcad 	bl	8002610 <chCondSignal.constprop.63>
 8007cb6:	f7fd facb 	bl	8005250 <test_wait_threads>
 8007cba:	490c      	ldr	r1, [pc, #48]	; (8007cec <mtx8_execute+0x8c>)
 8007cbc:	2001      	movs	r0, #1
 8007cbe:	b002      	add	sp, #8
 8007cc0:	e8bd 4070 	ldmia.w	sp!, {r4, r5, r6, lr}
 8007cc4:	f7f8 bbf4 	b.w	80004b0 <_test_assert_sequence>
 8007cc8:	20001558 	.word	0x20001558
 8007ccc:	20001c38 	.word	0x20001c38
 8007cd0:	0800a7b0 	.word	0x0800a7b0
 8007cd4:	08004671 	.word	0x08004671
 8007cd8:	2000236c 	.word	0x2000236c
 8007cdc:	0800a7b8 	.word	0x0800a7b8
 8007ce0:	08004741 	.word	0x08004741
 8007ce4:	0800a7b4 	.word	0x0800a7b4
 8007ce8:	080047f1 	.word	0x080047f1
 8007cec:	0800a870 	.word	0x0800a870

08007cf0 <mtx7_execute>:
 8007cf0:	b570      	push	{r4, r5, r6, lr}
 8007cf2:	4d37      	ldr	r5, [pc, #220]	; (8007dd0 <mtx7_execute+0xe0>)
 8007cf4:	4a37      	ldr	r2, [pc, #220]	; (8007dd4 <mtx7_execute+0xe4>)
 8007cf6:	69a9      	ldr	r1, [r5, #24]
 8007cf8:	4b37      	ldr	r3, [pc, #220]	; (8007dd8 <mtx7_execute+0xe8>)
 8007cfa:	688e      	ldr	r6, [r1, #8]
 8007cfc:	4837      	ldr	r0, [pc, #220]	; (8007ddc <mtx7_execute+0xec>)
 8007cfe:	4c38      	ldr	r4, [pc, #224]	; (8007de0 <mtx7_execute+0xf0>)
 8007d00:	b082      	sub	sp, #8
 8007d02:	f44f 71b4 	mov.w	r1, #360	; 0x168
 8007d06:	9200      	str	r2, [sp, #0]
 8007d08:	1c72      	adds	r2, r6, #1
 8007d0a:	f7fe fb19 	bl	8006340 <chThdCreateStatic>
 8007d0e:	4b35      	ldr	r3, [pc, #212]	; (8007de4 <mtx7_execute+0xf4>)
 8007d10:	6020      	str	r0, [r4, #0]
 8007d12:	1cb2      	adds	r2, r6, #2
 8007d14:	9300      	str	r3, [sp, #0]
 8007d16:	f44f 71b4 	mov.w	r1, #360	; 0x168
 8007d1a:	4b2f      	ldr	r3, [pc, #188]	; (8007dd8 <mtx7_execute+0xe8>)
 8007d1c:	4832      	ldr	r0, [pc, #200]	; (8007de8 <mtx7_execute+0xf8>)
 8007d1e:	f7fe fb0f 	bl	8006340 <chThdCreateStatic>
 8007d22:	4b32      	ldr	r3, [pc, #200]	; (8007dec <mtx7_execute+0xfc>)
 8007d24:	6060      	str	r0, [r4, #4]
 8007d26:	1cf2      	adds	r2, r6, #3
 8007d28:	9300      	str	r3, [sp, #0]
 8007d2a:	f44f 71b4 	mov.w	r1, #360	; 0x168
 8007d2e:	4b2a      	ldr	r3, [pc, #168]	; (8007dd8 <mtx7_execute+0xe8>)
 8007d30:	482f      	ldr	r0, [pc, #188]	; (8007df0 <mtx7_execute+0x100>)
 8007d32:	f7fe fb05 	bl	8006340 <chThdCreateStatic>
 8007d36:	4b2f      	ldr	r3, [pc, #188]	; (8007df4 <mtx7_execute+0x104>)
 8007d38:	60a0      	str	r0, [r4, #8]
 8007d3a:	1d32      	adds	r2, r6, #4
 8007d3c:	9300      	str	r3, [sp, #0]
 8007d3e:	f44f 71b4 	mov.w	r1, #360	; 0x168
 8007d42:	4b25      	ldr	r3, [pc, #148]	; (8007dd8 <mtx7_execute+0xe8>)
 8007d44:	482c      	ldr	r0, [pc, #176]	; (8007df8 <mtx7_execute+0x108>)
 8007d46:	f7fe fafb 	bl	8006340 <chThdCreateStatic>
 8007d4a:	4b2c      	ldr	r3, [pc, #176]	; (8007dfc <mtx7_execute+0x10c>)
 8007d4c:	60e0      	str	r0, [r4, #12]
 8007d4e:	1d72      	adds	r2, r6, #5
 8007d50:	9300      	str	r3, [sp, #0]
 8007d52:	f44f 71b4 	mov.w	r1, #360	; 0x168
 8007d56:	4b20      	ldr	r3, [pc, #128]	; (8007dd8 <mtx7_execute+0xe8>)
 8007d58:	4829      	ldr	r0, [pc, #164]	; (8007e00 <mtx7_execute+0x110>)
 8007d5a:	f7fe faf1 	bl	8006340 <chThdCreateStatic>
 8007d5e:	2320      	movs	r3, #32
 8007d60:	6120      	str	r0, [r4, #16]
 8007d62:	f383 8811 	msr	BASEPRI, r3
 8007d66:	4c27      	ldr	r4, [pc, #156]	; (8007e04 <mtx7_execute+0x114>)
 8007d68:	f7fa fa6a 	bl	8002240 <_stats_start_measure_crit_thd>
 8007d6c:	f7fa fb58 	bl	8002420 <_dbg_check_lock>
 8007d70:	f7f8 fe06 	bl	8000980 <chDbgCheckClassI>
 8007d74:	6823      	ldr	r3, [r4, #0]
 8007d76:	42a3      	cmp	r3, r4
 8007d78:	d00b      	beq.n	8007d92 <mtx7_execute+0xa2>
 8007d7a:	f06f 0601 	mvn.w	r6, #1
 8007d7e:	681a      	ldr	r2, [r3, #0]
 8007d80:	6022      	str	r2, [r4, #0]
 8007d82:	4618      	mov	r0, r3
 8007d84:	6054      	str	r4, [r2, #4]
 8007d86:	f7f8 febb 	bl	8000b00 <chSchReadyI>
 8007d8a:	6823      	ldr	r3, [r4, #0]
 8007d8c:	6246      	str	r6, [r0, #36]	; 0x24
 8007d8e:	42a3      	cmp	r3, r4
 8007d90:	d1f5      	bne.n	8007d7e <mtx7_execute+0x8e>
 8007d92:	f7fa f85d 	bl	8001e50 <chSchRescheduleS>
 8007d96:	f7fa fa63 	bl	8002260 <_dbg_check_unlock>
 8007d9a:	f7fa fa49 	bl	8002230 <_stats_stop_measure_crit_thd>
 8007d9e:	682b      	ldr	r3, [r5, #0]
 8007da0:	42ab      	cmp	r3, r5
 8007da2:	d004      	beq.n	8007dae <mtx7_execute+0xbe>
 8007da4:	69aa      	ldr	r2, [r5, #24]
 8007da6:	689b      	ldr	r3, [r3, #8]
 8007da8:	6892      	ldr	r2, [r2, #8]
 8007daa:	429a      	cmp	r2, r3
 8007dac:	d30b      	bcc.n	8007dc6 <mtx7_execute+0xd6>
 8007dae:	2300      	movs	r3, #0
 8007db0:	f383 8811 	msr	BASEPRI, r3
 8007db4:	f7fd fa4c 	bl	8005250 <test_wait_threads>
 8007db8:	4913      	ldr	r1, [pc, #76]	; (8007e08 <mtx7_execute+0x118>)
 8007dba:	2001      	movs	r0, #1
 8007dbc:	b002      	add	sp, #8
 8007dbe:	e8bd 4070 	ldmia.w	sp!, {r4, r5, r6, lr}
 8007dc2:	f7f8 bb75 	b.w	80004b0 <_test_assert_sequence>
 8007dc6:	b672      	cpsid	i
 8007dc8:	4b10      	ldr	r3, [pc, #64]	; (8007e0c <mtx7_execute+0x11c>)
 8007dca:	62eb      	str	r3, [r5, #44]	; 0x2c
 8007dcc:	e7fe      	b.n	8007dcc <mtx7_execute+0xdc>
 8007dce:	bf00      	nop
 8007dd0:	20001558 	.word	0x20001558
 8007dd4:	0800a8a4 	.word	0x0800a8a4
 8007dd8:	08004741 	.word	0x08004741
 8007ddc:	20001c38 	.word	0x20001c38
 8007de0:	2000236c 	.word	0x2000236c
 8007de4:	0800b000 	.word	0x0800b000
 8007de8:	20001da0 	.word	0x20001da0
 8007dec:	0800a7b8 	.word	0x0800a7b8
 8007df0:	20001f08 	.word	0x20001f08
 8007df4:	0800a7b4 	.word	0x0800a7b4
 8007df8:	20002070 	.word	0x20002070
 8007dfc:	0800a7b0 	.word	0x0800a7b0
 8007e00:	200021d8 	.word	0x200021d8
 8007e04:	20000c04 	.word	0x20000c04
 8007e08:	0800a8a0 	.word	0x0800a8a0
 8007e0c:	08009dc0 	.word	0x08009dc0

08007e10 <mtx6_execute>:
 8007e10:	b570      	push	{r4, r5, r6, lr}
 8007e12:	4c33      	ldr	r4, [pc, #204]	; (8007ee0 <mtx6_execute+0xd0>)
 8007e14:	4a33      	ldr	r2, [pc, #204]	; (8007ee4 <mtx6_execute+0xd4>)
 8007e16:	69a1      	ldr	r1, [r4, #24]
 8007e18:	4b33      	ldr	r3, [pc, #204]	; (8007ee8 <mtx6_execute+0xd8>)
 8007e1a:	688e      	ldr	r6, [r1, #8]
 8007e1c:	4833      	ldr	r0, [pc, #204]	; (8007eec <mtx6_execute+0xdc>)
 8007e1e:	4d34      	ldr	r5, [pc, #208]	; (8007ef0 <mtx6_execute+0xe0>)
 8007e20:	b082      	sub	sp, #8
 8007e22:	f44f 71b4 	mov.w	r1, #360	; 0x168
 8007e26:	9200      	str	r2, [sp, #0]
 8007e28:	1c72      	adds	r2, r6, #1
 8007e2a:	f7fe fa89 	bl	8006340 <chThdCreateStatic>
 8007e2e:	4b31      	ldr	r3, [pc, #196]	; (8007ef4 <mtx6_execute+0xe4>)
 8007e30:	6028      	str	r0, [r5, #0]
 8007e32:	1cb2      	adds	r2, r6, #2
 8007e34:	9300      	str	r3, [sp, #0]
 8007e36:	f44f 71b4 	mov.w	r1, #360	; 0x168
 8007e3a:	4b2b      	ldr	r3, [pc, #172]	; (8007ee8 <mtx6_execute+0xd8>)
 8007e3c:	482e      	ldr	r0, [pc, #184]	; (8007ef8 <mtx6_execute+0xe8>)
 8007e3e:	f7fe fa7f 	bl	8006340 <chThdCreateStatic>
 8007e42:	4b2e      	ldr	r3, [pc, #184]	; (8007efc <mtx6_execute+0xec>)
 8007e44:	6068      	str	r0, [r5, #4]
 8007e46:	1cf2      	adds	r2, r6, #3
 8007e48:	9300      	str	r3, [sp, #0]
 8007e4a:	f44f 71b4 	mov.w	r1, #360	; 0x168
 8007e4e:	4b26      	ldr	r3, [pc, #152]	; (8007ee8 <mtx6_execute+0xd8>)
 8007e50:	482b      	ldr	r0, [pc, #172]	; (8007f00 <mtx6_execute+0xf0>)
 8007e52:	f7fe fa75 	bl	8006340 <chThdCreateStatic>
 8007e56:	4b2b      	ldr	r3, [pc, #172]	; (8007f04 <mtx6_execute+0xf4>)
 8007e58:	60a8      	str	r0, [r5, #8]
 8007e5a:	1d32      	adds	r2, r6, #4
 8007e5c:	9300      	str	r3, [sp, #0]
 8007e5e:	f44f 71b4 	mov.w	r1, #360	; 0x168
 8007e62:	4b21      	ldr	r3, [pc, #132]	; (8007ee8 <mtx6_execute+0xd8>)
 8007e64:	4828      	ldr	r0, [pc, #160]	; (8007f08 <mtx6_execute+0xf8>)
 8007e66:	f7fe fa6b 	bl	8006340 <chThdCreateStatic>
 8007e6a:	4b28      	ldr	r3, [pc, #160]	; (8007f0c <mtx6_execute+0xfc>)
 8007e6c:	60e8      	str	r0, [r5, #12]
 8007e6e:	9300      	str	r3, [sp, #0]
 8007e70:	1d72      	adds	r2, r6, #5
 8007e72:	4b1d      	ldr	r3, [pc, #116]	; (8007ee8 <mtx6_execute+0xd8>)
 8007e74:	4826      	ldr	r0, [pc, #152]	; (8007f10 <mtx6_execute+0x100>)
 8007e76:	f44f 71b4 	mov.w	r1, #360	; 0x168
 8007e7a:	f7fe fa61 	bl	8006340 <chThdCreateStatic>
 8007e7e:	2320      	movs	r3, #32
 8007e80:	6128      	str	r0, [r5, #16]
 8007e82:	f383 8811 	msr	BASEPRI, r3
 8007e86:	f7fa f9db 	bl	8002240 <_stats_start_measure_crit_thd>
 8007e8a:	f7fa fac9 	bl	8002420 <_dbg_check_lock>
 8007e8e:	f7f9 fad7 	bl	8001440 <chCondSignalI.constprop.62>
 8007e92:	f7f9 fad5 	bl	8001440 <chCondSignalI.constprop.62>
 8007e96:	f7f9 fad3 	bl	8001440 <chCondSignalI.constprop.62>
 8007e9a:	f7f9 fad1 	bl	8001440 <chCondSignalI.constprop.62>
 8007e9e:	f7f9 facf 	bl	8001440 <chCondSignalI.constprop.62>
 8007ea2:	f7f9 ffd5 	bl	8001e50 <chSchRescheduleS>
 8007ea6:	f7fa f9db 	bl	8002260 <_dbg_check_unlock>
 8007eaa:	f7fa f9c1 	bl	8002230 <_stats_stop_measure_crit_thd>
 8007eae:	6823      	ldr	r3, [r4, #0]
 8007eb0:	42a3      	cmp	r3, r4
 8007eb2:	d004      	beq.n	8007ebe <mtx6_execute+0xae>
 8007eb4:	69a2      	ldr	r2, [r4, #24]
 8007eb6:	689b      	ldr	r3, [r3, #8]
 8007eb8:	6892      	ldr	r2, [r2, #8]
 8007eba:	429a      	cmp	r2, r3
 8007ebc:	d30b      	bcc.n	8007ed6 <mtx6_execute+0xc6>
 8007ebe:	2300      	movs	r3, #0
 8007ec0:	f383 8811 	msr	BASEPRI, r3
 8007ec4:	f7fd f9c4 	bl	8005250 <test_wait_threads>
 8007ec8:	4912      	ldr	r1, [pc, #72]	; (8007f14 <mtx6_execute+0x104>)
 8007eca:	2001      	movs	r0, #1
 8007ecc:	b002      	add	sp, #8
 8007ece:	e8bd 4070 	ldmia.w	sp!, {r4, r5, r6, lr}
 8007ed2:	f7f8 baed 	b.w	80004b0 <_test_assert_sequence>
 8007ed6:	b672      	cpsid	i
 8007ed8:	4b0f      	ldr	r3, [pc, #60]	; (8007f18 <mtx6_execute+0x108>)
 8007eda:	62e3      	str	r3, [r4, #44]	; 0x2c
 8007edc:	e7fe      	b.n	8007edc <mtx6_execute+0xcc>
 8007ede:	bf00      	nop
 8007ee0:	20001558 	.word	0x20001558
 8007ee4:	0800a8a4 	.word	0x0800a8a4
 8007ee8:	08004741 	.word	0x08004741
 8007eec:	20001c38 	.word	0x20001c38
 8007ef0:	2000236c 	.word	0x2000236c
 8007ef4:	0800b000 	.word	0x0800b000
 8007ef8:	20001da0 	.word	0x20001da0
 8007efc:	0800a7b8 	.word	0x0800a7b8
 8007f00:	20001f08 	.word	0x20001f08
 8007f04:	0800a7b4 	.word	0x0800a7b4
 8007f08:	20002070 	.word	0x20002070
 8007f0c:	0800a7b0 	.word	0x0800a7b0
 8007f10:	200021d8 	.word	0x200021d8
 8007f14:	0800a8a0 	.word	0x0800a8a0
 8007f18:	08009e70 	.word	0x08009e70
 8007f1c:	00000000 	.word	0x00000000

08007f20 <mtx4_execute>:
 8007f20:	e92d 41f0 	stmdb	sp!, {r4, r5, r6, r7, r8, lr}
 8007f24:	4d91      	ldr	r5, [pc, #580]	; (800816c <mtx4_execute+0x24c>)
 8007f26:	4a92      	ldr	r2, [pc, #584]	; (8008170 <mtx4_execute+0x250>)
 8007f28:	69a9      	ldr	r1, [r5, #24]
 8007f2a:	4b92      	ldr	r3, [pc, #584]	; (8008174 <mtx4_execute+0x254>)
 8007f2c:	688c      	ldr	r4, [r1, #8]
 8007f2e:	4892      	ldr	r0, [pc, #584]	; (8008178 <mtx4_execute+0x258>)
 8007f30:	4e92      	ldr	r6, [pc, #584]	; (800817c <mtx4_execute+0x25c>)
 8007f32:	b082      	sub	sp, #8
 8007f34:	1c67      	adds	r7, r4, #1
 8007f36:	9200      	str	r2, [sp, #0]
 8007f38:	f44f 71b4 	mov.w	r1, #360	; 0x168
 8007f3c:	463a      	mov	r2, r7
 8007f3e:	f7fe f9ff 	bl	8006340 <chThdCreateStatic>
 8007f42:	f104 0802 	add.w	r8, r4, #2
 8007f46:	4b8e      	ldr	r3, [pc, #568]	; (8008180 <mtx4_execute+0x260>)
 8007f48:	6030      	str	r0, [r6, #0]
 8007f4a:	f44f 71b4 	mov.w	r1, #360	; 0x168
 8007f4e:	4642      	mov	r2, r8
 8007f50:	9300      	str	r3, [sp, #0]
 8007f52:	488c      	ldr	r0, [pc, #560]	; (8008184 <mtx4_execute+0x264>)
 8007f54:	4b8c      	ldr	r3, [pc, #560]	; (8008188 <mtx4_execute+0x268>)
 8007f56:	f7fe f9f3 	bl	8006340 <chThdCreateStatic>
 8007f5a:	6070      	str	r0, [r6, #4]
 8007f5c:	488b      	ldr	r0, [pc, #556]	; (800818c <mtx4_execute+0x26c>)
 8007f5e:	f7fc fb5f 	bl	8004620 <chMtxLock>
 8007f62:	69ab      	ldr	r3, [r5, #24]
 8007f64:	6899      	ldr	r1, [r3, #8]
 8007f66:	1b09      	subs	r1, r1, r4
 8007f68:	fab1 f181 	clz	r1, r1
 8007f6c:	2001      	movs	r0, #1
 8007f6e:	0949      	lsrs	r1, r1, #5
 8007f70:	f7f8 fac6 	bl	8000500 <_test_assert>
 8007f74:	b110      	cbz	r0, 8007f7c <mtx4_execute+0x5c>
 8007f76:	b002      	add	sp, #8
 8007f78:	e8bd 81f0 	ldmia.w	sp!, {r4, r5, r6, r7, r8, pc}
 8007f7c:	f44f 707a 	mov.w	r0, #1000	; 0x3e8
 8007f80:	f7fd faf6 	bl	8005570 <chThdSleep>
 8007f84:	69ab      	ldr	r3, [r5, #24]
 8007f86:	6899      	ldr	r1, [r3, #8]
 8007f88:	1bc9      	subs	r1, r1, r7
 8007f8a:	fab1 f181 	clz	r1, r1
 8007f8e:	2002      	movs	r0, #2
 8007f90:	0949      	lsrs	r1, r1, #5
 8007f92:	f7f8 fab5 	bl	8000500 <_test_assert>
 8007f96:	2800      	cmp	r0, #0
 8007f98:	d1ed      	bne.n	8007f76 <mtx4_execute+0x56>
 8007f9a:	487d      	ldr	r0, [pc, #500]	; (8008190 <mtx4_execute+0x270>)
 8007f9c:	f7fc fb40 	bl	8004620 <chMtxLock>
 8007fa0:	69ab      	ldr	r3, [r5, #24]
 8007fa2:	6899      	ldr	r1, [r3, #8]
 8007fa4:	1bc9      	subs	r1, r1, r7
 8007fa6:	fab1 f181 	clz	r1, r1
 8007faa:	2003      	movs	r0, #3
 8007fac:	0949      	lsrs	r1, r1, #5
 8007fae:	f7f8 faa7 	bl	8000500 <_test_assert>
 8007fb2:	2800      	cmp	r0, #0
 8007fb4:	d1df      	bne.n	8007f76 <mtx4_execute+0x56>
 8007fb6:	f44f 707a 	mov.w	r0, #1000	; 0x3e8
 8007fba:	f7fd fad9 	bl	8005570 <chThdSleep>
 8007fbe:	69ab      	ldr	r3, [r5, #24]
 8007fc0:	6899      	ldr	r1, [r3, #8]
 8007fc2:	eba1 0108 	sub.w	r1, r1, r8
 8007fc6:	fab1 f181 	clz	r1, r1
 8007fca:	2004      	movs	r0, #4
 8007fcc:	0949      	lsrs	r1, r1, #5
 8007fce:	f7f8 fa97 	bl	8000500 <_test_assert>
 8007fd2:	2800      	cmp	r0, #0
 8007fd4:	d1cf      	bne.n	8007f76 <mtx4_execute+0x56>
 8007fd6:	486e      	ldr	r0, [pc, #440]	; (8008190 <mtx4_execute+0x270>)
 8007fd8:	f7fc faba 	bl	8004550 <chMtxUnlock>
 8007fdc:	69ab      	ldr	r3, [r5, #24]
 8007fde:	6899      	ldr	r1, [r3, #8]
 8007fe0:	1bc9      	subs	r1, r1, r7
 8007fe2:	fab1 f181 	clz	r1, r1
 8007fe6:	2005      	movs	r0, #5
 8007fe8:	0949      	lsrs	r1, r1, #5
 8007fea:	f7f8 fa89 	bl	8000500 <_test_assert>
 8007fee:	2800      	cmp	r0, #0
 8007ff0:	d1c1      	bne.n	8007f76 <mtx4_execute+0x56>
 8007ff2:	f44f 707a 	mov.w	r0, #1000	; 0x3e8
 8007ff6:	f7fd fabb 	bl	8005570 <chThdSleep>
 8007ffa:	69ab      	ldr	r3, [r5, #24]
 8007ffc:	6899      	ldr	r1, [r3, #8]
 8007ffe:	1bc9      	subs	r1, r1, r7
 8008000:	fab1 f181 	clz	r1, r1
 8008004:	2006      	movs	r0, #6
 8008006:	0949      	lsrs	r1, r1, #5
 8008008:	f7f8 fa7a 	bl	8000500 <_test_assert>
 800800c:	2800      	cmp	r0, #0
 800800e:	d1b2      	bne.n	8007f76 <mtx4_execute+0x56>
 8008010:	f7fc fa56 	bl	80044c0 <chMtxUnlockAll>
 8008014:	69ab      	ldr	r3, [r5, #24]
 8008016:	6899      	ldr	r1, [r3, #8]
 8008018:	1b09      	subs	r1, r1, r4
 800801a:	fab1 f181 	clz	r1, r1
 800801e:	2007      	movs	r0, #7
 8008020:	0949      	lsrs	r1, r1, #5
 8008022:	f7f8 fa6d 	bl	8000500 <_test_assert>
 8008026:	2800      	cmp	r0, #0
 8008028:	d1a5      	bne.n	8007f76 <mtx4_execute+0x56>
 800802a:	f7fd f911 	bl	8005250 <test_wait_threads>
 800802e:	4b59      	ldr	r3, [pc, #356]	; (8008194 <mtx4_execute+0x274>)
 8008030:	9300      	str	r3, [sp, #0]
 8008032:	463a      	mov	r2, r7
 8008034:	4b4f      	ldr	r3, [pc, #316]	; (8008174 <mtx4_execute+0x254>)
 8008036:	4850      	ldr	r0, [pc, #320]	; (8008178 <mtx4_execute+0x258>)
 8008038:	f44f 71b4 	mov.w	r1, #360	; 0x168
 800803c:	f7fe f980 	bl	8006340 <chThdCreateStatic>
 8008040:	4b55      	ldr	r3, [pc, #340]	; (8008198 <mtx4_execute+0x278>)
 8008042:	6030      	str	r0, [r6, #0]
 8008044:	4642      	mov	r2, r8
 8008046:	f44f 71b4 	mov.w	r1, #360	; 0x168
 800804a:	9300      	str	r3, [sp, #0]
 800804c:	484d      	ldr	r0, [pc, #308]	; (8008184 <mtx4_execute+0x264>)
 800804e:	4b4e      	ldr	r3, [pc, #312]	; (8008188 <mtx4_execute+0x268>)
 8008050:	f7fe f976 	bl	8006340 <chThdCreateStatic>
 8008054:	6070      	str	r0, [r6, #4]
 8008056:	484d      	ldr	r0, [pc, #308]	; (800818c <mtx4_execute+0x26c>)
 8008058:	f7fc fae2 	bl	8004620 <chMtxLock>
 800805c:	69ab      	ldr	r3, [r5, #24]
 800805e:	6899      	ldr	r1, [r3, #8]
 8008060:	1b0a      	subs	r2, r1, r4
 8008062:	4251      	negs	r1, r2
 8008064:	4151      	adcs	r1, r2
 8008066:	2008      	movs	r0, #8
 8008068:	f7f8 fa4a 	bl	8000500 <_test_assert>
 800806c:	2800      	cmp	r0, #0
 800806e:	d182      	bne.n	8007f76 <mtx4_execute+0x56>
 8008070:	f44f 707a 	mov.w	r0, #1000	; 0x3e8
 8008074:	f7fd fa7c 	bl	8005570 <chThdSleep>
 8008078:	69ab      	ldr	r3, [r5, #24]
 800807a:	6899      	ldr	r1, [r3, #8]
 800807c:	1bcb      	subs	r3, r1, r7
 800807e:	4259      	negs	r1, r3
 8008080:	4159      	adcs	r1, r3
 8008082:	2009      	movs	r0, #9
 8008084:	f7f8 fa3c 	bl	8000500 <_test_assert>
 8008088:	2800      	cmp	r0, #0
 800808a:	f47f af74 	bne.w	8007f76 <mtx4_execute+0x56>
 800808e:	4840      	ldr	r0, [pc, #256]	; (8008190 <mtx4_execute+0x270>)
 8008090:	f7fc fac6 	bl	8004620 <chMtxLock>
 8008094:	69ab      	ldr	r3, [r5, #24]
 8008096:	6899      	ldr	r1, [r3, #8]
 8008098:	eba1 0e07 	sub.w	lr, r1, r7
 800809c:	f1de 0100 	rsbs	r1, lr, #0
 80080a0:	eb41 010e 	adc.w	r1, r1, lr
 80080a4:	200a      	movs	r0, #10
 80080a6:	f7f8 fa2b 	bl	8000500 <_test_assert>
 80080aa:	2800      	cmp	r0, #0
 80080ac:	f47f af63 	bne.w	8007f76 <mtx4_execute+0x56>
 80080b0:	f44f 707a 	mov.w	r0, #1000	; 0x3e8
 80080b4:	f7fd fa5c 	bl	8005570 <chThdSleep>
 80080b8:	69ab      	ldr	r3, [r5, #24]
 80080ba:	6899      	ldr	r1, [r3, #8]
 80080bc:	eba1 0c08 	sub.w	ip, r1, r8
 80080c0:	f1dc 0100 	rsbs	r1, ip, #0
 80080c4:	eb41 010c 	adc.w	r1, r1, ip
 80080c8:	200b      	movs	r0, #11
 80080ca:	f7f8 fa19 	bl	8000500 <_test_assert>
 80080ce:	2800      	cmp	r0, #0
 80080d0:	f47f af51 	bne.w	8007f76 <mtx4_execute+0x56>
 80080d4:	2320      	movs	r3, #32
 80080d6:	f383 8811 	msr	BASEPRI, r3
 80080da:	f7fa f8b1 	bl	8002240 <_stats_start_measure_crit_thd>
 80080de:	f7fa f99f 	bl	8002420 <_dbg_check_lock>
 80080e2:	482b      	ldr	r0, [pc, #172]	; (8008190 <mtx4_execute+0x270>)
 80080e4:	f7f8 fde4 	bl	8000cb0 <chMtxUnlockS>
 80080e8:	f7f9 feb2 	bl	8001e50 <chSchRescheduleS>
 80080ec:	f7fa f8b8 	bl	8002260 <_dbg_check_unlock>
 80080f0:	f7fa f89e 	bl	8002230 <_stats_stop_measure_crit_thd>
 80080f4:	682b      	ldr	r3, [r5, #0]
 80080f6:	42ab      	cmp	r3, r5
 80080f8:	d004      	beq.n	8008104 <mtx4_execute+0x1e4>
 80080fa:	69aa      	ldr	r2, [r5, #24]
 80080fc:	689b      	ldr	r3, [r3, #8]
 80080fe:	6892      	ldr	r2, [r2, #8]
 8008100:	429a      	cmp	r2, r3
 8008102:	d32e      	bcc.n	8008162 <mtx4_execute+0x242>
 8008104:	2300      	movs	r3, #0
 8008106:	f383 8811 	msr	BASEPRI, r3
 800810a:	69ab      	ldr	r3, [r5, #24]
 800810c:	6899      	ldr	r1, [r3, #8]
 800810e:	1bce      	subs	r6, r1, r7
 8008110:	4271      	negs	r1, r6
 8008112:	4171      	adcs	r1, r6
 8008114:	200c      	movs	r0, #12
 8008116:	f7f8 f9f3 	bl	8000500 <_test_assert>
 800811a:	2800      	cmp	r0, #0
 800811c:	f47f af2b 	bne.w	8007f76 <mtx4_execute+0x56>
 8008120:	f44f 707a 	mov.w	r0, #1000	; 0x3e8
 8008124:	f7fd fa24 	bl	8005570 <chThdSleep>
 8008128:	69ab      	ldr	r3, [r5, #24]
 800812a:	6899      	ldr	r1, [r3, #8]
 800812c:	1bca      	subs	r2, r1, r7
 800812e:	4251      	negs	r1, r2
 8008130:	4151      	adcs	r1, r2
 8008132:	200d      	movs	r0, #13
 8008134:	f7f8 f9e4 	bl	8000500 <_test_assert>
 8008138:	2800      	cmp	r0, #0
 800813a:	f47f af1c 	bne.w	8007f76 <mtx4_execute+0x56>
 800813e:	f7fc f9bf 	bl	80044c0 <chMtxUnlockAll>
 8008142:	69ab      	ldr	r3, [r5, #24]
 8008144:	6899      	ldr	r1, [r3, #8]
 8008146:	1b0b      	subs	r3, r1, r4
 8008148:	4259      	negs	r1, r3
 800814a:	4159      	adcs	r1, r3
 800814c:	200e      	movs	r0, #14
 800814e:	f7f8 f9d7 	bl	8000500 <_test_assert>
 8008152:	2800      	cmp	r0, #0
 8008154:	f47f af0f 	bne.w	8007f76 <mtx4_execute+0x56>
 8008158:	b002      	add	sp, #8
 800815a:	e8bd 41f0 	ldmia.w	sp!, {r4, r5, r6, r7, r8, lr}
 800815e:	f7fd b877 	b.w	8005250 <test_wait_threads>
 8008162:	b672      	cpsid	i
 8008164:	4b0d      	ldr	r3, [pc, #52]	; (800819c <mtx4_execute+0x27c>)
 8008166:	62eb      	str	r3, [r5, #44]	; 0x2c
 8008168:	e7fe      	b.n	8008168 <mtx4_execute+0x248>
 800816a:	bf00      	nop
 800816c:	20001558 	.word	0x20001558
 8008170:	0800a7b4 	.word	0x0800a7b4
 8008174:	08005be1 	.word	0x08005be1
 8008178:	20001c38 	.word	0x20001c38
 800817c:	2000236c 	.word	0x2000236c
 8008180:	0800a7b0 	.word	0x0800a7b0
 8008184:	20001da0 	.word	0x20001da0
 8008188:	08005c01 	.word	0x08005c01
 800818c:	20000c68 	.word	0x20000c68
 8008190:	20000c58 	.word	0x20000c58
 8008194:	0800b000 	.word	0x0800b000
 8008198:	0800a7b8 	.word	0x0800a7b8
 800819c:	08009e70 	.word	0x08009e70

080081a0 <mtx1_execute>:
 80081a0:	b570      	push	{r4, r5, r6, lr}
 80081a2:	4e29      	ldr	r6, [pc, #164]	; (8008248 <mtx1_execute+0xa8>)
 80081a4:	4829      	ldr	r0, [pc, #164]	; (800824c <mtx1_execute+0xac>)
 80081a6:	69b3      	ldr	r3, [r6, #24]
 80081a8:	4d29      	ldr	r5, [pc, #164]	; (8008250 <mtx1_execute+0xb0>)
 80081aa:	689c      	ldr	r4, [r3, #8]
 80081ac:	b082      	sub	sp, #8
 80081ae:	f7fc fa37 	bl	8004620 <chMtxLock>
 80081b2:	4b28      	ldr	r3, [pc, #160]	; (8008254 <mtx1_execute+0xb4>)
 80081b4:	9300      	str	r3, [sp, #0]
 80081b6:	1c62      	adds	r2, r4, #1
 80081b8:	4b27      	ldr	r3, [pc, #156]	; (8008258 <mtx1_execute+0xb8>)
 80081ba:	4828      	ldr	r0, [pc, #160]	; (800825c <mtx1_execute+0xbc>)
 80081bc:	f44f 71b4 	mov.w	r1, #360	; 0x168
 80081c0:	f7fe f8be 	bl	8006340 <chThdCreateStatic>
 80081c4:	4b26      	ldr	r3, [pc, #152]	; (8008260 <mtx1_execute+0xc0>)
 80081c6:	6028      	str	r0, [r5, #0]
 80081c8:	1ca2      	adds	r2, r4, #2
 80081ca:	9300      	str	r3, [sp, #0]
 80081cc:	f44f 71b4 	mov.w	r1, #360	; 0x168
 80081d0:	4b21      	ldr	r3, [pc, #132]	; (8008258 <mtx1_execute+0xb8>)
 80081d2:	4824      	ldr	r0, [pc, #144]	; (8008264 <mtx1_execute+0xc4>)
 80081d4:	f7fe f8b4 	bl	8006340 <chThdCreateStatic>
 80081d8:	4b23      	ldr	r3, [pc, #140]	; (8008268 <mtx1_execute+0xc8>)
 80081da:	6068      	str	r0, [r5, #4]
 80081dc:	1ce2      	adds	r2, r4, #3
 80081de:	9300      	str	r3, [sp, #0]
 80081e0:	f44f 71b4 	mov.w	r1, #360	; 0x168
 80081e4:	4b1c      	ldr	r3, [pc, #112]	; (8008258 <mtx1_execute+0xb8>)
 80081e6:	4821      	ldr	r0, [pc, #132]	; (800826c <mtx1_execute+0xcc>)
 80081e8:	f7fe f8aa 	bl	8006340 <chThdCreateStatic>
 80081ec:	4b20      	ldr	r3, [pc, #128]	; (8008270 <mtx1_execute+0xd0>)
 80081ee:	60a8      	str	r0, [r5, #8]
 80081f0:	1d22      	adds	r2, r4, #4
 80081f2:	9300      	str	r3, [sp, #0]
 80081f4:	f44f 71b4 	mov.w	r1, #360	; 0x168
 80081f8:	4b17      	ldr	r3, [pc, #92]	; (8008258 <mtx1_execute+0xb8>)
 80081fa:	481e      	ldr	r0, [pc, #120]	; (8008274 <mtx1_execute+0xd4>)
 80081fc:	f7fe f8a0 	bl	8006340 <chThdCreateStatic>
 8008200:	4b1d      	ldr	r3, [pc, #116]	; (8008278 <mtx1_execute+0xd8>)
 8008202:	60e8      	str	r0, [r5, #12]
 8008204:	f44f 71b4 	mov.w	r1, #360	; 0x168
 8008208:	1d62      	adds	r2, r4, #5
 800820a:	9300      	str	r3, [sp, #0]
 800820c:	481b      	ldr	r0, [pc, #108]	; (800827c <mtx1_execute+0xdc>)
 800820e:	4b12      	ldr	r3, [pc, #72]	; (8008258 <mtx1_execute+0xb8>)
 8008210:	f7fe f896 	bl	8006340 <chThdCreateStatic>
 8008214:	6128      	str	r0, [r5, #16]
 8008216:	480d      	ldr	r0, [pc, #52]	; (800824c <mtx1_execute+0xac>)
 8008218:	f7fc f99a 	bl	8004550 <chMtxUnlock>
 800821c:	f7fd f818 	bl	8005250 <test_wait_threads>
 8008220:	69b3      	ldr	r3, [r6, #24]
 8008222:	6899      	ldr	r1, [r3, #8]
 8008224:	1b09      	subs	r1, r1, r4
 8008226:	fab1 f181 	clz	r1, r1
 800822a:	2001      	movs	r0, #1
 800822c:	0949      	lsrs	r1, r1, #5
 800822e:	f7f8 f967 	bl	8000500 <_test_assert>
 8008232:	b108      	cbz	r0, 8008238 <mtx1_execute+0x98>
 8008234:	b002      	add	sp, #8
 8008236:	bd70      	pop	{r4, r5, r6, pc}
 8008238:	4911      	ldr	r1, [pc, #68]	; (8008280 <mtx1_execute+0xe0>)
 800823a:	2002      	movs	r0, #2
 800823c:	b002      	add	sp, #8
 800823e:	e8bd 4070 	ldmia.w	sp!, {r4, r5, r6, lr}
 8008242:	f7f8 b935 	b.w	80004b0 <_test_assert_sequence>
 8008246:	bf00      	nop
 8008248:	20001558 	.word	0x20001558
 800824c:	20000c58 	.word	0x20000c58
 8008250:	2000236c 	.word	0x2000236c
 8008254:	0800a8a4 	.word	0x0800a8a4
 8008258:	080048f1 	.word	0x080048f1
 800825c:	20001c38 	.word	0x20001c38
 8008260:	0800b000 	.word	0x0800b000
 8008264:	20001da0 	.word	0x20001da0
 8008268:	0800a7b8 	.word	0x0800a7b8
 800826c:	20001f08 	.word	0x20001f08
 8008270:	0800a7b4 	.word	0x0800a7b4
 8008274:	20002070 	.word	0x20002070
 8008278:	0800a7b0 	.word	0x0800a7b0
 800827c:	200021d8 	.word	0x200021d8
 8008280:	0800a8a0 	.word	0x0800a8a0
	...

08008290 <sem4_execute>:
 8008290:	b530      	push	{r4, r5, lr}
 8008292:	b087      	sub	sp, #28
 8008294:	ad03      	add	r5, sp, #12
 8008296:	2300      	movs	r3, #0
 8008298:	4628      	mov	r0, r5
 800829a:	9305      	str	r3, [sp, #20]
 800829c:	e9cd 5503 	strd	r5, r5, [sp, #12]
 80082a0:	f7fa f8ce 	bl	8002440 <chSemReset.constprop.71>
 80082a4:	2320      	movs	r3, #32
 80082a6:	f383 8811 	msr	BASEPRI, r3
 80082aa:	f7f9 ffc9 	bl	8002240 <_stats_start_measure_crit_thd>
 80082ae:	f7fa f8b7 	bl	8002420 <_dbg_check_lock>
 80082b2:	f7f8 fb65 	bl	8000980 <chDbgCheckClassI>
 80082b6:	9905      	ldr	r1, [sp, #20]
 80082b8:	2900      	cmp	r1, #0
 80082ba:	bfcc      	ite	gt
 80082bc:	2100      	movgt	r1, #0
 80082be:	2101      	movle	r1, #1
 80082c0:	2001      	movs	r0, #1
 80082c2:	f7f8 f91d 	bl	8000500 <_test_assert>
 80082c6:	b190      	cbz	r0, 80082ee <sem4_execute+0x5e>
 80082c8:	f7f9 ffca 	bl	8002260 <_dbg_check_unlock>
 80082cc:	f7f9 ffb0 	bl	8002230 <_stats_stop_measure_crit_thd>
 80082d0:	4bb6      	ldr	r3, [pc, #728]	; (80085ac <sem4_execute+0x31c>)
 80082d2:	681a      	ldr	r2, [r3, #0]
 80082d4:	429a      	cmp	r2, r3
 80082d6:	d005      	beq.n	80082e4 <sem4_execute+0x54>
 80082d8:	6999      	ldr	r1, [r3, #24]
 80082da:	6892      	ldr	r2, [r2, #8]
 80082dc:	6889      	ldr	r1, [r1, #8]
 80082de:	4291      	cmp	r1, r2
 80082e0:	f0c0 80a1 	bcc.w	8008426 <sem4_execute+0x196>
 80082e4:	2300      	movs	r3, #0
 80082e6:	f383 8811 	msr	BASEPRI, r3
 80082ea:	b007      	add	sp, #28
 80082ec:	bd30      	pop	{r4, r5, pc}
 80082ee:	4caf      	ldr	r4, [pc, #700]	; (80085ac <sem4_execute+0x31c>)
 80082f0:	f7f9 ffb6 	bl	8002260 <_dbg_check_unlock>
 80082f4:	f7f9 ff9c 	bl	8002230 <_stats_stop_measure_crit_thd>
 80082f8:	6823      	ldr	r3, [r4, #0]
 80082fa:	42a3      	cmp	r3, r4
 80082fc:	d005      	beq.n	800830a <sem4_execute+0x7a>
 80082fe:	69a2      	ldr	r2, [r4, #24]
 8008300:	689b      	ldr	r3, [r3, #8]
 8008302:	6892      	ldr	r2, [r2, #8]
 8008304:	429a      	cmp	r2, r3
 8008306:	f0c0 808a 	bcc.w	800841e <sem4_execute+0x18e>
 800830a:	2300      	movs	r3, #0
 800830c:	f383 8811 	msr	BASEPRI, r3
 8008310:	69a2      	ldr	r2, [r4, #24]
 8008312:	4ba7      	ldr	r3, [pc, #668]	; (80085b0 <sem4_execute+0x320>)
 8008314:	6892      	ldr	r2, [r2, #8]
 8008316:	48a7      	ldr	r0, [pc, #668]	; (80085b4 <sem4_execute+0x324>)
 8008318:	9500      	str	r5, [sp, #0]
 800831a:	3a01      	subs	r2, #1
 800831c:	f44f 71b4 	mov.w	r1, #360	; 0x168
 8008320:	f7fe f80e 	bl	8006340 <chThdCreateStatic>
 8008324:	4ba4      	ldr	r3, [pc, #656]	; (80085b8 <sem4_execute+0x328>)
 8008326:	6018      	str	r0, [r3, #0]
 8008328:	4628      	mov	r0, r5
 800832a:	f7fc fd49 	bl	8004dc0 <chSemWait>
 800832e:	2320      	movs	r3, #32
 8008330:	f383 8811 	msr	BASEPRI, r3
 8008334:	f7f9 ff84 	bl	8002240 <_stats_start_measure_crit_thd>
 8008338:	f7fa f872 	bl	8002420 <_dbg_check_lock>
 800833c:	f7f8 fb20 	bl	8000980 <chDbgCheckClassI>
 8008340:	9905      	ldr	r1, [sp, #20]
 8008342:	2900      	cmp	r1, #0
 8008344:	bfcc      	ite	gt
 8008346:	2100      	movgt	r1, #0
 8008348:	2101      	movle	r1, #1
 800834a:	2002      	movs	r0, #2
 800834c:	f7f8 f8d8 	bl	8000500 <_test_assert>
 8008350:	2800      	cmp	r0, #0
 8008352:	d152      	bne.n	80083fa <sem4_execute+0x16a>
 8008354:	f7f9 ff84 	bl	8002260 <_dbg_check_unlock>
 8008358:	f7f9 ff6a 	bl	8002230 <_stats_stop_measure_crit_thd>
 800835c:	6823      	ldr	r3, [r4, #0]
 800835e:	42a3      	cmp	r3, r4
 8008360:	d004      	beq.n	800836c <sem4_execute+0xdc>
 8008362:	69a2      	ldr	r2, [r4, #24]
 8008364:	689b      	ldr	r3, [r3, #8]
 8008366:	6892      	ldr	r2, [r2, #8]
 8008368:	429a      	cmp	r2, r3
 800836a:	d360      	bcc.n	800842e <sem4_execute+0x19e>
 800836c:	2300      	movs	r3, #0
 800836e:	f383 8811 	msr	BASEPRI, r3
 8008372:	2320      	movs	r3, #32
 8008374:	f383 8811 	msr	BASEPRI, r3
 8008378:	f7f9 ff62 	bl	8002240 <_stats_start_measure_crit_thd>
 800837c:	f7fa f850 	bl	8002420 <_dbg_check_lock>
 8008380:	f7f8 fafe 	bl	8000980 <chDbgCheckClassI>
 8008384:	9b05      	ldr	r3, [sp, #20]
 8008386:	2b00      	cmp	r3, #0
 8008388:	f340 8130 	ble.w	80085ec <sem4_execute+0x35c>
 800838c:	f7f9 fd60 	bl	8001e50 <chSchRescheduleS>
 8008390:	f7f9 ff66 	bl	8002260 <_dbg_check_unlock>
 8008394:	f7f9 ff4c 	bl	8002230 <_stats_stop_measure_crit_thd>
 8008398:	6823      	ldr	r3, [r4, #0]
 800839a:	42a3      	cmp	r3, r4
 800839c:	d005      	beq.n	80083aa <sem4_execute+0x11a>
 800839e:	69a2      	ldr	r2, [r4, #24]
 80083a0:	689b      	ldr	r3, [r3, #8]
 80083a2:	6892      	ldr	r2, [r2, #8]
 80083a4:	429a      	cmp	r2, r3
 80083a6:	f0c0 811d 	bcc.w	80085e4 <sem4_execute+0x354>
 80083aa:	2300      	movs	r3, #0
 80083ac:	f383 8811 	msr	BASEPRI, r3
 80083b0:	2320      	movs	r3, #32
 80083b2:	f383 8811 	msr	BASEPRI, r3
 80083b6:	f7f9 ff43 	bl	8002240 <_stats_start_measure_crit_thd>
 80083ba:	f7fa f831 	bl	8002420 <_dbg_check_lock>
 80083be:	f7f8 fadf 	bl	8000980 <chDbgCheckClassI>
 80083c2:	9905      	ldr	r1, [sp, #20]
 80083c4:	2900      	cmp	r1, #0
 80083c6:	bfd4      	ite	le
 80083c8:	2100      	movle	r1, #0
 80083ca:	2101      	movgt	r1, #1
 80083cc:	2003      	movs	r0, #3
 80083ce:	f7f8 f897 	bl	8000500 <_test_assert>
 80083d2:	2800      	cmp	r0, #0
 80083d4:	d02f      	beq.n	8008436 <sem4_execute+0x1a6>
 80083d6:	f7f9 ff43 	bl	8002260 <_dbg_check_unlock>
 80083da:	f7f9 ff29 	bl	8002230 <_stats_stop_measure_crit_thd>
 80083de:	6823      	ldr	r3, [r4, #0]
 80083e0:	42a3      	cmp	r3, r4
 80083e2:	f43f af7f 	beq.w	80082e4 <sem4_execute+0x54>
 80083e6:	69a2      	ldr	r2, [r4, #24]
 80083e8:	689b      	ldr	r3, [r3, #8]
 80083ea:	6892      	ldr	r2, [r2, #8]
 80083ec:	429a      	cmp	r2, r3
 80083ee:	f4bf af79 	bcs.w	80082e4 <sem4_execute+0x54>
 80083f2:	b672      	cpsid	i
 80083f4:	4b71      	ldr	r3, [pc, #452]	; (80085bc <sem4_execute+0x32c>)
 80083f6:	62e3      	str	r3, [r4, #44]	; 0x2c
 80083f8:	e7fe      	b.n	80083f8 <sem4_execute+0x168>
 80083fa:	f7f9 ff31 	bl	8002260 <_dbg_check_unlock>
 80083fe:	f7f9 ff17 	bl	8002230 <_stats_stop_measure_crit_thd>
 8008402:	6823      	ldr	r3, [r4, #0]
 8008404:	42a3      	cmp	r3, r4
 8008406:	f43f af6d 	beq.w	80082e4 <sem4_execute+0x54>
 800840a:	69a2      	ldr	r2, [r4, #24]
 800840c:	689b      	ldr	r3, [r3, #8]
 800840e:	6892      	ldr	r2, [r2, #8]
 8008410:	429a      	cmp	r2, r3
 8008412:	f4bf af67 	bcs.w	80082e4 <sem4_execute+0x54>
 8008416:	b672      	cpsid	i
 8008418:	4b68      	ldr	r3, [pc, #416]	; (80085bc <sem4_execute+0x32c>)
 800841a:	62e3      	str	r3, [r4, #44]	; 0x2c
 800841c:	e7fe      	b.n	800841c <sem4_execute+0x18c>
 800841e:	b672      	cpsid	i
 8008420:	4b66      	ldr	r3, [pc, #408]	; (80085bc <sem4_execute+0x32c>)
 8008422:	62e3      	str	r3, [r4, #44]	; 0x2c
 8008424:	e7fe      	b.n	8008424 <sem4_execute+0x194>
 8008426:	b672      	cpsid	i
 8008428:	4a64      	ldr	r2, [pc, #400]	; (80085bc <sem4_execute+0x32c>)
 800842a:	62da      	str	r2, [r3, #44]	; 0x2c
 800842c:	e7fe      	b.n	800842c <sem4_execute+0x19c>
 800842e:	b672      	cpsid	i
 8008430:	4b62      	ldr	r3, [pc, #392]	; (80085bc <sem4_execute+0x32c>)
 8008432:	62e3      	str	r3, [r4, #44]	; 0x2c
 8008434:	e7fe      	b.n	8008434 <sem4_execute+0x1a4>
 8008436:	f7f9 ff13 	bl	8002260 <_dbg_check_unlock>
 800843a:	f7f9 fef9 	bl	8002230 <_stats_stop_measure_crit_thd>
 800843e:	6823      	ldr	r3, [r4, #0]
 8008440:	42a3      	cmp	r3, r4
 8008442:	d005      	beq.n	8008450 <sem4_execute+0x1c0>
 8008444:	69a2      	ldr	r2, [r4, #24]
 8008446:	689b      	ldr	r3, [r3, #8]
 8008448:	6892      	ldr	r2, [r2, #8]
 800844a:	429a      	cmp	r2, r3
 800844c:	f0c0 80d2 	bcc.w	80085f4 <sem4_execute+0x364>
 8008450:	2300      	movs	r3, #0
 8008452:	f383 8811 	msr	BASEPRI, r3
 8008456:	2320      	movs	r3, #32
 8008458:	f383 8811 	msr	BASEPRI, r3
 800845c:	f7f9 fef0 	bl	8002240 <_stats_start_measure_crit_thd>
 8008460:	f7f9 ffde 	bl	8002420 <_dbg_check_lock>
 8008464:	f7f8 fa8c 	bl	8000980 <chDbgCheckClassI>
 8008468:	9905      	ldr	r1, [sp, #20]
 800846a:	1e4a      	subs	r2, r1, #1
 800846c:	4251      	negs	r1, r2
 800846e:	4151      	adcs	r1, r2
 8008470:	2004      	movs	r0, #4
 8008472:	f7f8 f845 	bl	8000500 <_test_assert>
 8008476:	b188      	cbz	r0, 800849c <sem4_execute+0x20c>
 8008478:	f7f9 fef2 	bl	8002260 <_dbg_check_unlock>
 800847c:	f7f9 fed8 	bl	8002230 <_stats_stop_measure_crit_thd>
 8008480:	6823      	ldr	r3, [r4, #0]
 8008482:	42a3      	cmp	r3, r4
 8008484:	f43f af2e 	beq.w	80082e4 <sem4_execute+0x54>
 8008488:	69a2      	ldr	r2, [r4, #24]
 800848a:	689b      	ldr	r3, [r3, #8]
 800848c:	6892      	ldr	r2, [r2, #8]
 800848e:	429a      	cmp	r2, r3
 8008490:	f4bf af28 	bcs.w	80082e4 <sem4_execute+0x54>
 8008494:	b672      	cpsid	i
 8008496:	4b49      	ldr	r3, [pc, #292]	; (80085bc <sem4_execute+0x32c>)
 8008498:	62e3      	str	r3, [r4, #44]	; 0x2c
 800849a:	e7fe      	b.n	800849a <sem4_execute+0x20a>
 800849c:	f7f9 fee0 	bl	8002260 <_dbg_check_unlock>
 80084a0:	f7f9 fec6 	bl	8002230 <_stats_stop_measure_crit_thd>
 80084a4:	6823      	ldr	r3, [r4, #0]
 80084a6:	42a3      	cmp	r3, r4
 80084a8:	d005      	beq.n	80084b6 <sem4_execute+0x226>
 80084aa:	69a2      	ldr	r2, [r4, #24]
 80084ac:	689b      	ldr	r3, [r3, #8]
 80084ae:	6892      	ldr	r2, [r2, #8]
 80084b0:	429a      	cmp	r2, r3
 80084b2:	f0c0 80a3 	bcc.w	80085fc <sem4_execute+0x36c>
 80084b6:	2300      	movs	r3, #0
 80084b8:	f383 8811 	msr	BASEPRI, r3
 80084bc:	2320      	movs	r3, #32
 80084be:	f383 8811 	msr	BASEPRI, r3
 80084c2:	f7f9 febd 	bl	8002240 <_stats_start_measure_crit_thd>
 80084c6:	f7f9 ffab 	bl	8002420 <_dbg_check_lock>
 80084ca:	f7f8 fa59 	bl	8000980 <chDbgCheckClassI>
 80084ce:	9b05      	ldr	r3, [sp, #20]
 80084d0:	2b00      	cmp	r3, #0
 80084d2:	dc02      	bgt.n	80084da <sem4_execute+0x24a>
 80084d4:	4628      	mov	r0, r5
 80084d6:	f7f8 fc3b 	bl	8000d50 <chSemSignalI>
 80084da:	f7f9 fcb9 	bl	8001e50 <chSchRescheduleS>
 80084de:	f7f9 febf 	bl	8002260 <_dbg_check_unlock>
 80084e2:	f7f9 fea5 	bl	8002230 <_stats_stop_measure_crit_thd>
 80084e6:	6823      	ldr	r3, [r4, #0]
 80084e8:	42a3      	cmp	r3, r4
 80084ea:	d005      	beq.n	80084f8 <sem4_execute+0x268>
 80084ec:	69a2      	ldr	r2, [r4, #24]
 80084ee:	689b      	ldr	r3, [r3, #8]
 80084f0:	6892      	ldr	r2, [r2, #8]
 80084f2:	429a      	cmp	r2, r3
 80084f4:	f0c0 8086 	bcc.w	8008604 <sem4_execute+0x374>
 80084f8:	2300      	movs	r3, #0
 80084fa:	f383 8811 	msr	BASEPRI, r3
 80084fe:	2320      	movs	r3, #32
 8008500:	f383 8811 	msr	BASEPRI, r3
 8008504:	f7f9 fe9c 	bl	8002240 <_stats_start_measure_crit_thd>
 8008508:	f7f9 ff8a 	bl	8002420 <_dbg_check_lock>
 800850c:	f7f8 fa38 	bl	8000980 <chDbgCheckClassI>
 8008510:	9905      	ldr	r1, [sp, #20]
 8008512:	2900      	cmp	r1, #0
 8008514:	bfd4      	ite	le
 8008516:	2100      	movle	r1, #0
 8008518:	2101      	movgt	r1, #1
 800851a:	2003      	movs	r0, #3
 800851c:	f7f7 fff0 	bl	8000500 <_test_assert>
 8008520:	b188      	cbz	r0, 8008546 <sem4_execute+0x2b6>
 8008522:	f7f9 fe9d 	bl	8002260 <_dbg_check_unlock>
 8008526:	f7f9 fe83 	bl	8002230 <_stats_stop_measure_crit_thd>
 800852a:	6823      	ldr	r3, [r4, #0]
 800852c:	42a3      	cmp	r3, r4
 800852e:	f43f aed9 	beq.w	80082e4 <sem4_execute+0x54>
 8008532:	69a2      	ldr	r2, [r4, #24]
 8008534:	689b      	ldr	r3, [r3, #8]
 8008536:	6892      	ldr	r2, [r2, #8]
 8008538:	429a      	cmp	r2, r3
 800853a:	f4bf aed3 	bcs.w	80082e4 <sem4_execute+0x54>
 800853e:	b672      	cpsid	i
 8008540:	4b1e      	ldr	r3, [pc, #120]	; (80085bc <sem4_execute+0x32c>)
 8008542:	62e3      	str	r3, [r4, #44]	; 0x2c
 8008544:	e7fe      	b.n	8008544 <sem4_execute+0x2b4>
 8008546:	f7f9 fe8b 	bl	8002260 <_dbg_check_unlock>
 800854a:	f7f9 fe71 	bl	8002230 <_stats_stop_measure_crit_thd>
 800854e:	6823      	ldr	r3, [r4, #0]
 8008550:	42a3      	cmp	r3, r4
 8008552:	d004      	beq.n	800855e <sem4_execute+0x2ce>
 8008554:	69a2      	ldr	r2, [r4, #24]
 8008556:	689b      	ldr	r3, [r3, #8]
 8008558:	6892      	ldr	r2, [r2, #8]
 800855a:	429a      	cmp	r2, r3
 800855c:	d356      	bcc.n	800860c <sem4_execute+0x37c>
 800855e:	2300      	movs	r3, #0
 8008560:	f383 8811 	msr	BASEPRI, r3
 8008564:	2320      	movs	r3, #32
 8008566:	f383 8811 	msr	BASEPRI, r3
 800856a:	f7f9 fe69 	bl	8002240 <_stats_start_measure_crit_thd>
 800856e:	f7f9 ff57 	bl	8002420 <_dbg_check_lock>
 8008572:	f7f8 fa05 	bl	8000980 <chDbgCheckClassI>
 8008576:	9905      	ldr	r1, [sp, #20]
 8008578:	1e4b      	subs	r3, r1, #1
 800857a:	4259      	negs	r1, r3
 800857c:	4159      	adcs	r1, r3
 800857e:	2005      	movs	r0, #5
 8008580:	f7f7 ffbe 	bl	8000500 <_test_assert>
 8008584:	b1e0      	cbz	r0, 80085c0 <sem4_execute+0x330>
 8008586:	f7f9 fe6b 	bl	8002260 <_dbg_check_unlock>
 800858a:	f7f9 fe51 	bl	8002230 <_stats_stop_measure_crit_thd>
 800858e:	6823      	ldr	r3, [r4, #0]
 8008590:	42a3      	cmp	r3, r4
 8008592:	f43f aea7 	beq.w	80082e4 <sem4_execute+0x54>
 8008596:	69a2      	ldr	r2, [r4, #24]
 8008598:	689b      	ldr	r3, [r3, #8]
 800859a:	6892      	ldr	r2, [r2, #8]
 800859c:	429a      	cmp	r2, r3
 800859e:	f4bf aea1 	bcs.w	80082e4 <sem4_execute+0x54>
 80085a2:	b672      	cpsid	i
 80085a4:	4b05      	ldr	r3, [pc, #20]	; (80085bc <sem4_execute+0x32c>)
 80085a6:	62e3      	str	r3, [r4, #44]	; 0x2c
 80085a8:	e7fe      	b.n	80085a8 <sem4_execute+0x318>
 80085aa:	bf00      	nop
 80085ac:	20001558 	.word	0x20001558
 80085b0:	08003241 	.word	0x08003241
 80085b4:	20001c38 	.word	0x20001c38
 80085b8:	2000236c 	.word	0x2000236c
 80085bc:	08009e60 	.word	0x08009e60
 80085c0:	f7f9 fe4e 	bl	8002260 <_dbg_check_unlock>
 80085c4:	f7f9 fe34 	bl	8002230 <_stats_stop_measure_crit_thd>
 80085c8:	6823      	ldr	r3, [r4, #0]
 80085ca:	42a3      	cmp	r3, r4
 80085cc:	f43f ae8a 	beq.w	80082e4 <sem4_execute+0x54>
 80085d0:	69a2      	ldr	r2, [r4, #24]
 80085d2:	689b      	ldr	r3, [r3, #8]
 80085d4:	6892      	ldr	r2, [r2, #8]
 80085d6:	429a      	cmp	r2, r3
 80085d8:	f4bf ae84 	bcs.w	80082e4 <sem4_execute+0x54>
 80085dc:	b672      	cpsid	i
 80085de:	4b0d      	ldr	r3, [pc, #52]	; (8008614 <sem4_execute+0x384>)
 80085e0:	62e3      	str	r3, [r4, #44]	; 0x2c
 80085e2:	e7fe      	b.n	80085e2 <sem4_execute+0x352>
 80085e4:	b672      	cpsid	i
 80085e6:	4b0b      	ldr	r3, [pc, #44]	; (8008614 <sem4_execute+0x384>)
 80085e8:	62e3      	str	r3, [r4, #44]	; 0x2c
 80085ea:	e7fe      	b.n	80085ea <sem4_execute+0x35a>
 80085ec:	4628      	mov	r0, r5
 80085ee:	f7f8 fbaf 	bl	8000d50 <chSemSignalI>
 80085f2:	e6cb      	b.n	800838c <sem4_execute+0xfc>
 80085f4:	b672      	cpsid	i
 80085f6:	4b07      	ldr	r3, [pc, #28]	; (8008614 <sem4_execute+0x384>)
 80085f8:	62e3      	str	r3, [r4, #44]	; 0x2c
 80085fa:	e7fe      	b.n	80085fa <sem4_execute+0x36a>
 80085fc:	b672      	cpsid	i
 80085fe:	4b05      	ldr	r3, [pc, #20]	; (8008614 <sem4_execute+0x384>)
 8008600:	62e3      	str	r3, [r4, #44]	; 0x2c
 8008602:	e7fe      	b.n	8008602 <sem4_execute+0x372>
 8008604:	b672      	cpsid	i
 8008606:	4b03      	ldr	r3, [pc, #12]	; (8008614 <sem4_execute+0x384>)
 8008608:	62e3      	str	r3, [r4, #44]	; 0x2c
 800860a:	e7fe      	b.n	800860a <sem4_execute+0x37a>
 800860c:	b672      	cpsid	i
 800860e:	4b01      	ldr	r3, [pc, #4]	; (8008614 <sem4_execute+0x384>)
 8008610:	62e3      	str	r3, [r4, #44]	; 0x2c
 8008612:	e7fe      	b.n	8008612 <sem4_execute+0x382>
 8008614:	08009e60 	.word	0x08009e60
	...

08008620 <sem3_execute>:
 8008620:	b510      	push	{r4, lr}
 8008622:	4a1e      	ldr	r2, [pc, #120]	; (800869c <sem3_execute+0x7c>)
 8008624:	4b1e      	ldr	r3, [pc, #120]	; (80086a0 <sem3_execute+0x80>)
 8008626:	6992      	ldr	r2, [r2, #24]
 8008628:	481e      	ldr	r0, [pc, #120]	; (80086a4 <sem3_execute+0x84>)
 800862a:	6892      	ldr	r2, [r2, #8]
 800862c:	4c1e      	ldr	r4, [pc, #120]	; (80086a8 <sem3_execute+0x88>)
 800862e:	b082      	sub	sp, #8
 8008630:	2100      	movs	r1, #0
 8008632:	3201      	adds	r2, #1
 8008634:	9100      	str	r1, [sp, #0]
 8008636:	f44f 71b4 	mov.w	r1, #360	; 0x168
 800863a:	f7fd fe81 	bl	8006340 <chThdCreateStatic>
 800863e:	4b1b      	ldr	r3, [pc, #108]	; (80086ac <sem3_execute+0x8c>)
 8008640:	6018      	str	r0, [r3, #0]
 8008642:	f7f9 ff55 	bl	80024f0 <chSemSignalWait.constprop.68>
 8008646:	6821      	ldr	r1, [r4, #0]
 8008648:	1b09      	subs	r1, r1, r4
 800864a:	fab1 f181 	clz	r1, r1
 800864e:	2001      	movs	r0, #1
 8008650:	0949      	lsrs	r1, r1, #5
 8008652:	f7f7 ff55 	bl	8000500 <_test_assert>
 8008656:	b108      	cbz	r0, 800865c <sem3_execute+0x3c>
 8008658:	b002      	add	sp, #8
 800865a:	bd10      	pop	{r4, pc}
 800865c:	68a1      	ldr	r1, [r4, #8]
 800865e:	fab1 f181 	clz	r1, r1
 8008662:	0949      	lsrs	r1, r1, #5
 8008664:	2002      	movs	r0, #2
 8008666:	f7f7 ff4b 	bl	8000500 <_test_assert>
 800866a:	2800      	cmp	r0, #0
 800866c:	d1f4      	bne.n	8008658 <sem3_execute+0x38>
 800866e:	f7f9 ff3f 	bl	80024f0 <chSemSignalWait.constprop.68>
 8008672:	6821      	ldr	r1, [r4, #0]
 8008674:	1b09      	subs	r1, r1, r4
 8008676:	fab1 f181 	clz	r1, r1
 800867a:	2003      	movs	r0, #3
 800867c:	0949      	lsrs	r1, r1, #5
 800867e:	f7f7 ff3f 	bl	8000500 <_test_assert>
 8008682:	2800      	cmp	r0, #0
 8008684:	d1e8      	bne.n	8008658 <sem3_execute+0x38>
 8008686:	68a1      	ldr	r1, [r4, #8]
 8008688:	fab1 f181 	clz	r1, r1
 800868c:	0949      	lsrs	r1, r1, #5
 800868e:	2004      	movs	r0, #4
 8008690:	b002      	add	sp, #8
 8008692:	e8bd 4010 	ldmia.w	sp!, {r4, lr}
 8008696:	f7f7 bf33 	b.w	8000500 <_test_assert>
 800869a:	bf00      	nop
 800869c:	20001558 	.word	0x20001558
 80086a0:	08004e81 	.word	0x08004e81
 80086a4:	20001c38 	.word	0x20001c38
 80086a8:	20000cd0 	.word	0x20000cd0
 80086ac:	2000236c 	.word	0x2000236c

080086b0 <sem2_execute>:
 80086b0:	b570      	push	{r4, r5, r6, lr}
 80086b2:	2000      	movs	r0, #0
 80086b4:	b082      	sub	sp, #8
 80086b6:	f7f9 feeb 	bl	8002490 <chSemWaitTimeout.constprop.70>
 80086ba:	f1a0 31ff 	sub.w	r1, r0, #4294967295	; 0xffffffff
 80086be:	fab1 f181 	clz	r1, r1
 80086c2:	0949      	lsrs	r1, r1, #5
 80086c4:	2001      	movs	r0, #1
 80086c6:	f7f7 ff1b 	bl	8000500 <_test_assert>
 80086ca:	b108      	cbz	r0, 80086d0 <sem2_execute+0x20>
 80086cc:	b002      	add	sp, #8
 80086ce:	bd70      	pop	{r4, r5, r6, pc}
 80086d0:	4c4e      	ldr	r4, [pc, #312]	; (800880c <sem2_execute+0x15c>)
 80086d2:	6821      	ldr	r1, [r4, #0]
 80086d4:	1b09      	subs	r1, r1, r4
 80086d6:	fab1 f181 	clz	r1, r1
 80086da:	2002      	movs	r0, #2
 80086dc:	0949      	lsrs	r1, r1, #5
 80086de:	f7f7 ff0f 	bl	8000500 <_test_assert>
 80086e2:	2800      	cmp	r0, #0
 80086e4:	d1f2      	bne.n	80086cc <sem2_execute+0x1c>
 80086e6:	68a1      	ldr	r1, [r4, #8]
 80086e8:	fab1 f181 	clz	r1, r1
 80086ec:	0949      	lsrs	r1, r1, #5
 80086ee:	2003      	movs	r0, #3
 80086f0:	f7f7 ff06 	bl	8000500 <_test_assert>
 80086f4:	4601      	mov	r1, r0
 80086f6:	2800      	cmp	r0, #0
 80086f8:	d1e8      	bne.n	80086cc <sem2_execute+0x1c>
 80086fa:	4d45      	ldr	r5, [pc, #276]	; (8008810 <sem2_execute+0x160>)
 80086fc:	4b45      	ldr	r3, [pc, #276]	; (8008814 <sem2_execute+0x164>)
 80086fe:	69aa      	ldr	r2, [r5, #24]
 8008700:	4845      	ldr	r0, [pc, #276]	; (8008818 <sem2_execute+0x168>)
 8008702:	6892      	ldr	r2, [r2, #8]
 8008704:	9100      	str	r1, [sp, #0]
 8008706:	3a01      	subs	r2, #1
 8008708:	f44f 71b4 	mov.w	r1, #360	; 0x168
 800870c:	f7fd fe18 	bl	8006340 <chThdCreateStatic>
 8008710:	4b42      	ldr	r3, [pc, #264]	; (800881c <sem2_execute+0x16c>)
 8008712:	6018      	str	r0, [r3, #0]
 8008714:	f241 3088 	movw	r0, #5000	; 0x1388
 8008718:	f7f9 feba 	bl	8002490 <chSemWaitTimeout.constprop.70>
 800871c:	4606      	mov	r6, r0
 800871e:	f7fc fd97 	bl	8005250 <test_wait_threads>
 8008722:	fab6 f186 	clz	r1, r6
 8008726:	0949      	lsrs	r1, r1, #5
 8008728:	2004      	movs	r0, #4
 800872a:	f7f7 fee9 	bl	8000500 <_test_assert>
 800872e:	2800      	cmp	r0, #0
 8008730:	d1cc      	bne.n	80086cc <sem2_execute+0x1c>
 8008732:	6821      	ldr	r1, [r4, #0]
 8008734:	1b09      	subs	r1, r1, r4
 8008736:	fab1 f181 	clz	r1, r1
 800873a:	2005      	movs	r0, #5
 800873c:	0949      	lsrs	r1, r1, #5
 800873e:	f7f7 fedf 	bl	8000500 <_test_assert>
 8008742:	2800      	cmp	r0, #0
 8008744:	d1c2      	bne.n	80086cc <sem2_execute+0x1c>
 8008746:	68a1      	ldr	r1, [r4, #8]
 8008748:	fab1 f181 	clz	r1, r1
 800874c:	0949      	lsrs	r1, r1, #5
 800874e:	2006      	movs	r0, #6
 8008750:	f7f7 fed6 	bl	8000500 <_test_assert>
 8008754:	2800      	cmp	r0, #0
 8008756:	d1b9      	bne.n	80086cc <sem2_execute+0x1c>
 8008758:	f7fd fa92 	bl	8005c80 <test_wait_tick>
 800875c:	2320      	movs	r3, #32
 800875e:	f383 8811 	msr	BASEPRI, r3
 8008762:	f7f9 fd6d 	bl	8002240 <_stats_start_measure_crit_thd>
 8008766:	f7f9 fe5b 	bl	8002420 <_dbg_check_lock>
 800876a:	f04f 4380 	mov.w	r3, #1073741824	; 0x40000000
 800876e:	6a5e      	ldr	r6, [r3, #36]	; 0x24
 8008770:	f7f9 fd76 	bl	8002260 <_dbg_check_unlock>
 8008774:	f7f9 fd5c 	bl	8002230 <_stats_stop_measure_crit_thd>
 8008778:	682b      	ldr	r3, [r5, #0]
 800877a:	42ab      	cmp	r3, r5
 800877c:	d004      	beq.n	8008788 <sem2_execute+0xd8>
 800877e:	69aa      	ldr	r2, [r5, #24]
 8008780:	689b      	ldr	r3, [r3, #8]
 8008782:	6892      	ldr	r2, [r2, #8]
 8008784:	429a      	cmp	r2, r3
 8008786:	d33d      	bcc.n	8008804 <sem2_execute+0x154>
 8008788:	2300      	movs	r3, #0
 800878a:	f383 8811 	msr	BASEPRI, r3
 800878e:	2541      	movs	r5, #65	; 0x41
 8008790:	4628      	mov	r0, r5
 8008792:	f7fa fdfd 	bl	8003390 <test_emit_token>
 8008796:	f44f 70fa 	mov.w	r0, #500	; 0x1f4
 800879a:	f7f9 fe79 	bl	8002490 <chSemWaitTimeout.constprop.70>
 800879e:	f1a0 31ff 	sub.w	r1, r0, #4294967295	; 0xffffffff
 80087a2:	fab1 f181 	clz	r1, r1
 80087a6:	0949      	lsrs	r1, r1, #5
 80087a8:	2007      	movs	r0, #7
 80087aa:	f7f7 fea9 	bl	8000500 <_test_assert>
 80087ae:	2800      	cmp	r0, #0
 80087b0:	d18c      	bne.n	80086cc <sem2_execute+0x1c>
 80087b2:	6821      	ldr	r1, [r4, #0]
 80087b4:	1b09      	subs	r1, r1, r4
 80087b6:	fab1 f181 	clz	r1, r1
 80087ba:	2008      	movs	r0, #8
 80087bc:	0949      	lsrs	r1, r1, #5
 80087be:	f7f7 fe9f 	bl	8000500 <_test_assert>
 80087c2:	2800      	cmp	r0, #0
 80087c4:	d182      	bne.n	80086cc <sem2_execute+0x1c>
 80087c6:	68a1      	ldr	r1, [r4, #8]
 80087c8:	fab1 f181 	clz	r1, r1
 80087cc:	0949      	lsrs	r1, r1, #5
 80087ce:	2009      	movs	r0, #9
 80087d0:	f7f7 fe96 	bl	8000500 <_test_assert>
 80087d4:	3501      	adds	r5, #1
 80087d6:	b2ed      	uxtb	r5, r5
 80087d8:	2800      	cmp	r0, #0
 80087da:	f47f af77 	bne.w	80086cc <sem2_execute+0x1c>
 80087de:	2d46      	cmp	r5, #70	; 0x46
 80087e0:	d1d6      	bne.n	8008790 <sem2_execute+0xe0>
 80087e2:	490f      	ldr	r1, [pc, #60]	; (8008820 <sem2_execute+0x170>)
 80087e4:	200a      	movs	r0, #10
 80087e6:	f7f7 fe63 	bl	80004b0 <_test_assert_sequence>
 80087ea:	2800      	cmp	r0, #0
 80087ec:	f47f af6e 	bne.w	80086cc <sem2_execute+0x1c>
 80087f0:	f606 12d8 	addw	r2, r6, #2520	; 0x9d8
 80087f4:	f606 11c4 	addw	r1, r6, #2500	; 0x9c4
 80087f8:	200b      	movs	r0, #11
 80087fa:	b002      	add	sp, #8
 80087fc:	e8bd 4070 	ldmia.w	sp!, {r4, r5, r6, lr}
 8008800:	f7fa bd86 	b.w	8003310 <_test_assert_time_window>
 8008804:	b672      	cpsid	i
 8008806:	4b07      	ldr	r3, [pc, #28]	; (8008824 <sem2_execute+0x174>)
 8008808:	62eb      	str	r3, [r5, #44]	; 0x2c
 800880a:	e7fe      	b.n	800880a <sem2_execute+0x15a>
 800880c:	20000cd0 	.word	0x20000cd0
 8008810:	20001558 	.word	0x20001558
 8008814:	08005c21 	.word	0x08005c21
 8008818:	20001c38 	.word	0x20001c38
 800881c:	2000236c 	.word	0x2000236c
 8008820:	0800a8a0 	.word	0x0800a8a0
 8008824:	08009e60 	.word	0x08009e60
	...

08008830 <sem1_execute>:
 8008830:	b5f0      	push	{r4, r5, r6, r7, lr}
 8008832:	4d70      	ldr	r5, [pc, #448]	; (80089f4 <sem1_execute+0x1c4>)
 8008834:	4f70      	ldr	r7, [pc, #448]	; (80089f8 <sem1_execute+0x1c8>)
 8008836:	69aa      	ldr	r2, [r5, #24]
 8008838:	4b70      	ldr	r3, [pc, #448]	; (80089fc <sem1_execute+0x1cc>)
 800883a:	6892      	ldr	r2, [r2, #8]
 800883c:	4870      	ldr	r0, [pc, #448]	; (8008a00 <sem1_execute+0x1d0>)
 800883e:	4e71      	ldr	r6, [pc, #452]	; (8008a04 <sem1_execute+0x1d4>)
 8008840:	4c71      	ldr	r4, [pc, #452]	; (8008a08 <sem1_execute+0x1d8>)
 8008842:	b083      	sub	sp, #12
 8008844:	3205      	adds	r2, #5
 8008846:	f44f 71b4 	mov.w	r1, #360	; 0x168
 800884a:	9700      	str	r7, [sp, #0]
 800884c:	f7fd fd78 	bl	8006340 <chThdCreateStatic>
 8008850:	69ab      	ldr	r3, [r5, #24]
 8008852:	689a      	ldr	r2, [r3, #8]
 8008854:	4b6d      	ldr	r3, [pc, #436]	; (8008a0c <sem1_execute+0x1dc>)
 8008856:	6030      	str	r0, [r6, #0]
 8008858:	3201      	adds	r2, #1
 800885a:	9300      	str	r3, [sp, #0]
 800885c:	f44f 71b4 	mov.w	r1, #360	; 0x168
 8008860:	4b66      	ldr	r3, [pc, #408]	; (80089fc <sem1_execute+0x1cc>)
 8008862:	486b      	ldr	r0, [pc, #428]	; (8008a10 <sem1_execute+0x1e0>)
 8008864:	f7fd fd6c 	bl	8006340 <chThdCreateStatic>
 8008868:	69aa      	ldr	r2, [r5, #24]
 800886a:	4b6a      	ldr	r3, [pc, #424]	; (8008a14 <sem1_execute+0x1e4>)
 800886c:	6892      	ldr	r2, [r2, #8]
 800886e:	6070      	str	r0, [r6, #4]
 8008870:	3203      	adds	r2, #3
 8008872:	9300      	str	r3, [sp, #0]
 8008874:	f44f 71b4 	mov.w	r1, #360	; 0x168
 8008878:	4b60      	ldr	r3, [pc, #384]	; (80089fc <sem1_execute+0x1cc>)
 800887a:	4867      	ldr	r0, [pc, #412]	; (8008a18 <sem1_execute+0x1e8>)
 800887c:	f7fd fd60 	bl	8006340 <chThdCreateStatic>
 8008880:	69aa      	ldr	r2, [r5, #24]
 8008882:	4b66      	ldr	r3, [pc, #408]	; (8008a1c <sem1_execute+0x1ec>)
 8008884:	6892      	ldr	r2, [r2, #8]
 8008886:	60b0      	str	r0, [r6, #8]
 8008888:	3204      	adds	r2, #4
 800888a:	9300      	str	r3, [sp, #0]
 800888c:	f44f 71b4 	mov.w	r1, #360	; 0x168
 8008890:	4b5a      	ldr	r3, [pc, #360]	; (80089fc <sem1_execute+0x1cc>)
 8008892:	4863      	ldr	r0, [pc, #396]	; (8008a20 <sem1_execute+0x1f0>)
 8008894:	f7fd fd54 	bl	8006340 <chThdCreateStatic>
 8008898:	69aa      	ldr	r2, [r5, #24]
 800889a:	4b62      	ldr	r3, [pc, #392]	; (8008a24 <sem1_execute+0x1f4>)
 800889c:	6892      	ldr	r2, [r2, #8]
 800889e:	60f0      	str	r0, [r6, #12]
 80088a0:	f44f 71b4 	mov.w	r1, #360	; 0x168
 80088a4:	3202      	adds	r2, #2
 80088a6:	9300      	str	r3, [sp, #0]
 80088a8:	485f      	ldr	r0, [pc, #380]	; (8008a28 <sem1_execute+0x1f8>)
 80088aa:	4b54      	ldr	r3, [pc, #336]	; (80089fc <sem1_execute+0x1cc>)
 80088ac:	f7fd fd48 	bl	8006340 <chThdCreateStatic>
 80088b0:	6130      	str	r0, [r6, #16]
 80088b2:	4620      	mov	r0, r4
 80088b4:	f7fc fa44 	bl	8004d40 <chSemSignal>
 80088b8:	4620      	mov	r0, r4
 80088ba:	f7fc fa41 	bl	8004d40 <chSemSignal>
 80088be:	4620      	mov	r0, r4
 80088c0:	f7fc fa3e 	bl	8004d40 <chSemSignal>
 80088c4:	4620      	mov	r0, r4
 80088c6:	f7fc fa3b 	bl	8004d40 <chSemSignal>
 80088ca:	4620      	mov	r0, r4
 80088cc:	f7fc fa38 	bl	8004d40 <chSemSignal>
 80088d0:	f7fc fcbe 	bl	8005250 <test_wait_threads>
 80088d4:	4955      	ldr	r1, [pc, #340]	; (8008a2c <sem1_execute+0x1fc>)
 80088d6:	2001      	movs	r0, #1
 80088d8:	f7f7 fdea 	bl	80004b0 <_test_assert_sequence>
 80088dc:	b108      	cbz	r0, 80088e2 <sem1_execute+0xb2>
 80088de:	b003      	add	sp, #12
 80088e0:	bdf0      	pop	{r4, r5, r6, r7, pc}
 80088e2:	69aa      	ldr	r2, [r5, #24]
 80088e4:	4b45      	ldr	r3, [pc, #276]	; (80089fc <sem1_execute+0x1cc>)
 80088e6:	6892      	ldr	r2, [r2, #8]
 80088e8:	4845      	ldr	r0, [pc, #276]	; (8008a00 <sem1_execute+0x1d0>)
 80088ea:	9700      	str	r7, [sp, #0]
 80088ec:	3205      	adds	r2, #5
 80088ee:	f44f 71b4 	mov.w	r1, #360	; 0x168
 80088f2:	f7fd fd25 	bl	8006340 <chThdCreateStatic>
 80088f6:	2320      	movs	r3, #32
 80088f8:	6030      	str	r0, [r6, #0]
 80088fa:	f383 8811 	msr	BASEPRI, r3
 80088fe:	f7f9 fc9f 	bl	8002240 <_stats_start_measure_crit_thd>
 8008902:	f7f9 fd8d 	bl	8002420 <_dbg_check_lock>
 8008906:	f7f8 f83b 	bl	8000980 <chDbgCheckClassI>
 800890a:	68a3      	ldr	r3, [r4, #8]
 800890c:	6822      	ldr	r2, [r4, #0]
 800890e:	2b00      	cmp	r3, #0
 8008910:	db05      	blt.n	800891e <sem1_execute+0xee>
 8008912:	42a2      	cmp	r2, r4
 8008914:	d005      	beq.n	8008922 <sem1_execute+0xf2>
 8008916:	b672      	cpsid	i
 8008918:	4b45      	ldr	r3, [pc, #276]	; (8008a30 <sem1_execute+0x200>)
 800891a:	62eb      	str	r3, [r5, #44]	; 0x2c
 800891c:	e7fe      	b.n	800891c <sem1_execute+0xec>
 800891e:	42a2      	cmp	r2, r4
 8008920:	d0f9      	beq.n	8008916 <sem1_execute+0xe6>
 8008922:	3301      	adds	r3, #1
 8008924:	2b00      	cmp	r3, #0
 8008926:	60a3      	str	r3, [r4, #8]
 8008928:	dd3a      	ble.n	80089a0 <sem1_execute+0x170>
 800892a:	68a3      	ldr	r3, [r4, #8]
 800892c:	3301      	adds	r3, #1
 800892e:	2b00      	cmp	r3, #0
 8008930:	60a3      	str	r3, [r4, #8]
 8008932:	dd56      	ble.n	80089e2 <sem1_execute+0x1b2>
 8008934:	f7f9 fa8c 	bl	8001e50 <chSchRescheduleS>
 8008938:	f7f9 fc92 	bl	8002260 <_dbg_check_unlock>
 800893c:	f7f9 fc78 	bl	8002230 <_stats_stop_measure_crit_thd>
 8008940:	682b      	ldr	r3, [r5, #0]
 8008942:	42ab      	cmp	r3, r5
 8008944:	d004      	beq.n	8008950 <sem1_execute+0x120>
 8008946:	69aa      	ldr	r2, [r5, #24]
 8008948:	689b      	ldr	r3, [r3, #8]
 800894a:	6892      	ldr	r2, [r2, #8]
 800894c:	429a      	cmp	r2, r3
 800894e:	d344      	bcc.n	80089da <sem1_execute+0x1aa>
 8008950:	2300      	movs	r3, #0
 8008952:	f383 8811 	msr	BASEPRI, r3
 8008956:	f7fc fc7b 	bl	8005250 <test_wait_threads>
 800895a:	2320      	movs	r3, #32
 800895c:	f383 8811 	msr	BASEPRI, r3
 8008960:	f7f9 fc6e 	bl	8002240 <_stats_start_measure_crit_thd>
 8008964:	f7f9 fd5c 	bl	8002420 <_dbg_check_lock>
 8008968:	f7f8 f80a 	bl	8000980 <chDbgCheckClassI>
 800896c:	68a1      	ldr	r1, [r4, #8]
 800896e:	f1a1 0101 	sub.w	r1, r1, #1
 8008972:	fab1 f181 	clz	r1, r1
 8008976:	2002      	movs	r0, #2
 8008978:	0949      	lsrs	r1, r1, #5
 800897a:	f7f7 fdc1 	bl	8000500 <_test_assert>
 800897e:	b9e0      	cbnz	r0, 80089ba <sem1_execute+0x18a>
 8008980:	f7f9 fc6e 	bl	8002260 <_dbg_check_unlock>
 8008984:	f7f9 fc54 	bl	8002230 <_stats_stop_measure_crit_thd>
 8008988:	682b      	ldr	r3, [r5, #0]
 800898a:	42ab      	cmp	r3, r5
 800898c:	d011      	beq.n	80089b2 <sem1_execute+0x182>
 800898e:	69aa      	ldr	r2, [r5, #24]
 8008990:	689b      	ldr	r3, [r3, #8]
 8008992:	6892      	ldr	r2, [r2, #8]
 8008994:	429a      	cmp	r2, r3
 8008996:	d20c      	bcs.n	80089b2 <sem1_execute+0x182>
 8008998:	b672      	cpsid	i
 800899a:	4b26      	ldr	r3, [pc, #152]	; (8008a34 <sem1_execute+0x204>)
 800899c:	62eb      	str	r3, [r5, #44]	; 0x2c
 800899e:	e7fe      	b.n	800899e <sem1_execute+0x16e>
 80089a0:	6820      	ldr	r0, [r4, #0]
 80089a2:	6803      	ldr	r3, [r0, #0]
 80089a4:	6023      	str	r3, [r4, #0]
 80089a6:	605c      	str	r4, [r3, #4]
 80089a8:	f7f8 f8aa 	bl	8000b00 <chSchReadyI>
 80089ac:	2300      	movs	r3, #0
 80089ae:	6243      	str	r3, [r0, #36]	; 0x24
 80089b0:	e7bb      	b.n	800892a <sem1_execute+0xfa>
 80089b2:	2300      	movs	r3, #0
 80089b4:	f383 8811 	msr	BASEPRI, r3
 80089b8:	e791      	b.n	80088de <sem1_execute+0xae>
 80089ba:	f7f9 fc51 	bl	8002260 <_dbg_check_unlock>
 80089be:	f7f9 fc37 	bl	8002230 <_stats_stop_measure_crit_thd>
 80089c2:	682b      	ldr	r3, [r5, #0]
 80089c4:	42ab      	cmp	r3, r5
 80089c6:	d0f4      	beq.n	80089b2 <sem1_execute+0x182>
 80089c8:	69aa      	ldr	r2, [r5, #24]
 80089ca:	689b      	ldr	r3, [r3, #8]
 80089cc:	6892      	ldr	r2, [r2, #8]
 80089ce:	429a      	cmp	r2, r3
 80089d0:	d2ef      	bcs.n	80089b2 <sem1_execute+0x182>
 80089d2:	b672      	cpsid	i
 80089d4:	4b17      	ldr	r3, [pc, #92]	; (8008a34 <sem1_execute+0x204>)
 80089d6:	62eb      	str	r3, [r5, #44]	; 0x2c
 80089d8:	e7fe      	b.n	80089d8 <sem1_execute+0x1a8>
 80089da:	b672      	cpsid	i
 80089dc:	4b15      	ldr	r3, [pc, #84]	; (8008a34 <sem1_execute+0x204>)
 80089de:	62eb      	str	r3, [r5, #44]	; 0x2c
 80089e0:	e7fe      	b.n	80089e0 <sem1_execute+0x1b0>
 80089e2:	6820      	ldr	r0, [r4, #0]
 80089e4:	6803      	ldr	r3, [r0, #0]
 80089e6:	6023      	str	r3, [r4, #0]
 80089e8:	605c      	str	r4, [r3, #4]
 80089ea:	f7f8 f889 	bl	8000b00 <chSchReadyI>
 80089ee:	2300      	movs	r3, #0
 80089f0:	6243      	str	r3, [r0, #36]	; 0x24
 80089f2:	e79f      	b.n	8008934 <sem1_execute+0x104>
 80089f4:	20001558 	.word	0x20001558
 80089f8:	0800a7b0 	.word	0x0800a7b0
 80089fc:	08004ea1 	.word	0x08004ea1
 8008a00:	20001c38 	.word	0x20001c38
 8008a04:	2000236c 	.word	0x2000236c
 8008a08:	20000cd0 	.word	0x20000cd0
 8008a0c:	0800a7b4 	.word	0x0800a7b4
 8008a10:	20001da0 	.word	0x20001da0
 8008a14:	0800a7b8 	.word	0x0800a7b8
 8008a18:	20001f08 	.word	0x20001f08
 8008a1c:	0800b000 	.word	0x0800b000
 8008a20:	20002070 	.word	0x20002070
 8008a24:	0800a8a4 	.word	0x0800a8a4
 8008a28:	200021d8 	.word	0x200021d8
 8008a2c:	0800a8a0 	.word	0x0800a8a0
 8008a30:	0800a0f0 	.word	0x0800a0f0
 8008a34:	08009e60 	.word	0x08009e60
	...

08008a40 <thd2_execute>:
 8008a40:	b530      	push	{r4, r5, lr}
 8008a42:	4c44      	ldr	r4, [pc, #272]	; (8008b54 <thd2_execute+0x114>)
 8008a44:	4944      	ldr	r1, [pc, #272]	; (8008b58 <thd2_execute+0x118>)
 8008a46:	69a2      	ldr	r2, [r4, #24]
 8008a48:	4b44      	ldr	r3, [pc, #272]	; (8008b5c <thd2_execute+0x11c>)
 8008a4a:	6892      	ldr	r2, [r2, #8]
 8008a4c:	4844      	ldr	r0, [pc, #272]	; (8008b60 <thd2_execute+0x120>)
 8008a4e:	4d45      	ldr	r5, [pc, #276]	; (8008b64 <thd2_execute+0x124>)
 8008a50:	b083      	sub	sp, #12
 8008a52:	3a04      	subs	r2, #4
 8008a54:	9100      	str	r1, [sp, #0]
 8008a56:	f44f 71b4 	mov.w	r1, #360	; 0x168
 8008a5a:	f7fd fc71 	bl	8006340 <chThdCreateStatic>
 8008a5e:	69a3      	ldr	r3, [r4, #24]
 8008a60:	689a      	ldr	r2, [r3, #8]
 8008a62:	4b41      	ldr	r3, [pc, #260]	; (8008b68 <thd2_execute+0x128>)
 8008a64:	6068      	str	r0, [r5, #4]
 8008a66:	9300      	str	r3, [sp, #0]
 8008a68:	3a05      	subs	r2, #5
 8008a6a:	4b3c      	ldr	r3, [pc, #240]	; (8008b5c <thd2_execute+0x11c>)
 8008a6c:	483f      	ldr	r0, [pc, #252]	; (8008b6c <thd2_execute+0x12c>)
 8008a6e:	f44f 71b4 	mov.w	r1, #360	; 0x168
 8008a72:	f7fd fc65 	bl	8006340 <chThdCreateStatic>
 8008a76:	69a2      	ldr	r2, [r4, #24]
 8008a78:	4b3d      	ldr	r3, [pc, #244]	; (8008b70 <thd2_execute+0x130>)
 8008a7a:	6892      	ldr	r2, [r2, #8]
 8008a7c:	6028      	str	r0, [r5, #0]
 8008a7e:	9300      	str	r3, [sp, #0]
 8008a80:	3a01      	subs	r2, #1
 8008a82:	4b36      	ldr	r3, [pc, #216]	; (8008b5c <thd2_execute+0x11c>)
 8008a84:	483b      	ldr	r0, [pc, #236]	; (8008b74 <thd2_execute+0x134>)
 8008a86:	f44f 71b4 	mov.w	r1, #360	; 0x168
 8008a8a:	f7fd fc59 	bl	8006340 <chThdCreateStatic>
 8008a8e:	69a2      	ldr	r2, [r4, #24]
 8008a90:	4b39      	ldr	r3, [pc, #228]	; (8008b78 <thd2_execute+0x138>)
 8008a92:	6892      	ldr	r2, [r2, #8]
 8008a94:	6128      	str	r0, [r5, #16]
 8008a96:	9300      	str	r3, [sp, #0]
 8008a98:	3a02      	subs	r2, #2
 8008a9a:	4b30      	ldr	r3, [pc, #192]	; (8008b5c <thd2_execute+0x11c>)
 8008a9c:	4837      	ldr	r0, [pc, #220]	; (8008b7c <thd2_execute+0x13c>)
 8008a9e:	f44f 71b4 	mov.w	r1, #360	; 0x168
 8008aa2:	f7fd fc4d 	bl	8006340 <chThdCreateStatic>
 8008aa6:	2320      	movs	r3, #32
 8008aa8:	60e8      	str	r0, [r5, #12]
 8008aaa:	f383 8811 	msr	BASEPRI, r3
 8008aae:	f7f9 fbc7 	bl	8002240 <_stats_start_measure_crit_thd>
 8008ab2:	f7f9 fcb5 	bl	8002420 <_dbg_check_lock>
 8008ab6:	69a3      	ldr	r3, [r4, #24]
 8008ab8:	4931      	ldr	r1, [pc, #196]	; (8008b80 <thd2_execute+0x140>)
 8008aba:	689a      	ldr	r2, [r3, #8]
 8008abc:	4831      	ldr	r0, [pc, #196]	; (8008b84 <thd2_execute+0x144>)
 8008abe:	4b27      	ldr	r3, [pc, #156]	; (8008b5c <thd2_execute+0x11c>)
 8008ac0:	9100      	str	r1, [sp, #0]
 8008ac2:	3a03      	subs	r2, #3
 8008ac4:	f44f 71b4 	mov.w	r1, #360	; 0x168
 8008ac8:	f7f7 ffca 	bl	8000a60 <chThdCreateI>
 8008acc:	60a8      	str	r0, [r5, #8]
 8008ace:	f7f9 fbc7 	bl	8002260 <_dbg_check_unlock>
 8008ad2:	f7f9 fbad 	bl	8002230 <_stats_stop_measure_crit_thd>
 8008ad6:	6823      	ldr	r3, [r4, #0]
 8008ad8:	42a3      	cmp	r3, r4
 8008ada:	d004      	beq.n	8008ae6 <thd2_execute+0xa6>
 8008adc:	69a2      	ldr	r2, [r4, #24]
 8008ade:	689b      	ldr	r3, [r3, #8]
 8008ae0:	6892      	ldr	r2, [r2, #8]
 8008ae2:	429a      	cmp	r2, r3
 8008ae4:	d32d      	bcc.n	8008b42 <thd2_execute+0x102>
 8008ae6:	2300      	movs	r3, #0
 8008ae8:	f383 8811 	msr	BASEPRI, r3
 8008aec:	2320      	movs	r3, #32
 8008aee:	68a9      	ldr	r1, [r5, #8]
 8008af0:	f383 8811 	msr	BASEPRI, r3
 8008af4:	f7f9 fba4 	bl	8002240 <_stats_start_measure_crit_thd>
 8008af8:	f7f9 fc92 	bl	8002420 <_dbg_check_lock>
 8008afc:	f891 3020 	ldrb.w	r3, [r1, #32]
 8008b00:	2b02      	cmp	r3, #2
 8008b02:	d003      	beq.n	8008b0c <thd2_execute+0xcc>
 8008b04:	b672      	cpsid	i
 8008b06:	4b20      	ldr	r3, [pc, #128]	; (8008b88 <thd2_execute+0x148>)
 8008b08:	62e3      	str	r3, [r4, #44]	; 0x2c
 8008b0a:	e7fe      	b.n	8008b0a <thd2_execute+0xca>
 8008b0c:	4608      	mov	r0, r1
 8008b0e:	f7f7 fff7 	bl	8000b00 <chSchReadyI>
 8008b12:	f7f9 fba5 	bl	8002260 <_dbg_check_unlock>
 8008b16:	f7f9 fb8b 	bl	8002230 <_stats_stop_measure_crit_thd>
 8008b1a:	6823      	ldr	r3, [r4, #0]
 8008b1c:	42a3      	cmp	r3, r4
 8008b1e:	d004      	beq.n	8008b2a <thd2_execute+0xea>
 8008b20:	69a2      	ldr	r2, [r4, #24]
 8008b22:	689b      	ldr	r3, [r3, #8]
 8008b24:	6892      	ldr	r2, [r2, #8]
 8008b26:	429a      	cmp	r2, r3
 8008b28:	d30f      	bcc.n	8008b4a <thd2_execute+0x10a>
 8008b2a:	2300      	movs	r3, #0
 8008b2c:	f383 8811 	msr	BASEPRI, r3
 8008b30:	f7fc fb8e 	bl	8005250 <test_wait_threads>
 8008b34:	4915      	ldr	r1, [pc, #84]	; (8008b8c <thd2_execute+0x14c>)
 8008b36:	2001      	movs	r0, #1
 8008b38:	b003      	add	sp, #12
 8008b3a:	e8bd 4030 	ldmia.w	sp!, {r4, r5, lr}
 8008b3e:	f7f7 bcb7 	b.w	80004b0 <_test_assert_sequence>
 8008b42:	b672      	cpsid	i
 8008b44:	4b12      	ldr	r3, [pc, #72]	; (8008b90 <thd2_execute+0x150>)
 8008b46:	62e3      	str	r3, [r4, #44]	; 0x2c
 8008b48:	e7fe      	b.n	8008b48 <thd2_execute+0x108>
 8008b4a:	b672      	cpsid	i
 8008b4c:	4b11      	ldr	r3, [pc, #68]	; (8008b94 <thd2_execute+0x154>)
 8008b4e:	62e3      	str	r3, [r4, #44]	; 0x2c
 8008b50:	e7fe      	b.n	8008b50 <thd2_execute+0x110>
 8008b52:	bf00      	nop
 8008b54:	20001558 	.word	0x20001558
 8008b58:	0800b000 	.word	0x0800b000
 8008b5c:	08003b51 	.word	0x08003b51
 8008b60:	20001da0 	.word	0x20001da0
 8008b64:	2000236c 	.word	0x2000236c
 8008b68:	0800a8a4 	.word	0x0800a8a4
 8008b6c:	20001c38 	.word	0x20001c38
 8008b70:	0800a7b0 	.word	0x0800a7b0
 8008b74:	200021d8 	.word	0x200021d8
 8008b78:	0800a7b4 	.word	0x0800a7b4
 8008b7c:	20002070 	.word	0x20002070
 8008b80:	0800a7b8 	.word	0x0800a7b8
 8008b84:	20001f08 	.word	0x20001f08
 8008b88:	08009ee0 	.word	0x08009ee0
 8008b8c:	0800a8a0 	.word	0x0800a8a0
 8008b90:	08009e50 	.word	0x08009e50
 8008b94:	08009d70 	.word	0x08009d70
	...

08008ba0 <thd1_execute>:
 8008ba0:	b5f0      	push	{r4, r5, r6, r7, lr}
 8008ba2:	4f27      	ldr	r7, [pc, #156]	; (8008c40 <thd1_execute+0xa0>)
 8008ba4:	4e27      	ldr	r6, [pc, #156]	; (8008c44 <thd1_execute+0xa4>)
 8008ba6:	69bb      	ldr	r3, [r7, #24]
 8008ba8:	4d27      	ldr	r5, [pc, #156]	; (8008c48 <thd1_execute+0xa8>)
 8008baa:	689a      	ldr	r2, [r3, #8]
 8008bac:	4b27      	ldr	r3, [pc, #156]	; (8008c4c <thd1_execute+0xac>)
 8008bae:	4c28      	ldr	r4, [pc, #160]	; (8008c50 <thd1_execute+0xb0>)
 8008bb0:	b083      	sub	sp, #12
 8008bb2:	3a05      	subs	r2, #5
 8008bb4:	9300      	str	r3, [sp, #0]
 8008bb6:	4628      	mov	r0, r5
 8008bb8:	4633      	mov	r3, r6
 8008bba:	f44f 71b4 	mov.w	r1, #360	; 0x168
 8008bbe:	f7fd fbbf 	bl	8006340 <chThdCreateStatic>
 8008bc2:	69bb      	ldr	r3, [r7, #24]
 8008bc4:	4923      	ldr	r1, [pc, #140]	; (8008c54 <thd1_execute+0xb4>)
 8008bc6:	689a      	ldr	r2, [r3, #8]
 8008bc8:	6020      	str	r0, [r4, #0]
 8008bca:	4633      	mov	r3, r6
 8008bcc:	9100      	str	r1, [sp, #0]
 8008bce:	3a04      	subs	r2, #4
 8008bd0:	f505 70b4 	add.w	r0, r5, #360	; 0x168
 8008bd4:	f44f 71b4 	mov.w	r1, #360	; 0x168
 8008bd8:	f7fd fbb2 	bl	8006340 <chThdCreateStatic>
 8008bdc:	69bb      	ldr	r3, [r7, #24]
 8008bde:	491e      	ldr	r1, [pc, #120]	; (8008c58 <thd1_execute+0xb8>)
 8008be0:	689a      	ldr	r2, [r3, #8]
 8008be2:	6060      	str	r0, [r4, #4]
 8008be4:	4633      	mov	r3, r6
 8008be6:	9100      	str	r1, [sp, #0]
 8008be8:	3a03      	subs	r2, #3
 8008bea:	f505 7034 	add.w	r0, r5, #720	; 0x2d0
 8008bee:	f44f 71b4 	mov.w	r1, #360	; 0x168
 8008bf2:	f7fd fba5 	bl	8006340 <chThdCreateStatic>
 8008bf6:	69bb      	ldr	r3, [r7, #24]
 8008bf8:	4918      	ldr	r1, [pc, #96]	; (8008c5c <thd1_execute+0xbc>)
 8008bfa:	689a      	ldr	r2, [r3, #8]
 8008bfc:	60a0      	str	r0, [r4, #8]
 8008bfe:	4633      	mov	r3, r6
 8008c00:	9100      	str	r1, [sp, #0]
 8008c02:	3a02      	subs	r2, #2
 8008c04:	f505 6087 	add.w	r0, r5, #1080	; 0x438
 8008c08:	f44f 71b4 	mov.w	r1, #360	; 0x168
 8008c0c:	f7fd fb98 	bl	8006340 <chThdCreateStatic>
 8008c10:	69bb      	ldr	r3, [r7, #24]
 8008c12:	4913      	ldr	r1, [pc, #76]	; (8008c60 <thd1_execute+0xc0>)
 8008c14:	689a      	ldr	r2, [r3, #8]
 8008c16:	60e0      	str	r0, [r4, #12]
 8008c18:	3a01      	subs	r2, #1
 8008c1a:	4633      	mov	r3, r6
 8008c1c:	9100      	str	r1, [sp, #0]
 8008c1e:	f505 60b4 	add.w	r0, r5, #1440	; 0x5a0
 8008c22:	f44f 71b4 	mov.w	r1, #360	; 0x168
 8008c26:	f7fd fb8b 	bl	8006340 <chThdCreateStatic>
 8008c2a:	6120      	str	r0, [r4, #16]
 8008c2c:	f7fc fb10 	bl	8005250 <test_wait_threads>
 8008c30:	490c      	ldr	r1, [pc, #48]	; (8008c64 <thd1_execute+0xc4>)
 8008c32:	2001      	movs	r0, #1
 8008c34:	b003      	add	sp, #12
 8008c36:	e8bd 40f0 	ldmia.w	sp!, {r4, r5, r6, r7, lr}
 8008c3a:	f7f7 bc39 	b.w	80004b0 <_test_assert_sequence>
 8008c3e:	bf00      	nop
 8008c40:	20001558 	.word	0x20001558
 8008c44:	08003b51 	.word	0x08003b51
 8008c48:	20001c38 	.word	0x20001c38
 8008c4c:	0800a8a4 	.word	0x0800a8a4
 8008c50:	2000236c 	.word	0x2000236c
 8008c54:	0800b000 	.word	0x0800b000
 8008c58:	0800a7b8 	.word	0x0800a7b8
 8008c5c:	0800a7b4 	.word	0x0800a7b4
 8008c60:	0800a7b0 	.word	0x0800a7b0
 8008c64:	0800a8a0 	.word	0x0800a8a0
	...

08008c70 <chSysGetStatusAndLockX>:
 8008c70:	f3ef 8112 	mrs	r1, BASEPRI_MAX
 8008c74:	b9b9      	cbnz	r1, 8008ca6 <chSysGetStatusAndLockX+0x36>
 8008c76:	b508      	push	{r3, lr}
 8008c78:	f3ef 8305 	mrs	r3, IPSR
 8008c7c:	f3c3 0308 	ubfx	r3, r3, #0, #9
 8008c80:	b943      	cbnz	r3, 8008c94 <chSysGetStatusAndLockX+0x24>
 8008c82:	2320      	movs	r3, #32
 8008c84:	f383 8811 	msr	BASEPRI, r3
 8008c88:	f7f9 fada 	bl	8002240 <_stats_start_measure_crit_thd>
 8008c8c:	f7f9 fbc8 	bl	8002420 <_dbg_check_lock>
 8008c90:	4608      	mov	r0, r1
 8008c92:	bd08      	pop	{r3, pc}
 8008c94:	2320      	movs	r3, #32
 8008c96:	f383 8811 	msr	BASEPRI, r3
 8008c9a:	f7f7 fe39 	bl	8000910 <_stats_start_measure_crit_isr>
 8008c9e:	f7f8 fa07 	bl	80010b0 <_dbg_check_lock_from_isr>
 8008ca2:	4608      	mov	r0, r1
 8008ca4:	bd08      	pop	{r3, pc}
 8008ca6:	4608      	mov	r0, r1
 8008ca8:	4770      	bx	lr
 8008caa:	bf00      	nop
 8008cac:	0000      	movs	r0, r0
	...

08008cb0 <sys1_execute>:
 8008cb0:	b530      	push	{r4, r5, lr}
 8008cb2:	b087      	sub	sp, #28
 8008cb4:	f7ff ffdc 	bl	8008c70 <chSysGetStatusAndLockX>
 8008cb8:	f7f9 fb82 	bl	80023c0 <chSysRestoreStatusX>
 8008cbc:	2320      	movs	r3, #32
 8008cbe:	f383 8811 	msr	BASEPRI, r3
 8008cc2:	4c66      	ldr	r4, [pc, #408]	; (8008e5c <sys1_execute+0x1ac>)
 8008cc4:	f7f9 fabc 	bl	8002240 <_stats_start_measure_crit_thd>
 8008cc8:	f7f9 fbaa 	bl	8002420 <_dbg_check_lock>
 8008ccc:	f7ff ffd0 	bl	8008c70 <chSysGetStatusAndLockX>
 8008cd0:	f7f9 fb76 	bl	80023c0 <chSysRestoreStatusX>
 8008cd4:	f7f9 fac4 	bl	8002260 <_dbg_check_unlock>
 8008cd8:	f7f9 faaa 	bl	8002230 <_stats_stop_measure_crit_thd>
 8008cdc:	6823      	ldr	r3, [r4, #0]
 8008cde:	42a3      	cmp	r3, r4
 8008ce0:	d005      	beq.n	8008cee <sys1_execute+0x3e>
 8008ce2:	69a2      	ldr	r2, [r4, #24]
 8008ce4:	689b      	ldr	r3, [r3, #8]
 8008ce6:	6892      	ldr	r2, [r2, #8]
 8008ce8:	429a      	cmp	r2, r3
 8008cea:	f0c0 80a7 	bcc.w	8008e3c <sys1_execute+0x18c>
 8008cee:	2300      	movs	r3, #0
 8008cf0:	f383 8811 	msr	BASEPRI, r3
 8008cf4:	f3ef 8312 	mrs	r3, BASEPRI_MAX
 8008cf8:	b933      	cbnz	r3, 8008d08 <sys1_execute+0x58>
 8008cfa:	2320      	movs	r3, #32
 8008cfc:	f383 8811 	msr	BASEPRI, r3
 8008d00:	f7f9 fa9e 	bl	8002240 <_stats_start_measure_crit_thd>
 8008d04:	f7f9 fb8c 	bl	8002420 <_dbg_check_lock>
 8008d08:	f3ef 8312 	mrs	r3, BASEPRI_MAX
 8008d0c:	b933      	cbnz	r3, 8008d1c <sys1_execute+0x6c>
 8008d0e:	2320      	movs	r3, #32
 8008d10:	f383 8811 	msr	BASEPRI, r3
 8008d14:	f7f9 fa94 	bl	8002240 <_stats_start_measure_crit_thd>
 8008d18:	f7f9 fb82 	bl	8002420 <_dbg_check_lock>
 8008d1c:	f7f9 faa0 	bl	8002260 <_dbg_check_unlock>
 8008d20:	f7f9 fa86 	bl	8002230 <_stats_stop_measure_crit_thd>
 8008d24:	6823      	ldr	r3, [r4, #0]
 8008d26:	42a3      	cmp	r3, r4
 8008d28:	d004      	beq.n	8008d34 <sys1_execute+0x84>
 8008d2a:	69a2      	ldr	r2, [r4, #24]
 8008d2c:	689b      	ldr	r3, [r3, #8]
 8008d2e:	6892      	ldr	r2, [r2, #8]
 8008d30:	429a      	cmp	r2, r3
 8008d32:	d37f      	bcc.n	8008e34 <sys1_execute+0x184>
 8008d34:	2300      	movs	r3, #0
 8008d36:	f383 8811 	msr	BASEPRI, r3
 8008d3a:	2320      	movs	r3, #32
 8008d3c:	f383 8811 	msr	BASEPRI, r3
 8008d40:	f7f9 fa7e 	bl	8002240 <_stats_start_measure_crit_thd>
 8008d44:	f7f9 fb6c 	bl	8002420 <_dbg_check_lock>
 8008d48:	f3ef 8312 	mrs	r3, BASEPRI_MAX
 8008d4c:	2b00      	cmp	r3, #0
 8008d4e:	d161      	bne.n	8008e14 <sys1_execute+0x164>
 8008d50:	f3ef 8312 	mrs	r3, BASEPRI_MAX
 8008d54:	2b00      	cmp	r3, #0
 8008d56:	d14d      	bne.n	8008df4 <sys1_execute+0x144>
 8008d58:	2300      	movs	r3, #0
 8008d5a:	9304      	str	r3, [sp, #16]
 8008d5c:	2320      	movs	r3, #32
 8008d5e:	f383 8811 	msr	BASEPRI, r3
 8008d62:	f7f9 fa6d 	bl	8002240 <_stats_start_measure_crit_thd>
 8008d66:	f7f9 fb5b 	bl	8002420 <_dbg_check_lock>
 8008d6a:	f7f7 fe09 	bl	8000980 <chDbgCheckClassI>
 8008d6e:	9b04      	ldr	r3, [sp, #16]
 8008d70:	ad01      	add	r5, sp, #4
 8008d72:	b113      	cbz	r3, 8008d7a <sys1_execute+0xca>
 8008d74:	4628      	mov	r0, r5
 8008d76:	f7f8 f89b 	bl	8000eb0 <chVTDoResetI>
 8008d7a:	2300      	movs	r3, #0
 8008d7c:	4628      	mov	r0, r5
 8008d7e:	4a38      	ldr	r2, [pc, #224]	; (8008e60 <sys1_execute+0x1b0>)
 8008d80:	2101      	movs	r1, #1
 8008d82:	f7f8 f8dd 	bl	8000f40 <chVTDoSetI>
 8008d86:	f7f9 fa6b 	bl	8002260 <_dbg_check_unlock>
 8008d8a:	f7f9 fa51 	bl	8002230 <_stats_stop_measure_crit_thd>
 8008d8e:	6823      	ldr	r3, [r4, #0]
 8008d90:	42a3      	cmp	r3, r4
 8008d92:	d008      	beq.n	8008da6 <sys1_execute+0xf6>
 8008d94:	69a2      	ldr	r2, [r4, #24]
 8008d96:	689b      	ldr	r3, [r3, #8]
 8008d98:	6892      	ldr	r2, [r2, #8]
 8008d9a:	429a      	cmp	r2, r3
 8008d9c:	d203      	bcs.n	8008da6 <sys1_execute+0xf6>
 8008d9e:	b672      	cpsid	i
 8008da0:	4b30      	ldr	r3, [pc, #192]	; (8008e64 <sys1_execute+0x1b4>)
 8008da2:	62e3      	str	r3, [r4, #44]	; 0x2c
 8008da4:	e7fe      	b.n	8008da4 <sys1_execute+0xf4>
 8008da6:	2300      	movs	r3, #0
 8008da8:	f383 8811 	msr	BASEPRI, r3
 8008dac:	200a      	movs	r0, #10
 8008dae:	f7fc fbdf 	bl	8005570 <chThdSleep>
 8008db2:	2320      	movs	r3, #32
 8008db4:	f383 8811 	msr	BASEPRI, r3
 8008db8:	f7f9 fa42 	bl	8002240 <_stats_start_measure_crit_thd>
 8008dbc:	f7f9 fb30 	bl	8002420 <_dbg_check_lock>
 8008dc0:	f7f7 fdde 	bl	8000980 <chDbgCheckClassI>
 8008dc4:	9d04      	ldr	r5, [sp, #16]
 8008dc6:	f7f9 fa4b 	bl	8002260 <_dbg_check_unlock>
 8008dca:	f7f9 fa31 	bl	8002230 <_stats_stop_measure_crit_thd>
 8008dce:	6823      	ldr	r3, [r4, #0]
 8008dd0:	42a3      	cmp	r3, r4
 8008dd2:	d004      	beq.n	8008dde <sys1_execute+0x12e>
 8008dd4:	69a2      	ldr	r2, [r4, #24]
 8008dd6:	689b      	ldr	r3, [r3, #8]
 8008dd8:	6892      	ldr	r2, [r2, #8]
 8008dda:	429a      	cmp	r2, r3
 8008ddc:	d33a      	bcc.n	8008e54 <sys1_execute+0x1a4>
 8008dde:	2300      	movs	r3, #0
 8008de0:	f383 8811 	msr	BASEPRI, r3
 8008de4:	fab5 f185 	clz	r1, r5
 8008de8:	0949      	lsrs	r1, r1, #5
 8008dea:	2001      	movs	r0, #1
 8008dec:	f7f7 fb88 	bl	8000500 <_test_assert>
 8008df0:	b007      	add	sp, #28
 8008df2:	bd30      	pop	{r4, r5, pc}
 8008df4:	f7f9 fa34 	bl	8002260 <_dbg_check_unlock>
 8008df8:	f7f9 fa1a 	bl	8002230 <_stats_stop_measure_crit_thd>
 8008dfc:	6823      	ldr	r3, [r4, #0]
 8008dfe:	42a3      	cmp	r3, r4
 8008e00:	d004      	beq.n	8008e0c <sys1_execute+0x15c>
 8008e02:	69a2      	ldr	r2, [r4, #24]
 8008e04:	689b      	ldr	r3, [r3, #8]
 8008e06:	6892      	ldr	r2, [r2, #8]
 8008e08:	429a      	cmp	r2, r3
 8008e0a:	d31f      	bcc.n	8008e4c <sys1_execute+0x19c>
 8008e0c:	2300      	movs	r3, #0
 8008e0e:	f383 8811 	msr	BASEPRI, r3
 8008e12:	e7a1      	b.n	8008d58 <sys1_execute+0xa8>
 8008e14:	f7f9 fa24 	bl	8002260 <_dbg_check_unlock>
 8008e18:	f7f9 fa0a 	bl	8002230 <_stats_stop_measure_crit_thd>
 8008e1c:	6823      	ldr	r3, [r4, #0]
 8008e1e:	42a3      	cmp	r3, r4
 8008e20:	d004      	beq.n	8008e2c <sys1_execute+0x17c>
 8008e22:	69a2      	ldr	r2, [r4, #24]
 8008e24:	689b      	ldr	r3, [r3, #8]
 8008e26:	6892      	ldr	r2, [r2, #8]
 8008e28:	429a      	cmp	r2, r3
 8008e2a:	d30b      	bcc.n	8008e44 <sys1_execute+0x194>
 8008e2c:	2300      	movs	r3, #0
 8008e2e:	f383 8811 	msr	BASEPRI, r3
 8008e32:	e78d      	b.n	8008d50 <sys1_execute+0xa0>
 8008e34:	b672      	cpsid	i
 8008e36:	4b0b      	ldr	r3, [pc, #44]	; (8008e64 <sys1_execute+0x1b4>)
 8008e38:	62e3      	str	r3, [r4, #44]	; 0x2c
 8008e3a:	e7fe      	b.n	8008e3a <sys1_execute+0x18a>
 8008e3c:	b672      	cpsid	i
 8008e3e:	4b09      	ldr	r3, [pc, #36]	; (8008e64 <sys1_execute+0x1b4>)
 8008e40:	62e3      	str	r3, [r4, #44]	; 0x2c
 8008e42:	e7fe      	b.n	8008e42 <sys1_execute+0x192>
 8008e44:	b672      	cpsid	i
 8008e46:	4b07      	ldr	r3, [pc, #28]	; (8008e64 <sys1_execute+0x1b4>)
 8008e48:	62e3      	str	r3, [r4, #44]	; 0x2c
 8008e4a:	e7fe      	b.n	8008e4a <sys1_execute+0x19a>
 8008e4c:	b672      	cpsid	i
 8008e4e:	4b05      	ldr	r3, [pc, #20]	; (8008e64 <sys1_execute+0x1b4>)
 8008e50:	62e3      	str	r3, [r4, #44]	; 0x2c
 8008e52:	e7fe      	b.n	8008e52 <sys1_execute+0x1a2>
 8008e54:	b672      	cpsid	i
 8008e56:	4b03      	ldr	r3, [pc, #12]	; (8008e64 <sys1_execute+0x1b4>)
 8008e58:	62e3      	str	r3, [r4, #44]	; 0x2c
 8008e5a:	e7fe      	b.n	8008e5a <sys1_execute+0x1aa>
 8008e5c:	20001558 	.word	0x20001558
 8008e60:	08008e71 	.word	0x08008e71
 8008e64:	08009eb0 	.word	0x08009eb0
	...

08008e70 <vtcb>:
 8008e70:	b538      	push	{r3, r4, r5, lr}
 8008e72:	2520      	movs	r5, #32
 8008e74:	f385 8811 	msr	BASEPRI, r5
 8008e78:	f7f7 fd4a 	bl	8000910 <_stats_start_measure_crit_isr>
 8008e7c:	2400      	movs	r4, #0
 8008e7e:	f7f8 f917 	bl	80010b0 <_dbg_check_lock_from_isr>
 8008e82:	f7f8 f8fd 	bl	8001080 <_dbg_check_unlock_from_isr>
 8008e86:	f7f7 fd33 	bl	80008f0 <_stats_stop_measure_crit_isr>
 8008e8a:	f384 8811 	msr	BASEPRI, r4
 8008e8e:	f385 8811 	msr	BASEPRI, r5
 8008e92:	f7f7 fd3d 	bl	8000910 <_stats_start_measure_crit_isr>
 8008e96:	f7f8 f90b 	bl	80010b0 <_dbg_check_lock_from_isr>
 8008e9a:	f7ff fee9 	bl	8008c70 <chSysGetStatusAndLockX>
 8008e9e:	f7f9 fa8f 	bl	80023c0 <chSysRestoreStatusX>
 8008ea2:	f7f8 f8ed 	bl	8001080 <_dbg_check_unlock_from_isr>
 8008ea6:	f7f7 fd23 	bl	80008f0 <_stats_stop_measure_crit_isr>
 8008eaa:	f384 8811 	msr	BASEPRI, r4
 8008eae:	bd38      	pop	{r3, r4, r5, pc}

08008eb0 <usb_packet_write_from_queue>:
 8008eb0:	e92d 41f0 	stmdb	sp!, {r4, r5, r6, r7, r8, lr}
 8008eb4:	4690      	mov	r8, r2
 8008eb6:	6802      	ldr	r2, [r0, #0]
 8008eb8:	f8c0 8004 	str.w	r8, [r0, #4]
 8008ebc:	f102 5200 	add.w	r2, r2, #536870912	; 0x20000000
 8008ec0:	f502 5240 	add.w	r2, r2, #12288	; 0x3000
 8008ec4:	ea5f 0c58 	movs.w	ip, r8, lsr #1
 8008ec8:	460c      	mov	r4, r1
 8008eca:	ea4f 0242 	mov.w	r2, r2, lsl #1
 8008ece:	d01b      	beq.n	8008f08 <usb_packet_write_from_queue+0x58>
 8008ed0:	690f      	ldr	r7, [r1, #16]
 8008ed2:	4616      	mov	r6, r2
 8008ed4:	4660      	mov	r0, ip
 8008ed6:	e000      	b.n	8008eda <usb_packet_write_from_queue+0x2a>
 8008ed8:	4676      	mov	r6, lr
 8008eda:	69a1      	ldr	r1, [r4, #24]
 8008edc:	1c4b      	adds	r3, r1, #1
 8008ede:	42bb      	cmp	r3, r7
 8008ee0:	61a3      	str	r3, [r4, #24]
 8008ee2:	bf28      	it	cs
 8008ee4:	68e3      	ldrcs	r3, [r4, #12]
 8008ee6:	7809      	ldrb	r1, [r1, #0]
 8008ee8:	1c5d      	adds	r5, r3, #1
 8008eea:	61a5      	str	r5, [r4, #24]
 8008eec:	781b      	ldrb	r3, [r3, #0]
 8008eee:	42af      	cmp	r7, r5
 8008ef0:	ea41 2303 	orr.w	r3, r1, r3, lsl #8
 8008ef4:	bf9c      	itt	ls
 8008ef6:	68e1      	ldrls	r1, [r4, #12]
 8008ef8:	61a1      	strls	r1, [r4, #24]
 8008efa:	3801      	subs	r0, #1
 8008efc:	f106 0e04 	add.w	lr, r6, #4
 8008f00:	6033      	str	r3, [r6, #0]
 8008f02:	d1e9      	bne.n	8008ed8 <usb_packet_write_from_queue+0x28>
 8008f04:	eb02 028c 	add.w	r2, r2, ip, lsl #2
 8008f08:	f018 0f01 	tst.w	r8, #1
 8008f0c:	d00a      	beq.n	8008f24 <usb_packet_write_from_queue+0x74>
 8008f0e:	69a1      	ldr	r1, [r4, #24]
 8008f10:	6920      	ldr	r0, [r4, #16]
 8008f12:	1c4b      	adds	r3, r1, #1
 8008f14:	61a3      	str	r3, [r4, #24]
 8008f16:	4283      	cmp	r3, r0
 8008f18:	7809      	ldrb	r1, [r1, #0]
 8008f1a:	bf28      	it	cs
 8008f1c:	68e3      	ldrcs	r3, [r4, #12]
 8008f1e:	6011      	str	r1, [r2, #0]
 8008f20:	bf28      	it	cs
 8008f22:	61a3      	strcs	r3, [r4, #24]
 8008f24:	f7ff fea4 	bl	8008c70 <chSysGetStatusAndLockX>
 8008f28:	68a2      	ldr	r2, [r4, #8]
 8008f2a:	4442      	add	r2, r8
 8008f2c:	4605      	mov	r5, r0
 8008f2e:	60a2      	str	r2, [r4, #8]
 8008f30:	4620      	mov	r0, r4
 8008f32:	2100      	movs	r1, #0
 8008f34:	f7f7 ff94 	bl	8000e60 <chThdDequeueAllI>
 8008f38:	4628      	mov	r0, r5
 8008f3a:	e8bd 41f0 	ldmia.w	sp!, {r4, r5, r6, r7, r8, lr}
 8008f3e:	f7f9 ba3f 	b.w	80023c0 <chSysRestoreStatusX>
 8008f42:	bf00      	nop
	...

08008f50 <usb_lld_prepare_transmit>:
 8008f50:	eb00 0081 	add.w	r0, r0, r1, lsl #2
 8008f54:	b430      	push	{r4, r5}
 8008f56:	68c2      	ldr	r2, [r0, #12]
 8008f58:	6950      	ldr	r0, [r2, #20]
 8008f5a:	8a15      	ldrh	r5, [r2, #16]
 8008f5c:	6842      	ldr	r2, [r0, #4]
 8008f5e:	7803      	ldrb	r3, [r0, #0]
 8008f60:	42aa      	cmp	r2, r5
 8008f62:	ea4f 04c1 	mov.w	r4, r1, lsl #3
 8008f66:	bf28      	it	cs
 8008f68:	462a      	movcs	r2, r5
 8008f6a:	68c1      	ldr	r1, [r0, #12]
 8008f6c:	b9eb      	cbnz	r3, 8008faa <usb_lld_prepare_transmit+0x5a>
 8008f6e:	4b14      	ldr	r3, [pc, #80]	; (8008fc0 <usb_lld_prepare_transmit+0x70>)
 8008f70:	6d1b      	ldr	r3, [r3, #80]	; 0x50
 8008f72:	f103 5300 	add.w	r3, r3, #536870912	; 0x20000000
 8008f76:	f503 5340 	add.w	r3, r3, #12288	; 0x3000
 8008f7a:	4423      	add	r3, r4
 8008f7c:	005c      	lsls	r4, r3, #1
 8008f7e:	1c50      	adds	r0, r2, #1
 8008f80:	6823      	ldr	r3, [r4, #0]
 8008f82:	6062      	str	r2, [r4, #4]
 8008f84:	f103 5300 	add.w	r3, r3, #536870912	; 0x20000000
 8008f88:	f503 5340 	add.w	r3, r3, #12288	; 0x3000
 8008f8c:	0842      	lsrs	r2, r0, #1
 8008f8e:	ea4f 0343 	mov.w	r3, r3, lsl #1
 8008f92:	d008      	beq.n	8008fa6 <usb_lld_prepare_transmit+0x56>
 8008f94:	eb01 0242 	add.w	r2, r1, r2, lsl #1
 8008f98:	f831 0b02 	ldrh.w	r0, [r1], #2
 8008f9c:	6018      	str	r0, [r3, #0]
 8008f9e:	428a      	cmp	r2, r1
 8008fa0:	f103 0304 	add.w	r3, r3, #4
 8008fa4:	d1f8      	bne.n	8008f98 <usb_lld_prepare_transmit+0x48>
 8008fa6:	bc30      	pop	{r4, r5}
 8008fa8:	4770      	bx	lr
 8008faa:	4b05      	ldr	r3, [pc, #20]	; (8008fc0 <usb_lld_prepare_transmit+0x70>)
 8008fac:	6d18      	ldr	r0, [r3, #80]	; 0x50
 8008fae:	f100 5000 	add.w	r0, r0, #536870912	; 0x20000000
 8008fb2:	f500 5040 	add.w	r0, r0, #12288	; 0x3000
 8008fb6:	4420      	add	r0, r4
 8008fb8:	0040      	lsls	r0, r0, #1
 8008fba:	bc30      	pop	{r4, r5}
 8008fbc:	f7ff bf78 	b.w	8008eb0 <usb_packet_write_from_queue>
 8008fc0:	40005c00 	.word	0x40005c00
	...

08008fd0 <_usb_ep0out>:
 8008fd0:	b538      	push	{r3, r4, r5, lr}
 8008fd2:	f890 3064 	ldrb.w	r3, [r0, #100]	; 0x64
 8008fd6:	4604      	mov	r4, r0
 8008fd8:	2b06      	cmp	r3, #6
 8008fda:	d854      	bhi.n	8009086 <_usb_ep0out+0xb6>
 8008fdc:	e8df f003 	tbb	[pc, r3]
 8008fe0:	424e4e4e 	.word	0x424e4e4e
 8008fe4:	4e23      	.short	0x4e23
 8008fe6:	04          	.byte	0x04
 8008fe7:	00          	.byte	0x00
 8008fe8:	4929      	ldr	r1, [pc, #164]	; (8009090 <_usb_ep0out+0xc0>)
 8008fea:	6842      	ldr	r2, [r0, #4]
 8008fec:	680b      	ldr	r3, [r1, #0]
 8008fee:	6812      	ldr	r2, [r2, #0]
 8008ff0:	f423 43f0 	bic.w	r3, r3, #30720	; 0x7800
 8008ff4:	f023 0340 	bic.w	r3, r3, #64	; 0x40
 8008ff8:	f248 0080 	movw	r0, #32896	; 0x8080
 8008ffc:	f083 0310 	eor.w	r3, r3, #16
 8009000:	4303      	orrs	r3, r0
 8009002:	600b      	str	r3, [r1, #0]
 8009004:	680b      	ldr	r3, [r1, #0]
 8009006:	f423 4390 	bic.w	r3, r3, #18432	; 0x4800
 800900a:	f023 0370 	bic.w	r3, r3, #112	; 0x70
 800900e:	f483 5380 	eor.w	r3, r3, #4096	; 0x1000
 8009012:	4303      	orrs	r3, r0
 8009014:	600b      	str	r3, [r1, #0]
 8009016:	b112      	cbz	r2, 800901e <_usb_ep0out+0x4e>
 8009018:	2105      	movs	r1, #5
 800901a:	4620      	mov	r0, r4
 800901c:	4790      	blx	r2
 800901e:	2306      	movs	r3, #6
 8009020:	f884 3064 	strb.w	r3, [r4, #100]	; 0x64
 8009024:	bd38      	pop	{r3, r4, r5, pc}
 8009026:	68c3      	ldr	r3, [r0, #12]
 8009028:	2205      	movs	r2, #5
 800902a:	f880 2064 	strb.w	r2, [r0, #100]	; 0x64
 800902e:	695b      	ldr	r3, [r3, #20]
 8009030:	2500      	movs	r5, #0
 8009032:	701d      	strb	r5, [r3, #0]
 8009034:	60dd      	str	r5, [r3, #12]
 8009036:	e9c3 5501 	strd	r5, r5, [r3, #4]
 800903a:	4629      	mov	r1, r5
 800903c:	f7ff ff88 	bl	8008f50 <usb_lld_prepare_transmit>
 8009040:	2320      	movs	r3, #32
 8009042:	f383 8811 	msr	BASEPRI, r3
 8009046:	f7f7 fc63 	bl	8000910 <_stats_start_measure_crit_isr>
 800904a:	f7f8 f831 	bl	80010b0 <_dbg_check_lock_from_isr>
 800904e:	4629      	mov	r1, r5
 8009050:	4620      	mov	r0, r4
 8009052:	f7f7 fca5 	bl	80009a0 <usbStartTransmitI>
 8009056:	f7f8 f813 	bl	8001080 <_dbg_check_unlock_from_isr>
 800905a:	f7f7 fc49 	bl	80008f0 <_stats_stop_measure_crit_isr>
 800905e:	f385 8811 	msr	BASEPRI, r5
 8009062:	bd38      	pop	{r3, r4, r5, pc}
 8009064:	68c3      	ldr	r3, [r0, #12]
 8009066:	699b      	ldr	r3, [r3, #24]
 8009068:	689b      	ldr	r3, [r3, #8]
 800906a:	2b00      	cmp	r3, #0
 800906c:	d1da      	bne.n	8009024 <_usb_ep0out+0x54>
 800906e:	6f03      	ldr	r3, [r0, #112]	; 0x70
 8009070:	b103      	cbz	r3, 8009074 <_usb_ep0out+0xa4>
 8009072:	4798      	blx	r3
 8009074:	2300      	movs	r3, #0
 8009076:	f884 3064 	strb.w	r3, [r4, #100]	; 0x64
 800907a:	bd38      	pop	{r3, r4, r5, pc}
 800907c:	b672      	cpsid	i
 800907e:	4b05      	ldr	r3, [pc, #20]	; (8009094 <_usb_ep0out+0xc4>)
 8009080:	4a05      	ldr	r2, [pc, #20]	; (8009098 <_usb_ep0out+0xc8>)
 8009082:	62da      	str	r2, [r3, #44]	; 0x2c
 8009084:	e7fe      	b.n	8009084 <_usb_ep0out+0xb4>
 8009086:	b672      	cpsid	i
 8009088:	4b02      	ldr	r3, [pc, #8]	; (8009094 <_usb_ep0out+0xc4>)
 800908a:	4a03      	ldr	r2, [pc, #12]	; (8009098 <_usb_ep0out+0xc8>)
 800908c:	62da      	str	r2, [r3, #44]	; 0x2c
 800908e:	e7fe      	b.n	800908e <_usb_ep0out+0xbe>
 8009090:	40005c00 	.word	0x40005c00
 8009094:	20001558 	.word	0x20001558
 8009098:	0800a230 	.word	0x0800a230
 800909c:	00000000 	.word	0x00000000

080090a0 <_usb_ep0in>:
 80090a0:	b538      	push	{r3, r4, r5, lr}
 80090a2:	f890 3064 	ldrb.w	r3, [r0, #100]	; 0x64
 80090a6:	4604      	mov	r4, r0
 80090a8:	2b06      	cmp	r3, #6
 80090aa:	d87f      	bhi.n	80091ac <_usb_ep0in+0x10c>
 80090ac:	e8df f003 	tbb	[pc, r3]
 80090b0:	792a4a79 	.word	0x792a4a79
 80090b4:	2379      	.short	0x2379
 80090b6:	04          	.byte	0x04
 80090b7:	00          	.byte	0x00
 80090b8:	493f      	ldr	r1, [pc, #252]	; (80091b8 <_usb_ep0in+0x118>)
 80090ba:	6842      	ldr	r2, [r0, #4]
 80090bc:	680b      	ldr	r3, [r1, #0]
 80090be:	6812      	ldr	r2, [r2, #0]
 80090c0:	f423 43f0 	bic.w	r3, r3, #30720	; 0x7800
 80090c4:	f023 0340 	bic.w	r3, r3, #64	; 0x40
 80090c8:	f248 0080 	movw	r0, #32896	; 0x8080
 80090cc:	f083 0310 	eor.w	r3, r3, #16
 80090d0:	4303      	orrs	r3, r0
 80090d2:	600b      	str	r3, [r1, #0]
 80090d4:	680b      	ldr	r3, [r1, #0]
 80090d6:	f423 4390 	bic.w	r3, r3, #18432	; 0x4800
 80090da:	f023 0370 	bic.w	r3, r3, #112	; 0x70
 80090de:	f483 5380 	eor.w	r3, r3, #4096	; 0x1000
 80090e2:	4303      	orrs	r3, r0
 80090e4:	600b      	str	r3, [r1, #0]
 80090e6:	b112      	cbz	r2, 80090ee <_usb_ep0in+0x4e>
 80090e8:	2105      	movs	r1, #5
 80090ea:	4620      	mov	r0, r4
 80090ec:	4790      	blx	r2
 80090ee:	2306      	movs	r3, #6
 80090f0:	f884 3064 	strb.w	r3, [r4, #100]	; 0x64
 80090f4:	bd38      	pop	{r3, r4, r5, pc}
 80090f6:	6f03      	ldr	r3, [r0, #112]	; 0x70
 80090f8:	b103      	cbz	r3, 80090fc <_usb_ep0in+0x5c>
 80090fa:	4798      	blx	r3
 80090fc:	2300      	movs	r3, #0
 80090fe:	f884 3064 	strb.w	r3, [r4, #100]	; 0x64
 8009102:	bd38      	pop	{r3, r4, r5, pc}
 8009104:	68c3      	ldr	r3, [r0, #12]
 8009106:	2203      	movs	r2, #3
 8009108:	f884 2064 	strb.w	r2, [r4, #100]	; 0x64
 800910c:	699b      	ldr	r3, [r3, #24]
 800910e:	2500      	movs	r5, #0
 8009110:	701d      	strb	r5, [r3, #0]
 8009112:	60dd      	str	r5, [r3, #12]
 8009114:	e9c3 5501 	strd	r5, r5, [r3, #4]
 8009118:	4629      	mov	r1, r5
 800911a:	4620      	mov	r0, r4
 800911c:	f7f7 fa40 	bl	80005a0 <usb_lld_prepare_receive>
 8009120:	2320      	movs	r3, #32
 8009122:	f383 8811 	msr	BASEPRI, r3
 8009126:	f7f7 fbf3 	bl	8000910 <_stats_start_measure_crit_isr>
 800912a:	f7f7 ffc1 	bl	80010b0 <_dbg_check_lock_from_isr>
 800912e:	4629      	mov	r1, r5
 8009130:	4620      	mov	r0, r4
 8009132:	f7f7 fc65 	bl	8000a00 <usbStartReceiveI>
 8009136:	f7f7 ffa3 	bl	8001080 <_dbg_check_unlock_from_isr>
 800913a:	f7f7 fbd9 	bl	80008f0 <_stats_stop_measure_crit_isr>
 800913e:	f385 8811 	msr	BASEPRI, r5
 8009142:	bd38      	pop	{r3, r4, r5, pc}
 8009144:	f890 007b 	ldrb.w	r0, [r0, #123]	; 0x7b
 8009148:	f894 107a 	ldrb.w	r1, [r4, #122]	; 0x7a
 800914c:	6ee2      	ldr	r2, [r4, #108]	; 0x6c
 800914e:	68e3      	ldr	r3, [r4, #12]
 8009150:	ea41 2100 	orr.w	r1, r1, r0, lsl #8
 8009154:	428a      	cmp	r2, r1
 8009156:	d2d6      	bcs.n	8009106 <_usb_ep0in+0x66>
 8009158:	8a19      	ldrh	r1, [r3, #16]
 800915a:	fbb2 f5f1 	udiv	r5, r2, r1
 800915e:	fb01 2515 	mls	r5, r1, r5, r2
 8009162:	2d00      	cmp	r5, #0
 8009164:	d1cf      	bne.n	8009106 <_usb_ep0in+0x66>
 8009166:	695b      	ldr	r3, [r3, #20]
 8009168:	4629      	mov	r1, r5
 800916a:	701d      	strb	r5, [r3, #0]
 800916c:	60dd      	str	r5, [r3, #12]
 800916e:	e9c3 5501 	strd	r5, r5, [r3, #4]
 8009172:	4620      	mov	r0, r4
 8009174:	f7ff feec 	bl	8008f50 <usb_lld_prepare_transmit>
 8009178:	2320      	movs	r3, #32
 800917a:	f383 8811 	msr	BASEPRI, r3
 800917e:	f7f7 fbc7 	bl	8000910 <_stats_start_measure_crit_isr>
 8009182:	f7f7 ff95 	bl	80010b0 <_dbg_check_lock_from_isr>
 8009186:	4629      	mov	r1, r5
 8009188:	4620      	mov	r0, r4
 800918a:	f7f7 fc09 	bl	80009a0 <usbStartTransmitI>
 800918e:	f7f7 ff77 	bl	8001080 <_dbg_check_unlock_from_isr>
 8009192:	f7f7 fbad 	bl	80008f0 <_stats_stop_measure_crit_isr>
 8009196:	f385 8811 	msr	BASEPRI, r5
 800919a:	2302      	movs	r3, #2
 800919c:	f884 3064 	strb.w	r3, [r4, #100]	; 0x64
 80091a0:	bd38      	pop	{r3, r4, r5, pc}
 80091a2:	b672      	cpsid	i
 80091a4:	4b05      	ldr	r3, [pc, #20]	; (80091bc <_usb_ep0in+0x11c>)
 80091a6:	4a06      	ldr	r2, [pc, #24]	; (80091c0 <_usb_ep0in+0x120>)
 80091a8:	62da      	str	r2, [r3, #44]	; 0x2c
 80091aa:	e7fe      	b.n	80091aa <_usb_ep0in+0x10a>
 80091ac:	b672      	cpsid	i
 80091ae:	4b03      	ldr	r3, [pc, #12]	; (80091bc <_usb_ep0in+0x11c>)
 80091b0:	4a03      	ldr	r2, [pc, #12]	; (80091c0 <_usb_ep0in+0x120>)
 80091b2:	62da      	str	r2, [r3, #44]	; 0x2c
 80091b4:	e7fe      	b.n	80091b4 <_usb_ep0in+0x114>
 80091b6:	bf00      	nop
 80091b8:	40005c00 	.word	0x40005c00
 80091bc:	20001558 	.word	0x20001558
 80091c0:	0800a220 	.word	0x0800a220
	...

080091d0 <_usb_ep0setup>:
 80091d0:	2200      	movs	r2, #0
 80091d2:	4bc7      	ldr	r3, [pc, #796]	; (80094f0 <_usb_ep0setup+0x320>)
 80091d4:	b570      	push	{r4, r5, r6, lr}
 80091d6:	f880 2064 	strb.w	r2, [r0, #100]	; 0x64
 80091da:	6d1b      	ldr	r3, [r3, #80]	; 0x50
 80091dc:	f103 5300 	add.w	r3, r3, #536870912	; 0x20000000
 80091e0:	f503 5340 	add.w	r3, r3, #12288	; 0x3000
 80091e4:	eb03 01c1 	add.w	r1, r3, r1, lsl #3
 80091e8:	0049      	lsls	r1, r1, #1
 80091ea:	4604      	mov	r4, r0
 80091ec:	688b      	ldr	r3, [r1, #8]
 80091ee:	f103 5300 	add.w	r3, r3, #536870912	; 0x20000000
 80091f2:	f503 5340 	add.w	r3, r3, #12288	; 0x3000
 80091f6:	005b      	lsls	r3, r3, #1
 80091f8:	f100 0274 	add.w	r2, r0, #116	; 0x74
 80091fc:	f103 0010 	add.w	r0, r3, #16
 8009200:	6819      	ldr	r1, [r3, #0]
 8009202:	f822 1b02 	strh.w	r1, [r2], #2
 8009206:	3304      	adds	r3, #4
 8009208:	4283      	cmp	r3, r0
 800920a:	d1f9      	bne.n	8009200 <_usb_ep0setup+0x30>
 800920c:	6863      	ldr	r3, [r4, #4]
 800920e:	689b      	ldr	r3, [r3, #8]
 8009210:	2b00      	cmp	r3, #0
 8009212:	d035      	beq.n	8009280 <_usb_ep0setup+0xb0>
 8009214:	4620      	mov	r0, r4
 8009216:	4798      	blx	r3
 8009218:	b390      	cbz	r0, 8009280 <_usb_ep0setup+0xb0>
 800921a:	6ee1      	ldr	r1, [r4, #108]	; 0x6c
 800921c:	f894 3074 	ldrb.w	r3, [r4, #116]	; 0x74
 8009220:	f894 007b 	ldrb.w	r0, [r4, #123]	; 0x7b
 8009224:	f894 207a 	ldrb.w	r2, [r4, #122]	; 0x7a
 8009228:	ea42 2200 	orr.w	r2, r2, r0, lsl #8
 800922c:	428a      	cmp	r2, r1
 800922e:	bf2c      	ite	cs
 8009230:	460a      	movcs	r2, r1
 8009232:	66e2      	strcc	r2, [r4, #108]	; 0x6c
 8009234:	0618      	lsls	r0, r3, #24
 8009236:	68e1      	ldr	r1, [r4, #12]
 8009238:	f100 80ca 	bmi.w	80093d0 <_usb_ep0setup+0x200>
 800923c:	2a00      	cmp	r2, #0
 800923e:	d076      	beq.n	800932e <_usb_ep0setup+0x15e>
 8009240:	2304      	movs	r3, #4
 8009242:	f884 3064 	strb.w	r3, [r4, #100]	; 0x64
 8009246:	698b      	ldr	r3, [r1, #24]
 8009248:	6ea1      	ldr	r1, [r4, #104]	; 0x68
 800924a:	60d9      	str	r1, [r3, #12]
 800924c:	2500      	movs	r5, #0
 800924e:	605a      	str	r2, [r3, #4]
 8009250:	701d      	strb	r5, [r3, #0]
 8009252:	609d      	str	r5, [r3, #8]
 8009254:	4629      	mov	r1, r5
 8009256:	4620      	mov	r0, r4
 8009258:	f7f7 f9a2 	bl	80005a0 <usb_lld_prepare_receive>
 800925c:	2320      	movs	r3, #32
 800925e:	f383 8811 	msr	BASEPRI, r3
 8009262:	f7f7 fb55 	bl	8000910 <_stats_start_measure_crit_isr>
 8009266:	f7f7 ff23 	bl	80010b0 <_dbg_check_lock_from_isr>
 800926a:	4629      	mov	r1, r5
 800926c:	4620      	mov	r0, r4
 800926e:	f7f7 fbc7 	bl	8000a00 <usbStartReceiveI>
 8009272:	f7f7 ff05 	bl	8001080 <_dbg_check_unlock_from_isr>
 8009276:	f7f7 fb3b 	bl	80008f0 <_stats_stop_measure_crit_isr>
 800927a:	f385 8811 	msr	BASEPRI, r5
 800927e:	bd70      	pop	{r4, r5, r6, pc}
 8009280:	f894 3074 	ldrb.w	r3, [r4, #116]	; 0x74
 8009284:	f013 0560 	ands.w	r5, r3, #96	; 0x60
 8009288:	4618      	mov	r0, r3
 800928a:	d01e      	beq.n	80092ca <_usb_ep0setup+0xfa>
 800928c:	4998      	ldr	r1, [pc, #608]	; (80094f0 <_usb_ep0setup+0x320>)
 800928e:	6862      	ldr	r2, [r4, #4]
 8009290:	680b      	ldr	r3, [r1, #0]
 8009292:	6815      	ldr	r5, [r2, #0]
 8009294:	f423 43f0 	bic.w	r3, r3, #30720	; 0x7800
 8009298:	f023 0340 	bic.w	r3, r3, #64	; 0x40
 800929c:	f083 0210 	eor.w	r2, r3, #16
 80092a0:	f248 0080 	movw	r0, #32896	; 0x8080
 80092a4:	4302      	orrs	r2, r0
 80092a6:	600a      	str	r2, [r1, #0]
 80092a8:	680b      	ldr	r3, [r1, #0]
 80092aa:	f423 4390 	bic.w	r3, r3, #18432	; 0x4800
 80092ae:	f023 0370 	bic.w	r3, r3, #112	; 0x70
 80092b2:	f483 5380 	eor.w	r3, r3, #4096	; 0x1000
 80092b6:	4303      	orrs	r3, r0
 80092b8:	600b      	str	r3, [r1, #0]
 80092ba:	b115      	cbz	r5, 80092c2 <_usb_ep0setup+0xf2>
 80092bc:	2105      	movs	r1, #5
 80092be:	4620      	mov	r0, r4
 80092c0:	47a8      	blx	r5
 80092c2:	2306      	movs	r3, #6
 80092c4:	f884 3064 	strb.w	r3, [r4, #100]	; 0x64
 80092c8:	bd70      	pop	{r4, r5, r6, pc}
 80092ca:	f894 1075 	ldrb.w	r1, [r4, #117]	; 0x75
 80092ce:	f003 027f 	and.w	r2, r3, #127	; 0x7f
 80092d2:	ea42 2201 	orr.w	r2, r2, r1, lsl #8
 80092d6:	f5b2 7f40 	cmp.w	r2, #768	; 0x300
 80092da:	f000 80f9 	beq.w	80094d0 <_usb_ep0setup+0x300>
 80092de:	d945      	bls.n	800936c <_usb_ep0setup+0x19c>
 80092e0:	f5b2 6fc0 	cmp.w	r2, #1536	; 0x600
 80092e4:	f000 80db 	beq.w	800949e <_usb_ep0setup+0x2ce>
 80092e8:	d912      	bls.n	8009310 <_usb_ep0setup+0x140>
 80092ea:	f5b2 6f10 	cmp.w	r2, #2304	; 0x900
 80092ee:	f000 8083 	beq.w	80093f8 <_usb_ep0setup+0x228>
 80092f2:	f640 4102 	movw	r1, #3074	; 0xc02
 80092f6:	428a      	cmp	r2, r1
 80092f8:	f000 80ca 	beq.w	8009490 <_usb_ep0setup+0x2c0>
 80092fc:	f5b2 6f00 	cmp.w	r2, #2048	; 0x800
 8009300:	d1c4      	bne.n	800928c <_usb_ep0setup+0xbc>
 8009302:	f104 027f 	add.w	r2, r4, #127	; 0x7f
 8009306:	2101      	movs	r1, #1
 8009308:	6725      	str	r5, [r4, #112]	; 0x70
 800930a:	e9c4 211a 	strd	r2, r1, [r4, #104]	; 0x68
 800930e:	e787      	b.n	8009220 <_usb_ep0setup+0x50>
 8009310:	f240 3302 	movw	r3, #770	; 0x302
 8009314:	429a      	cmp	r2, r3
 8009316:	f000 8091 	beq.w	800943c <_usb_ep0setup+0x26c>
 800931a:	f5b2 6fa0 	cmp.w	r2, #1280	; 0x500
 800931e:	d1b5      	bne.n	800928c <_usb_ep0setup+0xbc>
 8009320:	e9c4 551a 	strd	r5, r5, [r4, #104]	; 0x68
 8009324:	4b73      	ldr	r3, [pc, #460]	; (80094f4 <_usb_ep0setup+0x324>)
 8009326:	6723      	str	r3, [r4, #112]	; 0x70
 8009328:	0603      	lsls	r3, r0, #24
 800932a:	68e1      	ldr	r1, [r4, #12]
 800932c:	d45b      	bmi.n	80093e6 <_usb_ep0setup+0x216>
 800932e:	2305      	movs	r3, #5
 8009330:	f884 3064 	strb.w	r3, [r4, #100]	; 0x64
 8009334:	694b      	ldr	r3, [r1, #20]
 8009336:	2500      	movs	r5, #0
 8009338:	701d      	strb	r5, [r3, #0]
 800933a:	60dd      	str	r5, [r3, #12]
 800933c:	605d      	str	r5, [r3, #4]
 800933e:	609d      	str	r5, [r3, #8]
 8009340:	4629      	mov	r1, r5
 8009342:	4620      	mov	r0, r4
 8009344:	f7ff fe04 	bl	8008f50 <usb_lld_prepare_transmit>
 8009348:	2320      	movs	r3, #32
 800934a:	f383 8811 	msr	BASEPRI, r3
 800934e:	f7f7 fadf 	bl	8000910 <_stats_start_measure_crit_isr>
 8009352:	f7f7 fead 	bl	80010b0 <_dbg_check_lock_from_isr>
 8009356:	4629      	mov	r1, r5
 8009358:	4620      	mov	r0, r4
 800935a:	f7f7 fb21 	bl	80009a0 <usbStartTransmitI>
 800935e:	f7f7 fe8f 	bl	8001080 <_dbg_check_unlock_from_isr>
 8009362:	f7f7 fac5 	bl	80008f0 <_stats_stop_measure_crit_isr>
 8009366:	f385 8811 	msr	BASEPRI, r5
 800936a:	bd70      	pop	{r4, r5, r6, pc}
 800936c:	2a02      	cmp	r2, #2
 800936e:	f000 80c5 	beq.w	80094fc <_usb_ep0setup+0x32c>
 8009372:	f240 8082 	bls.w	800947a <_usb_ep0setup+0x2aa>
 8009376:	f5b2 7f80 	cmp.w	r2, #256	; 0x100
 800937a:	d050      	beq.n	800941e <_usb_ep0setup+0x24e>
 800937c:	f5b2 7f81 	cmp.w	r2, #258	; 0x102
 8009380:	d184      	bne.n	800928c <_usb_ep0setup+0xbc>
 8009382:	f894 3076 	ldrb.w	r3, [r4, #118]	; 0x76
 8009386:	2b00      	cmp	r3, #0
 8009388:	d180      	bne.n	800928c <_usb_ep0setup+0xbc>
 800938a:	f894 2078 	ldrb.w	r2, [r4, #120]	; 0x78
 800938e:	f012 030f 	ands.w	r3, r2, #15
 8009392:	d018      	beq.n	80093c6 <_usb_ep0setup+0x1f6>
 8009394:	009b      	lsls	r3, r3, #2
 8009396:	f103 4380 	add.w	r3, r3, #1073741824	; 0x40000000
 800939a:	f503 43b8 	add.w	r3, r3, #23552	; 0x5c00
 800939e:	f012 0f80 	tst.w	r2, #128	; 0x80
 80093a2:	681a      	ldr	r2, [r3, #0]
 80093a4:	f040 80c8 	bne.w	8009538 <_usb_ep0setup+0x368>
 80093a8:	f402 5240 	and.w	r2, r2, #12288	; 0x3000
 80093ac:	f5b2 5f40 	cmp.w	r2, #12288	; 0x3000
 80093b0:	d009      	beq.n	80093c6 <_usb_ep0setup+0x1f6>
 80093b2:	681a      	ldr	r2, [r3, #0]
 80093b4:	f422 42f0 	bic.w	r2, r2, #30720	; 0x7800
 80093b8:	f022 0240 	bic.w	r2, r2, #64	; 0x40
 80093bc:	f442 4220 	orr.w	r2, r2, #40960	; 0xa000
 80093c0:	f042 0280 	orr.w	r2, r2, #128	; 0x80
 80093c4:	601a      	str	r2, [r3, #0]
 80093c6:	2300      	movs	r3, #0
 80093c8:	e9c4 331a 	strd	r3, r3, [r4, #104]	; 0x68
 80093cc:	6723      	str	r3, [r4, #112]	; 0x70
 80093ce:	e7ab      	b.n	8009328 <_usb_ep0setup+0x158>
 80093d0:	b14a      	cbz	r2, 80093e6 <_usb_ep0setup+0x216>
 80093d2:	2301      	movs	r3, #1
 80093d4:	f884 3064 	strb.w	r3, [r4, #100]	; 0x64
 80093d8:	694b      	ldr	r3, [r1, #20]
 80093da:	6ea1      	ldr	r1, [r4, #104]	; 0x68
 80093dc:	60d9      	str	r1, [r3, #12]
 80093de:	2500      	movs	r5, #0
 80093e0:	605a      	str	r2, [r3, #4]
 80093e2:	701d      	strb	r5, [r3, #0]
 80093e4:	e7ab      	b.n	800933e <_usb_ep0setup+0x16e>
 80093e6:	2303      	movs	r3, #3
 80093e8:	f884 3064 	strb.w	r3, [r4, #100]	; 0x64
 80093ec:	698b      	ldr	r3, [r1, #24]
 80093ee:	2500      	movs	r5, #0
 80093f0:	701d      	strb	r5, [r3, #0]
 80093f2:	60dd      	str	r5, [r3, #12]
 80093f4:	605d      	str	r5, [r3, #4]
 80093f6:	e72c      	b.n	8009252 <_usb_ep0setup+0x82>
 80093f8:	f894 3076 	ldrb.w	r3, [r4, #118]	; 0x76
 80093fc:	f884 307f 	strb.w	r3, [r4, #127]	; 0x7f
 8009400:	2b00      	cmp	r3, #0
 8009402:	f040 808e 	bne.w	8009522 <_usb_ep0setup+0x352>
 8009406:	2303      	movs	r3, #3
 8009408:	7023      	strb	r3, [r4, #0]
 800940a:	6863      	ldr	r3, [r4, #4]
 800940c:	681b      	ldr	r3, [r3, #0]
 800940e:	2b00      	cmp	r3, #0
 8009410:	d0d9      	beq.n	80093c6 <_usb_ep0setup+0x1f6>
 8009412:	4620      	mov	r0, r4
 8009414:	2102      	movs	r1, #2
 8009416:	4798      	blx	r3
 8009418:	f894 0074 	ldrb.w	r0, [r4, #116]	; 0x74
 800941c:	e7d3      	b.n	80093c6 <_usb_ep0setup+0x1f6>
 800941e:	f894 3076 	ldrb.w	r3, [r4, #118]	; 0x76
 8009422:	2b01      	cmp	r3, #1
 8009424:	f47f af32 	bne.w	800928c <_usb_ep0setup+0xbc>
 8009428:	f8b4 307c 	ldrh.w	r3, [r4, #124]	; 0x7c
 800942c:	66a5      	str	r5, [r4, #104]	; 0x68
 800942e:	f023 0302 	bic.w	r3, r3, #2
 8009432:	e9c4 551b 	strd	r5, r5, [r4, #108]	; 0x6c
 8009436:	f8a4 307c 	strh.w	r3, [r4, #124]	; 0x7c
 800943a:	e775      	b.n	8009328 <_usb_ep0setup+0x158>
 800943c:	f894 3076 	ldrb.w	r3, [r4, #118]	; 0x76
 8009440:	2b00      	cmp	r3, #0
 8009442:	f47f af23 	bne.w	800928c <_usb_ep0setup+0xbc>
 8009446:	f894 2078 	ldrb.w	r2, [r4, #120]	; 0x78
 800944a:	f012 030f 	ands.w	r3, r2, #15
 800944e:	d0ba      	beq.n	80093c6 <_usb_ep0setup+0x1f6>
 8009450:	009b      	lsls	r3, r3, #2
 8009452:	f103 4380 	add.w	r3, r3, #1073741824	; 0x40000000
 8009456:	f503 43b8 	add.w	r3, r3, #23552	; 0x5c00
 800945a:	f012 0f80 	tst.w	r2, #128	; 0x80
 800945e:	681a      	ldr	r2, [r3, #0]
 8009460:	d17c      	bne.n	800955c <_usb_ep0setup+0x38c>
 8009462:	f422 4290 	bic.w	r2, r2, #18432	; 0x4800
 8009466:	f022 0270 	bic.w	r2, r2, #112	; 0x70
 800946a:	f482 5280 	eor.w	r2, r2, #4096	; 0x1000
 800946e:	f442 4200 	orr.w	r2, r2, #32768	; 0x8000
 8009472:	f042 0280 	orr.w	r2, r2, #128	; 0x80
 8009476:	601a      	str	r2, [r3, #0]
 8009478:	e7a5      	b.n	80093c6 <_usb_ep0setup+0x1f6>
 800947a:	b932      	cbnz	r2, 800948a <_usb_ep0setup+0x2ba>
 800947c:	f104 007c 	add.w	r0, r4, #124	; 0x7c
 8009480:	2102      	movs	r1, #2
 8009482:	6722      	str	r2, [r4, #112]	; 0x70
 8009484:	e9c4 011a 	strd	r0, r1, [r4, #104]	; 0x68
 8009488:	e6ca      	b.n	8009220 <_usb_ep0setup+0x50>
 800948a:	2a01      	cmp	r2, #1
 800948c:	f47f aefe 	bne.w	800928c <_usb_ep0setup+0xbc>
 8009490:	4a19      	ldr	r2, [pc, #100]	; (80094f8 <_usb_ep0setup+0x328>)
 8009492:	66a2      	str	r2, [r4, #104]	; 0x68
 8009494:	2102      	movs	r1, #2
 8009496:	2200      	movs	r2, #0
 8009498:	e9c4 121b 	strd	r1, r2, [r4, #108]	; 0x6c
 800949c:	e6c0      	b.n	8009220 <_usb_ep0setup+0x50>
 800949e:	f894 0079 	ldrb.w	r0, [r4, #121]	; 0x79
 80094a2:	6861      	ldr	r1, [r4, #4]
 80094a4:	f894 3078 	ldrb.w	r3, [r4, #120]	; 0x78
 80094a8:	684e      	ldr	r6, [r1, #4]
 80094aa:	f894 2076 	ldrb.w	r2, [r4, #118]	; 0x76
 80094ae:	f894 1077 	ldrb.w	r1, [r4, #119]	; 0x77
 80094b2:	ea43 2300 	orr.w	r3, r3, r0, lsl #8
 80094b6:	4620      	mov	r0, r4
 80094b8:	47b0      	blx	r6
 80094ba:	2800      	cmp	r0, #0
 80094bc:	f43f aee6 	beq.w	800928c <_usb_ep0setup+0xbc>
 80094c0:	e9d0 1300 	ldrd	r1, r3, [r0]
 80094c4:	6725      	str	r5, [r4, #112]	; 0x70
 80094c6:	e9c4 311a 	strd	r3, r1, [r4, #104]	; 0x68
 80094ca:	f894 3074 	ldrb.w	r3, [r4, #116]	; 0x74
 80094ce:	e6a7      	b.n	8009220 <_usb_ep0setup+0x50>
 80094d0:	f894 3076 	ldrb.w	r3, [r4, #118]	; 0x76
 80094d4:	2b01      	cmp	r3, #1
 80094d6:	f47f aed9 	bne.w	800928c <_usb_ep0setup+0xbc>
 80094da:	f8b4 307c 	ldrh.w	r3, [r4, #124]	; 0x7c
 80094de:	66a5      	str	r5, [r4, #104]	; 0x68
 80094e0:	f043 0302 	orr.w	r3, r3, #2
 80094e4:	e9c4 551b 	strd	r5, r5, [r4, #108]	; 0x6c
 80094e8:	f8a4 307c 	strh.w	r3, [r4, #124]	; 0x7c
 80094ec:	e71c      	b.n	8009328 <_usb_ep0setup+0x158>
 80094ee:	bf00      	nop
 80094f0:	40005c00 	.word	0x40005c00
 80094f4:	08000711 	.word	0x08000711
 80094f8:	0800b4b0 	.word	0x0800b4b0
 80094fc:	f894 2078 	ldrb.w	r2, [r4, #120]	; 0x78
 8009500:	f002 010f 	and.w	r1, r2, #15
 8009504:	f012 0f80 	tst.w	r2, #128	; 0x80
 8009508:	4a1a      	ldr	r2, [pc, #104]	; (8009574 <_usb_ep0setup+0x3a4>)
 800950a:	f852 2021 	ldr.w	r2, [r2, r1, lsl #2]
 800950e:	d10b      	bne.n	8009528 <_usb_ep0setup+0x358>
 8009510:	f412 5240 	ands.w	r2, r2, #12288	; 0x3000
 8009514:	f43f aeba 	beq.w	800928c <_usb_ep0setup+0xbc>
 8009518:	f5b2 5f80 	cmp.w	r2, #4096	; 0x1000
 800951c:	d10a      	bne.n	8009534 <_usb_ep0setup+0x364>
 800951e:	4a16      	ldr	r2, [pc, #88]	; (8009578 <_usb_ep0setup+0x3a8>)
 8009520:	e7b7      	b.n	8009492 <_usb_ep0setup+0x2c2>
 8009522:	2304      	movs	r3, #4
 8009524:	7023      	strb	r3, [r4, #0]
 8009526:	e770      	b.n	800940a <_usb_ep0setup+0x23a>
 8009528:	f012 0230 	ands.w	r2, r2, #48	; 0x30
 800952c:	f43f aeae 	beq.w	800928c <_usb_ep0setup+0xbc>
 8009530:	2a10      	cmp	r2, #16
 8009532:	d0f4      	beq.n	800951e <_usb_ep0setup+0x34e>
 8009534:	4a11      	ldr	r2, [pc, #68]	; (800957c <_usb_ep0setup+0x3ac>)
 8009536:	e7ac      	b.n	8009492 <_usb_ep0setup+0x2c2>
 8009538:	f002 0230 	and.w	r2, r2, #48	; 0x30
 800953c:	2a30      	cmp	r2, #48	; 0x30
 800953e:	f43f af42 	beq.w	80093c6 <_usb_ep0setup+0x1f6>
 8009542:	681a      	ldr	r2, [r3, #0]
 8009544:	f422 42f0 	bic.w	r2, r2, #30720	; 0x7800
 8009548:	f022 0240 	bic.w	r2, r2, #64	; 0x40
 800954c:	f082 0220 	eor.w	r2, r2, #32
 8009550:	f442 4200 	orr.w	r2, r2, #32768	; 0x8000
 8009554:	f042 0280 	orr.w	r2, r2, #128	; 0x80
 8009558:	601a      	str	r2, [r3, #0]
 800955a:	e734      	b.n	80093c6 <_usb_ep0setup+0x1f6>
 800955c:	f422 42f0 	bic.w	r2, r2, #30720	; 0x7800
 8009560:	f022 0240 	bic.w	r2, r2, #64	; 0x40
 8009564:	f082 0210 	eor.w	r2, r2, #16
 8009568:	f442 4200 	orr.w	r2, r2, #32768	; 0x8000
 800956c:	f042 0280 	orr.w	r2, r2, #128	; 0x80
 8009570:	601a      	str	r2, [r3, #0]
 8009572:	e728      	b.n	80093c6 <_usb_ep0setup+0x1f6>
 8009574:	40005c00 	.word	0x40005c00
 8009578:	0800a880 	.word	0x0800a880
 800957c:	0800a2f0 	.word	0x0800a2f0

08009580 <onotify>:
 8009580:	b570      	push	{r4, r5, r6, lr}
 8009582:	6a04      	ldr	r4, [r0, #32]
 8009584:	f8d4 2254 	ldr.w	r2, [r4, #596]	; 0x254
 8009588:	6813      	ldr	r3, [r2, #0]
 800958a:	7819      	ldrb	r1, [r3, #0]
 800958c:	2904      	cmp	r1, #4
 800958e:	d000      	beq.n	8009592 <onotify+0x12>
 8009590:	bd70      	pop	{r4, r5, r6, pc}
 8009592:	7a21      	ldrb	r1, [r4, #8]
 8009594:	2902      	cmp	r1, #2
 8009596:	d1fb      	bne.n	8009590 <onotify+0x10>
 8009598:	7911      	ldrb	r1, [r2, #4]
 800959a:	891a      	ldrh	r2, [r3, #8]
 800959c:	2301      	movs	r3, #1
 800959e:	408b      	lsls	r3, r1
 80095a0:	4213      	tst	r3, r2
 80095a2:	d1f5      	bne.n	8009590 <onotify+0x10>
 80095a4:	f7f7 f9ec 	bl	8000980 <chDbgCheckClassI>
 80095a8:	e9d4 230f 	ldrd	r2, r3, [r4, #60]	; 0x3c
 80095ac:	6ba5      	ldr	r5, [r4, #56]	; 0x38
 80095ae:	1a9b      	subs	r3, r3, r2
 80095b0:	1b5d      	subs	r5, r3, r5
 80095b2:	d0ed      	beq.n	8009590 <onotify+0x10>
 80095b4:	f7f8 fe54 	bl	8002260 <_dbg_check_unlock>
 80095b8:	f7f8 fe3a 	bl	8002230 <_stats_stop_measure_crit_thd>
 80095bc:	4b17      	ldr	r3, [pc, #92]	; (800961c <onotify+0x9c>)
 80095be:	681a      	ldr	r2, [r3, #0]
 80095c0:	429a      	cmp	r2, r3
 80095c2:	d004      	beq.n	80095ce <onotify+0x4e>
 80095c4:	6999      	ldr	r1, [r3, #24]
 80095c6:	6892      	ldr	r2, [r2, #8]
 80095c8:	6889      	ldr	r1, [r1, #8]
 80095ca:	4291      	cmp	r1, r2
 80095cc:	d322      	bcc.n	8009614 <onotify+0x94>
 80095ce:	2200      	movs	r2, #0
 80095d0:	f382 8811 	msr	BASEPRI, r2
 80095d4:	f8d4 3254 	ldr.w	r3, [r4, #596]	; 0x254
 80095d8:	6818      	ldr	r0, [r3, #0]
 80095da:	7919      	ldrb	r1, [r3, #4]
 80095dc:	eb00 0381 	add.w	r3, r0, r1, lsl #2
 80095e0:	2601      	movs	r6, #1
 80095e2:	68db      	ldr	r3, [r3, #12]
 80095e4:	695b      	ldr	r3, [r3, #20]
 80095e6:	605d      	str	r5, [r3, #4]
 80095e8:	f104 0530 	add.w	r5, r4, #48	; 0x30
 80095ec:	609a      	str	r2, [r3, #8]
 80095ee:	701e      	strb	r6, [r3, #0]
 80095f0:	60dd      	str	r5, [r3, #12]
 80095f2:	f7ff fcad 	bl	8008f50 <usb_lld_prepare_transmit>
 80095f6:	2320      	movs	r3, #32
 80095f8:	f383 8811 	msr	BASEPRI, r3
 80095fc:	f7f8 fe20 	bl	8002240 <_stats_start_measure_crit_thd>
 8009600:	f7f8 ff0e 	bl	8002420 <_dbg_check_lock>
 8009604:	f8d4 3254 	ldr.w	r3, [r4, #596]	; 0x254
 8009608:	e8bd 4070 	ldmia.w	sp!, {r4, r5, r6, lr}
 800960c:	7919      	ldrb	r1, [r3, #4]
 800960e:	6818      	ldr	r0, [r3, #0]
 8009610:	f7f7 b9c6 	b.w	80009a0 <usbStartTransmitI>
 8009614:	b672      	cpsid	i
 8009616:	4a02      	ldr	r2, [pc, #8]	; (8009620 <onotify+0xa0>)
 8009618:	62da      	str	r2, [r3, #44]	; 0x2c
 800961a:	e7fe      	b.n	800961a <onotify+0x9a>
 800961c:	20001558 	.word	0x20001558
 8009620:	08009e30 	.word	0x08009e30
	...

08009630 <sduDataTransmitted>:
 8009630:	e92d 43f8 	stmdb	sp!, {r3, r4, r5, r6, r7, r8, r9, lr}
 8009634:	eb00 0381 	add.w	r3, r0, r1, lsl #2
 8009638:	6a9c      	ldr	r4, [r3, #40]	; 0x28
 800963a:	2c00      	cmp	r4, #0
 800963c:	d044      	beq.n	80096c8 <sduDataTransmitted+0x98>
 800963e:	460f      	mov	r7, r1
 8009640:	4606      	mov	r6, r0
 8009642:	f04f 0820 	mov.w	r8, #32
 8009646:	f388 8811 	msr	BASEPRI, r8
 800964a:	f7f7 f961 	bl	8000910 <_stats_start_measure_crit_isr>
 800964e:	f7f7 fd2f 	bl	80010b0 <_dbg_check_lock_from_isr>
 8009652:	1d20      	adds	r0, r4, #4
 8009654:	2108      	movs	r1, #8
 8009656:	f7f7 fb13 	bl	8000c80 <chEvtBroadcastFlagsI>
 800965a:	f7f7 f991 	bl	8000980 <chDbgCheckClassI>
 800965e:	e9d4 230f 	ldrd	r2, r3, [r4, #60]	; 0x3c
 8009662:	6ba5      	ldr	r5, [r4, #56]	; 0x38
 8009664:	1a9b      	subs	r3, r3, r2
 8009666:	1b5d      	subs	r5, r3, r5
 8009668:	d130      	bne.n	80096cc <sduDataTransmitted+0x9c>
 800966a:	eb06 0987 	add.w	r9, r6, r7, lsl #2
 800966e:	f8d9 300c 	ldr.w	r3, [r9, #12]
 8009672:	695a      	ldr	r2, [r3, #20]
 8009674:	6855      	ldr	r5, [r2, #4]
 8009676:	b305      	cbz	r5, 80096ba <sduDataTransmitted+0x8a>
 8009678:	8a1b      	ldrh	r3, [r3, #16]
 800967a:	3b01      	subs	r3, #1
 800967c:	401d      	ands	r5, r3
 800967e:	d11c      	bne.n	80096ba <sduDataTransmitted+0x8a>
 8009680:	f7f7 fcfe 	bl	8001080 <_dbg_check_unlock_from_isr>
 8009684:	f7f7 f934 	bl	80008f0 <_stats_stop_measure_crit_isr>
 8009688:	f385 8811 	msr	BASEPRI, r5
 800968c:	f8d9 300c 	ldr.w	r3, [r9, #12]
 8009690:	695b      	ldr	r3, [r3, #20]
 8009692:	e9c3 5501 	strd	r5, r5, [r3, #4]
 8009696:	3430      	adds	r4, #48	; 0x30
 8009698:	2201      	movs	r2, #1
 800969a:	60dc      	str	r4, [r3, #12]
 800969c:	701a      	strb	r2, [r3, #0]
 800969e:	4639      	mov	r1, r7
 80096a0:	4630      	mov	r0, r6
 80096a2:	f7ff fc55 	bl	8008f50 <usb_lld_prepare_transmit>
 80096a6:	f388 8811 	msr	BASEPRI, r8
 80096aa:	f7f7 f931 	bl	8000910 <_stats_start_measure_crit_isr>
 80096ae:	f7f7 fcff 	bl	80010b0 <_dbg_check_lock_from_isr>
 80096b2:	4639      	mov	r1, r7
 80096b4:	4630      	mov	r0, r6
 80096b6:	f7f7 f973 	bl	80009a0 <usbStartTransmitI>
 80096ba:	f7f7 fce1 	bl	8001080 <_dbg_check_unlock_from_isr>
 80096be:	f7f7 f917 	bl	80008f0 <_stats_stop_measure_crit_isr>
 80096c2:	2300      	movs	r3, #0
 80096c4:	f383 8811 	msr	BASEPRI, r3
 80096c8:	e8bd 83f8 	ldmia.w	sp!, {r3, r4, r5, r6, r7, r8, r9, pc}
 80096cc:	f7f7 fcd8 	bl	8001080 <_dbg_check_unlock_from_isr>
 80096d0:	f7f7 f90e 	bl	80008f0 <_stats_stop_measure_crit_isr>
 80096d4:	2200      	movs	r2, #0
 80096d6:	f382 8811 	msr	BASEPRI, r2
 80096da:	eb06 0387 	add.w	r3, r6, r7, lsl #2
 80096de:	3430      	adds	r4, #48	; 0x30
 80096e0:	68db      	ldr	r3, [r3, #12]
 80096e2:	695b      	ldr	r3, [r3, #20]
 80096e4:	2101      	movs	r1, #1
 80096e6:	60dc      	str	r4, [r3, #12]
 80096e8:	e9c3 5201 	strd	r5, r2, [r3, #4]
 80096ec:	7019      	strb	r1, [r3, #0]
 80096ee:	e7d6      	b.n	800969e <sduDataTransmitted+0x6e>

080096f0 <Vector16C>:
 80096f0:	e92d 4ff0 	stmdb	sp!, {r4, r5, r6, r7, r8, r9, sl, fp, lr}
 80096f4:	4aab      	ldr	r2, [pc, #684]	; (80099a4 <Vector16C+0x2b4>)
 80096f6:	f8d2 34a8 	ldr.w	r3, [r2, #1192]	; 0x4a8
 80096fa:	b083      	sub	sp, #12
 80096fc:	3301      	adds	r3, #1
 80096fe:	f8c2 34a8 	str.w	r3, [r2, #1192]	; 0x4a8
 8009702:	f7f7 fc8d 	bl	8001020 <_dbg_check_enter_isr>
 8009706:	4ba8      	ldr	r3, [pc, #672]	; (80099a8 <Vector16C+0x2b8>)
 8009708:	6c5c      	ldr	r4, [r3, #68]	; 0x44
 800970a:	0562      	lsls	r2, r4, #21
 800970c:	f100 812d 	bmi.w	800996a <Vector16C+0x27a>
 8009710:	0523      	lsls	r3, r4, #20
 8009712:	d50f      	bpl.n	8009734 <Vector16C+0x44>
 8009714:	4ea5      	ldr	r6, [pc, #660]	; (80099ac <Vector16C+0x2bc>)
 8009716:	4aa4      	ldr	r2, [pc, #656]	; (80099a8 <Vector16C+0x2b8>)
 8009718:	6871      	ldr	r1, [r6, #4]
 800971a:	6c13      	ldr	r3, [r2, #64]	; 0x40
 800971c:	680d      	ldr	r5, [r1, #0]
 800971e:	f043 0308 	orr.w	r3, r3, #8
 8009722:	6413      	str	r3, [r2, #64]	; 0x40
 8009724:	b115      	cbz	r5, 800972c <Vector16C+0x3c>
 8009726:	4630      	mov	r0, r6
 8009728:	2103      	movs	r1, #3
 800972a:	47a8      	blx	r5
 800972c:	4b9e      	ldr	r3, [pc, #632]	; (80099a8 <Vector16C+0x2b8>)
 800972e:	f46f 6200 	mvn.w	r2, #2048	; 0x800
 8009732:	645a      	str	r2, [r3, #68]	; 0x44
 8009734:	04e7      	lsls	r7, r4, #19
 8009736:	d507      	bpl.n	8009748 <Vector16C+0x58>
 8009738:	4b9b      	ldr	r3, [pc, #620]	; (80099a8 <Vector16C+0x2b8>)
 800973a:	6c9a      	ldr	r2, [r3, #72]	; 0x48
 800973c:	0416      	lsls	r6, r2, #16
 800973e:	d56b      	bpl.n	8009818 <Vector16C+0x128>
 8009740:	4b99      	ldr	r3, [pc, #612]	; (80099a8 <Vector16C+0x2b8>)
 8009742:	f46f 5280 	mvn.w	r2, #4096	; 0x1000
 8009746:	645a      	str	r2, [r3, #68]	; 0x44
 8009748:	05a5      	lsls	r5, r4, #22
 800974a:	d509      	bpl.n	8009760 <Vector16C+0x70>
 800974c:	4e97      	ldr	r6, [pc, #604]	; (80099ac <Vector16C+0x2bc>)
 800974e:	6873      	ldr	r3, [r6, #4]
 8009750:	68db      	ldr	r3, [r3, #12]
 8009752:	b10b      	cbz	r3, 8009758 <Vector16C+0x68>
 8009754:	4630      	mov	r0, r6
 8009756:	4798      	blx	r3
 8009758:	4b93      	ldr	r3, [pc, #588]	; (80099a8 <Vector16C+0x2b8>)
 800975a:	f46f 7200 	mvn.w	r2, #512	; 0x200
 800975e:	645a      	str	r2, [r3, #68]	; 0x44
 8009760:	0423      	lsls	r3, r4, #16
 8009762:	d552      	bpl.n	800980a <Vector16C+0x11a>
 8009764:	4e91      	ldr	r6, [pc, #580]	; (80099ac <Vector16C+0x2bc>)
 8009766:	f8df b240 	ldr.w	fp, [pc, #576]	; 80099a8 <Vector16C+0x2b8>
 800976a:	f004 040f 	and.w	r4, r4, #15
 800976e:	ea4f 0984 	mov.w	r9, r4, lsl #2
 8009772:	f109 4580 	add.w	r5, r9, #1073741824	; 0x40000000
 8009776:	f505 45b8 	add.w	r5, r5, #23552	; 0x5c00
 800977a:	f104 0802 	add.w	r8, r4, #2
 800977e:	682f      	ldr	r7, [r5, #0]
 8009780:	eb06 0388 	add.w	r3, r6, r8, lsl #2
 8009784:	0638      	lsls	r0, r7, #24
 8009786:	f8d3 a004 	ldr.w	sl, [r3, #4]
 800978a:	d526      	bpl.n	80097da <Vector16C+0xea>
 800978c:	682b      	ldr	r3, [r5, #0]
 800978e:	f8da 1014 	ldr.w	r1, [sl, #20]
 8009792:	f423 4378 	bic.w	r3, r3, #63488	; 0xf800
 8009796:	f023 03f0 	bic.w	r3, r3, #240	; 0xf0
 800979a:	f443 4300 	orr.w	r3, r3, #32768	; 0x8000
 800979e:	602b      	str	r3, [r5, #0]
 80097a0:	f8db 0050 	ldr.w	r0, [fp, #80]	; 0x50
 80097a4:	f100 5000 	add.w	r0, r0, #536870912	; 0x20000000
 80097a8:	f500 5040 	add.w	r0, r0, #12288	; 0x3000
 80097ac:	ea4f 0cc4 	mov.w	ip, r4, lsl #3
 80097b0:	4460      	add	r0, ip
 80097b2:	0040      	lsls	r0, r0, #1
 80097b4:	e9d1 2301 	ldrd	r2, r3, [r1, #4]
 80097b8:	6840      	ldr	r0, [r0, #4]
 80097ba:	4403      	add	r3, r0
 80097bc:	608b      	str	r3, [r1, #8]
 80097be:	1ad3      	subs	r3, r2, r3
 80097c0:	f040 8081 	bne.w	80098c6 <Vector16C+0x1d6>
 80097c4:	8933      	ldrh	r3, [r6, #8]
 80097c6:	f8da 2008 	ldr.w	r2, [sl, #8]
 80097ca:	4878      	ldr	r0, [pc, #480]	; (80099ac <Vector16C+0x2bc>)
 80097cc:	2101      	movs	r1, #1
 80097ce:	40a1      	lsls	r1, r4
 80097d0:	ea23 0301 	bic.w	r3, r3, r1
 80097d4:	8133      	strh	r3, [r6, #8]
 80097d6:	4621      	mov	r1, r4
 80097d8:	4790      	blx	r2
 80097da:	0439      	lsls	r1, r7, #16
 80097dc:	d511      	bpl.n	8009802 <Vector16C+0x112>
 80097de:	682b      	ldr	r3, [r5, #0]
 80097e0:	f423 4378 	bic.w	r3, r3, #63488	; 0xf800
 80097e4:	f023 03f0 	bic.w	r3, r3, #240	; 0xf0
 80097e8:	f043 0380 	orr.w	r3, r3, #128	; 0x80
 80097ec:	053a      	lsls	r2, r7, #20
 80097ee:	602b      	str	r3, [r5, #0]
 80097f0:	d51f      	bpl.n	8009832 <Vector16C+0x142>
 80097f2:	eb06 0888 	add.w	r8, r6, r8, lsl #2
 80097f6:	4621      	mov	r1, r4
 80097f8:	f8d8 3004 	ldr.w	r3, [r8, #4]
 80097fc:	486b      	ldr	r0, [pc, #428]	; (80099ac <Vector16C+0x2bc>)
 80097fe:	685b      	ldr	r3, [r3, #4]
 8009800:	4798      	blx	r3
 8009802:	f8db 4044 	ldr.w	r4, [fp, #68]	; 0x44
 8009806:	0422      	lsls	r2, r4, #16
 8009808:	d4af      	bmi.n	800976a <Vector16C+0x7a>
 800980a:	f7f7 fbf1 	bl	8000ff0 <_dbg_check_leave_isr>
 800980e:	b003      	add	sp, #12
 8009810:	e8bd 4ff0 	ldmia.w	sp!, {r4, r5, r6, r7, r8, r9, sl, fp, lr}
 8009814:	f7f6 bfcc 	b.w	80007b0 <_port_irq_epilogue>
 8009818:	4e64      	ldr	r6, [pc, #400]	; (80099ac <Vector16C+0x2bc>)
 800981a:	6c1a      	ldr	r2, [r3, #64]	; 0x40
 800981c:	6871      	ldr	r1, [r6, #4]
 800981e:	680d      	ldr	r5, [r1, #0]
 8009820:	f022 0208 	bic.w	r2, r2, #8
 8009824:	641a      	str	r2, [r3, #64]	; 0x40
 8009826:	2d00      	cmp	r5, #0
 8009828:	d08a      	beq.n	8009740 <Vector16C+0x50>
 800982a:	4630      	mov	r0, r6
 800982c:	2104      	movs	r1, #4
 800982e:	47a8      	blx	r5
 8009830:	e786      	b.n	8009740 <Vector16C+0x50>
 8009832:	f8db 3050 	ldr.w	r3, [fp, #80]	; 0x50
 8009836:	f8da 0018 	ldr.w	r0, [sl, #24]
 800983a:	f103 5300 	add.w	r3, r3, #536870912	; 0x20000000
 800983e:	f503 5340 	add.w	r3, r3, #12288	; 0x3000
 8009842:	eb03 03c4 	add.w	r3, r3, r4, lsl #3
 8009846:	005b      	lsls	r3, r3, #1
 8009848:	7802      	ldrb	r2, [r0, #0]
 800984a:	68d9      	ldr	r1, [r3, #12]
 800984c:	9100      	str	r1, [sp, #0]
 800984e:	460f      	mov	r7, r1
 8009850:	f3c7 0709 	ubfx	r7, r7, #0, #10
 8009854:	68c1      	ldr	r1, [r0, #12]
 8009856:	2a00      	cmp	r2, #0
 8009858:	f040 80aa 	bne.w	80099b0 <Vector16C+0x2c0>
 800985c:	689a      	ldr	r2, [r3, #8]
 800985e:	f107 0c01 	add.w	ip, r7, #1
 8009862:	f102 5200 	add.w	r2, r2, #536870912	; 0x20000000
 8009866:	f502 5240 	add.w	r2, r2, #12288	; 0x3000
 800986a:	ea5f 0c5c 	movs.w	ip, ip, lsr #1
 800986e:	ea4f 0242 	mov.w	r2, r2, lsl #1
 8009872:	d008      	beq.n	8009886 <Vector16C+0x196>
 8009874:	eb02 0c8c 	add.w	ip, r2, ip, lsl #2
 8009878:	468e      	mov	lr, r1
 800987a:	6813      	ldr	r3, [r2, #0]
 800987c:	f82e 3b02 	strh.w	r3, [lr], #2
 8009880:	3204      	adds	r2, #4
 8009882:	4562      	cmp	r2, ip
 8009884:	d1f9      	bne.n	800987a <Vector16C+0x18a>
 8009886:	4439      	add	r1, r7
 8009888:	60c1      	str	r1, [r0, #12]
 800988a:	e9d0 3201 	ldrd	r3, r2, [r0, #4]
 800988e:	8a01      	ldrh	r1, [r0, #16]
 8009890:	f8ba c012 	ldrh.w	ip, [sl, #18]
 8009894:	3901      	subs	r1, #1
 8009896:	b289      	uxth	r1, r1
 8009898:	443a      	add	r2, r7
 800989a:	1bdb      	subs	r3, r3, r7
 800989c:	45bc      	cmp	ip, r7
 800989e:	8201      	strh	r1, [r0, #16]
 80098a0:	e9c0 3201 	strd	r3, r2, [r0, #4]
 80098a4:	f240 80df 	bls.w	8009a66 <Vector16C+0x376>
 80098a8:	eb06 0888 	add.w	r8, r6, r8, lsl #2
 80098ac:	8973      	ldrh	r3, [r6, #10]
 80098ae:	f8d8 1004 	ldr.w	r1, [r8, #4]
 80098b2:	483e      	ldr	r0, [pc, #248]	; (80099ac <Vector16C+0x2bc>)
 80098b4:	2201      	movs	r2, #1
 80098b6:	40a2      	lsls	r2, r4
 80098b8:	ea23 0302 	bic.w	r3, r3, r2
 80098bc:	8173      	strh	r3, [r6, #10]
 80098be:	68ca      	ldr	r2, [r1, #12]
 80098c0:	4621      	mov	r1, r4
 80098c2:	4790      	blx	r2
 80098c4:	e79d      	b.n	8009802 <Vector16C+0x112>
 80098c6:	f8ba 2010 	ldrh.w	r2, [sl, #16]
 80098ca:	9201      	str	r2, [sp, #4]
 80098cc:	68ca      	ldr	r2, [r1, #12]
 80098ce:	9200      	str	r2, [sp, #0]
 80098d0:	9a01      	ldr	r2, [sp, #4]
 80098d2:	f891 e000 	ldrb.w	lr, [r1]
 80098d6:	429a      	cmp	r2, r3
 80098d8:	bf28      	it	cs
 80098da:	461a      	movcs	r2, r3
 80098dc:	f1be 0f00 	cmp.w	lr, #0
 80098e0:	f040 80b5 	bne.w	8009a4e <Vector16C+0x35e>
 80098e4:	f8db 3050 	ldr.w	r3, [fp, #80]	; 0x50
 80098e8:	f103 5300 	add.w	r3, r3, #536870912	; 0x20000000
 80098ec:	f503 5340 	add.w	r3, r3, #12288	; 0x3000
 80098f0:	449c      	add	ip, r3
 80098f2:	9b00      	ldr	r3, [sp, #0]
 80098f4:	ea4f 0c4c 	mov.w	ip, ip, lsl #1
 80098f8:	4403      	add	r3, r0
 80098fa:	4618      	mov	r0, r3
 80098fc:	f8dc 3000 	ldr.w	r3, [ip]
 8009900:	60c8      	str	r0, [r1, #12]
 8009902:	f103 5300 	add.w	r3, r3, #536870912	; 0x20000000
 8009906:	1c51      	adds	r1, r2, #1
 8009908:	f503 5340 	add.w	r3, r3, #12288	; 0x3000
 800990c:	0849      	lsrs	r1, r1, #1
 800990e:	ea4f 0343 	mov.w	r3, r3, lsl #1
 8009912:	f8cc 2004 	str.w	r2, [ip, #4]
 8009916:	d007      	beq.n	8009928 <Vector16C+0x238>
 8009918:	eb03 0181 	add.w	r1, r3, r1, lsl #2
 800991c:	f830 2b02 	ldrh.w	r2, [r0], #2
 8009920:	601a      	str	r2, [r3, #0]
 8009922:	3304      	adds	r3, #4
 8009924:	428b      	cmp	r3, r1
 8009926:	d1f9      	bne.n	800991c <Vector16C+0x22c>
 8009928:	2320      	movs	r3, #32
 800992a:	f383 8811 	msr	BASEPRI, r3
 800992e:	f109 4980 	add.w	r9, r9, #1073741824	; 0x40000000
 8009932:	f509 49b8 	add.w	r9, r9, #23552	; 0x5c00
 8009936:	f7f6 ffeb 	bl	8000910 <_stats_start_measure_crit_isr>
 800993a:	f7f7 fbb9 	bl	80010b0 <_dbg_check_lock_from_isr>
 800993e:	f8d9 3000 	ldr.w	r3, [r9]
 8009942:	f423 43f0 	bic.w	r3, r3, #30720	; 0x7800
 8009946:	f023 0340 	bic.w	r3, r3, #64	; 0x40
 800994a:	f083 0330 	eor.w	r3, r3, #48	; 0x30
 800994e:	f443 4300 	orr.w	r3, r3, #32768	; 0x8000
 8009952:	f043 0380 	orr.w	r3, r3, #128	; 0x80
 8009956:	f8c9 3000 	str.w	r3, [r9]
 800995a:	f7f7 fb91 	bl	8001080 <_dbg_check_unlock_from_isr>
 800995e:	f7f6 ffc7 	bl	80008f0 <_stats_stop_measure_crit_isr>
 8009962:	2300      	movs	r3, #0
 8009964:	f383 8811 	msr	BASEPRI, r3
 8009968:	e737      	b.n	80097da <Vector16C+0xea>
 800996a:	4e10      	ldr	r6, [pc, #64]	; (80099ac <Vector16C+0x2bc>)
 800996c:	2500      	movs	r5, #0
 800996e:	2302      	movs	r3, #2
 8009970:	67f5      	str	r5, [r6, #124]	; 0x7c
 8009972:	e9c6 5502 	strd	r5, r5, [r6, #8]
 8009976:	e9c6 5504 	strd	r5, r5, [r6, #16]
 800997a:	e9c6 5506 	strd	r5, r5, [r6, #24]
 800997e:	e9c6 5508 	strd	r5, r5, [r6, #32]
 8009982:	62b5      	str	r5, [r6, #40]	; 0x28
 8009984:	7033      	strb	r3, [r6, #0]
 8009986:	f886 5064 	strb.w	r5, [r6, #100]	; 0x64
 800998a:	f7f6 fe99 	bl	80006c0 <usb_lld_reset.constprop.13>
 800998e:	6873      	ldr	r3, [r6, #4]
 8009990:	681b      	ldr	r3, [r3, #0]
 8009992:	b113      	cbz	r3, 800999a <Vector16C+0x2aa>
 8009994:	4629      	mov	r1, r5
 8009996:	4630      	mov	r0, r6
 8009998:	4798      	blx	r3
 800999a:	4b03      	ldr	r3, [pc, #12]	; (80099a8 <Vector16C+0x2b8>)
 800999c:	f46f 6280 	mvn.w	r2, #1024	; 0x400
 80099a0:	645a      	str	r2, [r3, #68]	; 0x44
 80099a2:	e6b5      	b.n	8009710 <Vector16C+0x20>
 80099a4:	20001558 	.word	0x20001558
 80099a8:	40005c00 	.word	0x40005c00
 80099ac:	200014d0 	.word	0x200014d0
 80099b0:	6898      	ldr	r0, [r3, #8]
 80099b2:	f100 5000 	add.w	r0, r0, #536870912	; 0x20000000
 80099b6:	f500 5040 	add.w	r0, r0, #12288	; 0x3000
 80099ba:	ea5f 0e57 	movs.w	lr, r7, lsr #1
 80099be:	ea4f 0040 	mov.w	r0, r0, lsl #1
 80099c2:	d01e      	beq.n	8009a02 <Vector16C+0x312>
 80099c4:	eb00 0e8e 	add.w	lr, r0, lr, lsl #2
 80099c8:	4684      	mov	ip, r0
 80099ca:	694b      	ldr	r3, [r1, #20]
 80099cc:	f8dc 2000 	ldr.w	r2, [ip]
 80099d0:	1c58      	adds	r0, r3, #1
 80099d2:	6148      	str	r0, [r1, #20]
 80099d4:	701a      	strb	r2, [r3, #0]
 80099d6:	ea4f 2912 	mov.w	r9, r2, lsr #8
 80099da:	e9d1 3204 	ldrd	r3, r2, [r1, #16]
 80099de:	429a      	cmp	r2, r3
 80099e0:	bf28      	it	cs
 80099e2:	68ca      	ldrcs	r2, [r1, #12]
 80099e4:	1c53      	adds	r3, r2, #1
 80099e6:	614b      	str	r3, [r1, #20]
 80099e8:	f882 9000 	strb.w	r9, [r2]
 80099ec:	e9d1 3204 	ldrd	r3, r2, [r1, #16]
 80099f0:	429a      	cmp	r2, r3
 80099f2:	f10c 0004 	add.w	r0, ip, #4
 80099f6:	bf24      	itt	cs
 80099f8:	68cb      	ldrcs	r3, [r1, #12]
 80099fa:	614b      	strcs	r3, [r1, #20]
 80099fc:	4570      	cmp	r0, lr
 80099fe:	4684      	mov	ip, r0
 8009a00:	d1e3      	bne.n	80099ca <Vector16C+0x2da>
 8009a02:	9b00      	ldr	r3, [sp, #0]
 8009a04:	07db      	lsls	r3, r3, #31
 8009a06:	d50a      	bpl.n	8009a1e <Vector16C+0x32e>
 8009a08:	694b      	ldr	r3, [r1, #20]
 8009a0a:	6802      	ldr	r2, [r0, #0]
 8009a0c:	1c58      	adds	r0, r3, #1
 8009a0e:	6148      	str	r0, [r1, #20]
 8009a10:	701a      	strb	r2, [r3, #0]
 8009a12:	e9d1 3204 	ldrd	r3, r2, [r1, #16]
 8009a16:	429a      	cmp	r2, r3
 8009a18:	bf24      	itt	cs
 8009a1a:	68cb      	ldrcs	r3, [r1, #12]
 8009a1c:	614b      	strcs	r3, [r1, #20]
 8009a1e:	2320      	movs	r3, #32
 8009a20:	f383 8811 	msr	BASEPRI, r3
 8009a24:	f7f6 ff74 	bl	8000910 <_stats_start_measure_crit_isr>
 8009a28:	f7f7 fb42 	bl	80010b0 <_dbg_check_lock_from_isr>
 8009a2c:	688b      	ldr	r3, [r1, #8]
 8009a2e:	443b      	add	r3, r7
 8009a30:	608b      	str	r3, [r1, #8]
 8009a32:	4608      	mov	r0, r1
 8009a34:	2100      	movs	r1, #0
 8009a36:	f7f7 fa13 	bl	8000e60 <chThdDequeueAllI>
 8009a3a:	f7f7 fb21 	bl	8001080 <_dbg_check_unlock_from_isr>
 8009a3e:	f7f6 ff57 	bl	80008f0 <_stats_stop_measure_crit_isr>
 8009a42:	2300      	movs	r3, #0
 8009a44:	f383 8811 	msr	BASEPRI, r3
 8009a48:	f8da 0018 	ldr.w	r0, [sl, #24]
 8009a4c:	e71d      	b.n	800988a <Vector16C+0x19a>
 8009a4e:	f8db 0050 	ldr.w	r0, [fp, #80]	; 0x50
 8009a52:	9900      	ldr	r1, [sp, #0]
 8009a54:	f100 5000 	add.w	r0, r0, #536870912	; 0x20000000
 8009a58:	f500 5040 	add.w	r0, r0, #12288	; 0x3000
 8009a5c:	4460      	add	r0, ip
 8009a5e:	0040      	lsls	r0, r0, #1
 8009a60:	f7ff fa26 	bl	8008eb0 <usb_packet_write_from_queue>
 8009a64:	e760      	b.n	8009928 <Vector16C+0x238>
 8009a66:	2900      	cmp	r1, #0
 8009a68:	f43f af1e 	beq.w	80098a8 <Vector16C+0x1b8>
 8009a6c:	682b      	ldr	r3, [r5, #0]
 8009a6e:	f423 4390 	bic.w	r3, r3, #18432	; 0x4800
 8009a72:	f023 0370 	bic.w	r3, r3, #112	; 0x70
 8009a76:	f483 5340 	eor.w	r3, r3, #12288	; 0x3000
 8009a7a:	f443 4300 	orr.w	r3, r3, #32768	; 0x8000
 8009a7e:	f043 0380 	orr.w	r3, r3, #128	; 0x80
 8009a82:	602b      	str	r3, [r5, #0]
 8009a84:	e6bd      	b.n	8009802 <Vector16C+0x112>
 8009a86:	bf00      	nop
	...

08009a90 <__default_exit>:
 8009a90:	e7fe      	b.n	8009a90 <__default_exit>
 8009a92:	bf00      	nop
	...

08009aa0 <__late_init>:
 8009aa0:	4770      	bx	lr
 8009aa2:	bf00      	nop
	...

08009ab0 <strcasecmp>:
 8009ab0:	b5f8      	push	{r3, r4, r5, r6, r7, lr}
 8009ab2:	4607      	mov	r7, r0
 8009ab4:	460e      	mov	r6, r1
 8009ab6:	f817 4b01 	ldrb.w	r4, [r7], #1
 8009aba:	f000 f869 	bl	8009b90 <__locale_ctype_ptr>
 8009abe:	4420      	add	r0, r4
 8009ac0:	f816 5b01 	ldrb.w	r5, [r6], #1
 8009ac4:	7843      	ldrb	r3, [r0, #1]
 8009ac6:	f003 0303 	and.w	r3, r3, #3
 8009aca:	2b01      	cmp	r3, #1
 8009acc:	bf08      	it	eq
 8009ace:	3420      	addeq	r4, #32
 8009ad0:	f000 f85e 	bl	8009b90 <__locale_ctype_ptr>
 8009ad4:	4428      	add	r0, r5
 8009ad6:	7843      	ldrb	r3, [r0, #1]
 8009ad8:	f003 0303 	and.w	r3, r3, #3
 8009adc:	2b01      	cmp	r3, #1
 8009ade:	d004      	beq.n	8009aea <strcasecmp+0x3a>
 8009ae0:	1b60      	subs	r0, r4, r5
 8009ae2:	d101      	bne.n	8009ae8 <strcasecmp+0x38>
 8009ae4:	2d00      	cmp	r5, #0
 8009ae6:	d1e6      	bne.n	8009ab6 <strcasecmp+0x6>
 8009ae8:	bdf8      	pop	{r3, r4, r5, r6, r7, pc}
 8009aea:	f105 0020 	add.w	r0, r5, #32
 8009aee:	1a20      	subs	r0, r4, r0
 8009af0:	d0e1      	beq.n	8009ab6 <strcasecmp+0x6>
 8009af2:	bdf8      	pop	{r3, r4, r5, r6, r7, pc}
	...

08009b00 <strpbrk>:
 8009b00:	b430      	push	{r4, r5}
 8009b02:	7804      	ldrb	r4, [r0, #0]
 8009b04:	b1dc      	cbz	r4, 8009b3e <strpbrk+0x3e>
 8009b06:	780d      	ldrb	r5, [r1, #0]
 8009b08:	b19d      	cbz	r5, 8009b32 <strpbrk+0x32>
 8009b0a:	42ac      	cmp	r4, r5
 8009b0c:	d00f      	beq.n	8009b2e <strpbrk+0x2e>
 8009b0e:	460a      	mov	r2, r1
 8009b10:	e001      	b.n	8009b16 <strpbrk+0x16>
 8009b12:	429c      	cmp	r4, r3
 8009b14:	d00b      	beq.n	8009b2e <strpbrk+0x2e>
 8009b16:	f812 3f01 	ldrb.w	r3, [r2, #1]!
 8009b1a:	2b00      	cmp	r3, #0
 8009b1c:	d1f9      	bne.n	8009b12 <strpbrk+0x12>
 8009b1e:	f810 4f01 	ldrb.w	r4, [r0, #1]!
 8009b22:	2c00      	cmp	r4, #0
 8009b24:	d1f0      	bne.n	8009b08 <strpbrk+0x8>
 8009b26:	7813      	ldrb	r3, [r2, #0]
 8009b28:	2b00      	cmp	r3, #0
 8009b2a:	bf08      	it	eq
 8009b2c:	2000      	moveq	r0, #0
 8009b2e:	bc30      	pop	{r4, r5}
 8009b30:	4770      	bx	lr
 8009b32:	f810 4f01 	ldrb.w	r4, [r0, #1]!
 8009b36:	460a      	mov	r2, r1
 8009b38:	2c00      	cmp	r4, #0
 8009b3a:	d1e5      	bne.n	8009b08 <strpbrk+0x8>
 8009b3c:	e7f3      	b.n	8009b26 <strpbrk+0x26>
 8009b3e:	4620      	mov	r0, r4
 8009b40:	e7f5      	b.n	8009b2e <strpbrk+0x2e>
 8009b42:	bf00      	nop
	...

08009b50 <strspn>:
 8009b50:	b470      	push	{r4, r5, r6}
 8009b52:	7804      	ldrb	r4, [r0, #0]
 8009b54:	b1a4      	cbz	r4, 8009b80 <strspn+0x30>
 8009b56:	780d      	ldrb	r5, [r1, #0]
 8009b58:	4606      	mov	r6, r0
 8009b5a:	b14d      	cbz	r5, 8009b70 <strspn+0x20>
 8009b5c:	42a5      	cmp	r5, r4
 8009b5e:	d00a      	beq.n	8009b76 <strspn+0x26>
 8009b60:	460a      	mov	r2, r1
 8009b62:	e001      	b.n	8009b68 <strspn+0x18>
 8009b64:	42a3      	cmp	r3, r4
 8009b66:	d006      	beq.n	8009b76 <strspn+0x26>
 8009b68:	f812 3f01 	ldrb.w	r3, [r2, #1]!
 8009b6c:	2b00      	cmp	r3, #0
 8009b6e:	d1f9      	bne.n	8009b64 <strspn+0x14>
 8009b70:	1b80      	subs	r0, r0, r6
 8009b72:	bc70      	pop	{r4, r5, r6}
 8009b74:	4770      	bx	lr
 8009b76:	f810 4f01 	ldrb.w	r4, [r0, #1]!
 8009b7a:	2c00      	cmp	r4, #0
 8009b7c:	d1ed      	bne.n	8009b5a <strspn+0xa>
 8009b7e:	e7f7      	b.n	8009b70 <strspn+0x20>
 8009b80:	4620      	mov	r0, r4
 8009b82:	e7f6      	b.n	8009b72 <strspn+0x22>
	...

08009b90 <__locale_ctype_ptr>:
 8009b90:	4b04      	ldr	r3, [pc, #16]	; (8009ba4 <__locale_ctype_ptr+0x14>)
 8009b92:	4a05      	ldr	r2, [pc, #20]	; (8009ba8 <__locale_ctype_ptr+0x18>)
 8009b94:	681b      	ldr	r3, [r3, #0]
 8009b96:	6b5b      	ldr	r3, [r3, #52]	; 0x34
 8009b98:	2b00      	cmp	r3, #0
 8009b9a:	bf08      	it	eq
 8009b9c:	4613      	moveq	r3, r2
 8009b9e:	f8d3 00ec 	ldr.w	r0, [r3, #236]	; 0xec
 8009ba2:	4770      	bx	lr
 8009ba4:	20000e48 	.word	0x20000e48
 8009ba8:	20000cdc 	.word	0x20000cdc
 8009bac:	00000000 	.word	0x00000000

08009bb0 <__ascii_mbtowc>:
 8009bb0:	b082      	sub	sp, #8
 8009bb2:	b149      	cbz	r1, 8009bc8 <__ascii_mbtowc+0x18>
 8009bb4:	b15a      	cbz	r2, 8009bce <__ascii_mbtowc+0x1e>
 8009bb6:	b16b      	cbz	r3, 8009bd4 <__ascii_mbtowc+0x24>
 8009bb8:	7813      	ldrb	r3, [r2, #0]
 8009bba:	600b      	str	r3, [r1, #0]
 8009bbc:	7812      	ldrb	r2, [r2, #0]
 8009bbe:	1c10      	adds	r0, r2, #0
 8009bc0:	bf18      	it	ne
 8009bc2:	2001      	movne	r0, #1
 8009bc4:	b002      	add	sp, #8
 8009bc6:	4770      	bx	lr
 8009bc8:	a901      	add	r1, sp, #4
 8009bca:	2a00      	cmp	r2, #0
 8009bcc:	d1f3      	bne.n	8009bb6 <__ascii_mbtowc+0x6>
 8009bce:	4610      	mov	r0, r2
 8009bd0:	b002      	add	sp, #8
 8009bd2:	4770      	bx	lr
 8009bd4:	f06f 0001 	mvn.w	r0, #1
 8009bd8:	e7f4      	b.n	8009bc4 <__ascii_mbtowc+0x14>
 8009bda:	bf00      	nop
 8009bdc:	0000      	movs	r0, r0
	...

08009be0 <__ascii_wctomb>:
 8009be0:	b121      	cbz	r1, 8009bec <__ascii_wctomb+0xc>
 8009be2:	2aff      	cmp	r2, #255	; 0xff
 8009be4:	d804      	bhi.n	8009bf0 <__ascii_wctomb+0x10>
 8009be6:	700a      	strb	r2, [r1, #0]
 8009be8:	2001      	movs	r0, #1
 8009bea:	4770      	bx	lr
 8009bec:	4608      	mov	r0, r1
 8009bee:	4770      	bx	lr
 8009bf0:	238a      	movs	r3, #138	; 0x8a
 8009bf2:	6003      	str	r3, [r0, #0]
 8009bf4:	f04f 30ff 	mov.w	r0, #4294967295	; 0xffffffff
 8009bf8:	4770      	bx	lr
 8009bfa:	bf00      	nop
 8009bfc:	0000      	movs	r0, r0
	...

08009c00 <CSWTCH.31>:
 8009c00:	0400 0000 0600 0000 0000 0000 0000 0000     ................
 8009c10:	2a2a 202a 654b 6e72 6c65 203a 2020 2020     *** Kernel:     
 8009c20:	2020 0000 2a2a 202a 6f43 706d 6c69 6465       ..*** Compiled
 8009c30:	203a 2020 2020 0000 2a2a 202a 6f43 706d     :     ..*** Comp
 8009c40:	6c69 7265 203a 2020 2020 0000 2a2a 202a     iler:     ..*** 
 8009c50:	7241 6863 7469 6365 7574 6572 203a 0000     Architecture: ..
 8009c60:	2a2a 202a 6f43 6572 5620 7261 6169 746e     *** Core Variant
 8009c70:	203a 0000 2a2a 202a 6f50 7472 4920 666e     : ..*** Port Inf
 8009c80:	3a6f 2020 2020 0000 2a2a 202a 6c50 7461     o:    ..*** Plat
 8009c90:	6f66 6d72 203a 2020 2020 0000 2a2a 202a     form:     ..*** 
 8009ca0:	6554 7473 4220 616f 6472 203a 2020 0000     Test Board:   ..
 8009cb0:	2d2d 202d 6554 7473 4320 7361 2065 0000     --- Test Case ..
 8009cc0:	2820 0000 2d2d 202d 6552 7573 746c 203a      (..--- Result: 
 8009cd0:	4146 4c49 5255 2045 2328 0000 5b20 0000     FAILURE (#.. [..
 8009ce0:	6946 616e 206c 6572 7573 746c 203a 0000     Final result: ..
 8009cf0:	2a2a 202a 6843 6269 4f69 2f53 5452 7420     *** ChibiOS/RT t
 8009d00:	7365 2074 7573 7469 0065 0000 2a2a 002a     est suite...***.
 8009d10:	7041 2072 3620 3220 3130 2038 202d 3631     Apr  6 2018 - 16
 8009d20:	303a 3a33 3630 0000 0029 0000 295d 0000     :03:06..)...])..
 8009d30:	2d2d 202d 6552 7573 746c 203a 5553 4343     --- Result: SUCC
 8009d40:	5345 0053 4146 4c49 5255 0045 0000 0000     ESS.FAILURE.....
 8009d50:	6c62 6e69 656b 0072 0000 0000 0000 0000     blinker.........

08009d60 <__func__.5764.lto_priv.106>:
 8009d60:	6863 7953 5573 6c6e 636f 006b 0000 0000     chSysUnlock.....

08009d70 <__func__.5764.lto_priv.107>:
 8009d70:	6863 7953 5573 6c6e 636f 006b 0000 0000     chSysUnlock.....

08009d80 <__func__.5764.lto_priv.108>:
 8009d80:	6863 7953 5573 6c6e 636f 006b 0000 0000     chSysUnlock.....

08009d90 <__func__.5764.lto_priv.109>:
 8009d90:	6863 7953 5573 6c6e 636f 006b 0000 0000     chSysUnlock.....

08009da0 <__func__.5764.lto_priv.110>:
 8009da0:	6863 7953 5573 6c6e 636f 006b 0000 0000     chSysUnlock.....

08009db0 <__func__.5764.lto_priv.111>:
 8009db0:	6863 7953 5573 6c6e 636f 006b 0000 0000     chSysUnlock.....

08009dc0 <__func__.5764.lto_priv.112>:
 8009dc0:	6863 7953 5573 6c6e 636f 006b 0000 0000     chSysUnlock.....

08009dd0 <__func__.5764.lto_priv.113>:
 8009dd0:	6863 7953 5573 6c6e 636f 006b 0000 0000     chSysUnlock.....

08009de0 <__func__.5764.lto_priv.114>:
 8009de0:	6863 7953 5573 6c6e 636f 006b 0000 0000     chSysUnlock.....

08009df0 <__func__.5764.lto_priv.115>:
 8009df0:	6863 7953 5573 6c6e 636f 006b 0000 0000     chSysUnlock.....

08009e00 <__func__.5764.lto_priv.116>:
 8009e00:	6863 7953 5573 6c6e 636f 006b 0000 0000     chSysUnlock.....

08009e10 <__func__.5764.lto_priv.117>:
 8009e10:	6863 7953 5573 6c6e 636f 006b 0000 0000     chSysUnlock.....

08009e20 <__func__.5764.lto_priv.118>:
 8009e20:	6863 7953 5573 6c6e 636f 006b 0000 0000     chSysUnlock.....

08009e30 <__func__.5764.lto_priv.119>:
 8009e30:	6863 7953 5573 6c6e 636f 006b 0000 0000     chSysUnlock.....

08009e40 <__func__.5764.lto_priv.120>:
 8009e40:	6863 7953 5573 6c6e 636f 006b 0000 0000     chSysUnlock.....

08009e50 <__func__.5764.lto_priv.121>:
 8009e50:	6863 7953 5573 6c6e 636f 006b 0000 0000     chSysUnlock.....

08009e60 <__func__.5764.lto_priv.122>:
 8009e60:	6863 7953 5573 6c6e 636f 006b 0000 0000     chSysUnlock.....

08009e70 <__func__.5764.lto_priv.123>:
 8009e70:	6863 7953 5573 6c6e 636f 006b 0000 0000     chSysUnlock.....

08009e80 <__func__.5764.lto_priv.124>:
 8009e80:	6863 7953 5573 6c6e 636f 006b 0000 0000     chSysUnlock.....

08009e90 <__func__.5764.lto_priv.125>:
 8009e90:	6863 7953 5573 6c6e 636f 006b 0000 0000     chSysUnlock.....

08009ea0 <__func__.5764.lto_priv.126>:
 8009ea0:	6863 7953 5573 6c6e 636f 006b 0000 0000     chSysUnlock.....

08009eb0 <__func__.5764.lto_priv.127>:
 8009eb0:	6863 7953 5573 6c6e 636f 006b 0000 0000     chSysUnlock.....

08009ec0 <__func__.5764.lto_priv.128>:
 8009ec0:	6863 7953 5573 6c6e 636f 006b 0000 0000     chSysUnlock.....

08009ed0 <__func__.5850>:
 8009ed0:	6863 5456 6f44 6954 6b63 0049 0000 0000     chVTDoTickI.....

08009ee0 <__func__.5931>:
 8009ee0:	6863 6854 5364 6174 7472 0049 0000 0000     chThdStartI.....

08009ef0 <__func__.5947>:
 8009ef0:	6863 6854 4464 446f 7165 6575 6575 654e     chThdDoDequeueNe
 8009f00:	7478 0049 0000 0000 0000 0000 0000 0000     xtI.............

08009f10 <__func__.6165.lto_priv.143>:
 8009f10:	6863 7953 5573 6c6e 636f 006b 0000 0000     chSysUnlock.....

08009f20 <__func__.6165.lto_priv.144>:
 8009f20:	6863 7953 5573 6c6e 636f 006b 0000 0000     chSysUnlock.....

08009f30 <__func__.6459.lto_priv.145>:
 8009f30:	6863 6854 4164 6464 6552 0066 0000 0000     chThdAddRef.....

08009f40 <__func__.6461.lto_priv.163>:
 8009f40:	6863 734d 5367 6e65 0064 0000 0000 0000     chMsgSend.......

08009f50 <__func__.6464.lto_priv.176>:
 8009f50:	6863 6353 5268 6165 7964 0049 0000 0000     chSchReadyI.....

08009f60 <__func__.6464.lto_priv.177>:
 8009f60:	6863 6854 5264 6c65 6165 6573 0000 0000     chThdRelease....

08009f70 <__func__.6465>:
 8009f70:	6863 6552 4e67 7865 5474 7268 6165 0064     chRegNextThread.

08009f80 <__func__.6467.lto_priv.133>:
 8009f80:	6863 5456 6f44 6553 4974 0000 0000 0000     chVTDoSetI......

08009f90 <__func__.6467.lto_priv.134>:
 8009f90:	6863 744d 4c78 636f 536b 0000 0000 0000     chMtxLockS......

08009fa0 <__func__.6470.lto_priv.174>:
 8009fa0:	6863 6553 526d 7365 7465 0049 0000 0000     chSemResetI.....

08009fb0 <__func__.6470.lto_priv.175>:
 8009fb0:	6863 734d 5267 6c65 6165 6573 0000 0000     chMsgRelease....

08009fc0 <__func__.6475.lto_priv.171>:
 8009fc0:	6863 5456 6f44 6552 6573 4974 0000 0000     chVTDoResetI....

08009fd0 <__func__.6476>:
 8009fd0:	6863 6854 4364 6572 7461 4965 0000 0000     chThdCreateI....

08009fe0 <__func__.6481.lto_priv.137>:
 8009fe0:	6863 6553 576d 6961 5374 0000 0000 0000     chSemWaitS......

08009ff0 <__func__.6483>:
 8009ff0:	6863 6548 7061 7246 6565 0000 0000 0000     chHeapFree......

0800a000 <__func__.6485>:
 800a000:	6863 6f50 6c6f 7246 6565 0049 0000 0000     chPoolFreeI.....

0800a010 <__func__.6487>:
 800a010:	6863 5149 6552 6461 6954 656d 756f 0074     chIQReadTimeout.

0800a020 <__func__.6489>:
 800a020:	6863 6f43 646e 6157 7469 0053 0000 0000     chCondWaitS.....

0800a030 <__func__.6490>:
 800a030:	6863 744d 5578 6c6e 636f 006b 0000 0000     chMtxUnlock.....

0800a040 <__func__.6491>:
 800a040:	6863 6553 576d 6961 5474 6d69 6f65 7475     chSemWaitTimeout
 800a050:	0053 0000 0000 0000 0000 0000 0000 0000     S...............

0800a060 <__func__.6492>:
 800a060:	6863 6854 5364 7465 7250 6f69 6972 7974     chThdSetPriority
	...

0800a080 <__func__.6495>:
 800a080:	6863 6553 536d 6769 616e 006c 0000 0000     chSemSignal.....

0800a090 <__func__.6496>:
 800a090:	6863 7645 5374 6769 616e 006c 0000 0000     chEvtSignal.....

0800a0a0 <__func__.6499.lto_priv.139>:
 800a0a0:	6863 6553 536d 6769 616e 496c 0000 0000     chSemSignalI....

0800a0b0 <__func__.6501.lto_priv.168>:
 800a0b0:	6863 744d 5578 6c6e 636f 536b 0000 0000     chMtxUnlockS....

0800a0c0 <__func__.6501.lto_priv.169>:
 800a0c0:	6863 6f43 646e 6157 7469 6954 656d 756f     chCondWaitTimeou
 800a0d0:	5374 0000 0000 0000 0000 0000 0000 0000     tS..............

0800a0e0 <__func__.6501.lto_priv.170>:
 800a0e0:	6863 7645 5374 6769 616e 496c 0000 0000     chEvtSignalI....

0800a0f0 <__func__.6505>:
 800a0f0:	6863 6553 416d 6464 6f43 6e75 6574 4972     chSemAddCounterI
	...

0800a110 <__func__.6514>:
 800a110:	6863 6553 536d 6769 616e 576c 6961 0074     chSemSignalWait.

0800a120 <__func__.6515>:
 800a120:	6863 7645 4474 7369 6170 6374 0068 0000     chEvtDispatch...

0800a130 <__func__.6520>:
 800a130:	6863 6854 4564 6978 5374 0000 0000 0000     chThdExitS......

0800a140 <__func__.6523>:
 800a140:	6863 514f 7257 7469 5465 6d69 6f65 7475     chOQWriteTimeout
	...

0800a160 <__func__.6525>:
 800a160:	6863 6854 5764 6961 0074 0000 0000 0000     chThdWait.......

0800a170 <__func__.7122>:
 800a170:	7473 7453 7261 4174 616c 6d72 0000 0000     stStartAlarm....

0800a180 <__func__.7129>:
 800a180:	7473 6553 4174 616c 6d72 0000 0000 0000     stSetAlarm......

0800a190 <__func__.7178>:
 800a190:	6473 5375 6174 7472 0000 0000 0000 0000     sduStart........

0800a1a0 <__func__.7532>:
 800a1a0:	7375 5f62 6d70 615f 6c6c 636f 0000 0000     usb_pm_alloc....

0800a1b0 <__func__.7572>:
 800a1b0:	7375 5362 6174 7472 0000 0000 0000 0000     usbStart........

0800a1c0 <__func__.7585>:
 800a1c0:	7375 4962 696e 4574 646e 6f70 6e69 4974     usbInitEndpointI
	...

0800a1e0 <__func__.7626>:
 800a1e0:	7375 5362 6174 7472 6552 6563 7669 4965     usbStartReceiveI
	...

0800a200 <__func__.7631>:
 800a200:	7375 5362 6174 7472 7254 6e61 6d73 7469     usbStartTransmit
 800a210:	0049 0000 0000 0000 0000 0000 0000 0000     I...............

0800a220 <__func__.7665>:
 800a220:	755f 6273 655f 3070 6e69 0000 0000 0000     _usb_ep0in......

0800a230 <__func__.7679>:
 800a230:	755f 6273 655f 3070 756f 0074 0000 0000     _usb_ep0out.....
 800a240:	5653 3323 0000 0000 0000 0000 0000 0000     SV#3............
 800a250:	5653 3823 0000 0000 0000 0000 0000 0000     SV#8............
 800a260:	5653 3923 0000 0000 0000 0000 0000 0000     SV#9............
 800a270:	5653 3423 0000 0000 0000 0000 0000 0000     SV#4............
 800a280:	5653 3623 0000 0000 0000 0000 0000 0000     SV#6............
 800a290:	5653 3223 0000 0000 0000 0000 0000 0000     SV#2............
 800a2a0:	5653 3523 0000 0000 0000 0000 0000 0000     SV#5............
 800a2b0:	5653 3723 0000 0000 0000 0000 0000 0000     SV#7............
 800a2c0:	0920 0000 0000 0000 0000 0000 0000 0000      ...............
 800a2d0:	6e75 6168 646e 656c 2064 7865 6563 7470     unhandled except
 800a2e0:	6f69 006e 0000 0000 0000 0000 0000 0000     ion.............

0800a2f0 <active_status>:
	...
 800a300:	7420 6d69 7265 2f73 0053 0000 0000 0000      timers/S.......
 800a310:	7720 6961 2b74 6973 6e67 6c61 532f 0000      wait+signal/S..
 800a320:	2d2d 202d 6353 726f 2065 203a 0000 0000     --- Score : ....
 800a330:	6c20 636f 2b6b 6e75 6f6c 6b63 532f 0000      lock+unlock/S..
 800a340:	2d2d 202d 7953 7473 6d65 203a 0000 0000     --- System: ....
 800a350:	6220 7479 7365 0000 2d2d 202d 6854 6572      bytes..--- Thre
 800a360:	6461 203a 0000 0000 2d2d 202d 6954 656d     ad: ....--- Time
 800a370:	2072 203a 0000 0000 2d2d 202d 6553 616d     r : ....--- Sema
 800a380:	6870 203a 0000 0000 2d2d 202d 7645 6e65     ph: ....--- Even
 800a390:	5374 203a 0000 0000 2d2d 202d 7645 6e65     tS: ....--- Even
 800a3a0:	4c74 203a 0000 0000 2d2d 202d 754d 6574     tL: ....--- Mute
 800a3b0:	2078 203a 0000 0000 2d2d 202d 6f43 646e     x : ....--- Cond
 800a3c0:	2e56 203a 0000 0000 2d2d 202d 7551 7565     V.: ....--- Queu
 800a3d0:	2065 203a 0000 0000 2d2d 202d 614d 6c69     e : ....--- Mail
 800a3e0:	2e42 203a 0000 0000 0000 0000 0000 0000     B.: ............
 800a3f0:	6d20 6773 2f73 2c53 0020 0000 0000 0000      msgs/S, .......
 800a400:	7420 7268 6165 7364 532f 0000 0000 0000      threads/S......
 800a410:	7220 7365 6863 6465 6c75 7365 532f 202c      reschedules/S, 
	...
 800a430:	6320 7874 7773 2f63 0053 0000 0000 0000      ctxswc/S.......
 800a440:	6220 7479 7365 532f 0000 0000 0000 0000      bytes/S........
 800a450:	5653 3123 0030 0000 0000 0000 0000 0000     SV#10...........
 800a460:	5653 3123 0031 0000 0000 0000 0000 0000     SV#11...........
 800a470:	7473 6361 206b 766f 7265 6c66 776f 0000     stack overflow..

0800a480 <ch_debug>:
 800a480:	616d 6e69 1600 1801 0404 0860 100c 1814     main......`.....
 800a490:	201c 2221 0000 0000 0000 0000 0000 0000     . !"............
 800a4a0:	6e28 6c75 296c 0000 0000 0000 0000 0000     (null)..........
 800a4b0:	6e69 6f66 0000 0000 7355 6761 3a65 2520     info....Usage: %
 800a4c0:	0d73 000a 2e33 2e30 0030 0000 654b 6e72     s...3.0.0...Kern
 800a4d0:	6c65 203a 2020 2020 2020 7325 0a0d 0000     el:       %s....
 800a4e0:	4347 2043 2e37 2e32 2031 3032 3731 3930     GCC 7.2.1 201709
 800a4f0:	3430 2820 6572 656c 7361 2965 5b20 5241     04 (release) [AR
 800a500:	2f4d 6d65 6562 6464 6465 372d 622d 6172     M/embedded-7-bra
 800a510:	636e 2068 6572 6976 6973 6e6f 3220 3535     nch revision 255
 800a520:	3032 5d34 0000 0000 6f43 706d 6c69 7265     204]....Compiler
 800a530:	203a 2020 2020 7325 0a0d 0000 5241 764d     :     %s....ARMv
 800a540:	2d37 454d 0000 0000 7241 6863 7469 6365     7-ME....Architec
 800a550:	7574 6572 203a 7325 0a0d 0000 6f43 7472     ture: %s....Cort
 800a560:	7865 4d2d 0034 0000 6f43 6572 5620 7261     ex-M4...Core Var
 800a570:	6169 746e 203a 7325 0a0d 0000 6441 6176     iant: %s....Adva
 800a580:	636e 6465 6b20 7265 656e 206c 6f6d 6564     nced kernel mode
 800a590:	0000 0000 6f50 7472 4920 666e 3a6f 2020     ....Port Info:  
 800a5a0:	2020 7325 0a0d 0000 5453 334d 4632 3733       %s....STM32F37
 800a5b0:	7833 2043 6e41 6c61 676f 2620 4420 5053     3xC Analog & DSP
 800a5c0:	0000 0000 6c50 7461 6f66 6d72 203a 2020     ....Platform:   
 800a5d0:	2020 7325 0a0d 0000 5453 694d 7263 656f       %s....STMicroe
 800a5e0:	656c 7463 6f72 696e 7363 5320 4d54 3233     lectronics STM32
 800a5f0:	3733 4333 452d 4156 004c 0000 6f42 7261     373C-EVAL...Boar
 800a600:	3a64 2020 2020 2020 2020 7325 0a0d 0000     d:        %s....
 800a610:	2d20 0020 7041 2072 3620 3220 3130 0038      - .Apr  6 2018.
 800a620:	7542 6c69 2064 6974 656d 203a 2020 7325     Build time:   %s
 800a630:	7325 7325 0a0d 0000 3631 303a 3a33 3730     %s%s....16:03:07
	...
 800a650:	7355 6761 3a65 6d20 6d65 0a0d 0000 0000     Usage: mem......
 800a660:	6f63 6572 6620 6572 2065 656d 6f6d 7972     core free memory
 800a670:	3a20 2520 2075 7962 6574 0d73 000a 0000      : %u bytes.....
 800a680:	6568 7061 6620 6172 6d67 6e65 7374 2020     heap fragments  
 800a690:	3a20 2520 0d75 000a 6568 7061 6620 6572      : %u...heap fre
 800a6a0:	2065 6f74 6174 206c 3a20 2520 2075 7962     e total  : %u by
 800a6b0:	6574 0d73 000a 0000 0000 0000 0000 0000     tes.............
 800a6c0:	7973 7473 6d69 0065 6c25 0d75 000a 0000     systime.%lu.....
 800a6d0:	7355 6761 3a65 7420 7365 0d74 000a 0000     Usage: test.....
 800a6e0:	756f 2074 666f 6d20 6d65 726f 0d79 000a     out of memory...
 800a6f0:	7355 6761 3a65 7420 7268 6165 7364 0a0d     Usage: threads..
 800a700:	0000 0000 2020 2020 6461 7264 2020 2020     ....    addr    
 800a710:	7473 6361 206b 7270 6f69 7220 6665 2073     stack prio refs 
 800a720:	2020 2020 7473 7461 2065 6974 656d 0a0d         state time..
 800a730:	0000 0000 3025 6c38 2078 3025 6c38 2078     ....%08lx %08lx 
 800a740:	3425 756c 2520 6c34 2075 3925 0d73 000a     %4lu %4lu %9s...
 800a750:	0a0d 730a 6f74 7070 6465 0a0d 0000 0000     ...stopped......
 800a760:	7355 6761 3a65 7720 6972 6574 0a0d 0000     Usage: write....

0800a770 <commands>:
 800a770:	afcc 0800 4961 0800 afd0 0800 50d1 0800     ....aI.......P..
 800a780:	aea8 0800 5201 0800 afd8 0800 1ba1 0800     .....R..........
	...
 800a7a0:	4241 0000 0000 0000 0000 0000 0000 0000     AB..............
 800a7b0:	0041 0000 0042 0000 0043 0000 4241 4443     A...B...C...ABCD
	...

0800a7d0 <ep0config>:
 800a7d0:	0000 0000 91d1 0800 90a1 0800 8fd1 0800     ................
 800a7e0:	0040 0040 1b5c 2000 1b5c 2000 0001 0000     @.@.\.. \.. ....
 800a7f0:	1b70 2000 0000 0000 0000 0000 0000 0000     p.. ............

0800a800 <ep1config>:
 800a800:	0002 0000 0000 0000 9631 0800 11e1 0800     ........1.......
 800a810:	0040 0040 1b78 2000 1b88 2000 0001 0000     @.@.x.. ... ....
	...

0800a830 <ep2config>:
 800a830:	0003 0000 0000 0000 0741 0800 0000 0000     ........A.......
 800a840:	0010 0000 1b9c 2000 0000 0000 0001 0000     ....... ........
	...

0800a860 <evhndl>:
 800a860:	3411 0800 3401 0800 33f1 0800 0000 0000     .4...4...3......
 800a870:	4241 0043 0000 0000 0000 0000 0000 0000     ABC.............

0800a880 <halted_status>:
 800a880:	0001 0000 0000 0000 0000 0000 0000 0000     ................
 800a890:	6469 656c 0000 0000 0000 0000 0000 0000     idle............
 800a8a0:	4241 4443 0045 0000 0000 0000 0000 0000     ABCDE...........

0800a8b0 <patternbmk>:
 800a8b0:	b080 0800 b0d0 0800 b0e0 0800 b0f0 0800     ................
 800a8c0:	b100 0800 b110 0800 b120 0800 b130 0800     ........ ...0...
 800a8d0:	b140 0800 b090 0800 b0a0 0800 b0b0 0800     @...............
 800a8e0:	b0c0 0800 0000 0000 0000 0000 0000 0000     ................

0800a8f0 <patterndyn>:
 800a8f0:	b150 0800 b160 0800 b170 0800 0000 0000     P...`...p.......

0800a900 <patternevt>:
 800a900:	b180 0800 b190 0800 b1a0 0800 0000 0000     ................

0800a910 <patternheap>:
 800a910:	b1b0 0800 0000 0000 0000 0000 0000 0000     ................

0800a920 <patternmbox>:
 800a920:	b1c0 0800 0000 0000 0000 0000 0000 0000     ................

0800a930 <patternmsg>:
 800a930:	b1d0 0800 0000 0000 0000 0000 0000 0000     ................

0800a940 <patternmtx>:
 800a940:	b1e0 0800 b1f0 0800 b200 0800 b210 0800     ................
 800a950:	b220 0800 b230 0800 0000 0000 0000 0000      ...0...........

0800a960 <patternpools>:
 800a960:	b240 0800 0000 0000 0000 0000 0000 0000     @...............

0800a970 <patternqueues>:
 800a970:	b250 0800 b260 0800 0000 0000 0000 0000     P...`...........

0800a980 <patterns>:
 800a980:	a9e0 0800 a9f0 0800 a9c0 0800 a940 0800     ............@...
 800a990:	a930 0800 a920 0800 a900 0800 a910 0800     0... ...........
 800a9a0:	a960 0800 a8f0 0800 a970 0800 a8b0 0800     `.......p.......
	...

0800a9c0 <patternsem>:
 800a9c0:	b270 0800 b280 0800 b290 0800 b2a0 0800     p...............
	...

0800a9e0 <patternsys>:
 800a9e0:	b2b0 0800 b2c0 0800 b2d0 0800 0000 0000     ................

0800a9f0 <patternthd>:
 800a9f0:	b2e0 0800 b2f0 0800 b300 0800 b310 0800     ................
	...

0800aa10 <serusbcfg>:
 800aa10:	14d0 2000 0101 0002 0000 0000 0000 0000     ... ............

0800aa20 <shell_cfg1>:
 800aa20:	1278 2000 a770 0800 0000 0000 0000 0000     x.. p...........
 800aa30:	6873 6c65 006c 0000 0a0d 6843 6269 4f69     shell.....ChibiO
 800aa40:	2f53 5452 5320 6568 6c6c 0a0d 0000 0000     S/RT Shell......
 800aa50:	6863 203e 0000 0000 445e 0000 0a0d 6f6c     ch> ....^D....lo
 800aa60:	6f67 7475 0000 0000 6f74 206f 616d 796e     gout....too many
 800aa70:	6120 6772 6d75 6e65 7374 0a0d 0000 0000      arguments......
 800aa80:	7865 7469 0000 0000 6568 706c 0000 0000     exit....help....
 800aa90:	6f43 6d6d 6e61 7364 203a 6568 706c 6520     Commands: help e
 800aaa0:	6978 2074 0000 0000 7325 0020 7325 0000     xit ....%s .%s..
 800aab0:	3f20 0a0d 0000 0000 0000 0000 0000 0000      ?..............

0800aac0 <states.8477>:
 800aac0:	afe0 0800 afe8 0800 aff0 0800 aff8 0800     ................
 800aad0:	b004 0800 b00c 0800 b014 0800 b01c 0800     ................
 800aae0:	b024 0800 b030 0800 b038 0800 b040 0800     $...0...8...@...
 800aaf0:	b04c 0800 b054 0800 b05c 0800 b064 0800     L...T...\...d...
 800ab00:	6542 636e 6d68 7261 2c6b 5220 4d41 6620     Benchmark, RAM f
 800ab10:	6f6f 7074 6972 746e 0000 0000 6542 636e     ootprint....Benc
 800ab20:	6d68 7261 2c6b 6d20 7475 7865 7365 6c20     hmark, mutexes l
 800ab30:	636f 2f6b 6e75 6f6c 6b63 0000 6542 636e     ock/unlock..Benc
 800ab40:	6d68 7261 2c6b 7320 6d65 7061 6f68 6572     hmark, semaphore
 800ab50:	2073 6177 7469 732f 6769 616e 006c 0000     s wait/signal...
 800ab60:	6542 636e 6d68 7261 2c6b 7620 7269 7574     Benchmark, virtu
 800ab70:	6c61 7420 6d69 7265 2073 6573 2f74 6572     al timers set/re
 800ab80:	6573 0074 6542 636e 6d68 7261 2c6b 4920     set.Benchmark, I
 800ab90:	4f2f 5120 6575 6575 2073 6874 6f72 6775     /O Queues throug
 800aba0:	7068 7475 0000 0000 6542 636e 6d68 7261     hput....Benchmar
 800abb0:	2c6b 7220 756f 646e 7220 626f 6e69 6320     k, round robin c
 800abc0:	6e6f 6574 7478 7320 6977 6374 6968 676e     ontext switching
 800abd0:	0000 0000 6542 636e 6d68 7261 2c6b 6d20     ....Benchmark, m
 800abe0:	7361 2073 6572 6373 6568 7564 656c 202c     ass reschedule, 
 800abf0:	2035 6874 6572 6461 0073 0000 6542 636e     5 threads...Benc
 800ac00:	6d68 7261 2c6b 7420 7268 6165 7364 202c     hmark, threads, 
 800ac10:	7263 6165 6574 6f20 6c6e 0079 6542 636e     create only.Benc
 800ac20:	6d68 7261 2c6b 7420 7268 6165 7364 202c     hmark, threads, 
 800ac30:	7566 6c6c 6320 6379 656c 0000 6542 636e     full cycle..Benc
 800ac40:	6d68 7261 2c6b 6320 6e6f 6574 7478 7320     hmark, context s
 800ac50:	6977 6374 0068 0000 6542 636e 6d68 7261     witch...Benchmar
 800ac60:	2c6b 6d20 7365 6173 6567 2073 3323 0000     k, messages #3..
 800ac70:	6542 636e 6d68 7261 2c6b 6d20 7365 6173     Benchmark, messa
 800ac80:	6567 2073 3223 0000 6542 636e 6d68 7261     ges #2..Benchmar
 800ac90:	2c6b 6d20 7365 6173 6567 2073 3123 0000     k, messages #1..
 800aca0:	7551 7565 7365 202c 756f 7074 7475 7120     Queues, output q
 800acb0:	6575 6575 0073 0000 7551 7565 7365 202c     ueues...Queues, 
 800acc0:	6e69 7570 2074 7571 7565 7365 0000 0000     input queues....
 800acd0:	7944 616e 696d 2063 5041 7349 202c 6572     Dynamic APIs, re
 800ace0:	6967 7473 7972 6120 646e 7220 6665 7265     gistry and refer
 800acf0:	6e65 6563 0073 0000 7944 616e 696d 2063     ences...Dynamic 
 800ad00:	5041 7349 202c 6874 6572 6461 2073 7263     APIs, threads cr
 800ad10:	6165 6974 6e6f 6620 6f72 206d 656d 6f6d     eation from memo
 800ad20:	7972 7020 6f6f 006c 7944 616e 696d 2063     ry pool.Dynamic 
 800ad30:	5041 7349 202c 6874 6572 6461 2073 7263     APIs, threads cr
 800ad40:	6165 6974 6e6f 6620 6f72 206d 6568 7061     eation from heap
 800ad50:	0000 0000 654d 6f6d 7972 5020 6f6f 736c     ....Memory Pools
 800ad60:	202c 7571 7565 2f65 6564 7571 7565 0065     , queue/dequeue.
 800ad70:	6548 7061 202c 6c61 6f6c 6163 6974 6e6f     Heap, allocation
 800ad80:	6120 646e 6620 6172 6d67 6e65 6174 6974      and fragmentati
 800ad90:	6e6f 7420 7365 0074 7645 6e65 7374 202c     on test.Events, 
 800ada0:	6974 656d 756f 7374 0000 0000 7645 6e65     timeouts....Even
 800adb0:	7374 202c 6177 7469 6120 646e 6220 6f72     ts, wait and bro
 800adc0:	6461 6163 7473 0000 7645 6e65 7374 202c     adcast..Events, 
 800add0:	6572 6967 7473 6172 6974 6e6f 6120 646e     registration and
 800ade0:	6420 7369 6170 6374 0068 0000 614d 6c69      dispatch...Mail
 800adf0:	6f62 6578 2c73 7120 6575 6975 676e 6120     boxes, queuing a
 800ae00:	646e 7420 6d69 6f65 7475 0073 654d 7373     nd timeouts.Mess
 800ae10:	6761 7365 202c 6f6c 706f 0000 6f43 646e     ages, loop..Cond
 800ae20:	6156 2c72 6220 6f6f 7473 7420 7365 0074     Var, boost test.
 800ae30:	6f43 646e 6156 2c72 6220 6f72 6461 6163     CondVar, broadca
 800ae40:	7473 7420 7365 0074 6f43 646e 6156 2c72     st test.CondVar,
 800ae50:	7320 6769 616e 206c 6574 7473 0000 0000      signal test....
 800ae60:	754d 6574 6578 2c73 7320 6174 7574 0073     Mutexes, status.
 800ae70:	754d 6574 6578 2c73 7020 6972 726f 7469     Mutexes, priorit
 800ae80:	2079 6572 7574 6e72 0000 0000 754d 6574     y return....Mute
 800ae90:	6578 2c73 7020 6972 726f 7469 2079 6e65     xes, priority en
 800aea0:	7571 7565 6e69 2067 6574 7473 0000 0000     queuing test....
 800aeb0:	6942 616e 7972 5320 6d65 7061 6f68 6572     Binary Semaphore
 800aec0:	2c73 6620 6e75 7463 6f69 616e 696c 7974     s, functionality
 800aed0:	0000 0000 6553 616d 6870 726f 7365 202c     ....Semaphores, 
 800aee0:	7461 6d6f 6369 7320 6769 616e 2d6c 6177     atomic signal-wa
 800aef0:	7469 0000 6553 616d 6870 726f 7365 202c     it..Semaphores, 
 800af00:	6974 656d 756f 0074 6553 616d 6870 726f     timeout.Semaphor
 800af10:	7365 202c 6e65 7571 7565 6e69 0067 0000     es, enqueuing...
 800af20:	6854 6572 6461 2c73 6420 6c65 7961 0073     Threads, delays.
 800af30:	6854 6572 6461 2c73 7020 6972 726f 7469     Threads, priorit
 800af40:	2079 6863 6e61 6567 0000 0000 6854 6572     y change....Thre
 800af50:	6461 2c73 6520 716e 6575 6975 676e 7420     ads, enqueuing t
 800af60:	7365 2074 3223 0000 6854 6572 6461 2c73     est #2..Threads,
 800af70:	6520 716e 6575 6975 676e 7420 7365 2074      enqueuing test 
 800af80:	3123 0000 7953 7473 6d65 202c 6e69 6574     #1..System, inte
 800af90:	7267 7469 0079 0000 7953 7473 6d65 202c     grity...System, 
 800afa0:	6e69 6574 7272 7075 7374 6820 6e61 6c64     interrupts handl
 800afb0:	6e69 0067 7953 7473 6d65 202c 7263 7469     ing.System, crit
 800afc0:	6369 6c61 7a20 6e6f 7365 0000 656d 006d     ical zones..mem.
 800afd0:	6874 6572 6461 0073 7277 7469 0065 0000     threads.write...
 800afe0:	4552 4441 0059 0000 5543 5252 4e45 0054     READY...CURRENT.
 800aff0:	5457 5453 5241 0054 5553 5053 4e45 4544     WTSTART.SUSPENDE
 800b000:	0044 0000 5551 5545 4445 0000 5457 4553     D...QUEUED..WTSE
 800b010:	004d 0000 5457 544d 0058 0000 5457 4f43     M...WTMTX...WTCO
 800b020:	444e 0000 4c53 4545 4950 474e 0000 0000     ND..SLEEPING....
 800b030:	5457 5845 5449 0000 5457 524f 5645 0054     WTEXIT..WTOREVT.
 800b040:	5457 4e41 4544 5456 0000 0000 4e53 4d44     WTANDEVT....SNDM
 800b050:	4753 0051 4e53 4d44 4753 0000 5457 534d     SGQ.SNDMSG..WTMS
 800b060:	0047 0000 4946 414e 004c 0000 0000 0000     G...FINAL.......
 800b070:	5653 3123 0000 0000 0000 0000 0000 0000     SV#1............

0800b080 <testbmk1>:
 800b080:	ac88 0800 0000 0000 0000 0000 6f11 0800     .............o..

0800b090 <testbmk10>:
 800b090:	ab60 0800 0000 0000 0000 0000 5db1 0800     `............]..

0800b0a0 <testbmk11>:
 800b0a0:	ab3c 0800 1601 0800 0000 0000 5d41 0800     <...........A]..

0800b0b0 <testbmk12>:
 800b0b0:	ab1c 0800 02f1 0800 0000 0000 5cd1 0800     .............\..

0800b0c0 <testbmk13>:
 800b0c0:	ab00 0800 0000 0000 0000 0000 1511 0800     ................

0800b0d0 <testbmk2>:
 800b0d0:	ac70 0800 0000 0000 0000 0000 6ea1 0800     p............n..

0800b0e0 <testbmk3>:
 800b0e0:	ac58 0800 0000 0000 0000 0000 6dc1 0800     X............m..

0800b0f0 <testbmk4>:
 800b0f0:	ac3c 0800 0000 0000 0000 0000 6cb1 0800     <............l..

0800b100 <testbmk5>:
 800b100:	ac1c 0800 0000 0000 0000 0000 6c31 0800     ............1l..

0800b110 <testbmk6>:
 800b110:	abfc 0800 0000 0000 0000 0000 6bc1 0800     .............k..

0800b120 <testbmk7>:
 800b120:	abd4 0800 1611 0800 0000 0000 6ac1 0800     .............j..

0800b130 <testbmk8>:
 800b130:	aba8 0800 0000 0000 0000 0000 69e1 0800     .............i..

0800b140 <testbmk9>:
 800b140:	ab84 0800 0000 0000 0000 0000 5e71 0800     ............q^..

0800b150 <testdyn1>:
 800b150:	ad28 0800 0381 0800 0000 0000 5371 0800     (...........qS..

0800b160 <testdyn2>:
 800b160:	acf8 0800 1621 0800 0000 0000 5281 0800     ....!........R..

0800b170 <testdyn3>:
 800b170:	acd0 0800 03b1 0800 0000 0000 5941 0800     ............AY..

0800b180 <testevt1>:
 800b180:	adc8 0800 2721 0800 0000 0000 4401 0800     ....!'.......D..

0800b190 <testevt2>:
 800b190:	adac 0800 2741 0800 0000 0000 7921 0800     ....A'......!y..

0800b1a0 <testevt3>:
 800b1a0:	ad98 0800 2731 0800 0000 0000 3031 0800     ....1'......10..

0800b1b0 <testheap1>:
 800b1b0:	ad70 0800 03d1 0800 0000 0000 4af1 0800     p............J..

0800b1c0 <testmbox1>:
 800b1c0:	adec 0800 1661 0800 0000 0000 3421 0800     ....a.......!4..

0800b1d0 <testmsg1>:
 800b1d0:	ae0c 0800 0000 0000 0000 0000 7be1 0800     .............{..

0800b1e0 <testmtx1>:
 800b1e0:	ae8c 0800 1721 0800 0000 0000 81a1 0800     ....!...........

0800b1f0 <testmtx4>:
 800b1f0:	ae70 0800 1701 0800 0000 0000 7f21 0800     p...........!...

0800b200 <testmtx5>:
 800b200:	ae60 0800 1731 0800 0000 0000 4811 0800     `...1........H..

0800b210 <testmtx6>:
 800b210:	ae48 0800 16d1 0800 0000 0000 7e11 0800     H............~..

0800b220 <testmtx7>:
 800b220:	ae30 0800 16f1 0800 0000 0000 7cf1 0800     0............|..

0800b230 <testmtx8>:
 800b230:	ae1c 0800 16a1 0800 0000 0000 7c61 0800     ............a|..

0800b240 <testpools1>:
 800b240:	ad54 0800 1641 0800 0000 0000 3ce1 0800     T...A........<..

0800b250 <testqueues1>:
 800b250:	acb8 0800 0351 0800 0000 0000 7441 0800     ....Q.......At..

0800b260 <testqueues2>:
 800b260:	aca0 0800 0321 0800 0000 0000 6f81 0800     ....!........o..

0800b270 <testsem1>:
 800b270:	af08 0800 1741 0800 0000 0000 8831 0800     ....A.......1...

0800b280 <testsem2>:
 800b280:	aef4 0800 1761 0800 0000 0000 86b1 0800     ....a...........

0800b290 <testsem3>:
 800b290:	aed4 0800 1751 0800 0000 0000 8621 0800     ....Q.......!...

0800b2a0 <testsem4>:
 800b2a0:	aeb0 0800 0000 0000 0000 0000 8291 0800     ................

0800b2b0 <testsys1>:
 800b2b0:	afb4 0800 0000 0000 0000 0000 8cb1 0800     ................

0800b2c0 <testsys2>:
 800b2c0:	af98 0800 0000 0000 0000 0000 1331 0800     ............1...

0800b2d0 <testsys3>:
 800b2d0:	af84 0800 0000 0000 0000 0000 2ef1 0800     ................

0800b2e0 <testthd1>:
 800b2e0:	af68 0800 0000 0000 0000 0000 8ba1 0800     h...............

0800b2f0 <testthd2>:
 800b2f0:	af4c 0800 0000 0000 0000 0000 8a41 0800     L...........A...

0800b300 <testthd3>:
 800b300:	af30 0800 0000 0000 0000 0000 61b1 0800     0............a..

0800b310 <testthd4>:
 800b310:	af20 0800 0000 0000 0000 0000 5f91 0800      ............_..

0800b320 <usbcfg>:
 800b320:	1d21 0800 02c1 0800 0751 0800 0000 0000     !.......Q.......

0800b330 <vcom_configuration_descriptor>:
 800b330:	0043 0000 b340 0800 0000 0000 0000 0000     C...@...........

0800b340 <vcom_configuration_descriptor_data>:
 800b340:	0209 0043 0102 c000 0932 0004 0100 0202     ..C.....2.......
 800b350:	0001 2405 1000 0501 0124 0100 2404 0202     ...$....$....$..
 800b360:	2405 0006 0701 8205 0803 ff00 0409 0001     .$..............
 800b370:	0a02 0000 0700 0105 4002 0000 0507 0281     .........@......
 800b380:	0040 0000 0000 0000 0000 0000 0000 0000     @...............

0800b390 <vcom_device_descriptor>:
 800b390:	0012 0000 b3a0 0800 0000 0000 0000 0000     ................

0800b3a0 <vcom_device_descriptor_data>:
 800b3a0:	0112 0110 0002 4000 0483 5740 0200 0201     .......@..@W....
 800b3b0:	0103 0000 0000 0000 0000 0000 0000 0000     ................

0800b3c0 <vcom_string0>:
 800b3c0:	0304 0409 0000 0000 0000 0000 0000 0000     ................

0800b3d0 <vcom_string1>:
 800b3d0:	0326 0053 0054 004d 0069 0063 0072 006f     &.S.T.M.i.c.r.o.
 800b3e0:	0065 006c 0065 0063 0074 0072 006f 006e     e.l.e.c.t.r.o.n.
 800b3f0:	0069 0063 0073 0000 0000 0000 0000 0000     i.c.s...........

0800b400 <vcom_string2>:
 800b400:	0338 0043 0068 0069 0062 0069 004f 0053     8.C.h.i.b.i.O.S.
 800b410:	002f 0052 0054 0020 0056 0069 0072 0074     /.R.T. .V.i.r.t.
 800b420:	0075 0061 006c 0020 0043 004f 004d 0020     u.a.l. .C.O.M. .
 800b430:	0050 006f 0072 0074 0000 0000 0000 0000     P.o.r.t.........

0800b440 <vcom_string3>:
 800b440:	0308 0033 0030 0031 0000 0000 0000 0000     ..3.0.1.........

0800b450 <vcom_strings>:
 800b450:	0004 0000 b3c0 0800 0026 0000 b3d0 0800     ........&.......
 800b460:	0038 0000 b400 0800 0008 0000 b440 0800     8...........@...

0800b470 <vmt>:
 800b470:	3eb1 0800 40b1 0800 3f91 0800 4191 0800     .>...@...?...A..
 800b480:	3f81 0800 4181 0800 3ea1 0800 40a1 0800     .?...A...>...@..

0800b490 <wa>:
 800b490:	1c38 2000 1da0 2000 1f08 2000 2070 2000     8.. ... ... p . 
 800b4a0:	21d8 2000 0000 0000 0000 0000 0000 0000     .!. ............

0800b4b0 <zero_status>:
	...
 800b4c0:	4f50 4953 0058 0000 0000 0000 0000 0000     POSIX...........
 800b4d0:	002e 0000 0000 0000 0000 0000 0000 0000     ................

0800b4e0 <_ctype_>:
 800b4e0:	2000 2020 2020 2020 2020 2828 2828 2028     .         ((((( 
 800b4f0:	2020 2020 2020 2020 2020 2020 2020 2020                     
 800b500:	8820 1010 1010 1010 1010 1010 1010 1010      ...............
 800b510:	0410 0404 0404 0404 0404 1004 1010 1010     ................
 800b520:	1010 4141 4141 4141 0101 0101 0101 0101     ..AAAAAA........
 800b530:	0101 0101 0101 0101 0101 0101 1010 1010     ................
 800b540:	1010 4242 4242 4242 0202 0202 0202 0202     ..BBBBBB........
 800b550:	0202 0202 0202 0202 0202 0202 1010 1010     ................
 800b560:	0020 0000 0000 0000 0000 0000 0000 0000      ...............
	...
