ARM GAS  /var/folders/qd/4mxf5pkd0zdf0b9dd1hp39180000gn/T//ccKOo87o.s 			page 1


   1              		.cpu cortex-m4
   2              		.eabi_attribute 27, 1
   3              		.eabi_attribute 28, 1
   4              		.eabi_attribute 20, 1
   5              		.eabi_attribute 21, 1
   6              		.eabi_attribute 23, 3
   7              		.eabi_attribute 24, 1
   8              		.eabi_attribute 25, 1
   9              		.eabi_attribute 26, 1
  10              		.eabi_attribute 30, 2
  11              		.eabi_attribute 34, 1
  12              		.eabi_attribute 18, 4
  13              		.file	"audio_thread.c"
  14              		.text
  15              	.Ltext0:
  16              		.cfi_sections	.debug_frame
  17              		.section	.text.error_cb,"ax",%progbits
  18              		.align	1
  19              		.p2align 4,,15
  20              		.syntax unified
  21              		.thumb
  22              		.thumb_func
  23              		.fpu fpv4-sp-d16
  24              		.type	error_cb, %function
  25              	error_cb:
  26              	.LFB256:
  27              		.file 1 "lib/e-puck2_main-processor/src/audio/audio_thread.c"
  28              		.loc 1 63 0
  29              		.cfi_startproc
  30              		@ args = 0, pretend = 0, frame = 8
  31              		@ frame_needed = 0, uses_anonymous_args = 0
  32              	.LVL0:
  33 0000 00B5     		push	{lr}
  34              		.cfi_def_cfa_offset 4
  35              		.cfi_offset 14, -4
  36 0002 084B     		ldr	r3, .L7
  37 0004 83B0     		sub	sp, sp, #12
  38              		.cfi_def_cfa_offset 16
  39              		.loc 1 63 0
  40 0006 1A68     		ldr	r2, [r3]
  41 0008 0192     		str	r2, [sp, #4]
  42              		.loc 1 68 0
  43 000a 019A     		ldr	r2, [sp, #4]
  44 000c 1B68     		ldr	r3, [r3]
  45 000e 9A42     		cmp	r2, r3
  46 0010 05D1     		bne	.L6
  47 0012 0548     		ldr	r0, .L7+4
  48              	.LVL1:
  49              		.loc 1 69 0
  50 0014 03B0     		add	sp, sp, #12
  51              		.cfi_remember_state
  52              		.cfi_def_cfa_offset 4
  53              		@ sp needed
  54 0016 5DF804EB 		ldr	lr, [sp], #4
  55              		.cfi_restore 14
  56              		.cfi_def_cfa_offset 0
  57              		.loc 1 68 0
ARM GAS  /var/folders/qd/4mxf5pkd0zdf0b9dd1hp39180000gn/T//ccKOo87o.s 			page 2


  58 001a FFF7FEBF 		b	chSysHalt
  59              	.LVL2:
  60              	.L6:
  61              		.cfi_restore_state
  62 001e FFF7FEFF 		bl	__stack_chk_fail
  63              	.LVL3:
  64              	.L8:
  65 0022 00BF     		.align	2
  66              	.L7:
  67 0024 00000000 		.word	__stack_chk_guard
  68 0028 00000000 		.word	.LC0
  69              		.cfi_endproc
  70              	.LFE256:
  71              		.size	error_cb, .-error_cb
  72              		.section	.text.dac_play,"ax",%progbits
  73              		.align	1
  74              		.p2align 4,,15
  75              		.global	dac_play
  76              		.syntax unified
  77              		.thumb
  78              		.thumb_func
  79              		.fpu fpv4-sp-d16
  80              		.type	dac_play, %function
  81              	dac_play:
  82              	.LFB258:
  83              		.loc 1 102 0
  84              		.cfi_startproc
  85              		@ args = 0, pretend = 0, frame = 8
  86              		@ frame_needed = 0, uses_anonymous_args = 0
  87              	.LVL4:
  88 0000 70B5     		push	{r4, r5, r6, lr}
  89              		.cfi_def_cfa_offset 16
  90              		.cfi_offset 4, -16
  91              		.cfi_offset 5, -12
  92              		.cfi_offset 6, -8
  93              		.cfi_offset 14, -4
  94              		.loc 1 103 0
  95 0002 1849     		ldr	r1, .L17
  96              		.loc 1 102 0
  97 0004 184C     		ldr	r4, .L17+4
  98              		.loc 1 103 0
  99 0006 0A78     		ldrb	r2, [r1]	@ zero_extendqisi2
 100              		.loc 1 102 0
 101 0008 2368     		ldr	r3, [r4]
 102 000a 82B0     		sub	sp, sp, #8
 103              		.cfi_def_cfa_offset 24
 104              		.loc 1 102 0
 105 000c 0193     		str	r3, [sp, #4]
 106 000e 4FF4B473 		mov	r3, #360
 107 0012 03FB00F5 		mul	r5, r3, r0
 108              		.loc 1 103 0
 109 0016 62B1     		cbz	r2, .L16
 110              		.loc 1 109 0
 111 0018 019A     		ldr	r2, [sp, #4]
 112 001a 2368     		ldr	r3, [r4]
 113 001c 9A42     		cmp	r2, r3
 114 001e 1FD1     		bne	.L15
ARM GAS  /var/folders/qd/4mxf5pkd0zdf0b9dd1hp39180000gn/T//ccKOo87o.s 			page 3


 115 0020 1248     		ldr	r0, .L17+8
 116              	.LVL5:
 117 0022 1349     		ldr	r1, .L17+12
 118 0024 B1FBF5F1 		udiv	r1, r1, r5
 119              		.loc 1 111 0
 120 0028 02B0     		add	sp, sp, #8
 121              		.cfi_remember_state
 122              		.cfi_def_cfa_offset 16
 123              		@ sp needed
 124 002a BDE87040 		pop	{r4, r5, r6, lr}
 125              		.cfi_restore 14
 126              		.cfi_restore 6
 127              		.cfi_restore 5
 128              		.cfi_restore 4
 129              		.cfi_def_cfa_offset 0
 130              		.loc 1 109 0
 131 002e FFF7FEBF 		b	gptChangeInterval
 132              	.LVL6:
 133              	.L16:
 134              		.cfi_restore_state
 135              		.loc 1 105 0
 136 0032 1048     		ldr	r0, .L17+16
 137              	.LVL7:
 138              		.loc 1 106 0
 139 0034 104A     		ldr	r2, .L17+20
 140              		.loc 1 104 0
 141 0036 0126     		movs	r6, #1
 142 0038 0E70     		strb	r6, [r1]
 143              		.loc 1 105 0
 144 003a 8021     		movs	r1, #128
 145 003c 4183     		strh	r1, [r0, #26]	@ movhi
 146              		.loc 1 106 0
 147 003e 0F49     		ldr	r1, .L17+24
 148 0040 0F48     		ldr	r0, .L17+28
 149 0042 FFF7FEFF 		bl	dacStartConversion
 150              	.LVL8:
 151              		.loc 1 107 0
 152 0046 019A     		ldr	r2, [sp, #4]
 153 0048 2368     		ldr	r3, [r4]
 154 004a 9A42     		cmp	r2, r3
 155 004c 08D1     		bne	.L15
 156 004e 0748     		ldr	r0, .L17+8
 157 0050 0749     		ldr	r1, .L17+12
 158 0052 B1FBF5F1 		udiv	r1, r1, r5
 159              		.loc 1 111 0
 160 0056 02B0     		add	sp, sp, #8
 161              		.cfi_remember_state
 162              		.cfi_def_cfa_offset 16
 163              		@ sp needed
 164 0058 BDE87040 		pop	{r4, r5, r6, lr}
 165              		.cfi_restore 14
 166              		.cfi_restore 6
 167              		.cfi_restore 5
 168              		.cfi_restore 4
 169              		.cfi_def_cfa_offset 0
 170              		.loc 1 107 0
 171 005c FFF7FEBF 		b	gptStartContinuous
ARM GAS  /var/folders/qd/4mxf5pkd0zdf0b9dd1hp39180000gn/T//ccKOo87o.s 			page 4


 172              	.LVL9:
 173              	.L15:
 174              		.cfi_restore_state
 175              		.loc 1 109 0
 176 0060 FFF7FEFF 		bl	__stack_chk_fail
 177              	.LVL10:
 178              	.L18:
 179              		.align	2
 180              	.L17:
 181 0064 00000000 		.word	.LANCHOR0
 182 0068 00000000 		.word	__stack_chk_guard
 183 006c 00000000 		.word	GPTD6
 184 0070 00BD0105 		.word	84000000
 185 0074 000C0240 		.word	1073875968
 186 0078 00000000 		.word	.LANCHOR1
 187 007c 00000000 		.word	.LANCHOR2
 188 0080 00000000 		.word	DACD2
 189              		.cfi_endproc
 190              	.LFE258:
 191              		.size	dac_play, .-dac_play
 192              		.section	.text.dac_stop,"ax",%progbits
 193              		.align	1
 194              		.p2align 4,,15
 195              		.global	dac_stop
 196              		.syntax unified
 197              		.thumb
 198              		.thumb_func
 199              		.fpu fpv4-sp-d16
 200              		.type	dac_stop, %function
 201              	dac_stop:
 202              	.LFB259:
 203              		.loc 1 113 0
 204              		.cfi_startproc
 205              		@ args = 0, pretend = 0, frame = 8
 206              		@ frame_needed = 0, uses_anonymous_args = 0
 207 0000 10B5     		push	{r4, lr}
 208              		.cfi_def_cfa_offset 8
 209              		.cfi_offset 4, -8
 210              		.cfi_offset 14, -4
 211 0002 0C4C     		ldr	r4, .L23
 212              		.loc 1 114 0
 213 0004 0C4B     		ldr	r3, .L23+4
 214              		.loc 1 113 0
 215 0006 2268     		ldr	r2, [r4]
 216              		.loc 1 115 0
 217 0008 0C48     		ldr	r0, .L23+8
 218              		.loc 1 113 0
 219 000a 82B0     		sub	sp, sp, #8
 220              		.cfi_def_cfa_offset 16
 221              		.loc 1 113 0
 222 000c 0192     		str	r2, [sp, #4]
 223              		.loc 1 114 0
 224 000e 8022     		movs	r2, #128
 225 0010 1A83     		strh	r2, [r3, #24]	@ movhi
 226              		.loc 1 115 0
 227 0012 FFF7FEFF 		bl	gptStopTimer
 228              	.LVL11:
ARM GAS  /var/folders/qd/4mxf5pkd0zdf0b9dd1hp39180000gn/T//ccKOo87o.s 			page 5


 229              		.loc 1 116 0
 230 0016 0A48     		ldr	r0, .L23+12
 231 0018 FFF7FEFF 		bl	dacStopConversion
 232              	.LVL12:
 233              		.loc 1 118 0
 234 001c 019A     		ldr	r2, [sp, #4]
 235 001e 2368     		ldr	r3, [r4]
 236              		.loc 1 117 0
 237 0020 0849     		ldr	r1, .L23+16
 238 0022 0020     		movs	r0, #0
 239              		.loc 1 118 0
 240 0024 9A42     		cmp	r2, r3
 241              		.loc 1 117 0
 242 0026 0870     		strb	r0, [r1]
 243              		.loc 1 118 0
 244 0028 01D1     		bne	.L22
 245 002a 02B0     		add	sp, sp, #8
 246              		.cfi_remember_state
 247              		.cfi_def_cfa_offset 8
 248              		@ sp needed
 249 002c 10BD     		pop	{r4, pc}
 250              	.L22:
 251              		.cfi_restore_state
 252 002e FFF7FEFF 		bl	__stack_chk_fail
 253              	.LVL13:
 254              	.L24:
 255 0032 00BF     		.align	2
 256              	.L23:
 257 0034 00000000 		.word	__stack_chk_guard
 258 0038 000C0240 		.word	1073875968
 259 003c 00000000 		.word	GPTD6
 260 0040 00000000 		.word	DACD2
 261 0044 00000000 		.word	.LANCHOR0
 262              		.cfi_endproc
 263              	.LFE259:
 264              		.size	dac_stop, .-dac_stop
 265              		.section	.text.dac_start,"ax",%progbits
 266              		.align	1
 267              		.p2align 4,,15
 268              		.global	dac_start
 269              		.syntax unified
 270              		.thumb
 271              		.thumb_func
 272              		.fpu fpv4-sp-d16
 273              		.type	dac_start, %function
 274              	dac_start:
 275              	.LFB257:
 276              		.loc 1 76 0
 277              		.cfi_startproc
 278              		@ args = 0, pretend = 0, frame = 8
 279              		@ frame_needed = 0, uses_anonymous_args = 0
 280 0000 70B5     		push	{r4, r5, r6, lr}
 281              		.cfi_def_cfa_offset 16
 282              		.cfi_offset 4, -16
 283              		.cfi_offset 5, -12
 284              		.cfi_offset 6, -8
 285              		.cfi_offset 14, -4
ARM GAS  /var/folders/qd/4mxf5pkd0zdf0b9dd1hp39180000gn/T//ccKOo87o.s 			page 6


 286 0002 154D     		ldr	r5, .L30
 287              		.loc 1 83 0
 288 0004 154A     		ldr	r2, .L30+4
 289              		.loc 1 77 0
 290 0006 164B     		ldr	r3, .L30+8
 291              		.loc 1 76 0
 292 0008 2968     		ldr	r1, [r5]
 293              		.loc 1 79 0
 294 000a 164E     		ldr	r6, .L30+12
 295 000c 9E60     		str	r6, [r3, #8]
 296              		.loc 1 76 0
 297 000e 82B0     		sub	sp, sp, #8
 298              		.cfi_def_cfa_offset 24
 299              		.loc 1 78 0
 300 0010 0024     		movs	r4, #0
 301              		.loc 1 83 0
 302 0012 4FF40060 		mov	r0, #2048
 303 0016 1080     		strh	r0, [r2]	@ movhi
 304              		.loc 1 76 0
 305 0018 0191     		str	r1, [sp, #4]
 306              		.loc 1 84 0
 307 001a 9470     		strb	r4, [r2, #2]
 308              		.loc 1 86 0
 309 001c 1146     		mov	r1, r2
 310 001e 1248     		ldr	r0, .L30+16
 311              		.loc 1 78 0
 312 0020 5C60     		str	r4, [r3, #4]
 313              		.loc 1 77 0
 314 0022 0122     		movs	r2, #1
 315 0024 1A60     		str	r2, [r3]
 316              		.loc 1 80 0
 317 0026 DC60     		str	r4, [r3, #12]
 318              		.loc 1 86 0
 319 0028 FFF7FEFF 		bl	dacStart
 320              	.LVL14:
 321              		.loc 1 90 0
 322 002c 0F4B     		ldr	r3, .L30+20
 323 002e 104E     		ldr	r6, .L30+24
 324              		.loc 1 95 0
 325 0030 1048     		ldr	r0, .L30+28
 326              		.loc 1 91 0
 327 0032 5C60     		str	r4, [r3, #4]
 328              		.loc 1 92 0
 329 0034 2022     		movs	r2, #32
 330              		.loc 1 95 0
 331 0036 1946     		mov	r1, r3
 332              		.loc 1 92 0
 333 0038 9A60     		str	r2, [r3, #8]
 334              		.loc 1 93 0
 335 003a DC60     		str	r4, [r3, #12]
 336              		.loc 1 90 0
 337 003c 1E60     		str	r6, [r3]
 338              		.loc 1 95 0
 339 003e FFF7FEFF 		bl	gptStart
 340              	.LVL15:
 341              		.loc 1 98 0
 342 0042 019A     		ldr	r2, [sp, #4]
ARM GAS  /var/folders/qd/4mxf5pkd0zdf0b9dd1hp39180000gn/T//ccKOo87o.s 			page 7


 343 0044 2B68     		ldr	r3, [r5]
 344 0046 9A42     		cmp	r2, r3
 345 0048 04D1     		bne	.L29
 346              		.loc 1 100 0
 347 004a 02B0     		add	sp, sp, #8
 348              		.cfi_remember_state
 349              		.cfi_def_cfa_offset 16
 350              		@ sp needed
 351 004c BDE87040 		pop	{r4, r5, r6, lr}
 352              		.cfi_restore 14
 353              		.cfi_restore 6
 354              		.cfi_restore 5
 355              		.cfi_restore 4
 356              		.cfi_def_cfa_offset 0
 357              		.loc 1 98 0
 358 0050 FFF7FEBF 		b	dac_stop
 359              	.LVL16:
 360              	.L29:
 361              		.cfi_restore_state
 362 0054 FFF7FEFF 		bl	__stack_chk_fail
 363              	.LVL17:
 364              	.L31:
 365              		.align	2
 366              	.L30:
 367 0058 00000000 		.word	__stack_chk_guard
 368 005c 00000000 		.word	.LANCHOR3
 369 0060 00000000 		.word	.LANCHOR2
 370 0064 00000000 		.word	error_cb
 371 0068 00000000 		.word	DACD2
 372 006c 00000000 		.word	.LANCHOR4
 373 0070 00BD0105 		.word	84000000
 374 0074 00000000 		.word	GPTD6
 375              		.cfi_endproc
 376              	.LFE257:
 377              		.size	dac_start, .-dac_start
 378              		.section	.bss.config.9855,"aw",%nobits
 379              		.align	2
 380              		.set	.LANCHOR4,. + 0
 381              		.type	config.9855, %object
 382              		.size	config.9855, 16
 383              	config.9855:
 384 0000 00000000 		.space	16
 384      00000000 
 384      00000000 
 384      00000000 
 385              		.section	.bss.dac_config.9854,"aw",%nobits
 386              		.align	2
 387              		.set	.LANCHOR3,. + 0
 388              		.type	dac_config.9854, %object
 389              		.size	dac_config.9854, 4
 390              	dac_config.9854:
 391 0000 00000000 		.space	4
 392              		.section	.bss.dac_conversion,"aw",%nobits
 393              		.align	2
 394              		.set	.LANCHOR2,. + 0
 395              		.type	dac_conversion, %object
 396              		.size	dac_conversion, 16
ARM GAS  /var/folders/qd/4mxf5pkd0zdf0b9dd1hp39180000gn/T//ccKOo87o.s 			page 8


 397              	dac_conversion:
 398 0000 00000000 		.space	16
 398      00000000 
 398      00000000 
 398      00000000 
 399              		.section	.bss.dac_state,"aw",%nobits
 400              		.set	.LANCHOR0,. + 0
 401              		.type	dac_state, %object
 402              		.size	dac_state, 1
 403              	dac_state:
 404 0000 00       		.space	1
 405              		.section	.rodata.dac_buffer,"a",%progbits
 406              		.align	2
 407              		.set	.LANCHOR1,. + 0
 408              		.type	dac_buffer, %object
 409              		.size	dac_buffer, 720
 410              	dac_buffer:
 411 0000 FF07     		.short	2047
 412 0002 2208     		.short	2082
 413 0004 4608     		.short	2118
 414 0006 6A08     		.short	2154
 415 0008 8D08     		.short	2189
 416 000a B108     		.short	2225
 417 000c D408     		.short	2260
 418 000e F808     		.short	2296
 419 0010 1B09     		.short	2331
 420 0012 3F09     		.short	2367
 421 0014 6209     		.short	2402
 422 0016 8509     		.short	2437
 423 0018 A809     		.short	2472
 424 001a CB09     		.short	2507
 425 001c EE09     		.short	2542
 426 001e 100A     		.short	2576
 427 0020 330A     		.short	2611
 428 0022 550A     		.short	2645
 429 0024 770A     		.short	2679
 430 0026 990A     		.short	2713
 431 0028 BB0A     		.short	2747
 432 002a DC0A     		.short	2780
 433 002c FD0A     		.short	2813
 434 002e 1E0B     		.short	2846
 435 0030 3F0B     		.short	2879
 436 0032 600B     		.short	2912
 437 0034 800B     		.short	2944
 438 0036 A00B     		.short	2976
 439 0038 C00B     		.short	3008
 440 003a DF0B     		.short	3039
 441 003c FE0B     		.short	3070
 442 003e 1D0C     		.short	3101
 443 0040 3B0C     		.short	3131
 444 0042 590C     		.short	3161
 445 0044 770C     		.short	3191
 446 0046 950C     		.short	3221
 447 0048 B20C     		.short	3250
 448 004a CE0C     		.short	3278
 449 004c EB0C     		.short	3307
 450 004e 070D     		.short	3335
ARM GAS  /var/folders/qd/4mxf5pkd0zdf0b9dd1hp39180000gn/T//ccKOo87o.s 			page 9


 451 0050 220D     		.short	3362
 452 0052 3D0D     		.short	3389
 453 0054 580D     		.short	3416
 454 0056 730D     		.short	3443
 455 0058 8C0D     		.short	3468
 456 005a A60D     		.short	3494
 457 005c BF0D     		.short	3519
 458 005e D80D     		.short	3544
 459 0060 F00D     		.short	3568
 460 0062 070E     		.short	3591
 461 0064 1F0E     		.short	3615
 462 0066 350E     		.short	3637
 463 0068 4C0E     		.short	3660
 464 006a 610E     		.short	3681
 465 006c 770E     		.short	3703
 466 006e 8B0E     		.short	3723
 467 0070 A00E     		.short	3744
 468 0072 B30E     		.short	3763
 469 0074 C60E     		.short	3782
 470 0076 D90E     		.short	3801
 471 0078 EB0E     		.short	3819
 472 007a FD0E     		.short	3837
 473 007c 0E0F     		.short	3854
 474 007e 1E0F     		.short	3870
 475 0080 2E0F     		.short	3886
 476 0082 3E0F     		.short	3902
 477 0084 4D0F     		.short	3917
 478 0086 5B0F     		.short	3931
 479 0088 680F     		.short	3944
 480 008a 760F     		.short	3958
 481 008c 820F     		.short	3970
 482 008e 8E0F     		.short	3982
 483 0090 990F     		.short	3993
 484 0092 A40F     		.short	4004
 485 0094 AE0F     		.short	4014
 486 0096 B80F     		.short	4024
 487 0098 C10F     		.short	4033
 488 009a C90F     		.short	4041
 489 009c D10F     		.short	4049
 490 009e D80F     		.short	4056
 491 00a0 DE0F     		.short	4062
 492 00a2 E40F     		.short	4068
 493 00a4 EA0F     		.short	4074
 494 00a6 EE0F     		.short	4078
 495 00a8 F20F     		.short	4082
 496 00aa F60F     		.short	4086
 497 00ac F90F     		.short	4089
 498 00ae FB0F     		.short	4091
 499 00b0 FC0F     		.short	4092
 500 00b2 FD0F     		.short	4093
 501 00b4 FE0F     		.short	4094
 502 00b6 FD0F     		.short	4093
 503 00b8 FC0F     		.short	4092
 504 00ba FB0F     		.short	4091
 505 00bc F90F     		.short	4089
 506 00be F60F     		.short	4086
 507 00c0 F20F     		.short	4082
ARM GAS  /var/folders/qd/4mxf5pkd0zdf0b9dd1hp39180000gn/T//ccKOo87o.s 			page 10


 508 00c2 EE0F     		.short	4078
 509 00c4 EA0F     		.short	4074
 510 00c6 E40F     		.short	4068
 511 00c8 DE0F     		.short	4062
 512 00ca D80F     		.short	4056
 513 00cc D10F     		.short	4049
 514 00ce C90F     		.short	4041
 515 00d0 C10F     		.short	4033
 516 00d2 B80F     		.short	4024
 517 00d4 AE0F     		.short	4014
 518 00d6 A40F     		.short	4004
 519 00d8 990F     		.short	3993
 520 00da 8E0F     		.short	3982
 521 00dc 820F     		.short	3970
 522 00de 760F     		.short	3958
 523 00e0 680F     		.short	3944
 524 00e2 5B0F     		.short	3931
 525 00e4 4D0F     		.short	3917
 526 00e6 3E0F     		.short	3902
 527 00e8 2E0F     		.short	3886
 528 00ea 1E0F     		.short	3870
 529 00ec 0E0F     		.short	3854
 530 00ee FD0E     		.short	3837
 531 00f0 EB0E     		.short	3819
 532 00f2 D90E     		.short	3801
 533 00f4 C60E     		.short	3782
 534 00f6 B30E     		.short	3763
 535 00f8 A00E     		.short	3744
 536 00fa 8B0E     		.short	3723
 537 00fc 770E     		.short	3703
 538 00fe 610E     		.short	3681
 539 0100 4C0E     		.short	3660
 540 0102 350E     		.short	3637
 541 0104 1F0E     		.short	3615
 542 0106 070E     		.short	3591
 543 0108 F00D     		.short	3568
 544 010a D80D     		.short	3544
 545 010c BF0D     		.short	3519
 546 010e A60D     		.short	3494
 547 0110 8C0D     		.short	3468
 548 0112 730D     		.short	3443
 549 0114 580D     		.short	3416
 550 0116 3D0D     		.short	3389
 551 0118 220D     		.short	3362
 552 011a 070D     		.short	3335
 553 011c EB0C     		.short	3307
 554 011e CE0C     		.short	3278
 555 0120 B20C     		.short	3250
 556 0122 950C     		.short	3221
 557 0124 770C     		.short	3191
 558 0126 590C     		.short	3161
 559 0128 3B0C     		.short	3131
 560 012a 1D0C     		.short	3101
 561 012c FE0B     		.short	3070
 562 012e DF0B     		.short	3039
 563 0130 C00B     		.short	3008
 564 0132 A00B     		.short	2976
ARM GAS  /var/folders/qd/4mxf5pkd0zdf0b9dd1hp39180000gn/T//ccKOo87o.s 			page 11


 565 0134 800B     		.short	2944
 566 0136 600B     		.short	2912
 567 0138 3F0B     		.short	2879
 568 013a 1E0B     		.short	2846
 569 013c FD0A     		.short	2813
 570 013e DC0A     		.short	2780
 571 0140 BB0A     		.short	2747
 572 0142 990A     		.short	2713
 573 0144 770A     		.short	2679
 574 0146 550A     		.short	2645
 575 0148 330A     		.short	2611
 576 014a 100A     		.short	2576
 577 014c EE09     		.short	2542
 578 014e CB09     		.short	2507
 579 0150 A809     		.short	2472
 580 0152 8509     		.short	2437
 581 0154 6209     		.short	2402
 582 0156 3F09     		.short	2367
 583 0158 1B09     		.short	2331
 584 015a F808     		.short	2296
 585 015c D408     		.short	2260
 586 015e B108     		.short	2225
 587 0160 8D08     		.short	2189
 588 0162 6A08     		.short	2154
 589 0164 4608     		.short	2118
 590 0166 2208     		.short	2082
 591 0168 FF07     		.short	2047
 592 016a DC07     		.short	2012
 593 016c B807     		.short	1976
 594 016e 9407     		.short	1940
 595 0170 7107     		.short	1905
 596 0172 4D07     		.short	1869
 597 0174 2A07     		.short	1834
 598 0176 0607     		.short	1798
 599 0178 E306     		.short	1763
 600 017a BF06     		.short	1727
 601 017c 9C06     		.short	1692
 602 017e 7906     		.short	1657
 603 0180 5606     		.short	1622
 604 0182 3306     		.short	1587
 605 0184 1006     		.short	1552
 606 0186 EE05     		.short	1518
 607 0188 CB05     		.short	1483
 608 018a A905     		.short	1449
 609 018c 8705     		.short	1415
 610 018e 6505     		.short	1381
 611 0190 4305     		.short	1347
 612 0192 2205     		.short	1314
 613 0194 0105     		.short	1281
 614 0196 E004     		.short	1248
 615 0198 BF04     		.short	1215
 616 019a 9E04     		.short	1182
 617 019c 7E04     		.short	1150
 618 019e 5E04     		.short	1118
 619 01a0 3E04     		.short	1086
 620 01a2 1F04     		.short	1055
 621 01a4 0004     		.short	1024
ARM GAS  /var/folders/qd/4mxf5pkd0zdf0b9dd1hp39180000gn/T//ccKOo87o.s 			page 12


 622 01a6 E103     		.short	993
 623 01a8 C303     		.short	963
 624 01aa A503     		.short	933
 625 01ac 8703     		.short	903
 626 01ae 6903     		.short	873
 627 01b0 4C03     		.short	844
 628 01b2 3003     		.short	816
 629 01b4 1303     		.short	787
 630 01b6 F702     		.short	759
 631 01b8 DC02     		.short	732
 632 01ba C102     		.short	705
 633 01bc A602     		.short	678
 634 01be 8B02     		.short	651
 635 01c0 7202     		.short	626
 636 01c2 5802     		.short	600
 637 01c4 3F02     		.short	575
 638 01c6 2602     		.short	550
 639 01c8 0E02     		.short	526
 640 01ca F701     		.short	503
 641 01cc DF01     		.short	479
 642 01ce C901     		.short	457
 643 01d0 B201     		.short	434
 644 01d2 9D01     		.short	413
 645 01d4 8701     		.short	391
 646 01d6 7301     		.short	371
 647 01d8 5E01     		.short	350
 648 01da 4B01     		.short	331
 649 01dc 3801     		.short	312
 650 01de 2501     		.short	293
 651 01e0 1301     		.short	275
 652 01e2 0101     		.short	257
 653 01e4 F000     		.short	240
 654 01e6 E000     		.short	224
 655 01e8 D000     		.short	208
 656 01ea C000     		.short	192
 657 01ec B100     		.short	177
 658 01ee A300     		.short	163
 659 01f0 9600     		.short	150
 660 01f2 8800     		.short	136
 661 01f4 7C00     		.short	124
 662 01f6 7000     		.short	112
 663 01f8 6500     		.short	101
 664 01fa 5A00     		.short	90
 665 01fc 5000     		.short	80
 666 01fe 4600     		.short	70
 667 0200 3D00     		.short	61
 668 0202 3500     		.short	53
 669 0204 2D00     		.short	45
 670 0206 2600     		.short	38
 671 0208 2000     		.short	32
 672 020a 1A00     		.short	26
 673 020c 1400     		.short	20
 674 020e 1000     		.short	16
 675 0210 0C00     		.short	12
 676 0212 0800     		.short	8
 677 0214 0500     		.short	5
 678 0216 0300     		.short	3
ARM GAS  /var/folders/qd/4mxf5pkd0zdf0b9dd1hp39180000gn/T//ccKOo87o.s 			page 13


 679 0218 0200     		.short	2
 680 021a 0100     		.short	1
 681 021c 0000     		.short	0
 682 021e 0100     		.short	1
 683 0220 0200     		.short	2
 684 0222 0300     		.short	3
 685 0224 0500     		.short	5
 686 0226 0800     		.short	8
 687 0228 0C00     		.short	12
 688 022a 1000     		.short	16
 689 022c 1400     		.short	20
 690 022e 1A00     		.short	26
 691 0230 2000     		.short	32
 692 0232 2600     		.short	38
 693 0234 2D00     		.short	45
 694 0236 3500     		.short	53
 695 0238 3D00     		.short	61
 696 023a 4600     		.short	70
 697 023c 5000     		.short	80
 698 023e 5A00     		.short	90
 699 0240 6500     		.short	101
 700 0242 7000     		.short	112
 701 0244 7C00     		.short	124
 702 0246 8800     		.short	136
 703 0248 9600     		.short	150
 704 024a A300     		.short	163
 705 024c B100     		.short	177
 706 024e C000     		.short	192
 707 0250 D000     		.short	208
 708 0252 E000     		.short	224
 709 0254 F000     		.short	240
 710 0256 0101     		.short	257
 711 0258 1301     		.short	275
 712 025a 2501     		.short	293
 713 025c 3801     		.short	312
 714 025e 4B01     		.short	331
 715 0260 5E01     		.short	350
 716 0262 7301     		.short	371
 717 0264 8701     		.short	391
 718 0266 9D01     		.short	413
 719 0268 B201     		.short	434
 720 026a C901     		.short	457
 721 026c DF01     		.short	479
 722 026e F701     		.short	503
 723 0270 0E02     		.short	526
 724 0272 2602     		.short	550
 725 0274 3F02     		.short	575
 726 0276 5802     		.short	600
 727 0278 7202     		.short	626
 728 027a 8B02     		.short	651
 729 027c A602     		.short	678
 730 027e C102     		.short	705
 731 0280 DC02     		.short	732
 732 0282 F702     		.short	759
 733 0284 1303     		.short	787
 734 0286 3003     		.short	816
 735 0288 4C03     		.short	844
ARM GAS  /var/folders/qd/4mxf5pkd0zdf0b9dd1hp39180000gn/T//ccKOo87o.s 			page 14


 736 028a 6903     		.short	873
 737 028c 8703     		.short	903
 738 028e A503     		.short	933
 739 0290 C303     		.short	963
 740 0292 E103     		.short	993
 741 0294 0004     		.short	1024
 742 0296 1F04     		.short	1055
 743 0298 3E04     		.short	1086
 744 029a 5E04     		.short	1118
 745 029c 7E04     		.short	1150
 746 029e 9E04     		.short	1182
 747 02a0 BF04     		.short	1215
 748 02a2 E004     		.short	1248
 749 02a4 0105     		.short	1281
 750 02a6 2205     		.short	1314
 751 02a8 4305     		.short	1347
 752 02aa 6505     		.short	1381
 753 02ac 8705     		.short	1415
 754 02ae A905     		.short	1449
 755 02b0 CB05     		.short	1483
 756 02b2 EE05     		.short	1518
 757 02b4 1006     		.short	1552
 758 02b6 3306     		.short	1587
 759 02b8 5606     		.short	1622
 760 02ba 7906     		.short	1657
 761 02bc 9C06     		.short	1692
 762 02be BF06     		.short	1727
 763 02c0 E306     		.short	1763
 764 02c2 0607     		.short	1798
 765 02c4 2A07     		.short	1834
 766 02c6 4D07     		.short	1869
 767 02c8 7107     		.short	1905
 768 02ca 9407     		.short	1940
 769 02cc B807     		.short	1976
 770 02ce DC07     		.short	2012
 771              		.section	.rodata.error_cb.str1.4,"aMS",%progbits,1
 772              		.align	2
 773              	.LC0:
 774 0000 44414320 		.ascii	"DAC failure\000"
 774      6661696C 
 774      75726500 
 775              		.text
 776              	.Letext0:
 777              		.file 2 "/Applications/Eclipse_e-puck2.app/Contents/Eclipse_e-puck2/Tools/gcc-arm-none-eabi-7-2017
 778              		.file 3 "/Applications/Eclipse_e-puck2.app/Contents/Eclipse_e-puck2/Tools/gcc-arm-none-eabi-7-2017
 779              		.file 4 "/Applications/Eclipse_e-puck2.app/Contents/Eclipse_e-puck2/Tools/gcc-arm-none-eabi-7-2017
 780              		.file 5 "lib/e-puck2_main-processor/ChibiOS//os/rt/ports/ARMCMx/compilers/GCC/chtypes.h"
 781              		.file 6 "lib/e-puck2_main-processor/ChibiOS//os/rt/include/chsystypes.h"
 782              		.file 7 "lib/e-puck2_main-processor/ChibiOS//os/rt/include/chschd.h"
 783              		.file 8 "lib/e-puck2_main-processor/ChibiOS//os/ext/CMSIS/include/core_cm4.h"
 784              		.file 9 "lib/e-puck2_main-processor/ChibiOS//os/ext/CMSIS/ST/system_stm32f4xx.h"
 785              		.file 10 "lib/e-puck2_main-processor/ChibiOS//os/ext/CMSIS/ST/stm32f407xx.h"
 786              		.file 11 "lib/e-puck2_main-processor/ChibiOS//os/rt/ports/ARMCMx/chcore.h"
 787              		.file 12 "lib/e-puck2_main-processor/ChibiOS//os/rt/ports/ARMCMx/chcore_v7m.h"
 788              		.file 13 "lib/e-puck2_main-processor/ChibiOS//os/rt/include/chdebug.h"
 789              		.file 14 "lib/e-puck2_main-processor/ChibiOS//os/rt/include/chtm.h"
 790              		.file 15 "lib/e-puck2_main-processor/ChibiOS//os/rt/include/chstats.h"
ARM GAS  /var/folders/qd/4mxf5pkd0zdf0b9dd1hp39180000gn/T//ccKOo87o.s 			page 15


 791              		.file 16 "lib/e-puck2_main-processor/ChibiOS//os/rt/include/chsem.h"
 792              		.file 17 "lib/e-puck2_main-processor/ChibiOS//os/rt/include/chmtx.h"
 793              		.file 18 "lib/e-puck2_main-processor/ChibiOS//os/rt/include/chregistry.h"
 794              		.file 19 "lib/e-puck2_main-processor/ChibiOS//os/rt/include/chevents.h"
 795              		.file 20 "lib/e-puck2_main-processor/ChibiOS//os/rt/include/chqueues.h"
 796              		.file 21 "lib/e-puck2_main-processor/ChibiOS//os/hal/ports/STM32/STM32F4xx/stm32_dma.h"
 797              		.file 22 "lib/e-puck2_main-processor/ChibiOS//os/hal/include/hal_ioblock.h"
 798              		.file 23 "lib/e-puck2_main-processor/ChibiOS//os/hal/ports/STM32/LLD/GPIOv2/pal_lld.h"
 799              		.file 24 "lib/e-puck2_main-processor/ChibiOS//os/hal/include/adc.h"
 800              		.file 25 "lib/e-puck2_main-processor/ChibiOS//os/hal/ports/STM32/STM32F4xx/adc_lld.h"
 801              		.file 26 "lib/e-puck2_main-processor/ChibiOS//os/hal/include/can.h"
 802              		.file 27 "lib/e-puck2_main-processor/ChibiOS//os/hal/ports/STM32/LLD/can_lld.h"
 803              		.file 28 "lib/e-puck2_main-processor/ChibiOS//os/hal/include/dac.h"
 804              		.file 29 "lib/e-puck2_main-processor/ChibiOS//os/hal/ports/STM32/LLD/DACv1/dac_lld.h"
 805              		.file 30 "lib/e-puck2_main-processor/ChibiOS//os/hal/include/ext.h"
 806              		.file 31 "lib/e-puck2_main-processor/ChibiOS//os/hal/ports/STM32/LLD/ext_lld.h"
 807              		.file 32 "lib/e-puck2_main-processor/ChibiOS//os/hal/include/gpt.h"
 808              		.file 33 "lib/e-puck2_main-processor/ChibiOS//os/hal/ports/STM32/LLD/TIMv1/gpt_lld.h"
 809              		.file 34 "lib/e-puck2_main-processor/ChibiOS//os/hal/ports/STM32/LLD/TIMv1/stm32_tim.h"
 810              		.file 35 "lib/e-puck2_main-processor/ChibiOS//os/hal/include/i2c.h"
 811              		.file 36 "lib/e-puck2_main-processor/ChibiOS//os/hal/ports/STM32/LLD/I2Cv1/i2c_lld.h"
 812              		.file 37 "lib/e-puck2_main-processor/ChibiOS//os/hal/include/i2s.h"
 813              		.file 38 "lib/e-puck2_main-processor/ChibiOS//os/hal/ports/STM32/LLD/SPIv1/i2s_lld.h"
 814              		.file 39 "lib/e-puck2_main-processor/ChibiOS//os/hal/include/pwm.h"
 815              		.file 40 "lib/e-puck2_main-processor/ChibiOS//os/hal/ports/STM32/LLD/TIMv1/pwm_lld.h"
 816              		.file 41 "lib/e-puck2_main-processor/ChibiOS//os/hal/include/serial.h"
 817              		.file 42 "lib/e-puck2_main-processor/ChibiOS//os/hal/ports/STM32/LLD/USARTv1/serial_lld.h"
 818              		.file 43 "lib/e-puck2_main-processor/ChibiOS//os/hal/include/sdc.h"
 819              		.file 44 "lib/e-puck2_main-processor/ChibiOS//os/hal/ports/STM32/LLD/sdc_lld.h"
 820              		.file 45 "lib/e-puck2_main-processor/ChibiOS//os/hal/include/spi.h"
 821              		.file 46 "lib/e-puck2_main-processor/ChibiOS//os/hal/ports/STM32/LLD/SPIv1/spi_lld.h"
 822              		.file 47 "lib/e-puck2_main-processor/ChibiOS//os/hal/include/usb.h"
 823              		.file 48 "lib/e-puck2_main-processor/ChibiOS//os/hal/ports/STM32/LLD/OTGv1/usb_lld.h"
 824              		.file 49 "lib/e-puck2_main-processor/ChibiOS//os/hal/ports/STM32/LLD/OTGv1/stm32_otg.h"
 825              		.file 50 "lib/e-puck2_main-processor/ChibiOS//os/rt/include/chsys.h"