ARM GAS  /var/folders/qd/4mxf5pkd0zdf0b9dd1hp39180000gn/T//cc7jrzNu.s 			page 1


   1              		.cpu cortex-m4
   2              		.eabi_attribute 27, 1
   3              		.eabi_attribute 28, 1
   4              		.eabi_attribute 20, 1
   5              		.eabi_attribute 21, 1
   6              		.eabi_attribute 23, 3
   7              		.eabi_attribute 24, 1
   8              		.eabi_attribute 25, 1
   9              		.eabi_attribute 26, 1
  10              		.eabi_attribute 30, 2
  11              		.eabi_attribute 34, 1
  12              		.eabi_attribute 18, 4
  13              		.file	"e_motors.c"
  14              		.text
  15              	.Ltext0:
  16              		.cfi_sections	.debug_frame
  17              		.section	.text.e_init_motors,"ax",%progbits
  18              		.align	1
  19              		.p2align 4,,15
  20              		.global	e_init_motors
  21              		.syntax unified
  22              		.thumb
  23              		.thumb_func
  24              		.fpu fpv4-sp-d16
  25              		.type	e_init_motors, %function
  26              	e_init_motors:
  27              	.LFB256:
  28              		.file 1 "lib/e-puck2_main-processor/src/epuck1x/motor_led/advance_one_timer/e_motors.c"
  29              		.loc 1 68 0
  30              		.cfi_startproc
  31              		@ args = 0, pretend = 0, frame = 8
  32              		@ frame_needed = 0, uses_anonymous_args = 0
  33 0000 00B5     		push	{lr}
  34              		.cfi_def_cfa_offset 4
  35              		.cfi_offset 14, -4
  36 0002 064B     		ldr	r3, .L6
  37 0004 83B0     		sub	sp, sp, #12
  38              		.cfi_def_cfa_offset 16
  39              		.loc 1 68 0
  40 0006 1A68     		ldr	r2, [r3]
  41 0008 0192     		str	r2, [sp, #4]
  42              		.loc 1 70 0
  43 000a 019A     		ldr	r2, [sp, #4]
  44 000c 1B68     		ldr	r3, [r3]
  45 000e 9A42     		cmp	r2, r3
  46 0010 02D1     		bne	.L5
  47 0012 03B0     		add	sp, sp, #12
  48              		.cfi_remember_state
  49              		.cfi_def_cfa_offset 4
  50              		@ sp needed
  51 0014 5DF804FB 		ldr	pc, [sp], #4
  52              	.L5:
  53              		.cfi_restore_state
  54 0018 FFF7FEFF 		bl	__stack_chk_fail
  55              	.LVL0:
  56              	.L7:
  57              		.align	2
ARM GAS  /var/folders/qd/4mxf5pkd0zdf0b9dd1hp39180000gn/T//cc7jrzNu.s 			page 2


  58              	.L6:
  59 001c 00000000 		.word	__stack_chk_guard
  60              		.cfi_endproc
  61              	.LFE256:
  62              		.size	e_init_motors, .-e_init_motors
  63              		.section	.text.e_set_speed_left,"ax",%progbits
  64              		.align	1
  65              		.p2align 4,,15
  66              		.global	e_set_speed_left
  67              		.syntax unified
  68              		.thumb
  69              		.thumb_func
  70              		.fpu fpv4-sp-d16
  71              		.type	e_set_speed_left, %function
  72              	e_set_speed_left:
  73              	.LFB257:
  74              		.loc 1 82 0
  75              		.cfi_startproc
  76              		@ args = 0, pretend = 0, frame = 8
  77              		@ frame_needed = 0, uses_anonymous_args = 0
  78              	.LVL1:
  79 0000 00B5     		push	{lr}
  80              		.cfi_def_cfa_offset 4
  81              		.cfi_offset 14, -4
  82 0002 084B     		ldr	r3, .L13
  83 0004 83B0     		sub	sp, sp, #12
  84              		.cfi_def_cfa_offset 16
  85              		.loc 1 82 0
  86 0006 1A68     		ldr	r2, [r3]
  87 0008 0192     		str	r2, [sp, #4]
  88              		.loc 1 83 0
  89 000a 019A     		ldr	r2, [sp, #4]
  90 000c 1B68     		ldr	r3, [r3]
  91 000e 9A42     		cmp	r2, r3
  92 0010 06D1     		bne	.L12
  93 0012 00B2     		sxth	r0, r0
  94              	.LVL2:
  95 0014 4000     		lsls	r0, r0, #1
  96              		.loc 1 85 0
  97 0016 03B0     		add	sp, sp, #12
  98              		.cfi_remember_state
  99              		.cfi_def_cfa_offset 4
 100              		@ sp needed
 101 0018 5DF804EB 		ldr	lr, [sp], #4
 102              		.cfi_restore 14
 103              		.cfi_def_cfa_offset 0
 104              		.loc 1 83 0
 105 001c FFF7FEBF 		b	left_motor_set_speed
 106              	.LVL3:
 107              	.L12:
 108              		.cfi_restore_state
 109 0020 FFF7FEFF 		bl	__stack_chk_fail
 110              	.LVL4:
 111              	.L14:
 112              		.align	2
 113              	.L13:
 114 0024 00000000 		.word	__stack_chk_guard
ARM GAS  /var/folders/qd/4mxf5pkd0zdf0b9dd1hp39180000gn/T//cc7jrzNu.s 			page 3


 115              		.cfi_endproc
 116              	.LFE257:
 117              		.size	e_set_speed_left, .-e_set_speed_left
 118              		.section	.text.e_set_speed_right,"ax",%progbits
 119              		.align	1
 120              		.p2align 4,,15
 121              		.global	e_set_speed_right
 122              		.syntax unified
 123              		.thumb
 124              		.thumb_func
 125              		.fpu fpv4-sp-d16
 126              		.type	e_set_speed_right, %function
 127              	e_set_speed_right:
 128              	.LFB258:
 129              		.loc 1 97 0
 130              		.cfi_startproc
 131              		@ args = 0, pretend = 0, frame = 8
 132              		@ frame_needed = 0, uses_anonymous_args = 0
 133              	.LVL5:
 134 0000 00B5     		push	{lr}
 135              		.cfi_def_cfa_offset 4
 136              		.cfi_offset 14, -4
 137 0002 084B     		ldr	r3, .L20
 138 0004 83B0     		sub	sp, sp, #12
 139              		.cfi_def_cfa_offset 16
 140              		.loc 1 97 0
 141 0006 1A68     		ldr	r2, [r3]
 142 0008 0192     		str	r2, [sp, #4]
 143              		.loc 1 98 0
 144 000a 019A     		ldr	r2, [sp, #4]
 145 000c 1B68     		ldr	r3, [r3]
 146 000e 9A42     		cmp	r2, r3
 147 0010 06D1     		bne	.L19
 148 0012 00B2     		sxth	r0, r0
 149              	.LVL6:
 150 0014 4000     		lsls	r0, r0, #1
 151              		.loc 1 100 0
 152 0016 03B0     		add	sp, sp, #12
 153              		.cfi_remember_state
 154              		.cfi_def_cfa_offset 4
 155              		@ sp needed
 156 0018 5DF804EB 		ldr	lr, [sp], #4
 157              		.cfi_restore 14
 158              		.cfi_def_cfa_offset 0
 159              		.loc 1 98 0
 160 001c FFF7FEBF 		b	right_motor_set_speed
 161              	.LVL7:
 162              	.L19:
 163              		.cfi_restore_state
 164 0020 FFF7FEFF 		bl	__stack_chk_fail
 165              	.LVL8:
 166              	.L21:
 167              		.align	2
 168              	.L20:
 169 0024 00000000 		.word	__stack_chk_guard
 170              		.cfi_endproc
 171              	.LFE258:
ARM GAS  /var/folders/qd/4mxf5pkd0zdf0b9dd1hp39180000gn/T//cc7jrzNu.s 			page 4


 172              		.size	e_set_speed_right, .-e_set_speed_right
 173              		.section	.text.e_set_speed,"ax",%progbits
 174              		.align	1
 175              		.p2align 4,,15
 176              		.global	e_set_speed
 177              		.syntax unified
 178              		.thumb
 179              		.thumb_func
 180              		.fpu fpv4-sp-d16
 181              		.type	e_set_speed, %function
 182              	e_set_speed:
 183              	.LFB259:
 184              		.loc 1 110 0
 185              		.cfi_startproc
 186              		@ args = 0, pretend = 0, frame = 8
 187              		@ frame_needed = 0, uses_anonymous_args = 0
 188              	.LVL9:
 189 0000 70B5     		push	{r4, r5, r6, lr}
 190              		.cfi_def_cfa_offset 16
 191              		.cfi_offset 4, -16
 192              		.cfi_offset 5, -12
 193              		.cfi_offset 6, -8
 194              		.cfi_offset 14, -4
 195              		.loc 1 111 0
 196 0002 80EAE073 		eor	r3, r0, r0, asr #31
 197              		.loc 1 110 0
 198 0006 144D     		ldr	r5, .L29
 199              		.loc 1 111 0
 200 0008 81EAE172 		eor	r2, r1, r1, asr #31
 201 000c A2EBE172 		sub	r2, r2, r1, asr #31
 202              		.loc 1 110 0
 203 0010 82B0     		sub	sp, sp, #8
 204              		.cfi_def_cfa_offset 24
 205              		.loc 1 111 0
 206 0012 A3EBE073 		sub	r3, r3, r0, asr #31
 207 0016 1344     		add	r3, r3, r2
 208              		.loc 1 110 0
 209 0018 2A68     		ldr	r2, [r5]
 210 001a 0192     		str	r2, [sp, #4]
 211              		.loc 1 111 0
 212 001c 40F69802 		movw	r2, #2200
 213 0020 9342     		cmp	r3, r2
 214 0022 05DD     		ble	.L28
 215              		.loc 1 119 0
 216 0024 019A     		ldr	r2, [sp, #4]
 217 0026 2B68     		ldr	r3, [r5]
 218 0028 9A42     		cmp	r2, r3
 219 002a 12D1     		bne	.L27
 220 002c 02B0     		add	sp, sp, #8
 221              		.cfi_remember_state
 222              		.cfi_def_cfa_offset 16
 223              		@ sp needed
 224 002e 70BD     		pop	{r4, r5, r6, pc}
 225              	.L28:
 226              		.cfi_restore_state
 227 0030 0446     		mov	r4, r0
 228              		.loc 1 116 0
ARM GAS  /var/folders/qd/4mxf5pkd0zdf0b9dd1hp39180000gn/T//cc7jrzNu.s 			page 5


 229 0032 401A     		subs	r0, r0, r1
 230              	.LVL10:
 231 0034 4000     		lsls	r0, r0, #1
 232 0036 0E46     		mov	r6, r1
 233 0038 FFF7FEFF 		bl	left_motor_set_speed
 234              	.LVL11:
 235              		.loc 1 117 0
 236 003c 019A     		ldr	r2, [sp, #4]
 237 003e 2B68     		ldr	r3, [r5]
 238 0040 9A42     		cmp	r2, r3
 239 0042 06D1     		bne	.L27
 240 0044 A019     		adds	r0, r4, r6
 241 0046 4000     		lsls	r0, r0, #1
 242              		.loc 1 119 0
 243 0048 02B0     		add	sp, sp, #8
 244              		.cfi_remember_state
 245              		.cfi_def_cfa_offset 16
 246              		@ sp needed
 247 004a BDE87040 		pop	{r4, r5, r6, lr}
 248              		.cfi_restore 14
 249              		.cfi_restore 6
 250              		.cfi_restore 5
 251              		.cfi_restore 4
 252              		.cfi_def_cfa_offset 0
 253              	.LVL12:
 254              		.loc 1 117 0
 255 004e FFF7FEBF 		b	right_motor_set_speed
 256              	.LVL13:
 257              	.L27:
 258              		.cfi_restore_state
 259              		.loc 1 119 0
 260 0052 FFF7FEFF 		bl	__stack_chk_fail
 261              	.LVL14:
 262              	.L30:
 263 0056 00BF     		.align	2
 264              	.L29:
 265 0058 00000000 		.word	__stack_chk_guard
 266              		.cfi_endproc
 267              	.LFE259:
 268              		.size	e_set_speed, .-e_set_speed
 269              		.section	.text.e_get_steps_left,"ax",%progbits
 270              		.align	1
 271              		.p2align 4,,15
 272              		.global	e_get_steps_left
 273              		.syntax unified
 274              		.thumb
 275              		.thumb_func
 276              		.fpu fpv4-sp-d16
 277              		.type	e_get_steps_left, %function
 278              	e_get_steps_left:
 279              	.LFB260:
 280              		.loc 1 126 0
 281              		.cfi_startproc
 282              		@ args = 0, pretend = 0, frame = 8
 283              		@ frame_needed = 0, uses_anonymous_args = 0
 284 0000 00B5     		push	{lr}
 285              		.cfi_def_cfa_offset 4
ARM GAS  /var/folders/qd/4mxf5pkd0zdf0b9dd1hp39180000gn/T//cc7jrzNu.s 			page 6


 286              		.cfi_offset 14, -4
 287 0002 074B     		ldr	r3, .L36
 288 0004 83B0     		sub	sp, sp, #12
 289              		.cfi_def_cfa_offset 16
 290              		.loc 1 126 0
 291 0006 1A68     		ldr	r2, [r3]
 292 0008 0192     		str	r2, [sp, #4]
 293              		.loc 1 127 0
 294 000a 019A     		ldr	r2, [sp, #4]
 295 000c 1B68     		ldr	r3, [r3]
 296 000e 9A42     		cmp	r2, r3
 297 0010 04D1     		bne	.L35
 298              		.loc 1 128 0
 299 0012 03B0     		add	sp, sp, #12
 300              		.cfi_remember_state
 301              		.cfi_def_cfa_offset 4
 302              		@ sp needed
 303 0014 5DF804EB 		ldr	lr, [sp], #4
 304              		.cfi_restore 14
 305              		.cfi_def_cfa_offset 0
 306              		.loc 1 127 0
 307 0018 FFF7FEBF 		b	left_motor_get_pos
 308              	.LVL15:
 309              	.L35:
 310              		.cfi_restore_state
 311 001c FFF7FEFF 		bl	__stack_chk_fail
 312              	.LVL16:
 313              	.L37:
 314              		.align	2
 315              	.L36:
 316 0020 00000000 		.word	__stack_chk_guard
 317              		.cfi_endproc
 318              	.LFE260:
 319              		.size	e_get_steps_left, .-e_get_steps_left
 320              		.section	.text.e_set_steps_left,"ax",%progbits
 321              		.align	1
 322              		.p2align 4,,15
 323              		.global	e_set_steps_left
 324              		.syntax unified
 325              		.thumb
 326              		.thumb_func
 327              		.fpu fpv4-sp-d16
 328              		.type	e_set_steps_left, %function
 329              	e_set_steps_left:
 330              	.LFB261:
 331              		.loc 1 134 0
 332              		.cfi_startproc
 333              		@ args = 0, pretend = 0, frame = 8
 334              		@ frame_needed = 0, uses_anonymous_args = 0
 335              	.LVL17:
 336 0000 00B5     		push	{lr}
 337              		.cfi_def_cfa_offset 4
 338              		.cfi_offset 14, -4
 339 0002 064B     		ldr	r3, .L42
 340 0004 83B0     		sub	sp, sp, #12
 341              		.cfi_def_cfa_offset 16
 342              		.loc 1 134 0
ARM GAS  /var/folders/qd/4mxf5pkd0zdf0b9dd1hp39180000gn/T//cc7jrzNu.s 			page 7


 343 0006 1A68     		ldr	r2, [r3]
 344 0008 0192     		str	r2, [sp, #4]
 345              		.loc 1 137 0
 346 000a 019A     		ldr	r2, [sp, #4]
 347 000c 1B68     		ldr	r3, [r3]
 348 000e 9A42     		cmp	r2, r3
 349 0010 02D1     		bne	.L41
 350 0012 03B0     		add	sp, sp, #12
 351              		.cfi_remember_state
 352              		.cfi_def_cfa_offset 4
 353              		@ sp needed
 354 0014 5DF804FB 		ldr	pc, [sp], #4
 355              	.L41:
 356              		.cfi_restore_state
 357 0018 FFF7FEFF 		bl	__stack_chk_fail
 358              	.LVL18:
 359              	.L43:
 360              		.align	2
 361              	.L42:
 362 001c 00000000 		.word	__stack_chk_guard
 363              		.cfi_endproc
 364              	.LFE261:
 365              		.size	e_set_steps_left, .-e_set_steps_left
 366              		.section	.text.e_get_steps_right,"ax",%progbits
 367              		.align	1
 368              		.p2align 4,,15
 369              		.global	e_get_steps_right
 370              		.syntax unified
 371              		.thumb
 372              		.thumb_func
 373              		.fpu fpv4-sp-d16
 374              		.type	e_get_steps_right, %function
 375              	e_get_steps_right:
 376              	.LFB262:
 377              		.loc 1 144 0
 378              		.cfi_startproc
 379              		@ args = 0, pretend = 0, frame = 8
 380              		@ frame_needed = 0, uses_anonymous_args = 0
 381 0000 00B5     		push	{lr}
 382              		.cfi_def_cfa_offset 4
 383              		.cfi_offset 14, -4
 384 0002 074B     		ldr	r3, .L49
 385 0004 83B0     		sub	sp, sp, #12
 386              		.cfi_def_cfa_offset 16
 387              		.loc 1 144 0
 388 0006 1A68     		ldr	r2, [r3]
 389 0008 0192     		str	r2, [sp, #4]
 390              		.loc 1 145 0
 391 000a 019A     		ldr	r2, [sp, #4]
 392 000c 1B68     		ldr	r3, [r3]
 393 000e 9A42     		cmp	r2, r3
 394 0010 04D1     		bne	.L48
 395              		.loc 1 146 0
 396 0012 03B0     		add	sp, sp, #12
 397              		.cfi_remember_state
 398              		.cfi_def_cfa_offset 4
 399              		@ sp needed
ARM GAS  /var/folders/qd/4mxf5pkd0zdf0b9dd1hp39180000gn/T//cc7jrzNu.s 			page 8


 400 0014 5DF804EB 		ldr	lr, [sp], #4
 401              		.cfi_restore 14
 402              		.cfi_def_cfa_offset 0
 403              		.loc 1 145 0
 404 0018 FFF7FEBF 		b	right_motor_get_pos
 405              	.LVL19:
 406              	.L48:
 407              		.cfi_restore_state
 408 001c FFF7FEFF 		bl	__stack_chk_fail
 409              	.LVL20:
 410              	.L50:
 411              		.align	2
 412              	.L49:
 413 0020 00000000 		.word	__stack_chk_guard
 414              		.cfi_endproc
 415              	.LFE262:
 416              		.size	e_get_steps_right, .-e_get_steps_right
 417              		.section	.text.e_set_steps_right,"ax",%progbits
 418              		.align	1
 419              		.p2align 4,,15
 420              		.global	e_set_steps_right
 421              		.syntax unified
 422              		.thumb
 423              		.thumb_func
 424              		.fpu fpv4-sp-d16
 425              		.type	e_set_steps_right, %function
 426              	e_set_steps_right:
 427              	.LFB265:
 428              		.cfi_startproc
 429              		@ args = 0, pretend = 0, frame = 8
 430              		@ frame_needed = 0, uses_anonymous_args = 0
 431 0000 00B5     		push	{lr}
 432              		.cfi_def_cfa_offset 4
 433              		.cfi_offset 14, -4
 434 0002 064B     		ldr	r3, .L55
 435 0004 83B0     		sub	sp, sp, #12
 436              		.cfi_def_cfa_offset 16
 437 0006 1A68     		ldr	r2, [r3]
 438 0008 0192     		str	r2, [sp, #4]
 439 000a 019A     		ldr	r2, [sp, #4]
 440 000c 1B68     		ldr	r3, [r3]
 441 000e 9A42     		cmp	r2, r3
 442 0010 02D1     		bne	.L54
 443 0012 03B0     		add	sp, sp, #12
 444              		.cfi_remember_state
 445              		.cfi_def_cfa_offset 4
 446              		@ sp needed
 447 0014 5DF804FB 		ldr	pc, [sp], #4
 448              	.L54:
 449              		.cfi_restore_state
 450 0018 FFF7FEFF 		bl	__stack_chk_fail
 451              	.L56:
 452              		.align	2
 453              	.L55:
 454 001c 00000000 		.word	__stack_chk_guard
 455              		.cfi_endproc
 456              	.LFE265:
ARM GAS  /var/folders/qd/4mxf5pkd0zdf0b9dd1hp39180000gn/T//cc7jrzNu.s 			page 9


 457              		.size	e_set_steps_right, .-e_set_steps_right
 458              		.text
 459              	.Letext0:
 460              		.file 2 "/Applications/Eclipse_e-puck2.app/Contents/Eclipse_e-puck2/Tools/gcc-arm-none-eabi-7-2017
 461              		.file 3 "/Applications/Eclipse_e-puck2.app/Contents/Eclipse_e-puck2/Tools/gcc-arm-none-eabi-7-2017
 462              		.file 4 "/Applications/Eclipse_e-puck2.app/Contents/Eclipse_e-puck2/Tools/gcc-arm-none-eabi-7-2017
 463              		.file 5 "lib/e-puck2_main-processor/ChibiOS//os/rt/ports/ARMCMx/compilers/GCC/chtypes.h"
 464              		.file 6 "lib/e-puck2_main-processor/ChibiOS//os/rt/include/chsystypes.h"
 465              		.file 7 "lib/e-puck2_main-processor/ChibiOS//os/rt/include/chschd.h"
 466              		.file 8 "lib/e-puck2_main-processor/ChibiOS//os/ext/CMSIS/include/core_cm4.h"
 467              		.file 9 "lib/e-puck2_main-processor/ChibiOS//os/ext/CMSIS/ST/system_stm32f4xx.h"
 468              		.file 10 "lib/e-puck2_main-processor/ChibiOS//os/ext/CMSIS/ST/stm32f407xx.h"
 469              		.file 11 "lib/e-puck2_main-processor/ChibiOS//os/rt/ports/ARMCMx/chcore.h"
 470              		.file 12 "lib/e-puck2_main-processor/ChibiOS//os/rt/ports/ARMCMx/chcore_v7m.h"
 471              		.file 13 "lib/e-puck2_main-processor/ChibiOS//os/rt/include/chdebug.h"
 472              		.file 14 "lib/e-puck2_main-processor/ChibiOS//os/rt/include/chtm.h"
 473              		.file 15 "lib/e-puck2_main-processor/ChibiOS//os/rt/include/chstats.h"
 474              		.file 16 "lib/e-puck2_main-processor/ChibiOS//os/rt/include/chsem.h"
 475              		.file 17 "lib/e-puck2_main-processor/ChibiOS//os/rt/include/chmtx.h"
 476              		.file 18 "lib/e-puck2_main-processor/ChibiOS//os/rt/include/chregistry.h"
 477              		.file 19 "lib/e-puck2_main-processor/ChibiOS//os/rt/include/chevents.h"
 478              		.file 20 "lib/e-puck2_main-processor/ChibiOS//os/rt/include/chqueues.h"
 479              		.file 21 "lib/e-puck2_main-processor/ChibiOS//os/hal/ports/STM32/STM32F4xx/stm32_dma.h"
 480              		.file 22 "lib/e-puck2_main-processor/ChibiOS//os/hal/include/hal_ioblock.h"
 481              		.file 23 "lib/e-puck2_main-processor/ChibiOS//os/hal/ports/STM32/LLD/GPIOv2/pal_lld.h"
 482              		.file 24 "lib/e-puck2_main-processor/ChibiOS//os/hal/include/adc.h"
 483              		.file 25 "lib/e-puck2_main-processor/ChibiOS//os/hal/ports/STM32/STM32F4xx/adc_lld.h"
 484              		.file 26 "lib/e-puck2_main-processor/ChibiOS//os/hal/include/can.h"
 485              		.file 27 "lib/e-puck2_main-processor/ChibiOS//os/hal/ports/STM32/LLD/can_lld.h"
 486              		.file 28 "lib/e-puck2_main-processor/ChibiOS//os/hal/include/dac.h"
 487              		.file 29 "lib/e-puck2_main-processor/ChibiOS//os/hal/ports/STM32/LLD/DACv1/dac_lld.h"
 488              		.file 30 "lib/e-puck2_main-processor/ChibiOS//os/hal/include/ext.h"
 489              		.file 31 "lib/e-puck2_main-processor/ChibiOS//os/hal/ports/STM32/LLD/ext_lld.h"
 490              		.file 32 "lib/e-puck2_main-processor/ChibiOS//os/hal/include/gpt.h"
 491              		.file 33 "lib/e-puck2_main-processor/ChibiOS//os/hal/ports/STM32/LLD/TIMv1/gpt_lld.h"
 492              		.file 34 "lib/e-puck2_main-processor/ChibiOS//os/hal/ports/STM32/LLD/TIMv1/stm32_tim.h"
 493              		.file 35 "lib/e-puck2_main-processor/ChibiOS//os/hal/include/i2c.h"
 494              		.file 36 "lib/e-puck2_main-processor/ChibiOS//os/hal/ports/STM32/LLD/I2Cv1/i2c_lld.h"
 495              		.file 37 "lib/e-puck2_main-processor/ChibiOS//os/hal/include/i2s.h"
 496              		.file 38 "lib/e-puck2_main-processor/ChibiOS//os/hal/ports/STM32/LLD/SPIv1/i2s_lld.h"
 497              		.file 39 "lib/e-puck2_main-processor/ChibiOS//os/hal/include/pwm.h"
 498              		.file 40 "lib/e-puck2_main-processor/ChibiOS//os/hal/ports/STM32/LLD/TIMv1/pwm_lld.h"
 499              		.file 41 "lib/e-puck2_main-processor/ChibiOS//os/hal/include/serial.h"
 500              		.file 42 "lib/e-puck2_main-processor/ChibiOS//os/hal/ports/STM32/LLD/USARTv1/serial_lld.h"
 501              		.file 43 "lib/e-puck2_main-processor/ChibiOS//os/hal/include/sdc.h"
 502              		.file 44 "lib/e-puck2_main-processor/ChibiOS//os/hal/ports/STM32/LLD/sdc_lld.h"
 503              		.file 45 "lib/e-puck2_main-processor/ChibiOS//os/hal/include/spi.h"
 504              		.file 46 "lib/e-puck2_main-processor/ChibiOS//os/hal/ports/STM32/LLD/SPIv1/spi_lld.h"
 505              		.file 47 "lib/e-puck2_main-processor/ChibiOS//os/hal/include/usb.h"
 506              		.file 48 "lib/e-puck2_main-processor/ChibiOS//os/hal/ports/STM32/LLD/OTGv1/usb_lld.h"
 507              		.file 49 "lib/e-puck2_main-processor/ChibiOS//os/hal/ports/STM32/LLD/OTGv1/stm32_otg.h"
 508              		.file 50 "/Applications/Eclipse_e-puck2.app/Contents/Eclipse_e-puck2/Tools/gcc-arm-none-eabi-7-201
 509              		.file 51 "/Applications/Eclipse_e-puck2.app/Contents/Eclipse_e-puck2/Tools/gcc-arm-none-eabi-7-201
 510              		.file 52 "/Applications/Eclipse_e-puck2.app/Contents/Eclipse_e-puck2/Tools/gcc-arm-none-eabi-7-201
 511              		.file 53 "/Applications/Eclipse_e-puck2.app/Contents/Eclipse_e-puck2/Tools/gcc-arm-none-eabi-7-201
 512              		.file 54 "lib/e-puck2_main-processor/src/epuck1x/../motors.h"