ARM GAS  /var/folders/qd/4mxf5pkd0zdf0b9dd1hp39180000gn/T//ccNFynNJ.s 			page 1


   1              		.cpu cortex-m4
   2              		.eabi_attribute 27, 1
   3              		.eabi_attribute 28, 1
   4              		.eabi_attribute 20, 1
   5              		.eabi_attribute 21, 1
   6              		.eabi_attribute 23, 3
   7              		.eabi_attribute 24, 1
   8              		.eabi_attribute 25, 1
   9              		.eabi_attribute 26, 1
  10              		.eabi_attribute 30, 2
  11              		.eabi_attribute 34, 1
  12              		.eabi_attribute 18, 4
  13              		.file	"microphone.c"
  14              		.text
  15              	.Ltext0:
  16              		.cfi_sections	.debug_frame
  17              		.section	.text.handlePCMdata,"ax",%progbits
  18              		.align	1
  19              		.p2align 4,,15
  20              		.syntax unified
  21              		.thumb
  22              		.thumb_func
  23              		.fpu fpv4-sp-d16
  24              		.type	handlePCMdata, %function
  25              	handlePCMdata:
  26              	.LFB258:
  27              		.file 1 "lib/e-puck2_main-processor/src/audio/microphone.c"
  28              		.loc 1 52 0
  29              		.cfi_startproc
  30              		@ args = 0, pretend = 0, frame = 8
  31              		@ frame_needed = 0, uses_anonymous_args = 0
  32              	.LVL0:
  33 0000 2DE9F04F 		push	{r4, r5, r6, r7, r8, r9, r10, fp, lr}
  34              		.cfi_def_cfa_offset 36
  35              		.cfi_offset 4, -36
  36              		.cfi_offset 5, -32
  37              		.cfi_offset 6, -28
  38              		.cfi_offset 7, -24
  39              		.cfi_offset 8, -20
  40              		.cfi_offset 9, -16
  41              		.cfi_offset 10, -12
  42              		.cfi_offset 11, -8
  43              		.cfi_offset 14, -4
  44 0004 3B4A     		ldr	r2, .L20
  45              		.loc 1 55 0
  46 0006 3C4B     		ldr	r3, .L20+4
  47              		.loc 1 52 0
  48 0008 1268     		ldr	r2, [r2]
  49 000a 83B0     		sub	sp, sp, #12
  50              		.cfi_def_cfa_offset 48
  51              		.loc 1 55 0
  52 000c 0124     		movs	r4, #1
  53              		.loc 1 52 0
  54 000e 0192     		str	r2, [sp, #4]
  55              	.LVL1:
  56              		.loc 1 55 0
  57 0010 1C70     		strb	r4, [r3]
ARM GAS  /var/folders/qd/4mxf5pkd0zdf0b9dd1hp39180000gn/T//ccNFynNJ.s 			page 2


  58              	.LVL2:
  59              	.LBB2:
  60              		.loc 1 57 0
  61 0012 0029     		cmp	r1, #0
  62 0014 68D0     		beq	.L8
  63              	.LBE2:
  64              		.loc 1 53 0
  65 0016 4FF00008 		mov	r8, #0
  66 001a 384C     		ldr	r4, .L20+8
  67 001c C246     		mov	r10, r8
  68 001e C346     		mov	fp, r8
  69 0020 C146     		mov	r9, r8
  70 0022 4746     		mov	r7, r8
  71 0024 C446     		mov	ip, r8
  72              	.LBB3:
  73              		.loc 1 57 0
  74 0026 4346     		mov	r3, r8
  75              	.LBE3:
  76              		.loc 1 53 0
  77 0028 47F6FF7E 		movw	lr, #32767
  78 002c 14E0     		b	.L6
  79              	.LVL3:
  80              	.L16:
  81 002e AB45     		cmp	fp, r5
  82 0030 A8BF     		it	ge
  83 0032 AB46     		movge	fp, r5
  84              	.LVL4:
  85              	.LBB4:
  86              		.loc 1 70 0
  87 0034 B2F90450 		ldrsh	r5, [r2, #4]
  88 0038 BD42     		cmp	r5, r7
  89 003a 20DC     		bgt	.L10
  90              	.LVL5:
  91              	.L17:
  92              		.loc 1 76 0
  93 003c B2F90620 		ldrsh	r2, [r2, #6]
  94 0040 AA45     		cmp	r10, r5
  95 0042 A8BF     		it	ge
  96 0044 AA46     		movge	r10, r5
  97              	.LVL6:
  98 0046 4A45     		cmp	r2, r9
  99 0048 1EDC     		bgt	.L11
 100              	.LVL7:
 101              	.L18:
 102              		.loc 1 57 0
 103 004a 0433     		adds	r3, r3, #4
 104              	.LVL8:
 105 004c 9045     		cmp	r8, r2
 106 004e 9BB2     		uxth	r3, r3
 107 0050 A8BF     		it	ge
 108 0052 9046     		movge	r8, r2
 109              	.LVL9:
 110 0054 9942     		cmp	r1, r3
 111 0056 1CD9     		bls	.L15
 112              	.LVL10:
 113              	.L6:
 114              		.loc 1 58 0
ARM GAS  /var/folders/qd/4mxf5pkd0zdf0b9dd1hp39180000gn/T//ccNFynNJ.s 			page 3


 115 0058 30F91360 		ldrsh	r6, [r0, r3, lsl #1]
 116              		.loc 1 64 0
 117 005c 00EB4302 		add	r2, r0, r3, lsl #1
 118 0060 B442     		cmp	r4, r6
 119 0062 B2F90250 		ldrsh	r5, [r2, #2]
 120 0066 B8BF     		it	lt
 121 0068 3446     		movlt	r4, r6
 122              	.LVL11:
 123 006a B645     		cmp	lr, r6
 124 006c A8BF     		it	ge
 125 006e B646     		movge	lr, r6
 126              	.LVL12:
 127 0070 6545     		cmp	r5, ip
 128 0072 DCDD     		ble	.L16
 129 0074 AC46     		mov	ip, r5
 130              	.LVL13:
 131              		.loc 1 70 0
 132 0076 B2F90450 		ldrsh	r5, [r2, #4]
 133 007a BD42     		cmp	r5, r7
 134 007c DEDD     		ble	.L17
 135              	.L10:
 136              		.loc 1 76 0
 137 007e B2F90620 		ldrsh	r2, [r2, #6]
 138 0082 4A45     		cmp	r2, r9
 139 0084 2F46     		mov	r7, r5
 140              	.LVL14:
 141 0086 E0DD     		ble	.L18
 142              	.L11:
 143              		.loc 1 57 0
 144 0088 0433     		adds	r3, r3, #4
 145              	.LVL15:
 146 008a 9BB2     		uxth	r3, r3
 147 008c 9942     		cmp	r1, r3
 148 008e 9146     		mov	r9, r2
 149              	.LVL16:
 150 0090 E2D8     		bhi	.L6
 151              	.L15:
 152 0092 A4EB0E04 		sub	r4, r4, lr
 153              	.LVL17:
 154 0096 ACEB0B0C 		sub	ip, ip, fp
 155              	.LVL18:
 156 009a A7EB0A07 		sub	r7, r7, r10
 157              	.LVL19:
 158 009e A9EB0808 		sub	r8, r9, r8
 159              	.LVL20:
 160 00a2 A4B2     		uxth	r4, r4
 161 00a4 1FFA8CFC 		uxth	ip, ip
 162 00a8 BFB2     		uxth	r7, r7
 163 00aa 1FFA88F8 		uxth	r8, r8
 164              	.LVL21:
 165              	.L2:
 166              	.LBE4:
 167              		.loc 1 84 0
 168 00ae 144A     		ldr	r2, .L20+12
 169              		.loc 1 94 0
 170 00b0 1049     		ldr	r1, .L20
 171              	.LVL22:
ARM GAS  /var/folders/qd/4mxf5pkd0zdf0b9dd1hp39180000gn/T//ccNFynNJ.s 			page 4


 172              		.loc 1 84 0
 173 00b2 1480     		strh	r4, [r2]	@ movhi
 174              		.loc 1 94 0
 175 00b4 019C     		ldr	r4, [sp, #4]
 176 00b6 0968     		ldr	r1, [r1]
 177              		.loc 1 88 0
 178 00b8 124B     		ldr	r3, .L20+16
 179              		.loc 1 85 0
 180 00ba A2F802C0 		strh	ip, [r2, #2]	@ movhi
 181              		.loc 1 86 0
 182 00be 9780     		strh	r7, [r2, #4]	@ movhi
 183              		.loc 1 88 0
 184 00c0 B0F8F8C4 		ldrh	ip, [r0, #1272]
 185              		.loc 1 89 0
 186 00c4 B0F8FA64 		ldrh	r6, [r0, #1274]
 187              		.loc 1 87 0
 188 00c8 A2F80680 		strh	r8, [r2, #6]	@ movhi
 189              		.loc 1 90 0
 190 00cc B0F8FC54 		ldrh	r5, [r0, #1276]
 191              		.loc 1 91 0
 192 00d0 B0F8FE24 		ldrh	r2, [r0, #1278]
 193              		.loc 1 88 0
 194 00d4 A3F800C0 		strh	ip, [r3]	@ movhi
 195              		.loc 1 94 0
 196 00d8 8C42     		cmp	r4, r1
 197              		.loc 1 89 0
 198 00da 5E80     		strh	r6, [r3, #2]	@ movhi
 199              		.loc 1 90 0
 200 00dc 9D80     		strh	r5, [r3, #4]	@ movhi
 201              		.loc 1 91 0
 202 00de DA80     		strh	r2, [r3, #6]	@ movhi
 203              		.loc 1 94 0
 204 00e0 06D1     		bne	.L19
 205 00e2 03B0     		add	sp, sp, #12
 206              		.cfi_remember_state
 207              		.cfi_def_cfa_offset 36
 208              		@ sp needed
 209 00e4 BDE8F08F 		pop	{r4, r5, r6, r7, r8, r9, r10, fp, pc}
 210              	.LVL23:
 211              	.L8:
 212              		.cfi_restore_state
 213              	.LBB5:
 214              		.loc 1 57 0
 215 00e8 8846     		mov	r8, r1
 216 00ea 0F46     		mov	r7, r1
 217 00ec 8C46     		mov	ip, r1
 218 00ee DEE7     		b	.L2
 219              	.LVL24:
 220              	.L19:
 221              	.LBE5:
 222              		.loc 1 94 0
 223 00f0 FFF7FEFF 		bl	__stack_chk_fail
 224              	.LVL25:
 225              	.L21:
 226              		.align	2
 227              	.L20:
 228 00f4 00000000 		.word	__stack_chk_guard
ARM GAS  /var/folders/qd/4mxf5pkd0zdf0b9dd1hp39180000gn/T//ccNFynNJ.s 			page 5


 229 00f8 00000000 		.word	.LANCHOR0
 230 00fc 0080FFFF 		.word	-32768
 231 0100 00000000 		.word	.LANCHOR1
 232 0104 00000000 		.word	.LANCHOR2
 233              		.cfi_endproc
 234              	.LFE258:
 235              		.size	handlePCMdata, .-handlePCMdata
 236              		.section	.text.mic_get_last,"ax",%progbits
 237              		.align	1
 238              		.p2align 4,,15
 239              		.global	mic_get_last
 240              		.syntax unified
 241              		.thumb
 242              		.thumb_func
 243              		.fpu fpv4-sp-d16
 244              		.type	mic_get_last, %function
 245              	mic_get_last:
 246              	.LFB256:
 247              		.loc 1 31 0
 248              		.cfi_startproc
 249              		@ args = 0, pretend = 0, frame = 8
 250              		@ frame_needed = 0, uses_anonymous_args = 0
 251              	.LVL26:
 252 0000 00B5     		push	{lr}
 253              		.cfi_def_cfa_offset 4
 254              		.cfi_offset 14, -4
 255 0002 0A4B     		ldr	r3, .L28
 256 0004 83B0     		sub	sp, sp, #12
 257              		.cfi_def_cfa_offset 16
 258              		.loc 1 31 0
 259 0006 1A68     		ldr	r2, [r3]
 260 0008 0192     		str	r2, [sp, #4]
 261              		.loc 1 32 0
 262 000a 0328     		cmp	r0, #3
 263              		.loc 1 33 0
 264 000c 9CBF     		itt	ls
 265 000e 084A     		ldrls	r2, .L28+4
 266 0010 32F91000 		ldrshls	r0, [r2, r0, lsl #1]
 267              	.LVL27:
 268              		.loc 1 37 0
 269 0014 019A     		ldr	r2, [sp, #4]
 270 0016 1B68     		ldr	r3, [r3]
 271              		.loc 1 35 0
 272 0018 88BF     		it	hi
 273 001a 0020     		movhi	r0, #0
 274              		.loc 1 37 0
 275 001c 9A42     		cmp	r2, r3
 276 001e 02D1     		bne	.L27
 277 0020 03B0     		add	sp, sp, #12
 278              		.cfi_remember_state
 279              		.cfi_def_cfa_offset 4
 280              		@ sp needed
 281 0022 5DF804FB 		ldr	pc, [sp], #4
 282              	.L27:
 283              		.cfi_restore_state
 284 0026 FFF7FEFF 		bl	__stack_chk_fail
 285              	.LVL28:
ARM GAS  /var/folders/qd/4mxf5pkd0zdf0b9dd1hp39180000gn/T//ccNFynNJ.s 			page 6


 286              	.L29:
 287 002a 00BF     		.align	2
 288              	.L28:
 289 002c 00000000 		.word	__stack_chk_guard
 290 0030 00000000 		.word	.LANCHOR2
 291              		.cfi_endproc
 292              	.LFE256:
 293              		.size	mic_get_last, .-mic_get_last
 294              		.section	.text.mic_get_volume,"ax",%progbits
 295              		.align	1
 296              		.p2align 4,,15
 297              		.global	mic_get_volume
 298              		.syntax unified
 299              		.thumb
 300              		.thumb_func
 301              		.fpu fpv4-sp-d16
 302              		.type	mic_get_volume, %function
 303              	mic_get_volume:
 304              	.LFB257:
 305              		.loc 1 40 0
 306              		.cfi_startproc
 307              		@ args = 0, pretend = 0, frame = 8
 308              		@ frame_needed = 0, uses_anonymous_args = 0
 309              	.LVL29:
 310 0000 00B5     		push	{lr}
 311              		.cfi_def_cfa_offset 4
 312              		.cfi_offset 14, -4
 313 0002 0A4B     		ldr	r3, .L36
 314 0004 83B0     		sub	sp, sp, #12
 315              		.cfi_def_cfa_offset 16
 316              		.loc 1 40 0
 317 0006 1A68     		ldr	r2, [r3]
 318 0008 0192     		str	r2, [sp, #4]
 319              		.loc 1 41 0
 320 000a 0328     		cmp	r0, #3
 321              		.loc 1 42 0
 322 000c 9CBF     		itt	ls
 323 000e 084A     		ldrls	r2, .L36+4
 324 0010 32F81000 		ldrhls	r0, [r2, r0, lsl #1]
 325              	.LVL30:
 326              		.loc 1 46 0
 327 0014 019A     		ldr	r2, [sp, #4]
 328 0016 1B68     		ldr	r3, [r3]
 329              		.loc 1 44 0
 330 0018 88BF     		it	hi
 331 001a 0020     		movhi	r0, #0
 332              		.loc 1 46 0
 333 001c 9A42     		cmp	r2, r3
 334 001e 02D1     		bne	.L35
 335 0020 03B0     		add	sp, sp, #12
 336              		.cfi_remember_state
 337              		.cfi_def_cfa_offset 4
 338              		@ sp needed
 339 0022 5DF804FB 		ldr	pc, [sp], #4
 340              	.L35:
 341              		.cfi_restore_state
 342 0026 FFF7FEFF 		bl	__stack_chk_fail
ARM GAS  /var/folders/qd/4mxf5pkd0zdf0b9dd1hp39180000gn/T//ccNFynNJ.s 			page 7


 343              	.LVL31:
 344              	.L37:
 345 002a 00BF     		.align	2
 346              	.L36:
 347 002c 00000000 		.word	__stack_chk_guard
 348 0030 00000000 		.word	.LANCHOR1
 349              		.cfi_endproc
 350              	.LFE257:
 351              		.size	mic_get_volume, .-mic_get_volume
 352              		.section	.text.mic_start,"ax",%progbits
 353              		.align	1
 354              		.p2align 4,,15
 355              		.global	mic_start
 356              		.syntax unified
 357              		.thumb
 358              		.thumb_func
 359              		.fpu fpv4-sp-d16
 360              		.type	mic_start, %function
 361              	mic_start:
 362              	.LFB259:
 363              		.loc 1 96 0
 364              		.cfi_startproc
 365              		@ args = 0, pretend = 0, frame = 8
 366              		@ frame_needed = 0, uses_anonymous_args = 0
 367              	.LVL32:
 368 0000 10B5     		push	{r4, lr}
 369              		.cfi_def_cfa_offset 8
 370              		.cfi_offset 4, -8
 371              		.cfi_offset 14, -4
 372              		.loc 1 98 0
 373 0002 404B     		ldr	r3, .L47
 374              		.loc 1 96 0
 375 0004 404C     		ldr	r4, .L47+4
 376              		.loc 1 98 0
 377 0006 1B78     		ldrb	r3, [r3]	@ zero_extendqisi2
 378              		.loc 1 96 0
 379 0008 2268     		ldr	r2, [r4]
 380 000a 82B0     		sub	sp, sp, #8
 381              		.cfi_def_cfa_offset 16
 382              		.loc 1 98 0
 383 000c 012B     		cmp	r3, #1
 384              		.loc 1 96 0
 385 000e 0192     		str	r2, [sp, #4]
 386              		.loc 1 98 0
 387 0010 05D0     		beq	.L45
 388              	.LVL33:
 389              	.L38:
 390              		.loc 1 159 0
 391 0012 019A     		ldr	r2, [sp, #4]
 392 0014 2368     		ldr	r3, [r4]
 393 0016 9A42     		cmp	r2, r3
 394 0018 71D1     		bne	.L46
 395 001a 02B0     		add	sp, sp, #8
 396              		.cfi_remember_state
 397              		.cfi_def_cfa_offset 8
 398              		@ sp needed
 399 001c 10BD     		pop	{r4, pc}
ARM GAS  /var/folders/qd/4mxf5pkd0zdf0b9dd1hp39180000gn/T//ccNFynNJ.s 			page 8


 400              	.LVL34:
 401              	.L45:
 402              		.cfi_restore_state
 403              		.loc 1 108 0
 404 001e 0028     		cmp	r0, #0
 405 0020 6AD0     		beq	.L40
 406              		.loc 1 109 0
 407 0022 0090     		str	r0, [sp]
 408              	.L41:
 409              		.loc 1 112 0
 410 0024 6846     		mov	r0, sp
 411              	.LVL35:
 412 0026 FFF7FEFF 		bl	mp45dt02Init
 413              	.LVL36:
 414              		.loc 1 121 0
 415 002a 384A     		ldr	r2, .L47+8
 416              		.loc 1 124 0
 417 002c 384B     		ldr	r3, .L47+12
 418              		.loc 1 121 0
 419 002e 516C     		ldr	r1, [r2, #68]
 420 0030 41F48031 		orr	r1, r1, #65536
 421 0034 5164     		str	r1, [r2, #68]
 422              		.loc 1 122 0
 423 0036 506A     		ldr	r0, [r2, #36]
 424 0038 0021     		movs	r1, #0
 425 003a 40F48030 		orr	r0, r0, #65536
 426 003e 5062     		str	r0, [r2, #36]
 427 0040 5162     		str	r1, [r2, #36]
 428              		.loc 1 124 0
 429 0042 1961     		str	r1, [r3, #16]
 430              		.loc 1 125 0
 431 0044 D960     		str	r1, [r3, #12]
 432              		.loc 1 128 0
 433 0046 1A6A     		ldr	r2, [r3, #32]
 434 0048 22F00102 		bic	r2, r2, #1
 435 004c 1A62     		str	r2, [r3, #32]
 436              		.loc 1 129 0
 437 004e 9A69     		ldr	r2, [r3, #24]
 438 0050 22F00302 		bic	r2, r2, #3
 439 0054 9A61     		str	r2, [r3, #24]
 440              		.loc 1 130 0
 441 0056 9A69     		ldr	r2, [r3, #24]
 442 0058 42F00102 		orr	r2, r2, #1
 443 005c 9A61     		str	r2, [r3, #24]
 444              		.loc 1 131 0
 445 005e 9A69     		ldr	r2, [r3, #24]
 446 0060 22F0F002 		bic	r2, r2, #240
 447 0064 9A61     		str	r2, [r3, #24]
 448              		.loc 1 132 0
 449 0066 1A6A     		ldr	r2, [r3, #32]
 450 0068 22F00A02 		bic	r2, r2, #10
 451 006c 1A62     		str	r2, [r3, #32]
 452              		.loc 1 133 0
 453 006e 9A69     		ldr	r2, [r3, #24]
 454 0070 22F00C02 		bic	r2, r2, #12
 455 0074 9A61     		str	r2, [r3, #24]
 456              		.loc 1 136 0
ARM GAS  /var/folders/qd/4mxf5pkd0zdf0b9dd1hp39180000gn/T//ccNFynNJ.s 			page 9


 457 0076 9A68     		ldr	r2, [r3, #8]
 458 0078 22F07002 		bic	r2, r2, #112
 459 007c 9A60     		str	r2, [r3, #8]
 460              		.loc 1 137 0
 461 007e 9A68     		ldr	r2, [r3, #8]
 462 0080 42F05002 		orr	r2, r2, #80
 463 0084 9A60     		str	r2, [r3, #8]
 464              		.loc 1 138 0
 465 0086 9A68     		ldr	r2, [r3, #8]
 466 0088 22F48032 		bic	r2, r2, #65536
 467 008c 22F00702 		bic	r2, r2, #7
 468 0090 9A60     		str	r2, [r3, #8]
 469              		.loc 1 139 0
 470 0092 9A68     		ldr	r2, [r3, #8]
 471 0094 42F00702 		orr	r2, r2, #7
 472 0098 9A60     		str	r2, [r3, #8]
 473              		.loc 1 142 0
 474 009a 1A68     		ldr	r2, [r3]
 475              		.loc 1 143 0
 476 009c 0120     		movs	r0, #1
 477              		.loc 1 142 0
 478 009e 22F44072 		bic	r2, r2, #768
 479 00a2 1A60     		str	r2, [r3]
 480              		.loc 1 143 0
 481 00a4 D862     		str	r0, [r3, #44]
 482              		.loc 1 144 0
 483 00a6 9962     		str	r1, [r3, #40]
 484              		.loc 1 145 0
 485 00a8 5861     		str	r0, [r3, #20]
 486              		.loc 1 146 0
 487 00aa 1A6A     		ldr	r2, [r3, #32]
 488 00ac 22F01002 		bic	r2, r2, #16
 489 00b0 1A62     		str	r2, [r3, #32]
 490              		.loc 1 147 0
 491 00b2 9A69     		ldr	r2, [r3, #24]
 492 00b4 22F44072 		bic	r2, r2, #768
 493 00b8 9A61     		str	r2, [r3, #24]
 494              		.loc 1 148 0
 495 00ba 9A69     		ldr	r2, [r3, #24]
 496 00bc 22F08072 		bic	r2, r2, #16777216
 497 00c0 22F4E042 		bic	r2, r2, #28672
 498 00c4 9A61     		str	r2, [r3, #24]
 499              		.loc 1 149 0
 500 00c6 9A69     		ldr	r2, [r3, #24]
 501 00c8 42F4C042 		orr	r2, r2, #24576
 502 00cc 9A61     		str	r2, [r3, #24]
 503              		.loc 1 150 0
 504 00ce 1A6A     		ldr	r2, [r3, #32]
 505 00d0 22F0A002 		bic	r2, r2, #160
 506 00d4 1A62     		str	r2, [r3, #32]
 507              		.loc 1 151 0
 508 00d6 9863     		str	r0, [r3, #56]
 509              		.loc 1 152 0
 510 00d8 9A69     		ldr	r2, [r3, #24]
 511 00da 42F40062 		orr	r2, r2, #2048
 512 00de 9A61     		str	r2, [r3, #24]
 513              		.loc 1 153 0
ARM GAS  /var/folders/qd/4mxf5pkd0zdf0b9dd1hp39180000gn/T//ccNFynNJ.s 			page 10


 514 00e0 1A6A     		ldr	r2, [r3, #32]
 515 00e2 22F48062 		bic	r2, r2, #1024
 516 00e6 1A62     		str	r2, [r3, #32]
 517              		.loc 1 156 0
 518 00e8 1A6A     		ldr	r2, [r3, #32]
 519 00ea 42F01102 		orr	r2, r2, #17
 520 00ee 1A62     		str	r2, [r3, #32]
 521              		.loc 1 157 0
 522 00f0 1A68     		ldr	r2, [r3]
 523 00f2 0243     		orrs	r2, r2, r0
 524 00f4 1A60     		str	r2, [r3]
 525 00f6 8CE7     		b	.L38
 526              	.LVL37:
 527              	.L40:
 528              		.loc 1 111 0
 529 00f8 064B     		ldr	r3, .L47+16
 530 00fa 0093     		str	r3, [sp]
 531 00fc 92E7     		b	.L41
 532              	.LVL38:
 533              	.L46:
 534              		.loc 1 159 0
 535 00fe FFF7FEFF 		bl	__stack_chk_fail
 536              	.LVL39:
 537              	.L48:
 538 0102 00BF     		.align	2
 539              	.L47:
 540 0104 00000000 		.word	I2SD2
 541 0108 00000000 		.word	__stack_chk_guard
 542 010c 00380240 		.word	1073887232
 543 0110 00400140 		.word	1073823744
 544 0114 00000000 		.word	handlePCMdata
 545              		.cfi_endproc
 546              	.LFE259:
 547              		.size	mic_start, .-mic_start
 548              		.section	.text.mic_get_buffer_ptr,"ax",%progbits
 549              		.align	1
 550              		.p2align 4,,15
 551              		.global	mic_get_buffer_ptr
 552              		.syntax unified
 553              		.thumb
 554              		.thumb_func
 555              		.fpu fpv4-sp-d16
 556              		.type	mic_get_buffer_ptr, %function
 557              	mic_get_buffer_ptr:
 558              	.LFB260:
 559              		.loc 1 161 0
 560              		.cfi_startproc
 561              		@ args = 0, pretend = 0, frame = 8
 562              		@ frame_needed = 0, uses_anonymous_args = 0
 563 0000 00B5     		push	{lr}
 564              		.cfi_def_cfa_offset 4
 565              		.cfi_offset 14, -4
 566 0002 074B     		ldr	r3, .L54
 567 0004 83B0     		sub	sp, sp, #12
 568              		.cfi_def_cfa_offset 16
 569              		.loc 1 161 0
 570 0006 1A68     		ldr	r2, [r3]
ARM GAS  /var/folders/qd/4mxf5pkd0zdf0b9dd1hp39180000gn/T//ccNFynNJ.s 			page 11


 571 0008 0192     		str	r2, [sp, #4]
 572              		.loc 1 162 0
 573 000a 019A     		ldr	r2, [sp, #4]
 574 000c 1B68     		ldr	r3, [r3]
 575 000e 9A42     		cmp	r2, r3
 576 0010 04D1     		bne	.L53
 577              		.loc 1 163 0
 578 0012 03B0     		add	sp, sp, #12
 579              		.cfi_remember_state
 580              		.cfi_def_cfa_offset 4
 581              		@ sp needed
 582 0014 5DF804EB 		ldr	lr, [sp], #4
 583              		.cfi_restore 14
 584              		.cfi_def_cfa_offset 0
 585              		.loc 1 162 0
 586 0018 FFF7FEBF 		b	mp45dt02BufferPtr
 587              	.LVL40:
 588              	.L53:
 589              		.cfi_restore_state
 590 001c FFF7FEFF 		bl	__stack_chk_fail
 591              	.LVL41:
 592              	.L55:
 593              		.align	2
 594              	.L54:
 595 0020 00000000 		.word	__stack_chk_guard
 596              		.cfi_endproc
 597              	.LFE260:
 598              		.size	mic_get_buffer_ptr, .-mic_get_buffer_ptr
 599              		.section	.text.mic_buffer_is_ready,"ax",%progbits
 600              		.align	1
 601              		.p2align 4,,15
 602              		.global	mic_buffer_is_ready
 603              		.syntax unified
 604              		.thumb
 605              		.thumb_func
 606              		.fpu fpv4-sp-d16
 607              		.type	mic_buffer_is_ready, %function
 608              	mic_buffer_is_ready:
 609              	.LFB261:
 610              		.loc 1 165 0
 611              		.cfi_startproc
 612              		@ args = 0, pretend = 0, frame = 8
 613              		@ frame_needed = 0, uses_anonymous_args = 0
 614 0000 00B5     		push	{lr}
 615              		.cfi_def_cfa_offset 4
 616              		.cfi_offset 14, -4
 617 0002 074B     		ldr	r3, .L60
 618              		.loc 1 166 0
 619 0004 0749     		ldr	r1, .L60+4
 620              		.loc 1 165 0
 621 0006 1A68     		ldr	r2, [r3]
 622              		.loc 1 167 0
 623 0008 0878     		ldrb	r0, [r1]	@ zero_extendqisi2
 624              		.loc 1 165 0
 625 000a 83B0     		sub	sp, sp, #12
 626              		.cfi_def_cfa_offset 16
 627              		.loc 1 165 0
ARM GAS  /var/folders/qd/4mxf5pkd0zdf0b9dd1hp39180000gn/T//ccNFynNJ.s 			page 12


 628 000c 0192     		str	r2, [sp, #4]
 629              		.loc 1 167 0
 630 000e 019A     		ldr	r2, [sp, #4]
 631 0010 1B68     		ldr	r3, [r3]
 632 0012 9A42     		cmp	r2, r3
 633 0014 02D1     		bne	.L59
 634 0016 03B0     		add	sp, sp, #12
 635              		.cfi_remember_state
 636              		.cfi_def_cfa_offset 4
 637              		@ sp needed
 638 0018 5DF804FB 		ldr	pc, [sp], #4
 639              	.L59:
 640              		.cfi_restore_state
 641 001c FFF7FEFF 		bl	__stack_chk_fail
 642              	.LVL42:
 643              	.L61:
 644              		.align	2
 645              	.L60:
 646 0020 00000000 		.word	__stack_chk_guard
 647 0024 00000000 		.word	.LANCHOR0
 648              		.cfi_endproc
 649              	.LFE261:
 650              		.size	mic_buffer_is_ready, .-mic_buffer_is_ready
 651              		.section	.text.mic_buffer_ready_reset,"ax",%progbits
 652              		.align	1
 653              		.p2align 4,,15
 654              		.global	mic_buffer_ready_reset
 655              		.syntax unified
 656              		.thumb
 657              		.thumb_func
 658              		.fpu fpv4-sp-d16
 659              		.type	mic_buffer_ready_reset, %function
 660              	mic_buffer_ready_reset:
 661              	.LFB262:
 662              		.loc 1 169 0
 663              		.cfi_startproc
 664              		@ args = 0, pretend = 0, frame = 8
 665              		@ frame_needed = 0, uses_anonymous_args = 0
 666 0000 00B5     		push	{lr}
 667              		.cfi_def_cfa_offset 4
 668              		.cfi_offset 14, -4
 669 0002 084B     		ldr	r3, .L66
 670              		.loc 1 170 0
 671 0004 0849     		ldr	r1, .L66+4
 672              		.loc 1 169 0
 673 0006 1A68     		ldr	r2, [r3]
 674 0008 83B0     		sub	sp, sp, #12
 675              		.cfi_def_cfa_offset 16
 676              		.loc 1 170 0
 677 000a 0020     		movs	r0, #0
 678              		.loc 1 169 0
 679 000c 0192     		str	r2, [sp, #4]
 680              		.loc 1 171 0
 681 000e 019A     		ldr	r2, [sp, #4]
 682 0010 1B68     		ldr	r3, [r3]
 683              		.loc 1 170 0
 684 0012 0870     		strb	r0, [r1]
ARM GAS  /var/folders/qd/4mxf5pkd0zdf0b9dd1hp39180000gn/T//ccNFynNJ.s 			page 13


 685              		.loc 1 171 0
 686 0014 9A42     		cmp	r2, r3
 687 0016 02D1     		bne	.L65
 688 0018 03B0     		add	sp, sp, #12
 689              		.cfi_remember_state
 690              		.cfi_def_cfa_offset 4
 691              		@ sp needed
 692 001a 5DF804FB 		ldr	pc, [sp], #4
 693              	.L65:
 694              		.cfi_restore_state
 695 001e FFF7FEFF 		bl	__stack_chk_fail
 696              	.LVL43:
 697              	.L67:
 698 0022 00BF     		.align	2
 699              	.L66:
 700 0024 00000000 		.word	__stack_chk_guard
 701 0028 00000000 		.word	.LANCHOR0
 702              		.cfi_endproc
 703              	.LFE262:
 704              		.size	mic_buffer_ready_reset, .-mic_buffer_ready_reset
 705              		.section	.text.mic_buffer_get_size,"ax",%progbits
 706              		.align	1
 707              		.p2align 4,,15
 708              		.global	mic_buffer_get_size
 709              		.syntax unified
 710              		.thumb
 711              		.thumb_func
 712              		.fpu fpv4-sp-d16
 713              		.type	mic_buffer_get_size, %function
 714              	mic_buffer_get_size:
 715              	.LFB263:
 716              		.loc 1 173 0
 717              		.cfi_startproc
 718              		@ args = 0, pretend = 0, frame = 8
 719              		@ frame_needed = 0, uses_anonymous_args = 0
 720 0000 00B5     		push	{lr}
 721              		.cfi_def_cfa_offset 4
 722              		.cfi_offset 14, -4
 723 0002 074B     		ldr	r3, .L72
 724 0004 83B0     		sub	sp, sp, #12
 725              		.cfi_def_cfa_offset 16
 726              		.loc 1 173 0
 727 0006 1A68     		ldr	r2, [r3]
 728 0008 0192     		str	r2, [sp, #4]
 729              		.loc 1 175 0
 730 000a 019A     		ldr	r2, [sp, #4]
 731 000c 1B68     		ldr	r3, [r3]
 732 000e 9A42     		cmp	r2, r3
 733 0010 04D1     		bne	.L71
 734 0012 4FF4A060 		mov	r0, #1280
 735 0016 03B0     		add	sp, sp, #12
 736              		.cfi_remember_state
 737              		.cfi_def_cfa_offset 4
 738              		@ sp needed
 739 0018 5DF804FB 		ldr	pc, [sp], #4
 740              	.L71:
 741              		.cfi_restore_state
ARM GAS  /var/folders/qd/4mxf5pkd0zdf0b9dd1hp39180000gn/T//ccNFynNJ.s 			page 14


 742 001c FFF7FEFF 		bl	__stack_chk_fail
 743              	.LVL44:
 744              	.L73:
 745              		.align	2
 746              	.L72:
 747 0020 00000000 		.word	__stack_chk_guard
 748              		.cfi_endproc
 749              	.LFE263:
 750              		.size	mic_buffer_get_size, .-mic_buffer_get_size
 751              		.section	.bss.mic_buffer_ready,"aw",%nobits
 752              		.set	.LANCHOR0,. + 0
 753              		.type	mic_buffer_ready, %object
 754              		.size	mic_buffer_ready, 1
 755              	mic_buffer_ready:
 756 0000 00       		.space	1
 757              		.section	.bss.mic_last,"aw",%nobits
 758              		.align	2
 759              		.set	.LANCHOR2,. + 0
 760              		.type	mic_last, %object
 761              		.size	mic_last, 8
 762              	mic_last:
 763 0000 00000000 		.space	8
 763      00000000 
 764              		.section	.bss.mic_volume,"aw",%nobits
 765              		.align	2
 766              		.set	.LANCHOR1,. + 0
 767              		.type	mic_volume, %object
 768              		.size	mic_volume, 8
 769              	mic_volume:
 770 0000 00000000 		.space	8
 770      00000000 
 771              		.text
 772              	.Letext0:
 773              		.file 2 "/Applications/Eclipse_e-puck2.app/Contents/Eclipse_e-puck2/Tools/gcc-arm-none-eabi-7-2017
 774              		.file 3 "/Applications/Eclipse_e-puck2.app/Contents/Eclipse_e-puck2/Tools/gcc-arm-none-eabi-7-2017
 775              		.file 4 "/Applications/Eclipse_e-puck2.app/Contents/Eclipse_e-puck2/Tools/gcc-arm-none-eabi-7-2017
 776              		.file 5 "/Applications/Eclipse_e-puck2.app/Contents/Eclipse_e-puck2/Tools/gcc-arm-none-eabi-7-2017
 777              		.file 6 "/Applications/Eclipse_e-puck2.app/Contents/Eclipse_e-puck2/Tools/gcc-arm-none-eabi-7-2017
 778              		.file 7 "/Applications/Eclipse_e-puck2.app/Contents/Eclipse_e-puck2/Tools/gcc-arm-none-eabi-7-2017
 779              		.file 8 "lib/e-puck2_main-processor/ChibiOS//os/rt/ports/ARMCMx/compilers/GCC/chtypes.h"
 780              		.file 9 "lib/e-puck2_main-processor/ChibiOS//os/rt/include/chsystypes.h"
 781              		.file 10 "lib/e-puck2_main-processor/ChibiOS//os/rt/include/chschd.h"
 782              		.file 11 "lib/e-puck2_main-processor/ChibiOS//os/ext/CMSIS/include/core_cm4.h"
 783              		.file 12 "lib/e-puck2_main-processor/ChibiOS//os/ext/CMSIS/ST/system_stm32f4xx.h"
 784              		.file 13 "lib/e-puck2_main-processor/ChibiOS//os/ext/CMSIS/ST/stm32f407xx.h"
 785              		.file 14 "lib/e-puck2_main-processor/ChibiOS//os/rt/ports/ARMCMx/chcore.h"
 786              		.file 15 "lib/e-puck2_main-processor/ChibiOS//os/rt/ports/ARMCMx/chcore_v7m.h"
 787              		.file 16 "lib/e-puck2_main-processor/ChibiOS//os/rt/include/chdebug.h"
 788              		.file 17 "lib/e-puck2_main-processor/ChibiOS//os/rt/include/chtm.h"
 789              		.file 18 "lib/e-puck2_main-processor/ChibiOS//os/rt/include/chstats.h"
 790              		.file 19 "lib/e-puck2_main-processor/ChibiOS//os/rt/include/chsem.h"
 791              		.file 20 "lib/e-puck2_main-processor/ChibiOS//os/rt/include/chmtx.h"
 792              		.file 21 "lib/e-puck2_main-processor/ChibiOS//os/rt/include/chregistry.h"
 793              		.file 22 "lib/e-puck2_main-processor/ChibiOS//os/rt/include/chevents.h"
 794              		.file 23 "lib/e-puck2_main-processor/ChibiOS//os/rt/include/chqueues.h"
 795              		.file 24 "lib/e-puck2_main-processor/ChibiOS//os/hal/ports/STM32/STM32F4xx/stm32_dma.h"
 796              		.file 25 "lib/e-puck2_main-processor/ChibiOS//os/hal/include/hal_ioblock.h"
ARM GAS  /var/folders/qd/4mxf5pkd0zdf0b9dd1hp39180000gn/T//ccNFynNJ.s 			page 15


 797              		.file 26 "lib/e-puck2_main-processor/ChibiOS//os/hal/ports/STM32/LLD/GPIOv2/pal_lld.h"
 798              		.file 27 "lib/e-puck2_main-processor/ChibiOS//os/hal/include/adc.h"
 799              		.file 28 "lib/e-puck2_main-processor/ChibiOS//os/hal/ports/STM32/STM32F4xx/adc_lld.h"
 800              		.file 29 "lib/e-puck2_main-processor/ChibiOS//os/hal/include/can.h"
 801              		.file 30 "lib/e-puck2_main-processor/ChibiOS//os/hal/ports/STM32/LLD/can_lld.h"
 802              		.file 31 "lib/e-puck2_main-processor/ChibiOS//os/hal/include/dac.h"
 803              		.file 32 "lib/e-puck2_main-processor/ChibiOS//os/hal/ports/STM32/LLD/DACv1/dac_lld.h"
 804              		.file 33 "lib/e-puck2_main-processor/ChibiOS//os/hal/include/ext.h"
 805              		.file 34 "lib/e-puck2_main-processor/ChibiOS//os/hal/ports/STM32/LLD/ext_lld.h"
 806              		.file 35 "lib/e-puck2_main-processor/ChibiOS//os/hal/include/gpt.h"
 807              		.file 36 "lib/e-puck2_main-processor/ChibiOS//os/hal/ports/STM32/LLD/TIMv1/gpt_lld.h"
 808              		.file 37 "lib/e-puck2_main-processor/ChibiOS//os/hal/ports/STM32/LLD/TIMv1/stm32_tim.h"
 809              		.file 38 "lib/e-puck2_main-processor/ChibiOS//os/hal/include/i2c.h"
 810              		.file 39 "lib/e-puck2_main-processor/ChibiOS//os/hal/ports/STM32/LLD/I2Cv1/i2c_lld.h"
 811              		.file 40 "lib/e-puck2_main-processor/ChibiOS//os/hal/include/i2s.h"
 812              		.file 41 "lib/e-puck2_main-processor/ChibiOS//os/hal/ports/STM32/LLD/SPIv1/i2s_lld.h"
 813              		.file 42 "lib/e-puck2_main-processor/ChibiOS//os/hal/include/pwm.h"
 814              		.file 43 "lib/e-puck2_main-processor/ChibiOS//os/hal/ports/STM32/LLD/TIMv1/pwm_lld.h"
 815              		.file 44 "lib/e-puck2_main-processor/ChibiOS//os/hal/include/serial.h"
 816              		.file 45 "lib/e-puck2_main-processor/ChibiOS//os/hal/ports/STM32/LLD/USARTv1/serial_lld.h"
 817              		.file 46 "lib/e-puck2_main-processor/ChibiOS//os/hal/include/sdc.h"
 818              		.file 47 "lib/e-puck2_main-processor/ChibiOS//os/hal/ports/STM32/LLD/sdc_lld.h"
 819              		.file 48 "lib/e-puck2_main-processor/ChibiOS//os/hal/include/spi.h"
 820              		.file 49 "lib/e-puck2_main-processor/ChibiOS//os/hal/ports/STM32/LLD/SPIv1/spi_lld.h"
 821              		.file 50 "lib/e-puck2_main-processor/ChibiOS//os/hal/include/usb.h"
 822              		.file 51 "lib/e-puck2_main-processor/ChibiOS//os/hal/ports/STM32/LLD/OTGv1/usb_lld.h"
 823              		.file 52 "lib/e-puck2_main-processor/ChibiOS//os/hal/ports/STM32/LLD/OTGv1/stm32_otg.h"
 824              		.file 53 "lib/e-puck2_main-processor/src/audio/mp45dt02_processing.h"