ARM GAS  /var/folders/qd/4mxf5pkd0zdf0b9dd1hp39180000gn/T//ccWtjWNO.s 			page 1


   1              		.cpu cortex-m4
   2              		.eabi_attribute 27, 1
   3              		.eabi_attribute 28, 1
   4              		.eabi_attribute 20, 1
   5              		.eabi_attribute 21, 1
   6              		.eabi_attribute 23, 3
   7              		.eabi_attribute 24, 1
   8              		.eabi_attribute 25, 1
   9              		.eabi_attribute 26, 1
  10              		.eabi_attribute 30, 2
  11              		.eabi_attribute 34, 1
  12              		.eabi_attribute 18, 4
  13              		.file	"mod_basicIO.c"
  14              		.text
  15              	.Ltext0:
  16              		.cfi_sections	.debug_frame
  17              		.section	.text.mod_basicIO_changeRobotState,"ax",%progbits
  18              		.align	1
  19              		.p2align 4,,15
  20              		.global	mod_basicIO_changeRobotState
  21              		.syntax unified
  22              		.thumb
  23              		.thumb_func
  24              		.fpu fpv4-sp-d16
  25              		.type	mod_basicIO_changeRobotState, %function
  26              	mod_basicIO_changeRobotState:
  27              	.LFB256:
  28              		.file 1 "./modules/mod_basicIO.c"
  29              		.loc 1 26 0
  30              		.cfi_startproc
  31              		@ args = 0, pretend = 0, frame = 8
  32              		@ frame_needed = 0, uses_anonymous_args = 0
  33              	.LVL0:
  34 0000 10B5     		push	{r4, lr}
  35              		.cfi_def_cfa_offset 8
  36              		.cfi_offset 4, -8
  37              		.cfi_offset 14, -4
  38 0002 144C     		ldr	r4, .L16
  39 0004 82B0     		sub	sp, sp, #8
  40              		.cfi_def_cfa_offset 16
  41              		.loc 1 26 0
  42 0006 2268     		ldr	r2, [r4]
  43 0008 0192     		str	r2, [sp, #4]
  44              		.loc 1 27 0
  45 000a 0128     		cmp	r0, #1
  46 000c 09D0     		beq	.L14
  47 000e 15D3     		bcc	.L4
  48 0010 0228     		cmp	r0, #2
  49 0012 05D0     		beq	.L5
  50              		.loc 1 41 0
  51 0014 019A     		ldr	r2, [sp, #4]
  52 0016 2368     		ldr	r3, [r4]
  53 0018 9A42     		cmp	r2, r3
  54 001a 18D1     		bne	.L13
  55 001c 02B0     		add	sp, sp, #8
  56              		.cfi_remember_state
  57              		.cfi_def_cfa_offset 8
ARM GAS  /var/folders/qd/4mxf5pkd0zdf0b9dd1hp39180000gn/T//ccWtjWNO.s 			page 2


  58              		@ sp needed
  59 001e 10BD     		pop	{r4, pc}
  60              	.L5:
  61              		.cfi_restore_state
  62              		.loc 1 37 0
  63 0020 0020     		movs	r0, #0
  64              	.LVL1:
  65              	.L14:
  66 0022 FFF7FEFF 		bl	set_body_led
  67              	.LVL2:
  68              		.loc 1 38 0
  69 0026 019A     		ldr	r2, [sp, #4]
  70 0028 2368     		ldr	r3, [r4]
  71 002a 9A42     		cmp	r2, r3
  72 002c 08BF     		it	eq
  73 002e 0020     		moveq	r0, #0
  74 0030 0DD1     		bne	.L13
  75              	.L12:
  76              		.loc 1 41 0
  77 0032 02B0     		add	sp, sp, #8
  78              		.cfi_remember_state
  79              		.cfi_def_cfa_offset 8
  80              		@ sp needed
  81 0034 BDE81040 		pop	{r4, lr}
  82              		.cfi_restore 14
  83              		.cfi_restore 4
  84              		.cfi_def_cfa_offset 0
  85              		.loc 1 38 0
  86 0038 FFF7FEBF 		b	set_front_led
  87              	.LVL3:
  88              	.L4:
  89              		.cfi_restore_state
  90              		.loc 1 29 0
  91 003c 0020     		movs	r0, #0
  92              	.LVL4:
  93 003e FFF7FEFF 		bl	set_body_led
  94              	.LVL5:
  95              		.loc 1 30 0
  96 0042 019A     		ldr	r2, [sp, #4]
  97 0044 2368     		ldr	r3, [r4]
  98 0046 9A42     		cmp	r2, r3
  99 0048 08BF     		it	eq
 100 004a 0120     		moveq	r0, #1
 101 004c F1D0     		beq	.L12
 102              	.L13:
 103              		.loc 1 41 0
 104 004e FFF7FEFF 		bl	__stack_chk_fail
 105              	.LVL6:
 106              	.L17:
 107 0052 00BF     		.align	2
 108              	.L16:
 109 0054 00000000 		.word	__stack_chk_guard
 110              		.cfi_endproc
 111              	.LFE256:
 112              		.size	mod_basicIO_changeRobotState, .-mod_basicIO_changeRobotState
 113              		.section	.text.mod_basicIO_alert_leds,"ax",%progbits
 114              		.align	1
ARM GAS  /var/folders/qd/4mxf5pkd0zdf0b9dd1hp39180000gn/T//ccWtjWNO.s 			page 3


 115              		.p2align 4,,15
 116              		.global	mod_basicIO_alert_leds
 117              		.syntax unified
 118              		.thumb
 119              		.thumb_func
 120              		.fpu fpv4-sp-d16
 121              		.type	mod_basicIO_alert_leds, %function
 122              	mod_basicIO_alert_leds:
 123              	.LFB257:
 124              		.loc 1 43 0
 125              		.cfi_startproc
 126              		@ args = 0, pretend = 0, frame = 8
 127              		@ frame_needed = 0, uses_anonymous_args = 0
 128              	.LVL7:
 129 0000 70B5     		push	{r4, r5, r6, lr}
 130              		.cfi_def_cfa_offset 16
 131              		.cfi_offset 4, -16
 132              		.cfi_offset 5, -12
 133              		.cfi_offset 6, -8
 134              		.cfi_offset 14, -4
 135 0002 144E     		ldr	r6, .L26
 136 0004 82B0     		sub	sp, sp, #8
 137              		.cfi_def_cfa_offset 24
 138              		.loc 1 43 0
 139 0006 0546     		mov	r5, r0
 140 0008 3368     		ldr	r3, [r6]
 141 000a 0193     		str	r3, [sp, #4]
 142              		.loc 1 44 0
 143 000c FFF7FEFF 		bl	clear_leds
 144              	.LVL8:
 145              		.loc 1 46 0
 146 0010 002D     		cmp	r5, #0
 147 0012 12DD     		ble	.L19
 148 0014 0135     		adds	r5, r5, #1
 149              	.LVL9:
 150 0016 0124     		movs	r4, #1
 151              	.LVL10:
 152              	.L20:
 153              		.loc 1 47 0 discriminator 3
 154 0018 0020     		movs	r0, #0
 155 001a FFF7FEFF 		bl	set_front_led
 156              	.LVL11:
 157              		.loc 1 48 0 discriminator 3
 158 001e 4FF49670 		mov	r0, #300
 159 0022 FFF7FEFF 		bl	chThdSleep
 160              	.LVL12:
 161              		.loc 1 49 0 discriminator 3
 162 0026 0120     		movs	r0, #1
 163              		.loc 1 46 0 discriminator 3
 164 0028 0444     		add	r4, r4, r0
 165              	.LVL13:
 166              		.loc 1 49 0 discriminator 3
 167 002a FFF7FEFF 		bl	set_front_led
 168              	.LVL14:
 169              		.loc 1 50 0 discriminator 3
 170 002e 4FF4FA70 		mov	r0, #500
 171 0032 FFF7FEFF 		bl	chThdSleep
ARM GAS  /var/folders/qd/4mxf5pkd0zdf0b9dd1hp39180000gn/T//ccWtjWNO.s 			page 4


 172              	.LVL15:
 173              		.loc 1 46 0 discriminator 3
 174 0036 AC42     		cmp	r4, r5
 175 0038 EED1     		bne	.L20
 176              	.LVL16:
 177              	.L19:
 178              		.loc 1 52 0
 179 003a 019A     		ldr	r2, [sp, #4]
 180 003c 3368     		ldr	r3, [r6]
 181 003e 9A42     		cmp	r2, r3
 182 0040 05D1     		bne	.L25
 183 0042 0020     		movs	r0, #0
 184              		.loc 1 53 0
 185 0044 02B0     		add	sp, sp, #8
 186              		.cfi_remember_state
 187              		.cfi_def_cfa_offset 16
 188              		@ sp needed
 189 0046 BDE87040 		pop	{r4, r5, r6, lr}
 190              		.cfi_restore 14
 191              		.cfi_restore 6
 192              		.cfi_restore 5
 193              		.cfi_restore 4
 194              		.cfi_def_cfa_offset 0
 195              		.loc 1 52 0
 196 004a FFF7FEBF 		b	set_front_led
 197              	.LVL17:
 198              	.L25:
 199              		.cfi_restore_state
 200 004e FFF7FEFF 		bl	__stack_chk_fail
 201              	.LVL18:
 202              	.L27:
 203 0052 00BF     		.align	2
 204              	.L26:
 205 0054 00000000 		.word	__stack_chk_guard
 206              		.cfi_endproc
 207              	.LFE257:
 208              		.size	mod_basicIO_alert_leds, .-mod_basicIO_alert_leds
 209              		.text
 210              	.Letext0:
 211              		.file 2 "./modules/headers/mod_basicIO.h"
 212              		.file 3 "/Applications/Eclipse_e-puck2.app/Contents/Eclipse_e-puck2/Tools/gcc-arm-none-eabi-7-2017
 213              		.file 4 "/Applications/Eclipse_e-puck2.app/Contents/Eclipse_e-puck2/Tools/gcc-arm-none-eabi-7-2017
 214              		.file 5 "/Applications/Eclipse_e-puck2.app/Contents/Eclipse_e-puck2/Tools/gcc-arm-none-eabi-7-2017
 215              		.file 6 "lib/e-puck2_main-processor/ChibiOS//os/rt/ports/ARMCMx/compilers/GCC/chtypes.h"
 216              		.file 7 "lib/e-puck2_main-processor/ChibiOS//os/rt/include/chsystypes.h"
 217              		.file 8 "lib/e-puck2_main-processor/ChibiOS//os/rt/include/chschd.h"
 218              		.file 9 "lib/e-puck2_main-processor/ChibiOS//os/ext/CMSIS/include/core_cm4.h"
 219              		.file 10 "lib/e-puck2_main-processor/ChibiOS//os/ext/CMSIS/ST/system_stm32f4xx.h"
 220              		.file 11 "lib/e-puck2_main-processor/ChibiOS//os/ext/CMSIS/ST/stm32f407xx.h"
 221              		.file 12 "lib/e-puck2_main-processor/ChibiOS//os/rt/ports/ARMCMx/chcore.h"
 222              		.file 13 "lib/e-puck2_main-processor/ChibiOS//os/rt/ports/ARMCMx/chcore_v7m.h"
 223              		.file 14 "lib/e-puck2_main-processor/ChibiOS//os/rt/include/chdebug.h"
 224              		.file 15 "lib/e-puck2_main-processor/ChibiOS//os/rt/include/chtm.h"
 225              		.file 16 "lib/e-puck2_main-processor/ChibiOS//os/rt/include/chstats.h"
 226              		.file 17 "lib/e-puck2_main-processor/ChibiOS//os/rt/include/chsem.h"
 227              		.file 18 "lib/e-puck2_main-processor/ChibiOS//os/rt/include/chmtx.h"
 228              		.file 19 "lib/e-puck2_main-processor/ChibiOS//os/rt/include/chregistry.h"
ARM GAS  /var/folders/qd/4mxf5pkd0zdf0b9dd1hp39180000gn/T//ccWtjWNO.s 			page 5


 229              		.file 20 "lib/e-puck2_main-processor/ChibiOS//os/rt/include/chevents.h"
 230              		.file 21 "lib/e-puck2_main-processor/ChibiOS//os/rt/include/chqueues.h"
 231              		.file 22 "lib/e-puck2_main-processor/ChibiOS//os/hal/ports/STM32/STM32F4xx/stm32_dma.h"
 232              		.file 23 "lib/e-puck2_main-processor/ChibiOS//os/hal/include/hal_ioblock.h"
 233              		.file 24 "lib/e-puck2_main-processor/ChibiOS//os/hal/ports/STM32/LLD/GPIOv2/pal_lld.h"
 234              		.file 25 "lib/e-puck2_main-processor/ChibiOS//os/hal/include/adc.h"
 235              		.file 26 "lib/e-puck2_main-processor/ChibiOS//os/hal/ports/STM32/STM32F4xx/adc_lld.h"
 236              		.file 27 "lib/e-puck2_main-processor/ChibiOS//os/hal/include/can.h"
 237              		.file 28 "lib/e-puck2_main-processor/ChibiOS//os/hal/ports/STM32/LLD/can_lld.h"
 238              		.file 29 "lib/e-puck2_main-processor/ChibiOS//os/hal/include/dac.h"
 239              		.file 30 "lib/e-puck2_main-processor/ChibiOS//os/hal/ports/STM32/LLD/DACv1/dac_lld.h"
 240              		.file 31 "lib/e-puck2_main-processor/ChibiOS//os/hal/include/ext.h"
 241              		.file 32 "lib/e-puck2_main-processor/ChibiOS//os/hal/ports/STM32/LLD/ext_lld.h"
 242              		.file 33 "lib/e-puck2_main-processor/ChibiOS//os/hal/include/gpt.h"
 243              		.file 34 "lib/e-puck2_main-processor/ChibiOS//os/hal/ports/STM32/LLD/TIMv1/gpt_lld.h"
 244              		.file 35 "lib/e-puck2_main-processor/ChibiOS//os/hal/ports/STM32/LLD/TIMv1/stm32_tim.h"
 245              		.file 36 "lib/e-puck2_main-processor/ChibiOS//os/hal/include/i2c.h"
 246              		.file 37 "lib/e-puck2_main-processor/ChibiOS//os/hal/ports/STM32/LLD/I2Cv1/i2c_lld.h"
 247              		.file 38 "lib/e-puck2_main-processor/ChibiOS//os/hal/include/i2s.h"
 248              		.file 39 "lib/e-puck2_main-processor/ChibiOS//os/hal/ports/STM32/LLD/SPIv1/i2s_lld.h"
 249              		.file 40 "lib/e-puck2_main-processor/ChibiOS//os/hal/include/pwm.h"
 250              		.file 41 "lib/e-puck2_main-processor/ChibiOS//os/hal/ports/STM32/LLD/TIMv1/pwm_lld.h"
 251              		.file 42 "lib/e-puck2_main-processor/ChibiOS//os/hal/include/serial.h"
 252              		.file 43 "lib/e-puck2_main-processor/ChibiOS//os/hal/ports/STM32/LLD/USARTv1/serial_lld.h"
 253              		.file 44 "lib/e-puck2_main-processor/ChibiOS//os/hal/include/sdc.h"
 254              		.file 45 "lib/e-puck2_main-processor/ChibiOS//os/hal/ports/STM32/LLD/sdc_lld.h"
 255              		.file 46 "lib/e-puck2_main-processor/ChibiOS//os/hal/include/spi.h"
 256              		.file 47 "lib/e-puck2_main-processor/ChibiOS//os/hal/ports/STM32/LLD/SPIv1/spi_lld.h"
 257              		.file 48 "lib/e-puck2_main-processor/ChibiOS//os/hal/include/usb.h"
 258              		.file 49 "lib/e-puck2_main-processor/ChibiOS//os/hal/ports/STM32/LLD/OTGv1/usb_lld.h"
 259              		.file 50 "lib/e-puck2_main-processor/ChibiOS//os/hal/ports/STM32/LLD/OTGv1/stm32_otg.h"
 260              		.file 51 "lib/e-puck2_main-processor/src/leds.h"
 261              		.file 52 "lib/e-puck2_main-processor/ChibiOS//os/rt/include/chthreads.h"