ARM GAS  /var/folders/qd/4mxf5pkd0zdf0b9dd1hp39180000gn/T//cc0H01tt.s 			page 1


   1              		.cpu cortex-m4
   2              		.eabi_attribute 27, 1
   3              		.eabi_attribute 28, 1
   4              		.eabi_attribute 20, 1
   5              		.eabi_attribute 21, 1
   6              		.eabi_attribute 23, 3
   7              		.eabi_attribute 24, 1
   8              		.eabi_attribute 25, 1
   9              		.eabi_attribute 26, 1
  10              		.eabi_attribute 30, 2
  11              		.eabi_attribute 34, 1
  12              		.eabi_attribute 18, 4
  13              		.file	"mod_exploration.c"
  14              		.text
  15              	.Ltext0:
  16              		.cfi_sections	.debug_frame
  17              		.global	__aeabi_dcmpeq
  18              		.section	.text.changeMotorsStateAsync,"ax",%progbits
  19              		.align	1
  20              		.p2align 4,,15
  21              		.syntax unified
  22              		.thumb
  23              		.thumb_func
  24              		.fpu fpv4-sp-d16
  25              		.type	changeMotorsStateAsync, %function
  26              	changeMotorsStateAsync:
  27              	.LFB261:
  28              		.file 1 "./modules/mod_exploration.c"
  29              		.loc 1 114 0
  30              		.cfi_startproc
  31              		@ args = 0, pretend = 0, frame = 16
  32              		@ frame_needed = 0, uses_anonymous_args = 0
  33              	.LVL0:
  34 0000 2DE9F04F 		push	{r4, r5, r6, r7, r8, r9, r10, fp, lr}
  35              		.cfi_def_cfa_offset 36
  36              		.cfi_offset 4, -36
  37              		.cfi_offset 5, -32
  38              		.cfi_offset 6, -28
  39              		.cfi_offset 7, -24
  40              		.cfi_offset 8, -20
  41              		.cfi_offset 9, -16
  42              		.cfi_offset 10, -12
  43              		.cfi_offset 11, -8
  44              		.cfi_offset 14, -4
  45 0004 664B     		ldr	r3, .L22
  46 0006 DFF8B891 		ldr	r9, .L22+32
  47 000a 1B68     		ldr	r3, [r3]
  48 000c 654F     		ldr	r7, .L22+4
  49 000e DFF8B4B1 		ldr	fp, .L22+36
  50 0012 85B0     		sub	sp, sp, #20
  51              		.cfi_def_cfa_offset 56
  52              	.LBB181:
  53              	.LBB182:
  54              	.LBB183:
  55              	.LBB184:
  56              	.LBB185:
  57              	.LBB186:
ARM GAS  /var/folders/qd/4mxf5pkd0zdf0b9dd1hp39180000gn/T//cc0H01tt.s 			page 2


  58              	.LBB187:
  59              	.LBB188:
  60              		.file 2 "lib/e-puck2_main-processor/ChibiOS//os/ext/CMSIS/include/core_cmFunc.h"
  61              		.loc 2 546 0
  62 0014 4FF0000A 		mov	r10, #0
  63              	.LBE188:
  64              	.LBE187:
  65              	.LBE186:
  66              	.LBE185:
  67              	.LBE184:
  68              	.LBE183:
  69              	.LBE182:
  70              	.LBE181:
  71              		.loc 1 114 0
  72 0018 0393     		str	r3, [sp, #12]
  73 001a 6BE0     		b	.L13
  74              	.LVL1:
  75              	.L20:
  76              	.LBB256:
  77              	.LBB202:
  78              	.LBB203:
  79              	.LBB204:
  80              	.LBB205:
  81              	.LBB206:
  82              	.LBB207:
  83              	.LBB208:
  84              	.LBB209:
  85              		.loc 2 546 0
  86 001c 2023     		movs	r3, #32
  87              		.syntax unified
  88              	@ 546 "lib/e-puck2_main-processor/ChibiOS//os/ext/CMSIS/include/core_cmFunc.h" 1
  89 001e 83F31188 		MSR basepri, r3
  90              	@ 0 "" 2
  91              	.LVL2:
  92              		.thumb
  93              		.syntax unified
  94              	.LBE209:
  95              	.LBE208:
  96              	.LBE207:
  97              		.file 3 "lib/e-puck2_main-processor/ChibiOS//os/rt/include/chsys.h"
  98              		.loc 3 349 0
  99 0022 FFF7FEFF 		bl	_stats_start_measure_crit_thd
 100              	.LVL3:
 101              		.loc 3 350 0
 102 0026 FFF7FEFF 		bl	_dbg_check_lock
 103              	.LVL4:
 104              	.LBE206:
 105              	.LBE205:
 106              	.LBB210:
 107              	.LBB211:
 108              		.file 4 "lib/e-puck2_main-processor/ChibiOS//os/rt/include/chvt.h"
 109              		.loc 4 231 0
 110 002a BE6A     		ldr	r6, [r7, #40]
 111              	.LBE211:
 112              	.LBE210:
 113              	.LBB212:
 114              	.LBB213:
ARM GAS  /var/folders/qd/4mxf5pkd0zdf0b9dd1hp39180000gn/T//cc0H01tt.s 			page 3


 115              		.loc 3 360 0
 116 002c FFF7FEFF 		bl	_dbg_check_unlock
 117              	.LVL5:
 118              		.loc 3 361 0
 119 0030 FFF7FEFF 		bl	_stats_stop_measure_crit_thd
 120              	.LVL6:
 121              		.loc 3 367 0
 122 0034 3B68     		ldr	r3, [r7]
 123 0036 BB42     		cmp	r3, r7
 124 0038 07D0     		beq	.L3
 125 003a BA69     		ldr	r2, [r7, #24]
 126 003c 9B68     		ldr	r3, [r3, #8]
 127 003e 9268     		ldr	r2, [r2, #8]
 128 0040 9A42     		cmp	r2, r3
 129 0042 02D2     		bcs	.L3
 130 0044 5848     		ldr	r0, .L22+8
 131 0046 FFF7FEFF 		bl	chSysHalt
 132              	.LVL7:
 133              	.L3:
 134              	.LBB214:
 135              	.LBB215:
 136              	.LBB216:
 137              		.loc 2 546 0
 138              		.syntax unified
 139              	@ 546 "lib/e-puck2_main-processor/ChibiOS//os/ext/CMSIS/include/core_cmFunc.h" 1
 140 004a 8AF31188 		MSR basepri, r10
 141              	@ 0 "" 2
 142              	.LVL8:
 143              		.thumb
 144              		.syntax unified
 145              	.LBE216:
 146              	.LBE215:
 147              	.LBE214:
 148              	.LBE213:
 149              	.LBE212:
 150              	.LBE204:
 151              	.LBE203:
 152              	.LBB217:
 153              	.LBB218:
 154              	.LBB219:
 155              	.LBB220:
 156              	.LBB221:
 157              	.LBB222:
 158              	.LBB223:
 159 004e 2023     		movs	r3, #32
 160 0050 0136     		adds	r6, r6, #1
 161              	.LBE223:
 162              	.LBE222:
 163              	.LBE221:
 164              	.LBE220:
 165              	.LBE219:
 166              	.LBE218:
 167              	.LBE217:
 168              		.loc 1 123 0
 169 0052 DBF80080 		ldr	r8, [fp]
 170              	.LVL9:
 171              	.LBB237:
ARM GAS  /var/folders/qd/4mxf5pkd0zdf0b9dd1hp39180000gn/T//cc0H01tt.s 			page 4


 172              	.LBB236:
 173              	.LBB228:
 174              	.LBB227:
 175              	.LBB226:
 176              	.LBB225:
 177              	.LBB224:
 178              		.loc 2 546 0
 179              		.syntax unified
 180              	@ 546 "lib/e-puck2_main-processor/ChibiOS//os/ext/CMSIS/include/core_cmFunc.h" 1
 181 0056 83F31188 		MSR basepri, r3
 182              	@ 0 "" 2
 183              	.LVL10:
 184              		.thumb
 185              		.syntax unified
 186              	.LBE224:
 187              	.LBE225:
 188              	.LBE226:
 189              		.loc 3 349 0
 190 005a FFF7FEFF 		bl	_stats_start_measure_crit_thd
 191              	.LVL11:
 192              		.loc 3 350 0
 193 005e FFF7FEFF 		bl	_dbg_check_lock
 194              	.LVL12:
 195              	.LBE227:
 196              	.LBE228:
 197              	.LBB229:
 198              	.LBB230:
 199              		.loc 4 231 0
 200 0062 BB6A     		ldr	r3, [r7, #40]
 201 0064 0193     		str	r3, [sp, #4]
 202              	.LBE230:
 203              	.LBE229:
 204              	.LBB231:
 205              	.LBB232:
 206              		.loc 3 360 0
 207 0066 FFF7FEFF 		bl	_dbg_check_unlock
 208              	.LVL13:
 209              		.loc 3 361 0
 210 006a FFF7FEFF 		bl	_stats_stop_measure_crit_thd
 211              	.LVL14:
 212              		.loc 3 367 0
 213 006e 3B68     		ldr	r3, [r7]
 214 0070 BB42     		cmp	r3, r7
 215 0072 07D0     		beq	.L4
 216 0074 BA69     		ldr	r2, [r7, #24]
 217 0076 9B68     		ldr	r3, [r3, #8]
 218 0078 9268     		ldr	r2, [r2, #8]
 219 007a 9A42     		cmp	r2, r3
 220 007c 02D2     		bcs	.L4
 221 007e 4A48     		ldr	r0, .L22+8
 222 0080 FFF7FEFF 		bl	chSysHalt
 223              	.LVL15:
 224              	.L4:
 225              	.LBB233:
 226              	.LBB234:
 227              	.LBB235:
 228              		.loc 2 546 0
ARM GAS  /var/folders/qd/4mxf5pkd0zdf0b9dd1hp39180000gn/T//cc0H01tt.s 			page 5


 229              		.syntax unified
 230              	@ 546 "lib/e-puck2_main-processor/ChibiOS//os/ext/CMSIS/include/core_cmFunc.h" 1
 231 0084 8AF31188 		MSR basepri, r10
 232              	@ 0 "" 2
 233              	.LVL16:
 234              		.thumb
 235              		.syntax unified
 236              	.LBE235:
 237              	.LBE234:
 238              	.LBE233:
 239              	.LBE232:
 240              	.LBE231:
 241              	.LBE236:
 242              	.LBE237:
 243              		.loc 1 124 0
 244 0088 019B     		ldr	r3, [sp, #4]
 245 008a CBF80030 		str	r3, [fp]
 246              		.loc 1 125 0
 247 008e 94ED000B 		vldr.64	d0, [r4]
 248 0092 94ED021B 		vldr.64	d1, [r4, #8]
 249 0096 FFF7FEFF 		bl	mod_motors_changeStateWheelSpeedType
 250              	.LVL17:
 251              		.loc 1 126 0
 252 009a A6EB0806 		sub	r6, r6, r8
 253 009e 4FF47A71 		mov	r1, #1000
 254 00a2 01FB06F1 		mul	r1, r1, r6
 255 00a6 414B     		ldr	r3, .L22+12
 256 00a8 4148     		ldr	r0, .L22+16
 257 00aa 0139     		subs	r1, r1, #1
 258 00ac A3FB0131 		umull	r3, r1, r3, r1
 259 00b0 8909     		lsrs	r1, r1, #6
 260 00b2 FFF7FEFF 		bl	mod_mapping_updatePositionWheelSpeedType
 261              	.LVL18:
 262              	.L5:
 263              	.LBE202:
 264              		.loc 1 133 0
 265 00b6 0022     		movs	r2, #0
 266 00b8 0023     		movs	r3, #0
 267 00ba D4E90001 		ldrd	r0, [r4]
 268 00be FFF7FEFF 		bl	__aeabi_dcmpeq
 269              	.LVL19:
 270 00c2 38B1     		cbz	r0, .L7
 271              		.loc 1 133 0 is_stmt 0 discriminator 1
 272 00c4 0022     		movs	r2, #0
 273 00c6 0023     		movs	r3, #0
 274 00c8 D4E90201 		ldrd	r0, [r4, #8]
 275 00cc FFF7FEFF 		bl	__aeabi_dcmpeq
 276              	.LVL20:
 277 00d0 0028     		cmp	r0, #0
 278 00d2 39D1     		bne	.L19
 279              	.L7:
 280              		.loc 1 139 0 is_stmt 1
 281 00d4 0021     		movs	r1, #0
 282 00d6 3748     		ldr	r0, .L22+20
 283 00d8 FFF7FEFF 		bl	mod_com_writeMessage
 284              	.LVL21:
 285              		.loc 1 141 0
ARM GAS  /var/folders/qd/4mxf5pkd0zdf0b9dd1hp39180000gn/T//cc0H01tt.s 			page 6


 286 00dc 94E80F00 		ldm	r4, {r0, r1, r2, r3}
 287 00e0 334C     		ldr	r4, .L22+16
 288              	.LVL22:
 289 00e2 84E80F00 		stm	r4, {r0, r1, r2, r3}
 290              		.loc 1 140 0
 291 00e6 0123     		movs	r3, #1
 292 00e8 89F80030 		strb	r3, [r9]
 293              	.L12:
 294              		.loc 1 143 0
 295 00ec 2846     		mov	r0, r5
 296 00ee 0021     		movs	r1, #0
 297 00f0 FFF7FEFF 		bl	chMsgRelease
 298              	.LVL23:
 299              	.L13:
 300              		.loc 1 119 0
 301 00f4 FFF7FEFF 		bl	chMsgWait
 302              	.LVL24:
 303              		.loc 1 122 0
 304 00f8 99F80030 		ldrb	r3, [r9]	@ zero_extendqisi2
 305              		.loc 1 120 0
 306 00fc 846B     		ldr	r4, [r0, #56]
 307              		.loc 1 119 0
 308 00fe 0546     		mov	r5, r0
 309              	.LVL25:
 310              		.loc 1 122 0
 311 0100 002B     		cmp	r3, #0
 312 0102 8BD1     		bne	.L20
 313              	.LVL26:
 314              	.LBB238:
 315              	.LBB201:
 316              	.LBB193:
 317              	.LBB194:
 318              	.LBB195:
 319              	.LBB196:
 320              	.LBB197:
 321              		.loc 2 546 0
 322 0104 2023     		movs	r3, #32
 323              		.syntax unified
 324              	@ 546 "lib/e-puck2_main-processor/ChibiOS//os/ext/CMSIS/include/core_cmFunc.h" 1
 325 0106 83F31188 		MSR basepri, r3
 326              	@ 0 "" 2
 327              	.LVL27:
 328              		.thumb
 329              		.syntax unified
 330              	.LBE197:
 331              	.LBE196:
 332              	.LBE195:
 333              		.loc 3 349 0
 334 010a FFF7FEFF 		bl	_stats_start_measure_crit_thd
 335              	.LVL28:
 336              		.loc 3 350 0
 337 010e FFF7FEFF 		bl	_dbg_check_lock
 338              	.LVL29:
 339              	.LBE194:
 340              	.LBE193:
 341              	.LBB198:
 342              	.LBB199:
ARM GAS  /var/folders/qd/4mxf5pkd0zdf0b9dd1hp39180000gn/T//cc0H01tt.s 			page 7


 343              		.loc 4 231 0
 344 0112 BE6A     		ldr	r6, [r7, #40]
 345              	.LBE199:
 346              	.LBE198:
 347              	.LBB200:
 348              	.LBB192:
 349              		.loc 3 360 0
 350 0114 FFF7FEFF 		bl	_dbg_check_unlock
 351              	.LVL30:
 352              		.loc 3 361 0
 353 0118 FFF7FEFF 		bl	_stats_stop_measure_crit_thd
 354              	.LVL31:
 355              		.loc 3 367 0
 356 011c 3B68     		ldr	r3, [r7]
 357 011e BB42     		cmp	r3, r7
 358 0120 07D0     		beq	.L6
 359 0122 BA69     		ldr	r2, [r7, #24]
 360 0124 9B68     		ldr	r3, [r3, #8]
 361 0126 9268     		ldr	r2, [r2, #8]
 362 0128 9A42     		cmp	r2, r3
 363 012a 02D2     		bcs	.L6
 364 012c 1E48     		ldr	r0, .L22+8
 365 012e FFF7FEFF 		bl	chSysHalt
 366              	.LVL32:
 367              	.L6:
 368              	.LBB191:
 369              	.LBB190:
 370              	.LBB189:
 371              		.loc 2 546 0
 372              		.syntax unified
 373              	@ 546 "lib/e-puck2_main-processor/ChibiOS//os/ext/CMSIS/include/core_cmFunc.h" 1
 374 0132 8AF31188 		MSR basepri, r10
 375              	@ 0 "" 2
 376              	.LVL33:
 377              		.thumb
 378              		.syntax unified
 379              	.LBE189:
 380              	.LBE190:
 381              	.LBE191:
 382              	.LBE192:
 383              	.LBE200:
 384              	.LBE201:
 385              	.LBE238:
 386              		.loc 1 130 0
 387 0136 94ED000B 		vldr.64	d0, [r4]
 388 013a 94ED021B 		vldr.64	d1, [r4, #8]
 389              		.loc 1 129 0
 390 013e CBF80060 		str	r6, [fp]
 391              		.loc 1 130 0
 392 0142 FFF7FEFF 		bl	mod_motors_changeStateWheelSpeedType
 393              	.LVL34:
 394 0146 B6E7     		b	.L5
 395              	.L19:
 396              		.loc 1 134 0
 397 0148 0021     		movs	r1, #0
 398 014a 1B48     		ldr	r0, .L22+24
 399 014c FFF7FEFF 		bl	mod_com_writeMessage
ARM GAS  /var/folders/qd/4mxf5pkd0zdf0b9dd1hp39180000gn/T//cc0H01tt.s 			page 8


 400              	.LVL35:
 401              		.loc 1 135 0
 402 0150 89F800A0 		strb	r10, [r9]
 403              	.LVL36:
 404              	.LBB239:
 405              	.LBB240:
 406              	.LBB241:
 407              	.LBB242:
 408              	.LBB243:
 409              	.LBB244:
 410              	.LBB245:
 411              	.LBB246:
 412              		.loc 2 546 0
 413 0154 2023     		movs	r3, #32
 414              		.syntax unified
 415              	@ 546 "lib/e-puck2_main-processor/ChibiOS//os/ext/CMSIS/include/core_cmFunc.h" 1
 416 0156 83F31188 		MSR basepri, r3
 417              	@ 0 "" 2
 418              	.LVL37:
 419              		.thumb
 420              		.syntax unified
 421              	.LBE246:
 422              	.LBE245:
 423              	.LBE244:
 424              		.loc 3 349 0
 425 015a FFF7FEFF 		bl	_stats_start_measure_crit_thd
 426              	.LVL38:
 427              		.loc 3 350 0
 428 015e FFF7FEFF 		bl	_dbg_check_lock
 429              	.LVL39:
 430              	.LBE243:
 431              	.LBE242:
 432              	.LBB247:
 433              	.LBB248:
 434              		.file 5 "lib/e-puck2_main-processor/ChibiOS//os/rt/include/chbsem.h"
 435              		.loc 5 268 0
 436 0162 FFF7FEFF 		bl	chDbgCheckClassI
 437              	.LVL40:
 438              		.loc 5 270 0
 439 0166 154B     		ldr	r3, .L22+28
 440 0168 9B68     		ldr	r3, [r3, #8]
 441 016a 002B     		cmp	r3, #0
 442 016c 13DD     		ble	.L21
 443              	.L10:
 444              	.LVL41:
 445              	.LBE248:
 446              	.LBE247:
 447              		.loc 5 286 0
 448 016e FFF7FEFF 		bl	chSchRescheduleS
 449              	.LVL42:
 450              	.LBB250:
 451              	.LBB251:
 452              		.loc 3 360 0
 453 0172 FFF7FEFF 		bl	_dbg_check_unlock
 454              	.LVL43:
 455              		.loc 3 361 0
 456 0176 FFF7FEFF 		bl	_stats_stop_measure_crit_thd
ARM GAS  /var/folders/qd/4mxf5pkd0zdf0b9dd1hp39180000gn/T//cc0H01tt.s 			page 9


 457              	.LVL44:
 458              		.loc 3 367 0
 459 017a 3B68     		ldr	r3, [r7]
 460 017c BB42     		cmp	r3, r7
 461 017e 07D0     		beq	.L11
 462 0180 BA69     		ldr	r2, [r7, #24]
 463 0182 9B68     		ldr	r3, [r3, #8]
 464 0184 9268     		ldr	r2, [r2, #8]
 465 0186 9A42     		cmp	r2, r3
 466 0188 02D2     		bcs	.L11
 467 018a 0748     		ldr	r0, .L22+8
 468 018c FFF7FEFF 		bl	chSysHalt
 469              	.LVL45:
 470              	.L11:
 471              	.LBB252:
 472              	.LBB253:
 473              	.LBB254:
 474              		.loc 2 546 0
 475              		.syntax unified
 476              	@ 546 "lib/e-puck2_main-processor/ChibiOS//os/ext/CMSIS/include/core_cmFunc.h" 1
 477 0190 8AF31188 		MSR basepri, r10
 478              	@ 0 "" 2
 479              	.LVL46:
 480              		.thumb
 481              		.syntax unified
 482 0194 AAE7     		b	.L12
 483              	.LVL47:
 484              	.L21:
 485              	.LBE254:
 486              	.LBE253:
 487              	.LBE252:
 488              	.LBE251:
 489              	.LBE250:
 490              	.LBB255:
 491              	.LBB249:
 492              		.loc 5 271 0
 493 0196 0948     		ldr	r0, .L22+28
 494 0198 FFF7FEFF 		bl	chSemSignalI
 495              	.LVL48:
 496 019c E7E7     		b	.L10
 497              	.L23:
 498 019e 00BF     		.align	2
 499              	.L22:
 500 01a0 00000000 		.word	__stack_chk_guard
 501 01a4 00000000 		.word	ch
 502 01a8 00000000 		.word	.LANCHOR1
 503 01ac D34D6210 		.word	274877907
 504 01b0 00000000 		.word	.LANCHOR3
 505 01b4 14000000 		.word	.LC1
 506 01b8 00000000 		.word	.LC0
 507 01bc 00000000 		.word	.LANCHOR4
 508 01c0 00000000 		.word	.LANCHOR0
 509 01c4 00000000 		.word	.LANCHOR2
 510              	.LBE249:
 511              	.LBE255:
 512              	.LBE241:
 513              	.LBE240:
ARM GAS  /var/folders/qd/4mxf5pkd0zdf0b9dd1hp39180000gn/T//cc0H01tt.s 			page 10


 514              	.LBE239:
 515              	.LBE256:
 516              		.cfi_endproc
 517              	.LFE261:
 518              		.size	changeMotorsStateAsync, .-changeMotorsStateAsync
 519              		.section	.text.signalEndOfWork,"ax",%progbits
 520              		.align	1
 521              		.p2align 4,,15
 522              		.global	signalEndOfWork
 523              		.syntax unified
 524              		.thumb
 525              		.thumb_func
 526              		.fpu fpv4-sp-d16
 527              		.type	signalEndOfWork, %function
 528              	signalEndOfWork:
 529              	.LFB259:
 530              		.loc 1 105 0
 531              		.cfi_startproc
 532              		@ args = 0, pretend = 0, frame = 8
 533              		@ frame_needed = 0, uses_anonymous_args = 0
 534 0000 10B5     		push	{r4, lr}
 535              		.cfi_def_cfa_offset 8
 536              		.cfi_offset 4, -8
 537              		.cfi_offset 14, -4
 538 0002 194C     		ldr	r4, .L32
 539 0004 82B0     		sub	sp, sp, #8
 540              		.cfi_def_cfa_offset 16
 541              		.loc 1 105 0
 542 0006 2368     		ldr	r3, [r4]
 543 0008 0193     		str	r3, [sp, #4]
 544              	.LVL49:
 545              	.LBB271:
 546              	.LBB272:
 547              	.LBB273:
 548              	.LBB274:
 549              	.LBB275:
 550              	.LBB276:
 551              	.LBB277:
 552              		.loc 2 546 0
 553 000a 2023     		movs	r3, #32
 554              		.syntax unified
 555              	@ 546 "lib/e-puck2_main-processor/ChibiOS//os/ext/CMSIS/include/core_cmFunc.h" 1
 556 000c 83F31188 		MSR basepri, r3
 557              	@ 0 "" 2
 558              	.LVL50:
 559              		.thumb
 560              		.syntax unified
 561              	.LBE277:
 562              	.LBE276:
 563              	.LBE275:
 564              		.loc 3 349 0
 565 0010 FFF7FEFF 		bl	_stats_start_measure_crit_thd
 566              	.LVL51:
 567              		.loc 3 350 0
 568 0014 FFF7FEFF 		bl	_dbg_check_lock
 569              	.LVL52:
 570              	.LBE274:
ARM GAS  /var/folders/qd/4mxf5pkd0zdf0b9dd1hp39180000gn/T//cc0H01tt.s 			page 11


 571              	.LBE273:
 572              	.LBB278:
 573              	.LBB279:
 574              		.loc 5 268 0
 575 0018 FFF7FEFF 		bl	chDbgCheckClassI
 576              	.LVL53:
 577              		.loc 5 270 0
 578 001c 1348     		ldr	r0, .L32+4
 579 001e 8368     		ldr	r3, [r0, #8]
 580 0020 002B     		cmp	r3, #0
 581 0022 1BDD     		ble	.L29
 582              	.L25:
 583              	.LVL54:
 584              	.LBE279:
 585              	.LBE278:
 586              		.loc 5 286 0
 587 0024 FFF7FEFF 		bl	chSchRescheduleS
 588              	.LVL55:
 589              	.LBB281:
 590              	.LBB282:
 591              		.loc 3 360 0
 592 0028 FFF7FEFF 		bl	_dbg_check_unlock
 593              	.LVL56:
 594              		.loc 3 361 0
 595 002c FFF7FEFF 		bl	_stats_stop_measure_crit_thd
 596              	.LVL57:
 597              		.loc 3 367 0
 598 0030 0F4B     		ldr	r3, .L32+8
 599 0032 1A68     		ldr	r2, [r3]
 600 0034 9A42     		cmp	r2, r3
 601 0036 04D0     		beq	.L26
 602 0038 9969     		ldr	r1, [r3, #24]
 603 003a 9368     		ldr	r3, [r2, #8]
 604 003c 8A68     		ldr	r2, [r1, #8]
 605 003e 9A42     		cmp	r2, r3
 606 0040 08D3     		bcc	.L30
 607              	.L26:
 608              	.LVL58:
 609              	.LBB283:
 610              	.LBB284:
 611              	.LBB285:
 612              		.loc 2 546 0
 613 0042 0023     		movs	r3, #0
 614              		.syntax unified
 615              	@ 546 "lib/e-puck2_main-processor/ChibiOS//os/ext/CMSIS/include/core_cmFunc.h" 1
 616 0044 83F31188 		MSR basepri, r3
 617              	@ 0 "" 2
 618              	.LVL59:
 619              		.thumb
 620              		.syntax unified
 621              	.LBE285:
 622              	.LBE284:
 623              	.LBE283:
 624              	.LBE282:
 625              	.LBE281:
 626              	.LBE272:
 627              	.LBE271:
ARM GAS  /var/folders/qd/4mxf5pkd0zdf0b9dd1hp39180000gn/T//cc0H01tt.s 			page 12


 628              		.loc 1 107 0
 629 0048 019A     		ldr	r2, [sp, #4]
 630 004a 2368     		ldr	r3, [r4]
 631 004c 9A42     		cmp	r2, r3
 632 004e 08D1     		bne	.L31
 633 0050 02B0     		add	sp, sp, #8
 634              		.cfi_remember_state
 635              		.cfi_def_cfa_offset 8
 636              		@ sp needed
 637 0052 10BD     		pop	{r4, pc}
 638              	.LVL60:
 639              	.L30:
 640              		.cfi_restore_state
 641              	.LBB290:
 642              	.LBB289:
 643              	.LBB287:
 644              	.LBB286:
 645              		.loc 3 367 0
 646 0054 0748     		ldr	r0, .L32+12
 647 0056 FFF7FEFF 		bl	chSysHalt
 648              	.LVL61:
 649 005a F2E7     		b	.L26
 650              	.LVL62:
 651              	.L29:
 652              	.LBE286:
 653              	.LBE287:
 654              	.LBB288:
 655              	.LBB280:
 656              		.loc 5 271 0
 657 005c FFF7FEFF 		bl	chSemSignalI
 658              	.LVL63:
 659 0060 E0E7     		b	.L25
 660              	.LVL64:
 661              	.L31:
 662              	.LBE280:
 663              	.LBE288:
 664              	.LBE289:
 665              	.LBE290:
 666              		.loc 1 107 0
 667 0062 FFF7FEFF 		bl	__stack_chk_fail
 668              	.LVL65:
 669              	.L33:
 670 0066 00BF     		.align	2
 671              	.L32:
 672 0068 00000000 		.word	__stack_chk_guard
 673 006c 00000000 		.word	.LANCHOR5
 674 0070 00000000 		.word	ch
 675 0074 00000000 		.word	.LANCHOR1
 676              		.cfi_endproc
 677              	.LFE259:
 678              		.size	signalEndOfWork, .-signalEndOfWork
 679              		.section	.text.signalEndMovement,"ax",%progbits
 680              		.align	1
 681              		.p2align 4,,15
 682              		.global	signalEndMovement
 683              		.syntax unified
 684              		.thumb
ARM GAS  /var/folders/qd/4mxf5pkd0zdf0b9dd1hp39180000gn/T//cc0H01tt.s 			page 13


 685              		.thumb_func
 686              		.fpu fpv4-sp-d16
 687              		.type	signalEndMovement, %function
 688              	signalEndMovement:
 689              	.LFB260:
 690              		.loc 1 109 0
 691              		.cfi_startproc
 692              		@ args = 0, pretend = 0, frame = 8
 693              		@ frame_needed = 0, uses_anonymous_args = 0
 694 0000 10B5     		push	{r4, lr}
 695              		.cfi_def_cfa_offset 8
 696              		.cfi_offset 4, -8
 697              		.cfi_offset 14, -4
 698 0002 194C     		ldr	r4, .L42
 699 0004 82B0     		sub	sp, sp, #8
 700              		.cfi_def_cfa_offset 16
 701              		.loc 1 109 0
 702 0006 2368     		ldr	r3, [r4]
 703 0008 0193     		str	r3, [sp, #4]
 704              	.LVL66:
 705              	.LBB305:
 706              	.LBB306:
 707              	.LBB307:
 708              	.LBB308:
 709              	.LBB309:
 710              	.LBB310:
 711              	.LBB311:
 712              		.loc 2 546 0
 713 000a 2023     		movs	r3, #32
 714              		.syntax unified
 715              	@ 546 "lib/e-puck2_main-processor/ChibiOS//os/ext/CMSIS/include/core_cmFunc.h" 1
 716 000c 83F31188 		MSR basepri, r3
 717              	@ 0 "" 2
 718              	.LVL67:
 719              		.thumb
 720              		.syntax unified
 721              	.LBE311:
 722              	.LBE310:
 723              	.LBE309:
 724              		.loc 3 349 0
 725 0010 FFF7FEFF 		bl	_stats_start_measure_crit_thd
 726              	.LVL68:
 727              		.loc 3 350 0
 728 0014 FFF7FEFF 		bl	_dbg_check_lock
 729              	.LVL69:
 730              	.LBE308:
 731              	.LBE307:
 732              	.LBB312:
 733              	.LBB313:
 734              		.loc 5 268 0
 735 0018 FFF7FEFF 		bl	chDbgCheckClassI
 736              	.LVL70:
 737              		.loc 5 270 0
 738 001c 1348     		ldr	r0, .L42+4
 739 001e 8368     		ldr	r3, [r0, #8]
 740 0020 002B     		cmp	r3, #0
 741 0022 1BDD     		ble	.L39
ARM GAS  /var/folders/qd/4mxf5pkd0zdf0b9dd1hp39180000gn/T//cc0H01tt.s 			page 14


 742              	.L35:
 743              	.LVL71:
 744              	.LBE313:
 745              	.LBE312:
 746              		.loc 5 286 0
 747 0024 FFF7FEFF 		bl	chSchRescheduleS
 748              	.LVL72:
 749              	.LBB315:
 750              	.LBB316:
 751              		.loc 3 360 0
 752 0028 FFF7FEFF 		bl	_dbg_check_unlock
 753              	.LVL73:
 754              		.loc 3 361 0
 755 002c FFF7FEFF 		bl	_stats_stop_measure_crit_thd
 756              	.LVL74:
 757              		.loc 3 367 0
 758 0030 0F4B     		ldr	r3, .L42+8
 759 0032 1A68     		ldr	r2, [r3]
 760 0034 9A42     		cmp	r2, r3
 761 0036 04D0     		beq	.L36
 762 0038 9969     		ldr	r1, [r3, #24]
 763 003a 9368     		ldr	r3, [r2, #8]
 764 003c 8A68     		ldr	r2, [r1, #8]
 765 003e 9A42     		cmp	r2, r3
 766 0040 08D3     		bcc	.L40
 767              	.L36:
 768              	.LVL75:
 769              	.LBB317:
 770              	.LBB318:
 771              	.LBB319:
 772              		.loc 2 546 0
 773 0042 0023     		movs	r3, #0
 774              		.syntax unified
 775              	@ 546 "lib/e-puck2_main-processor/ChibiOS//os/ext/CMSIS/include/core_cmFunc.h" 1
 776 0044 83F31188 		MSR basepri, r3
 777              	@ 0 "" 2
 778              	.LVL76:
 779              		.thumb
 780              		.syntax unified
 781              	.LBE319:
 782              	.LBE318:
 783              	.LBE317:
 784              	.LBE316:
 785              	.LBE315:
 786              	.LBE306:
 787              	.LBE305:
 788              		.loc 1 111 0
 789 0048 019A     		ldr	r2, [sp, #4]
 790 004a 2368     		ldr	r3, [r4]
 791 004c 9A42     		cmp	r2, r3
 792 004e 08D1     		bne	.L41
 793 0050 02B0     		add	sp, sp, #8
 794              		.cfi_remember_state
 795              		.cfi_def_cfa_offset 8
 796              		@ sp needed
 797 0052 10BD     		pop	{r4, pc}
 798              	.LVL77:
ARM GAS  /var/folders/qd/4mxf5pkd0zdf0b9dd1hp39180000gn/T//cc0H01tt.s 			page 15


 799              	.L40:
 800              		.cfi_restore_state
 801              	.LBB324:
 802              	.LBB323:
 803              	.LBB321:
 804              	.LBB320:
 805              		.loc 3 367 0
 806 0054 0748     		ldr	r0, .L42+12
 807 0056 FFF7FEFF 		bl	chSysHalt
 808              	.LVL78:
 809 005a F2E7     		b	.L36
 810              	.LVL79:
 811              	.L39:
 812              	.LBE320:
 813              	.LBE321:
 814              	.LBB322:
 815              	.LBB314:
 816              		.loc 5 271 0
 817 005c FFF7FEFF 		bl	chSemSignalI
 818              	.LVL80:
 819 0060 E0E7     		b	.L35
 820              	.LVL81:
 821              	.L41:
 822              	.LBE314:
 823              	.LBE322:
 824              	.LBE323:
 825              	.LBE324:
 826              		.loc 1 111 0
 827 0062 FFF7FEFF 		bl	__stack_chk_fail
 828              	.LVL82:
 829              	.L43:
 830 0066 00BF     		.align	2
 831              	.L42:
 832 0068 00000000 		.word	__stack_chk_guard
 833 006c 00000000 		.word	.LANCHOR4
 834 0070 00000000 		.word	ch
 835 0074 00000000 		.word	.LANCHOR1
 836              		.cfi_endproc
 837              	.LFE260:
 838              		.size	signalEndMovement, .-signalEndMovement
 839              		.section	.text.waitForMovementEnd,"ax",%progbits
 840              		.align	1
 841              		.p2align 4,,15
 842              		.global	waitForMovementEnd
 843              		.syntax unified
 844              		.thumb
 845              		.thumb_func
 846              		.fpu fpv4-sp-d16
 847              		.type	waitForMovementEnd, %function
 848              	waitForMovementEnd:
 849              	.LFB262:
 850              		.loc 1 147 0
 851              		.cfi_startproc
 852              		@ args = 0, pretend = 0, frame = 8
 853              		@ frame_needed = 0, uses_anonymous_args = 0
 854 0000 00B5     		push	{lr}
 855              		.cfi_def_cfa_offset 4
ARM GAS  /var/folders/qd/4mxf5pkd0zdf0b9dd1hp39180000gn/T//cc0H01tt.s 			page 16


 856              		.cfi_offset 14, -4
 857 0002 084B     		ldr	r3, .L49
 858 0004 83B0     		sub	sp, sp, #12
 859              		.cfi_def_cfa_offset 16
 860              		.loc 1 147 0
 861 0006 1A68     		ldr	r2, [r3]
 862 0008 0192     		str	r2, [sp, #4]
 863              	.LVL83:
 864              	.LBB325:
 865              	.LBB326:
 866              		.loc 5 143 0
 867 000a 019A     		ldr	r2, [sp, #4]
 868 000c 1B68     		ldr	r3, [r3]
 869 000e 9A42     		cmp	r2, r3
 870 0010 05D1     		bne	.L48
 871 0012 0548     		ldr	r0, .L49+4
 872              	.LBE326:
 873              	.LBE325:
 874              		.loc 1 149 0
 875 0014 03B0     		add	sp, sp, #12
 876              		.cfi_remember_state
 877              		.cfi_def_cfa_offset 4
 878              		@ sp needed
 879 0016 5DF804EB 		ldr	lr, [sp], #4
 880              		.cfi_restore 14
 881              		.cfi_def_cfa_offset 0
 882              	.LBB328:
 883              	.LBB327:
 884              		.loc 5 143 0
 885 001a FFF7FEBF 		b	chSemWait
 886              	.LVL84:
 887              	.L48:
 888              		.cfi_restore_state
 889 001e FFF7FEFF 		bl	__stack_chk_fail
 890              	.LVL85:
 891              	.L50:
 892 0022 00BF     		.align	2
 893              	.L49:
 894 0024 00000000 		.word	__stack_chk_guard
 895 0028 00000000 		.word	.LANCHOR4
 896              	.LBE327:
 897              	.LBE328:
 898              		.cfi_endproc
 899              	.LFE262:
 900              		.size	waitForMovementEnd, .-waitForMovementEnd
 901              		.section	.text.changeMotorsState,"ax",%progbits
 902              		.align	1
 903              		.p2align 4,,15
 904              		.global	changeMotorsState
 905              		.syntax unified
 906              		.thumb
 907              		.thumb_func
 908              		.fpu fpv4-sp-d16
 909              		.type	changeMotorsState, %function
 910              	changeMotorsState:
 911              	.LFB263:
 912              		.loc 1 151 0
ARM GAS  /var/folders/qd/4mxf5pkd0zdf0b9dd1hp39180000gn/T//cc0H01tt.s 			page 17


 913              		.cfi_startproc
 914              		@ args = 0, pretend = 0, frame = 24
 915              		@ frame_needed = 0, uses_anonymous_args = 0
 916 0000 10B5     		push	{r4, lr}
 917              		.cfi_def_cfa_offset 8
 918              		.cfi_offset 4, -8
 919              		.cfi_offset 14, -4
 920              		.loc 1 152 0
 921 0002 0A4A     		ldr	r2, .L55
 922              		.loc 1 151 0
 923 0004 0A4C     		ldr	r4, .L55+4
 924              		.loc 1 152 0
 925 0006 1068     		ldr	r0, [r2]
 926              		.loc 1 151 0
 927 0008 2368     		ldr	r3, [r4]
 928 000a 86B0     		sub	sp, sp, #24
 929              		.cfi_def_cfa_offset 32
 930              		.loc 1 152 0
 931 000c 6946     		mov	r1, sp
 932              		.loc 1 151 0
 933 000e 0593     		str	r3, [sp, #20]
 934 0010 8DED000B 		vstr.64	d0, [sp]
 935 0014 8DED021B 		vstr.64	d1, [sp, #8]
 936              		.loc 1 152 0
 937 0018 FFF7FEFF 		bl	chMsgSend
 938              	.LVL86:
 939              		.loc 1 153 0
 940 001c 059A     		ldr	r2, [sp, #20]
 941 001e 2368     		ldr	r3, [r4]
 942 0020 9A42     		cmp	r2, r3
 943 0022 01D1     		bne	.L54
 944 0024 06B0     		add	sp, sp, #24
 945              		.cfi_remember_state
 946              		.cfi_def_cfa_offset 8
 947              		@ sp needed
 948 0026 10BD     		pop	{r4, pc}
 949              	.L54:
 950              		.cfi_restore_state
 951 0028 FFF7FEFF 		bl	__stack_chk_fail
 952              	.LVL87:
 953              	.L56:
 954              		.align	2
 955              	.L55:
 956 002c 00000000 		.word	.LANCHOR6
 957 0030 00000000 		.word	__stack_chk_guard
 958              		.cfi_endproc
 959              	.LFE263:
 960              		.size	changeMotorsState, .-changeMotorsState
 961              		.section	.text.stopMotors,"ax",%progbits
 962              		.align	1
 963              		.p2align 4,,15
 964              		.global	stopMotors
 965              		.syntax unified
 966              		.thumb
 967              		.thumb_func
 968              		.fpu fpv4-sp-d16
 969              		.type	stopMotors, %function
ARM GAS  /var/folders/qd/4mxf5pkd0zdf0b9dd1hp39180000gn/T//cc0H01tt.s 			page 18


 970              	stopMotors:
 971              	.LFB264:
 972              		.loc 1 155 0
 973              		.cfi_startproc
 974              		@ args = 0, pretend = 0, frame = 24
 975              		@ frame_needed = 0, uses_anonymous_args = 0
 976 0000 10B5     		push	{r4, lr}
 977              		.cfi_def_cfa_offset 8
 978              		.cfi_offset 4, -8
 979              		.cfi_offset 14, -4
 980 0002 0B4C     		ldr	r4, .L61
 981              	.LBB329:
 982              	.LBB330:
 983              		.loc 1 152 0
 984 0004 0B4A     		ldr	r2, .L61+4
 985              	.LBE330:
 986              	.LBE329:
 987              		.loc 1 155 0
 988 0006 2368     		ldr	r3, [r4]
 989              	.LBB333:
 990              	.LBB331:
 991              		.loc 1 152 0
 992 0008 1068     		ldr	r0, [r2]
 993              	.LBE331:
 994              	.LBE333:
 995              		.loc 1 155 0
 996 000a 86B0     		sub	sp, sp, #24
 997              		.cfi_def_cfa_offset 32
 998 000c 0022     		movs	r2, #0
 999              		.loc 1 155 0
 1000 000e 0593     		str	r3, [sp, #20]
 1001              	.LBB334:
 1002              	.LBB332:
 1003              		.loc 1 152 0
 1004 0010 6946     		mov	r1, sp
 1005 0012 0023     		movs	r3, #0
 1006 0014 CDE90023 		strd	r2, [sp]
 1007 0018 CDE90223 		strd	r2, [sp, #8]
 1008 001c FFF7FEFF 		bl	chMsgSend
 1009              	.LVL88:
 1010              	.LBE332:
 1011              	.LBE334:
 1012              		.loc 1 157 0
 1013 0020 059A     		ldr	r2, [sp, #20]
 1014 0022 2368     		ldr	r3, [r4]
 1015 0024 9A42     		cmp	r2, r3
 1016 0026 01D1     		bne	.L60
 1017 0028 06B0     		add	sp, sp, #24
 1018              		.cfi_remember_state
 1019              		.cfi_def_cfa_offset 8
 1020              		@ sp needed
 1021 002a 10BD     		pop	{r4, pc}
 1022              	.L60:
 1023              		.cfi_restore_state
 1024 002c FFF7FEFF 		bl	__stack_chk_fail
 1025              	.LVL89:
 1026              	.L62:
ARM GAS  /var/folders/qd/4mxf5pkd0zdf0b9dd1hp39180000gn/T//cc0H01tt.s 			page 19


 1027              		.align	2
 1028              	.L61:
 1029 0030 00000000 		.word	__stack_chk_guard
 1030 0034 00000000 		.word	.LANCHOR6
 1031              		.cfi_endproc
 1032              	.LFE264:
 1033              		.size	stopMotors, .-stopMotors
 1034              		.section	.text.moveAndComputePositionWheelSpeedType,"ax",%progbits
 1035              		.align	1
 1036              		.p2align 4,,15
 1037              		.global	moveAndComputePositionWheelSpeedType
 1038              		.syntax unified
 1039              		.thumb
 1040              		.thumb_func
 1041              		.fpu fpv4-sp-d16
 1042              		.type	moveAndComputePositionWheelSpeedType, %function
 1043              	moveAndComputePositionWheelSpeedType:
 1044              	.LFB265:
 1045              		.loc 1 159 0
 1046              		.cfi_startproc
 1047              		@ args = 0, pretend = 0, frame = 40
 1048              		@ frame_needed = 0, uses_anonymous_args = 0
 1049              	.LVL90:
 1050 0000 F0B5     		push	{r4, r5, r6, r7, lr}
 1051              		.cfi_def_cfa_offset 20
 1052              		.cfi_offset 4, -20
 1053              		.cfi_offset 5, -16
 1054              		.cfi_offset 6, -12
 1055              		.cfi_offset 7, -8
 1056              		.cfi_offset 14, -4
 1057 0002 2DED028B 		vpush.64	{d8}
 1058              		.cfi_def_cfa_offset 28
 1059              		.cfi_offset 80, -28
 1060              		.cfi_offset 81, -24
 1061 0006 08EE101A 		vmov	s16, r1	@ int
 1062 000a 0FC8     		ldm	r0, {r0, r1, r2, r3}
 1063              	.LVL91:
 1064 000c 8BB0     		sub	sp, sp, #44
 1065              		.cfi_def_cfa_offset 72
 1066              		.loc 1 159 0
 1067 000e 2B4D     		ldr	r5, .L69
 1068              	.LBB357:
 1069              	.LBB358:
 1070              		.loc 1 152 0
 1071 0010 2B4E     		ldr	r6, .L69+4
 1072 0012 04AC     		add	r4, sp, #16
 1073 0014 84E80F00 		stm	r4, {r0, r1, r2, r3}
 1074              	.LBE358:
 1075              	.LBE357:
 1076              		.loc 1 159 0
 1077 0018 2B68     		ldr	r3, [r5]
 1078              	.LBB361:
 1079              	.LBB359:
 1080              		.loc 1 152 0
 1081 001a 3068     		ldr	r0, [r6]
 1082              	.LBE359:
 1083              	.LBE361:
ARM GAS  /var/folders/qd/4mxf5pkd0zdf0b9dd1hp39180000gn/T//cc0H01tt.s 			page 20


 1084              		.loc 1 159 0
 1085 001c 0993     		str	r3, [sp, #36]
 1086              	.LBB362:
 1087              	.LBB360:
 1088              		.loc 1 152 0
 1089 001e 2146     		mov	r1, r4
 1090 0020 FFF7FEFF 		bl	chMsgSend
 1091              	.LVL92:
 1092              	.LBE360:
 1093              	.LBE362:
 1094              	.LBB363:
 1095              	.LBB364:
 1096              	.LBB365:
 1097              	.LBB366:
 1098              	.LBB367:
 1099              	.LBB368:
 1100              	.LBB369:
 1101              		.loc 2 546 0
 1102 0024 2023     		movs	r3, #32
 1103              		.syntax unified
 1104              	@ 546 "lib/e-puck2_main-processor/ChibiOS//os/ext/CMSIS/include/core_cmFunc.h" 1
 1105 0026 83F31188 		MSR basepri, r3
 1106              	@ 0 "" 2
 1107              	.LVL93:
 1108              		.thumb
 1109              		.syntax unified
 1110              	.LBE369:
 1111              	.LBE368:
 1112              	.LBE367:
 1113              	.LBE366:
 1114              	.LBE365:
 1115              	.LBB371:
 1116              	.LBB372:
 1117              		.loc 4 231 0
 1118 002a 264C     		ldr	r4, .L69+8
 1119              	.LBE372:
 1120              	.LBE371:
 1121              	.LBB374:
 1122              	.LBB370:
 1123              		.loc 3 349 0
 1124 002c FFF7FEFF 		bl	_stats_start_measure_crit_thd
 1125              	.LVL94:
 1126              		.loc 3 350 0
 1127 0030 FFF7FEFF 		bl	_dbg_check_lock
 1128              	.LVL95:
 1129              	.LBE370:
 1130              	.LBE374:
 1131              	.LBB375:
 1132              	.LBB373:
 1133              		.loc 4 231 0
 1134 0034 A76A     		ldr	r7, [r4, #40]
 1135              	.LBE373:
 1136              	.LBE375:
 1137              	.LBB376:
 1138              	.LBB377:
 1139              		.loc 3 360 0
 1140 0036 FFF7FEFF 		bl	_dbg_check_unlock
ARM GAS  /var/folders/qd/4mxf5pkd0zdf0b9dd1hp39180000gn/T//cc0H01tt.s 			page 21


 1141              	.LVL96:
 1142              		.loc 3 361 0
 1143 003a FFF7FEFF 		bl	_stats_stop_measure_crit_thd
 1144              	.LVL97:
 1145              		.loc 3 367 0
 1146 003e 2368     		ldr	r3, [r4]
 1147 0040 A342     		cmp	r3, r4
 1148 0042 04D0     		beq	.L64
 1149 0044 A269     		ldr	r2, [r4, #24]
 1150 0046 9B68     		ldr	r3, [r3, #8]
 1151 0048 9268     		ldr	r2, [r2, #8]
 1152 004a 9A42     		cmp	r2, r3
 1153 004c 2FD3     		bcc	.L67
 1154              	.L64:
 1155              	.LVL98:
 1156              	.LBB378:
 1157              	.LBB379:
 1158              	.LBB380:
 1159              		.loc 2 546 0
 1160 004e 0023     		movs	r3, #0
 1161              		.syntax unified
 1162              	@ 546 "lib/e-puck2_main-processor/ChibiOS//os/ext/CMSIS/include/core_cmFunc.h" 1
 1163 0050 83F31188 		MSR basepri, r3
 1164              	@ 0 "" 2
 1165              	.LVL99:
 1166              		.thumb
 1167              		.syntax unified
 1168              	.LBE380:
 1169              	.LBE379:
 1170              	.LBE378:
 1171              	.LBE377:
 1172              	.LBE376:
 1173              	.LBE364:
 1174              	.LBE363:
 1175              		.loc 1 163 0
 1176 0054 DFED1C7A 		vldr.32	s15, .L69+12
 1177 0058 1C4A     		ldr	r2, .L69+16
 1178 005a B8EEC88A 		vcvt.f32.s32	s16, s16
 1179              	.LVL100:
 1180 005e 4FF47A73 		mov	r3, #1000
 1181 0062 28EE278A 		vmul.f32	s16, s16, s15
 1182 0066 3846     		mov	r0, r7
 1183 0068 FCEEC87A 		vcvt.u32.f32	s15, s16
 1184 006c 17EE901A 		vmov	r1, s15	@ int
 1185 0070 03FB01F1 		mul	r1, r3, r1
 1186 0074 01F2E731 		addw	r1, r1, #999
 1187 0078 A2FB0131 		umull	r3, r1, r2, r1
 1188 007c 07EB9111 		add	r1, r7, r1, lsr #6
 1189 0080 FFF7FEFF 		bl	chThdSleepUntilWindowed
 1190              	.LVL101:
 1191 0084 0022     		movs	r2, #0
 1192 0086 0023     		movs	r3, #0
 1193              	.LBB384:
 1194              	.LBB385:
 1195              	.LBB386:
 1196              		.loc 1 152 0
 1197 0088 6946     		mov	r1, sp
ARM GAS  /var/folders/qd/4mxf5pkd0zdf0b9dd1hp39180000gn/T//cc0H01tt.s 			page 22


 1198 008a 3068     		ldr	r0, [r6]
 1199 008c CDE90023 		strd	r2, [sp]
 1200 0090 CDE90223 		strd	r2, [sp, #8]
 1201 0094 FFF7FEFF 		bl	chMsgSend
 1202              	.LVL102:
 1203              	.LBE386:
 1204              	.LBE385:
 1205              	.LBE384:
 1206              	.LBB387:
 1207              	.LBB388:
 1208              	.LBB389:
 1209              		.loc 5 143 0
 1210 0098 0D48     		ldr	r0, .L69+20
 1211 009a FFF7FEFF 		bl	chSemWait
 1212              	.LVL103:
 1213              	.LBE389:
 1214              	.LBE388:
 1215              	.LBE387:
 1216              		.loc 1 166 0
 1217 009e 099A     		ldr	r2, [sp, #36]
 1218 00a0 2B68     		ldr	r3, [r5]
 1219 00a2 9A42     		cmp	r2, r3
 1220 00a4 07D1     		bne	.L68
 1221 00a6 0BB0     		add	sp, sp, #44
 1222              		.cfi_remember_state
 1223              		.cfi_def_cfa_offset 28
 1224              		@ sp needed
 1225 00a8 BDEC028B 		vldm	sp!, {d8}
 1226              		.cfi_restore 80
 1227              		.cfi_restore 81
 1228              		.cfi_def_cfa_offset 20
 1229 00ac F0BD     		pop	{r4, r5, r6, r7, pc}
 1230              	.LVL104:
 1231              	.L67:
 1232              		.cfi_restore_state
 1233              	.LBB390:
 1234              	.LBB383:
 1235              	.LBB382:
 1236              	.LBB381:
 1237              		.loc 3 367 0
 1238 00ae 0948     		ldr	r0, .L69+24
 1239 00b0 FFF7FEFF 		bl	chSysHalt
 1240              	.LVL105:
 1241 00b4 CBE7     		b	.L64
 1242              	.LVL106:
 1243              	.L68:
 1244              	.LBE381:
 1245              	.LBE382:
 1246              	.LBE383:
 1247              	.LBE390:
 1248              		.loc 1 166 0
 1249 00b6 FFF7FEFF 		bl	__stack_chk_fail
 1250              	.LVL107:
 1251              	.L70:
 1252 00ba 00BF     		.align	2
 1253              	.L69:
 1254 00bc 00000000 		.word	__stack_chk_guard
ARM GAS  /var/folders/qd/4mxf5pkd0zdf0b9dd1hp39180000gn/T//cc0H01tt.s 			page 23


 1255 00c0 00000000 		.word	.LANCHOR6
 1256 00c4 00000000 		.word	ch
 1257 00c8 5C8F823F 		.word	1065520988
 1258 00cc D34D6210 		.word	274877907
 1259 00d0 00000000 		.word	.LANCHOR4
 1260 00d4 00000000 		.word	.LANCHOR1
 1261              		.cfi_endproc
 1262              	.LFE265:
 1263              		.size	moveAndComputePositionWheelSpeedType, .-moveAndComputePositionWheelSpeedType
 1264              		.section	.text.moveAndComputePositionRobotSpeedType,"ax",%progbits
 1265              		.align	1
 1266              		.p2align 4,,15
 1267              		.global	moveAndComputePositionRobotSpeedType
 1268              		.syntax unified
 1269              		.thumb
 1270              		.thumb_func
 1271              		.fpu fpv4-sp-d16
 1272              		.type	moveAndComputePositionRobotSpeedType, %function
 1273              	moveAndComputePositionRobotSpeedType:
 1274              	.LFB266:
 1275              		.loc 1 168 0
 1276              		.cfi_startproc
 1277              		@ args = 0, pretend = 0, frame = 24
 1278              		@ frame_needed = 0, uses_anonymous_args = 0
 1279              	.LVL108:
 1280 0000 30B5     		push	{r4, r5, lr}
 1281              		.cfi_def_cfa_offset 12
 1282              		.cfi_offset 4, -12
 1283              		.cfi_offset 5, -8
 1284              		.cfi_offset 14, -4
 1285 0002 0C4C     		ldr	r4, .L75
 1286 0004 87B0     		sub	sp, sp, #28
 1287              		.cfi_def_cfa_offset 40
 1288              		.loc 1 168 0
 1289 0006 2368     		ldr	r3, [r4]
 1290 0008 0593     		str	r3, [sp, #20]
 1291 000a 0D46     		mov	r5, r1
 1292              		.loc 1 169 0
 1293 000c 0FC8     		ldm	r0, {r0, r1, r2, r3}
 1294              	.LVL109:
 1295 000e FFF7FEFF 		bl	mod_motors_convertRobotSpeedToWheelspeed
 1296              	.LVL110:
 1297              		.loc 1 170 0
 1298 0012 2946     		mov	r1, r5
 1299 0014 6846     		mov	r0, sp
 1300              		.loc 1 169 0
 1301 0016 8DED000B 		vstr.64	d0, [sp]
 1302 001a 8DED021B 		vstr.64	d1, [sp, #8]
 1303              		.loc 1 170 0
 1304 001e FFF7FEFF 		bl	moveAndComputePositionWheelSpeedType
 1305              	.LVL111:
 1306              		.loc 1 171 0
 1307 0022 059A     		ldr	r2, [sp, #20]
 1308 0024 2368     		ldr	r3, [r4]
 1309 0026 9A42     		cmp	r2, r3
 1310 0028 01D1     		bne	.L74
 1311 002a 07B0     		add	sp, sp, #28
ARM GAS  /var/folders/qd/4mxf5pkd0zdf0b9dd1hp39180000gn/T//cc0H01tt.s 			page 24


 1312              		.cfi_remember_state
 1313              		.cfi_def_cfa_offset 12
 1314              		@ sp needed
 1315 002c 30BD     		pop	{r4, r5, pc}
 1316              	.LVL112:
 1317              	.L74:
 1318              		.cfi_restore_state
 1319 002e FFF7FEFF 		bl	__stack_chk_fail
 1320              	.LVL113:
 1321              	.L76:
 1322 0032 00BF     		.align	2
 1323              	.L75:
 1324 0034 00000000 		.word	__stack_chk_guard
 1325              		.cfi_endproc
 1326              	.LFE266:
 1327              		.size	moveAndComputePositionRobotSpeedType, .-moveAndComputePositionRobotSpeedType
 1328              		.section	.text.moveWheelSpeedType,"ax",%progbits
 1329              		.align	1
 1330              		.p2align 4,,15
 1331              		.global	moveWheelSpeedType
 1332              		.syntax unified
 1333              		.thumb
 1334              		.thumb_func
 1335              		.fpu fpv4-sp-d16
 1336              		.type	moveWheelSpeedType, %function
 1337              	moveWheelSpeedType:
 1338              	.LFB268:
 1339              		.loc 1 182 0
 1340              		.cfi_startproc
 1341              		@ args = 0, pretend = 0, frame = 8
 1342              		@ frame_needed = 0, uses_anonymous_args = 0
 1343              	.LVL114:
 1344 0000 F0B5     		push	{r4, r5, r6, r7, lr}
 1345              		.cfi_def_cfa_offset 20
 1346              		.cfi_offset 4, -20
 1347              		.cfi_offset 5, -16
 1348              		.cfi_offset 6, -12
 1349              		.cfi_offset 7, -8
 1350              		.cfi_offset 14, -4
 1351 0002 204D     		ldr	r5, .L84
 1352 0004 83B0     		sub	sp, sp, #12
 1353              		.cfi_def_cfa_offset 32
 1354              		.loc 1 182 0
 1355 0006 2B68     		ldr	r3, [r5]
 1356 0008 0193     		str	r3, [sp, #4]
 1357              		.loc 1 183 0
 1358 000a 90ED000B 		vldr.64	d0, [r0]
 1359 000e 90ED021B 		vldr.64	d1, [r0, #8]
 1360              		.loc 1 182 0
 1361 0012 0F46     		mov	r7, r1
 1362              		.loc 1 183 0
 1363 0014 FFF7FEFF 		bl	mod_motors_changeStateWheelSpeedType
 1364              	.LVL115:
 1365              	.LBB405:
 1366              	.LBB406:
 1367              	.LBB407:
 1368              	.LBB408:
ARM GAS  /var/folders/qd/4mxf5pkd0zdf0b9dd1hp39180000gn/T//cc0H01tt.s 			page 25


 1369              	.LBB409:
 1370              	.LBB410:
 1371              	.LBB411:
 1372              		.loc 2 546 0
 1373 0018 2023     		movs	r3, #32
 1374              		.syntax unified
 1375              	@ 546 "lib/e-puck2_main-processor/ChibiOS//os/ext/CMSIS/include/core_cmFunc.h" 1
 1376 001a 83F31188 		MSR basepri, r3
 1377              	@ 0 "" 2
 1378              	.LVL116:
 1379              		.thumb
 1380              		.syntax unified
 1381              	.LBE411:
 1382              	.LBE410:
 1383              	.LBE409:
 1384              	.LBE408:
 1385              	.LBE407:
 1386              	.LBB413:
 1387              	.LBB414:
 1388              		.loc 4 231 0
 1389 001e 1A4C     		ldr	r4, .L84+4
 1390              	.LBE414:
 1391              	.LBE413:
 1392              	.LBB416:
 1393              	.LBB412:
 1394              		.loc 3 349 0
 1395 0020 FFF7FEFF 		bl	_stats_start_measure_crit_thd
 1396              	.LVL117:
 1397              		.loc 3 350 0
 1398 0024 FFF7FEFF 		bl	_dbg_check_lock
 1399              	.LVL118:
 1400              	.LBE412:
 1401              	.LBE416:
 1402              	.LBB417:
 1403              	.LBB415:
 1404              		.loc 4 231 0
 1405 0028 A66A     		ldr	r6, [r4, #40]
 1406              	.LBE415:
 1407              	.LBE417:
 1408              	.LBB418:
 1409              	.LBB419:
 1410              		.loc 3 360 0
 1411 002a FFF7FEFF 		bl	_dbg_check_unlock
 1412              	.LVL119:
 1413              		.loc 3 361 0
 1414 002e FFF7FEFF 		bl	_stats_stop_measure_crit_thd
 1415              	.LVL120:
 1416              		.loc 3 367 0
 1417 0032 2368     		ldr	r3, [r4]
 1418 0034 A342     		cmp	r3, r4
 1419 0036 04D0     		beq	.L78
 1420 0038 A269     		ldr	r2, [r4, #24]
 1421 003a 9B68     		ldr	r3, [r3, #8]
 1422 003c 9268     		ldr	r2, [r2, #8]
 1423 003e 9A42     		cmp	r2, r3
 1424 0040 19D3     		bcc	.L82
 1425              	.L78:
ARM GAS  /var/folders/qd/4mxf5pkd0zdf0b9dd1hp39180000gn/T//cc0H01tt.s 			page 26


 1426              	.LVL121:
 1427              	.LBB420:
 1428              	.LBB421:
 1429              	.LBB422:
 1430              		.loc 2 546 0
 1431 0042 0023     		movs	r3, #0
 1432              		.syntax unified
 1433              	@ 546 "lib/e-puck2_main-processor/ChibiOS//os/ext/CMSIS/include/core_cmFunc.h" 1
 1434 0044 83F31188 		MSR basepri, r3
 1435              	@ 0 "" 2
 1436              	.LVL122:
 1437              		.thumb
 1438              		.syntax unified
 1439              	.LBE422:
 1440              	.LBE421:
 1441              	.LBE420:
 1442              	.LBE419:
 1443              	.LBE418:
 1444              	.LBE406:
 1445              	.LBE405:
 1446              		.loc 1 185 0
 1447 0048 4FF47A71 		mov	r1, #1000
 1448 004c 0F4B     		ldr	r3, .L84+8
 1449 004e 01FB07F1 		mul	r1, r1, r7
 1450 0052 01F2E731 		addw	r1, r1, #999
 1451 0056 A3FB0131 		umull	r3, r1, r3, r1
 1452 005a 06EB9111 		add	r1, r6, r1, lsr #6
 1453 005e 3046     		mov	r0, r6
 1454 0060 FFF7FEFF 		bl	chThdSleepUntilWindowed
 1455              	.LVL123:
 1456              		.loc 1 186 0
 1457 0064 019A     		ldr	r2, [sp, #4]
 1458 0066 2B68     		ldr	r3, [r5]
 1459 0068 9A42     		cmp	r2, r3
 1460 006a 08D1     		bne	.L83
 1461              		.loc 1 187 0
 1462 006c 03B0     		add	sp, sp, #12
 1463              		.cfi_remember_state
 1464              		.cfi_def_cfa_offset 20
 1465              		@ sp needed
 1466 006e BDE8F040 		pop	{r4, r5, r6, r7, lr}
 1467              		.cfi_restore 14
 1468              		.cfi_restore 7
 1469              		.cfi_restore 6
 1470              		.cfi_restore 5
 1471              		.cfi_restore 4
 1472              		.cfi_def_cfa_offset 0
 1473              	.LVL124:
 1474              		.loc 1 186 0
 1475 0072 FFF7FEBF 		b	mod_motors_stop
 1476              	.LVL125:
 1477              	.L82:
 1478              		.cfi_restore_state
 1479              	.LBB426:
 1480              	.LBB425:
 1481              	.LBB424:
 1482              	.LBB423:
ARM GAS  /var/folders/qd/4mxf5pkd0zdf0b9dd1hp39180000gn/T//cc0H01tt.s 			page 27


 1483              		.loc 3 367 0
 1484 0076 0648     		ldr	r0, .L84+12
 1485 0078 FFF7FEFF 		bl	chSysHalt
 1486              	.LVL126:
 1487 007c E1E7     		b	.L78
 1488              	.L83:
 1489              	.LBE423:
 1490              	.LBE424:
 1491              	.LBE425:
 1492              	.LBE426:
 1493              		.loc 1 186 0
 1494 007e FFF7FEFF 		bl	__stack_chk_fail
 1495              	.LVL127:
 1496              	.L85:
 1497 0082 00BF     		.align	2
 1498              	.L84:
 1499 0084 00000000 		.word	__stack_chk_guard
 1500 0088 00000000 		.word	ch
 1501 008c D34D6210 		.word	274877907
 1502 0090 00000000 		.word	.LANCHOR1
 1503              		.cfi_endproc
 1504              	.LFE268:
 1505              		.size	moveWheelSpeedType, .-moveWheelSpeedType
 1506              		.section	.text.moveRobotSpeedType,"ax",%progbits
 1507              		.align	1
 1508              		.p2align 4,,15
 1509              		.global	moveRobotSpeedType
 1510              		.syntax unified
 1511              		.thumb
 1512              		.thumb_func
 1513              		.fpu fpv4-sp-d16
 1514              		.type	moveRobotSpeedType, %function
 1515              	moveRobotSpeedType:
 1516              	.LFB269:
 1517              		.loc 1 189 0
 1518              		.cfi_startproc
 1519              		@ args = 0, pretend = 0, frame = 24
 1520              		@ frame_needed = 0, uses_anonymous_args = 0
 1521              	.LVL128:
 1522 0000 30B5     		push	{r4, r5, lr}
 1523              		.cfi_def_cfa_offset 12
 1524              		.cfi_offset 4, -12
 1525              		.cfi_offset 5, -8
 1526              		.cfi_offset 14, -4
 1527 0002 0C4C     		ldr	r4, .L90
 1528 0004 87B0     		sub	sp, sp, #28
 1529              		.cfi_def_cfa_offset 40
 1530              		.loc 1 189 0
 1531 0006 2368     		ldr	r3, [r4]
 1532 0008 0593     		str	r3, [sp, #20]
 1533 000a 0D46     		mov	r5, r1
 1534              		.loc 1 190 0
 1535 000c 0FC8     		ldm	r0, {r0, r1, r2, r3}
 1536              	.LVL129:
 1537 000e FFF7FEFF 		bl	mod_motors_convertRobotSpeedToWheelspeed
 1538              	.LVL130:
 1539              		.loc 1 191 0
ARM GAS  /var/folders/qd/4mxf5pkd0zdf0b9dd1hp39180000gn/T//cc0H01tt.s 			page 28


 1540 0012 2946     		mov	r1, r5
 1541 0014 6846     		mov	r0, sp
 1542              		.loc 1 190 0
 1543 0016 8DED000B 		vstr.64	d0, [sp]
 1544 001a 8DED021B 		vstr.64	d1, [sp, #8]
 1545              		.loc 1 191 0
 1546 001e FFF7FEFF 		bl	moveWheelSpeedType
 1547              	.LVL131:
 1548              		.loc 1 192 0
 1549 0022 059A     		ldr	r2, [sp, #20]
 1550 0024 2368     		ldr	r3, [r4]
 1551 0026 9A42     		cmp	r2, r3
 1552 0028 01D1     		bne	.L89
 1553 002a 07B0     		add	sp, sp, #28
 1554              		.cfi_remember_state
 1555              		.cfi_def_cfa_offset 12
 1556              		@ sp needed
 1557 002c 30BD     		pop	{r4, r5, pc}
 1558              	.LVL132:
 1559              	.L89:
 1560              		.cfi_restore_state
 1561 002e FFF7FEFF 		bl	__stack_chk_fail
 1562              	.LVL133:
 1563              	.L91:
 1564 0032 00BF     		.align	2
 1565              	.L90:
 1566 0034 00000000 		.word	__stack_chk_guard
 1567              		.cfi_endproc
 1568              	.LFE269:
 1569              		.size	moveRobotSpeedType, .-moveRobotSpeedType
 1570              		.section	.text.storeFrontDistanceSensorValue,"ax",%progbits
 1571              		.align	1
 1572              		.p2align 4,,15
 1573              		.global	storeFrontDistanceSensorValue
 1574              		.syntax unified
 1575              		.thumb
 1576              		.thumb_func
 1577              		.fpu fpv4-sp-d16
 1578              		.type	storeFrontDistanceSensorValue, %function
 1579              	storeFrontDistanceSensorValue:
 1580              	.LFB270:
 1581              		.loc 1 195 0
 1582              		.cfi_startproc
 1583              		@ args = 0, pretend = 0, frame = 24
 1584              		@ frame_needed = 0, uses_anonymous_args = 0
 1585              	.LVL134:
 1586 0000 F0B5     		push	{r4, r5, r6, r7, lr}
 1587              		.cfi_def_cfa_offset 20
 1588              		.cfi_offset 4, -20
 1589              		.cfi_offset 5, -16
 1590              		.cfi_offset 6, -12
 1591              		.cfi_offset 7, -8
 1592              		.cfi_offset 14, -4
 1593 0002 0C4E     		ldr	r6, .L96
 1594 0004 87B0     		sub	sp, sp, #28
 1595              		.cfi_def_cfa_offset 48
 1596              		.loc 1 195 0
ARM GAS  /var/folders/qd/4mxf5pkd0zdf0b9dd1hp39180000gn/T//cc0H01tt.s 			page 29


 1597 0006 3368     		ldr	r3, [r6]
 1598 0008 0593     		str	r3, [sp, #20]
 1599 000a 0446     		mov	r4, r0
 1600              		.loc 1 196 0
 1601 000c FFF7FEFF 		bl	mod_sensors_getValueTOF
 1602              	.LVL135:
 1603              		.loc 1 197 0
 1604 0010 6D46     		mov	r5, sp
 1605              		.loc 1 196 0
 1606 0012 0746     		mov	r7, r0
 1607              	.LVL136:
 1608              		.loc 1 197 0
 1609 0014 2846     		mov	r0, r5
 1610              	.LVL137:
 1611 0016 FFF7FEFF 		bl	mod_mapping_getActualPosition
 1612              	.LVL138:
 1613 001a 95E80F00 		ldm	r5, {r0, r1, r2, r3}
 1614 001e 84E80F00 		stm	r4, {r0, r1, r2, r3}
 1615              		.loc 1 198 0
 1616 0022 059A     		ldr	r2, [sp, #20]
 1617 0024 3368     		ldr	r3, [r6]
 1618              		.loc 1 197 0
 1619 0026 2761     		str	r7, [r4, #16]
 1620              		.loc 1 198 0
 1621 0028 9A42     		cmp	r2, r3
 1622 002a 01D1     		bne	.L95
 1623 002c 07B0     		add	sp, sp, #28
 1624              		.cfi_remember_state
 1625              		.cfi_def_cfa_offset 20
 1626              		@ sp needed
 1627 002e F0BD     		pop	{r4, r5, r6, r7, pc}
 1628              	.LVL139:
 1629              	.L95:
 1630              		.cfi_restore_state
 1631 0030 FFF7FEFF 		bl	__stack_chk_fail
 1632              	.LVL140:
 1633              	.L97:
 1634              		.align	2
 1635              	.L96:
 1636 0034 00000000 		.word	__stack_chk_guard
 1637              		.cfi_endproc
 1638              	.LFE270:
 1639              		.size	storeFrontDistanceSensorValue, .-storeFrontDistanceSensorValue
 1640              		.section	.text.rotateAndMeasureWallsDistance,"ax",%progbits
 1641              		.align	1
 1642              		.p2align 4,,15
 1643              		.global	rotateAndMeasureWallsDistance
 1644              		.syntax unified
 1645              		.thumb
 1646              		.thumb_func
 1647              		.fpu fpv4-sp-d16
 1648              		.type	rotateAndMeasureWallsDistance, %function
 1649              	rotateAndMeasureWallsDistance:
 1650              	.LFB271:
 1651              		.loc 1 202 0
 1652              		.cfi_startproc
 1653              		@ args = 0, pretend = 0, frame = 24
ARM GAS  /var/folders/qd/4mxf5pkd0zdf0b9dd1hp39180000gn/T//cc0H01tt.s 			page 30


 1654              		@ frame_needed = 0, uses_anonymous_args = 0
 1655              	.LVL141:
 1656 0000 2DE9F043 		push	{r4, r5, r6, r7, r8, r9, lr}
 1657              		.cfi_def_cfa_offset 28
 1658              		.cfi_offset 4, -28
 1659              		.cfi_offset 5, -24
 1660              		.cfi_offset 6, -20
 1661              		.cfi_offset 7, -16
 1662              		.cfi_offset 8, -12
 1663              		.cfi_offset 9, -8
 1664              		.cfi_offset 14, -4
 1665 0004 1A4F     		ldr	r7, .L105+8
 1666 0006 87B0     		sub	sp, sp, #28
 1667              		.cfi_def_cfa_offset 56
 1668              		.loc 1 203 0
 1669 0008 0446     		mov	r4, r0
 1670 000a 0030     		adds	r0, r0, #0
 1671              	.LVL142:
 1672              		.loc 1 202 0
 1673 000c 0D46     		mov	r5, r1
 1674 000e 3B68     		ldr	r3, [r7]
 1675 0010 0593     		str	r3, [sp, #20]
 1676              		.loc 1 203 0
 1677 0012 18BF     		it	ne
 1678 0014 0120     		movne	r0, #1
 1679 0016 FFF7FEFF 		bl	assert
 1680              	.LVL143:
 1681              		.loc 1 205 0
 1682 001a 002D     		cmp	r5, #0
 1683 001c 19DD     		ble	.L98
 1684              	.LBB427:
 1685              	.LBB428:
 1686              		.loc 1 227 0
 1687 001e 0FF24809 		adr	r9, .L105
 1688 0022 D9E90089 		ldrd	r8, [r9]
 1689 0026 05EB4505 		add	r5, r5, r5, lsl #1
 1690              	.LVL144:
 1691 002a 04EBC505 		add	r5, r4, r5, lsl #3
 1692 002e 0026     		movs	r6, #0
 1693              	.LVL145:
 1694              	.L100:
 1695              	.LBE428:
 1696              	.LBE427:
 1697              		.loc 1 206 0 discriminator 3
 1698 0030 C820     		movs	r0, #200
 1699 0032 FFF7FEFF 		bl	chThdSleep
 1700              	.LVL146:
 1701              		.loc 1 207 0 discriminator 3
 1702 0036 2046     		mov	r0, r4
 1703 0038 FFF7FEFF 		bl	storeFrontDistanceSensorValue
 1704              	.LVL147:
 1705 003c 1834     		adds	r4, r4, #24
 1706              	.LBB430:
 1707              	.LBB429:
 1708              		.loc 1 227 0 discriminator 3
 1709 003e 40F2BD21 		movw	r1, #701
 1710 0042 6846     		mov	r0, sp
ARM GAS  /var/folders/qd/4mxf5pkd0zdf0b9dd1hp39180000gn/T//cc0H01tt.s 			page 31


 1711 0044 0096     		str	r6, [sp]
 1712 0046 CDE90289 		strd	r8, [sp, #8]
 1713 004a FFF7FEFF 		bl	moveAndComputePositionRobotSpeedType
 1714              	.LVL148:
 1715              	.LBE429:
 1716              	.LBE430:
 1717              		.loc 1 205 0 discriminator 3
 1718 004e AC42     		cmp	r4, r5
 1719 0050 EED1     		bne	.L100
 1720              	.L98:
 1721              		.loc 1 210 0
 1722 0052 059A     		ldr	r2, [sp, #20]
 1723 0054 3B68     		ldr	r3, [r7]
 1724 0056 9A42     		cmp	r2, r3
 1725 0058 02D1     		bne	.L104
 1726 005a 07B0     		add	sp, sp, #28
 1727              		.cfi_remember_state
 1728              		.cfi_def_cfa_offset 28
 1729              		@ sp needed
 1730 005c BDE8F083 		pop	{r4, r5, r6, r7, r8, r9, pc}
 1731              	.L104:
 1732              		.cfi_restore_state
 1733 0060 FFF7FEFF 		bl	__stack_chk_fail
 1734              	.LVL149:
 1735              	.L106:
 1736 0064 AFF30080 		.align	3
 1737              	.L105:
 1738 0068 00000020 		.word	536870912
 1739 006c 85EBD13F 		.word	1070721925
 1740 0070 00000000 		.word	__stack_chk_guard
 1741              		.cfi_endproc
 1742              	.LFE271:
 1743              		.size	rotateAndMeasureWallsDistance, .-rotateAndMeasureWallsDistance
 1744              		.section	.text.discover,"ax",%progbits
 1745              		.align	1
 1746              		.p2align 4,,15
 1747              		.syntax unified
 1748              		.thumb
 1749              		.thumb_func
 1750              		.fpu fpv4-sp-d16
 1751              		.type	discover, %function
 1752              	discover:
 1753              	.LFB277:
 1754              		.loc 1 255 0
 1755              		.cfi_startproc
 1756              		@ args = 0, pretend = 0, frame = 24
 1757              		@ frame_needed = 0, uses_anonymous_args = 0
 1758              	.LVL150:
 1759 0000 F0B5     		push	{r4, r5, r6, r7, lr}
 1760              		.cfi_def_cfa_offset 20
 1761              		.cfi_offset 4, -20
 1762              		.cfi_offset 5, -16
 1763              		.cfi_offset 6, -12
 1764              		.cfi_offset 7, -8
 1765              		.cfi_offset 14, -4
 1766 0002 2F4D     		ldr	r5, .L115+8
 1767 0004 87B0     		sub	sp, sp, #28
ARM GAS  /var/folders/qd/4mxf5pkd0zdf0b9dd1hp39180000gn/T//cc0H01tt.s 			page 32


 1768              		.cfi_def_cfa_offset 48
 1769              	.LBB449:
 1770              	.LBB450:
 1771              		.loc 1 227 0
 1772 0006 2CA7     		adr	r7, .L115
 1773 0008 D7E90067 		ldrd	r6, [r7]
 1774              	.LBE450:
 1775              	.LBE449:
 1776              		.loc 1 255 0
 1777 000c 2B68     		ldr	r3, [r5]
 1778 000e 0593     		str	r3, [sp, #20]
 1779              	.LVL151:
 1780              	.LBB452:
 1781              	.LBB451:
 1782              		.loc 1 227 0
 1783 0010 45F2A771 		movw	r1, #22439
 1784 0014 0023     		movs	r3, #0
 1785 0016 6846     		mov	r0, sp
 1786              	.LVL152:
 1787 0018 0093     		str	r3, [sp]
 1788 001a CDE90267 		strd	r6, [sp, #8]
 1789 001e FFF7FEFF 		bl	moveAndComputePositionRobotSpeedType
 1790              	.LVL153:
 1791              	.LBE451:
 1792              	.LBE452:
 1793              		.loc 1 259 0
 1794 0022 4FF4FA60 		mov	r0, #2000
 1795 0026 FFF7FEFF 		bl	chThdSleep
 1796              	.LVL154:
 1797              		.loc 1 260 0
 1798 002a FFF7FEFF 		bl	mod_mapping_resetCoordinates
 1799              	.LVL155:
 1800              		.loc 1 262 0
 1801 002e 4FF44070 		mov	r0, #768
 1802 0032 FFF7FEFF 		bl	malloc
 1803              	.LVL156:
 1804              		.loc 1 263 0
 1805 0036 0446     		mov	r4, r0
 1806 0038 0030     		adds	r0, r0, #0
 1807              	.LVL157:
 1808 003a 18BF     		it	ne
 1809 003c 0120     		movne	r0, #1
 1810 003e FFF7FEFF 		bl	assert
 1811              	.LVL158:
 1812              		.loc 1 264 0
 1813 0042 2046     		mov	r0, r4
 1814 0044 2021     		movs	r1, #32
 1815 0046 FFF7FEFF 		bl	rotateAndMeasureWallsDistance
 1816              	.LVL159:
 1817              		.loc 1 265 0
 1818 004a 0221     		movs	r1, #2
 1819 004c 2046     		mov	r0, r4
 1820 004e FFF7FEFF 		bl	mod_mapping_computeWallLocation
 1821              	.LVL160:
 1822              		.loc 1 266 0
 1823 0052 2046     		mov	r0, r4
 1824 0054 FFF7FEFF 		bl	free
ARM GAS  /var/folders/qd/4mxf5pkd0zdf0b9dd1hp39180000gn/T//cc0H01tt.s 			page 33


 1825              	.LVL161:
 1826              	.LBB453:
 1827              	.LBB454:
 1828              	.LBB455:
 1829              	.LBB456:
 1830              	.LBB457:
 1831              	.LBB458:
 1832              	.LBB459:
 1833              	.LBB460:
 1834              		.loc 2 546 0
 1835 0058 2023     		movs	r3, #32
 1836              		.syntax unified
 1837              	@ 546 "lib/e-puck2_main-processor/ChibiOS//os/ext/CMSIS/include/core_cmFunc.h" 1
 1838 005a 83F31188 		MSR basepri, r3
 1839              	@ 0 "" 2
 1840              	.LVL162:
 1841              		.thumb
 1842              		.syntax unified
 1843              	.LBE460:
 1844              	.LBE459:
 1845              	.LBE458:
 1846              		.loc 3 349 0
 1847 005e FFF7FEFF 		bl	_stats_start_measure_crit_thd
 1848              	.LVL163:
 1849              		.loc 3 350 0
 1850 0062 FFF7FEFF 		bl	_dbg_check_lock
 1851              	.LVL164:
 1852              	.LBE457:
 1853              	.LBE456:
 1854              	.LBB461:
 1855              	.LBB462:
 1856              		.loc 5 268 0
 1857 0066 FFF7FEFF 		bl	chDbgCheckClassI
 1858              	.LVL165:
 1859              		.loc 5 270 0
 1860 006a 1648     		ldr	r0, .L115+12
 1861 006c 8368     		ldr	r3, [r0, #8]
 1862 006e 002B     		cmp	r3, #0
 1863 0070 1BDD     		ble	.L112
 1864              	.L108:
 1865              	.LVL166:
 1866              	.LBE462:
 1867              	.LBE461:
 1868              		.loc 5 286 0
 1869 0072 FFF7FEFF 		bl	chSchRescheduleS
 1870              	.LVL167:
 1871              	.LBB464:
 1872              	.LBB465:
 1873              		.loc 3 360 0
 1874 0076 FFF7FEFF 		bl	_dbg_check_unlock
 1875              	.LVL168:
 1876              		.loc 3 361 0
 1877 007a FFF7FEFF 		bl	_stats_stop_measure_crit_thd
 1878              	.LVL169:
 1879              		.loc 3 367 0
 1880 007e 124B     		ldr	r3, .L115+16
 1881 0080 1A68     		ldr	r2, [r3]
ARM GAS  /var/folders/qd/4mxf5pkd0zdf0b9dd1hp39180000gn/T//cc0H01tt.s 			page 34


 1882 0082 9A42     		cmp	r2, r3
 1883 0084 04D0     		beq	.L109
 1884 0086 9969     		ldr	r1, [r3, #24]
 1885 0088 9368     		ldr	r3, [r2, #8]
 1886 008a 8A68     		ldr	r2, [r1, #8]
 1887 008c 9A42     		cmp	r2, r3
 1888 008e 08D3     		bcc	.L113
 1889              	.L109:
 1890              	.LVL170:
 1891              	.LBB466:
 1892              	.LBB467:
 1893              	.LBB468:
 1894              		.loc 2 546 0
 1895 0090 0023     		movs	r3, #0
 1896              		.syntax unified
 1897              	@ 546 "lib/e-puck2_main-processor/ChibiOS//os/ext/CMSIS/include/core_cmFunc.h" 1
 1898 0092 83F31188 		MSR basepri, r3
 1899              	@ 0 "" 2
 1900              	.LVL171:
 1901              		.thumb
 1902              		.syntax unified
 1903              	.LBE468:
 1904              	.LBE467:
 1905              	.LBE466:
 1906              	.LBE465:
 1907              	.LBE464:
 1908              	.LBE455:
 1909              	.LBE454:
 1910              	.LBE453:
 1911              		.loc 1 270 0
 1912 0096 059A     		ldr	r2, [sp, #20]
 1913 0098 2B68     		ldr	r3, [r5]
 1914 009a 9A42     		cmp	r2, r3
 1915 009c 08D1     		bne	.L114
 1916 009e 07B0     		add	sp, sp, #28
 1917              		.cfi_remember_state
 1918              		.cfi_def_cfa_offset 20
 1919              		@ sp needed
 1920 00a0 F0BD     		pop	{r4, r5, r6, r7, pc}
 1921              	.LVL172:
 1922              	.L113:
 1923              		.cfi_restore_state
 1924              	.LBB474:
 1925              	.LBB473:
 1926              	.LBB472:
 1927              	.LBB470:
 1928              	.LBB469:
 1929              		.loc 3 367 0
 1930 00a2 0A48     		ldr	r0, .L115+20
 1931 00a4 FFF7FEFF 		bl	chSysHalt
 1932              	.LVL173:
 1933 00a8 F2E7     		b	.L109
 1934              	.LVL174:
 1935              	.L112:
 1936              	.LBE469:
 1937              	.LBE470:
 1938              	.LBB471:
ARM GAS  /var/folders/qd/4mxf5pkd0zdf0b9dd1hp39180000gn/T//cc0H01tt.s 			page 35


 1939              	.LBB463:
 1940              		.loc 5 271 0
 1941 00aa FFF7FEFF 		bl	chSemSignalI
 1942              	.LVL175:
 1943 00ae E0E7     		b	.L108
 1944              	.LVL176:
 1945              	.L114:
 1946              	.LBE463:
 1947              	.LBE471:
 1948              	.LBE472:
 1949              	.LBE473:
 1950              	.LBE474:
 1951              		.loc 1 270 0
 1952 00b0 FFF7FEFF 		bl	__stack_chk_fail
 1953              	.LVL177:
 1954              	.L116:
 1955 00b4 AFF30080 		.align	3
 1956              	.L115:
 1957 00b8 00000020 		.word	536870912
 1958 00bc 85EBD13F 		.word	1070721925
 1959 00c0 00000000 		.word	__stack_chk_guard
 1960 00c4 00000000 		.word	.LANCHOR5
 1961 00c8 00000000 		.word	ch
 1962 00cc 00000000 		.word	.LANCHOR1
 1963              		.cfi_endproc
 1964              	.LFE277:
 1965              		.size	discover, .-discover
 1966              		.global	__aeabi_dcmplt
 1967              		.global	__aeabi_dmul
 1968              		.global	__aeabi_ddiv
 1969              		.global	__aeabi_d2iz
 1970              		.section	.text.moveInDirection,"ax",%progbits
 1971              		.align	1
 1972              		.p2align 4,,15
 1973              		.global	moveInDirection
 1974              		.syntax unified
 1975              		.thumb
 1976              		.thumb_func
 1977              		.fpu fpv4-sp-d16
 1978              		.type	moveInDirection, %function
 1979              	moveInDirection:
 1980              	.LFB272:
 1981              		.loc 1 212 0
 1982              		.cfi_startproc
 1983              		@ args = 0, pretend = 0, frame = 88
 1984              		@ frame_needed = 0, uses_anonymous_args = 0
 1985              	.LVL178:
 1986 0000 2DE9F043 		push	{r4, r5, r6, r7, r8, r9, lr}
 1987              		.cfi_def_cfa_offset 28
 1988              		.cfi_offset 4, -28
 1989              		.cfi_offset 5, -24
 1990              		.cfi_offset 6, -20
 1991              		.cfi_offset 7, -16
 1992              		.cfi_offset 8, -12
 1993              		.cfi_offset 9, -8
 1994              		.cfi_offset 14, -4
 1995 0004 344D     		ldr	r5, .L123+16
ARM GAS  /var/folders/qd/4mxf5pkd0zdf0b9dd1hp39180000gn/T//cc0H01tt.s 			page 36


 1996 0006 97B0     		sub	sp, sp, #92
 1997              		.cfi_def_cfa_offset 120
 1998              		.loc 1 212 0
 1999 0008 2B68     		ldr	r3, [r5]
 2000 000a 1593     		str	r3, [sp, #84]
 2001              		.loc 1 213 0
 2002 000c FFF7FEFF 		bl	mod_mapping_getAngleForTranslation
 2003              	.LVL179:
 2004 0010 57EC106B 		vmov	r6, r7, d0
 2005              	.LVL180:
 2006              		.loc 1 214 0
 2007 0014 0024     		movs	r4, #0
 2008 0016 10EE100A 		vmov	r0, s0	@ int
 2009 001a 3946     		mov	r1, r7
 2010 001c 0022     		movs	r2, #0
 2011 001e 0023     		movs	r3, #0
 2012 0020 0094     		str	r4, [sp]
 2013 0022 FFF7FEFF 		bl	__aeabi_dcmplt
 2014              	.LVL181:
 2015 0026 0028     		cmp	r0, #0
 2016 0028 46D1     		bne	.L120
 2017 002a 0FF29C09 		adr	r9, .L123
 2018 002e D9E90089 		ldrd	r8, [r9]
 2019              	.L118:
 2020              		.loc 1 214 0 is_stmt 0 discriminator 4
 2021 0032 3046     		mov	r0, r6
 2022 0034 27F00041 		bic	r1, r7, #-2147483648
 2023 0038 0022     		movs	r2, #0
 2024 003a 284B     		ldr	r3, .L123+20
 2025 003c CDE90289 		strd	r8, [sp, #8]
 2026 0040 FFF7FEFF 		bl	__aeabi_dmul
 2027              	.LVL182:
 2028 0044 20A3     		adr	r3, .L123
 2029 0046 D3E90023 		ldrd	r2, [r3]
 2030 004a FFF7FEFF 		bl	__aeabi_ddiv
 2031              	.LVL183:
 2032 004e FFF7FEFF 		bl	__aeabi_d2iz
 2033              	.LVL184:
 2034              		.loc 1 215 0 is_stmt 1 discriminator 4
 2035 0052 0026     		movs	r6, #0
 2036              	.LVL185:
 2037 0054 0027     		movs	r7, #0
 2038              		.loc 1 214 0 discriminator 4
 2039 0056 0146     		mov	r1, r0
 2040 0058 6846     		mov	r0, sp
 2041 005a FFF7FEFF 		bl	moveAndComputePositionRobotSpeedType
 2042              	.LVL186:
 2043              		.loc 1 215 0 discriminator 4
 2044 005e CDE90667 		strd	r6, [sp, #24]
 2045 0062 2823     		movs	r3, #40
 2046 0064 0493     		str	r3, [sp, #16]
 2047 0066 04AB     		add	r3, sp, #16
 2048 0068 0FCB     		ldm	r3, {r0, r1, r2, r3}
 2049 006a FFF7FEFF 		bl	mod_motors_convertRobotSpeedToWheelspeed
 2050              	.LVL187:
 2051 006e 8DED080B 		vstr.64	d0, [sp, #32]
 2052 0072 8DED0A1B 		vstr.64	d1, [sp, #40]
ARM GAS  /var/folders/qd/4mxf5pkd0zdf0b9dd1hp39180000gn/T//cc0H01tt.s 			page 37


 2053 0076 08AB     		add	r3, sp, #32
 2054 0078 0FCB     		ldm	r3, {r0, r1, r2, r3}
 2055              	.LBB475:
 2056              	.LBB476:
 2057              		.loc 1 152 0 discriminator 4
 2058 007a DFF86880 		ldr	r8, .L123+28
 2059 007e 10AC     		add	r4, sp, #64
 2060 0080 84E80F00 		stm	r4, {r0, r1, r2, r3}
 2061 0084 2146     		mov	r1, r4
 2062 0086 D8F80000 		ldr	r0, [r8]
 2063 008a FFF7FEFF 		bl	chMsgSend
 2064              	.LVL188:
 2065              	.LBE476:
 2066              	.LBE475:
 2067              		.loc 1 216 0 discriminator 4
 2068 008e FFF7FEFF 		bl	mod_sensors_waitForObstacle
 2069              	.LVL189:
 2070              		.loc 1 217 0 discriminator 4
 2071 0092 134B     		ldr	r3, .L123+24
 2072              	.LBB477:
 2073              	.LBB478:
 2074              	.LBB479:
 2075              		.loc 1 152 0 discriminator 4
 2076 0094 D8F80000 		ldr	r0, [r8]
 2077              	.LBE479:
 2078              	.LBE478:
 2079              	.LBE477:
 2080              		.loc 1 217 0 discriminator 4
 2081 0098 0022     		movs	r2, #0
 2082              	.LBB484:
 2083              	.LBB482:
 2084              	.LBB480:
 2085              		.loc 1 152 0 discriminator 4
 2086 009a 0CA9     		add	r1, sp, #48
 2087              	.LBE480:
 2088              	.LBE482:
 2089              	.LBE484:
 2090              		.loc 1 217 0 discriminator 4
 2091 009c 1A70     		strb	r2, [r3]
 2092 009e CDE90C67 		strd	r6, [sp, #48]
 2093 00a2 CDE90E67 		strd	r6, [sp, #56]
 2094              	.LBB485:
 2095              	.LBB483:
 2096              	.LBB481:
 2097              		.loc 1 152 0 discriminator 4
 2098 00a6 FFF7FEFF 		bl	chMsgSend
 2099              	.LVL190:
 2100              	.LBE481:
 2101              	.LBE483:
 2102              	.LBE485:
 2103              		.loc 1 219 0 discriminator 4
 2104 00aa 159A     		ldr	r2, [sp, #84]
 2105 00ac 2B68     		ldr	r3, [r5]
 2106 00ae 9A42     		cmp	r2, r3
 2107 00b0 07D1     		bne	.L122
 2108              		.loc 1 219 0 is_stmt 0
 2109 00b2 17B0     		add	sp, sp, #92
ARM GAS  /var/folders/qd/4mxf5pkd0zdf0b9dd1hp39180000gn/T//cc0H01tt.s 			page 38


 2110              		.cfi_remember_state
 2111              		.cfi_def_cfa_offset 28
 2112              		@ sp needed
 2113 00b4 BDE8F083 		pop	{r4, r5, r6, r7, r8, r9, pc}
 2114              	.LVL191:
 2115              	.L120:
 2116              		.cfi_restore_state
 2117              		.loc 1 214 0 is_stmt 1
 2118 00b8 0FF21409 		adr	r9, .L123+8
 2119 00bc D9E90089 		ldrd	r8, [r9]
 2120 00c0 B7E7     		b	.L118
 2121              	.LVL192:
 2122              	.L122:
 2123              		.loc 1 219 0
 2124 00c2 FFF7FEFF 		bl	__stack_chk_fail
 2125              	.LVL193:
 2126              	.L124:
 2127 00c6 00BF     		.align	3
 2128              	.L123:
 2129 00c8 00000020 		.word	536870912
 2130 00cc 85EBD13F 		.word	1070721925
 2131 00d0 00000020 		.word	536870912
 2132 00d4 85EBD1BF 		.word	-1076761723
 2133 00d8 00000000 		.word	__stack_chk_guard
 2134 00dc 00408F40 		.word	1083129856
 2135 00e0 00000000 		.word	mod_sensors_need_objectDetection
 2136 00e4 00000000 		.word	.LANCHOR6
 2137              		.cfi_endproc
 2138              	.LFE272:
 2139              		.size	moveInDirection, .-moveInDirection
 2140              		.section	.text.changeAngleRelative,"ax",%progbits
 2141              		.align	1
 2142              		.p2align 4,,15
 2143              		.global	changeAngleRelative
 2144              		.syntax unified
 2145              		.thumb
 2146              		.thumb_func
 2147              		.fpu fpv4-sp-d16
 2148              		.type	changeAngleRelative, %function
 2149              	changeAngleRelative:
 2150              	.LFB274:
 2151              		.loc 1 226 0
 2152              		.cfi_startproc
 2153              		@ args = 0, pretend = 0, frame = 24
 2154              		@ frame_needed = 0, uses_anonymous_args = 0
 2155              	.LVL194:
 2156 0000 F0B5     		push	{r4, r5, r6, r7, lr}
 2157              		.cfi_def_cfa_offset 20
 2158              		.cfi_offset 4, -20
 2159              		.cfi_offset 5, -16
 2160              		.cfi_offset 6, -12
 2161              		.cfi_offset 7, -8
 2162              		.cfi_offset 14, -4
 2163 0002 1D4E     		ldr	r6, .L131+16
 2164 0004 87B0     		sub	sp, sp, #28
 2165              		.cfi_def_cfa_offset 48
 2166              		.loc 1 226 0
ARM GAS  /var/folders/qd/4mxf5pkd0zdf0b9dd1hp39180000gn/T//cc0H01tt.s 			page 39


 2167 0006 55EC104B 		vmov	r4, r5, d0
 2168 000a 3368     		ldr	r3, [r6]
 2169 000c 0593     		str	r3, [sp, #20]
 2170              		.loc 1 227 0
 2171 000e 0027     		movs	r7, #0
 2172 0010 10EE100A 		vmov	r0, s0	@ int
 2173 0014 2946     		mov	r1, r5
 2174 0016 0022     		movs	r2, #0
 2175 0018 0023     		movs	r3, #0
 2176 001a 0097     		str	r7, [sp]
 2177 001c FFF7FEFF 		bl	__aeabi_dcmplt
 2178              	.LVL195:
 2179 0020 E0B9     		cbnz	r0, .L128
 2180 0022 11A3     		adr	r3, .L131
 2181 0024 D3E90023 		ldrd	r2, [r3]
 2182              	.L126:
 2183              		.loc 1 227 0 is_stmt 0 discriminator 4
 2184 0028 CDE90223 		strd	r2, [sp, #8]
 2185 002c 2046     		mov	r0, r4
 2186 002e 0022     		movs	r2, #0
 2187 0030 124B     		ldr	r3, .L131+20
 2188 0032 25F00041 		bic	r1, r5, #-2147483648
 2189 0036 FFF7FEFF 		bl	__aeabi_dmul
 2190              	.LVL196:
 2191 003a 0BA3     		adr	r3, .L131
 2192 003c D3E90023 		ldrd	r2, [r3]
 2193 0040 FFF7FEFF 		bl	__aeabi_ddiv
 2194              	.LVL197:
 2195 0044 FFF7FEFF 		bl	__aeabi_d2iz
 2196              	.LVL198:
 2197 0048 0146     		mov	r1, r0
 2198 004a 6846     		mov	r0, sp
 2199 004c FFF7FEFF 		bl	moveAndComputePositionRobotSpeedType
 2200              	.LVL199:
 2201              		.loc 1 228 0 is_stmt 1 discriminator 4
 2202 0050 059A     		ldr	r2, [sp, #20]
 2203 0052 3368     		ldr	r3, [r6]
 2204 0054 9A42     		cmp	r2, r3
 2205 0056 05D1     		bne	.L130
 2206              		.loc 1 228 0 is_stmt 0
 2207 0058 07B0     		add	sp, sp, #28
 2208              		.cfi_remember_state
 2209              		.cfi_def_cfa_offset 20
 2210              		@ sp needed
 2211 005a F0BD     		pop	{r4, r5, r6, r7, pc}
 2212              	.LVL200:
 2213              	.L128:
 2214              		.cfi_restore_state
 2215              		.loc 1 227 0 is_stmt 1
 2216 005c 04A3     		adr	r3, .L131+8
 2217 005e D3E90023 		ldrd	r2, [r3]
 2218 0062 E1E7     		b	.L126
 2219              	.L130:
 2220              		.loc 1 228 0
 2221 0064 FFF7FEFF 		bl	__stack_chk_fail
 2222              	.LVL201:
 2223              	.L132:
ARM GAS  /var/folders/qd/4mxf5pkd0zdf0b9dd1hp39180000gn/T//cc0H01tt.s 			page 40


 2224              		.align	3
 2225              	.L131:
 2226 0068 00000020 		.word	536870912
 2227 006c 85EBD13F 		.word	1070721925
 2228 0070 00000020 		.word	536870912
 2229 0074 85EBD1BF 		.word	-1076761723
 2230 0078 00000000 		.word	__stack_chk_guard
 2231 007c 00408F40 		.word	1083129856
 2232              		.cfi_endproc
 2233              	.LFE274:
 2234              		.size	changeAngleRelative, .-changeAngleRelative
 2235              		.global	__aeabi_i2d
 2236              		.section	.text.moveAndComputePositionDistanceType,"ax",%progbits
 2237              		.align	1
 2238              		.p2align 4,,15
 2239              		.global	moveAndComputePositionDistanceType
 2240              		.syntax unified
 2241              		.thumb
 2242              		.thumb_func
 2243              		.fpu fpv4-sp-d16
 2244              		.type	moveAndComputePositionDistanceType, %function
 2245              	moveAndComputePositionDistanceType:
 2246              	.LFB267:
 2247              		.loc 1 173 0
 2248              		.cfi_startproc
 2249              		@ args = 0, pretend = 0, frame = 24
 2250              		@ frame_needed = 0, uses_anonymous_args = 0
 2251              	.LVL202:
 2252 0000 F0B5     		push	{r4, r5, r6, r7, lr}
 2253              		.cfi_def_cfa_offset 20
 2254              		.cfi_offset 4, -20
 2255              		.cfi_offset 5, -16
 2256              		.cfi_offset 6, -12
 2257              		.cfi_offset 7, -8
 2258              		.cfi_offset 14, -4
 2259 0002 1B4D     		ldr	r5, .L139
 2260 0004 87B0     		sub	sp, sp, #28
 2261              		.cfi_def_cfa_offset 48
 2262              		.loc 1 173 0
 2263 0006 0446     		mov	r4, r0
 2264              		.loc 1 175 0
 2265 0008 90ED020B 		vldr.64	d0, [r0, #8]
 2266              		.loc 1 173 0
 2267 000c 2B68     		ldr	r3, [r5]
 2268 000e 0593     		str	r3, [sp, #20]
 2269              		.loc 1 175 0
 2270 0010 FFF7FEFF 		bl	changeAngleRelative
 2271              	.LVL203:
 2272              		.loc 1 176 0
 2273 0014 2368     		ldr	r3, [r4]
 2274 0016 1748     		ldr	r0, .L139+4
 2275 0018 002B     		cmp	r3, #0
 2276 001a 80FB0320 		smull	r2, r0, r0, r3
 2277 001e 4FEAE373 		asr	r3, r3, #31
 2278 0022 B4BF     		ite	lt
 2279 0024 6FF02702 		mvnlt	r2, #39
 2280 0028 2822     		movge	r2, #40
ARM GAS  /var/folders/qd/4mxf5pkd0zdf0b9dd1hp39180000gn/T//cc0H01tt.s 			page 41


 2281 002a C3EB2010 		rsb	r0, r3, r0, asr #4
 2282 002e 0026     		movs	r6, #0
 2283 0030 0027     		movs	r7, #0
 2284 0032 0092     		str	r2, [sp]
 2285 0034 CDE90267 		strd	r6, [sp, #8]
 2286 0038 FFF7FEFF 		bl	__aeabi_i2d
 2287              	.LVL204:
 2288 003c 21F00043 		bic	r3, r1, #-2147483648
 2289 0040 0022     		movs	r2, #0
 2290 0042 1946     		mov	r1, r3
 2291 0044 0C4B     		ldr	r3, .L139+8
 2292 0046 FFF7FEFF 		bl	__aeabi_dmul
 2293              	.LVL205:
 2294 004a FFF7FEFF 		bl	__aeabi_d2iz
 2295              	.LVL206:
 2296 004e 0146     		mov	r1, r0
 2297 0050 6846     		mov	r0, sp
 2298 0052 FFF7FEFF 		bl	moveAndComputePositionRobotSpeedType
 2299              	.LVL207:
 2300              		.loc 1 177 0
 2301 0056 94ED040B 		vldr.64	d0, [r4, #16]
 2302 005a FFF7FEFF 		bl	changeAngleRelative
 2303              	.LVL208:
 2304              		.loc 1 178 0
 2305 005e 059A     		ldr	r2, [sp, #20]
 2306 0060 2B68     		ldr	r3, [r5]
 2307 0062 9A42     		cmp	r2, r3
 2308 0064 01D1     		bne	.L138
 2309 0066 07B0     		add	sp, sp, #28
 2310              		.cfi_remember_state
 2311              		.cfi_def_cfa_offset 20
 2312              		@ sp needed
 2313 0068 F0BD     		pop	{r4, r5, r6, r7, pc}
 2314              	.LVL209:
 2315              	.L138:
 2316              		.cfi_restore_state
 2317 006a FFF7FEFF 		bl	__stack_chk_fail
 2318              	.LVL210:
 2319              	.L140:
 2320 006e 00BF     		.align	2
 2321              	.L139:
 2322 0070 00000000 		.word	__stack_chk_guard
 2323 0074 67666666 		.word	1717986919
 2324 0078 00408F40 		.word	1083129856
 2325              		.cfi_endproc
 2326              	.LFE267:
 2327              		.size	moveAndComputePositionDistanceType, .-moveAndComputePositionDistanceType
 2328              		.section	.text.goTo,"ax",%progbits
 2329              		.align	1
 2330              		.p2align 4,,15
 2331              		.global	goTo
 2332              		.syntax unified
 2333              		.thumb
 2334              		.thumb_func
 2335              		.fpu fpv4-sp-d16
 2336              		.type	goTo, %function
 2337              	goTo:
ARM GAS  /var/folders/qd/4mxf5pkd0zdf0b9dd1hp39180000gn/T//cc0H01tt.s 			page 42


 2338              	.LFB273:
 2339              		.loc 1 221 0
 2340              		.cfi_startproc
 2341              		@ args = 0, pretend = 0, frame = 32
 2342              		@ frame_needed = 0, uses_anonymous_args = 0
 2343              	.LVL211:
 2344 0000 10B5     		push	{r4, lr}
 2345              		.cfi_def_cfa_offset 8
 2346              		.cfi_offset 4, -8
 2347              		.cfi_offset 14, -4
 2348 0002 094C     		ldr	r4, .L145
 2349 0004 88B0     		sub	sp, sp, #32
 2350              		.cfi_def_cfa_offset 40
 2351              		.loc 1 221 0
 2352 0006 2368     		ldr	r3, [r4]
 2353 0008 0793     		str	r3, [sp, #28]
 2354              		.loc 1 222 0
 2355 000a 0146     		mov	r1, r0
 2356 000c 6846     		mov	r0, sp
 2357              	.LVL212:
 2358 000e FFF7FEFF 		bl	mod_mapping_getRobotDisplacement
 2359              	.LVL213:
 2360              		.loc 1 223 0
 2361 0012 6846     		mov	r0, sp
 2362 0014 FFF7FEFF 		bl	moveAndComputePositionDistanceType
 2363              	.LVL214:
 2364              		.loc 1 224 0
 2365 0018 079A     		ldr	r2, [sp, #28]
 2366 001a 2368     		ldr	r3, [r4]
 2367 001c 9A42     		cmp	r2, r3
 2368 001e 01D1     		bne	.L144
 2369 0020 08B0     		add	sp, sp, #32
 2370              		.cfi_remember_state
 2371              		.cfi_def_cfa_offset 8
 2372              		@ sp needed
 2373 0022 10BD     		pop	{r4, pc}
 2374              	.L144:
 2375              		.cfi_restore_state
 2376 0024 FFF7FEFF 		bl	__stack_chk_fail
 2377              	.LVL215:
 2378              	.L146:
 2379              		.align	2
 2380              	.L145:
 2381 0028 00000000 		.word	__stack_chk_guard
 2382              		.cfi_endproc
 2383              	.LFE273:
 2384              		.size	goTo, .-goTo
 2385              		.section	.text.detectEnvironment,"ax",%progbits
 2386              		.align	1
 2387              		.p2align 4,,15
 2388              		.global	detectEnvironment
 2389              		.syntax unified
 2390              		.thumb
 2391              		.thumb_func
 2392              		.fpu fpv4-sp-d16
 2393              		.type	detectEnvironment, %function
 2394              	detectEnvironment:
ARM GAS  /var/folders/qd/4mxf5pkd0zdf0b9dd1hp39180000gn/T//cc0H01tt.s 			page 43


 2395              	.LFB275:
 2396              		.loc 1 233 0
 2397              		.cfi_startproc
 2398              		@ args = 0, pretend = 0, frame = 8
 2399              		@ frame_needed = 0, uses_anonymous_args = 0
 2400              	.LVL216:
 2401 0000 00B5     		push	{lr}
 2402              		.cfi_def_cfa_offset 4
 2403              		.cfi_offset 14, -4
 2404 0002 084B     		ldr	r3, .L152
 2405 0004 83B0     		sub	sp, sp, #12
 2406              		.cfi_def_cfa_offset 16
 2407              		.loc 1 233 0
 2408 0006 1A68     		ldr	r2, [r3]
 2409 0008 0192     		str	r2, [sp, #4]
 2410              		.loc 1 235 0
 2411 000a 019A     		ldr	r2, [sp, #4]
 2412 000c 1B68     		ldr	r3, [r3]
 2413 000e 9A42     		cmp	r2, r3
 2414 0010 05D1     		bne	.L151
 2415 0012 054A     		ldr	r2, .L152+4
 2416              		.loc 1 239 0
 2417 0014 03B0     		add	sp, sp, #12
 2418              		.cfi_remember_state
 2419              		.cfi_def_cfa_offset 4
 2420              		@ sp needed
 2421 0016 5DF804EB 		ldr	lr, [sp], #4
 2422              		.cfi_restore 14
 2423              		.cfi_def_cfa_offset 0
 2424              		.loc 1 235 0
 2425 001a FFF7FEBF 		b	mod_mapping_checkEnvironment
 2426              	.LVL217:
 2427              	.L151:
 2428              		.cfi_restore_state
 2429 001e FFF7FEFF 		bl	__stack_chk_fail
 2430              	.LVL218:
 2431              	.L153:
 2432 0022 00BF     		.align	2
 2433              	.L152:
 2434 0024 00000000 		.word	__stack_chk_guard
 2435 0028 00000000 		.word	.LANCHOR7
 2436              		.cfi_endproc
 2437              	.LFE275:
 2438              		.size	detectEnvironment, .-detectEnvironment
 2439              		.section	.text.scanInFront,"ax",%progbits
 2440              		.align	1
 2441              		.p2align 4,,15
 2442              		.global	scanInFront
 2443              		.syntax unified
 2444              		.thumb
 2445              		.thumb_func
 2446              		.fpu fpv4-sp-d16
 2447              		.type	scanInFront, %function
 2448              	scanInFront:
 2449              	.LFB276:
 2450              		.loc 1 241 0
 2451              		.cfi_startproc
ARM GAS  /var/folders/qd/4mxf5pkd0zdf0b9dd1hp39180000gn/T//cc0H01tt.s 			page 44


 2452              		@ args = 0, pretend = 0, frame = 56
 2453              		@ frame_needed = 0, uses_anonymous_args = 0
 2454 0000 2DE9F04F 		push	{r4, r5, r6, r7, r8, r9, r10, fp, lr}
 2455              		.cfi_def_cfa_offset 36
 2456              		.cfi_offset 4, -36
 2457              		.cfi_offset 5, -32
 2458              		.cfi_offset 6, -28
 2459              		.cfi_offset 7, -24
 2460              		.cfi_offset 8, -20
 2461              		.cfi_offset 9, -16
 2462              		.cfi_offset 10, -12
 2463              		.cfi_offset 11, -8
 2464              		.cfi_offset 14, -4
 2465 0004 DFF8A4A0 		ldr	r10, .L160+20
 2466              	.LBB486:
 2467              	.LBB487:
 2468              		.loc 1 227 0
 2469 0008 DFF8A480 		ldr	r8, .L160+24
 2470              	.LBE487:
 2471              	.LBE486:
 2472              		.loc 1 241 0
 2473 000c DAF80030 		ldr	r3, [r10]
 2474 0010 8FB0     		sub	sp, sp, #60
 2475              		.cfi_def_cfa_offset 96
 2476              		.loc 1 242 0
 2477 0012 4FF4F070 		mov	r0, #480
 2478              		.loc 1 241 0
 2479 0016 0D93     		str	r3, [sp, #52]
 2480              		.loc 1 242 0
 2481 0018 FFF7FEFF 		bl	malloc
 2482              	.LVL219:
 2483              	.LBB489:
 2484              	.LBB490:
 2485              		.loc 1 227 0
 2486 001c 1FA7     		adr	r7, .L160+4
 2487 001e D7E90067 		ldrd	r6, [r7]
 2488              	.LBE490:
 2489              	.LBE489:
 2490              		.loc 1 242 0
 2491 0022 8146     		mov	r9, r0
 2492              	.LVL220:
 2493              	.LBB492:
 2494              	.LBB491:
 2495              		.loc 1 227 0
 2496 0024 0023     		movs	r3, #0
 2497 0026 40F6F421 		movw	r1, #2804
 2498 002a 6846     		mov	r0, sp
 2499              	.LVL221:
 2500 002c CDE90267 		strd	r6, [sp, #8]
 2501 0030 0093     		str	r3, [sp]
 2502 0032 FFF7FEFF 		bl	moveAndComputePositionRobotSpeedType
 2503              	.LVL222:
 2504 0036 4C46     		mov	r4, r9
 2505 0038 09F5F07B 		add	fp, r9, #480
 2506              	.LVL223:
 2507              	.L155:
 2508              	.LBE491:
ARM GAS  /var/folders/qd/4mxf5pkd0zdf0b9dd1hp39180000gn/T//cc0H01tt.s 			page 45


 2509              	.LBE492:
 2510              		.loc 1 246 0 discriminator 3
 2511 003c 9620     		movs	r0, #150
 2512 003e FFF7FEFF 		bl	chThdSleep
 2513              	.LVL224:
 2514              		.loc 1 247 0 discriminator 3
 2515 0042 2046     		mov	r0, r4
 2516 0044 FFF7FEFF 		bl	storeFrontDistanceSensorValue
 2517              	.LVL225:
 2518 0048 1834     		adds	r4, r4, #24
 2519              	.LBB493:
 2520              	.LBB488:
 2521              		.loc 1 227 0 discriminator 3
 2522 004a 0025     		movs	r5, #0
 2523 004c 4146     		mov	r1, r8
 2524 004e 04A8     		add	r0, sp, #16
 2525 0050 CDE90667 		strd	r6, [sp, #24]
 2526 0054 0495     		str	r5, [sp, #16]
 2527 0056 FFF7FEFF 		bl	moveAndComputePositionRobotSpeedType
 2528              	.LVL226:
 2529              	.LBE488:
 2530              	.LBE493:
 2531              		.loc 1 245 0 discriminator 3
 2532 005a 5C45     		cmp	r4, fp
 2533 005c EED1     		bne	.L155
 2534              	.LVL227:
 2535              	.LBB494:
 2536              	.LBB495:
 2537              		.loc 1 227 0
 2538 005e 11A3     		adr	r3, .L160+12
 2539 0060 D3E90023 		ldrd	r2, [r3]
 2540 0064 40F6F421 		movw	r1, #2804
 2541 0068 08A8     		add	r0, sp, #32
 2542 006a CDE90A23 		strd	r2, [sp, #40]
 2543 006e 0895     		str	r5, [sp, #32]
 2544 0070 FFF7FEFF 		bl	moveAndComputePositionRobotSpeedType
 2545              	.LVL228:
 2546              	.LBE495:
 2547              	.LBE494:
 2548              	.LBB496:
 2549              	.LBB497:
 2550              		.loc 1 235 0
 2551 0074 084A     		ldr	r2, .L160
 2552 0076 4846     		mov	r0, r9
 2553 0078 1421     		movs	r1, #20
 2554 007a FFF7FEFF 		bl	mod_mapping_checkEnvironment
 2555              	.LVL229:
 2556              	.LBE497:
 2557              	.LBE496:
 2558              		.loc 1 252 0
 2559 007e 0D9A     		ldr	r2, [sp, #52]
 2560 0080 DAF80030 		ldr	r3, [r10]
 2561 0084 9A42     		cmp	r2, r3
 2562 0086 02D1     		bne	.L159
 2563 0088 0FB0     		add	sp, sp, #60
 2564              		.cfi_remember_state
 2565              		.cfi_def_cfa_offset 36
ARM GAS  /var/folders/qd/4mxf5pkd0zdf0b9dd1hp39180000gn/T//cc0H01tt.s 			page 46


 2566              		@ sp needed
 2567 008a BDE8F08F 		pop	{r4, r5, r6, r7, r8, r9, r10, fp, pc}
 2568              	.LVL230:
 2569              	.L159:
 2570              		.cfi_restore_state
 2571 008e FFF7FEFF 		bl	__stack_chk_fail
 2572              	.LVL231:
 2573              	.L161:
 2574 0092 00BFAFF3 		.align	3
 2574      0080
 2575              	.L160:
 2576 0098 00000000 		.word	.LANCHOR7
 2577 009c 00000020 		.word	536870912
 2578 00a0 85EBD13F 		.word	1070721925
 2579 00a4 00000020 		.word	536870912
 2580 00a8 85EBD1BF 		.word	-1076761723
 2581 00ac 00000000 		.word	__stack_chk_guard
 2582 00b0 47B60100 		.word	112199
 2583              		.cfi_endproc
 2584              	.LFE276:
 2585              		.size	scanInFront, .-scanInFront
 2586              		.section	.text.exploration,"ax",%progbits
 2587              		.align	1
 2588              		.p2align 4,,15
 2589              		.syntax unified
 2590              		.thumb
 2591              		.thumb_func
 2592              		.fpu fpv4-sp-d16
 2593              		.type	exploration, %function
 2594              	exploration:
 2595              	.LFB278:
 2596              		.loc 1 274 0
 2597              		.cfi_startproc
 2598              		@ args = 0, pretend = 0, frame = 24
 2599              		@ frame_needed = 0, uses_anonymous_args = 0
 2600              	.LVL232:
 2601 0000 D0B5     		push	{r4, r6, r7, lr}
 2602              		.cfi_def_cfa_offset 16
 2603              		.cfi_offset 4, -16
 2604              		.cfi_offset 6, -12
 2605              		.cfi_offset 7, -8
 2606              		.cfi_offset 14, -4
 2607 0002 254C     		ldr	r4, .L170+8
 2608 0004 86B0     		sub	sp, sp, #24
 2609              		.cfi_def_cfa_offset 40
 2610              	.LBB516:
 2611              	.LBB517:
 2612              		.loc 1 227 0
 2613 0006 22A7     		adr	r7, .L170
 2614 0008 D7E90067 		ldrd	r6, [r7]
 2615              	.LBE517:
 2616              	.LBE516:
 2617              		.loc 1 274 0
 2618 000c 2368     		ldr	r3, [r4]
 2619 000e 0593     		str	r3, [sp, #20]
 2620              	.LVL233:
 2621              	.LBB519:
ARM GAS  /var/folders/qd/4mxf5pkd0zdf0b9dd1hp39180000gn/T//cc0H01tt.s 			page 47


 2622              	.LBB518:
 2623              		.loc 1 227 0
 2624 0010 6846     		mov	r0, sp
 2625              	.LVL234:
 2626 0012 0023     		movs	r3, #0
 2627 0014 41F2E951 		movw	r1, #5609
 2628 0018 0093     		str	r3, [sp]
 2629 001a CDE90267 		strd	r6, [sp, #8]
 2630 001e FFF7FEFF 		bl	moveAndComputePositionRobotSpeedType
 2631              	.LVL235:
 2632              	.LBE518:
 2633              	.LBE519:
 2634              		.loc 1 277 0
 2635 0022 FFF7FEFF 		bl	scanInFront
 2636              	.LVL236:
 2637              		.loc 1 280 0
 2638 0026 0321     		movs	r1, #3
 2639 0028 1C48     		ldr	r0, .L170+12
 2640 002a FFF7FEFF 		bl	mod_com_writeMessage
 2641              	.LVL237:
 2642              	.LBB520:
 2643              	.LBB521:
 2644              	.LBB522:
 2645              	.LBB523:
 2646              	.LBB524:
 2647              	.LBB525:
 2648              	.LBB526:
 2649              	.LBB527:
 2650              		.loc 2 546 0
 2651 002e 2023     		movs	r3, #32
 2652              		.syntax unified
 2653              	@ 546 "lib/e-puck2_main-processor/ChibiOS//os/ext/CMSIS/include/core_cmFunc.h" 1
 2654 0030 83F31188 		MSR basepri, r3
 2655              	@ 0 "" 2
 2656              	.LVL238:
 2657              		.thumb
 2658              		.syntax unified
 2659              	.LBE527:
 2660              	.LBE526:
 2661              	.LBE525:
 2662              		.loc 3 349 0
 2663 0034 FFF7FEFF 		bl	_stats_start_measure_crit_thd
 2664              	.LVL239:
 2665              		.loc 3 350 0
 2666 0038 FFF7FEFF 		bl	_dbg_check_lock
 2667              	.LVL240:
 2668              	.LBE524:
 2669              	.LBE523:
 2670              	.LBB528:
 2671              	.LBB529:
 2672              		.loc 5 268 0
 2673 003c FFF7FEFF 		bl	chDbgCheckClassI
 2674              	.LVL241:
 2675              		.loc 5 270 0
 2676 0040 1748     		ldr	r0, .L170+16
 2677 0042 8368     		ldr	r3, [r0, #8]
 2678 0044 002B     		cmp	r3, #0
ARM GAS  /var/folders/qd/4mxf5pkd0zdf0b9dd1hp39180000gn/T//cc0H01tt.s 			page 48


 2679 0046 1BDD     		ble	.L167
 2680              	.L163:
 2681              	.LVL242:
 2682              	.LBE529:
 2683              	.LBE528:
 2684              		.loc 5 286 0
 2685 0048 FFF7FEFF 		bl	chSchRescheduleS
 2686              	.LVL243:
 2687              	.LBB531:
 2688              	.LBB532:
 2689              		.loc 3 360 0
 2690 004c FFF7FEFF 		bl	_dbg_check_unlock
 2691              	.LVL244:
 2692              		.loc 3 361 0
 2693 0050 FFF7FEFF 		bl	_stats_stop_measure_crit_thd
 2694              	.LVL245:
 2695              		.loc 3 367 0
 2696 0054 134B     		ldr	r3, .L170+20
 2697 0056 1A68     		ldr	r2, [r3]
 2698 0058 9A42     		cmp	r2, r3
 2699 005a 04D0     		beq	.L164
 2700 005c 9969     		ldr	r1, [r3, #24]
 2701 005e 9368     		ldr	r3, [r2, #8]
 2702 0060 8A68     		ldr	r2, [r1, #8]
 2703 0062 9A42     		cmp	r2, r3
 2704 0064 08D3     		bcc	.L168
 2705              	.L164:
 2706              	.LVL246:
 2707              	.LBB533:
 2708              	.LBB534:
 2709              	.LBB535:
 2710              		.loc 2 546 0
 2711 0066 0023     		movs	r3, #0
 2712              		.syntax unified
 2713              	@ 546 "lib/e-puck2_main-processor/ChibiOS//os/ext/CMSIS/include/core_cmFunc.h" 1
 2714 0068 83F31188 		MSR basepri, r3
 2715              	@ 0 "" 2
 2716              	.LVL247:
 2717              		.thumb
 2718              		.syntax unified
 2719              	.LBE535:
 2720              	.LBE534:
 2721              	.LBE533:
 2722              	.LBE532:
 2723              	.LBE531:
 2724              	.LBE522:
 2725              	.LBE521:
 2726              	.LBE520:
 2727              		.loc 1 283 0
 2728 006c 059A     		ldr	r2, [sp, #20]
 2729 006e 2368     		ldr	r3, [r4]
 2730 0070 9A42     		cmp	r2, r3
 2731 0072 08D1     		bne	.L169
 2732 0074 06B0     		add	sp, sp, #24
 2733              		.cfi_remember_state
 2734              		.cfi_def_cfa_offset 16
 2735              		@ sp needed
ARM GAS  /var/folders/qd/4mxf5pkd0zdf0b9dd1hp39180000gn/T//cc0H01tt.s 			page 49


 2736 0076 D0BD     		pop	{r4, r6, r7, pc}
 2737              	.LVL248:
 2738              	.L168:
 2739              		.cfi_restore_state
 2740              	.LBB541:
 2741              	.LBB540:
 2742              	.LBB539:
 2743              	.LBB537:
 2744              	.LBB536:
 2745              		.loc 3 367 0
 2746 0078 0B48     		ldr	r0, .L170+24
 2747 007a FFF7FEFF 		bl	chSysHalt
 2748              	.LVL249:
 2749 007e F2E7     		b	.L164
 2750              	.LVL250:
 2751              	.L167:
 2752              	.LBE536:
 2753              	.LBE537:
 2754              	.LBB538:
 2755              	.LBB530:
 2756              		.loc 5 271 0
 2757 0080 FFF7FEFF 		bl	chSemSignalI
 2758              	.LVL251:
 2759 0084 E0E7     		b	.L163
 2760              	.LVL252:
 2761              	.L169:
 2762              	.LBE530:
 2763              	.LBE538:
 2764              	.LBE539:
 2765              	.LBE540:
 2766              	.LBE541:
 2767              		.loc 1 283 0
 2768 0086 FFF7FEFF 		bl	__stack_chk_fail
 2769              	.LVL253:
 2770              	.L171:
 2771 008a 00BFAFF3 		.align	3
 2771      0080
 2772              	.L170:
 2773 0090 00000020 		.word	536870912
 2774 0094 85EBD1BF 		.word	-1076761723
 2775 0098 00000000 		.word	__stack_chk_guard
 2776 009c 00000000 		.word	.LC2
 2777 00a0 00000000 		.word	.LANCHOR5
 2778 00a4 00000000 		.word	ch
 2779 00a8 00000000 		.word	.LANCHOR1
 2780              		.cfi_endproc
 2781              	.LFE278:
 2782              		.size	exploration, .-exploration
 2783              		.section	.text.mod_explo_initModule,"ax",%progbits
 2784              		.align	1
 2785              		.p2align 4,,15
 2786              		.global	mod_explo_initModule
 2787              		.syntax unified
 2788              		.thumb
 2789              		.thumb_func
 2790              		.fpu fpv4-sp-d16
 2791              		.type	mod_explo_initModule, %function
ARM GAS  /var/folders/qd/4mxf5pkd0zdf0b9dd1hp39180000gn/T//cc0H01tt.s 			page 50


 2792              	mod_explo_initModule:
 2793              	.LFB279:
 2794              		.loc 1 291 0
 2795              		.cfi_startproc
 2796              		@ args = 0, pretend = 0, frame = 8
 2797              		@ frame_needed = 0, uses_anonymous_args = 0
 2798 0000 10B5     		push	{r4, lr}
 2799              		.cfi_def_cfa_offset 8
 2800              		.cfi_offset 4, -8
 2801              		.cfi_offset 14, -4
 2802 0002 0F4C     		ldr	r4, .L176
 2803 0004 84B0     		sub	sp, sp, #16
 2804              		.cfi_def_cfa_offset 24
 2805              		.loc 1 291 0
 2806 0006 2368     		ldr	r3, [r4]
 2807 0008 0393     		str	r3, [sp, #12]
 2808              		.loc 1 292 0
 2809 000a FFF7FEFF 		bl	mod_sensors_initSensors
 2810              	.LVL254:
 2811              		.loc 1 293 0
 2812 000e FFF7FEFF 		bl	mod_motors_init
 2813              	.LVL255:
 2814              		.loc 1 294 0
 2815 0012 FFF7FEFF 		bl	mod_mapping_init
 2816              	.LVL256:
 2817              		.loc 1 295 0
 2818 0016 FFF7FEFF 		bl	mod_sensors_initObjectDetection
 2819              	.LVL257:
 2820              		.loc 1 296 0
 2821 001a 0023     		movs	r3, #0
 2822 001c 0093     		str	r3, [sp]
 2823 001e 4A22     		movs	r2, #74
 2824 0020 084B     		ldr	r3, .L176+4
 2825 0022 0948     		ldr	r0, .L176+8
 2826 0024 4FF4AF61 		mov	r1, #1400
 2827 0028 FFF7FEFF 		bl	chThdCreateStatic
 2828              	.LVL258:
 2829              		.loc 1 300 0
 2830 002c 039A     		ldr	r2, [sp, #12]
 2831 002e 2368     		ldr	r3, [r4]
 2832              		.loc 1 296 0
 2833 0030 0649     		ldr	r1, .L176+12
 2834              		.loc 1 300 0
 2835 0032 9A42     		cmp	r2, r3
 2836              		.loc 1 296 0
 2837 0034 0860     		str	r0, [r1]
 2838              		.loc 1 300 0
 2839 0036 01D1     		bne	.L175
 2840 0038 04B0     		add	sp, sp, #16
 2841              		.cfi_remember_state
 2842              		.cfi_def_cfa_offset 8
 2843              		@ sp needed
 2844 003a 10BD     		pop	{r4, pc}
 2845              	.L175:
 2846              		.cfi_restore_state
 2847 003c FFF7FEFF 		bl	__stack_chk_fail
 2848              	.LVL259:
ARM GAS  /var/folders/qd/4mxf5pkd0zdf0b9dd1hp39180000gn/T//cc0H01tt.s 			page 51


 2849              	.L177:
 2850              		.align	2
 2851              	.L176:
 2852 0040 00000000 		.word	__stack_chk_guard
 2853 0044 00000000 		.word	changeMotorsStateAsync
 2854 0048 00000000 		.word	.LANCHOR8
 2855 004c 00000000 		.word	.LANCHOR6
 2856              		.cfi_endproc
 2857              	.LFE279:
 2858              		.size	mod_explo_initModule, .-mod_explo_initModule
 2859              		.section	.text.mod_explo_calibration,"ax",%progbits
 2860              		.align	1
 2861              		.p2align 4,,15
 2862              		.global	mod_explo_calibration
 2863              		.syntax unified
 2864              		.thumb
 2865              		.thumb_func
 2866              		.fpu fpv4-sp-d16
 2867              		.type	mod_explo_calibration, %function
 2868              	mod_explo_calibration:
 2869              	.LFB280:
 2870              		.loc 1 303 0
 2871              		.cfi_startproc
 2872              		@ args = 0, pretend = 0, frame = 8
 2873              		@ frame_needed = 0, uses_anonymous_args = 0
 2874 0000 00B5     		push	{lr}
 2875              		.cfi_def_cfa_offset 4
 2876              		.cfi_offset 14, -4
 2877 0002 074B     		ldr	r3, .L183
 2878 0004 83B0     		sub	sp, sp, #12
 2879              		.cfi_def_cfa_offset 16
 2880              		.loc 1 303 0
 2881 0006 1A68     		ldr	r2, [r3]
 2882 0008 0192     		str	r2, [sp, #4]
 2883              		.loc 1 305 0
 2884 000a 019A     		ldr	r2, [sp, #4]
 2885 000c 1B68     		ldr	r3, [r3]
 2886 000e 9A42     		cmp	r2, r3
 2887 0010 04D1     		bne	.L182
 2888              		.loc 1 360 0
 2889 0012 03B0     		add	sp, sp, #12
 2890              		.cfi_remember_state
 2891              		.cfi_def_cfa_offset 4
 2892              		@ sp needed
 2893 0014 5DF804EB 		ldr	lr, [sp], #4
 2894              		.cfi_restore 14
 2895              		.cfi_def_cfa_offset 0
 2896              		.loc 1 305 0
 2897 0018 FFF7FEBF 		b	mod_sensors_calibrateIRSensors
 2898              	.LVL260:
 2899              	.L182:
 2900              		.cfi_restore_state
 2901 001c FFF7FEFF 		bl	__stack_chk_fail
 2902              	.LVL261:
 2903              	.L184:
 2904              		.align	2
 2905              	.L183:
ARM GAS  /var/folders/qd/4mxf5pkd0zdf0b9dd1hp39180000gn/T//cc0H01tt.s 			page 52


 2906 0020 00000000 		.word	__stack_chk_guard
 2907              		.cfi_endproc
 2908              	.LFE280:
 2909              		.size	mod_explo_calibration, .-mod_explo_calibration
 2910              		.section	.text.mod_explo_discoverTheAreaOnThread,"ax",%progbits
 2911              		.align	1
 2912              		.p2align 4,,15
 2913              		.global	mod_explo_discoverTheAreaOnThread
 2914              		.syntax unified
 2915              		.thumb
 2916              		.thumb_func
 2917              		.fpu fpv4-sp-d16
 2918              		.type	mod_explo_discoverTheAreaOnThread, %function
 2919              	mod_explo_discoverTheAreaOnThread:
 2920              	.LFB281:
 2921              		.loc 1 362 0
 2922              		.cfi_startproc
 2923              		@ args = 0, pretend = 0, frame = 8
 2924              		@ frame_needed = 0, uses_anonymous_args = 0
 2925 0000 10B5     		push	{r4, lr}
 2926              		.cfi_def_cfa_offset 8
 2927              		.cfi_offset 4, -8
 2928              		.cfi_offset 14, -4
 2929 0002 0A4C     		ldr	r4, .L189
 2930              		.loc 1 363 0
 2931 0004 0A4B     		ldr	r3, .L189+4
 2932              		.loc 1 362 0
 2933 0006 2268     		ldr	r2, [r4]
 2934              		.loc 1 363 0
 2935 0008 0A48     		ldr	r0, .L189+8
 2936              		.loc 1 362 0
 2937 000a 84B0     		sub	sp, sp, #16
 2938              		.cfi_def_cfa_offset 24
 2939              		.loc 1 363 0
 2940 000c 4FF4AF61 		mov	r1, #1400
 2941              		.loc 1 362 0
 2942 0010 0392     		str	r2, [sp, #12]
 2943              		.loc 1 363 0
 2944 0012 0022     		movs	r2, #0
 2945 0014 0092     		str	r2, [sp]
 2946 0016 4922     		movs	r2, #73
 2947 0018 FFF7FEFF 		bl	chThdCreateStatic
 2948              	.LVL262:
 2949              		.loc 1 365 0
 2950 001c 039A     		ldr	r2, [sp, #12]
 2951 001e 2368     		ldr	r3, [r4]
 2952 0020 9A42     		cmp	r2, r3
 2953 0022 01D1     		bne	.L188
 2954 0024 04B0     		add	sp, sp, #16
 2955              		.cfi_remember_state
 2956              		.cfi_def_cfa_offset 8
 2957              		@ sp needed
 2958 0026 10BD     		pop	{r4, pc}
 2959              	.L188:
 2960              		.cfi_restore_state
 2961 0028 FFF7FEFF 		bl	__stack_chk_fail
 2962              	.LVL263:
ARM GAS  /var/folders/qd/4mxf5pkd0zdf0b9dd1hp39180000gn/T//cc0H01tt.s 			page 53


 2963              	.L190:
 2964              		.align	2
 2965              	.L189:
 2966 002c 00000000 		.word	__stack_chk_guard
 2967 0030 00000000 		.word	discover
 2968 0034 00000000 		.word	.LANCHOR9
 2969              		.cfi_endproc
 2970              	.LFE281:
 2971              		.size	mod_explo_discoverTheAreaOnThread, .-mod_explo_discoverTheAreaOnThread
 2972              		.section	.text.mod_explo_explorateTheAreaOnThread,"ax",%progbits
 2973              		.align	1
 2974              		.p2align 4,,15
 2975              		.global	mod_explo_explorateTheAreaOnThread
 2976              		.syntax unified
 2977              		.thumb
 2978              		.thumb_func
 2979              		.fpu fpv4-sp-d16
 2980              		.type	mod_explo_explorateTheAreaOnThread, %function
 2981              	mod_explo_explorateTheAreaOnThread:
 2982              	.LFB282:
 2983              		.loc 1 367 0
 2984              		.cfi_startproc
 2985              		@ args = 0, pretend = 0, frame = 8
 2986              		@ frame_needed = 0, uses_anonymous_args = 0
 2987 0000 10B5     		push	{r4, lr}
 2988              		.cfi_def_cfa_offset 8
 2989              		.cfi_offset 4, -8
 2990              		.cfi_offset 14, -4
 2991 0002 0A4C     		ldr	r4, .L195
 2992              		.loc 1 368 0
 2993 0004 0A4B     		ldr	r3, .L195+4
 2994              		.loc 1 367 0
 2995 0006 2268     		ldr	r2, [r4]
 2996              		.loc 1 368 0
 2997 0008 0A48     		ldr	r0, .L195+8
 2998              		.loc 1 367 0
 2999 000a 84B0     		sub	sp, sp, #16
 3000              		.cfi_def_cfa_offset 24
 3001              		.loc 1 368 0
 3002 000c 4FF4AF61 		mov	r1, #1400
 3003              		.loc 1 367 0
 3004 0010 0392     		str	r2, [sp, #12]
 3005              		.loc 1 368 0
 3006 0012 0022     		movs	r2, #0
 3007 0014 0092     		str	r2, [sp]
 3008 0016 4222     		movs	r2, #66
 3009 0018 FFF7FEFF 		bl	chThdCreateStatic
 3010              	.LVL264:
 3011              		.loc 1 369 0
 3012 001c 039A     		ldr	r2, [sp, #12]
 3013 001e 2368     		ldr	r3, [r4]
 3014 0020 9A42     		cmp	r2, r3
 3015 0022 01D1     		bne	.L194
 3016 0024 04B0     		add	sp, sp, #16
 3017              		.cfi_remember_state
 3018              		.cfi_def_cfa_offset 8
 3019              		@ sp needed
ARM GAS  /var/folders/qd/4mxf5pkd0zdf0b9dd1hp39180000gn/T//cc0H01tt.s 			page 54


 3020 0026 10BD     		pop	{r4, pc}
 3021              	.L194:
 3022              		.cfi_restore_state
 3023 0028 FFF7FEFF 		bl	__stack_chk_fail
 3024              	.LVL265:
 3025              	.L196:
 3026              		.align	2
 3027              	.L195:
 3028 002c 00000000 		.word	__stack_chk_guard
 3029 0030 00000000 		.word	exploration
 3030 0034 00000000 		.word	.LANCHOR10
 3031              		.cfi_endproc
 3032              	.LFE282:
 3033              		.size	mod_explo_explorateTheAreaOnThread, .-mod_explo_explorateTheAreaOnThread
 3034              		.section	.text.mod_explo_sendTheMap,"ax",%progbits
 3035              		.align	1
 3036              		.p2align 4,,15
 3037              		.global	mod_explo_sendTheMap
 3038              		.syntax unified
 3039              		.thumb
 3040              		.thumb_func
 3041              		.fpu fpv4-sp-d16
 3042              		.type	mod_explo_sendTheMap, %function
 3043              	mod_explo_sendTheMap:
 3044              	.LFB283:
 3045              		.loc 1 371 0
 3046              		.cfi_startproc
 3047              		@ args = 0, pretend = 0, frame = 8
 3048              		@ frame_needed = 0, uses_anonymous_args = 0
 3049 0000 00B5     		push	{lr}
 3050              		.cfi_def_cfa_offset 4
 3051              		.cfi_offset 14, -4
 3052 0002 084B     		ldr	r3, .L202
 3053 0004 83B0     		sub	sp, sp, #12
 3054              		.cfi_def_cfa_offset 16
 3055              		.loc 1 371 0
 3056 0006 1A68     		ldr	r2, [r3]
 3057 0008 0192     		str	r2, [sp, #4]
 3058              		.loc 1 372 0
 3059 000a 019A     		ldr	r2, [sp, #4]
 3060 000c 1B68     		ldr	r3, [r3]
 3061 000e 9A42     		cmp	r2, r3
 3062 0010 05D1     		bne	.L201
 3063 0012 0020     		movs	r0, #0
 3064              		.loc 1 373 0
 3065 0014 03B0     		add	sp, sp, #12
 3066              		.cfi_remember_state
 3067              		.cfi_def_cfa_offset 4
 3068              		@ sp needed
 3069 0016 5DF804EB 		ldr	lr, [sp], #4
 3070              		.cfi_restore 14
 3071              		.cfi_def_cfa_offset 0
 3072              		.loc 1 372 0
 3073 001a FFF7FEBF 		b	mod_com_writeCommand
 3074              	.LVL266:
 3075              	.L201:
 3076              		.cfi_restore_state
ARM GAS  /var/folders/qd/4mxf5pkd0zdf0b9dd1hp39180000gn/T//cc0H01tt.s 			page 55


 3077 001e FFF7FEFF 		bl	__stack_chk_fail
 3078              	.LVL267:
 3079              	.L203:
 3080 0022 00BF     		.align	2
 3081              	.L202:
 3082 0024 00000000 		.word	__stack_chk_guard
 3083              		.cfi_endproc
 3084              	.LFE283:
 3085              		.size	mod_explo_sendTheMap, .-mod_explo_sendTheMap
 3086              		.section	.text.mod_explo_waitUntilEndOfWork,"ax",%progbits
 3087              		.align	1
 3088              		.p2align 4,,15
 3089              		.global	mod_explo_waitUntilEndOfWork
 3090              		.syntax unified
 3091              		.thumb
 3092              		.thumb_func
 3093              		.fpu fpv4-sp-d16
 3094              		.type	mod_explo_waitUntilEndOfWork, %function
 3095              	mod_explo_waitUntilEndOfWork:
 3096              	.LFB284:
 3097              		.loc 1 375 0
 3098              		.cfi_startproc
 3099              		@ args = 0, pretend = 0, frame = 8
 3100              		@ frame_needed = 0, uses_anonymous_args = 0
 3101 0000 00B5     		push	{lr}
 3102              		.cfi_def_cfa_offset 4
 3103              		.cfi_offset 14, -4
 3104 0002 084B     		ldr	r3, .L209
 3105 0004 83B0     		sub	sp, sp, #12
 3106              		.cfi_def_cfa_offset 16
 3107              		.loc 1 375 0
 3108 0006 1A68     		ldr	r2, [r3]
 3109 0008 0192     		str	r2, [sp, #4]
 3110              	.LVL268:
 3111              	.LBB542:
 3112              	.LBB543:
 3113              		.loc 5 143 0
 3114 000a 019A     		ldr	r2, [sp, #4]
 3115 000c 1B68     		ldr	r3, [r3]
 3116 000e 9A42     		cmp	r2, r3
 3117 0010 05D1     		bne	.L208
 3118 0012 0548     		ldr	r0, .L209+4
 3119              	.LBE543:
 3120              	.LBE542:
 3121              		.loc 1 377 0
 3122 0014 03B0     		add	sp, sp, #12
 3123              		.cfi_remember_state
 3124              		.cfi_def_cfa_offset 4
 3125              		@ sp needed
 3126 0016 5DF804EB 		ldr	lr, [sp], #4
 3127              		.cfi_restore 14
 3128              		.cfi_def_cfa_offset 0
 3129              	.LBB545:
 3130              	.LBB544:
 3131              		.loc 5 143 0
 3132 001a FFF7FEBF 		b	chSemWait
 3133              	.LVL269:
ARM GAS  /var/folders/qd/4mxf5pkd0zdf0b9dd1hp39180000gn/T//cc0H01tt.s 			page 56


 3134              	.L208:
 3135              		.cfi_restore_state
 3136 001e FFF7FEFF 		bl	__stack_chk_fail
 3137              	.LVL270:
 3138              	.L210:
 3139 0022 00BF     		.align	2
 3140              	.L209:
 3141 0024 00000000 		.word	__stack_chk_guard
 3142 0028 00000000 		.word	.LANCHOR5
 3143              	.LBE544:
 3144              	.LBE545:
 3145              		.cfi_endproc
 3146              	.LFE284:
 3147              		.size	mod_explo_waitUntilEndOfWork, .-mod_explo_waitUntilEndOfWork
 3148              		.global	environmentObstacles
 3149              		.global	lastOrder
 3150              		.global	isMessage
 3151              		.global	wipEndMovingSignal_sem
 3152              		.global	wipEndSignal_sem
 3153              		.section	.bss.changeMotorsStateAsync_wa,"aw",%nobits
 3154              		.align	3
 3155              		.set	.LANCHOR8,. + 0
 3156              		.type	changeMotorsStateAsync_wa, %object
 3157              		.size	changeMotorsStateAsync_wa, 1400
 3158              	changeMotorsStateAsync_wa:
 3159 0000 00000000 		.space	1400
 3159      00000000 
 3159      00000000 
 3159      00000000 
 3159      00000000 
 3160              		.section	.bss.discover_wa,"aw",%nobits
 3161              		.align	3
 3162              		.set	.LANCHOR9,. + 0
 3163              		.type	discover_wa, %object
 3164              		.size	discover_wa, 1400
 3165              	discover_wa:
 3166 0000 00000000 		.space	1400
 3166      00000000 
 3166      00000000 
 3166      00000000 
 3166      00000000 
 3167              		.section	.bss.environmentObstacles,"aw",%nobits
 3168              		.align	2
 3169              		.set	.LANCHOR7,. + 0
 3170              		.type	environmentObstacles, %object
 3171              		.size	environmentObstacles, 60
 3172              	environmentObstacles:
 3173 0000 00000000 		.space	60
 3173      00000000 
 3173      00000000 
 3173      00000000 
 3173      00000000 
 3174              		.section	.bss.exploration_wa,"aw",%nobits
 3175              		.align	3
 3176              		.set	.LANCHOR10,. + 0
 3177              		.type	exploration_wa, %object
 3178              		.size	exploration_wa, 1400
ARM GAS  /var/folders/qd/4mxf5pkd0zdf0b9dd1hp39180000gn/T//cc0H01tt.s 			page 57


 3179              	exploration_wa:
 3180 0000 00000000 		.space	1400
 3180      00000000 
 3180      00000000 
 3180      00000000 
 3180      00000000 
 3181              		.section	.bss.isMoving.11964,"aw",%nobits
 3182              		.set	.LANCHOR0,. + 0
 3183              		.type	isMoving.11964, %object
 3184              		.size	isMoving.11964, 1
 3185              	isMoving.11964:
 3186 0000 00       		.space	1
 3187              		.section	.bss.lastOrder,"aw",%nobits
 3188              		.align	3
 3189              		.set	.LANCHOR3,. + 0
 3190              		.type	lastOrder, %object
 3191              		.size	lastOrder, 16
 3192              	lastOrder:
 3193 0000 00000000 		.space	16
 3193      00000000 
 3193      00000000 
 3193      00000000 
 3194              		.section	.bss.lastOrderTime.11965,"aw",%nobits
 3195              		.align	2
 3196              		.set	.LANCHOR2,. + 0
 3197              		.type	lastOrderTime.11965, %object
 3198              		.size	lastOrderTime.11965, 4
 3199              	lastOrderTime.11965:
 3200 0000 00000000 		.space	4
 3201              		.section	.bss.motorsControlThread,"aw",%nobits
 3202              		.align	2
 3203              		.set	.LANCHOR6,. + 0
 3204              		.type	motorsControlThread, %object
 3205              		.size	motorsControlThread, 4
 3206              	motorsControlThread:
 3207 0000 00000000 		.space	4
 3208              		.section	.data.isMessage,"aw",%progbits
 3209              		.align	2
 3210              		.type	isMessage, %object
 3211              		.size	isMessage, 12
 3212              	isMessage:
 3213 0000 00000000 		.word	isMessage
 3214 0004 00000000 		.word	isMessage
 3215 0008 00000000 		.word	0
 3216              		.section	.data.wipEndMovingSignal_sem,"aw",%progbits
 3217              		.align	2
 3218              		.set	.LANCHOR4,. + 0
 3219              		.type	wipEndMovingSignal_sem, %object
 3220              		.size	wipEndMovingSignal_sem, 12
 3221              	wipEndMovingSignal_sem:
 3222 0000 00000000 		.word	wipEndMovingSignal_sem
 3223 0004 00000000 		.word	wipEndMovingSignal_sem
 3224 0008 00000000 		.word	0
 3225              		.section	.data.wipEndSignal_sem,"aw",%progbits
 3226              		.align	2
 3227              		.set	.LANCHOR5,. + 0
 3228              		.type	wipEndSignal_sem, %object
ARM GAS  /var/folders/qd/4mxf5pkd0zdf0b9dd1hp39180000gn/T//cc0H01tt.s 			page 58


 3229              		.size	wipEndSignal_sem, 12
 3230              	wipEndSignal_sem:
 3231 0000 00000000 		.word	wipEndSignal_sem
 3232 0004 00000000 		.word	wipEndSignal_sem
 3233 0008 00000000 		.word	0
 3234              		.section	.rodata.__func__.8385,"a",%progbits
 3235              		.align	2
 3236              		.set	.LANCHOR1,. + 0
 3237              		.type	__func__.8385, %object
 3238              		.size	__func__.8385, 12
 3239              	__func__.8385:
 3240 0000 63685379 		.ascii	"chSysUnlock\000"
 3240      73556E6C 
 3240      6F636B00 
 3241              		.section	.rodata.changeMotorsStateAsync.str1.4,"aMS",%progbits,1
 3242              		.align	2
 3243              	.LC0:
 3244 0000 526F626F 		.ascii	"Robot is not moving\000"
 3244      74206973 
 3244      206E6F74 
 3244      206D6F76 
 3244      696E6700 
 3245              	.LC1:
 3246 0014 526F626F 		.ascii	"Robot is moving\000"
 3246      74206973 
 3246      206D6F76 
 3246      696E6700 
 3247              		.section	.rodata.exploration.str1.4,"aMS",%progbits,1
 3248              		.align	2
 3249              	.LC2:
 3250 0000 456E7465 		.ascii	"Entering exploration thread\000"
 3250      72696E67 
 3250      20657870 
 3250      6C6F7261 
 3250      74696F6E 
 3251              		.text
 3252              	.Letext0:
 3253              		.file 6 "/Applications/Eclipse_e-puck2.app/Contents/Eclipse_e-puck2/Tools/gcc-arm-none-eabi-7-2017
 3254              		.file 7 "/Applications/Eclipse_e-puck2.app/Contents/Eclipse_e-puck2/Tools/gcc-arm-none-eabi-7-2017
 3255              		.file 8 "/Applications/Eclipse_e-puck2.app/Contents/Eclipse_e-puck2/Tools/gcc-arm-none-eabi-7-2017
 3256              		.file 9 "/Applications/Eclipse_e-puck2.app/Contents/Eclipse_e-puck2/Tools/gcc-arm-none-eabi-7-2017
 3257              		.file 10 "/Applications/Eclipse_e-puck2.app/Contents/Eclipse_e-puck2/Tools/gcc-arm-none-eabi-7-201
 3258              		.file 11 "/Applications/Eclipse_e-puck2.app/Contents/Eclipse_e-puck2/Tools/gcc-arm-none-eabi-7-201
 3259              		.file 12 "modules/headers/structs.h"
 3260              		.file 13 "modules/headers/mod_mapping.h"
 3261              		.file 14 "/Applications/Eclipse_e-puck2.app/Contents/Eclipse_e-puck2/Tools/gcc-arm-none-eabi-7-201
 3262              		.file 15 "/Applications/Eclipse_e-puck2.app/Contents/Eclipse_e-puck2/Tools/gcc-arm-none-eabi-7-201
 3263              		.file 16 "lib/e-puck2_main-processor/ChibiOS//os/rt/ports/ARMCMx/compilers/GCC/chtypes.h"
 3264              		.file 17 "lib/e-puck2_main-processor/ChibiOS//os/rt/include/chsystypes.h"
 3265              		.file 18 "lib/e-puck2_main-processor/ChibiOS//os/rt/include/chschd.h"
 3266              		.file 19 "lib/e-puck2_main-processor/ChibiOS//os/ext/CMSIS/include/core_cm4.h"
 3267              		.file 20 "lib/e-puck2_main-processor/ChibiOS//os/ext/CMSIS/ST/system_stm32f4xx.h"
 3268              		.file 21 "lib/e-puck2_main-processor/ChibiOS//os/ext/CMSIS/ST/stm32f407xx.h"
 3269              		.file 22 "lib/e-puck2_main-processor/ChibiOS//os/rt/ports/ARMCMx/chcore.h"
 3270              		.file 23 "lib/e-puck2_main-processor/ChibiOS//os/rt/ports/ARMCMx/chcore_v7m.h"
 3271              		.file 24 "lib/e-puck2_main-processor/ChibiOS//os/rt/include/chdebug.h"
 3272              		.file 25 "lib/e-puck2_main-processor/ChibiOS//os/rt/include/chtm.h"
ARM GAS  /var/folders/qd/4mxf5pkd0zdf0b9dd1hp39180000gn/T//cc0H01tt.s 			page 59


 3273              		.file 26 "lib/e-puck2_main-processor/ChibiOS//os/rt/include/chstats.h"
 3274              		.file 27 "lib/e-puck2_main-processor/ChibiOS//os/rt/include/chsem.h"
 3275              		.file 28 "lib/e-puck2_main-processor/ChibiOS//os/rt/include/chmtx.h"
 3276              		.file 29 "lib/e-puck2_main-processor/ChibiOS//os/rt/include/chregistry.h"
 3277              		.file 30 "lib/e-puck2_main-processor/ChibiOS//os/rt/include/chevents.h"
 3278              		.file 31 "lib/e-puck2_main-processor/ChibiOS//os/rt/include/chqueues.h"
 3279              		.file 32 "modules/headers/mod_sensors.h"
 3280              		.file 33 "lib/e-puck2_main-processor/ChibiOS//os/hal/ports/STM32/STM32F4xx/stm32_dma.h"
 3281              		.file 34 "modules/headers/mod_communication.h"
 3282              		.file 35 "lib/e-puck2_main-processor/ChibiOS//os/hal/include/hal_ioblock.h"
 3283              		.file 36 "lib/e-puck2_main-processor/ChibiOS//os/hal/ports/STM32/LLD/GPIOv2/pal_lld.h"
 3284              		.file 37 "lib/e-puck2_main-processor/ChibiOS//os/hal/include/adc.h"
 3285              		.file 38 "lib/e-puck2_main-processor/ChibiOS//os/hal/ports/STM32/STM32F4xx/adc_lld.h"
 3286              		.file 39 "lib/e-puck2_main-processor/ChibiOS//os/hal/include/can.h"
 3287              		.file 40 "lib/e-puck2_main-processor/ChibiOS//os/hal/ports/STM32/LLD/can_lld.h"
 3288              		.file 41 "lib/e-puck2_main-processor/ChibiOS//os/hal/include/dac.h"
 3289              		.file 42 "lib/e-puck2_main-processor/ChibiOS//os/hal/ports/STM32/LLD/DACv1/dac_lld.h"
 3290              		.file 43 "lib/e-puck2_main-processor/ChibiOS//os/hal/include/ext.h"
 3291              		.file 44 "lib/e-puck2_main-processor/ChibiOS//os/hal/ports/STM32/LLD/ext_lld.h"
 3292              		.file 45 "lib/e-puck2_main-processor/ChibiOS//os/hal/include/gpt.h"
 3293              		.file 46 "lib/e-puck2_main-processor/ChibiOS//os/hal/ports/STM32/LLD/TIMv1/gpt_lld.h"
 3294              		.file 47 "lib/e-puck2_main-processor/ChibiOS//os/hal/ports/STM32/LLD/TIMv1/stm32_tim.h"
 3295              		.file 48 "lib/e-puck2_main-processor/ChibiOS//os/hal/include/i2c.h"
 3296              		.file 49 "lib/e-puck2_main-processor/ChibiOS//os/hal/ports/STM32/LLD/I2Cv1/i2c_lld.h"
 3297              		.file 50 "lib/e-puck2_main-processor/ChibiOS//os/hal/include/i2s.h"
 3298              		.file 51 "lib/e-puck2_main-processor/ChibiOS//os/hal/ports/STM32/LLD/SPIv1/i2s_lld.h"
 3299              		.file 52 "lib/e-puck2_main-processor/ChibiOS//os/hal/include/pwm.h"
 3300              		.file 53 "lib/e-puck2_main-processor/ChibiOS//os/hal/ports/STM32/LLD/TIMv1/pwm_lld.h"
 3301              		.file 54 "lib/e-puck2_main-processor/ChibiOS//os/hal/include/serial.h"
 3302              		.file 55 "lib/e-puck2_main-processor/ChibiOS//os/hal/ports/STM32/LLD/USARTv1/serial_lld.h"
 3303              		.file 56 "lib/e-puck2_main-processor/ChibiOS//os/hal/include/sdc.h"
 3304              		.file 57 "lib/e-puck2_main-processor/ChibiOS//os/hal/ports/STM32/LLD/sdc_lld.h"
 3305              		.file 58 "lib/e-puck2_main-processor/ChibiOS//os/hal/include/spi.h"
 3306              		.file 59 "lib/e-puck2_main-processor/ChibiOS//os/hal/ports/STM32/LLD/SPIv1/spi_lld.h"
 3307              		.file 60 "lib/e-puck2_main-processor/ChibiOS//os/hal/include/usb.h"
 3308              		.file 61 "lib/e-puck2_main-processor/ChibiOS//os/hal/ports/STM32/LLD/OTGv1/usb_lld.h"
 3309              		.file 62 "lib/e-puck2_main-processor/ChibiOS//os/hal/ports/STM32/LLD/OTGv1/stm32_otg.h"
 3310              		.file 63 "lib/e-puck2_main-processor/ChibiOS//os/rt/include/chmsg.h"
 3311              		.file 64 "lib/e-puck2_main-processor/ChibiOS//os/rt/include/chthreads.h"
 3312              		.file 65 "modules/headers/mod_motors.h"
 3313              		.file 66 "modules/headers/mod_check.h"