ARM GAS  /var/folders/qd/4mxf5pkd0zdf0b9dd1hp39180000gn/T//ccetYF1O.s 			page 1


   1              		.cpu cortex-m4
   2              		.eabi_attribute 27, 1
   3              		.eabi_attribute 28, 1
   4              		.eabi_attribute 20, 1
   5              		.eabi_attribute 21, 1
   6              		.eabi_attribute 23, 3
   7              		.eabi_attribute 24, 1
   8              		.eabi_attribute 25, 1
   9              		.eabi_attribute 26, 1
  10              		.eabi_attribute 30, 2
  11              		.eabi_attribute 34, 1
  12              		.eabi_attribute 18, 4
  13              		.file	"mod_exploration.c"
  14              		.text
  15              	.Ltext0:
  16              		.cfi_sections	.debug_frame
  17              		.section	.text.mod_explo_init,"ax",%progbits
  18              		.align	1
  19              		.p2align 4,,15
  20              		.global	mod_explo_init
  21              		.syntax unified
  22              		.thumb
  23              		.thumb_func
  24              		.fpu fpv4-sp-d16
  25              		.type	mod_explo_init, %function
  26              	mod_explo_init:
  27              	.LFB219:
  28              		.file 1 "./modules/mod_exploration.c"
  29              		.loc 1 29 0
  30              		.cfi_startproc
  31              		@ args = 0, pretend = 0, frame = 8
  32              		@ frame_needed = 0, uses_anonymous_args = 0
  33 0000 00B5     		push	{lr}
  34              		.cfi_def_cfa_offset 4
  35              		.cfi_offset 14, -4
  36 0002 074B     		ldr	r3, .L7
  37 0004 83B0     		sub	sp, sp, #12
  38              		.cfi_def_cfa_offset 16
  39              		.loc 1 29 0
  40 0006 1A68     		ldr	r2, [r3]
  41 0008 0192     		str	r2, [sp, #4]
  42              		.loc 1 30 0
  43 000a 019A     		ldr	r2, [sp, #4]
  44 000c 1B68     		ldr	r3, [r3]
  45 000e 9A42     		cmp	r2, r3
  46 0010 04D1     		bne	.L6
  47              		.loc 1 31 0
  48 0012 03B0     		add	sp, sp, #12
  49              		.cfi_remember_state
  50              		.cfi_def_cfa_offset 4
  51              		@ sp needed
  52 0014 5DF804EB 		ldr	lr, [sp], #4
  53              		.cfi_restore 14
  54              		.cfi_def_cfa_offset 0
  55              		.loc 1 30 0
  56 0018 FFF7FEBF 		b	mod_mapping_init
  57              	.LVL0:
ARM GAS  /var/folders/qd/4mxf5pkd0zdf0b9dd1hp39180000gn/T//ccetYF1O.s 			page 2


  58              	.L6:
  59              		.cfi_restore_state
  60 001c FFF7FEFF 		bl	__stack_chk_fail
  61              	.LVL1:
  62              	.L8:
  63              		.align	2
  64              	.L7:
  65 0020 00000000 		.word	__stack_chk_guard
  66              		.cfi_endproc
  67              	.LFE219:
  68              		.size	mod_explo_init, .-mod_explo_init
  69              		.section	.text.mod_explo_discoverTheAreaOnThread,"ax",%progbits
  70              		.align	1
  71              		.p2align 4,,15
  72              		.global	mod_explo_discoverTheAreaOnThread
  73              		.syntax unified
  74              		.thumb
  75              		.thumb_func
  76              		.fpu fpv4-sp-d16
  77              		.type	mod_explo_discoverTheAreaOnThread, %function
  78              	mod_explo_discoverTheAreaOnThread:
  79              	.LFB220:
  80              		.loc 1 34 0
  81              		.cfi_startproc
  82              		@ args = 0, pretend = 0, frame = 8
  83              		@ frame_needed = 0, uses_anonymous_args = 0
  84 0000 10B5     		push	{r4, lr}
  85              		.cfi_def_cfa_offset 8
  86              		.cfi_offset 4, -8
  87              		.cfi_offset 14, -4
  88 0002 0C4C     		ldr	r4, .L14
  89              		.loc 1 35 0
  90 0004 0C49     		ldr	r1, .L14+4
  91              		.loc 1 34 0
  92 0006 2368     		ldr	r3, [r4]
  93              		.loc 1 35 0
  94 0008 0C48     		ldr	r0, .L14+8
  95              		.loc 1 34 0
  96 000a 82B0     		sub	sp, sp, #8
  97              		.cfi_def_cfa_offset 16
  98              		.loc 1 35 0
  99 000c 0022     		movs	r2, #0
 100              		.loc 1 34 0
 101 000e 0193     		str	r3, [sp, #4]
 102              		.loc 1 35 0
 103 0010 FFF7FEFF 		bl	mod_com_writeDatas
 104              	.LVL2:
 105              		.loc 1 36 0
 106 0014 4FF47A70 		mov	r0, #1000
 107 0018 FFF7FEFF 		bl	chThdSleep
 108              	.LVL3:
 109              		.loc 1 37 0
 110 001c 019A     		ldr	r2, [sp, #4]
 111 001e 2368     		ldr	r3, [r4]
 112 0020 9A42     		cmp	r2, r3
 113 0022 04D1     		bne	.L13
 114              		.loc 1 38 0
ARM GAS  /var/folders/qd/4mxf5pkd0zdf0b9dd1hp39180000gn/T//ccetYF1O.s 			page 3


 115 0024 02B0     		add	sp, sp, #8
 116              		.cfi_remember_state
 117              		.cfi_def_cfa_offset 8
 118              		@ sp needed
 119 0026 BDE81040 		pop	{r4, lr}
 120              		.cfi_restore 14
 121              		.cfi_restore 4
 122              		.cfi_def_cfa_offset 0
 123              		.loc 1 37 0
 124 002a FFF7FEBF 		b	mod_mapping_doInitialMapping
 125              	.LVL4:
 126              	.L13:
 127              		.cfi_restore_state
 128 002e FFF7FEFF 		bl	__stack_chk_fail
 129              	.LVL5:
 130              	.L15:
 131 0032 00BF     		.align	2
 132              	.L14:
 133 0034 00000000 		.word	__stack_chk_guard
 134 0038 00000000 		.word	.LC0
 135 003c 08000000 		.word	.LC1
 136              		.cfi_endproc
 137              	.LFE220:
 138              		.size	mod_explo_discoverTheAreaOnThread, .-mod_explo_discoverTheAreaOnThread
 139              		.section	.text.mod_explo_explorateTheAreaOnThread,"ax",%progbits
 140              		.align	1
 141              		.p2align 4,,15
 142              		.global	mod_explo_explorateTheAreaOnThread
 143              		.syntax unified
 144              		.thumb
 145              		.thumb_func
 146              		.fpu fpv4-sp-d16
 147              		.type	mod_explo_explorateTheAreaOnThread, %function
 148              	mod_explo_explorateTheAreaOnThread:
 149              	.LFB221:
 150              		.loc 1 40 0
 151              		.cfi_startproc
 152              		@ args = 0, pretend = 0, frame = 8
 153              		@ frame_needed = 0, uses_anonymous_args = 0
 154              	.LVL6:
 155 0000 00B5     		push	{lr}
 156              		.cfi_def_cfa_offset 4
 157              		.cfi_offset 14, -4
 158 0002 064B     		ldr	r3, .L20
 159 0004 83B0     		sub	sp, sp, #12
 160              		.cfi_def_cfa_offset 16
 161              		.loc 1 40 0
 162 0006 1A68     		ldr	r2, [r3]
 163 0008 0192     		str	r2, [sp, #4]
 164              		.loc 1 42 0
 165 000a 019A     		ldr	r2, [sp, #4]
 166 000c 1B68     		ldr	r3, [r3]
 167 000e 9A42     		cmp	r2, r3
 168 0010 02D1     		bne	.L19
 169 0012 03B0     		add	sp, sp, #12
 170              		.cfi_remember_state
 171              		.cfi_def_cfa_offset 4
ARM GAS  /var/folders/qd/4mxf5pkd0zdf0b9dd1hp39180000gn/T//ccetYF1O.s 			page 4


 172              		@ sp needed
 173 0014 5DF804FB 		ldr	pc, [sp], #4
 174              	.L19:
 175              		.cfi_restore_state
 176 0018 FFF7FEFF 		bl	__stack_chk_fail
 177              	.LVL7:
 178              	.L21:
 179              		.align	2
 180              	.L20:
 181 001c 00000000 		.word	__stack_chk_guard
 182              		.cfi_endproc
 183              	.LFE221:
 184              		.size	mod_explo_explorateTheAreaOnThread, .-mod_explo_explorateTheAreaOnThread
 185              		.section	.text.mod_explo_sortTheAreaOnThread,"ax",%progbits
 186              		.align	1
 187              		.p2align 4,,15
 188              		.global	mod_explo_sortTheAreaOnThread
 189              		.syntax unified
 190              		.thumb
 191              		.thumb_func
 192              		.fpu fpv4-sp-d16
 193              		.type	mod_explo_sortTheAreaOnThread, %function
 194              	mod_explo_sortTheAreaOnThread:
 195              	.LFB222:
 196              		.loc 1 44 0
 197              		.cfi_startproc
 198              		@ args = 0, pretend = 0, frame = 8
 199              		@ frame_needed = 0, uses_anonymous_args = 0
 200 0000 00B5     		push	{lr}
 201              		.cfi_def_cfa_offset 4
 202              		.cfi_offset 14, -4
 203 0002 064B     		ldr	r3, .L26
 204 0004 83B0     		sub	sp, sp, #12
 205              		.cfi_def_cfa_offset 16
 206              		.loc 1 44 0
 207 0006 1A68     		ldr	r2, [r3]
 208 0008 0192     		str	r2, [sp, #4]
 209              		.loc 1 46 0
 210 000a 019A     		ldr	r2, [sp, #4]
 211 000c 1B68     		ldr	r3, [r3]
 212 000e 9A42     		cmp	r2, r3
 213 0010 02D1     		bne	.L25
 214 0012 03B0     		add	sp, sp, #12
 215              		.cfi_remember_state
 216              		.cfi_def_cfa_offset 4
 217              		@ sp needed
 218 0014 5DF804FB 		ldr	pc, [sp], #4
 219              	.L25:
 220              		.cfi_restore_state
 221 0018 FFF7FEFF 		bl	__stack_chk_fail
 222              	.LVL8:
 223              	.L27:
 224              		.align	2
 225              	.L26:
 226 001c 00000000 		.word	__stack_chk_guard
 227              		.cfi_endproc
 228              	.LFE222:
ARM GAS  /var/folders/qd/4mxf5pkd0zdf0b9dd1hp39180000gn/T//ccetYF1O.s 			page 5


 229              		.size	mod_explo_sortTheAreaOnThread, .-mod_explo_sortTheAreaOnThread
 230              		.section	.text.mod_explo_sendTheMap,"ax",%progbits
 231              		.align	1
 232              		.p2align 4,,15
 233              		.global	mod_explo_sendTheMap
 234              		.syntax unified
 235              		.thumb
 236              		.thumb_func
 237              		.fpu fpv4-sp-d16
 238              		.type	mod_explo_sendTheMap, %function
 239              	mod_explo_sendTheMap:
 240              	.LFB226:
 241              		.cfi_startproc
 242              		@ args = 0, pretend = 0, frame = 8
 243              		@ frame_needed = 0, uses_anonymous_args = 0
 244 0000 00B5     		push	{lr}
 245              		.cfi_def_cfa_offset 4
 246              		.cfi_offset 14, -4
 247 0002 064B     		ldr	r3, .L32
 248 0004 83B0     		sub	sp, sp, #12
 249              		.cfi_def_cfa_offset 16
 250 0006 1A68     		ldr	r2, [r3]
 251 0008 0192     		str	r2, [sp, #4]
 252 000a 019A     		ldr	r2, [sp, #4]
 253 000c 1B68     		ldr	r3, [r3]
 254 000e 9A42     		cmp	r2, r3
 255 0010 02D1     		bne	.L31
 256 0012 03B0     		add	sp, sp, #12
 257              		.cfi_remember_state
 258              		.cfi_def_cfa_offset 4
 259              		@ sp needed
 260 0014 5DF804FB 		ldr	pc, [sp], #4
 261              	.L31:
 262              		.cfi_restore_state
 263 0018 FFF7FEFF 		bl	__stack_chk_fail
 264              	.L33:
 265              		.align	2
 266              	.L32:
 267 001c 00000000 		.word	__stack_chk_guard
 268              		.cfi_endproc
 269              	.LFE226:
 270              		.size	mod_explo_sendTheMap, .-mod_explo_sendTheMap
 271              		.section	.text.mod_explo_waitUntilEndOfWork,"ax",%progbits
 272              		.align	1
 273              		.p2align 4,,15
 274              		.global	mod_explo_waitUntilEndOfWork
 275              		.syntax unified
 276              		.thumb
 277              		.thumb_func
 278              		.fpu fpv4-sp-d16
 279              		.type	mod_explo_waitUntilEndOfWork, %function
 280              	mod_explo_waitUntilEndOfWork:
 281              	.LFB228:
 282              		.cfi_startproc
 283              		@ args = 0, pretend = 0, frame = 8
 284              		@ frame_needed = 0, uses_anonymous_args = 0
 285 0000 00B5     		push	{lr}
ARM GAS  /var/folders/qd/4mxf5pkd0zdf0b9dd1hp39180000gn/T//ccetYF1O.s 			page 6


 286              		.cfi_def_cfa_offset 4
 287              		.cfi_offset 14, -4
 288 0002 064B     		ldr	r3, .L38
 289 0004 83B0     		sub	sp, sp, #12
 290              		.cfi_def_cfa_offset 16
 291 0006 1A68     		ldr	r2, [r3]
 292 0008 0192     		str	r2, [sp, #4]
 293 000a 019A     		ldr	r2, [sp, #4]
 294 000c 1B68     		ldr	r3, [r3]
 295 000e 9A42     		cmp	r2, r3
 296 0010 02D1     		bne	.L37
 297 0012 03B0     		add	sp, sp, #12
 298              		.cfi_remember_state
 299              		.cfi_def_cfa_offset 4
 300              		@ sp needed
 301 0014 5DF804FB 		ldr	pc, [sp], #4
 302              	.L37:
 303              		.cfi_restore_state
 304 0018 FFF7FEFF 		bl	__stack_chk_fail
 305              	.L39:
 306              		.align	2
 307              	.L38:
 308 001c 00000000 		.word	__stack_chk_guard
 309              		.cfi_endproc
 310              	.LFE228:
 311              		.size	mod_explo_waitUntilEndOfWork, .-mod_explo_waitUntilEndOfWork
 312              		.section	.rodata.mod_explo_discoverTheAreaOnThread.str1.4,"aMS",%progbits,1
 313              		.align	2
 314              	.LC0:
 315 0000 544F554F 		.ascii	"TOUOE\000"
 315      4500
 316 0006 0000     		.space	2
 317              	.LC1:
 318 0008 48657265 		.ascii	"Here all is alright\000"
 318      20616C6C 
 318      20697320 
 318      616C7269 
 318      67687400 
 319              		.text
 320              	.Letext0:
 321              		.file 2 "modules/headers/mod_exploration.h"
 322              		.file 3 "/Applications/Eclipse_e-puck2.app/Contents/Eclipse_e-puck2/Tools/gcc-arm-none-eabi-7-2017
 323              		.file 4 "/Applications/Eclipse_e-puck2.app/Contents/Eclipse_e-puck2/Tools/gcc-arm-none-eabi-7-2017
 324              		.file 5 "/Applications/Eclipse_e-puck2.app/Contents/Eclipse_e-puck2/Tools/gcc-arm-none-eabi-7-2017
 325              		.file 6 "/Applications/Eclipse_e-puck2.app/Contents/Eclipse_e-puck2/Tools/gcc-arm-none-eabi-7-2017
 326              		.file 7 "/Applications/Eclipse_e-puck2.app/Contents/Eclipse_e-puck2/Tools/gcc-arm-none-eabi-7-2017
 327              		.file 8 "/Applications/Eclipse_e-puck2.app/Contents/Eclipse_e-puck2/Tools/gcc-arm-none-eabi-7-2017
 328              		.file 9 "/Applications/Eclipse_e-puck2.app/Contents/Eclipse_e-puck2/Tools/gcc-arm-none-eabi-7-2017
 329              		.file 10 "lib/e-puck2_main-processor/ChibiOS//os/rt/ports/ARMCMx/compilers/GCC/chtypes.h"
 330              		.file 11 "lib/e-puck2_main-processor/ChibiOS//os/rt/include/chsystypes.h"
 331              		.file 12 "lib/e-puck2_main-processor/ChibiOS//os/rt/include/chschd.h"
 332              		.file 13 "lib/e-puck2_main-processor/ChibiOS//os/ext/CMSIS/include/core_cm4.h"
 333              		.file 14 "lib/e-puck2_main-processor/ChibiOS//os/ext/CMSIS/ST/system_stm32f4xx.h"
 334              		.file 15 "lib/e-puck2_main-processor/ChibiOS//os/rt/ports/ARMCMx/chcore.h"
 335              		.file 16 "lib/e-puck2_main-processor/ChibiOS//os/rt/ports/ARMCMx/chcore_v7m.h"
 336              		.file 17 "lib/e-puck2_main-processor/ChibiOS//os/rt/include/chdebug.h"
 337              		.file 18 "lib/e-puck2_main-processor/ChibiOS//os/rt/include/chtm.h"
ARM GAS  /var/folders/qd/4mxf5pkd0zdf0b9dd1hp39180000gn/T//ccetYF1O.s 			page 7


 338              		.file 19 "lib/e-puck2_main-processor/ChibiOS//os/rt/include/chstats.h"
 339              		.file 20 "lib/e-puck2_main-processor/ChibiOS//os/rt/include/chsem.h"
 340              		.file 21 "lib/e-puck2_main-processor/ChibiOS//os/rt/include/chmtx.h"
 341              		.file 22 "lib/e-puck2_main-processor/ChibiOS//os/rt/include/chregistry.h"
 342              		.file 23 "modules/headers/mod_communication.h"
 343              		.file 24 "lib/e-puck2_main-processor/ChibiOS//os/rt/include/chthreads.h"
 344              		.file 25 "modules/headers/mod_mapping.h"
 345              		.section	.debug_info,"",%progbits
 346              	.Ldebug_info0:
 347 0000 47130000 		.4byte	0x1347
 348 0004 0400     		.2byte	0x4
 349 0006 00000000 		.4byte	.Ldebug_abbrev0
 350 000a 04       		.byte	0x4
 351 000b 01       		.uleb128 0x1
 352 000c 7B000000 		.4byte	.LASF278
 353 0010 0C       		.byte	0xc
 354 0011 28020000 		.4byte	.LASF279
 355 0015 7B020000 		.4byte	.LASF280
 356 0019 00000000 		.4byte	.Ldebug_ranges0+0
 357 001d 00000000 		.4byte	0
 358 0021 00000000 		.4byte	.Ldebug_line0
 359 0025 02       		.uleb128 0x2
 360 0026 07       		.byte	0x7
 361 0027 01       		.byte	0x1
 362 0028 3F000000 		.4byte	0x3f
 363 002c 02       		.byte	0x2
 364 002d 0E       		.byte	0xe
 365 002e 3F000000 		.4byte	0x3f
 366 0032 03       		.uleb128 0x3
 367 0033 50090000 		.4byte	.LASF0
 368 0037 00       		.byte	0
 369 0038 04       		.uleb128 0x4
 370 0039 4E455700 		.ascii	"NEW\000"
 371 003d 01       		.byte	0x1
 372 003e 00       		.byte	0
 373 003f 05       		.uleb128 0x5
 374 0040 01       		.byte	0x1
 375 0041 08       		.byte	0x8
 376 0042 9A040000 		.4byte	.LASF1
 377 0046 06       		.uleb128 0x6
 378 0047 01050000 		.4byte	.LASF6
 379 004b 02       		.byte	0x2
 380 004c 11       		.byte	0x11
 381 004d 25000000 		.4byte	0x25
 382 0051 05       		.uleb128 0x5
 383 0052 04       		.byte	0x4
 384 0053 07       		.byte	0x7
 385 0054 65080000 		.4byte	.LASF2
 386 0058 07       		.uleb128 0x7
 387 0059 04       		.byte	0x4
 388 005a 05       		.byte	0x5
 389 005b 696E7400 		.ascii	"int\000"
 390 005f 05       		.uleb128 0x5
 391 0060 08       		.byte	0x8
 392 0061 05       		.byte	0x5
 393 0062 91070000 		.4byte	.LASF3
 394 0066 05       		.uleb128 0x5
ARM GAS  /var/folders/qd/4mxf5pkd0zdf0b9dd1hp39180000gn/T//ccetYF1O.s 			page 8


 395 0067 08       		.byte	0x8
 396 0068 04       		.byte	0x4
 397 0069 6C090000 		.4byte	.LASF4
 398 006d 05       		.uleb128 0x5
 399 006e 01       		.byte	0x1
 400 006f 06       		.byte	0x6
 401 0070 40040000 		.4byte	.LASF5
 402 0074 06       		.uleb128 0x6
 403 0075 40030000 		.4byte	.LASF7
 404 0079 03       		.byte	0x3
 405 007a 2B       		.byte	0x2b
 406 007b 3F000000 		.4byte	0x3f
 407 007f 05       		.uleb128 0x5
 408 0080 02       		.byte	0x2
 409 0081 05       		.byte	0x5
 410 0082 3B0B0000 		.4byte	.LASF8
 411 0086 06       		.uleb128 0x6
 412 0087 28050000 		.4byte	.LASF9
 413 008b 03       		.byte	0x3
 414 008c 39       		.byte	0x39
 415 008d 91000000 		.4byte	0x91
 416 0091 05       		.uleb128 0x5
 417 0092 02       		.byte	0x2
 418 0093 07       		.byte	0x7
 419 0094 520C0000 		.4byte	.LASF10
 420 0098 06       		.uleb128 0x6
 421 0099 A90C0000 		.4byte	.LASF11
 422 009d 03       		.byte	0x3
 423 009e 4D       		.byte	0x4d
 424 009f A3000000 		.4byte	0xa3
 425 00a3 05       		.uleb128 0x5
 426 00a4 04       		.byte	0x4
 427 00a5 05       		.byte	0x5
 428 00a6 89030000 		.4byte	.LASF12
 429 00aa 06       		.uleb128 0x6
 430 00ab 6A070000 		.4byte	.LASF13
 431 00af 03       		.byte	0x3
 432 00b0 4F       		.byte	0x4f
 433 00b1 B5000000 		.4byte	0xb5
 434 00b5 05       		.uleb128 0x5
 435 00b6 04       		.byte	0x4
 436 00b7 07       		.byte	0x7
 437 00b8 57060000 		.4byte	.LASF14
 438 00bc 06       		.uleb128 0x6
 439 00bd 47060000 		.4byte	.LASF15
 440 00c1 03       		.byte	0x3
 441 00c2 69       		.byte	0x69
 442 00c3 C7000000 		.4byte	0xc7
 443 00c7 05       		.uleb128 0x5
 444 00c8 08       		.byte	0x8
 445 00c9 07       		.byte	0x7
 446 00ca EF090000 		.4byte	.LASF16
 447 00ce 06       		.uleb128 0x6
 448 00cf C10B0000 		.4byte	.LASF17
 449 00d3 04       		.byte	0x4
 450 00d4 22       		.byte	0x22
 451 00d5 D9000000 		.4byte	0xd9
ARM GAS  /var/folders/qd/4mxf5pkd0zdf0b9dd1hp39180000gn/T//ccetYF1O.s 			page 9


 452 00d9 08       		.uleb128 0x8
 453 00da 04       		.byte	0x4
 454 00db DF000000 		.4byte	0xdf
 455 00df 09       		.uleb128 0x9
 456 00e0 F4050000 		.4byte	.LASF124
 457 00e4 06       		.uleb128 0x6
 458 00e5 3F0C0000 		.4byte	.LASF18
 459 00e9 05       		.byte	0x5
 460 00ea 2C       		.byte	0x2c
 461 00eb A3000000 		.4byte	0xa3
 462 00ef 06       		.uleb128 0x6
 463 00f0 AE090000 		.4byte	.LASF19
 464 00f4 05       		.byte	0x5
 465 00f5 72       		.byte	0x72
 466 00f6 A3000000 		.4byte	0xa3
 467 00fa 0A       		.uleb128 0xa
 468 00fb E10A0000 		.4byte	.LASF20
 469 00ff 06       		.byte	0x6
 470 0100 6501     		.2byte	0x165
 471 0102 51000000 		.4byte	0x51
 472 0106 0B       		.uleb128 0xb
 473 0107 04       		.byte	0x4
 474 0108 05       		.byte	0x5
 475 0109 A6       		.byte	0xa6
 476 010a 25010000 		.4byte	0x125
 477 010e 0C       		.uleb128 0xc
 478 010f 31030000 		.4byte	.LASF21
 479 0113 05       		.byte	0x5
 480 0114 A8       		.byte	0xa8
 481 0115 FA000000 		.4byte	0xfa
 482 0119 0C       		.uleb128 0xc
 483 011a B6090000 		.4byte	.LASF22
 484 011e 05       		.byte	0x5
 485 011f A9       		.byte	0xa9
 486 0120 25010000 		.4byte	0x125
 487 0124 00       		.byte	0
 488 0125 0D       		.uleb128 0xd
 489 0126 3F000000 		.4byte	0x3f
 490 012a 35010000 		.4byte	0x135
 491 012e 0E       		.uleb128 0xe
 492 012f 51000000 		.4byte	0x51
 493 0133 03       		.byte	0x3
 494 0134 00       		.byte	0
 495 0135 0F       		.uleb128 0xf
 496 0136 08       		.byte	0x8
 497 0137 05       		.byte	0x5
 498 0138 A3       		.byte	0xa3
 499 0139 56010000 		.4byte	0x156
 500 013d 10       		.uleb128 0x10
 501 013e 48090000 		.4byte	.LASF23
 502 0142 05       		.byte	0x5
 503 0143 A5       		.byte	0xa5
 504 0144 58000000 		.4byte	0x58
 505 0148 00       		.byte	0
 506 0149 10       		.uleb128 0x10
 507 014a 36000000 		.4byte	.LASF24
 508 014e 05       		.byte	0x5
ARM GAS  /var/folders/qd/4mxf5pkd0zdf0b9dd1hp39180000gn/T//ccetYF1O.s 			page 10


 509 014f AA       		.byte	0xaa
 510 0150 06010000 		.4byte	0x106
 511 0154 04       		.byte	0x4
 512 0155 00       		.byte	0
 513 0156 06       		.uleb128 0x6
 514 0157 C90A0000 		.4byte	.LASF25
 515 015b 05       		.byte	0x5
 516 015c AB       		.byte	0xab
 517 015d 35010000 		.4byte	0x135
 518 0161 06       		.uleb128 0x6
 519 0162 970A0000 		.4byte	.LASF26
 520 0166 05       		.byte	0x5
 521 0167 AF       		.byte	0xaf
 522 0168 CE000000 		.4byte	0xce
 523 016c 11       		.uleb128 0x11
 524 016d 04       		.byte	0x4
 525 016e 08       		.uleb128 0x8
 526 016f 04       		.byte	0x4
 527 0170 74010000 		.4byte	0x174
 528 0174 05       		.uleb128 0x5
 529 0175 01       		.byte	0x1
 530 0176 08       		.byte	0x8
 531 0177 FC040000 		.4byte	.LASF27
 532 017b 12       		.uleb128 0x12
 533 017c 74010000 		.4byte	0x174
 534 0180 06       		.uleb128 0x6
 535 0181 110C0000 		.4byte	.LASF28
 536 0185 07       		.byte	0x7
 537 0186 16       		.byte	0x16
 538 0187 B5000000 		.4byte	0xb5
 539 018b 13       		.uleb128 0x13
 540 018c 13070000 		.4byte	.LASF33
 541 0190 18       		.byte	0x18
 542 0191 07       		.byte	0x7
 543 0192 2F       		.byte	0x2f
 544 0193 DE010000 		.4byte	0x1de
 545 0197 10       		.uleb128 0x10
 546 0198 E80A0000 		.4byte	.LASF29
 547 019c 07       		.byte	0x7
 548 019d 31       		.byte	0x31
 549 019e DE010000 		.4byte	0x1de
 550 01a2 00       		.byte	0
 551 01a3 14       		.uleb128 0x14
 552 01a4 5F6B00   		.ascii	"_k\000"
 553 01a7 07       		.byte	0x7
 554 01a8 32       		.byte	0x32
 555 01a9 58000000 		.4byte	0x58
 556 01ad 04       		.byte	0x4
 557 01ae 10       		.uleb128 0x10
 558 01af 3A070000 		.4byte	.LASF30
 559 01b3 07       		.byte	0x7
 560 01b4 32       		.byte	0x32
 561 01b5 58000000 		.4byte	0x58
 562 01b9 08       		.byte	0x8
 563 01ba 10       		.uleb128 0x10
 564 01bb 1E080000 		.4byte	.LASF31
 565 01bf 07       		.byte	0x7
ARM GAS  /var/folders/qd/4mxf5pkd0zdf0b9dd1hp39180000gn/T//ccetYF1O.s 			page 11


 566 01c0 32       		.byte	0x32
 567 01c1 58000000 		.4byte	0x58
 568 01c5 0C       		.byte	0xc
 569 01c6 10       		.uleb128 0x10
 570 01c7 E1050000 		.4byte	.LASF32
 571 01cb 07       		.byte	0x7
 572 01cc 32       		.byte	0x32
 573 01cd 58000000 		.4byte	0x58
 574 01d1 10       		.byte	0x10
 575 01d2 14       		.uleb128 0x14
 576 01d3 5F7800   		.ascii	"_x\000"
 577 01d6 07       		.byte	0x7
 578 01d7 33       		.byte	0x33
 579 01d8 E4010000 		.4byte	0x1e4
 580 01dc 14       		.byte	0x14
 581 01dd 00       		.byte	0
 582 01de 08       		.uleb128 0x8
 583 01df 04       		.byte	0x4
 584 01e0 8B010000 		.4byte	0x18b
 585 01e4 0D       		.uleb128 0xd
 586 01e5 80010000 		.4byte	0x180
 587 01e9 F4010000 		.4byte	0x1f4
 588 01ed 0E       		.uleb128 0xe
 589 01ee 51000000 		.4byte	0x51
 590 01f2 00       		.byte	0
 591 01f3 00       		.byte	0
 592 01f4 13       		.uleb128 0x13
 593 01f5 4C020000 		.4byte	.LASF34
 594 01f9 24       		.byte	0x24
 595 01fa 07       		.byte	0x7
 596 01fb 37       		.byte	0x37
 597 01fc 6D020000 		.4byte	0x26d
 598 0200 10       		.uleb128 0x10
 599 0201 68020000 		.4byte	.LASF35
 600 0205 07       		.byte	0x7
 601 0206 39       		.byte	0x39
 602 0207 58000000 		.4byte	0x58
 603 020b 00       		.byte	0
 604 020c 10       		.uleb128 0x10
 605 020d ED0C0000 		.4byte	.LASF36
 606 0211 07       		.byte	0x7
 607 0212 3A       		.byte	0x3a
 608 0213 58000000 		.4byte	0x58
 609 0217 04       		.byte	0x4
 610 0218 10       		.uleb128 0x10
 611 0219 650C0000 		.4byte	.LASF37
 612 021d 07       		.byte	0x7
 613 021e 3B       		.byte	0x3b
 614 021f 58000000 		.4byte	0x58
 615 0223 08       		.byte	0x8
 616 0224 10       		.uleb128 0x10
 617 0225 BE080000 		.4byte	.LASF38
 618 0229 07       		.byte	0x7
 619 022a 3C       		.byte	0x3c
 620 022b 58000000 		.4byte	0x58
 621 022f 0C       		.byte	0xc
 622 0230 10       		.uleb128 0x10
ARM GAS  /var/folders/qd/4mxf5pkd0zdf0b9dd1hp39180000gn/T//ccetYF1O.s 			page 12


 623 0231 2A040000 		.4byte	.LASF39
 624 0235 07       		.byte	0x7
 625 0236 3D       		.byte	0x3d
 626 0237 58000000 		.4byte	0x58
 627 023b 10       		.byte	0x10
 628 023c 10       		.uleb128 0x10
 629 023d 810B0000 		.4byte	.LASF40
 630 0241 07       		.byte	0x7
 631 0242 3E       		.byte	0x3e
 632 0243 58000000 		.4byte	0x58
 633 0247 14       		.byte	0x14
 634 0248 10       		.uleb128 0x10
 635 0249 59090000 		.4byte	.LASF41
 636 024d 07       		.byte	0x7
 637 024e 3F       		.byte	0x3f
 638 024f 58000000 		.4byte	0x58
 639 0253 18       		.byte	0x18
 640 0254 10       		.uleb128 0x10
 641 0255 78090000 		.4byte	.LASF42
 642 0259 07       		.byte	0x7
 643 025a 40       		.byte	0x40
 644 025b 58000000 		.4byte	0x58
 645 025f 1C       		.byte	0x1c
 646 0260 10       		.uleb128 0x10
 647 0261 C50C0000 		.4byte	.LASF43
 648 0265 07       		.byte	0x7
 649 0266 41       		.byte	0x41
 650 0267 58000000 		.4byte	0x58
 651 026b 20       		.byte	0x20
 652 026c 00       		.byte	0
 653 026d 15       		.uleb128 0x15
 654 026e 65030000 		.4byte	.LASF44
 655 0272 0801     		.2byte	0x108
 656 0274 07       		.byte	0x7
 657 0275 4A       		.byte	0x4a
 658 0276 AD020000 		.4byte	0x2ad
 659 027a 10       		.uleb128 0x10
 660 027b BD0C0000 		.4byte	.LASF45
 661 027f 07       		.byte	0x7
 662 0280 4B       		.byte	0x4b
 663 0281 AD020000 		.4byte	0x2ad
 664 0285 00       		.byte	0
 665 0286 10       		.uleb128 0x10
 666 0287 170A0000 		.4byte	.LASF46
 667 028b 07       		.byte	0x7
 668 028c 4C       		.byte	0x4c
 669 028d AD020000 		.4byte	0x2ad
 670 0291 80       		.byte	0x80
 671 0292 16       		.uleb128 0x16
 672 0293 610B0000 		.4byte	.LASF47
 673 0297 07       		.byte	0x7
 674 0298 4E       		.byte	0x4e
 675 0299 80010000 		.4byte	0x180
 676 029d 0001     		.2byte	0x100
 677 029f 16       		.uleb128 0x16
 678 02a0 B90B0000 		.4byte	.LASF48
 679 02a4 07       		.byte	0x7
ARM GAS  /var/folders/qd/4mxf5pkd0zdf0b9dd1hp39180000gn/T//ccetYF1O.s 			page 13


 680 02a5 51       		.byte	0x51
 681 02a6 80010000 		.4byte	0x180
 682 02aa 0401     		.2byte	0x104
 683 02ac 00       		.byte	0
 684 02ad 0D       		.uleb128 0xd
 685 02ae 6C010000 		.4byte	0x16c
 686 02b2 BD020000 		.4byte	0x2bd
 687 02b6 0E       		.uleb128 0xe
 688 02b7 51000000 		.4byte	0x51
 689 02bb 1F       		.byte	0x1f
 690 02bc 00       		.byte	0
 691 02bd 15       		.uleb128 0x15
 692 02be 2D090000 		.4byte	.LASF49
 693 02c2 9001     		.2byte	0x190
 694 02c4 07       		.byte	0x7
 695 02c5 5D       		.byte	0x5d
 696 02c6 FB020000 		.4byte	0x2fb
 697 02ca 10       		.uleb128 0x10
 698 02cb E80A0000 		.4byte	.LASF29
 699 02cf 07       		.byte	0x7
 700 02d0 5E       		.byte	0x5e
 701 02d1 FB020000 		.4byte	0x2fb
 702 02d5 00       		.byte	0
 703 02d6 10       		.uleb128 0x10
 704 02d7 AD0B0000 		.4byte	.LASF50
 705 02db 07       		.byte	0x7
 706 02dc 5F       		.byte	0x5f
 707 02dd 58000000 		.4byte	0x58
 708 02e1 04       		.byte	0x4
 709 02e2 10       		.uleb128 0x10
 710 02e3 15050000 		.4byte	.LASF51
 711 02e7 07       		.byte	0x7
 712 02e8 61       		.byte	0x61
 713 02e9 01030000 		.4byte	0x301
 714 02ed 08       		.byte	0x8
 715 02ee 10       		.uleb128 0x10
 716 02ef 65030000 		.4byte	.LASF44
 717 02f3 07       		.byte	0x7
 718 02f4 62       		.byte	0x62
 719 02f5 6D020000 		.4byte	0x26d
 720 02f9 88       		.byte	0x88
 721 02fa 00       		.byte	0
 722 02fb 08       		.uleb128 0x8
 723 02fc 04       		.byte	0x4
 724 02fd BD020000 		.4byte	0x2bd
 725 0301 0D       		.uleb128 0xd
 726 0302 11030000 		.4byte	0x311
 727 0306 11030000 		.4byte	0x311
 728 030a 0E       		.uleb128 0xe
 729 030b 51000000 		.4byte	0x51
 730 030f 1F       		.byte	0x1f
 731 0310 00       		.byte	0
 732 0311 08       		.uleb128 0x8
 733 0312 04       		.byte	0x4
 734 0313 17030000 		.4byte	0x317
 735 0317 17       		.uleb128 0x17
 736 0318 13       		.uleb128 0x13
ARM GAS  /var/folders/qd/4mxf5pkd0zdf0b9dd1hp39180000gn/T//ccetYF1O.s 			page 14


 737 0319 B20B0000 		.4byte	.LASF52
 738 031d 08       		.byte	0x8
 739 031e 07       		.byte	0x7
 740 031f 75       		.byte	0x75
 741 0320 3D030000 		.4byte	0x33d
 742 0324 10       		.uleb128 0x10
 743 0325 6A0A0000 		.4byte	.LASF53
 744 0329 07       		.byte	0x7
 745 032a 76       		.byte	0x76
 746 032b 3D030000 		.4byte	0x33d
 747 032f 00       		.byte	0
 748 0330 10       		.uleb128 0x10
 749 0331 BC030000 		.4byte	.LASF54
 750 0335 07       		.byte	0x7
 751 0336 77       		.byte	0x77
 752 0337 58000000 		.4byte	0x58
 753 033b 04       		.byte	0x4
 754 033c 00       		.byte	0
 755 033d 08       		.uleb128 0x8
 756 033e 04       		.byte	0x4
 757 033f 3F000000 		.4byte	0x3f
 758 0343 13       		.uleb128 0x13
 759 0344 71060000 		.4byte	.LASF55
 760 0348 68       		.byte	0x68
 761 0349 07       		.byte	0x7
 762 034a B5       		.byte	0xb5
 763 034b 6D040000 		.4byte	0x46d
 764 034f 14       		.uleb128 0x14
 765 0350 5F7000   		.ascii	"_p\000"
 766 0353 07       		.byte	0x7
 767 0354 B6       		.byte	0xb6
 768 0355 3D030000 		.4byte	0x33d
 769 0359 00       		.byte	0
 770 035a 14       		.uleb128 0x14
 771 035b 5F7200   		.ascii	"_r\000"
 772 035e 07       		.byte	0x7
 773 035f B7       		.byte	0xb7
 774 0360 58000000 		.4byte	0x58
 775 0364 04       		.byte	0x4
 776 0365 14       		.uleb128 0x14
 777 0366 5F7700   		.ascii	"_w\000"
 778 0369 07       		.byte	0x7
 779 036a B8       		.byte	0xb8
 780 036b 58000000 		.4byte	0x58
 781 036f 08       		.byte	0x8
 782 0370 10       		.uleb128 0x10
 783 0371 0C090000 		.4byte	.LASF56
 784 0375 07       		.byte	0x7
 785 0376 B9       		.byte	0xb9
 786 0377 7F000000 		.4byte	0x7f
 787 037b 0C       		.byte	0xc
 788 037c 10       		.uleb128 0x10
 789 037d 51030000 		.4byte	.LASF57
 790 0381 07       		.byte	0x7
 791 0382 BA       		.byte	0xba
 792 0383 7F000000 		.4byte	0x7f
 793 0387 0E       		.byte	0xe
ARM GAS  /var/folders/qd/4mxf5pkd0zdf0b9dd1hp39180000gn/T//ccetYF1O.s 			page 15


 794 0388 14       		.uleb128 0x14
 795 0389 5F626600 		.ascii	"_bf\000"
 796 038d 07       		.byte	0x7
 797 038e BB       		.byte	0xbb
 798 038f 18030000 		.4byte	0x318
 799 0393 10       		.byte	0x10
 800 0394 10       		.uleb128 0x10
 801 0395 980B0000 		.4byte	.LASF58
 802 0399 07       		.byte	0x7
 803 039a BC       		.byte	0xbc
 804 039b 58000000 		.4byte	0x58
 805 039f 18       		.byte	0x18
 806 03a0 10       		.uleb128 0x10
 807 03a1 B5050000 		.4byte	.LASF59
 808 03a5 07       		.byte	0x7
 809 03a6 C3       		.byte	0xc3
 810 03a7 6C010000 		.4byte	0x16c
 811 03ab 1C       		.byte	0x1c
 812 03ac 10       		.uleb128 0x10
 813 03ad 6D000000 		.4byte	.LASF60
 814 03b1 07       		.byte	0x7
 815 03b2 C5       		.byte	0xc5
 816 03b3 C8050000 		.4byte	0x5c8
 817 03b7 20       		.byte	0x20
 818 03b8 10       		.uleb128 0x10
 819 03b9 D3010000 		.4byte	.LASF61
 820 03bd 07       		.byte	0x7
 821 03be C7       		.byte	0xc7
 822 03bf F7050000 		.4byte	0x5f7
 823 03c3 24       		.byte	0x24
 824 03c4 10       		.uleb128 0x10
 825 03c5 9F090000 		.4byte	.LASF62
 826 03c9 07       		.byte	0x7
 827 03ca CA       		.byte	0xca
 828 03cb 1B060000 		.4byte	0x61b
 829 03cf 28       		.byte	0x28
 830 03d0 10       		.uleb128 0x10
 831 03d1 1A050000 		.4byte	.LASF63
 832 03d5 07       		.byte	0x7
 833 03d6 CB       		.byte	0xcb
 834 03d7 35060000 		.4byte	0x635
 835 03db 2C       		.byte	0x2c
 836 03dc 14       		.uleb128 0x14
 837 03dd 5F756200 		.ascii	"_ub\000"
 838 03e1 07       		.byte	0x7
 839 03e2 CE       		.byte	0xce
 840 03e3 18030000 		.4byte	0x318
 841 03e7 30       		.byte	0x30
 842 03e8 14       		.uleb128 0x14
 843 03e9 5F757000 		.ascii	"_up\000"
 844 03ed 07       		.byte	0x7
 845 03ee CF       		.byte	0xcf
 846 03ef 3D030000 		.4byte	0x33d
 847 03f3 38       		.byte	0x38
 848 03f4 14       		.uleb128 0x14
 849 03f5 5F757200 		.ascii	"_ur\000"
 850 03f9 07       		.byte	0x7
ARM GAS  /var/folders/qd/4mxf5pkd0zdf0b9dd1hp39180000gn/T//ccetYF1O.s 			page 16


 851 03fa D0       		.byte	0xd0
 852 03fb 58000000 		.4byte	0x58
 853 03ff 3C       		.byte	0x3c
 854 0400 10       		.uleb128 0x10
 855 0401 DC080000 		.4byte	.LASF64
 856 0405 07       		.byte	0x7
 857 0406 D3       		.byte	0xd3
 858 0407 3B060000 		.4byte	0x63b
 859 040b 40       		.byte	0x40
 860 040c 10       		.uleb128 0x10
 861 040d 62020000 		.4byte	.LASF65
 862 0411 07       		.byte	0x7
 863 0412 D4       		.byte	0xd4
 864 0413 4B060000 		.4byte	0x64b
 865 0417 43       		.byte	0x43
 866 0418 14       		.uleb128 0x14
 867 0419 5F6C6200 		.ascii	"_lb\000"
 868 041d 07       		.byte	0x7
 869 041e D7       		.byte	0xd7
 870 041f 18030000 		.4byte	0x318
 871 0423 44       		.byte	0x44
 872 0424 10       		.uleb128 0x10
 873 0425 610A0000 		.4byte	.LASF66
 874 0429 07       		.byte	0x7
 875 042a DA       		.byte	0xda
 876 042b 58000000 		.4byte	0x58
 877 042f 4C       		.byte	0x4c
 878 0430 10       		.uleb128 0x10
 879 0431 05060000 		.4byte	.LASF67
 880 0435 07       		.byte	0x7
 881 0436 DB       		.byte	0xdb
 882 0437 E4000000 		.4byte	0xe4
 883 043b 50       		.byte	0x50
 884 043c 10       		.uleb128 0x10
 885 043d EE0A0000 		.4byte	.LASF68
 886 0441 07       		.byte	0x7
 887 0442 DE       		.byte	0xde
 888 0443 8B040000 		.4byte	0x48b
 889 0447 54       		.byte	0x54
 890 0448 10       		.uleb128 0x10
 891 0449 DC020000 		.4byte	.LASF69
 892 044d 07       		.byte	0x7
 893 044e E2       		.byte	0xe2
 894 044f 61010000 		.4byte	0x161
 895 0453 58       		.byte	0x58
 896 0454 10       		.uleb128 0x10
 897 0455 F8080000 		.4byte	.LASF70
 898 0459 07       		.byte	0x7
 899 045a E4       		.byte	0xe4
 900 045b 56010000 		.4byte	0x156
 901 045f 5C       		.byte	0x5c
 902 0460 10       		.uleb128 0x10
 903 0461 84060000 		.4byte	.LASF71
 904 0465 07       		.byte	0x7
 905 0466 E5       		.byte	0xe5
 906 0467 58000000 		.4byte	0x58
 907 046b 64       		.byte	0x64
ARM GAS  /var/folders/qd/4mxf5pkd0zdf0b9dd1hp39180000gn/T//ccetYF1O.s 			page 17


 908 046c 00       		.byte	0
 909 046d 18       		.uleb128 0x18
 910 046e 58000000 		.4byte	0x58
 911 0472 8B040000 		.4byte	0x48b
 912 0476 19       		.uleb128 0x19
 913 0477 8B040000 		.4byte	0x48b
 914 047b 19       		.uleb128 0x19
 915 047c 6C010000 		.4byte	0x16c
 916 0480 19       		.uleb128 0x19
 917 0481 6E010000 		.4byte	0x16e
 918 0485 19       		.uleb128 0x19
 919 0486 58000000 		.4byte	0x58
 920 048a 00       		.byte	0
 921 048b 08       		.uleb128 0x8
 922 048c 04       		.byte	0x4
 923 048d 96040000 		.4byte	0x496
 924 0491 12       		.uleb128 0x12
 925 0492 8B040000 		.4byte	0x48b
 926 0496 1A       		.uleb128 0x1a
 927 0497 CB040000 		.4byte	.LASF72
 928 049b 2804     		.2byte	0x428
 929 049d 07       		.byte	0x7
 930 049e 3902     		.2byte	0x239
 931 04a0 C8050000 		.4byte	0x5c8
 932 04a4 1B       		.uleb128 0x1b
 933 04a5 C9060000 		.4byte	.LASF73
 934 04a9 07       		.byte	0x7
 935 04aa 3B02     		.2byte	0x23b
 936 04ac 58000000 		.4byte	0x58
 937 04b0 00       		.byte	0
 938 04b1 1B       		.uleb128 0x1b
 939 04b2 4F050000 		.4byte	.LASF74
 940 04b6 07       		.byte	0x7
 941 04b7 4002     		.2byte	0x240
 942 04b9 A2060000 		.4byte	0x6a2
 943 04bd 04       		.byte	0x4
 944 04be 1B       		.uleb128 0x1b
 945 04bf 4F0A0000 		.4byte	.LASF75
 946 04c3 07       		.byte	0x7
 947 04c4 4002     		.2byte	0x240
 948 04c6 A2060000 		.4byte	0x6a2
 949 04ca 08       		.byte	0x8
 950 04cb 1B       		.uleb128 0x1b
 951 04cc E2080000 		.4byte	.LASF76
 952 04d0 07       		.byte	0x7
 953 04d1 4002     		.2byte	0x240
 954 04d3 A2060000 		.4byte	0x6a2
 955 04d7 0C       		.byte	0xc
 956 04d8 1B       		.uleb128 0x1b
 957 04d9 A80B0000 		.4byte	.LASF77
 958 04dd 07       		.byte	0x7
 959 04de 4202     		.2byte	0x242
 960 04e0 58000000 		.4byte	0x58
 961 04e4 10       		.byte	0x10
 962 04e5 1B       		.uleb128 0x1b
 963 04e6 75070000 		.4byte	.LASF78
 964 04ea 07       		.byte	0x7
ARM GAS  /var/folders/qd/4mxf5pkd0zdf0b9dd1hp39180000gn/T//ccetYF1O.s 			page 18


 965 04eb 4302     		.2byte	0x243
 966 04ed 84080000 		.4byte	0x884
 967 04f1 14       		.byte	0x14
 968 04f2 1B       		.uleb128 0x1b
 969 04f3 B2040000 		.4byte	.LASF79
 970 04f7 07       		.byte	0x7
 971 04f8 4602     		.2byte	0x246
 972 04fa 58000000 		.4byte	0x58
 973 04fe 30       		.byte	0x30
 974 04ff 1B       		.uleb128 0x1b
 975 0500 090C0000 		.4byte	.LASF80
 976 0504 07       		.byte	0x7
 977 0505 4702     		.2byte	0x247
 978 0507 99080000 		.4byte	0x899
 979 050b 34       		.byte	0x34
 980 050c 1B       		.uleb128 0x1b
 981 050d 79060000 		.4byte	.LASF81
 982 0511 07       		.byte	0x7
 983 0512 4902     		.2byte	0x249
 984 0514 58000000 		.4byte	0x58
 985 0518 38       		.byte	0x38
 986 0519 1B       		.uleb128 0x1b
 987 051a 48070000 		.4byte	.LASF82
 988 051e 07       		.byte	0x7
 989 051f 4B02     		.2byte	0x24b
 990 0521 AA080000 		.4byte	0x8aa
 991 0525 3C       		.byte	0x3c
 992 0526 1B       		.uleb128 0x1b
 993 0527 370C0000 		.4byte	.LASF83
 994 052b 07       		.byte	0x7
 995 052c 4E02     		.2byte	0x24e
 996 052e DE010000 		.4byte	0x1de
 997 0532 40       		.byte	0x40
 998 0533 1B       		.uleb128 0x1b
 999 0534 A5030000 		.4byte	.LASF84
 1000 0538 07       		.byte	0x7
 1001 0539 4F02     		.2byte	0x24f
 1002 053b 58000000 		.4byte	0x58
 1003 053f 44       		.byte	0x44
 1004 0540 1B       		.uleb128 0x1b
 1005 0541 52060000 		.4byte	.LASF85
 1006 0545 07       		.byte	0x7
 1007 0546 5002     		.2byte	0x250
 1008 0548 DE010000 		.4byte	0x1de
 1009 054c 48       		.byte	0x48
 1010 054d 1B       		.uleb128 0x1b
 1011 054e FB070000 		.4byte	.LASF86
 1012 0552 07       		.byte	0x7
 1013 0553 5102     		.2byte	0x251
 1014 0555 B0080000 		.4byte	0x8b0
 1015 0559 4C       		.byte	0x4c
 1016 055a 1B       		.uleb128 0x1b
 1017 055b F5010000 		.4byte	.LASF87
 1018 055f 07       		.byte	0x7
 1019 0560 5402     		.2byte	0x254
 1020 0562 58000000 		.4byte	0x58
 1021 0566 50       		.byte	0x50
ARM GAS  /var/folders/qd/4mxf5pkd0zdf0b9dd1hp39180000gn/T//ccetYF1O.s 			page 19


 1022 0567 1B       		.uleb128 0x1b
 1023 0568 0D060000 		.4byte	.LASF88
 1024 056c 07       		.byte	0x7
 1025 056d 5502     		.2byte	0x255
 1026 056f 6E010000 		.4byte	0x16e
 1027 0573 54       		.byte	0x54
 1028 0574 1B       		.uleb128 0x1b
 1029 0575 D7080000 		.4byte	.LASF89
 1030 0579 07       		.byte	0x7
 1031 057a 7802     		.2byte	0x278
 1032 057c 62080000 		.4byte	0x862
 1033 0580 58       		.byte	0x58
 1034 0581 1C       		.uleb128 0x1c
 1035 0582 2D090000 		.4byte	.LASF49
 1036 0586 07       		.byte	0x7
 1037 0587 7C02     		.2byte	0x27c
 1038 0589 FB020000 		.4byte	0x2fb
 1039 058d 4801     		.2byte	0x148
 1040 058f 1C       		.uleb128 0x1c
 1041 0590 52070000 		.4byte	.LASF90
 1042 0594 07       		.byte	0x7
 1043 0595 7D02     		.2byte	0x27d
 1044 0597 BD020000 		.4byte	0x2bd
 1045 059b 4C01     		.2byte	0x14c
 1046 059d 1C       		.uleb128 0x1c
 1047 059e FB050000 		.4byte	.LASF91
 1048 05a2 07       		.byte	0x7
 1049 05a3 8102     		.2byte	0x281
 1050 05a5 C1080000 		.4byte	0x8c1
 1051 05a9 DC02     		.2byte	0x2dc
 1052 05ab 1C       		.uleb128 0x1c
 1053 05ac CB070000 		.4byte	.LASF92
 1054 05b0 07       		.byte	0x7
 1055 05b1 8602     		.2byte	0x286
 1056 05b3 67060000 		.4byte	0x667
 1057 05b7 E002     		.2byte	0x2e0
 1058 05b9 1C       		.uleb128 0x1c
 1059 05ba 54000000 		.4byte	.LASF93
 1060 05be 07       		.byte	0x7
 1061 05bf 8802     		.2byte	0x288
 1062 05c1 CD080000 		.4byte	0x8cd
 1063 05c5 EC02     		.2byte	0x2ec
 1064 05c7 00       		.byte	0
 1065 05c8 08       		.uleb128 0x8
 1066 05c9 04       		.byte	0x4
 1067 05ca 6D040000 		.4byte	0x46d
 1068 05ce 18       		.uleb128 0x18
 1069 05cf 58000000 		.4byte	0x58
 1070 05d3 EC050000 		.4byte	0x5ec
 1071 05d7 19       		.uleb128 0x19
 1072 05d8 8B040000 		.4byte	0x48b
 1073 05dc 19       		.uleb128 0x19
 1074 05dd 6C010000 		.4byte	0x16c
 1075 05e1 19       		.uleb128 0x19
 1076 05e2 EC050000 		.4byte	0x5ec
 1077 05e6 19       		.uleb128 0x19
 1078 05e7 58000000 		.4byte	0x58
ARM GAS  /var/folders/qd/4mxf5pkd0zdf0b9dd1hp39180000gn/T//ccetYF1O.s 			page 20


 1079 05eb 00       		.byte	0
 1080 05ec 08       		.uleb128 0x8
 1081 05ed 04       		.byte	0x4
 1082 05ee 7B010000 		.4byte	0x17b
 1083 05f2 1D       		.uleb128 0x1d
 1084 05f3 EC050000 		.4byte	0x5ec
 1085 05f7 08       		.uleb128 0x8
 1086 05f8 04       		.byte	0x4
 1087 05f9 CE050000 		.4byte	0x5ce
 1088 05fd 18       		.uleb128 0x18
 1089 05fe EF000000 		.4byte	0xef
 1090 0602 1B060000 		.4byte	0x61b
 1091 0606 19       		.uleb128 0x19
 1092 0607 8B040000 		.4byte	0x48b
 1093 060b 19       		.uleb128 0x19
 1094 060c 6C010000 		.4byte	0x16c
 1095 0610 19       		.uleb128 0x19
 1096 0611 EF000000 		.4byte	0xef
 1097 0615 19       		.uleb128 0x19
 1098 0616 58000000 		.4byte	0x58
 1099 061a 00       		.byte	0
 1100 061b 08       		.uleb128 0x8
 1101 061c 04       		.byte	0x4
 1102 061d FD050000 		.4byte	0x5fd
 1103 0621 18       		.uleb128 0x18
 1104 0622 58000000 		.4byte	0x58
 1105 0626 35060000 		.4byte	0x635
 1106 062a 19       		.uleb128 0x19
 1107 062b 8B040000 		.4byte	0x48b
 1108 062f 19       		.uleb128 0x19
 1109 0630 6C010000 		.4byte	0x16c
 1110 0634 00       		.byte	0
 1111 0635 08       		.uleb128 0x8
 1112 0636 04       		.byte	0x4
 1113 0637 21060000 		.4byte	0x621
 1114 063b 0D       		.uleb128 0xd
 1115 063c 3F000000 		.4byte	0x3f
 1116 0640 4B060000 		.4byte	0x64b
 1117 0644 0E       		.uleb128 0xe
 1118 0645 51000000 		.4byte	0x51
 1119 0649 02       		.byte	0x2
 1120 064a 00       		.byte	0
 1121 064b 0D       		.uleb128 0xd
 1122 064c 3F000000 		.4byte	0x3f
 1123 0650 5B060000 		.4byte	0x65b
 1124 0654 0E       		.uleb128 0xe
 1125 0655 51000000 		.4byte	0x51
 1126 0659 00       		.byte	0
 1127 065a 00       		.byte	0
 1128 065b 0A       		.uleb128 0xa
 1129 065c A00A0000 		.4byte	.LASF94
 1130 0660 07       		.byte	0x7
 1131 0661 1F01     		.2byte	0x11f
 1132 0663 43030000 		.4byte	0x343
 1133 0667 1E       		.uleb128 0x1e
 1134 0668 0B080000 		.4byte	.LASF95
 1135 066c 0C       		.byte	0xc
ARM GAS  /var/folders/qd/4mxf5pkd0zdf0b9dd1hp39180000gn/T//ccetYF1O.s 			page 21


 1136 066d 07       		.byte	0x7
 1137 066e 2301     		.2byte	0x123
 1138 0670 9C060000 		.4byte	0x69c
 1139 0674 1B       		.uleb128 0x1b
 1140 0675 E80A0000 		.4byte	.LASF29
 1141 0679 07       		.byte	0x7
 1142 067a 2501     		.2byte	0x125
 1143 067c 9C060000 		.4byte	0x69c
 1144 0680 00       		.byte	0
 1145 0681 1B       		.uleb128 0x1b
 1146 0682 B2070000 		.4byte	.LASF96
 1147 0686 07       		.byte	0x7
 1148 0687 2601     		.2byte	0x126
 1149 0689 58000000 		.4byte	0x58
 1150 068d 04       		.byte	0x4
 1151 068e 1B       		.uleb128 0x1b
 1152 068f 05080000 		.4byte	.LASF97
 1153 0693 07       		.byte	0x7
 1154 0694 2701     		.2byte	0x127
 1155 0696 A2060000 		.4byte	0x6a2
 1156 069a 08       		.byte	0x8
 1157 069b 00       		.byte	0
 1158 069c 08       		.uleb128 0x8
 1159 069d 04       		.byte	0x4
 1160 069e 67060000 		.4byte	0x667
 1161 06a2 08       		.uleb128 0x8
 1162 06a3 04       		.byte	0x4
 1163 06a4 5B060000 		.4byte	0x65b
 1164 06a8 1E       		.uleb128 0x1e
 1165 06a9 3A0A0000 		.4byte	.LASF98
 1166 06ad 0E       		.byte	0xe
 1167 06ae 07       		.byte	0x7
 1168 06af 3F01     		.2byte	0x13f
 1169 06b1 DD060000 		.4byte	0x6dd
 1170 06b5 1B       		.uleb128 0x1b
 1171 06b6 99090000 		.4byte	.LASF99
 1172 06ba 07       		.byte	0x7
 1173 06bb 4001     		.2byte	0x140
 1174 06bd DD060000 		.4byte	0x6dd
 1175 06c1 00       		.byte	0
 1176 06c2 1B       		.uleb128 0x1b
 1177 06c3 FB020000 		.4byte	.LASF100
 1178 06c7 07       		.byte	0x7
 1179 06c8 4101     		.2byte	0x141
 1180 06ca DD060000 		.4byte	0x6dd
 1181 06ce 06       		.byte	0x6
 1182 06cf 1B       		.uleb128 0x1b
 1183 06d0 4D0C0000 		.4byte	.LASF101
 1184 06d4 07       		.byte	0x7
 1185 06d5 4201     		.2byte	0x142
 1186 06d7 91000000 		.4byte	0x91
 1187 06db 0C       		.byte	0xc
 1188 06dc 00       		.byte	0
 1189 06dd 0D       		.uleb128 0xd
 1190 06de 91000000 		.4byte	0x91
 1191 06e2 ED060000 		.4byte	0x6ed
 1192 06e6 0E       		.uleb128 0xe
ARM GAS  /var/folders/qd/4mxf5pkd0zdf0b9dd1hp39180000gn/T//ccetYF1O.s 			page 22


 1193 06e7 51000000 		.4byte	0x51
 1194 06eb 02       		.byte	0x2
 1195 06ec 00       		.byte	0
 1196 06ed 1F       		.uleb128 0x1f
 1197 06ee D0       		.byte	0xd0
 1198 06ef 07       		.byte	0x7
 1199 06f0 5902     		.2byte	0x259
 1200 06f2 EE070000 		.4byte	0x7ee
 1201 06f6 1B       		.uleb128 0x1b
 1202 06f7 33040000 		.4byte	.LASF102
 1203 06fb 07       		.byte	0x7
 1204 06fc 5B02     		.2byte	0x25b
 1205 06fe 51000000 		.4byte	0x51
 1206 0702 00       		.byte	0
 1207 0703 1B       		.uleb128 0x1b
 1208 0704 700A0000 		.4byte	.LASF103
 1209 0708 07       		.byte	0x7
 1210 0709 5C02     		.2byte	0x25c
 1211 070b 6E010000 		.4byte	0x16e
 1212 070f 04       		.byte	0x4
 1213 0710 1B       		.uleb128 0x1b
 1214 0711 E8010000 		.4byte	.LASF104
 1215 0715 07       		.byte	0x7
 1216 0716 5D02     		.2byte	0x25d
 1217 0718 EE070000 		.4byte	0x7ee
 1218 071c 08       		.byte	0x8
 1219 071d 1B       		.uleb128 0x1b
 1220 071e C9030000 		.4byte	.LASF105
 1221 0722 07       		.byte	0x7
 1222 0723 5E02     		.2byte	0x25e
 1223 0725 F4010000 		.4byte	0x1f4
 1224 0729 24       		.byte	0x24
 1225 072a 1B       		.uleb128 0x1b
 1226 072b E4070000 		.4byte	.LASF106
 1227 072f 07       		.byte	0x7
 1228 0730 5F02     		.2byte	0x25f
 1229 0732 58000000 		.4byte	0x58
 1230 0736 48       		.byte	0x48
 1231 0737 1B       		.uleb128 0x1b
 1232 0738 01090000 		.4byte	.LASF107
 1233 073c 07       		.byte	0x7
 1234 073d 6002     		.2byte	0x260
 1235 073f C7000000 		.4byte	0xc7
 1236 0743 50       		.byte	0x50
 1237 0744 1B       		.uleb128 0x1b
 1238 0745 DC0A0000 		.4byte	.LASF108
 1239 0749 07       		.byte	0x7
 1240 074a 6102     		.2byte	0x261
 1241 074c A8060000 		.4byte	0x6a8
 1242 0750 58       		.byte	0x58
 1243 0751 1B       		.uleb128 0x1b
 1244 0752 2E0B0000 		.4byte	.LASF109
 1245 0756 07       		.byte	0x7
 1246 0757 6202     		.2byte	0x262
 1247 0759 56010000 		.4byte	0x156
 1248 075d 68       		.byte	0x68
 1249 075e 1B       		.uleb128 0x1b
ARM GAS  /var/folders/qd/4mxf5pkd0zdf0b9dd1hp39180000gn/T//ccetYF1O.s 			page 23


 1250 075f D4090000 		.4byte	.LASF110
 1251 0763 07       		.byte	0x7
 1252 0764 6302     		.2byte	0x263
 1253 0766 56010000 		.4byte	0x156
 1254 076a 70       		.byte	0x70
 1255 076b 1B       		.uleb128 0x1b
 1256 076c EA080000 		.4byte	.LASF111
 1257 0770 07       		.byte	0x7
 1258 0771 6402     		.2byte	0x264
 1259 0773 56010000 		.4byte	0x156
 1260 0777 78       		.byte	0x78
 1261 0778 1B       		.uleb128 0x1b
 1262 0779 71020000 		.4byte	.LASF112
 1263 077d 07       		.byte	0x7
 1264 077e 6502     		.2byte	0x265
 1265 0780 FE070000 		.4byte	0x7fe
 1266 0784 80       		.byte	0x80
 1267 0785 1B       		.uleb128 0x1b
 1268 0786 ED060000 		.4byte	.LASF113
 1269 078a 07       		.byte	0x7
 1270 078b 6602     		.2byte	0x266
 1271 078d 0E080000 		.4byte	0x80e
 1272 0791 88       		.byte	0x88
 1273 0792 1B       		.uleb128 0x1b
 1274 0793 F60C0000 		.4byte	.LASF114
 1275 0797 07       		.byte	0x7
 1276 0798 6702     		.2byte	0x267
 1277 079a 58000000 		.4byte	0x58
 1278 079e A0       		.byte	0xa0
 1279 079f 1B       		.uleb128 0x1b
 1280 07a0 7B030000 		.4byte	.LASF115
 1281 07a4 07       		.byte	0x7
 1282 07a5 6802     		.2byte	0x268
 1283 07a7 56010000 		.4byte	0x156
 1284 07ab A4       		.byte	0xa4
 1285 07ac 1B       		.uleb128 0x1b
 1286 07ad 7D0A0000 		.4byte	.LASF116
 1287 07b1 07       		.byte	0x7
 1288 07b2 6902     		.2byte	0x269
 1289 07b4 56010000 		.4byte	0x156
 1290 07b8 AC       		.byte	0xac
 1291 07b9 1B       		.uleb128 0x1b
 1292 07ba 8D0C0000 		.4byte	.LASF117
 1293 07be 07       		.byte	0x7
 1294 07bf 6A02     		.2byte	0x26a
 1295 07c1 56010000 		.4byte	0x156
 1296 07c5 B4       		.byte	0xb4
 1297 07c6 1B       		.uleb128 0x1b
 1298 07c7 AF080000 		.4byte	.LASF118
 1299 07cb 07       		.byte	0x7
 1300 07cc 6B02     		.2byte	0x26b
 1301 07ce 56010000 		.4byte	0x156
 1302 07d2 BC       		.byte	0xbc
 1303 07d3 1B       		.uleb128 0x1b
 1304 07d4 51020000 		.4byte	.LASF119
 1305 07d8 07       		.byte	0x7
 1306 07d9 6C02     		.2byte	0x26c
ARM GAS  /var/folders/qd/4mxf5pkd0zdf0b9dd1hp39180000gn/T//ccetYF1O.s 			page 24


 1307 07db 56010000 		.4byte	0x156
 1308 07df C4       		.byte	0xc4
 1309 07e0 1B       		.uleb128 0x1b
 1310 07e1 93080000 		.4byte	.LASF120
 1311 07e5 07       		.byte	0x7
 1312 07e6 6D02     		.2byte	0x26d
 1313 07e8 58000000 		.4byte	0x58
 1314 07ec CC       		.byte	0xcc
 1315 07ed 00       		.byte	0
 1316 07ee 0D       		.uleb128 0xd
 1317 07ef 74010000 		.4byte	0x174
 1318 07f3 FE070000 		.4byte	0x7fe
 1319 07f7 0E       		.uleb128 0xe
 1320 07f8 51000000 		.4byte	0x51
 1321 07fc 19       		.byte	0x19
 1322 07fd 00       		.byte	0
 1323 07fe 0D       		.uleb128 0xd
 1324 07ff 74010000 		.4byte	0x174
 1325 0803 0E080000 		.4byte	0x80e
 1326 0807 0E       		.uleb128 0xe
 1327 0808 51000000 		.4byte	0x51
 1328 080c 07       		.byte	0x7
 1329 080d 00       		.byte	0
 1330 080e 0D       		.uleb128 0xd
 1331 080f 74010000 		.4byte	0x174
 1332 0813 1E080000 		.4byte	0x81e
 1333 0817 0E       		.uleb128 0xe
 1334 0818 51000000 		.4byte	0x51
 1335 081c 17       		.byte	0x17
 1336 081d 00       		.byte	0
 1337 081e 1F       		.uleb128 0x1f
 1338 081f F0       		.byte	0xf0
 1339 0820 07       		.byte	0x7
 1340 0821 7202     		.2byte	0x272
 1341 0823 42080000 		.4byte	0x842
 1342 0827 1B       		.uleb128 0x1b
 1343 0828 D90B0000 		.4byte	.LASF121
 1344 082c 07       		.byte	0x7
 1345 082d 7502     		.2byte	0x275
 1346 082f 42080000 		.4byte	0x842
 1347 0833 00       		.byte	0
 1348 0834 1B       		.uleb128 0x1b
 1349 0835 D3070000 		.4byte	.LASF122
 1350 0839 07       		.byte	0x7
 1351 083a 7602     		.2byte	0x276
 1352 083c 52080000 		.4byte	0x852
 1353 0840 78       		.byte	0x78
 1354 0841 00       		.byte	0
 1355 0842 0D       		.uleb128 0xd
 1356 0843 3D030000 		.4byte	0x33d
 1357 0847 52080000 		.4byte	0x852
 1358 084b 0E       		.uleb128 0xe
 1359 084c 51000000 		.4byte	0x51
 1360 0850 1D       		.byte	0x1d
 1361 0851 00       		.byte	0
 1362 0852 0D       		.uleb128 0xd
 1363 0853 51000000 		.4byte	0x51
ARM GAS  /var/folders/qd/4mxf5pkd0zdf0b9dd1hp39180000gn/T//ccetYF1O.s 			page 25


 1364 0857 62080000 		.4byte	0x862
 1365 085b 0E       		.uleb128 0xe
 1366 085c 51000000 		.4byte	0x51
 1367 0860 1D       		.byte	0x1d
 1368 0861 00       		.byte	0
 1369 0862 20       		.uleb128 0x20
 1370 0863 F0       		.byte	0xf0
 1371 0864 07       		.byte	0x7
 1372 0865 5702     		.2byte	0x257
 1373 0867 84080000 		.4byte	0x884
 1374 086b 21       		.uleb128 0x21
 1375 086c CB040000 		.4byte	.LASF72
 1376 0870 07       		.byte	0x7
 1377 0871 6E02     		.2byte	0x26e
 1378 0873 ED060000 		.4byte	0x6ed
 1379 0877 21       		.uleb128 0x21
 1380 0878 44020000 		.4byte	.LASF123
 1381 087c 07       		.byte	0x7
 1382 087d 7702     		.2byte	0x277
 1383 087f 1E080000 		.4byte	0x81e
 1384 0883 00       		.byte	0
 1385 0884 0D       		.uleb128 0xd
 1386 0885 74010000 		.4byte	0x174
 1387 0889 94080000 		.4byte	0x894
 1388 088d 0E       		.uleb128 0xe
 1389 088e 51000000 		.4byte	0x51
 1390 0892 18       		.byte	0x18
 1391 0893 00       		.byte	0
 1392 0894 09       		.uleb128 0x9
 1393 0895 2B000000 		.4byte	.LASF125
 1394 0899 08       		.uleb128 0x8
 1395 089a 04       		.byte	0x4
 1396 089b 94080000 		.4byte	0x894
 1397 089f 22       		.uleb128 0x22
 1398 08a0 AA080000 		.4byte	0x8aa
 1399 08a4 19       		.uleb128 0x19
 1400 08a5 8B040000 		.4byte	0x48b
 1401 08a9 00       		.byte	0
 1402 08aa 08       		.uleb128 0x8
 1403 08ab 04       		.byte	0x4
 1404 08ac 9F080000 		.4byte	0x89f
 1405 08b0 08       		.uleb128 0x8
 1406 08b1 04       		.byte	0x4
 1407 08b2 DE010000 		.4byte	0x1de
 1408 08b6 22       		.uleb128 0x22
 1409 08b7 C1080000 		.4byte	0x8c1
 1410 08bb 19       		.uleb128 0x19
 1411 08bc 58000000 		.4byte	0x58
 1412 08c0 00       		.byte	0
 1413 08c1 08       		.uleb128 0x8
 1414 08c2 04       		.byte	0x4
 1415 08c3 C7080000 		.4byte	0x8c7
 1416 08c7 08       		.uleb128 0x8
 1417 08c8 04       		.byte	0x4
 1418 08c9 B6080000 		.4byte	0x8b6
 1419 08cd 0D       		.uleb128 0xd
 1420 08ce 5B060000 		.4byte	0x65b
ARM GAS  /var/folders/qd/4mxf5pkd0zdf0b9dd1hp39180000gn/T//ccetYF1O.s 			page 26


 1421 08d2 DD080000 		.4byte	0x8dd
 1422 08d6 0E       		.uleb128 0xe
 1423 08d7 51000000 		.4byte	0x51
 1424 08db 02       		.byte	0x2
 1425 08dc 00       		.byte	0
 1426 08dd 23       		.uleb128 0x23
 1427 08de 99030000 		.4byte	.LASF126
 1428 08e2 07       		.byte	0x7
 1429 08e3 0703     		.2byte	0x307
 1430 08e5 8B040000 		.4byte	0x48b
 1431 08e9 23       		.uleb128 0x23
 1432 08ea DA040000 		.4byte	.LASF127
 1433 08ee 07       		.byte	0x7
 1434 08ef 0803     		.2byte	0x308
 1435 08f1 91040000 		.4byte	0x491
 1436 08f5 24       		.uleb128 0x24
 1437 08f6 570B0000 		.4byte	.LASF128
 1438 08fa 08       		.byte	0x8
 1439 08fb 63       		.byte	0x63
 1440 08fc 6E010000 		.4byte	0x16e
 1441 0900 06       		.uleb128 0x6
 1442 0901 56040000 		.4byte	.LASF129
 1443 0905 09       		.byte	0x9
 1444 0906 18       		.byte	0x18
 1445 0907 74000000 		.4byte	0x74
 1446 090b 06       		.uleb128 0x6
 1447 090c 0E0A0000 		.4byte	.LASF130
 1448 0910 09       		.byte	0x9
 1449 0911 24       		.byte	0x24
 1450 0912 86000000 		.4byte	0x86
 1451 0916 06       		.uleb128 0x6
 1452 0917 E0010000 		.4byte	.LASF131
 1453 091b 09       		.byte	0x9
 1454 091c 2C       		.byte	0x2c
 1455 091d 98000000 		.4byte	0x98
 1456 0921 1D       		.uleb128 0x1d
 1457 0922 16090000 		.4byte	0x916
 1458 0926 06       		.uleb128 0x6
 1459 0927 190C0000 		.4byte	.LASF132
 1460 092b 09       		.byte	0x9
 1461 092c 30       		.byte	0x30
 1462 092d AA000000 		.4byte	0xaa
 1463 0931 06       		.uleb128 0x6
 1464 0932 450B0000 		.4byte	.LASF133
 1465 0936 09       		.byte	0x9
 1466 0937 3C       		.byte	0x3c
 1467 0938 BC000000 		.4byte	0xbc
 1468 093c 06       		.uleb128 0x6
 1469 093d 83080000 		.4byte	.LASF134
 1470 0941 0A       		.byte	0xa
 1471 0942 45       		.byte	0x45
 1472 0943 26090000 		.4byte	0x926
 1473 0947 06       		.uleb128 0x6
 1474 0948 FE030000 		.4byte	.LASF135
 1475 094c 0A       		.byte	0xa
 1476 094d 46       		.byte	0x46
 1477 094e 31090000 		.4byte	0x931
ARM GAS  /var/folders/qd/4mxf5pkd0zdf0b9dd1hp39180000gn/T//ccetYF1O.s 			page 27


 1478 0952 06       		.uleb128 0x6
 1479 0953 FA0A0000 		.4byte	.LASF136
 1480 0957 0A       		.byte	0xa
 1481 0958 48       		.byte	0x48
 1482 0959 00090000 		.4byte	0x900
 1483 095d 06       		.uleb128 0x6
 1484 095e F5030000 		.4byte	.LASF137
 1485 0962 0A       		.byte	0xa
 1486 0963 49       		.byte	0x49
 1487 0964 00090000 		.4byte	0x900
 1488 0968 06       		.uleb128 0x6
 1489 0969 D10B0000 		.4byte	.LASF138
 1490 096d 0A       		.byte	0xa
 1491 096e 4A       		.byte	0x4a
 1492 096f 00090000 		.4byte	0x900
 1493 0973 06       		.uleb128 0x6
 1494 0974 570A0000 		.4byte	.LASF139
 1495 0978 0A       		.byte	0xa
 1496 0979 4B       		.byte	0x4b
 1497 097a 00090000 		.4byte	0x900
 1498 097e 06       		.uleb128 0x6
 1499 097f 73000000 		.4byte	.LASF140
 1500 0983 0A       		.byte	0xa
 1501 0984 4C       		.byte	0x4c
 1502 0985 26090000 		.4byte	0x926
 1503 0989 06       		.uleb128 0x6
 1504 098a 230A0000 		.4byte	.LASF141
 1505 098e 0A       		.byte	0xa
 1506 098f 4D       		.byte	0x4d
 1507 0990 16090000 		.4byte	0x916
 1508 0994 06       		.uleb128 0x6
 1509 0995 5E040000 		.4byte	.LASF142
 1510 0999 0A       		.byte	0xa
 1511 099a 4F       		.byte	0x4f
 1512 099b 26090000 		.4byte	0x926
 1513 099f 06       		.uleb128 0x6
 1514 09a0 8F050000 		.4byte	.LASF143
 1515 09a4 0A       		.byte	0xa
 1516 09a5 51       		.byte	0x51
 1517 09a6 16090000 		.4byte	0x916
 1518 09aa 06       		.uleb128 0x6
 1519 09ab 0C070000 		.4byte	.LASF144
 1520 09af 0A       		.byte	0xa
 1521 09b0 52       		.byte	0x52
 1522 09b1 26090000 		.4byte	0x926
 1523 09b5 06       		.uleb128 0x6
 1524 09b6 4A000000 		.4byte	.LASF145
 1525 09ba 0B       		.byte	0xb
 1526 09bb 33       		.byte	0x33
 1527 09bc 26090000 		.4byte	0x926
 1528 09c0 1D       		.uleb128 0x1d
 1529 09c1 B5090000 		.4byte	0x9b5
 1530 09c5 06       		.uleb128 0x6
 1531 09c6 63090000 		.4byte	.LASF146
 1532 09ca 0B       		.byte	0xb
 1533 09cb 3F       		.byte	0x3f
 1534 09cc D0090000 		.4byte	0x9d0
ARM GAS  /var/folders/qd/4mxf5pkd0zdf0b9dd1hp39180000gn/T//ccetYF1O.s 			page 28


 1535 09d0 13       		.uleb128 0x13
 1536 09d1 A9060000 		.4byte	.LASF147
 1537 09d5 68       		.byte	0x68
 1538 09d6 0C       		.byte	0xc
 1539 09d7 C2       		.byte	0xc2
 1540 09d8 EE0A0000 		.4byte	0xaee
 1541 09dc 10       		.uleb128 0x10
 1542 09dd 92030000 		.4byte	.LASF148
 1543 09e1 0C       		.byte	0xc
 1544 09e2 C3       		.byte	0xc3
 1545 09e3 F90A0000 		.4byte	0xaf9
 1546 09e7 00       		.byte	0
 1547 09e8 10       		.uleb128 0x10
 1548 09e9 C2030000 		.4byte	.LASF149
 1549 09ed 0C       		.byte	0xc
 1550 09ee C5       		.byte	0xc5
 1551 09ef F90A0000 		.4byte	0xaf9
 1552 09f3 04       		.byte	0x4
 1553 09f4 10       		.uleb128 0x10
 1554 09f5 21050000 		.4byte	.LASF150
 1555 09f9 0C       		.byte	0xc
 1556 09fa C7       		.byte	0xc7
 1557 09fb 7E090000 		.4byte	0x97e
 1558 09ff 08       		.byte	0x8
 1559 0a00 10       		.uleb128 0x10
 1560 0a01 67000000 		.4byte	.LASF151
 1561 0a05 0C       		.byte	0xc
 1562 0a06 C8       		.byte	0xc8
 1563 0a07 700D0000 		.4byte	0xd70
 1564 0a0b 0C       		.byte	0xc
 1565 0a0c 10       		.uleb128 0x10
 1566 0a0d 73030000 		.4byte	.LASF152
 1567 0a11 0C       		.byte	0xc
 1568 0a12 CA       		.byte	0xca
 1569 0a13 F90A0000 		.4byte	0xaf9
 1570 0a17 10       		.byte	0x10
 1571 0a18 10       		.uleb128 0x10
 1572 0a19 060A0000 		.4byte	.LASF153
 1573 0a1d 0C       		.byte	0xc
 1574 0a1e CB       		.byte	0xcb
 1575 0a1f F90A0000 		.4byte	0xaf9
 1576 0a23 14       		.byte	0x14
 1577 0a24 10       		.uleb128 0x10
 1578 0a25 D80C0000 		.4byte	.LASF154
 1579 0a29 0C       		.byte	0xc
 1580 0a2a D2       		.byte	0xd2
 1581 0a2b EC050000 		.4byte	0x5ec
 1582 0a2f 18       		.byte	0x18
 1583 0a30 10       		.uleb128 0x10
 1584 0a31 9E0C0000 		.4byte	.LASF155
 1585 0a35 0C       		.byte	0xc
 1586 0a36 D8       		.byte	0xd8
 1587 0a37 E6100000 		.4byte	0x10e6
 1588 0a3b 1C       		.byte	0x1c
 1589 0a3c 10       		.uleb128 0x10
 1590 0a3d 150D0000 		.4byte	.LASF156
 1591 0a41 0C       		.byte	0xc
ARM GAS  /var/folders/qd/4mxf5pkd0zdf0b9dd1hp39180000gn/T//ccetYF1O.s 			page 29


 1592 0a42 DD       		.byte	0xdd
 1593 0a43 5D090000 		.4byte	0x95d
 1594 0a47 20       		.byte	0x20
 1595 0a48 10       		.uleb128 0x10
 1596 0a49 29030000 		.4byte	.LASF157
 1597 0a4d 0C       		.byte	0xc
 1598 0a4e E1       		.byte	0xe1
 1599 0a4f 52090000 		.4byte	0x952
 1600 0a53 21       		.byte	0x21
 1601 0a54 10       		.uleb128 0x10
 1602 0a55 9C080000 		.4byte	.LASF158
 1603 0a59 0C       		.byte	0xc
 1604 0a5a E6       		.byte	0xe6
 1605 0a5b 68090000 		.4byte	0x968
 1606 0a5f 22       		.byte	0x22
 1607 0a60 10       		.uleb128 0x10
 1608 0a61 4C040000 		.4byte	.LASF159
 1609 0a65 0C       		.byte	0xc
 1610 0a66 EC       		.byte	0xec
 1611 0a67 73090000 		.4byte	0x973
 1612 0a6b 23       		.byte	0x23
 1613 0a6c 10       		.uleb128 0x10
 1614 0a6d 35090000 		.4byte	.LASF160
 1615 0a71 0C       		.byte	0xc
 1616 0a72 F3       		.byte	0xf3
 1617 0a73 C0090000 		.4byte	0x9c0
 1618 0a77 24       		.byte	0x24
 1619 0a78 25       		.uleb128 0x25
 1620 0a79 705F7500 		.ascii	"p_u\000"
 1621 0a7d 0C       		.byte	0xc
 1622 0a7e 3101     		.2byte	0x131
 1623 0a80 15100000 		.4byte	0x1015
 1624 0a84 28       		.byte	0x28
 1625 0a85 1B       		.uleb128 0x1b
 1626 0a86 42080000 		.4byte	.LASF161
 1627 0a8a 0C       		.byte	0xc
 1628 0a8b 3601     		.2byte	0x136
 1629 0a8d FF0A0000 		.4byte	0xaff
 1630 0a91 2C       		.byte	0x2c
 1631 0a92 1B       		.uleb128 0x1b
 1632 0a93 C8010000 		.4byte	.LASF162
 1633 0a97 0C       		.byte	0xc
 1634 0a98 3C01     		.2byte	0x13c
 1635 0a9a 230B0000 		.4byte	0xb23
 1636 0a9e 30       		.byte	0x30
 1637 0a9f 1B       		.uleb128 0x1b
 1638 0aa0 0F0D0000 		.4byte	.LASF163
 1639 0aa4 0C       		.byte	0xc
 1640 0aa5 4001     		.2byte	0x140
 1641 0aa7 89090000 		.4byte	0x989
 1642 0aab 38       		.byte	0x38
 1643 0aac 1B       		.uleb128 0x1b
 1644 0aad CF050000 		.4byte	.LASF164
 1645 0ab1 0C       		.byte	0xc
 1646 0ab2 4601     		.2byte	0x146
 1647 0ab4 94090000 		.4byte	0x994
 1648 0ab8 3C       		.byte	0x3c
ARM GAS  /var/folders/qd/4mxf5pkd0zdf0b9dd1hp39180000gn/T//ccetYF1O.s 			page 30


 1649 0ab9 1B       		.uleb128 0x1b
 1650 0aba 17040000 		.4byte	.LASF165
 1651 0abe 0C       		.byte	0xc
 1652 0abf 4D01     		.2byte	0x14d
 1653 0ac1 E0100000 		.4byte	0x10e0
 1654 0ac5 40       		.byte	0x40
 1655 0ac6 1B       		.uleb128 0x1b
 1656 0ac7 82090000 		.4byte	.LASF166
 1657 0acb 0C       		.byte	0xc
 1658 0acc 5101     		.2byte	0x151
 1659 0ace 7E090000 		.4byte	0x97e
 1660 0ad2 44       		.byte	0x44
 1661 0ad3 1B       		.uleb128 0x1b
 1662 0ad4 8B080000 		.4byte	.LASF167
 1663 0ad8 0C       		.byte	0xc
 1664 0ad9 5801     		.2byte	0x158
 1665 0adb 6C010000 		.4byte	0x16c
 1666 0adf 48       		.byte	0x48
 1667 0ae0 1B       		.uleb128 0x1b
 1668 0ae1 23000000 		.4byte	.LASF168
 1669 0ae5 0C       		.byte	0xc
 1670 0ae6 5E01     		.2byte	0x15e
 1671 0ae8 C60F0000 		.4byte	0xfc6
 1672 0aec 50       		.byte	0x50
 1673 0aed 00       		.byte	0
 1674 0aee 06       		.uleb128 0x6
 1675 0aef 1A090000 		.4byte	.LASF169
 1676 0af3 0B       		.byte	0xb
 1677 0af4 44       		.byte	0x44
 1678 0af5 F90A0000 		.4byte	0xaf9
 1679 0af9 08       		.uleb128 0x8
 1680 0afa 04       		.byte	0x4
 1681 0afb C5090000 		.4byte	0x9c5
 1682 0aff 06       		.uleb128 0x6
 1683 0b00 F00B0000 		.4byte	.LASF170
 1684 0b04 0B       		.byte	0xb
 1685 0b05 49       		.byte	0x49
 1686 0b06 0A0B0000 		.4byte	0xb0a
 1687 0b0a 13       		.uleb128 0x13
 1688 0b0b 1B070000 		.4byte	.LASF171
 1689 0b0f 04       		.byte	0x4
 1690 0b10 0C       		.byte	0xc
 1691 0b11 B0       		.byte	0xb0
 1692 0b12 230B0000 		.4byte	0xb23
 1693 0b16 10       		.uleb128 0x10
 1694 0b17 92030000 		.4byte	.LASF148
 1695 0b1b 0C       		.byte	0xc
 1696 0b1c B1       		.byte	0xb1
 1697 0b1d F90A0000 		.4byte	0xaf9
 1698 0b21 00       		.byte	0
 1699 0b22 00       		.byte	0
 1700 0b23 06       		.uleb128 0x6
 1701 0b24 07040000 		.4byte	.LASF172
 1702 0b28 0B       		.byte	0xb
 1703 0b29 50       		.byte	0x50
 1704 0b2a 2E0B0000 		.4byte	0xb2e
 1705 0b2e 13       		.uleb128 0x13
ARM GAS  /var/folders/qd/4mxf5pkd0zdf0b9dd1hp39180000gn/T//ccetYF1O.s 			page 31


 1706 0b2f 290A0000 		.4byte	.LASF173
 1707 0b33 08       		.byte	0x8
 1708 0b34 0C       		.byte	0xc
 1709 0b35 B7       		.byte	0xb7
 1710 0b36 530B0000 		.4byte	0xb53
 1711 0b3a 10       		.uleb128 0x10
 1712 0b3b 92030000 		.4byte	.LASF148
 1713 0b3f 0C       		.byte	0xc
 1714 0b40 B8       		.byte	0xb8
 1715 0b41 F90A0000 		.4byte	0xaf9
 1716 0b45 00       		.byte	0
 1717 0b46 10       		.uleb128 0x10
 1718 0b47 C2030000 		.4byte	.LASF149
 1719 0b4b 0C       		.byte	0xc
 1720 0b4c B9       		.byte	0xb9
 1721 0b4d F90A0000 		.4byte	0xaf9
 1722 0b51 04       		.byte	0x4
 1723 0b52 00       		.byte	0
 1724 0b53 06       		.uleb128 0x6
 1725 0b54 E0060000 		.4byte	.LASF174
 1726 0b58 0B       		.byte	0xb
 1727 0b59 57       		.byte	0x57
 1728 0b5a 5E0B0000 		.4byte	0xb5e
 1729 0b5e 1E       		.uleb128 0x1e
 1730 0b5f E6050000 		.4byte	.LASF175
 1731 0b63 1C       		.byte	0x1c
 1732 0b64 0C       		.byte	0xc
 1733 0b65 9001     		.2byte	0x190
 1734 0b67 BA0B0000 		.4byte	0xbba
 1735 0b6b 1B       		.uleb128 0x1b
 1736 0b6c D40A0000 		.4byte	.LASF176
 1737 0b70 0C       		.byte	0xc
 1738 0b71 9101     		.2byte	0x191
 1739 0b73 230B0000 		.4byte	0xb23
 1740 0b77 00       		.byte	0
 1741 0b78 1B       		.uleb128 0x1b
 1742 0b79 6A0B0000 		.4byte	.LASF177
 1743 0b7d 0C       		.byte	0xc
 1744 0b7e 9201     		.2byte	0x192
 1745 0b80 7E090000 		.4byte	0x97e
 1746 0b84 08       		.byte	0x8
 1747 0b85 1B       		.uleb128 0x1b
 1748 0b86 DA010000 		.4byte	.LASF178
 1749 0b8a 0C       		.byte	0xc
 1750 0b8b 9401     		.2byte	0x194
 1751 0b8d 700D0000 		.4byte	0xd70
 1752 0b91 0C       		.byte	0xc
 1753 0b92 1B       		.uleb128 0x1b
 1754 0b93 D2040000 		.4byte	.LASF179
 1755 0b97 0C       		.byte	0xc
 1756 0b98 9701     		.2byte	0x197
 1757 0b9a F90A0000 		.4byte	0xaf9
 1758 0b9e 10       		.byte	0x10
 1759 0b9f 1B       		.uleb128 0x1b
 1760 0ba0 0D0B0000 		.4byte	.LASF180
 1761 0ba4 0C       		.byte	0xc
 1762 0ba5 9801     		.2byte	0x198
ARM GAS  /var/folders/qd/4mxf5pkd0zdf0b9dd1hp39180000gn/T//ccetYF1O.s 			page 32


 1763 0ba7 F90A0000 		.4byte	0xaf9
 1764 0bab 14       		.byte	0x14
 1765 0bac 1B       		.uleb128 0x1b
 1766 0bad B30C0000 		.4byte	.LASF181
 1767 0bb1 0C       		.byte	0xc
 1768 0bb2 9B01     		.2byte	0x19b
 1769 0bb4 F90A0000 		.4byte	0xaf9
 1770 0bb8 18       		.byte	0x18
 1771 0bb9 00       		.byte	0
 1772 0bba 06       		.uleb128 0x6
 1773 0bbb 08020000 		.4byte	.LASF182
 1774 0bbf 0B       		.byte	0xb
 1775 0bc0 5C       		.byte	0x5c
 1776 0bc1 C50B0000 		.4byte	0xbc5
 1777 0bc5 08       		.uleb128 0x8
 1778 0bc6 04       		.byte	0x4
 1779 0bc7 CB0B0000 		.4byte	0xbcb
 1780 0bcb 22       		.uleb128 0x22
 1781 0bcc D60B0000 		.4byte	0xbd6
 1782 0bd0 19       		.uleb128 0x19
 1783 0bd1 6C010000 		.4byte	0x16c
 1784 0bd5 00       		.byte	0
 1785 0bd6 06       		.uleb128 0x6
 1786 0bd7 D0060000 		.4byte	.LASF183
 1787 0bdb 0B       		.byte	0xb
 1788 0bdc 61       		.byte	0x61
 1789 0bdd E10B0000 		.4byte	0xbe1
 1790 0be1 1E       		.uleb128 0x1e
 1791 0be2 BD090000 		.4byte	.LASF184
 1792 0be6 14       		.byte	0x14
 1793 0be7 0C       		.byte	0xc
 1794 0be8 6B01     		.2byte	0x16b
 1795 0bea 300C0000 		.4byte	0xc30
 1796 0bee 1B       		.uleb128 0x1b
 1797 0bef C3070000 		.4byte	.LASF185
 1798 0bf3 0C       		.byte	0xc
 1799 0bf4 6C01     		.2byte	0x16c
 1800 0bf6 EC100000 		.4byte	0x10ec
 1801 0bfa 00       		.byte	0
 1802 0bfb 1B       		.uleb128 0x1b
 1803 0bfc DC070000 		.4byte	.LASF186
 1804 0c00 0C       		.byte	0xc
 1805 0c01 6D01     		.2byte	0x16d
 1806 0c03 EC100000 		.4byte	0x10ec
 1807 0c07 04       		.byte	0x4
 1808 0c08 1B       		.uleb128 0x1b
 1809 0c09 A5090000 		.4byte	.LASF187
 1810 0c0d 0C       		.byte	0xc
 1811 0c0e 6E01     		.2byte	0x16e
 1812 0c10 B5090000 		.4byte	0x9b5
 1813 0c14 08       		.byte	0x8
 1814 0c15 1B       		.uleb128 0x1b
 1815 0c16 AD050000 		.4byte	.LASF188
 1816 0c1a 0C       		.byte	0xc
 1817 0c1b 6F01     		.2byte	0x16f
 1818 0c1d BA0B0000 		.4byte	0xbba
 1819 0c21 0C       		.byte	0xc
ARM GAS  /var/folders/qd/4mxf5pkd0zdf0b9dd1hp39180000gn/T//ccetYF1O.s 			page 33


 1820 0c22 1B       		.uleb128 0x1b
 1821 0c23 22030000 		.4byte	.LASF189
 1822 0c27 0C       		.byte	0xc
 1823 0c28 7101     		.2byte	0x171
 1824 0c2a 6C010000 		.4byte	0x16c
 1825 0c2e 10       		.byte	0x10
 1826 0c2f 00       		.byte	0
 1827 0c30 06       		.uleb128 0x6
 1828 0c31 B3060000 		.4byte	.LASF190
 1829 0c35 0B       		.byte	0xb
 1830 0c36 66       		.byte	0x66
 1831 0c37 3B0C0000 		.4byte	0xc3b
 1832 0c3b 1E       		.uleb128 0x1e
 1833 0c3c 11020000 		.4byte	.LASF191
 1834 0c40 10       		.byte	0x10
 1835 0c41 0C       		.byte	0xc
 1836 0c42 7B01     		.2byte	0x17b
 1837 0c44 7D0C0000 		.4byte	0xc7d
 1838 0c48 1B       		.uleb128 0x1b
 1839 0c49 C3070000 		.4byte	.LASF185
 1840 0c4d 0C       		.byte	0xc
 1841 0c4e 7C01     		.2byte	0x17c
 1842 0c50 EC100000 		.4byte	0x10ec
 1843 0c54 00       		.byte	0
 1844 0c55 1B       		.uleb128 0x1b
 1845 0c56 DC070000 		.4byte	.LASF186
 1846 0c5a 0C       		.byte	0xc
 1847 0c5b 7E01     		.2byte	0x17e
 1848 0c5d EC100000 		.4byte	0x10ec
 1849 0c61 04       		.byte	0x4
 1850 0c62 1B       		.uleb128 0x1b
 1851 0c63 A5090000 		.4byte	.LASF187
 1852 0c67 0C       		.byte	0xc
 1853 0c68 8001     		.2byte	0x180
 1854 0c6a B5090000 		.4byte	0x9b5
 1855 0c6e 08       		.byte	0x8
 1856 0c6f 1B       		.uleb128 0x1b
 1857 0c70 020B0000 		.4byte	.LASF192
 1858 0c74 0C       		.byte	0xc
 1859 0c75 8201     		.2byte	0x182
 1860 0c77 C0090000 		.4byte	0x9c0
 1861 0c7b 0C       		.byte	0xc
 1862 0c7c 00       		.byte	0
 1863 0c7d 06       		.uleb128 0x6
 1864 0c7e ED040000 		.4byte	.LASF193
 1865 0c82 0B       		.byte	0xb
 1866 0c83 6B       		.byte	0x6b
 1867 0c84 880C0000 		.4byte	0xc88
 1868 0c88 1A       		.uleb128 0x1a
 1869 0c89 710B0000 		.4byte	.LASF194
 1870 0c8d 1404     		.2byte	0x414
 1871 0c8f 0C       		.byte	0xc
 1872 0c90 A201     		.2byte	0x1a2
 1873 0c92 CB0C0000 		.4byte	0xccb
 1874 0c96 1B       		.uleb128 0x1b
 1875 0c97 A8040000 		.4byte	.LASF195
 1876 0c9b 0C       		.byte	0xc
ARM GAS  /var/folders/qd/4mxf5pkd0zdf0b9dd1hp39180000gn/T//ccetYF1O.s 			page 34


 1877 0c9c AA01     		.2byte	0x1aa
 1878 0c9e F2050000 		.4byte	0x5f2
 1879 0ca2 00       		.byte	0
 1880 0ca3 1B       		.uleb128 0x1b
 1881 0ca4 15060000 		.4byte	.LASF196
 1882 0ca8 0C       		.byte	0xc
 1883 0ca9 AF01     		.2byte	0x1af
 1884 0cab 9F090000 		.4byte	0x99f
 1885 0caf 04       		.byte	0x4
 1886 0cb0 1B       		.uleb128 0x1b
 1887 0cb1 E2020000 		.4byte	.LASF197
 1888 0cb5 0C       		.byte	0xc
 1889 0cb6 B301     		.2byte	0x1b3
 1890 0cb8 9F090000 		.4byte	0x99f
 1891 0cbc 08       		.byte	0x8
 1892 0cbd 1B       		.uleb128 0x1b
 1893 0cbe 95050000 		.4byte	.LASF198
 1894 0cc2 0C       		.byte	0xc
 1895 0cc3 B901     		.2byte	0x1b9
 1896 0cc5 580F0000 		.4byte	0xf58
 1897 0cc9 0C       		.byte	0xc
 1898 0cca 00       		.byte	0
 1899 0ccb 06       		.uleb128 0x6
 1900 0ccc 6F0C0000 		.4byte	.LASF199
 1901 0cd0 0B       		.byte	0xb
 1902 0cd1 70       		.byte	0x70
 1903 0cd2 D60C0000 		.4byte	0xcd6
 1904 0cd6 1A       		.uleb128 0x1a
 1905 0cd7 FF0B0000 		.4byte	.LASF200
 1906 0cdb 7006     		.2byte	0x670
 1907 0cdd 0C       		.byte	0xc
 1908 0cde C201     		.2byte	0x1c2
 1909 0ce0 430D0000 		.4byte	0xd43
 1910 0ce4 1B       		.uleb128 0x1b
 1911 0ce5 F40A0000 		.4byte	.LASF201
 1912 0ce9 0C       		.byte	0xc
 1913 0cea C601     		.2byte	0x1c6
 1914 0cec 530B0000 		.4byte	0xb53
 1915 0cf0 00       		.byte	0
 1916 0cf1 1B       		.uleb128 0x1b
 1917 0cf2 A10B0000 		.4byte	.LASF202
 1918 0cf6 0C       		.byte	0xc
 1919 0cf7 CA01     		.2byte	0x1ca
 1920 0cf9 300C0000 		.4byte	0xc30
 1921 0cfd 1C       		.byte	0x1c
 1922 0cfe 25       		.uleb128 0x25
 1923 0cff 64626700 		.ascii	"dbg\000"
 1924 0d03 0C       		.byte	0xc
 1925 0d04 CE01     		.2byte	0x1ce
 1926 0d06 7D0C0000 		.4byte	0xc7d
 1927 0d0a 2C       		.byte	0x2c
 1928 0d0b 1C       		.uleb128 0x1c
 1929 0d0c 8C0A0000 		.4byte	.LASF203
 1930 0d10 0C       		.byte	0xc
 1931 0d11 D201     		.2byte	0x1d2
 1932 0d13 C5090000 		.4byte	0x9c5
 1933 0d17 4004     		.2byte	0x440
ARM GAS  /var/folders/qd/4mxf5pkd0zdf0b9dd1hp39180000gn/T//ccetYF1O.s 			page 35


 1934 0d19 26       		.uleb128 0x26
 1935 0d1a 746D00   		.ascii	"tm\000"
 1936 0d1d 0C       		.byte	0xc
 1937 0d1e D701     		.2byte	0x1d7
 1938 0d20 780F0000 		.4byte	0xf78
 1939 0d24 A804     		.2byte	0x4a8
 1940 0d26 1C       		.uleb128 0x1c
 1941 0d27 E2090000 		.4byte	.LASF204
 1942 0d2b 0C       		.byte	0xc
 1943 0d2c DD01     		.2byte	0x1dd
 1944 0d2e 0A100000 		.4byte	0x100a
 1945 0d32 B004     		.2byte	0x4b0
 1946 0d34 1C       		.uleb128 0x1c
 1947 0d35 56080000 		.4byte	.LASF205
 1948 0d39 0C       		.byte	0xc
 1949 0d3a E301     		.2byte	0x1e3
 1950 0d3c F2100000 		.4byte	0x10f2
 1951 0d40 E804     		.2byte	0x4e8
 1952 0d42 00       		.byte	0
 1953 0d43 23       		.uleb128 0x23
 1954 0d44 11080000 		.4byte	.LASF206
 1955 0d48 0D       		.byte	0xd
 1956 0d49 A706     		.2byte	0x6a7
 1957 0d4b 21090000 		.4byte	0x921
 1958 0d4f 24       		.uleb128 0x24
 1959 0d50 8C060000 		.4byte	.LASF207
 1960 0d54 0E       		.byte	0xe
 1961 0d55 4C       		.byte	0x4c
 1962 0d56 26090000 		.4byte	0x926
 1963 0d5a 06       		.uleb128 0x6
 1964 0d5b 21040000 		.4byte	.LASF208
 1965 0d5f 0F       		.byte	0xf
 1966 0d60 65       		.byte	0x65
 1967 0d61 6C010000 		.4byte	0x16c
 1968 0d65 06       		.uleb128 0x6
 1969 0d66 63050000 		.4byte	.LASF209
 1970 0d6a 0F       		.byte	0xf
 1971 0d6b 6D       		.byte	0x6d
 1972 0d6c 31090000 		.4byte	0x931
 1973 0d70 13       		.uleb128 0x13
 1974 0d71 6A040000 		.4byte	.LASF210
 1975 0d75 04       		.byte	0x4
 1976 0d76 0F       		.byte	0xf
 1977 0d77 89       		.byte	0x89
 1978 0d78 890D0000 		.4byte	0xd89
 1979 0d7c 14       		.uleb128 0x14
 1980 0d7d 72313300 		.ascii	"r13\000"
 1981 0d81 0F       		.byte	0xf
 1982 0d82 8A       		.byte	0x8a
 1983 0d83 CA0E0000 		.4byte	0xeca
 1984 0d87 00       		.byte	0
 1985 0d88 00       		.byte	0
 1986 0d89 13       		.uleb128 0x13
 1987 0d8a 8D090000 		.4byte	.LASF211
 1988 0d8e 64       		.byte	0x64
 1989 0d8f 10       		.byte	0x10
 1990 0d90 F4       		.byte	0xf4
ARM GAS  /var/folders/qd/4mxf5pkd0zdf0b9dd1hp39180000gn/T//ccetYF1O.s 			page 36


 1991 0d91 CA0E0000 		.4byte	0xeca
 1992 0d95 14       		.uleb128 0x14
 1993 0d96 73313600 		.ascii	"s16\000"
 1994 0d9a 10       		.byte	0x10
 1995 0d9b F6       		.byte	0xf6
 1996 0d9c 5A0D0000 		.4byte	0xd5a
 1997 0da0 00       		.byte	0
 1998 0da1 14       		.uleb128 0x14
 1999 0da2 73313700 		.ascii	"s17\000"
 2000 0da6 10       		.byte	0x10
 2001 0da7 F7       		.byte	0xf7
 2002 0da8 5A0D0000 		.4byte	0xd5a
 2003 0dac 04       		.byte	0x4
 2004 0dad 14       		.uleb128 0x14
 2005 0dae 73313800 		.ascii	"s18\000"
 2006 0db2 10       		.byte	0x10
 2007 0db3 F8       		.byte	0xf8
 2008 0db4 5A0D0000 		.4byte	0xd5a
 2009 0db8 08       		.byte	0x8
 2010 0db9 14       		.uleb128 0x14
 2011 0dba 73313900 		.ascii	"s19\000"
 2012 0dbe 10       		.byte	0x10
 2013 0dbf F9       		.byte	0xf9
 2014 0dc0 5A0D0000 		.4byte	0xd5a
 2015 0dc4 0C       		.byte	0xc
 2016 0dc5 14       		.uleb128 0x14
 2017 0dc6 73323000 		.ascii	"s20\000"
 2018 0dca 10       		.byte	0x10
 2019 0dcb FA       		.byte	0xfa
 2020 0dcc 5A0D0000 		.4byte	0xd5a
 2021 0dd0 10       		.byte	0x10
 2022 0dd1 14       		.uleb128 0x14
 2023 0dd2 73323100 		.ascii	"s21\000"
 2024 0dd6 10       		.byte	0x10
 2025 0dd7 FB       		.byte	0xfb
 2026 0dd8 5A0D0000 		.4byte	0xd5a
 2027 0ddc 14       		.byte	0x14
 2028 0ddd 14       		.uleb128 0x14
 2029 0dde 73323200 		.ascii	"s22\000"
 2030 0de2 10       		.byte	0x10
 2031 0de3 FC       		.byte	0xfc
 2032 0de4 5A0D0000 		.4byte	0xd5a
 2033 0de8 18       		.byte	0x18
 2034 0de9 14       		.uleb128 0x14
 2035 0dea 73323300 		.ascii	"s23\000"
 2036 0dee 10       		.byte	0x10
 2037 0def FD       		.byte	0xfd
 2038 0df0 5A0D0000 		.4byte	0xd5a
 2039 0df4 1C       		.byte	0x1c
 2040 0df5 14       		.uleb128 0x14
 2041 0df6 73323400 		.ascii	"s24\000"
 2042 0dfa 10       		.byte	0x10
 2043 0dfb FE       		.byte	0xfe
 2044 0dfc 5A0D0000 		.4byte	0xd5a
 2045 0e00 20       		.byte	0x20
 2046 0e01 14       		.uleb128 0x14
 2047 0e02 73323500 		.ascii	"s25\000"
ARM GAS  /var/folders/qd/4mxf5pkd0zdf0b9dd1hp39180000gn/T//ccetYF1O.s 			page 37


 2048 0e06 10       		.byte	0x10
 2049 0e07 FF       		.byte	0xff
 2050 0e08 5A0D0000 		.4byte	0xd5a
 2051 0e0c 24       		.byte	0x24
 2052 0e0d 25       		.uleb128 0x25
 2053 0e0e 73323600 		.ascii	"s26\000"
 2054 0e12 10       		.byte	0x10
 2055 0e13 0001     		.2byte	0x100
 2056 0e15 5A0D0000 		.4byte	0xd5a
 2057 0e19 28       		.byte	0x28
 2058 0e1a 25       		.uleb128 0x25
 2059 0e1b 73323700 		.ascii	"s27\000"
 2060 0e1f 10       		.byte	0x10
 2061 0e20 0101     		.2byte	0x101
 2062 0e22 5A0D0000 		.4byte	0xd5a
 2063 0e26 2C       		.byte	0x2c
 2064 0e27 25       		.uleb128 0x25
 2065 0e28 73323800 		.ascii	"s28\000"
 2066 0e2c 10       		.byte	0x10
 2067 0e2d 0201     		.2byte	0x102
 2068 0e2f 5A0D0000 		.4byte	0xd5a
 2069 0e33 30       		.byte	0x30
 2070 0e34 25       		.uleb128 0x25
 2071 0e35 73323900 		.ascii	"s29\000"
 2072 0e39 10       		.byte	0x10
 2073 0e3a 0301     		.2byte	0x103
 2074 0e3c 5A0D0000 		.4byte	0xd5a
 2075 0e40 34       		.byte	0x34
 2076 0e41 25       		.uleb128 0x25
 2077 0e42 73333000 		.ascii	"s30\000"
 2078 0e46 10       		.byte	0x10
 2079 0e47 0401     		.2byte	0x104
 2080 0e49 5A0D0000 		.4byte	0xd5a
 2081 0e4d 38       		.byte	0x38
 2082 0e4e 25       		.uleb128 0x25
 2083 0e4f 73333100 		.ascii	"s31\000"
 2084 0e53 10       		.byte	0x10
 2085 0e54 0501     		.2byte	0x105
 2086 0e56 5A0D0000 		.4byte	0xd5a
 2087 0e5a 3C       		.byte	0x3c
 2088 0e5b 25       		.uleb128 0x25
 2089 0e5c 723400   		.ascii	"r4\000"
 2090 0e5f 10       		.byte	0x10
 2091 0e60 0701     		.2byte	0x107
 2092 0e62 5A0D0000 		.4byte	0xd5a
 2093 0e66 40       		.byte	0x40
 2094 0e67 25       		.uleb128 0x25
 2095 0e68 723500   		.ascii	"r5\000"
 2096 0e6b 10       		.byte	0x10
 2097 0e6c 0801     		.2byte	0x108
 2098 0e6e 5A0D0000 		.4byte	0xd5a
 2099 0e72 44       		.byte	0x44
 2100 0e73 25       		.uleb128 0x25
 2101 0e74 723600   		.ascii	"r6\000"
 2102 0e77 10       		.byte	0x10
 2103 0e78 0901     		.2byte	0x109
 2104 0e7a 5A0D0000 		.4byte	0xd5a
ARM GAS  /var/folders/qd/4mxf5pkd0zdf0b9dd1hp39180000gn/T//ccetYF1O.s 			page 38


 2105 0e7e 48       		.byte	0x48
 2106 0e7f 25       		.uleb128 0x25
 2107 0e80 723700   		.ascii	"r7\000"
 2108 0e83 10       		.byte	0x10
 2109 0e84 0A01     		.2byte	0x10a
 2110 0e86 5A0D0000 		.4byte	0xd5a
 2111 0e8a 4C       		.byte	0x4c
 2112 0e8b 25       		.uleb128 0x25
 2113 0e8c 723800   		.ascii	"r8\000"
 2114 0e8f 10       		.byte	0x10
 2115 0e90 0B01     		.2byte	0x10b
 2116 0e92 5A0D0000 		.4byte	0xd5a
 2117 0e96 50       		.byte	0x50
 2118 0e97 25       		.uleb128 0x25
 2119 0e98 723900   		.ascii	"r9\000"
 2120 0e9b 10       		.byte	0x10
 2121 0e9c 0C01     		.2byte	0x10c
 2122 0e9e 5A0D0000 		.4byte	0xd5a
 2123 0ea2 54       		.byte	0x54
 2124 0ea3 25       		.uleb128 0x25
 2125 0ea4 72313000 		.ascii	"r10\000"
 2126 0ea8 10       		.byte	0x10
 2127 0ea9 0D01     		.2byte	0x10d
 2128 0eab 5A0D0000 		.4byte	0xd5a
 2129 0eaf 58       		.byte	0x58
 2130 0eb0 25       		.uleb128 0x25
 2131 0eb1 72313100 		.ascii	"r11\000"
 2132 0eb5 10       		.byte	0x10
 2133 0eb6 0E01     		.2byte	0x10e
 2134 0eb8 5A0D0000 		.4byte	0xd5a
 2135 0ebc 5C       		.byte	0x5c
 2136 0ebd 25       		.uleb128 0x25
 2137 0ebe 6C7200   		.ascii	"lr\000"
 2138 0ec1 10       		.byte	0x10
 2139 0ec2 0F01     		.2byte	0x10f
 2140 0ec4 5A0D0000 		.4byte	0xd5a
 2141 0ec8 60       		.byte	0x60
 2142 0ec9 00       		.byte	0
 2143 0eca 08       		.uleb128 0x8
 2144 0ecb 04       		.byte	0x4
 2145 0ecc 890D0000 		.4byte	0xd89
 2146 0ed0 0F       		.uleb128 0xf
 2147 0ed1 10       		.byte	0x10
 2148 0ed2 11       		.byte	0x11
 2149 0ed3 51       		.byte	0x51
 2150 0ed4 090F0000 		.4byte	0xf09
 2151 0ed8 10       		.uleb128 0x10
 2152 0ed9 D00C0000 		.4byte	.LASF212
 2153 0edd 11       		.byte	0x11
 2154 0ede 55       		.byte	0x55
 2155 0edf B5090000 		.4byte	0x9b5
 2156 0ee3 00       		.byte	0
 2157 0ee4 10       		.uleb128 0x10
 2158 0ee5 01030000 		.4byte	.LASF213
 2159 0ee9 11       		.byte	0x11
 2160 0eea 59       		.byte	0x59
 2161 0eeb F90A0000 		.4byte	0xaf9
ARM GAS  /var/folders/qd/4mxf5pkd0zdf0b9dd1hp39180000gn/T//ccetYF1O.s 			page 39


 2162 0eef 04       		.byte	0x4
 2163 0ef0 10       		.uleb128 0x10
 2164 0ef1 4C080000 		.4byte	.LASF214
 2165 0ef5 11       		.byte	0x11
 2166 0ef6 5D       		.byte	0x5d
 2167 0ef7 6C010000 		.4byte	0x16c
 2168 0efb 08       		.byte	0x8
 2169 0efc 10       		.uleb128 0x10
 2170 0efd 33060000 		.4byte	.LASF215
 2171 0f01 11       		.byte	0x11
 2172 0f02 61       		.byte	0x61
 2173 0f03 00090000 		.4byte	0x900
 2174 0f07 0C       		.byte	0xc
 2175 0f08 00       		.byte	0
 2176 0f09 06       		.uleb128 0x6
 2177 0f0a 2B070000 		.4byte	.LASF216
 2178 0f0e 11       		.byte	0x11
 2179 0f0f 62       		.byte	0x62
 2180 0f10 D00E0000 		.4byte	0xed0
 2181 0f14 27       		.uleb128 0x27
 2182 0f15 0804     		.2byte	0x408
 2183 0f17 11       		.byte	0x11
 2184 0f18 67       		.byte	0x67
 2185 0f19 420F0000 		.4byte	0xf42
 2186 0f1d 10       		.uleb128 0x10
 2187 0f1e F3070000 		.4byte	.LASF217
 2188 0f22 11       		.byte	0x11
 2189 0f23 6B       		.byte	0x6b
 2190 0f24 51000000 		.4byte	0x51
 2191 0f28 00       		.byte	0
 2192 0f29 10       		.uleb128 0x10
 2193 0f2a E60C0000 		.4byte	.LASF218
 2194 0f2e 11       		.byte	0x11
 2195 0f2f 6F       		.byte	0x6f
 2196 0f30 420F0000 		.4byte	0xf42
 2197 0f34 04       		.byte	0x4
 2198 0f35 10       		.uleb128 0x10
 2199 0f36 B9070000 		.4byte	.LASF219
 2200 0f3a 11       		.byte	0x11
 2201 0f3b 73       		.byte	0x73
 2202 0f3c 480F0000 		.4byte	0xf48
 2203 0f40 08       		.byte	0x8
 2204 0f41 00       		.byte	0
 2205 0f42 08       		.uleb128 0x8
 2206 0f43 04       		.byte	0x4
 2207 0f44 090F0000 		.4byte	0xf09
 2208 0f48 0D       		.uleb128 0xd
 2209 0f49 090F0000 		.4byte	0xf09
 2210 0f4d 580F0000 		.4byte	0xf58
 2211 0f51 0E       		.uleb128 0xe
 2212 0f52 51000000 		.4byte	0x51
 2213 0f56 3F       		.byte	0x3f
 2214 0f57 00       		.byte	0
 2215 0f58 06       		.uleb128 0x6
 2216 0f59 BD050000 		.4byte	.LASF220
 2217 0f5d 11       		.byte	0x11
 2218 0f5e 74       		.byte	0x74
ARM GAS  /var/folders/qd/4mxf5pkd0zdf0b9dd1hp39180000gn/T//ccetYF1O.s 			page 40


 2219 0f5f 140F0000 		.4byte	0xf14
 2220 0f63 0F       		.uleb128 0xf
 2221 0f64 04       		.byte	0x4
 2222 0f65 12       		.byte	0x12
 2223 0f66 38       		.byte	0x38
 2224 0f67 780F0000 		.4byte	0xf78
 2225 0f6b 10       		.uleb128 0x10
 2226 0f6c 13090000 		.4byte	.LASF221
 2227 0f70 12       		.byte	0x12
 2228 0f71 3C       		.byte	0x3c
 2229 0f72 3C090000 		.4byte	0x93c
 2230 0f76 00       		.byte	0
 2231 0f77 00       		.byte	0
 2232 0f78 06       		.uleb128 0x6
 2233 0f79 150B0000 		.4byte	.LASF222
 2234 0f7d 12       		.byte	0x12
 2235 0f7e 3D       		.byte	0x3d
 2236 0f7f 630F0000 		.4byte	0xf63
 2237 0f83 0F       		.uleb128 0xf
 2238 0f84 18       		.byte	0x18
 2239 0f85 12       		.byte	0x12
 2240 0f86 48       		.byte	0x48
 2241 0f87 C60F0000 		.4byte	0xfc6
 2242 0f8b 10       		.uleb128 0x10
 2243 0f8c C40A0000 		.4byte	.LASF223
 2244 0f90 12       		.byte	0x12
 2245 0f91 49       		.byte	0x49
 2246 0f92 3C090000 		.4byte	0x93c
 2247 0f96 00       		.byte	0
 2248 0f97 10       		.uleb128 0x10
 2249 0f98 7A050000 		.4byte	.LASF224
 2250 0f9c 12       		.byte	0x12
 2251 0f9d 4A       		.byte	0x4a
 2252 0f9e 3C090000 		.4byte	0x93c
 2253 0fa2 04       		.byte	0x4
 2254 0fa3 10       		.uleb128 0x10
 2255 0fa4 0A0D0000 		.4byte	.LASF225
 2256 0fa8 12       		.byte	0x12
 2257 0fa9 4B       		.byte	0x4b
 2258 0faa 3C090000 		.4byte	0x93c
 2259 0fae 08       		.byte	0x8
 2260 0faf 14       		.uleb128 0x14
 2261 0fb0 6E00     		.ascii	"n\000"
 2262 0fb2 12       		.byte	0x12
 2263 0fb3 4C       		.byte	0x4c
 2264 0fb4 AA090000 		.4byte	0x9aa
 2265 0fb8 0C       		.byte	0xc
 2266 0fb9 10       		.uleb128 0x10
 2267 0fba 1D060000 		.4byte	.LASF226
 2268 0fbe 12       		.byte	0x12
 2269 0fbf 4D       		.byte	0x4d
 2270 0fc0 47090000 		.4byte	0x947
 2271 0fc4 10       		.byte	0x10
 2272 0fc5 00       		.byte	0
 2273 0fc6 06       		.uleb128 0x6
 2274 0fc7 07030000 		.4byte	.LASF227
 2275 0fcb 12       		.byte	0x12
ARM GAS  /var/folders/qd/4mxf5pkd0zdf0b9dd1hp39180000gn/T//ccetYF1O.s 			page 41


 2276 0fcc 4E       		.byte	0x4e
 2277 0fcd 830F0000 		.4byte	0xf83
 2278 0fd1 0F       		.uleb128 0xf
 2279 0fd2 38       		.byte	0x38
 2280 0fd3 13       		.byte	0x13
 2281 0fd4 38       		.byte	0x38
 2282 0fd5 0A100000 		.4byte	0x100a
 2283 0fd9 10       		.uleb128 0x10
 2284 0fda 42070000 		.4byte	.LASF228
 2285 0fde 13       		.byte	0x13
 2286 0fdf 39       		.byte	0x39
 2287 0fe0 AA090000 		.4byte	0x9aa
 2288 0fe4 00       		.byte	0
 2289 0fe5 10       		.uleb128 0x10
 2290 0fe6 46050000 		.4byte	.LASF229
 2291 0fea 13       		.byte	0x13
 2292 0feb 3A       		.byte	0x3a
 2293 0fec AA090000 		.4byte	0x9aa
 2294 0ff0 04       		.byte	0x4
 2295 0ff1 10       		.uleb128 0x10
 2296 0ff2 3C060000 		.4byte	.LASF230
 2297 0ff6 13       		.byte	0x13
 2298 0ff7 3B       		.byte	0x3b
 2299 0ff8 C60F0000 		.4byte	0xfc6
 2300 0ffc 08       		.byte	0x8
 2301 0ffd 10       		.uleb128 0x10
 2302 0ffe 28060000 		.4byte	.LASF231
 2303 1002 13       		.byte	0x13
 2304 1003 3D       		.byte	0x3d
 2305 1004 C60F0000 		.4byte	0xfc6
 2306 1008 20       		.byte	0x20
 2307 1009 00       		.byte	0
 2308 100a 06       		.uleb128 0x6
 2309 100b C8080000 		.4byte	.LASF232
 2310 100f 13       		.byte	0x13
 2311 1010 3F       		.byte	0x3f
 2312 1011 D10F0000 		.4byte	0xfd1
 2313 1015 0B       		.uleb128 0xb
 2314 1016 04       		.byte	0x4
 2315 1017 0C       		.byte	0xc
 2316 1018 FA       		.byte	0xfa
 2317 1019 72100000 		.4byte	0x1072
 2318 101d 21       		.uleb128 0x21
 2319 101e 460C0000 		.4byte	.LASF233
 2320 1022 0C       		.byte	0xc
 2321 1023 0101     		.2byte	0x101
 2322 1025 89090000 		.4byte	0x989
 2323 1029 21       		.uleb128 0x21
 2324 102a 37030000 		.4byte	.LASF234
 2325 102e 0C       		.byte	0xc
 2326 102f 0801     		.2byte	0x108
 2327 1031 89090000 		.4byte	0x989
 2328 1035 21       		.uleb128 0x21
 2329 1036 33050000 		.4byte	.LASF235
 2330 103a 0C       		.byte	0xc
 2331 103b 0F01     		.2byte	0x10f
 2332 103d 6C010000 		.4byte	0x16c
ARM GAS  /var/folders/qd/4mxf5pkd0zdf0b9dd1hp39180000gn/T//ccetYF1O.s 			page 42


 2333 1041 21       		.uleb128 0x21
 2334 1042 72040000 		.4byte	.LASF236
 2335 1046 0C       		.byte	0xc
 2336 1047 1601     		.2byte	0x116
 2337 1049 72100000 		.4byte	0x1072
 2338 104d 21       		.uleb128 0x21
 2339 104e 030D0000 		.4byte	.LASF237
 2340 1052 0C       		.byte	0xc
 2341 1053 1E01     		.2byte	0x11e
 2342 1055 9D100000 		.4byte	0x109d
 2343 1059 21       		.uleb128 0x21
 2344 105a DA050000 		.4byte	.LASF238
 2345 105e 0C       		.byte	0xc
 2346 105f 2701     		.2byte	0x127
 2347 1061 E0100000 		.4byte	0x10e0
 2348 1065 21       		.uleb128 0x21
 2349 1066 4A030000 		.4byte	.LASF239
 2350 106a 0C       		.byte	0xc
 2351 106b 2F01     		.2byte	0x12f
 2352 106d 94090000 		.4byte	0x994
 2353 1071 00       		.byte	0
 2354 1072 08       		.uleb128 0x8
 2355 1073 04       		.byte	0x4
 2356 1074 EE0A0000 		.4byte	0xaee
 2357 1078 13       		.uleb128 0x13
 2358 1079 9C060000 		.4byte	.LASF240
 2359 107d 0C       		.byte	0xc
 2360 107e 14       		.byte	0x14
 2361 107f 34       		.byte	0x34
 2362 1080 9D100000 		.4byte	0x109d
 2363 1084 10       		.uleb128 0x10
 2364 1085 260B0000 		.4byte	.LASF241
 2365 1089 14       		.byte	0x14
 2366 108a 35       		.byte	0x35
 2367 108b 230B0000 		.4byte	0xb23
 2368 108f 00       		.byte	0
 2369 1090 10       		.uleb128 0x10
 2370 1091 CE090000 		.4byte	.LASF242
 2371 1095 14       		.byte	0x14
 2372 1096 37       		.byte	0x37
 2373 1097 9F090000 		.4byte	0x99f
 2374 109b 08       		.byte	0x8
 2375 109c 00       		.byte	0
 2376 109d 08       		.uleb128 0x8
 2377 109e 04       		.byte	0x4
 2378 109f 78100000 		.4byte	0x1078
 2379 10a3 13       		.uleb128 0x13
 2380 10a4 4E0B0000 		.4byte	.LASF243
 2381 10a8 14       		.byte	0x14
 2382 10a9 15       		.byte	0x15
 2383 10aa 39       		.byte	0x39
 2384 10ab E0100000 		.4byte	0x10e0
 2385 10af 10       		.uleb128 0x10
 2386 10b0 AA070000 		.4byte	.LASF244
 2387 10b4 15       		.byte	0x15
 2388 10b5 3A       		.byte	0x3a
 2389 10b6 230B0000 		.4byte	0xb23
ARM GAS  /var/folders/qd/4mxf5pkd0zdf0b9dd1hp39180000gn/T//ccetYF1O.s 			page 43


 2390 10ba 00       		.byte	0
 2391 10bb 10       		.uleb128 0x10
 2392 10bc 1A030000 		.4byte	.LASF245
 2393 10c0 15       		.byte	0x15
 2394 10c1 3C       		.byte	0x3c
 2395 10c2 F90A0000 		.4byte	0xaf9
 2396 10c6 08       		.byte	0x8
 2397 10c7 10       		.uleb128 0x10
 2398 10c8 DF0C0000 		.4byte	.LASF246
 2399 10cc 15       		.byte	0x15
 2400 10cd 3E       		.byte	0x3e
 2401 10ce 24120000 		.4byte	0x1224
 2402 10d2 0C       		.byte	0xc
 2403 10d3 10       		.uleb128 0x10
 2404 10d4 0F050000 		.4byte	.LASF247
 2405 10d8 15       		.byte	0x15
 2406 10d9 41       		.byte	0x41
 2407 10da 9F090000 		.4byte	0x99f
 2408 10de 10       		.byte	0x10
 2409 10df 00       		.byte	0
 2410 10e0 08       		.uleb128 0x8
 2411 10e1 04       		.byte	0x4
 2412 10e2 A3100000 		.4byte	0x10a3
 2413 10e6 08       		.uleb128 0x8
 2414 10e7 04       		.byte	0x4
 2415 10e8 650D0000 		.4byte	0xd65
 2416 10ec 08       		.uleb128 0x8
 2417 10ed 04       		.byte	0x4
 2418 10ee D60B0000 		.4byte	0xbd6
 2419 10f2 0D       		.uleb128 0xd
 2420 10f3 650D0000 		.4byte	0xd65
 2421 10f7 02110000 		.4byte	0x1102
 2422 10fb 0E       		.uleb128 0xe
 2423 10fc 51000000 		.4byte	0x51
 2424 1100 30       		.byte	0x30
 2425 1101 00       		.byte	0
 2426 1102 28       		.uleb128 0x28
 2427 1103 636800   		.ascii	"ch\000"
 2428 1106 0C       		.byte	0xc
 2429 1107 0902     		.2byte	0x209
 2430 1109 CB0C0000 		.4byte	0xccb
 2431 110d 0F       		.uleb128 0xf
 2432 110e 16       		.byte	0x16
 2433 110f 16       		.byte	0x16
 2434 1110 34       		.byte	0x34
 2435 1111 EE110000 		.4byte	0x11ee
 2436 1115 10       		.uleb128 0x10
 2437 1116 59000000 		.4byte	.LASF248
 2438 111a 16       		.byte	0x16
 2439 111b 35       		.byte	0x35
 2440 111c EE110000 		.4byte	0x11ee
 2441 1120 00       		.byte	0
 2442 1121 10       		.uleb128 0x10
 2443 1122 69060000 		.4byte	.LASF249
 2444 1126 16       		.byte	0x16
 2445 1127 36       		.byte	0x36
 2446 1128 00090000 		.4byte	0x900
ARM GAS  /var/folders/qd/4mxf5pkd0zdf0b9dd1hp39180000gn/T//ccetYF1O.s 			page 44


 2447 112c 04       		.byte	0x4
 2448 112d 10       		.uleb128 0x10
 2449 112e 850C0000 		.4byte	.LASF250
 2450 1132 16       		.byte	0x16
 2451 1133 37       		.byte	0x37
 2452 1134 00090000 		.4byte	0x900
 2453 1138 05       		.byte	0x5
 2454 1139 10       		.uleb128 0x10
 2455 113a 9F070000 		.4byte	.LASF251
 2456 113e 16       		.byte	0x16
 2457 113f 38       		.byte	0x38
 2458 1140 0B090000 		.4byte	0x90b
 2459 1144 06       		.byte	0x6
 2460 1145 10       		.uleb128 0x10
 2461 1146 EB020000 		.4byte	.LASF252
 2462 114a 16       		.byte	0x16
 2463 114b 39       		.byte	0x39
 2464 114c 00090000 		.4byte	0x900
 2465 1150 08       		.byte	0x8
 2466 1151 10       		.uleb128 0x10
 2467 1152 A3080000 		.4byte	.LASF253
 2468 1156 16       		.byte	0x16
 2469 1157 3A       		.byte	0x3a
 2470 1158 00090000 		.4byte	0x900
 2471 115c 09       		.byte	0x9
 2472 115d 10       		.uleb128 0x10
 2473 115e 57030000 		.4byte	.LASF254
 2474 1162 16       		.byte	0x16
 2475 1163 3B       		.byte	0x3b
 2476 1164 00090000 		.4byte	0x900
 2477 1168 0A       		.byte	0xa
 2478 1169 10       		.uleb128 0x10
 2479 116a 6E050000 		.4byte	.LASF255
 2480 116e 16       		.byte	0x16
 2481 116f 3C       		.byte	0x3c
 2482 1170 00090000 		.4byte	0x900
 2483 1174 0B       		.byte	0xb
 2484 1175 10       		.uleb128 0x10
 2485 1176 FD010000 		.4byte	.LASF256
 2486 117a 16       		.byte	0x16
 2487 117b 3D       		.byte	0x3d
 2488 117c 00090000 		.4byte	0x900
 2489 1180 0C       		.byte	0xc
 2490 1181 10       		.uleb128 0x10
 2491 1182 56050000 		.4byte	.LASF257
 2492 1186 16       		.byte	0x16
 2493 1187 3E       		.byte	0x3e
 2494 1188 00090000 		.4byte	0x900
 2495 118c 0D       		.byte	0xd
 2496 118d 10       		.uleb128 0x10
 2497 118e 8B0B0000 		.4byte	.LASF258
 2498 1192 16       		.byte	0x16
 2499 1193 3F       		.byte	0x3f
 2500 1194 00090000 		.4byte	0x900
 2501 1198 0E       		.byte	0xe
 2502 1199 10       		.uleb128 0x10
 2503 119a 3E000000 		.4byte	.LASF259
ARM GAS  /var/folders/qd/4mxf5pkd0zdf0b9dd1hp39180000gn/T//ccetYF1O.s 			page 45


 2504 119e 16       		.byte	0x16
 2505 119f 40       		.byte	0x40
 2506 11a0 00090000 		.4byte	0x900
 2507 11a4 0F       		.byte	0xf
 2508 11a5 10       		.uleb128 0x10
 2509 11a6 E00B0000 		.4byte	.LASF260
 2510 11aa 16       		.byte	0x16
 2511 11ab 41       		.byte	0x41
 2512 11ac 00090000 		.4byte	0x900
 2513 11b0 10       		.byte	0x10
 2514 11b1 10       		.uleb128 0x10
 2515 11b2 AF030000 		.4byte	.LASF261
 2516 11b6 16       		.byte	0x16
 2517 11b7 43       		.byte	0x43
 2518 11b8 00090000 		.4byte	0x900
 2519 11bc 11       		.byte	0x11
 2520 11bd 10       		.uleb128 0x10
 2521 11be 420A0000 		.4byte	.LASF262
 2522 11c2 16       		.byte	0x16
 2523 11c3 44       		.byte	0x44
 2524 11c4 00090000 		.4byte	0x900
 2525 11c8 12       		.byte	0x12
 2526 11c9 10       		.uleb128 0x10
 2527 11ca 3C090000 		.4byte	.LASF263
 2528 11ce 16       		.byte	0x16
 2529 11cf 45       		.byte	0x45
 2530 11d0 00090000 		.4byte	0x900
 2531 11d4 13       		.byte	0x13
 2532 11d5 10       		.uleb128 0x10
 2533 11d6 5B070000 		.4byte	.LASF264
 2534 11da 16       		.byte	0x16
 2535 11db 46       		.byte	0x46
 2536 11dc 00090000 		.4byte	0x900
 2537 11e0 14       		.byte	0x14
 2538 11e1 10       		.uleb128 0x10
 2539 11e2 3A050000 		.4byte	.LASF265
 2540 11e6 16       		.byte	0x16
 2541 11e7 48       		.byte	0x48
 2542 11e8 00090000 		.4byte	0x900
 2543 11ec 15       		.byte	0x15
 2544 11ed 00       		.byte	0
 2545 11ee 0D       		.uleb128 0xd
 2546 11ef 74010000 		.4byte	0x174
 2547 11f3 FE110000 		.4byte	0x11fe
 2548 11f7 0E       		.uleb128 0xe
 2549 11f8 51000000 		.4byte	0x51
 2550 11fc 03       		.byte	0x3
 2551 11fd 00       		.byte	0
 2552 11fe 06       		.uleb128 0x6
 2553 11ff 7B0C0000 		.4byte	.LASF266
 2554 1203 16       		.byte	0x16
 2555 1204 49       		.byte	0x49
 2556 1205 0D110000 		.4byte	0x110d
 2557 1209 12       		.uleb128 0x12
 2558 120a FE110000 		.4byte	0x11fe
 2559 120e 24       		.uleb128 0x24
 2560 120f BF010000 		.4byte	.LASF267
ARM GAS  /var/folders/qd/4mxf5pkd0zdf0b9dd1hp39180000gn/T//ccetYF1O.s 			page 46


 2561 1213 16       		.byte	0x16
 2562 1214 6E       		.byte	0x6e
 2563 1215 09120000 		.4byte	0x1209
 2564 1219 06       		.uleb128 0x6
 2565 121a C90B0000 		.4byte	.LASF268
 2566 121e 15       		.byte	0x15
 2567 121f 34       		.byte	0x34
 2568 1220 A3100000 		.4byte	0x10a3
 2569 1224 08       		.uleb128 0x8
 2570 1225 04       		.byte	0x4
 2571 1226 19120000 		.4byte	0x1219
 2572 122a 29       		.uleb128 0x29
 2573 122b A70A0000 		.4byte	.LASF269
 2574 122f 01       		.byte	0x1
 2575 1230 34       		.byte	0x34
 2576 1231 29       		.uleb128 0x29
 2577 1232 220C0000 		.4byte	.LASF270
 2578 1236 01       		.byte	0x1
 2579 1237 30       		.byte	0x30
 2580 1238 2A       		.uleb128 0x2a
 2581 1239 24080000 		.4byte	.LASF281
 2582 123d 01       		.byte	0x1
 2583 123e 2C       		.byte	0x2c
 2584 123f 01       		.byte	0x1
 2585 1240 2B       		.uleb128 0x2b
 2586 1241 00000000 		.4byte	.LASF271
 2587 1245 01       		.byte	0x1
 2588 1246 28       		.byte	0x28
 2589 1247 00000000 		.4byte	.LFB221
 2590 124b 20000000 		.4byte	.LFE221-.LFB221
 2591 124f 01       		.uleb128 0x1
 2592 1250 9C       		.byte	0x9c
 2593 1251 6E120000 		.4byte	0x126e
 2594 1255 2C       		.uleb128 0x2c
 2595 1256 F6020000 		.4byte	.LASF282
 2596 125a 01       		.byte	0x1
 2597 125b 28       		.byte	0x28
 2598 125c 46000000 		.4byte	0x46
 2599 1260 00000000 		.4byte	.LLST0
 2600 1264 2D       		.uleb128 0x2d
 2601 1265 1C000000 		.4byte	.LVL7
 2602 1269 15130000 		.4byte	0x1315
 2603 126d 00       		.byte	0
 2604 126e 2B       		.uleb128 0x2b
 2605 126f 78040000 		.4byte	.LASF272
 2606 1273 01       		.byte	0x1
 2607 1274 22       		.byte	0x22
 2608 1275 00000000 		.4byte	.LFB220
 2609 1279 40000000 		.4byte	.LFE220-.LFB220
 2610 127d 01       		.uleb128 0x1
 2611 127e 9C       		.byte	0x9c
 2612 127f D0120000 		.4byte	0x12d0
 2613 1283 2E       		.uleb128 0x2e
 2614 1284 14000000 		.4byte	.LVL2
 2615 1288 1E130000 		.4byte	0x131e
 2616 128c A8120000 		.4byte	0x12a8
 2617 1290 2F       		.uleb128 0x2f
ARM GAS  /var/folders/qd/4mxf5pkd0zdf0b9dd1hp39180000gn/T//ccetYF1O.s 			page 47


 2618 1291 01       		.uleb128 0x1
 2619 1292 50       		.byte	0x50
 2620 1293 05       		.uleb128 0x5
 2621 1294 03       		.byte	0x3
 2622 1295 08000000 		.4byte	.LC1
 2623 1299 2F       		.uleb128 0x2f
 2624 129a 01       		.uleb128 0x1
 2625 129b 51       		.byte	0x51
 2626 129c 05       		.uleb128 0x5
 2627 129d 03       		.byte	0x3
 2628 129e 00000000 		.4byte	.LC0
 2629 12a2 2F       		.uleb128 0x2f
 2630 12a3 01       		.uleb128 0x1
 2631 12a4 52       		.byte	0x52
 2632 12a5 01       		.uleb128 0x1
 2633 12a6 30       		.byte	0x30
 2634 12a7 00       		.byte	0
 2635 12a8 2E       		.uleb128 0x2e
 2636 12a9 1C000000 		.4byte	.LVL3
 2637 12ad 29130000 		.4byte	0x1329
 2638 12b1 BD120000 		.4byte	0x12bd
 2639 12b5 2F       		.uleb128 0x2f
 2640 12b6 01       		.uleb128 0x1
 2641 12b7 50       		.byte	0x50
 2642 12b8 03       		.uleb128 0x3
 2643 12b9 0A       		.byte	0xa
 2644 12ba E803     		.2byte	0x3e8
 2645 12bc 00       		.byte	0
 2646 12bd 30       		.uleb128 0x30
 2647 12be 2E000000 		.4byte	.LVL4
 2648 12c2 34130000 		.4byte	0x1334
 2649 12c6 2D       		.uleb128 0x2d
 2650 12c7 32000000 		.4byte	.LVL5
 2651 12cb 15130000 		.4byte	0x1315
 2652 12cf 00       		.byte	0
 2653 12d0 2B       		.uleb128 0x2b
 2654 12d1 80050000 		.4byte	.LASF273
 2655 12d5 01       		.byte	0x1
 2656 12d6 1D       		.byte	0x1d
 2657 12d7 00000000 		.4byte	.LFB219
 2658 12db 24000000 		.4byte	.LFE219-.LFB219
 2659 12df 01       		.uleb128 0x1
 2660 12e0 9C       		.byte	0x9c
 2661 12e1 F8120000 		.4byte	0x12f8
 2662 12e5 30       		.uleb128 0x30
 2663 12e6 1C000000 		.4byte	.LVL0
 2664 12ea 3F130000 		.4byte	0x133f
 2665 12ee 2D       		.uleb128 0x2d
 2666 12ef 20000000 		.4byte	.LVL1
 2667 12f3 15130000 		.4byte	0x1315
 2668 12f7 00       		.byte	0
 2669 12f8 31       		.uleb128 0x31
 2670 12f9 38120000 		.4byte	0x1238
 2671 12fd 00000000 		.4byte	.LFB222
 2672 1301 20000000 		.4byte	.LFE222-.LFB222
 2673 1305 01       		.uleb128 0x1
 2674 1306 9C       		.byte	0x9c
ARM GAS  /var/folders/qd/4mxf5pkd0zdf0b9dd1hp39180000gn/T//ccetYF1O.s 			page 48


 2675 1307 15130000 		.4byte	0x1315
 2676 130b 2D       		.uleb128 0x2d
 2677 130c 1C000000 		.4byte	.LVL8
 2678 1310 15130000 		.4byte	0x1315
 2679 1314 00       		.byte	0
 2680 1315 32       		.uleb128 0x32
 2681 1316 80070000 		.4byte	.LASF283
 2682 131a 80070000 		.4byte	.LASF283
 2683 131e 33       		.uleb128 0x33
 2684 131f F9060000 		.4byte	.LASF274
 2685 1323 F9060000 		.4byte	.LASF274
 2686 1327 17       		.byte	0x17
 2687 1328 1F       		.byte	0x1f
 2688 1329 33       		.uleb128 0x33
 2689 132a A2050000 		.4byte	.LASF275
 2690 132e A2050000 		.4byte	.LASF275
 2691 1332 18       		.byte	0x18
 2692 1333 96       		.byte	0x96
 2693 1334 33       		.uleb128 0x33
 2694 1335 D8030000 		.4byte	.LASF276
 2695 1339 D8030000 		.4byte	.LASF276
 2696 133d 19       		.byte	0x19
 2697 133e 1B       		.byte	0x1b
 2698 133f 33       		.uleb128 0x33
 2699 1340 72080000 		.4byte	.LASF277
 2700 1344 72080000 		.4byte	.LASF277
 2701 1348 19       		.byte	0x19
 2702 1349 11       		.byte	0x11
 2703 134a 00       		.byte	0
 2704              		.section	.debug_abbrev,"",%progbits
 2705              	.Ldebug_abbrev0:
 2706 0000 01       		.uleb128 0x1
 2707 0001 11       		.uleb128 0x11
 2708 0002 01       		.byte	0x1
 2709 0003 25       		.uleb128 0x25
 2710 0004 0E       		.uleb128 0xe
 2711 0005 13       		.uleb128 0x13
 2712 0006 0B       		.uleb128 0xb
 2713 0007 03       		.uleb128 0x3
 2714 0008 0E       		.uleb128 0xe
 2715 0009 1B       		.uleb128 0x1b
 2716 000a 0E       		.uleb128 0xe
 2717 000b 55       		.uleb128 0x55
 2718 000c 17       		.uleb128 0x17
 2719 000d 11       		.uleb128 0x11
 2720 000e 01       		.uleb128 0x1
 2721 000f 10       		.uleb128 0x10
 2722 0010 17       		.uleb128 0x17
 2723 0011 00       		.byte	0
 2724 0012 00       		.byte	0
 2725 0013 02       		.uleb128 0x2
 2726 0014 04       		.uleb128 0x4
 2727 0015 01       		.byte	0x1
 2728 0016 3E       		.uleb128 0x3e
 2729 0017 0B       		.uleb128 0xb
 2730 0018 0B       		.uleb128 0xb
 2731 0019 0B       		.uleb128 0xb
ARM GAS  /var/folders/qd/4mxf5pkd0zdf0b9dd1hp39180000gn/T//ccetYF1O.s 			page 49


 2732 001a 49       		.uleb128 0x49
 2733 001b 13       		.uleb128 0x13
 2734 001c 3A       		.uleb128 0x3a
 2735 001d 0B       		.uleb128 0xb
 2736 001e 3B       		.uleb128 0x3b
 2737 001f 0B       		.uleb128 0xb
 2738 0020 01       		.uleb128 0x1
 2739 0021 13       		.uleb128 0x13
 2740 0022 00       		.byte	0
 2741 0023 00       		.byte	0
 2742 0024 03       		.uleb128 0x3
 2743 0025 28       		.uleb128 0x28
 2744 0026 00       		.byte	0
 2745 0027 03       		.uleb128 0x3
 2746 0028 0E       		.uleb128 0xe
 2747 0029 1C       		.uleb128 0x1c
 2748 002a 0B       		.uleb128 0xb
 2749 002b 00       		.byte	0
 2750 002c 00       		.byte	0
 2751 002d 04       		.uleb128 0x4
 2752 002e 28       		.uleb128 0x28
 2753 002f 00       		.byte	0
 2754 0030 03       		.uleb128 0x3
 2755 0031 08       		.uleb128 0x8
 2756 0032 1C       		.uleb128 0x1c
 2757 0033 0B       		.uleb128 0xb
 2758 0034 00       		.byte	0
 2759 0035 00       		.byte	0
 2760 0036 05       		.uleb128 0x5
 2761 0037 24       		.uleb128 0x24
 2762 0038 00       		.byte	0
 2763 0039 0B       		.uleb128 0xb
 2764 003a 0B       		.uleb128 0xb
 2765 003b 3E       		.uleb128 0x3e
 2766 003c 0B       		.uleb128 0xb
 2767 003d 03       		.uleb128 0x3
 2768 003e 0E       		.uleb128 0xe
 2769 003f 00       		.byte	0
 2770 0040 00       		.byte	0
 2771 0041 06       		.uleb128 0x6
 2772 0042 16       		.uleb128 0x16
 2773 0043 00       		.byte	0
 2774 0044 03       		.uleb128 0x3
 2775 0045 0E       		.uleb128 0xe
 2776 0046 3A       		.uleb128 0x3a
 2777 0047 0B       		.uleb128 0xb
 2778 0048 3B       		.uleb128 0x3b
 2779 0049 0B       		.uleb128 0xb
 2780 004a 49       		.uleb128 0x49
 2781 004b 13       		.uleb128 0x13
 2782 004c 00       		.byte	0
 2783 004d 00       		.byte	0
 2784 004e 07       		.uleb128 0x7
 2785 004f 24       		.uleb128 0x24
 2786 0050 00       		.byte	0
 2787 0051 0B       		.uleb128 0xb
 2788 0052 0B       		.uleb128 0xb
ARM GAS  /var/folders/qd/4mxf5pkd0zdf0b9dd1hp39180000gn/T//ccetYF1O.s 			page 50


 2789 0053 3E       		.uleb128 0x3e
 2790 0054 0B       		.uleb128 0xb
 2791 0055 03       		.uleb128 0x3
 2792 0056 08       		.uleb128 0x8
 2793 0057 00       		.byte	0
 2794 0058 00       		.byte	0
 2795 0059 08       		.uleb128 0x8
 2796 005a 0F       		.uleb128 0xf
 2797 005b 00       		.byte	0
 2798 005c 0B       		.uleb128 0xb
 2799 005d 0B       		.uleb128 0xb
 2800 005e 49       		.uleb128 0x49
 2801 005f 13       		.uleb128 0x13
 2802 0060 00       		.byte	0
 2803 0061 00       		.byte	0
 2804 0062 09       		.uleb128 0x9
 2805 0063 13       		.uleb128 0x13
 2806 0064 00       		.byte	0
 2807 0065 03       		.uleb128 0x3
 2808 0066 0E       		.uleb128 0xe
 2809 0067 3C       		.uleb128 0x3c
 2810 0068 19       		.uleb128 0x19
 2811 0069 00       		.byte	0
 2812 006a 00       		.byte	0
 2813 006b 0A       		.uleb128 0xa
 2814 006c 16       		.uleb128 0x16
 2815 006d 00       		.byte	0
 2816 006e 03       		.uleb128 0x3
 2817 006f 0E       		.uleb128 0xe
 2818 0070 3A       		.uleb128 0x3a
 2819 0071 0B       		.uleb128 0xb
 2820 0072 3B       		.uleb128 0x3b
 2821 0073 05       		.uleb128 0x5
 2822 0074 49       		.uleb128 0x49
 2823 0075 13       		.uleb128 0x13
 2824 0076 00       		.byte	0
 2825 0077 00       		.byte	0
 2826 0078 0B       		.uleb128 0xb
 2827 0079 17       		.uleb128 0x17
 2828 007a 01       		.byte	0x1
 2829 007b 0B       		.uleb128 0xb
 2830 007c 0B       		.uleb128 0xb
 2831 007d 3A       		.uleb128 0x3a
 2832 007e 0B       		.uleb128 0xb
 2833 007f 3B       		.uleb128 0x3b
 2834 0080 0B       		.uleb128 0xb
 2835 0081 01       		.uleb128 0x1
 2836 0082 13       		.uleb128 0x13
 2837 0083 00       		.byte	0
 2838 0084 00       		.byte	0
 2839 0085 0C       		.uleb128 0xc
 2840 0086 0D       		.uleb128 0xd
 2841 0087 00       		.byte	0
 2842 0088 03       		.uleb128 0x3
 2843 0089 0E       		.uleb128 0xe
 2844 008a 3A       		.uleb128 0x3a
 2845 008b 0B       		.uleb128 0xb
ARM GAS  /var/folders/qd/4mxf5pkd0zdf0b9dd1hp39180000gn/T//ccetYF1O.s 			page 51


 2846 008c 3B       		.uleb128 0x3b
 2847 008d 0B       		.uleb128 0xb
 2848 008e 49       		.uleb128 0x49
 2849 008f 13       		.uleb128 0x13
 2850 0090 00       		.byte	0
 2851 0091 00       		.byte	0
 2852 0092 0D       		.uleb128 0xd
 2853 0093 01       		.uleb128 0x1
 2854 0094 01       		.byte	0x1
 2855 0095 49       		.uleb128 0x49
 2856 0096 13       		.uleb128 0x13
 2857 0097 01       		.uleb128 0x1
 2858 0098 13       		.uleb128 0x13
 2859 0099 00       		.byte	0
 2860 009a 00       		.byte	0
 2861 009b 0E       		.uleb128 0xe
 2862 009c 21       		.uleb128 0x21
 2863 009d 00       		.byte	0
 2864 009e 49       		.uleb128 0x49
 2865 009f 13       		.uleb128 0x13
 2866 00a0 2F       		.uleb128 0x2f
 2867 00a1 0B       		.uleb128 0xb
 2868 00a2 00       		.byte	0
 2869 00a3 00       		.byte	0
 2870 00a4 0F       		.uleb128 0xf
 2871 00a5 13       		.uleb128 0x13
 2872 00a6 01       		.byte	0x1
 2873 00a7 0B       		.uleb128 0xb
 2874 00a8 0B       		.uleb128 0xb
 2875 00a9 3A       		.uleb128 0x3a
 2876 00aa 0B       		.uleb128 0xb
 2877 00ab 3B       		.uleb128 0x3b
 2878 00ac 0B       		.uleb128 0xb
 2879 00ad 01       		.uleb128 0x1
 2880 00ae 13       		.uleb128 0x13
 2881 00af 00       		.byte	0
 2882 00b0 00       		.byte	0
 2883 00b1 10       		.uleb128 0x10
 2884 00b2 0D       		.uleb128 0xd
 2885 00b3 00       		.byte	0
 2886 00b4 03       		.uleb128 0x3
 2887 00b5 0E       		.uleb128 0xe
 2888 00b6 3A       		.uleb128 0x3a
 2889 00b7 0B       		.uleb128 0xb
 2890 00b8 3B       		.uleb128 0x3b
 2891 00b9 0B       		.uleb128 0xb
 2892 00ba 49       		.uleb128 0x49
 2893 00bb 13       		.uleb128 0x13
 2894 00bc 38       		.uleb128 0x38
 2895 00bd 0B       		.uleb128 0xb
 2896 00be 00       		.byte	0
 2897 00bf 00       		.byte	0
 2898 00c0 11       		.uleb128 0x11
 2899 00c1 0F       		.uleb128 0xf
 2900 00c2 00       		.byte	0
 2901 00c3 0B       		.uleb128 0xb
 2902 00c4 0B       		.uleb128 0xb
ARM GAS  /var/folders/qd/4mxf5pkd0zdf0b9dd1hp39180000gn/T//ccetYF1O.s 			page 52


 2903 00c5 00       		.byte	0
 2904 00c6 00       		.byte	0
 2905 00c7 12       		.uleb128 0x12
 2906 00c8 26       		.uleb128 0x26
 2907 00c9 00       		.byte	0
 2908 00ca 49       		.uleb128 0x49
 2909 00cb 13       		.uleb128 0x13
 2910 00cc 00       		.byte	0
 2911 00cd 00       		.byte	0
 2912 00ce 13       		.uleb128 0x13
 2913 00cf 13       		.uleb128 0x13
 2914 00d0 01       		.byte	0x1
 2915 00d1 03       		.uleb128 0x3
 2916 00d2 0E       		.uleb128 0xe
 2917 00d3 0B       		.uleb128 0xb
 2918 00d4 0B       		.uleb128 0xb
 2919 00d5 3A       		.uleb128 0x3a
 2920 00d6 0B       		.uleb128 0xb
 2921 00d7 3B       		.uleb128 0x3b
 2922 00d8 0B       		.uleb128 0xb
 2923 00d9 01       		.uleb128 0x1
 2924 00da 13       		.uleb128 0x13
 2925 00db 00       		.byte	0
 2926 00dc 00       		.byte	0
 2927 00dd 14       		.uleb128 0x14
 2928 00de 0D       		.uleb128 0xd
 2929 00df 00       		.byte	0
 2930 00e0 03       		.uleb128 0x3
 2931 00e1 08       		.uleb128 0x8
 2932 00e2 3A       		.uleb128 0x3a
 2933 00e3 0B       		.uleb128 0xb
 2934 00e4 3B       		.uleb128 0x3b
 2935 00e5 0B       		.uleb128 0xb
 2936 00e6 49       		.uleb128 0x49
 2937 00e7 13       		.uleb128 0x13
 2938 00e8 38       		.uleb128 0x38
 2939 00e9 0B       		.uleb128 0xb
 2940 00ea 00       		.byte	0
 2941 00eb 00       		.byte	0
 2942 00ec 15       		.uleb128 0x15
 2943 00ed 13       		.uleb128 0x13
 2944 00ee 01       		.byte	0x1
 2945 00ef 03       		.uleb128 0x3
 2946 00f0 0E       		.uleb128 0xe
 2947 00f1 0B       		.uleb128 0xb
 2948 00f2 05       		.uleb128 0x5
 2949 00f3 3A       		.uleb128 0x3a
 2950 00f4 0B       		.uleb128 0xb
 2951 00f5 3B       		.uleb128 0x3b
 2952 00f6 0B       		.uleb128 0xb
 2953 00f7 01       		.uleb128 0x1
 2954 00f8 13       		.uleb128 0x13
 2955 00f9 00       		.byte	0
 2956 00fa 00       		.byte	0
 2957 00fb 16       		.uleb128 0x16
 2958 00fc 0D       		.uleb128 0xd
 2959 00fd 00       		.byte	0
ARM GAS  /var/folders/qd/4mxf5pkd0zdf0b9dd1hp39180000gn/T//ccetYF1O.s 			page 53


 2960 00fe 03       		.uleb128 0x3
 2961 00ff 0E       		.uleb128 0xe
 2962 0100 3A       		.uleb128 0x3a
 2963 0101 0B       		.uleb128 0xb
 2964 0102 3B       		.uleb128 0x3b
 2965 0103 0B       		.uleb128 0xb
 2966 0104 49       		.uleb128 0x49
 2967 0105 13       		.uleb128 0x13
 2968 0106 38       		.uleb128 0x38
 2969 0107 05       		.uleb128 0x5
 2970 0108 00       		.byte	0
 2971 0109 00       		.byte	0
 2972 010a 17       		.uleb128 0x17
 2973 010b 15       		.uleb128 0x15
 2974 010c 00       		.byte	0
 2975 010d 27       		.uleb128 0x27
 2976 010e 19       		.uleb128 0x19
 2977 010f 00       		.byte	0
 2978 0110 00       		.byte	0
 2979 0111 18       		.uleb128 0x18
 2980 0112 15       		.uleb128 0x15
 2981 0113 01       		.byte	0x1
 2982 0114 27       		.uleb128 0x27
 2983 0115 19       		.uleb128 0x19
 2984 0116 49       		.uleb128 0x49
 2985 0117 13       		.uleb128 0x13
 2986 0118 01       		.uleb128 0x1
 2987 0119 13       		.uleb128 0x13
 2988 011a 00       		.byte	0
 2989 011b 00       		.byte	0
 2990 011c 19       		.uleb128 0x19
 2991 011d 05       		.uleb128 0x5
 2992 011e 00       		.byte	0
 2993 011f 49       		.uleb128 0x49
 2994 0120 13       		.uleb128 0x13
 2995 0121 00       		.byte	0
 2996 0122 00       		.byte	0
 2997 0123 1A       		.uleb128 0x1a
 2998 0124 13       		.uleb128 0x13
 2999 0125 01       		.byte	0x1
 3000 0126 03       		.uleb128 0x3
 3001 0127 0E       		.uleb128 0xe
 3002 0128 0B       		.uleb128 0xb
 3003 0129 05       		.uleb128 0x5
 3004 012a 3A       		.uleb128 0x3a
 3005 012b 0B       		.uleb128 0xb
 3006 012c 3B       		.uleb128 0x3b
 3007 012d 05       		.uleb128 0x5
 3008 012e 01       		.uleb128 0x1
 3009 012f 13       		.uleb128 0x13
 3010 0130 00       		.byte	0
 3011 0131 00       		.byte	0
 3012 0132 1B       		.uleb128 0x1b
 3013 0133 0D       		.uleb128 0xd
 3014 0134 00       		.byte	0
 3015 0135 03       		.uleb128 0x3
 3016 0136 0E       		.uleb128 0xe
ARM GAS  /var/folders/qd/4mxf5pkd0zdf0b9dd1hp39180000gn/T//ccetYF1O.s 			page 54


 3017 0137 3A       		.uleb128 0x3a
 3018 0138 0B       		.uleb128 0xb
 3019 0139 3B       		.uleb128 0x3b
 3020 013a 05       		.uleb128 0x5
 3021 013b 49       		.uleb128 0x49
 3022 013c 13       		.uleb128 0x13
 3023 013d 38       		.uleb128 0x38
 3024 013e 0B       		.uleb128 0xb
 3025 013f 00       		.byte	0
 3026 0140 00       		.byte	0
 3027 0141 1C       		.uleb128 0x1c
 3028 0142 0D       		.uleb128 0xd
 3029 0143 00       		.byte	0
 3030 0144 03       		.uleb128 0x3
 3031 0145 0E       		.uleb128 0xe
 3032 0146 3A       		.uleb128 0x3a
 3033 0147 0B       		.uleb128 0xb
 3034 0148 3B       		.uleb128 0x3b
 3035 0149 05       		.uleb128 0x5
 3036 014a 49       		.uleb128 0x49
 3037 014b 13       		.uleb128 0x13
 3038 014c 38       		.uleb128 0x38
 3039 014d 05       		.uleb128 0x5
 3040 014e 00       		.byte	0
 3041 014f 00       		.byte	0
 3042 0150 1D       		.uleb128 0x1d
 3043 0151 35       		.uleb128 0x35
 3044 0152 00       		.byte	0
 3045 0153 49       		.uleb128 0x49
 3046 0154 13       		.uleb128 0x13
 3047 0155 00       		.byte	0
 3048 0156 00       		.byte	0
 3049 0157 1E       		.uleb128 0x1e
 3050 0158 13       		.uleb128 0x13
 3051 0159 01       		.byte	0x1
 3052 015a 03       		.uleb128 0x3
 3053 015b 0E       		.uleb128 0xe
 3054 015c 0B       		.uleb128 0xb
 3055 015d 0B       		.uleb128 0xb
 3056 015e 3A       		.uleb128 0x3a
 3057 015f 0B       		.uleb128 0xb
 3058 0160 3B       		.uleb128 0x3b
 3059 0161 05       		.uleb128 0x5
 3060 0162 01       		.uleb128 0x1
 3061 0163 13       		.uleb128 0x13
 3062 0164 00       		.byte	0
 3063 0165 00       		.byte	0
 3064 0166 1F       		.uleb128 0x1f
 3065 0167 13       		.uleb128 0x13
 3066 0168 01       		.byte	0x1
 3067 0169 0B       		.uleb128 0xb
 3068 016a 0B       		.uleb128 0xb
 3069 016b 3A       		.uleb128 0x3a
 3070 016c 0B       		.uleb128 0xb
 3071 016d 3B       		.uleb128 0x3b
 3072 016e 05       		.uleb128 0x5
 3073 016f 01       		.uleb128 0x1
ARM GAS  /var/folders/qd/4mxf5pkd0zdf0b9dd1hp39180000gn/T//ccetYF1O.s 			page 55


 3074 0170 13       		.uleb128 0x13
 3075 0171 00       		.byte	0
 3076 0172 00       		.byte	0
 3077 0173 20       		.uleb128 0x20
 3078 0174 17       		.uleb128 0x17
 3079 0175 01       		.byte	0x1
 3080 0176 0B       		.uleb128 0xb
 3081 0177 0B       		.uleb128 0xb
 3082 0178 3A       		.uleb128 0x3a
 3083 0179 0B       		.uleb128 0xb
 3084 017a 3B       		.uleb128 0x3b
 3085 017b 05       		.uleb128 0x5
 3086 017c 01       		.uleb128 0x1
 3087 017d 13       		.uleb128 0x13
 3088 017e 00       		.byte	0
 3089 017f 00       		.byte	0
 3090 0180 21       		.uleb128 0x21
 3091 0181 0D       		.uleb128 0xd
 3092 0182 00       		.byte	0
 3093 0183 03       		.uleb128 0x3
 3094 0184 0E       		.uleb128 0xe
 3095 0185 3A       		.uleb128 0x3a
 3096 0186 0B       		.uleb128 0xb
 3097 0187 3B       		.uleb128 0x3b
 3098 0188 05       		.uleb128 0x5
 3099 0189 49       		.uleb128 0x49
 3100 018a 13       		.uleb128 0x13
 3101 018b 00       		.byte	0
 3102 018c 00       		.byte	0
 3103 018d 22       		.uleb128 0x22
 3104 018e 15       		.uleb128 0x15
 3105 018f 01       		.byte	0x1
 3106 0190 27       		.uleb128 0x27
 3107 0191 19       		.uleb128 0x19
 3108 0192 01       		.uleb128 0x1
 3109 0193 13       		.uleb128 0x13
 3110 0194 00       		.byte	0
 3111 0195 00       		.byte	0
 3112 0196 23       		.uleb128 0x23
 3113 0197 34       		.uleb128 0x34
 3114 0198 00       		.byte	0
 3115 0199 03       		.uleb128 0x3
 3116 019a 0E       		.uleb128 0xe
 3117 019b 3A       		.uleb128 0x3a
 3118 019c 0B       		.uleb128 0xb
 3119 019d 3B       		.uleb128 0x3b
 3120 019e 05       		.uleb128 0x5
 3121 019f 49       		.uleb128 0x49
 3122 01a0 13       		.uleb128 0x13
 3123 01a1 3F       		.uleb128 0x3f
 3124 01a2 19       		.uleb128 0x19
 3125 01a3 3C       		.uleb128 0x3c
 3126 01a4 19       		.uleb128 0x19
 3127 01a5 00       		.byte	0
 3128 01a6 00       		.byte	0
 3129 01a7 24       		.uleb128 0x24
 3130 01a8 34       		.uleb128 0x34
ARM GAS  /var/folders/qd/4mxf5pkd0zdf0b9dd1hp39180000gn/T//ccetYF1O.s 			page 56


 3131 01a9 00       		.byte	0
 3132 01aa 03       		.uleb128 0x3
 3133 01ab 0E       		.uleb128 0xe
 3134 01ac 3A       		.uleb128 0x3a
 3135 01ad 0B       		.uleb128 0xb
 3136 01ae 3B       		.uleb128 0x3b
 3137 01af 0B       		.uleb128 0xb
 3138 01b0 49       		.uleb128 0x49
 3139 01b1 13       		.uleb128 0x13
 3140 01b2 3F       		.uleb128 0x3f
 3141 01b3 19       		.uleb128 0x19
 3142 01b4 3C       		.uleb128 0x3c
 3143 01b5 19       		.uleb128 0x19
 3144 01b6 00       		.byte	0
 3145 01b7 00       		.byte	0
 3146 01b8 25       		.uleb128 0x25
 3147 01b9 0D       		.uleb128 0xd
 3148 01ba 00       		.byte	0
 3149 01bb 03       		.uleb128 0x3
 3150 01bc 08       		.uleb128 0x8
 3151 01bd 3A       		.uleb128 0x3a
 3152 01be 0B       		.uleb128 0xb
 3153 01bf 3B       		.uleb128 0x3b
 3154 01c0 05       		.uleb128 0x5
 3155 01c1 49       		.uleb128 0x49
 3156 01c2 13       		.uleb128 0x13
 3157 01c3 38       		.uleb128 0x38
 3158 01c4 0B       		.uleb128 0xb
 3159 01c5 00       		.byte	0
 3160 01c6 00       		.byte	0
 3161 01c7 26       		.uleb128 0x26
 3162 01c8 0D       		.uleb128 0xd
 3163 01c9 00       		.byte	0
 3164 01ca 03       		.uleb128 0x3
 3165 01cb 08       		.uleb128 0x8
 3166 01cc 3A       		.uleb128 0x3a
 3167 01cd 0B       		.uleb128 0xb
 3168 01ce 3B       		.uleb128 0x3b
 3169 01cf 05       		.uleb128 0x5
 3170 01d0 49       		.uleb128 0x49
 3171 01d1 13       		.uleb128 0x13
 3172 01d2 38       		.uleb128 0x38
 3173 01d3 05       		.uleb128 0x5
 3174 01d4 00       		.byte	0
 3175 01d5 00       		.byte	0
 3176 01d6 27       		.uleb128 0x27
 3177 01d7 13       		.uleb128 0x13
 3178 01d8 01       		.byte	0x1
 3179 01d9 0B       		.uleb128 0xb
 3180 01da 05       		.uleb128 0x5
 3181 01db 3A       		.uleb128 0x3a
 3182 01dc 0B       		.uleb128 0xb
 3183 01dd 3B       		.uleb128 0x3b
 3184 01de 0B       		.uleb128 0xb
 3185 01df 01       		.uleb128 0x1
 3186 01e0 13       		.uleb128 0x13
 3187 01e1 00       		.byte	0
ARM GAS  /var/folders/qd/4mxf5pkd0zdf0b9dd1hp39180000gn/T//ccetYF1O.s 			page 57


 3188 01e2 00       		.byte	0
 3189 01e3 28       		.uleb128 0x28
 3190 01e4 34       		.uleb128 0x34
 3191 01e5 00       		.byte	0
 3192 01e6 03       		.uleb128 0x3
 3193 01e7 08       		.uleb128 0x8
 3194 01e8 3A       		.uleb128 0x3a
 3195 01e9 0B       		.uleb128 0xb
 3196 01ea 3B       		.uleb128 0x3b
 3197 01eb 05       		.uleb128 0x5
 3198 01ec 49       		.uleb128 0x49
 3199 01ed 13       		.uleb128 0x13
 3200 01ee 3F       		.uleb128 0x3f
 3201 01ef 19       		.uleb128 0x19
 3202 01f0 3C       		.uleb128 0x3c
 3203 01f1 19       		.uleb128 0x19
 3204 01f2 00       		.byte	0
 3205 01f3 00       		.byte	0
 3206 01f4 29       		.uleb128 0x29
 3207 01f5 2E       		.uleb128 0x2e
 3208 01f6 00       		.byte	0
 3209 01f7 3F       		.uleb128 0x3f
 3210 01f8 19       		.uleb128 0x19
 3211 01f9 03       		.uleb128 0x3
 3212 01fa 0E       		.uleb128 0xe
 3213 01fb 3A       		.uleb128 0x3a
 3214 01fc 0B       		.uleb128 0xb
 3215 01fd 3B       		.uleb128 0x3b
 3216 01fe 0B       		.uleb128 0xb
 3217 01ff 27       		.uleb128 0x27
 3218 0200 19       		.uleb128 0x19
 3219 0201 00       		.byte	0
 3220 0202 00       		.byte	0
 3221 0203 2A       		.uleb128 0x2a
 3222 0204 2E       		.uleb128 0x2e
 3223 0205 00       		.byte	0
 3224 0206 3F       		.uleb128 0x3f
 3225 0207 19       		.uleb128 0x19
 3226 0208 03       		.uleb128 0x3
 3227 0209 0E       		.uleb128 0xe
 3228 020a 3A       		.uleb128 0x3a
 3229 020b 0B       		.uleb128 0xb
 3230 020c 3B       		.uleb128 0x3b
 3231 020d 0B       		.uleb128 0xb
 3232 020e 27       		.uleb128 0x27
 3233 020f 19       		.uleb128 0x19
 3234 0210 20       		.uleb128 0x20
 3235 0211 0B       		.uleb128 0xb
 3236 0212 00       		.byte	0
 3237 0213 00       		.byte	0
 3238 0214 2B       		.uleb128 0x2b
 3239 0215 2E       		.uleb128 0x2e
 3240 0216 01       		.byte	0x1
 3241 0217 3F       		.uleb128 0x3f
 3242 0218 19       		.uleb128 0x19
 3243 0219 03       		.uleb128 0x3
 3244 021a 0E       		.uleb128 0xe
ARM GAS  /var/folders/qd/4mxf5pkd0zdf0b9dd1hp39180000gn/T//ccetYF1O.s 			page 58


 3245 021b 3A       		.uleb128 0x3a
 3246 021c 0B       		.uleb128 0xb
 3247 021d 3B       		.uleb128 0x3b
 3248 021e 0B       		.uleb128 0xb
 3249 021f 27       		.uleb128 0x27
 3250 0220 19       		.uleb128 0x19
 3251 0221 11       		.uleb128 0x11
 3252 0222 01       		.uleb128 0x1
 3253 0223 12       		.uleb128 0x12
 3254 0224 06       		.uleb128 0x6
 3255 0225 40       		.uleb128 0x40
 3256 0226 18       		.uleb128 0x18
 3257 0227 9742     		.uleb128 0x2117
 3258 0229 19       		.uleb128 0x19
 3259 022a 01       		.uleb128 0x1
 3260 022b 13       		.uleb128 0x13
 3261 022c 00       		.byte	0
 3262 022d 00       		.byte	0
 3263 022e 2C       		.uleb128 0x2c
 3264 022f 05       		.uleb128 0x5
 3265 0230 00       		.byte	0
 3266 0231 03       		.uleb128 0x3
 3267 0232 0E       		.uleb128 0xe
 3268 0233 3A       		.uleb128 0x3a
 3269 0234 0B       		.uleb128 0xb
 3270 0235 3B       		.uleb128 0x3b
 3271 0236 0B       		.uleb128 0xb
 3272 0237 49       		.uleb128 0x49
 3273 0238 13       		.uleb128 0x13
 3274 0239 02       		.uleb128 0x2
 3275 023a 17       		.uleb128 0x17
 3276 023b 00       		.byte	0
 3277 023c 00       		.byte	0
 3278 023d 2D       		.uleb128 0x2d
 3279 023e 898201   		.uleb128 0x4109
 3280 0241 00       		.byte	0
 3281 0242 11       		.uleb128 0x11
 3282 0243 01       		.uleb128 0x1
 3283 0244 31       		.uleb128 0x31
 3284 0245 13       		.uleb128 0x13
 3285 0246 00       		.byte	0
 3286 0247 00       		.byte	0
 3287 0248 2E       		.uleb128 0x2e
 3288 0249 898201   		.uleb128 0x4109
 3289 024c 01       		.byte	0x1
 3290 024d 11       		.uleb128 0x11
 3291 024e 01       		.uleb128 0x1
 3292 024f 31       		.uleb128 0x31
 3293 0250 13       		.uleb128 0x13
 3294 0251 01       		.uleb128 0x1
 3295 0252 13       		.uleb128 0x13
 3296 0253 00       		.byte	0
 3297 0254 00       		.byte	0
 3298 0255 2F       		.uleb128 0x2f
 3299 0256 8A8201   		.uleb128 0x410a
 3300 0259 00       		.byte	0
 3301 025a 02       		.uleb128 0x2
ARM GAS  /var/folders/qd/4mxf5pkd0zdf0b9dd1hp39180000gn/T//ccetYF1O.s 			page 59


 3302 025b 18       		.uleb128 0x18
 3303 025c 9142     		.uleb128 0x2111
 3304 025e 18       		.uleb128 0x18
 3305 025f 00       		.byte	0
 3306 0260 00       		.byte	0
 3307 0261 30       		.uleb128 0x30
 3308 0262 898201   		.uleb128 0x4109
 3309 0265 00       		.byte	0
 3310 0266 11       		.uleb128 0x11
 3311 0267 01       		.uleb128 0x1
 3312 0268 9542     		.uleb128 0x2115
 3313 026a 19       		.uleb128 0x19
 3314 026b 31       		.uleb128 0x31
 3315 026c 13       		.uleb128 0x13
 3316 026d 00       		.byte	0
 3317 026e 00       		.byte	0
 3318 026f 31       		.uleb128 0x31
 3319 0270 2E       		.uleb128 0x2e
 3320 0271 01       		.byte	0x1
 3321 0272 31       		.uleb128 0x31
 3322 0273 13       		.uleb128 0x13
 3323 0274 11       		.uleb128 0x11
 3324 0275 01       		.uleb128 0x1
 3325 0276 12       		.uleb128 0x12
 3326 0277 06       		.uleb128 0x6
 3327 0278 40       		.uleb128 0x40
 3328 0279 18       		.uleb128 0x18
 3329 027a 9742     		.uleb128 0x2117
 3330 027c 19       		.uleb128 0x19
 3331 027d 01       		.uleb128 0x1
 3332 027e 13       		.uleb128 0x13
 3333 027f 00       		.byte	0
 3334 0280 00       		.byte	0
 3335 0281 32       		.uleb128 0x32
 3336 0282 2E       		.uleb128 0x2e
 3337 0283 00       		.byte	0
 3338 0284 3F       		.uleb128 0x3f
 3339 0285 19       		.uleb128 0x19
 3340 0286 3C       		.uleb128 0x3c
 3341 0287 19       		.uleb128 0x19
 3342 0288 6E       		.uleb128 0x6e
 3343 0289 0E       		.uleb128 0xe
 3344 028a 03       		.uleb128 0x3
 3345 028b 0E       		.uleb128 0xe
 3346 028c 00       		.byte	0
 3347 028d 00       		.byte	0
 3348 028e 33       		.uleb128 0x33
 3349 028f 2E       		.uleb128 0x2e
 3350 0290 00       		.byte	0
 3351 0291 3F       		.uleb128 0x3f
 3352 0292 19       		.uleb128 0x19
 3353 0293 3C       		.uleb128 0x3c
 3354 0294 19       		.uleb128 0x19
 3355 0295 6E       		.uleb128 0x6e
 3356 0296 0E       		.uleb128 0xe
 3357 0297 03       		.uleb128 0x3
 3358 0298 0E       		.uleb128 0xe
ARM GAS  /var/folders/qd/4mxf5pkd0zdf0b9dd1hp39180000gn/T//ccetYF1O.s 			page 60


 3359 0299 3A       		.uleb128 0x3a
 3360 029a 0B       		.uleb128 0xb
 3361 029b 3B       		.uleb128 0x3b
 3362 029c 0B       		.uleb128 0xb
 3363 029d 00       		.byte	0
 3364 029e 00       		.byte	0
 3365 029f 00       		.byte	0
 3366              		.section	.debug_loc,"",%progbits
 3367              	.Ldebug_loc0:
 3368              	.LLST0:
 3369 0000 00000000 		.4byte	.LVL6
 3370 0004 1B000000 		.4byte	.LVL7-1
 3371 0008 0100     		.2byte	0x1
 3372 000a 50       		.byte	0x50
 3373 000b 1B000000 		.4byte	.LVL7-1
 3374 000f 20000000 		.4byte	.LFE221
 3375 0013 0400     		.2byte	0x4
 3376 0015 F3       		.byte	0xf3
 3377 0016 01       		.uleb128 0x1
 3378 0017 50       		.byte	0x50
 3379 0018 9F       		.byte	0x9f
 3380 0019 00000000 		.4byte	0
 3381 001d 00000000 		.4byte	0
 3382              		.section	.debug_aranges,"",%progbits
 3383 0000 34000000 		.4byte	0x34
 3384 0004 0200     		.2byte	0x2
 3385 0006 00000000 		.4byte	.Ldebug_info0
 3386 000a 04       		.byte	0x4
 3387 000b 00       		.byte	0
 3388 000c 0000     		.2byte	0
 3389 000e 0000     		.2byte	0
 3390 0010 00000000 		.4byte	.LFB219
 3391 0014 24000000 		.4byte	.LFE219-.LFB219
 3392 0018 00000000 		.4byte	.LFB220
 3393 001c 40000000 		.4byte	.LFE220-.LFB220
 3394 0020 00000000 		.4byte	.LFB221
 3395 0024 20000000 		.4byte	.LFE221-.LFB221
 3396 0028 00000000 		.4byte	.LFB222
 3397 002c 20000000 		.4byte	.LFE222-.LFB222
 3398 0030 00000000 		.4byte	0
 3399 0034 00000000 		.4byte	0
 3400              		.section	.debug_ranges,"",%progbits
 3401              	.Ldebug_ranges0:
 3402 0000 00000000 		.4byte	.LFB219
 3403 0004 24000000 		.4byte	.LFE219
 3404 0008 00000000 		.4byte	.LFB220
 3405 000c 40000000 		.4byte	.LFE220
 3406 0010 00000000 		.4byte	.LFB221
 3407 0014 20000000 		.4byte	.LFE221
 3408 0018 00000000 		.4byte	.LFB222
 3409 001c 20000000 		.4byte	.LFE222
 3410 0020 00000000 		.4byte	0
 3411 0024 00000000 		.4byte	0
 3412              		.section	.debug_line,"",%progbits
 3413              	.Ldebug_line0:
 3414 0000 09050000 		.section	.debug_str,"MS",%progbits,1
 3414      0200B404 
ARM GAS  /var/folders/qd/4mxf5pkd0zdf0b9dd1hp39180000gn/T//ccetYF1O.s 			page 61


 3414      00000201 
 3414      FB0E0D00 
 3414      01010101 
 3415              	.LASF271:
 3416 0000 6D6F645F 		.ascii	"mod_explo_explorateTheAreaOnThread\000"
 3416      6578706C 
 3416      6F5F6578 
 3416      706C6F72 
 3416      61746554 
 3417              	.LASF168:
 3418 0023 705F7374 		.ascii	"p_stats\000"
 3418      61747300 
 3419              	.LASF125:
 3420 002b 5F5F6C6F 		.ascii	"__locale_t\000"
 3420      63616C65 
 3420      5F7400
 3421              	.LASF24:
 3422 0036 5F5F7661 		.ascii	"__value\000"
 3422      6C756500 
 3423              	.LASF259:
 3424 003e 63665F6F 		.ascii	"cf_off_name\000"
 3424      66665F6E 
 3424      616D6500 
 3425              	.LASF145:
 3426 004a 73797374 		.ascii	"systime_t\000"
 3426      696D655F 
 3426      7400
 3427              	.LASF93:
 3428 0054 5F5F7366 		.ascii	"__sf\000"
 3428      00
 3429              	.LASF248:
 3430 0059 63685F69 		.ascii	"ch_identifier\000"
 3430      64656E74 
 3430      69666965 
 3430      7200
 3431              	.LASF151:
 3432 0067 705F6374 		.ascii	"p_ctx\000"
 3432      7800
 3433              	.LASF60:
 3434 006d 5F726561 		.ascii	"_read\000"
 3434      6400
 3435              	.LASF140:
 3436 0073 74707269 		.ascii	"tprio_t\000"
 3436      6F5F7400 
 3437              	.LASF278:
 3438 007b 474E5520 		.ascii	"GNU C11 7.2.1 20170904 (release) [ARM/embedded-7-br"
 3438      43313120 
 3438      372E322E 
 3438      31203230 
 3438      31373039 
 3439 00ae 616E6368 		.ascii	"anch revision 255204] -mcpu=cortex-m4 -mfloat-abi=h"
 3439      20726576 
 3439      6973696F 
 3439      6E203235 
 3439      35323034 
 3440 00e1 61726420 		.ascii	"ard -mfpu=fpv4-sp-d16 -mno-thumb-interwork -mthumb "
 3440      2D6D6670 
ARM GAS  /var/folders/qd/4mxf5pkd0zdf0b9dd1hp39180000gn/T//ccetYF1O.s 			page 62


 3440      753D6670 
 3440      76342D73 
 3440      702D6431 
 3441 0114 2D676764 		.ascii	"-ggdb -O2 -fomit-frame-pointer -falign-functions=16"
 3441      62202D4F 
 3441      32202D66 
 3441      6F6D6974 
 3441      2D667261 
 3442 0147 202D666E 		.ascii	" -fno-strict-aliasing -fstack-protector-all -ffunct"
 3442      6F2D7374 
 3442      72696374 
 3442      2D616C69 
 3442      6173696E 
 3443 017a 696F6E2D 		.ascii	"ion-sections -fdata-sections -fno-common -fsingle-p"
 3443      73656374 
 3443      696F6E73 
 3443      202D6664 
 3443      6174612D 
 3444 01ad 72656369 		.ascii	"recision-constant\000"
 3444      73696F6E 
 3444      2D636F6E 
 3444      7374616E 
 3444      7400
 3445              	.LASF267:
 3446 01bf 63685F64 		.ascii	"ch_debug\000"
 3446      65627567 
 3446      00
 3447              	.LASF162:
 3448 01c8 705F6D73 		.ascii	"p_msgqueue\000"
 3448      67717565 
 3448      756500
 3449              	.LASF61:
 3450 01d3 5F777269 		.ascii	"_write\000"
 3450      746500
 3451              	.LASF178:
 3452 01da 725F6374 		.ascii	"r_ctx\000"
 3452      7800
 3453              	.LASF131:
 3454 01e0 696E7433 		.ascii	"int32_t\000"
 3454      325F7400 
 3455              	.LASF104:
 3456 01e8 5F617363 		.ascii	"_asctime_buf\000"
 3456      74696D65 
 3456      5F627566 
 3456      00
 3457              	.LASF87:
 3458 01f5 5F637674 		.ascii	"_cvtlen\000"
 3458      6C656E00 
 3459              	.LASF256:
 3460 01fd 63665F6F 		.ascii	"cf_off_ctx\000"
 3460      66665F63 
 3460      747800
 3461              	.LASF182:
 3462 0208 76746675 		.ascii	"vtfunc_t\000"
 3462      6E635F74 
 3462      00
 3463              	.LASF191:
ARM GAS  /var/folders/qd/4mxf5pkd0zdf0b9dd1hp39180000gn/T//ccetYF1O.s 			page 63


 3464 0211 63685F76 		.ascii	"ch_virtual_timers_list\000"
 3464      69727475 
 3464      616C5F74 
 3464      696D6572 
 3464      735F6C69 
 3465              	.LASF279:
 3466 0228 2E2F6D6F 		.ascii	"./modules/mod_exploration.c\000"
 3466      64756C65 
 3466      732F6D6F 
 3466      645F6578 
 3466      706C6F72 
 3467              	.LASF123:
 3468 0244 5F756E75 		.ascii	"_unused\000"
 3468      73656400 
 3469              	.LASF34:
 3470 024c 5F5F746D 		.ascii	"__tm\000"
 3470      00
 3471              	.LASF119:
 3472 0251 5F776373 		.ascii	"_wcsrtombs_state\000"
 3472      72746F6D 
 3472      62735F73 
 3472      74617465 
 3472      00
 3473              	.LASF65:
 3474 0262 5F6E6275 		.ascii	"_nbuf\000"
 3474      6600
 3475              	.LASF35:
 3476 0268 5F5F746D 		.ascii	"__tm_sec\000"
 3476      5F736563 
 3476      00
 3477              	.LASF112:
 3478 0271 5F6C3634 		.ascii	"_l64a_buf\000"
 3478      615F6275 
 3478      6600
 3479              	.LASF280:
 3480 027b 2F557365 		.ascii	"/Users/nicolas/Library/Mobile Documents/com~apple~C"
 3480      72732F6E 
 3480      69636F6C 
 3480      61732F4C 
 3480      69627261 
 3481 02ae 6C6F7564 		.ascii	"loudDocs/Projects/Cours/epuck_project/Sources\000"
 3481      446F6373 
 3481      2F50726F 
 3481      6A656374 
 3481      732F436F 
 3482              	.LASF69:
 3483 02dc 5F6C6F63 		.ascii	"_lock\000"
 3483      6B00
 3484              	.LASF197:
 3485 02e2 6C6F636B 		.ascii	"lock_cnt\000"
 3485      5F636E74 
 3485      00
 3486              	.LASF252:
 3487 02eb 63685F70 		.ascii	"ch_ptrsize\000"
 3487      74727369 
 3487      7A6500
 3488              	.LASF282:
ARM GAS  /var/folders/qd/4mxf5pkd0zdf0b9dd1hp39180000gn/T//ccetYF1O.s 			page 64


 3489 02f6 74797065 		.ascii	"type\000"
 3489      00
 3490              	.LASF100:
 3491 02fb 5F6D756C 		.ascii	"_mult\000"
 3491      7400
 3492              	.LASF213:
 3493 0301 73655F74 		.ascii	"se_tp\000"
 3493      7000
 3494              	.LASF227:
 3495 0307 74696D65 		.ascii	"time_measurement_t\000"
 3495      5F6D6561 
 3495      73757265 
 3495      6D656E74 
 3495      5F7400
 3496              	.LASF245:
 3497 031a 6D5F6F77 		.ascii	"m_owner\000"
 3497      6E657200 
 3498              	.LASF189:
 3499 0322 76745F70 		.ascii	"vt_par\000"
 3499      617200
 3500              	.LASF157:
 3501 0329 705F666C 		.ascii	"p_flags\000"
 3501      61677300 
 3502              	.LASF21:
 3503 0331 5F5F7763 		.ascii	"__wch\000"
 3503      6800
 3504              	.LASF234:
 3505 0337 65786974 		.ascii	"exitcode\000"
 3505      636F6465 
 3505      00
 3506              	.LASF7:
 3507 0340 5F5F7569 		.ascii	"__uint8_t\000"
 3507      6E74385F 
 3507      7400
 3508              	.LASF239:
 3509 034a 65776D61 		.ascii	"ewmask\000"
 3509      736B00
 3510              	.LASF57:
 3511 0351 5F66696C 		.ascii	"_file\000"
 3511      6500
 3512              	.LASF254:
 3513 0357 63685F74 		.ascii	"ch_threadsize\000"
 3513      68726561 
 3513      6473697A 
 3513      6500
 3514              	.LASF44:
 3515 0365 5F6F6E5F 		.ascii	"_on_exit_args\000"
 3515      65786974 
 3515      5F617267 
 3515      7300
 3516              	.LASF152:
 3517 0373 705F6E65 		.ascii	"p_newer\000"
 3517      77657200 
 3518              	.LASF115:
 3519 037b 5F6D6272 		.ascii	"_mbrlen_state\000"
 3519      6C656E5F 
 3519      73746174 
ARM GAS  /var/folders/qd/4mxf5pkd0zdf0b9dd1hp39180000gn/T//ccetYF1O.s 			page 65


 3519      6500
 3520              	.LASF12:
 3521 0389 6C6F6E67 		.ascii	"long int\000"
 3521      20696E74 
 3521      00
 3522              	.LASF148:
 3523 0392 705F6E65 		.ascii	"p_next\000"
 3523      787400
 3524              	.LASF126:
 3525 0399 5F696D70 		.ascii	"_impure_ptr\000"
 3525      7572655F 
 3525      70747200 
 3526              	.LASF84:
 3527 03a5 5F726573 		.ascii	"_result_k\000"
 3527      756C745F 
 3527      6B00
 3528              	.LASF261:
 3529 03af 63665F6F 		.ascii	"cf_off_state\000"
 3529      66665F73 
 3529      74617465 
 3529      00
 3530              	.LASF54:
 3531 03bc 5F73697A 		.ascii	"_size\000"
 3531      6500
 3532              	.LASF149:
 3533 03c2 705F7072 		.ascii	"p_prev\000"
 3533      657600
 3534              	.LASF105:
 3535 03c9 5F6C6F63 		.ascii	"_localtime_buf\000"
 3535      616C7469 
 3535      6D655F62 
 3535      756600
 3536              	.LASF276:
 3537 03d8 6D6F645F 		.ascii	"mod_mapping_doInitialMapping\000"
 3537      6D617070 
 3537      696E675F 
 3537      646F496E 
 3537      69746961 
 3538              	.LASF137:
 3539 03f5 74737461 		.ascii	"tstate_t\000"
 3539      74655F74 
 3539      00
 3540              	.LASF135:
 3541 03fe 72747469 		.ascii	"rttime_t\000"
 3541      6D655F74 
 3541      00
 3542              	.LASF172:
 3543 0407 74687265 		.ascii	"threads_queue_t\000"
 3543      6164735F 
 3543      71756575 
 3543      655F7400 
 3544              	.LASF165:
 3545 0417 705F6D74 		.ascii	"p_mtxlist\000"
 3545      786C6973 
 3545      7400
 3546              	.LASF208:
 3547 0421 72656761 		.ascii	"regarm_t\000"
ARM GAS  /var/folders/qd/4mxf5pkd0zdf0b9dd1hp39180000gn/T//ccetYF1O.s 			page 66


 3547      726D5F74 
 3547      00
 3548              	.LASF39:
 3549 042a 5F5F746D 		.ascii	"__tm_mon\000"
 3549      5F6D6F6E 
 3549      00
 3550              	.LASF102:
 3551 0433 5F756E75 		.ascii	"_unused_rand\000"
 3551      7365645F 
 3551      72616E64 
 3551      00
 3552              	.LASF5:
 3553 0440 7369676E 		.ascii	"signed char\000"
 3553      65642063 
 3553      68617200 
 3554              	.LASF159:
 3555 044c 705F7072 		.ascii	"p_preempt\000"
 3555      65656D70 
 3555      7400
 3556              	.LASF129:
 3557 0456 75696E74 		.ascii	"uint8_t\000"
 3557      385F7400 
 3558              	.LASF142:
 3559 045e 6576656E 		.ascii	"eventmask_t\000"
 3559      746D6173 
 3559      6B5F7400 
 3560              	.LASF210:
 3561 046a 636F6E74 		.ascii	"context\000"
 3561      65787400 
 3562              	.LASF236:
 3563 0472 77747472 		.ascii	"wttrp\000"
 3563      7000
 3564              	.LASF272:
 3565 0478 6D6F645F 		.ascii	"mod_explo_discoverTheAreaOnThread\000"
 3565      6578706C 
 3565      6F5F6469 
 3565      73636F76 
 3565      65725468 
 3566              	.LASF1:
 3567 049a 756E7369 		.ascii	"unsigned char\000"
 3567      676E6564 
 3567      20636861 
 3567      7200
 3568              	.LASF195:
 3569 04a8 70616E69 		.ascii	"panic_msg\000"
 3569      635F6D73 
 3569      6700
 3570              	.LASF79:
 3571 04b2 5F756E73 		.ascii	"_unspecified_locale_info\000"
 3571      70656369 
 3571      66696564 
 3571      5F6C6F63 
 3571      616C655F 
 3572              	.LASF72:
 3573 04cb 5F726565 		.ascii	"_reent\000"
 3573      6E7400
 3574              	.LASF179:
ARM GAS  /var/folders/qd/4mxf5pkd0zdf0b9dd1hp39180000gn/T//ccetYF1O.s 			page 67


 3575 04d2 725F6E65 		.ascii	"r_newer\000"
 3575      77657200 
 3576              	.LASF127:
 3577 04da 5F676C6F 		.ascii	"_global_impure_ptr\000"
 3577      62616C5F 
 3577      696D7075 
 3577      72655F70 
 3577      747200
 3578              	.LASF193:
 3579 04ed 73797374 		.ascii	"system_debug_t\000"
 3579      656D5F64 
 3579      65627567 
 3579      5F7400
 3580              	.LASF27:
 3581 04fc 63686172 		.ascii	"char\000"
 3581      00
 3582              	.LASF6:
 3583 0501 6578706C 		.ascii	"exploration_t\000"
 3583      6F726174 
 3583      696F6E5F 
 3583      7400
 3584              	.LASF247:
 3585 050f 6D5F636E 		.ascii	"m_cnt\000"
 3585      7400
 3586              	.LASF51:
 3587 0515 5F666E73 		.ascii	"_fns\000"
 3587      00
 3588              	.LASF63:
 3589 051a 5F636C6F 		.ascii	"_close\000"
 3589      736500
 3590              	.LASF150:
 3591 0521 705F7072 		.ascii	"p_prio\000"
 3591      696F00
 3592              	.LASF9:
 3593 0528 5F5F7569 		.ascii	"__uint16_t\000"
 3593      6E743136 
 3593      5F7400
 3594              	.LASF235:
 3595 0533 77746F62 		.ascii	"wtobjp\000"
 3595      6A7000
 3596              	.LASF265:
 3597 053a 63665F6F 		.ascii	"cf_off_time\000"
 3597      66665F74 
 3597      696D6500 
 3598              	.LASF229:
 3599 0546 6E5F6374 		.ascii	"n_ctxswc\000"
 3599      78737763 
 3599      00
 3600              	.LASF74:
 3601 054f 5F737464 		.ascii	"_stdin\000"
 3601      696E00
 3602              	.LASF257:
 3603 0556 63665F6F 		.ascii	"cf_off_newer\000"
 3603      66665F6E 
 3603      65776572 
 3603      00
 3604              	.LASF209:
ARM GAS  /var/folders/qd/4mxf5pkd0zdf0b9dd1hp39180000gn/T//ccetYF1O.s 			page 68


 3605 0563 73746B61 		.ascii	"stkalign_t\000"
 3605      6C69676E 
 3605      5F7400
 3606              	.LASF255:
 3607 056e 63665F6F 		.ascii	"cf_off_prio\000"
 3607      66665F70 
 3607      72696F00 
 3608              	.LASF224:
 3609 057a 776F7273 		.ascii	"worst\000"
 3609      7400
 3610              	.LASF273:
 3611 0580 6D6F645F 		.ascii	"mod_explo_init\000"
 3611      6578706C 
 3611      6F5F696E 
 3611      697400
 3612              	.LASF143:
 3613 058f 636E745F 		.ascii	"cnt_t\000"
 3613      7400
 3614              	.LASF198:
 3615 0595 74726163 		.ascii	"trace_buffer\000"
 3615      655F6275 
 3615      66666572 
 3615      00
 3616              	.LASF275:
 3617 05a2 63685468 		.ascii	"chThdSleep\000"
 3617      64536C65 
 3617      657000
 3618              	.LASF188:
 3619 05ad 76745F66 		.ascii	"vt_func\000"
 3619      756E6300 
 3620              	.LASF59:
 3621 05b5 5F636F6F 		.ascii	"_cookie\000"
 3621      6B696500 
 3622              	.LASF220:
 3623 05bd 63685F74 		.ascii	"ch_trace_buffer_t\000"
 3623      72616365 
 3623      5F627566 
 3623      6665725F 
 3623      7400
 3624              	.LASF164:
 3625 05cf 705F6570 		.ascii	"p_epending\000"
 3625      656E6469 
 3625      6E6700
 3626              	.LASF238:
 3627 05da 77746D74 		.ascii	"wtmtxp\000"
 3627      787000
 3628              	.LASF32:
 3629 05e1 5F776473 		.ascii	"_wds\000"
 3629      00
 3630              	.LASF175:
 3631 05e6 63685F72 		.ascii	"ch_ready_list\000"
 3631      65616479 
 3631      5F6C6973 
 3631      7400
 3632              	.LASF124:
 3633 05f4 5F5F6C6F 		.ascii	"__lock\000"
 3633      636B00
ARM GAS  /var/folders/qd/4mxf5pkd0zdf0b9dd1hp39180000gn/T//ccetYF1O.s 			page 69


 3634              	.LASF91:
 3635 05fb 5F736967 		.ascii	"_sig_func\000"
 3635      5F66756E 
 3635      6300
 3636              	.LASF67:
 3637 0605 5F6F6666 		.ascii	"_offset\000"
 3637      73657400 
 3638              	.LASF88:
 3639 060d 5F637674 		.ascii	"_cvtbuf\000"
 3639      62756600 
 3640              	.LASF196:
 3641 0615 6973725F 		.ascii	"isr_cnt\000"
 3641      636E7400 
 3642              	.LASF226:
 3643 061d 63756D75 		.ascii	"cumulative\000"
 3643      6C617469 
 3643      766500
 3644              	.LASF231:
 3645 0628 6D5F6372 		.ascii	"m_crit_isr\000"
 3645      69745F69 
 3645      737200
 3646              	.LASF215:
 3647 0633 73655F73 		.ascii	"se_state\000"
 3647      74617465 
 3647      00
 3648              	.LASF230:
 3649 063c 6D5F6372 		.ascii	"m_crit_thd\000"
 3649      69745F74 
 3649      686400
 3650              	.LASF15:
 3651 0647 5F5F7569 		.ascii	"__uint64_t\000"
 3651      6E743634 
 3651      5F7400
 3652              	.LASF85:
 3653 0652 5F703573 		.ascii	"_p5s\000"
 3653      00
 3654              	.LASF14:
 3655 0657 6C6F6E67 		.ascii	"long unsigned int\000"
 3655      20756E73 
 3655      69676E65 
 3655      6420696E 
 3655      7400
 3656              	.LASF249:
 3657 0669 63685F7A 		.ascii	"ch_zero\000"
 3657      65726F00 
 3658              	.LASF55:
 3659 0671 5F5F7346 		.ascii	"__sFILE\000"
 3659      494C4500 
 3660              	.LASF81:
 3661 0679 5F5F7364 		.ascii	"__sdidinit\000"
 3661      6964696E 
 3661      697400
 3662              	.LASF71:
 3663 0684 5F666C61 		.ascii	"_flags2\000"
 3663      67733200 
 3664              	.LASF207:
 3665 068c 53797374 		.ascii	"SystemCoreClock\000"
ARM GAS  /var/folders/qd/4mxf5pkd0zdf0b9dd1hp39180000gn/T//ccetYF1O.s 			page 70


 3665      656D436F 
 3665      7265436C 
 3665      6F636B00 
 3666              	.LASF240:
 3667 069c 63685F73 		.ascii	"ch_semaphore\000"
 3667      656D6170 
 3667      686F7265 
 3667      00
 3668              	.LASF147:
 3669 06a9 63685F74 		.ascii	"ch_thread\000"
 3669      68726561 
 3669      6400
 3670              	.LASF190:
 3671 06b3 76697274 		.ascii	"virtual_timers_list_t\000"
 3671      75616C5F 
 3671      74696D65 
 3671      72735F6C 
 3671      6973745F 
 3672              	.LASF73:
 3673 06c9 5F657272 		.ascii	"_errno\000"
 3673      6E6F00
 3674              	.LASF183:
 3675 06d0 76697274 		.ascii	"virtual_timer_t\000"
 3675      75616C5F 
 3675      74696D65 
 3675      725F7400 
 3676              	.LASF174:
 3677 06e0 72656164 		.ascii	"ready_list_t\000"
 3677      795F6C69 
 3677      73745F74 
 3677      00
 3678              	.LASF113:
 3679 06ed 5F736967 		.ascii	"_signal_buf\000"
 3679      6E616C5F 
 3679      62756600 
 3680              	.LASF274:
 3681 06f9 6D6F645F 		.ascii	"mod_com_writeDatas\000"
 3681      636F6D5F 
 3681      77726974 
 3681      65446174 
 3681      617300
 3682              	.LASF144:
 3683 070c 75636E74 		.ascii	"ucnt_t\000"
 3683      5F7400
 3684              	.LASF33:
 3685 0713 5F426967 		.ascii	"_Bigint\000"
 3685      696E7400 
 3686              	.LASF171:
 3687 071b 63685F74 		.ascii	"ch_threads_list\000"
 3687      68726561 
 3687      64735F6C 
 3687      69737400 
 3688              	.LASF216:
 3689 072b 63685F73 		.ascii	"ch_swc_event_t\000"
 3689      77635F65 
 3689      76656E74 
 3689      5F7400
ARM GAS  /var/folders/qd/4mxf5pkd0zdf0b9dd1hp39180000gn/T//ccetYF1O.s 			page 71


 3690              	.LASF30:
 3691 073a 5F6D6178 		.ascii	"_maxwds\000"
 3691      77647300 
 3692              	.LASF228:
 3693 0742 6E5F6972 		.ascii	"n_irq\000"
 3693      7100
 3694              	.LASF82:
 3695 0748 5F5F636C 		.ascii	"__cleanup\000"
 3695      65616E75 
 3695      7000
 3696              	.LASF90:
 3697 0752 5F617465 		.ascii	"_atexit0\000"
 3697      78697430 
 3697      00
 3698              	.LASF264:
 3699 075b 63665F6F 		.ascii	"cf_off_preempt\000"
 3699      66665F70 
 3699      7265656D 
 3699      707400
 3700              	.LASF13:
 3701 076a 5F5F7569 		.ascii	"__uint32_t\000"
 3701      6E743332 
 3701      5F7400
 3702              	.LASF78:
 3703 0775 5F656D65 		.ascii	"_emergency\000"
 3703      7267656E 
 3703      637900
 3704              	.LASF283:
 3705 0780 5F5F7374 		.ascii	"__stack_chk_fail\000"
 3705      61636B5F 
 3705      63686B5F 
 3705      6661696C 
 3705      00
 3706              	.LASF3:
 3707 0791 6C6F6E67 		.ascii	"long long int\000"
 3707      206C6F6E 
 3707      6720696E 
 3707      7400
 3708              	.LASF251:
 3709 079f 63685F76 		.ascii	"ch_version\000"
 3709      65727369 
 3709      6F6E00
 3710              	.LASF244:
 3711 07aa 6D5F7175 		.ascii	"m_queue\000"
 3711      65756500 
 3712              	.LASF96:
 3713 07b2 5F6E696F 		.ascii	"_niobs\000"
 3713      627300
 3714              	.LASF219:
 3715 07b9 74625F62 		.ascii	"tb_buffer\000"
 3715      75666665 
 3715      7200
 3716              	.LASF185:
 3717 07c3 76745F6E 		.ascii	"vt_next\000"
 3717      65787400 
 3718              	.LASF92:
 3719 07cb 5F5F7367 		.ascii	"__sglue\000"
ARM GAS  /var/folders/qd/4mxf5pkd0zdf0b9dd1hp39180000gn/T//ccetYF1O.s 			page 72


 3719      6C756500 
 3720              	.LASF122:
 3721 07d3 5F6E6D61 		.ascii	"_nmalloc\000"
 3721      6C6C6F63 
 3721      00
 3722              	.LASF186:
 3723 07dc 76745F70 		.ascii	"vt_prev\000"
 3723      72657600 
 3724              	.LASF106:
 3725 07e4 5F67616D 		.ascii	"_gamma_signgam\000"
 3725      6D615F73 
 3725      69676E67 
 3725      616D00
 3726              	.LASF217:
 3727 07f3 74625F73 		.ascii	"tb_size\000"
 3727      697A6500 
 3728              	.LASF86:
 3729 07fb 5F667265 		.ascii	"_freelist\000"
 3729      656C6973 
 3729      7400
 3730              	.LASF97:
 3731 0805 5F696F62 		.ascii	"_iobs\000"
 3731      7300
 3732              	.LASF95:
 3733 080b 5F676C75 		.ascii	"_glue\000"
 3733      6500
 3734              	.LASF206:
 3735 0811 49544D5F 		.ascii	"ITM_RxBuffer\000"
 3735      52784275 
 3735      66666572 
 3735      00
 3736              	.LASF31:
 3737 081e 5F736967 		.ascii	"_sign\000"
 3737      6E00
 3738              	.LASF281:
 3739 0824 6D6F645F 		.ascii	"mod_explo_sortTheAreaOnThread\000"
 3739      6578706C 
 3739      6F5F736F 
 3739      72745468 
 3739      65417265 
 3740              	.LASF161:
 3741 0842 705F7761 		.ascii	"p_waiting\000"
 3741      6974696E 
 3741      6700
 3742              	.LASF214:
 3743 084c 73655F77 		.ascii	"se_wtobjp\000"
 3743      746F626A 
 3743      7000
 3744              	.LASF205:
 3745 0856 69646C65 		.ascii	"idle_thread_wa\000"
 3745      5F746872 
 3745      6561645F 
 3745      776100
 3746              	.LASF2:
 3747 0865 756E7369 		.ascii	"unsigned int\000"
 3747      676E6564 
 3747      20696E74 
ARM GAS  /var/folders/qd/4mxf5pkd0zdf0b9dd1hp39180000gn/T//ccetYF1O.s 			page 73


 3747      00
 3748              	.LASF277:
 3749 0872 6D6F645F 		.ascii	"mod_mapping_init\000"
 3749      6D617070 
 3749      696E675F 
 3749      696E6974 
 3749      00
 3750              	.LASF134:
 3751 0883 7274636E 		.ascii	"rtcnt_t\000"
 3751      745F7400 
 3752              	.LASF167:
 3753 088b 705F6D70 		.ascii	"p_mpool\000"
 3753      6F6F6C00 
 3754              	.LASF120:
 3755 0893 5F685F65 		.ascii	"_h_errno\000"
 3755      72726E6F 
 3755      00
 3756              	.LASF158:
 3757 089c 705F7265 		.ascii	"p_refs\000"
 3757      667300
 3758              	.LASF253:
 3759 08a3 63685F74 		.ascii	"ch_timesize\000"
 3759      696D6573 
 3759      697A6500 
 3760              	.LASF118:
 3761 08af 5F776372 		.ascii	"_wcrtomb_state\000"
 3761      746F6D62 
 3761      5F737461 
 3761      746500
 3762              	.LASF38:
 3763 08be 5F5F746D 		.ascii	"__tm_mday\000"
 3763      5F6D6461 
 3763      7900
 3764              	.LASF232:
 3765 08c8 6B65726E 		.ascii	"kernel_stats_t\000"
 3765      656C5F73 
 3765      74617473 
 3765      5F7400
 3766              	.LASF89:
 3767 08d7 5F6E6577 		.ascii	"_new\000"
 3767      00
 3768              	.LASF64:
 3769 08dc 5F756275 		.ascii	"_ubuf\000"
 3769      6600
 3770              	.LASF76:
 3771 08e2 5F737464 		.ascii	"_stderr\000"
 3771      65727200 
 3772              	.LASF111:
 3773 08ea 5F776374 		.ascii	"_wctomb_state\000"
 3773      6F6D625F 
 3773      73746174 
 3773      6500
 3774              	.LASF70:
 3775 08f8 5F6D6273 		.ascii	"_mbstate\000"
 3775      74617465 
 3775      00
 3776              	.LASF107:
ARM GAS  /var/folders/qd/4mxf5pkd0zdf0b9dd1hp39180000gn/T//ccetYF1O.s 			page 74


 3777 0901 5F72616E 		.ascii	"_rand_next\000"
 3777      645F6E65 
 3777      787400
 3778              	.LASF56:
 3779 090c 5F666C61 		.ascii	"_flags\000"
 3779      677300
 3780              	.LASF221:
 3781 0913 6F666673 		.ascii	"offset\000"
 3781      657400
 3782              	.LASF169:
 3783 091a 74687265 		.ascii	"thread_reference_t\000"
 3783      61645F72 
 3783      65666572 
 3783      656E6365 
 3783      5F7400
 3784              	.LASF49:
 3785 092d 5F617465 		.ascii	"_atexit\000"
 3785      78697400 
 3786              	.LASF160:
 3787 0935 705F7469 		.ascii	"p_time\000"
 3787      6D6500
 3788              	.LASF263:
 3789 093c 63665F6F 		.ascii	"cf_off_refs\000"
 3789      66665F72 
 3789      65667300 
 3790              	.LASF23:
 3791 0948 5F5F636F 		.ascii	"__count\000"
 3791      756E7400 
 3792              	.LASF0:
 3793 0950 434F4E54 		.ascii	"CONTINUE\000"
 3793      494E5545 
 3793      00
 3794              	.LASF41:
 3795 0959 5F5F746D 		.ascii	"__tm_wday\000"
 3795      5F776461 
 3795      7900
 3796              	.LASF146:
 3797 0963 74687265 		.ascii	"thread_t\000"
 3797      61645F74 
 3797      00
 3798              	.LASF4:
 3799 096c 6C6F6E67 		.ascii	"long double\000"
 3799      20646F75 
 3799      626C6500 
 3800              	.LASF42:
 3801 0978 5F5F746D 		.ascii	"__tm_yday\000"
 3801      5F796461 
 3801      7900
 3802              	.LASF166:
 3803 0982 705F7265 		.ascii	"p_realprio\000"
 3803      616C7072 
 3803      696F00
 3804              	.LASF211:
 3805 098d 706F7274 		.ascii	"port_intctx\000"
 3805      5F696E74 
 3805      63747800 
 3806              	.LASF99:
ARM GAS  /var/folders/qd/4mxf5pkd0zdf0b9dd1hp39180000gn/T//ccetYF1O.s 			page 75


 3807 0999 5F736565 		.ascii	"_seed\000"
 3807      6400
 3808              	.LASF62:
 3809 099f 5F736565 		.ascii	"_seek\000"
 3809      6B00
 3810              	.LASF187:
 3811 09a5 76745F64 		.ascii	"vt_delta\000"
 3811      656C7461 
 3811      00
 3812              	.LASF19:
 3813 09ae 5F66706F 		.ascii	"_fpos_t\000"
 3813      735F7400 
 3814              	.LASF22:
 3815 09b6 5F5F7763 		.ascii	"__wchb\000"
 3815      686200
 3816              	.LASF184:
 3817 09bd 63685F76 		.ascii	"ch_virtual_timer\000"
 3817      69727475 
 3817      616C5F74 
 3817      696D6572 
 3817      00
 3818              	.LASF242:
 3819 09ce 735F636E 		.ascii	"s_cnt\000"
 3819      7400
 3820              	.LASF110:
 3821 09d4 5F6D6274 		.ascii	"_mbtowc_state\000"
 3821      6F77635F 
 3821      73746174 
 3821      6500
 3822              	.LASF204:
 3823 09e2 6B65726E 		.ascii	"kernel_stats\000"
 3823      656C5F73 
 3823      74617473 
 3823      00
 3824              	.LASF16:
 3825 09ef 6C6F6E67 		.ascii	"long long unsigned int\000"
 3825      206C6F6E 
 3825      6720756E 
 3825      7369676E 
 3825      65642069 
 3826              	.LASF153:
 3827 0a06 705F6F6C 		.ascii	"p_older\000"
 3827      64657200 
 3828              	.LASF130:
 3829 0a0e 75696E74 		.ascii	"uint16_t\000"
 3829      31365F74 
 3829      00
 3830              	.LASF46:
 3831 0a17 5F64736F 		.ascii	"_dso_handle\000"
 3831      5F68616E 
 3831      646C6500 
 3832              	.LASF141:
 3833 0a23 6D73675F 		.ascii	"msg_t\000"
 3833      7400
 3834              	.LASF173:
 3835 0a29 63685F74 		.ascii	"ch_threads_queue\000"
 3835      68726561 
ARM GAS  /var/folders/qd/4mxf5pkd0zdf0b9dd1hp39180000gn/T//ccetYF1O.s 			page 76


 3835      64735F71 
 3835      75657565 
 3835      00
 3836              	.LASF98:
 3837 0a3a 5F72616E 		.ascii	"_rand48\000"
 3837      64343800 
 3838              	.LASF262:
 3839 0a42 63665F6F 		.ascii	"cf_off_flags\000"
 3839      66665F66 
 3839      6C616773 
 3839      00
 3840              	.LASF75:
 3841 0a4f 5F737464 		.ascii	"_stdout\000"
 3841      6F757400 
 3842              	.LASF139:
 3843 0a57 74736C69 		.ascii	"tslices_t\000"
 3843      6365735F 
 3843      7400
 3844              	.LASF66:
 3845 0a61 5F626C6B 		.ascii	"_blksize\000"
 3845      73697A65 
 3845      00
 3846              	.LASF53:
 3847 0a6a 5F626173 		.ascii	"_base\000"
 3847      6500
 3848              	.LASF103:
 3849 0a70 5F737472 		.ascii	"_strtok_last\000"
 3849      746F6B5F 
 3849      6C617374 
 3849      00
 3850              	.LASF116:
 3851 0a7d 5F6D6272 		.ascii	"_mbrtowc_state\000"
 3851      746F7763 
 3851      5F737461 
 3851      746500
 3852              	.LASF203:
 3853 0a8c 6D61696E 		.ascii	"mainthread\000"
 3853      74687265 
 3853      616400
 3854              	.LASF26:
 3855 0a97 5F666C6F 		.ascii	"_flock_t\000"
 3855      636B5F74 
 3855      00
 3856              	.LASF94:
 3857 0aa0 5F5F4649 		.ascii	"__FILE\000"
 3857      4C4500
 3858              	.LASF269:
 3859 0aa7 6D6F645F 		.ascii	"mod_explo_waitUntilEndOfWork\000"
 3859      6578706C 
 3859      6F5F7761 
 3859      6974556E 
 3859      74696C45 
 3860              	.LASF223:
 3861 0ac4 62657374 		.ascii	"best\000"
 3861      00
 3862              	.LASF25:
 3863 0ac9 5F6D6273 		.ascii	"_mbstate_t\000"
ARM GAS  /var/folders/qd/4mxf5pkd0zdf0b9dd1hp39180000gn/T//ccetYF1O.s 			page 77


 3863      74617465 
 3863      5F7400
 3864              	.LASF176:
 3865 0ad4 725F7175 		.ascii	"r_queue\000"
 3865      65756500 
 3866              	.LASF108:
 3867 0adc 5F723438 		.ascii	"_r48\000"
 3867      00
 3868              	.LASF20:
 3869 0ae1 77696E74 		.ascii	"wint_t\000"
 3869      5F7400
 3870              	.LASF29:
 3871 0ae8 5F6E6578 		.ascii	"_next\000"
 3871      7400
 3872              	.LASF68:
 3873 0aee 5F646174 		.ascii	"_data\000"
 3873      6100
 3874              	.LASF201:
 3875 0af4 726C6973 		.ascii	"rlist\000"
 3875      7400
 3876              	.LASF136:
 3877 0afa 746D6F64 		.ascii	"tmode_t\000"
 3877      655F7400 
 3878              	.LASF192:
 3879 0b02 76745F73 		.ascii	"vt_systime\000"
 3879      79737469 
 3879      6D6500
 3880              	.LASF180:
 3881 0b0d 725F6F6C 		.ascii	"r_older\000"
 3881      64657200 
 3882              	.LASF222:
 3883 0b15 746D5F63 		.ascii	"tm_calibration_t\000"
 3883      616C6962 
 3883      72617469 
 3883      6F6E5F74 
 3883      00
 3884              	.LASF241:
 3885 0b26 735F7175 		.ascii	"s_queue\000"
 3885      65756500 
 3886              	.LASF109:
 3887 0b2e 5F6D626C 		.ascii	"_mblen_state\000"
 3887      656E5F73 
 3887      74617465 
 3887      00
 3888              	.LASF8:
 3889 0b3b 73686F72 		.ascii	"short int\000"
 3889      7420696E 
 3889      7400
 3890              	.LASF133:
 3891 0b45 75696E74 		.ascii	"uint64_t\000"
 3891      36345F74 
 3891      00
 3892              	.LASF243:
 3893 0b4e 63685F6D 		.ascii	"ch_mutex\000"
 3893      75746578 
 3893      00
 3894              	.LASF128:
ARM GAS  /var/folders/qd/4mxf5pkd0zdf0b9dd1hp39180000gn/T//ccetYF1O.s 			page 78


 3895 0b57 7375626F 		.ascii	"suboptarg\000"
 3895      70746172 
 3895      6700
 3896              	.LASF47:
 3897 0b61 5F666E74 		.ascii	"_fntypes\000"
 3897      79706573 
 3897      00
 3898              	.LASF177:
 3899 0b6a 725F7072 		.ascii	"r_prio\000"
 3899      696F00
 3900              	.LASF194:
 3901 0b71 63685F73 		.ascii	"ch_system_debug\000"
 3901      79737465 
 3901      6D5F6465 
 3901      62756700 
 3902              	.LASF40:
 3903 0b81 5F5F746D 		.ascii	"__tm_year\000"
 3903      5F796561 
 3903      7200
 3904              	.LASF258:
 3905 0b8b 63665F6F 		.ascii	"cf_off_older\000"
 3905      66665F6F 
 3905      6C646572 
 3905      00
 3906              	.LASF58:
 3907 0b98 5F6C6266 		.ascii	"_lbfsize\000"
 3907      73697A65 
 3907      00
 3908              	.LASF202:
 3909 0ba1 76746C69 		.ascii	"vtlist\000"
 3909      737400
 3910              	.LASF77:
 3911 0ba8 5F696E63 		.ascii	"_inc\000"
 3911      00
 3912              	.LASF50:
 3913 0bad 5F696E64 		.ascii	"_ind\000"
 3913      00
 3914              	.LASF52:
 3915 0bb2 5F5F7362 		.ascii	"__sbuf\000"
 3915      756600
 3916              	.LASF48:
 3917 0bb9 5F69735F 		.ascii	"_is_cxa\000"
 3917      63786100 
 3918              	.LASF17:
 3919 0bc1 5F4C4F43 		.ascii	"_LOCK_T\000"
 3919      4B5F5400 
 3920              	.LASF268:
 3921 0bc9 6D757465 		.ascii	"mutex_t\000"
 3921      785F7400 
 3922              	.LASF138:
 3923 0bd1 74726566 		.ascii	"trefs_t\000"
 3923      735F7400 
 3924              	.LASF121:
 3925 0bd9 5F6E6578 		.ascii	"_nextf\000"
 3925      746600
 3926              	.LASF260:
 3927 0be0 63665F6F 		.ascii	"cf_off_stklimit\000"
ARM GAS  /var/folders/qd/4mxf5pkd0zdf0b9dd1hp39180000gn/T//ccetYF1O.s 			page 79


 3927      66665F73 
 3927      746B6C69 
 3927      6D697400 
 3928              	.LASF170:
 3929 0bf0 74687265 		.ascii	"threads_list_t\000"
 3929      6164735F 
 3929      6C697374 
 3929      5F7400
 3930              	.LASF200:
 3931 0bff 63685F73 		.ascii	"ch_system\000"
 3931      79737465 
 3931      6D00
 3932              	.LASF80:
 3933 0c09 5F6C6F63 		.ascii	"_locale\000"
 3933      616C6500 
 3934              	.LASF28:
 3935 0c11 5F5F554C 		.ascii	"__ULong\000"
 3935      6F6E6700 
 3936              	.LASF132:
 3937 0c19 75696E74 		.ascii	"uint32_t\000"
 3937      33325F74 
 3937      00
 3938              	.LASF270:
 3939 0c22 6D6F645F 		.ascii	"mod_explo_sendTheMap\000"
 3939      6578706C 
 3939      6F5F7365 
 3939      6E645468 
 3939      654D6170 
 3940              	.LASF83:
 3941 0c37 5F726573 		.ascii	"_result\000"
 3941      756C7400 
 3942              	.LASF18:
 3943 0c3f 5F6F6666 		.ascii	"_off_t\000"
 3943      5F7400
 3944              	.LASF233:
 3945 0c46 7264796D 		.ascii	"rdymsg\000"
 3945      736700
 3946              	.LASF101:
 3947 0c4d 5F616464 		.ascii	"_add\000"
 3947      00
 3948              	.LASF10:
 3949 0c52 73686F72 		.ascii	"short unsigned int\000"
 3949      7420756E 
 3949      7369676E 
 3949      65642069 
 3949      6E7400
 3950              	.LASF37:
 3951 0c65 5F5F746D 		.ascii	"__tm_hour\000"
 3951      5F686F75 
 3951      7200
 3952              	.LASF199:
 3953 0c6f 63685F73 		.ascii	"ch_system_t\000"
 3953      79737465 
 3953      6D5F7400 
 3954              	.LASF266:
 3955 0c7b 63686465 		.ascii	"chdebug_t\000"
 3955      6275675F 
ARM GAS  /var/folders/qd/4mxf5pkd0zdf0b9dd1hp39180000gn/T//ccetYF1O.s 			page 80


 3955      7400
 3956              	.LASF250:
 3957 0c85 63685F73 		.ascii	"ch_size\000"
 3957      697A6500 
 3958              	.LASF117:
 3959 0c8d 5F6D6273 		.ascii	"_mbsrtowcs_state\000"
 3959      72746F77 
 3959      63735F73 
 3959      74617465 
 3959      00
 3960              	.LASF155:
 3961 0c9e 705F7374 		.ascii	"p_stklimit\000"
 3961      6B6C696D 
 3961      697400
 3962              	.LASF11:
 3963 0ca9 5F5F696E 		.ascii	"__int32_t\000"
 3963      7433325F 
 3963      7400
 3964              	.LASF181:
 3965 0cb3 725F6375 		.ascii	"r_current\000"
 3965      7272656E 
 3965      7400
 3966              	.LASF45:
 3967 0cbd 5F666E61 		.ascii	"_fnargs\000"
 3967      72677300 
 3968              	.LASF43:
 3969 0cc5 5F5F746D 		.ascii	"__tm_isdst\000"
 3969      5F697364 
 3969      737400
 3970              	.LASF212:
 3971 0cd0 73655F74 		.ascii	"se_time\000"
 3971      696D6500 
 3972              	.LASF154:
 3973 0cd8 705F6E61 		.ascii	"p_name\000"
 3973      6D6500
 3974              	.LASF246:
 3975 0cdf 6D5F6E65 		.ascii	"m_next\000"
 3975      787400
 3976              	.LASF218:
 3977 0ce6 74625F70 		.ascii	"tb_ptr\000"
 3977      747200
 3978              	.LASF36:
 3979 0ced 5F5F746D 		.ascii	"__tm_min\000"
 3979      5F6D696E 
 3979      00
 3980              	.LASF114:
 3981 0cf6 5F676574 		.ascii	"_getdate_err\000"
 3981      64617465 
 3981      5F657272 
 3981      00
 3982              	.LASF237:
 3983 0d03 77747365 		.ascii	"wtsemp\000"
 3983      6D7000
 3984              	.LASF225:
 3985 0d0a 6C617374 		.ascii	"last\000"
 3985      00
 3986              	.LASF163:
ARM GAS  /var/folders/qd/4mxf5pkd0zdf0b9dd1hp39180000gn/T//ccetYF1O.s 			page 81


 3987 0d0f 705F6D73 		.ascii	"p_msg\000"
 3987      6700
 3988              	.LASF156:
 3989 0d15 705F7374 		.ascii	"p_state\000"
 3989      61746500 
 3990              		.ident	"GCC: (GNU Tools for Arm Embedded Processors 7-2017-q4-major) 7.2.1 20170904 (release) [ARM
ARM GAS  /var/folders/qd/4mxf5pkd0zdf0b9dd1hp39180000gn/T//ccetYF1O.s 			page 82


DEFINED SYMBOLS
                            *ABS*:0000000000000000 mod_exploration.c
/var/folders/qd/4mxf5pkd0zdf0b9dd1hp39180000gn/T//ccetYF1O.s:18     .text.mod_explo_init:0000000000000000 $t
/var/folders/qd/4mxf5pkd0zdf0b9dd1hp39180000gn/T//ccetYF1O.s:26     .text.mod_explo_init:0000000000000000 mod_explo_init
/var/folders/qd/4mxf5pkd0zdf0b9dd1hp39180000gn/T//ccetYF1O.s:65     .text.mod_explo_init:0000000000000020 $d
/var/folders/qd/4mxf5pkd0zdf0b9dd1hp39180000gn/T//ccetYF1O.s:70     .text.mod_explo_discoverTheAreaOnThread:0000000000000000 $t
/var/folders/qd/4mxf5pkd0zdf0b9dd1hp39180000gn/T//ccetYF1O.s:78     .text.mod_explo_discoverTheAreaOnThread:0000000000000000 mod_explo_discoverTheAreaOnThread
/var/folders/qd/4mxf5pkd0zdf0b9dd1hp39180000gn/T//ccetYF1O.s:133    .text.mod_explo_discoverTheAreaOnThread:0000000000000034 $d
/var/folders/qd/4mxf5pkd0zdf0b9dd1hp39180000gn/T//ccetYF1O.s:140    .text.mod_explo_explorateTheAreaOnThread:0000000000000000 $t
/var/folders/qd/4mxf5pkd0zdf0b9dd1hp39180000gn/T//ccetYF1O.s:148    .text.mod_explo_explorateTheAreaOnThread:0000000000000000 mod_explo_explorateTheAreaOnThread
/var/folders/qd/4mxf5pkd0zdf0b9dd1hp39180000gn/T//ccetYF1O.s:181    .text.mod_explo_explorateTheAreaOnThread:000000000000001c $d
/var/folders/qd/4mxf5pkd0zdf0b9dd1hp39180000gn/T//ccetYF1O.s:186    .text.mod_explo_sortTheAreaOnThread:0000000000000000 $t
/var/folders/qd/4mxf5pkd0zdf0b9dd1hp39180000gn/T//ccetYF1O.s:194    .text.mod_explo_sortTheAreaOnThread:0000000000000000 mod_explo_sortTheAreaOnThread
/var/folders/qd/4mxf5pkd0zdf0b9dd1hp39180000gn/T//ccetYF1O.s:226    .text.mod_explo_sortTheAreaOnThread:000000000000001c $d
/var/folders/qd/4mxf5pkd0zdf0b9dd1hp39180000gn/T//ccetYF1O.s:231    .text.mod_explo_sendTheMap:0000000000000000 $t
/var/folders/qd/4mxf5pkd0zdf0b9dd1hp39180000gn/T//ccetYF1O.s:239    .text.mod_explo_sendTheMap:0000000000000000 mod_explo_sendTheMap
/var/folders/qd/4mxf5pkd0zdf0b9dd1hp39180000gn/T//ccetYF1O.s:267    .text.mod_explo_sendTheMap:000000000000001c $d
/var/folders/qd/4mxf5pkd0zdf0b9dd1hp39180000gn/T//ccetYF1O.s:272    .text.mod_explo_waitUntilEndOfWork:0000000000000000 $t
/var/folders/qd/4mxf5pkd0zdf0b9dd1hp39180000gn/T//ccetYF1O.s:280    .text.mod_explo_waitUntilEndOfWork:0000000000000000 mod_explo_waitUntilEndOfWork
/var/folders/qd/4mxf5pkd0zdf0b9dd1hp39180000gn/T//ccetYF1O.s:308    .text.mod_explo_waitUntilEndOfWork:000000000000001c $d
/var/folders/qd/4mxf5pkd0zdf0b9dd1hp39180000gn/T//ccetYF1O.s:313    .rodata.mod_explo_discoverTheAreaOnThread.str1.4:0000000000000000 $d

UNDEFINED SYMBOLS
mod_mapping_init
__stack_chk_fail
__stack_chk_guard
mod_com_writeDatas
chThdSleep
mod_mapping_doInitialMapping
