ARM GAS  /var/folders/qd/4mxf5pkd0zdf0b9dd1hp39180000gn/T//ccsf5yWP.s 			page 1


   1              		.cpu cortex-m4
   2              		.eabi_attribute 27, 1
   3              		.eabi_attribute 28, 1
   4              		.eabi_attribute 20, 1
   5              		.eabi_attribute 21, 1
   6              		.eabi_attribute 23, 3
   7              		.eabi_attribute 24, 1
   8              		.eabi_attribute 25, 1
   9              		.eabi_attribute 26, 1
  10              		.eabi_attribute 30, 2
  11              		.eabi_attribute 34, 1
  12              		.eabi_attribute 18, 4
  13              		.file	"mod_mapping.c"
  14              		.text
  15              	.Ltext0:
  16              		.cfi_sections	.debug_frame
  17              		.section	.text.checkAngle,"ax",%progbits
  18              		.align	1
  19              		.p2align 4,,15
  20              		.global	checkAngle
  21              		.syntax unified
  22              		.thumb
  23              		.thumb_func
  24              		.fpu fpv4-sp-d16
  25              		.type	checkAngle, %function
  26              	checkAngle:
  27              	.LFB259:
  28              		.file 1 "./modules/mod_mapping.c"
  29              		.loc 1 150 0
  30              		.cfi_startproc
  31              		@ args = 0, pretend = 0, frame = 8
  32              		@ frame_needed = 0, uses_anonymous_args = 0
  33              	.LVL0:
  34 0000 00B5     		push	{lr}
  35              		.cfi_def_cfa_offset 4
  36              		.cfi_offset 14, -4
  37              		.loc 1 151 0
  38 0002 D0ED007A 		vldr.32	s15, [r0]
  39 0006 9FED167A 		vldr.32	s14, .L14
  40              		.loc 1 150 0
  41 000a 164B     		ldr	r3, .L14+4
  42 000c 83B0     		sub	sp, sp, #12
  43              		.cfi_def_cfa_offset 16
  44              		.loc 1 151 0
  45 000e F4EEC77A 		vcmpe.f32	s15, s14
  46              		.loc 1 150 0
  47 0012 1A68     		ldr	r2, [r3]
  48 0014 0192     		str	r2, [sp, #4]
  49              		.loc 1 151 0
  50 0016 F1EE10FA 		vmrs	APSR_nzcv, FPSCR
  51 001a 08DB     		blt	.L2
  52              	.L4:
  53              		.loc 1 151 0 is_stmt 0 discriminator 2
  54 001c 77EEC77A 		vsub.f32	s15, s15, s14
  55 0020 F4EEC77A 		vcmpe.f32	s15, s14
  56 0024 F1EE10FA 		vmrs	APSR_nzcv, FPSCR
  57 0028 F8DA     		bge	.L4
ARM GAS  /var/folders/qd/4mxf5pkd0zdf0b9dd1hp39180000gn/T//ccsf5yWP.s 			page 2


  58 002a C0ED007A 		vstr.32	s15, [r0]
  59              	.L2:
  60              		.loc 1 152 0 is_stmt 1
  61 002e F5EEC07A 		vcmpe.f32	s15, #0
  62 0032 F1EE10FA 		vmrs	APSR_nzcv, FPSCR
  63 0036 0AD5     		bpl	.L1
  64 0038 9FED097A 		vldr.32	s14, .L14
  65              	.L7:
  66              		.loc 1 152 0 is_stmt 0 discriminator 2
  67 003c 77EE877A 		vadd.f32	s15, s15, s14
  68 0040 F5EEC07A 		vcmpe.f32	s15, #0
  69 0044 F1EE10FA 		vmrs	APSR_nzcv, FPSCR
  70 0048 F8D4     		bmi	.L7
  71 004a C0ED007A 		vstr.32	s15, [r0]
  72              	.L1:
  73              		.loc 1 153 0 is_stmt 1
  74 004e 019A     		ldr	r2, [sp, #4]
  75 0050 1B68     		ldr	r3, [r3]
  76 0052 9A42     		cmp	r2, r3
  77 0054 02D1     		bne	.L13
  78 0056 03B0     		add	sp, sp, #12
  79              		.cfi_remember_state
  80              		.cfi_def_cfa_offset 4
  81              		@ sp needed
  82 0058 5DF804FB 		ldr	pc, [sp], #4
  83              	.L13:
  84              		.cfi_restore_state
  85 005c FFF7FEFF 		bl	__stack_chk_fail
  86              	.LVL1:
  87              	.L15:
  88              		.align	2
  89              	.L14:
  90 0060 DB0FC940 		.word	1086918619
  91 0064 00000000 		.word	__stack_chk_guard
  92              		.cfi_endproc
  93              	.LFE259:
  94              		.size	checkAngle, .-checkAngle
  95              		.global	__aeabi_f2d
  96              		.global	__aeabi_i2d
  97              		.global	__aeabi_dmul
  98              		.global	__aeabi_ddiv
  99              		.global	__aeabi_dadd
 100              		.global	__aeabi_d2iz
 101              		.section	.text.newAbsolutePositionWheelSpeedType,"ax",%progbits
 102              		.align	1
 103              		.p2align 4,,15
 104              		.global	newAbsolutePositionWheelSpeedType
 105              		.syntax unified
 106              		.thumb
 107              		.thumb_func
 108              		.fpu fpv4-sp-d16
 109              		.type	newAbsolutePositionWheelSpeedType, %function
 110              	newAbsolutePositionWheelSpeedType:
 111              	.LFB260:
 112              		.loc 1 157 0
 113              		.cfi_startproc
 114              		@ args = 0, pretend = 0, frame = 16
ARM GAS  /var/folders/qd/4mxf5pkd0zdf0b9dd1hp39180000gn/T//ccsf5yWP.s 			page 3


 115              		@ frame_needed = 0, uses_anonymous_args = 0
 116              	.LVL2:
 117 0000 2DE9F04F 		push	{r4, r5, r6, r7, r8, r9, r10, fp, lr}
 118              		.cfi_def_cfa_offset 36
 119              		.cfi_offset 4, -36
 120              		.cfi_offset 5, -32
 121              		.cfi_offset 6, -28
 122              		.cfi_offset 7, -24
 123              		.cfi_offset 8, -20
 124              		.cfi_offset 9, -16
 125              		.cfi_offset 10, -12
 126              		.cfi_offset 11, -8
 127              		.cfi_offset 14, -4
 128 0004 2DED068B 		vpush.64	{d8, d9, d10}
 129              		.cfi_def_cfa_offset 60
 130              		.cfi_offset 80, -60
 131              		.cfi_offset 81, -56
 132              		.cfi_offset 82, -52
 133              		.cfi_offset 83, -48
 134              		.cfi_offset 84, -44
 135              		.cfi_offset 85, -40
 136              		.loc 1 159 0
 137 0008 07EE103A 		vmov	s14, r3	@ int
 138 000c 92ED018A 		vldr.32	s16, [r2, #4]
 139 0010 D2ED009A 		vldr.32	s19, [r2]
 140              		.loc 1 157 0
 141 0014 4B4D     		ldr	r5, .L28
 142              		.loc 1 159 0
 143 0016 B8EEC79A 		vcvt.f32.s32	s18, s14
 144 001a 78EE297A 		vadd.f32	s15, s16, s19
 145              		.loc 1 157 0
 146 001e 85B0     		sub	sp, sp, #20
 147              		.cfi_def_cfa_offset 80
 148              		.loc 1 159 0
 149 0020 67EE897A 		vmul.f32	s15, s15, s18
 150              		.loc 1 157 0
 151 0024 2B68     		ldr	r3, [r5]
 152              	.LVL3:
 153 0026 0393     		str	r3, [sp, #12]
 154 0028 8A46     		mov	r10, r1
 155 002a 0446     		mov	r4, r0
 156              		.loc 1 159 0
 157 002c 17EE900A 		vmov	r0, s15
 158              	.LVL4:
 159 0030 FFF7FEFF 		bl	__aeabi_f2d
 160              	.LVL5:
 161 0034 DAED028A 		vldr.32	s17, [r10, #8]
 162 0038 DFED437A 		vldr.32	s15, .L28+4
 163 003c 78EEA77A 		vadd.f32	s15, s17, s15
 164 0040 0646     		mov	r6, r0
 165 0042 17EE900A 		vmov	r0, s15
 166 0046 0F46     		mov	r7, r1
 167 0048 FFF7FEFF 		bl	__aeabi_f2d
 168              	.LVL6:
 169 004c 41EC100B 		vmov	d0, r0, r1
 170 0050 41EC1A0B 		vmov	d10, r0, r1
 171 0054 FFF7FEFF 		bl	cos
ARM GAS  /var/folders/qd/4mxf5pkd0zdf0b9dd1hp39180000gn/T//ccsf5yWP.s 			page 4


 172              	.LVL7:
 173 0058 53EC102B 		vmov	r2, r3, d0
 174 005c DAF80000 		ldr	r0, [r10]
 175 0060 CDE90023 		strd	r2, [sp]
 176 0064 FFF7FEFF 		bl	__aeabi_i2d
 177              	.LVL8:
 178 0068 DDE90023 		ldrd	r2, [sp]
 179 006c 8046     		mov	r8, r0
 180 006e 8946     		mov	r9, r1
 181 0070 3046     		mov	r0, r6
 182 0072 3946     		mov	r1, r7
 183 0074 FFF7FEFF 		bl	__aeabi_dmul
 184              	.LVL9:
 185 0078 0022     		movs	r2, #0
 186 007a 344B     		ldr	r3, .L28+8
 187 007c FFF7FEFF 		bl	__aeabi_ddiv
 188              	.LVL10:
 189 0080 0246     		mov	r2, r0
 190 0082 0B46     		mov	r3, r1
 191 0084 4046     		mov	r0, r8
 192 0086 4946     		mov	r1, r9
 193 0088 FFF7FEFF 		bl	__aeabi_dadd
 194              	.LVL11:
 195 008c FFF7FEFF 		bl	__aeabi_d2iz
 196              	.LVL12:
 197              		.loc 1 160 0
 198 0090 B0EE4A0A 		vmov.f32	s0, s20
 199 0094 F0EE6A0A 		vmov.f32	s1, s21
 200              		.loc 1 159 0
 201 0098 8346     		mov	fp, r0
 202              	.LVL13:
 203              		.loc 1 160 0
 204 009a FFF7FEFF 		bl	sin
 205              	.LVL14:
 206 009e 53EC102B 		vmov	r2, r3, d0
 207 00a2 DAF80400 		ldr	r0, [r10, #4]
 208 00a6 CDE90023 		strd	r2, [sp]
 209 00aa FFF7FEFF 		bl	__aeabi_i2d
 210              	.LVL15:
 211 00ae DDE90023 		ldrd	r2, [sp]
 212 00b2 8046     		mov	r8, r0
 213 00b4 8946     		mov	r9, r1
 214 00b6 3046     		mov	r0, r6
 215 00b8 3946     		mov	r1, r7
 216 00ba FFF7FEFF 		bl	__aeabi_dmul
 217              	.LVL16:
 218 00be 0022     		movs	r2, #0
 219 00c0 224B     		ldr	r3, .L28+8
 220 00c2 FFF7FEFF 		bl	__aeabi_ddiv
 221              	.LVL17:
 222              		.loc 1 161 0
 223 00c6 38EE698A 		vsub.f32	s16, s16, s19
 224              		.loc 1 160 0
 225 00ca 0246     		mov	r2, r0
 226 00cc 0B46     		mov	r3, r1
 227 00ce 4046     		mov	r0, r8
 228 00d0 4946     		mov	r1, r9
ARM GAS  /var/folders/qd/4mxf5pkd0zdf0b9dd1hp39180000gn/T//ccsf5yWP.s 			page 5


 229 00d2 FFF7FEFF 		bl	__aeabi_dadd
 230              	.LVL18:
 231 00d6 FFF7FEFF 		bl	__aeabi_d2iz
 232              	.LVL19:
 233              		.loc 1 161 0
 234 00da 28EE098A 		vmul.f32	s16, s16, s18
 235 00de DFED1C6A 		vldr.32	s13, .L28+12
 236              	.LBB26:
 237              	.LBB27:
 238              		.loc 1 151 0
 239 00e2 9FED1C7A 		vldr.32	s14, .L28+16
 240              	.LBE27:
 241              	.LBE26:
 242              		.loc 1 161 0
 243 00e6 C8EE267A 		vdiv.f32	s15, s16, s13
 244 00ea 77EEA87A 		vadd.f32	s15, s15, s17
 245              	.LVL20:
 246              	.LBB29:
 247              	.LBB28:
 248              		.loc 1 151 0
 249 00ee F4EEC77A 		vcmpe.f32	s15, s14
 250 00f2 F1EE10FA 		vmrs	APSR_nzcv, FPSCR
 251 00f6 06DB     		blt	.L17
 252              	.L19:
 253 00f8 77EEC77A 		vsub.f32	s15, s15, s14
 254              	.LVL21:
 255 00fc F4EEC77A 		vcmpe.f32	s15, s14
 256 0100 F1EE10FA 		vmrs	APSR_nzcv, FPSCR
 257 0104 F8DA     		bge	.L19
 258              	.L17:
 259              		.loc 1 152 0
 260 0106 F5EEC07A 		vcmpe.f32	s15, #0
 261 010a F1EE10FA 		vmrs	APSR_nzcv, FPSCR
 262 010e 08D5     		bpl	.L20
 263 0110 9FED107A 		vldr.32	s14, .L28+16
 264              	.L22:
 265 0114 77EE877A 		vadd.f32	s15, s15, s14
 266              	.LVL22:
 267 0118 F5EEC07A 		vcmpe.f32	s15, #0
 268 011c F1EE10FA 		vmrs	APSR_nzcv, FPSCR
 269 0120 F8D4     		bmi	.L22
 270              	.L20:
 271              	.LVL23:
 272              	.LBE28:
 273              	.LBE29:
 274              		.loc 1 167 0
 275 0122 039A     		ldr	r2, [sp, #12]
 276 0124 2B68     		ldr	r3, [r5]
 277              		.loc 1 166 0
 278 0126 C4ED027A 		vstr.32	s15, [r4, #8]
 279              	.LVL24:
 280              		.loc 1 167 0
 281 012a 9A42     		cmp	r2, r3
 282              		.loc 1 166 0
 283 012c C4E900B0 		strd	fp, r0, [r4]
 284              		.loc 1 167 0
 285 0130 2046     		mov	r0, r4
ARM GAS  /var/folders/qd/4mxf5pkd0zdf0b9dd1hp39180000gn/T//ccsf5yWP.s 			page 6


 286 0132 04D1     		bne	.L27
 287              	.LVL25:
 288 0134 05B0     		add	sp, sp, #20
 289              		.cfi_remember_state
 290              		.cfi_def_cfa_offset 60
 291              		@ sp needed
 292 0136 BDEC068B 		vldm	sp!, {d8-d10}
 293              		.cfi_restore 84
 294              		.cfi_restore 85
 295              		.cfi_restore 82
 296              		.cfi_restore 83
 297              		.cfi_restore 80
 298              		.cfi_restore 81
 299              		.cfi_def_cfa_offset 36
 300 013a BDE8F08F 		pop	{r4, r5, r6, r7, r8, r9, r10, fp, pc}
 301              	.LVL26:
 302              	.L27:
 303              		.cfi_restore_state
 304 013e FFF7FEFF 		bl	__stack_chk_fail
 305              	.LVL27:
 306              	.L29:
 307 0142 00BF     		.align	2
 308              	.L28:
 309 0144 00000000 		.word	__stack_chk_guard
 310 0148 DB0FC93F 		.word	1070141403
 311 014c 00409F40 		.word	1084178432
 312 0150 000C5547 		.word	1196755968
 313 0154 DB0FC940 		.word	1086918619
 314              		.cfi_endproc
 315              	.LFE260:
 316              		.size	newAbsolutePositionWheelSpeedType, .-newAbsolutePositionWheelSpeedType
 317              		.section	.text.measurementToPoint,"ax",%progbits
 318              		.align	1
 319              		.p2align 4,,15
 320              		.global	measurementToPoint
 321              		.syntax unified
 322              		.thumb
 323              		.thumb_func
 324              		.fpu fpv4-sp-d16
 325              		.type	measurementToPoint, %function
 326              	measurementToPoint:
 327              	.LFB261:
 328              		.loc 1 169 0
 329              		.cfi_startproc
 330              		@ args = 0, pretend = 0, frame = 64
 331              		@ frame_needed = 0, uses_anonymous_args = 0
 332              	.LVL28:
 333 0000 2DE9F047 		push	{r4, r5, r6, r7, r8, r9, r10, lr}
 334              		.cfi_def_cfa_offset 32
 335              		.cfi_offset 4, -32
 336              		.cfi_offset 5, -28
 337              		.cfi_offset 6, -24
 338              		.cfi_offset 7, -20
 339              		.cfi_offset 8, -16
 340              		.cfi_offset 9, -12
 341              		.cfi_offset 10, -8
 342              		.cfi_offset 14, -4
ARM GAS  /var/folders/qd/4mxf5pkd0zdf0b9dd1hp39180000gn/T//ccsf5yWP.s 			page 7


 343 0004 2DED028B 		vpush.64	{d8}
 344              		.cfi_def_cfa_offset 40
 345              		.cfi_offset 80, -40
 346              		.cfi_offset 81, -36
 347 0008 324F     		ldr	r7, .L34
 348              		.loc 1 171 0
 349 000a D1F80CA0 		ldr	r10, [r1, #12]
 350              		.loc 1 169 0
 351 000e 3B68     		ldr	r3, [r7]
 352 0010 90B0     		sub	sp, sp, #64
 353              		.cfi_def_cfa_offset 104
 354              		.loc 1 169 0
 355 0012 0546     		mov	r5, r0
 356              		.loc 1 171 0
 357 0014 8868     		ldr	r0, [r1, #8]	@ float
 358              	.LVL29:
 359              		.loc 1 169 0
 360 0016 0F93     		str	r3, [sp, #60]
 361 0018 0C46     		mov	r4, r1
 362              		.loc 1 171 0
 363 001a FFF7FEFF 		bl	__aeabi_f2d
 364              	.LVL30:
 365 001e 41EC100B 		vmov	d0, r0, r1
 366 0022 41EC180B 		vmov	d8, r0, r1
 367 0026 FFF7FEFF 		bl	sin
 368              	.LVL31:
 369 002a 6FF02000 		mvn	r0, #32
 370 002e 53EC102B 		vmov	r2, r3, d0
 371 0032 A0EB0A00 		sub	r0, r0, r10
 372 0036 CDE90023 		strd	r2, [sp]
 373 003a FFF7FEFF 		bl	__aeabi_i2d
 374              	.LVL32:
 375 003e DDE90023 		ldrd	r2, [sp]
 376 0042 FFF7FEFF 		bl	__aeabi_dmul
 377              	.LVL33:
 378 0046 8046     		mov	r8, r0
 379 0048 2068     		ldr	r0, [r4]
 380 004a 8946     		mov	r9, r1
 381 004c FFF7FEFF 		bl	__aeabi_i2d
 382              	.LVL34:
 383 0050 0246     		mov	r2, r0
 384 0052 0B46     		mov	r3, r1
 385 0054 4046     		mov	r0, r8
 386 0056 4946     		mov	r1, r9
 387 0058 FFF7FEFF 		bl	__aeabi_dadd
 388              	.LVL35:
 389 005c FFF7FEFF 		bl	__aeabi_d2iz
 390              	.LVL36:
 391              		.loc 1 172 0
 392 0060 B0EE480A 		vmov.f32	s0, s16
 393 0064 F0EE680A 		vmov.f32	s1, s17
 394              		.loc 1 171 0
 395 0068 0646     		mov	r6, r0
 396              	.LVL37:
 397              		.loc 1 172 0
 398 006a FFF7FEFF 		bl	cos
 399              	.LVL38:
ARM GAS  /var/folders/qd/4mxf5pkd0zdf0b9dd1hp39180000gn/T//ccsf5yWP.s 			page 8


 400 006e 53EC102B 		vmov	r2, r3, d0
 401 0072 0AF12100 		add	r0, r10, #33
 402 0076 CDE90023 		strd	r2, [sp]
 403 007a FFF7FEFF 		bl	__aeabi_i2d
 404              	.LVL39:
 405 007e DDE90023 		ldrd	r2, [sp]
 406 0082 FFF7FEFF 		bl	__aeabi_dmul
 407              	.LVL40:
 408 0086 8046     		mov	r8, r0
 409 0088 6068     		ldr	r0, [r4, #4]
 410 008a 8946     		mov	r9, r1
 411 008c FFF7FEFF 		bl	__aeabi_i2d
 412              	.LVL41:
 413 0090 0246     		mov	r2, r0
 414 0092 0B46     		mov	r3, r1
 415 0094 4046     		mov	r0, r8
 416 0096 4946     		mov	r1, r9
 417 0098 FFF7FEFF 		bl	__aeabi_dadd
 418              	.LVL42:
 419 009c FFF7FEFF 		bl	__aeabi_d2iz
 420              	.LVL43:
 421              		.loc 1 174 0
 422 00a0 3246     		mov	r2, r6
 423 00a2 0346     		mov	r3, r0
 424              		.loc 1 172 0
 425 00a4 0446     		mov	r4, r0
 426              	.LVL44:
 427              		.loc 1 174 0
 428 00a6 0C49     		ldr	r1, .L34+4
 429 00a8 02A8     		add	r0, sp, #8
 430              	.LVL45:
 431 00aa FFF7FEFF 		bl	sprintf
 432              	.LVL46:
 433              		.loc 1 175 0
 434 00ae 02A8     		add	r0, sp, #8
 435 00b0 0321     		movs	r1, #3
 436 00b2 FFF7FEFF 		bl	mod_com_writeMessage
 437              	.LVL47:
 438              		.loc 1 177 0
 439 00b6 0F9A     		ldr	r2, [sp, #60]
 440 00b8 3B68     		ldr	r3, [r7]
 441 00ba 9A42     		cmp	r2, r3
 442              		.loc 1 176 0
 443 00bc C5E90064 		strd	r6, r4, [r5]
 444              	.LVL48:
 445              		.loc 1 177 0
 446 00c0 05D1     		bne	.L33
 447 00c2 2846     		mov	r0, r5
 448 00c4 10B0     		add	sp, sp, #64
 449              		.cfi_remember_state
 450              		.cfi_def_cfa_offset 40
 451              		@ sp needed
 452 00c6 BDEC028B 		vldm	sp!, {d8}
 453              		.cfi_restore 80
 454              		.cfi_restore 81
 455              		.cfi_def_cfa_offset 32
 456 00ca BDE8F087 		pop	{r4, r5, r6, r7, r8, r9, r10, pc}
ARM GAS  /var/folders/qd/4mxf5pkd0zdf0b9dd1hp39180000gn/T//ccsf5yWP.s 			page 9


 457              	.LVL49:
 458              	.L33:
 459              		.cfi_restore_state
 460 00ce FFF7FEFF 		bl	__stack_chk_fail
 461              	.LVL50:
 462              	.L35:
 463 00d2 00BF     		.align	2
 464              	.L34:
 465 00d4 00000000 		.word	__stack_chk_guard
 466 00d8 00000000 		.word	.LC1
 467              		.cfi_endproc
 468              	.LFE261:
 469              		.size	measurementToPoint, .-measurementToPoint
 470              		.global	__aeabi_dsub
 471              		.section	.text.moveOrigin,"ax",%progbits
 472              		.align	1
 473              		.p2align 4,,15
 474              		.global	moveOrigin
 475              		.syntax unified
 476              		.thumb
 477              		.thumb_func
 478              		.fpu fpv4-sp-d16
 479              		.type	moveOrigin, %function
 480              	moveOrigin:
 481              	.LFB262:
 482              		.loc 1 180 0
 483              		.cfi_startproc
 484              		@ args = 0, pretend = 0, frame = 88
 485              		@ frame_needed = 0, uses_anonymous_args = 0
 486              	.LVL51:
 487 0000 2DE9F04F 		push	{r4, r5, r6, r7, r8, r9, r10, fp, lr}
 488              		.cfi_def_cfa_offset 36
 489              		.cfi_offset 4, -36
 490              		.cfi_offset 5, -32
 491              		.cfi_offset 6, -28
 492              		.cfi_offset 7, -24
 493              		.cfi_offset 8, -20
 494              		.cfi_offset 9, -16
 495              		.cfi_offset 10, -12
 496              		.cfi_offset 11, -8
 497              		.cfi_offset 14, -4
 498 0004 2DED048B 		vpush.64	{d8, d9}
 499              		.cfi_def_cfa_offset 52
 500              		.cfi_offset 80, -52
 501              		.cfi_offset 81, -48
 502              		.cfi_offset 82, -44
 503              		.cfi_offset 83, -40
 504 0008 584D     		ldr	r5, .L48
 505              		.loc 1 181 0
 506 000a 594C     		ldr	r4, .L48+4
 507              		.loc 1 180 0
 508 000c 2B68     		ldr	r3, [r5]
 509 000e 99B0     		sub	sp, sp, #100
 510              		.cfi_def_cfa_offset 152
 511              		.loc 1 180 0
 512 0010 B0EE408A 		vmov.f32	s16, s0
 513 0014 1793     		str	r3, [sp, #92]
ARM GAS  /var/folders/qd/4mxf5pkd0zdf0b9dd1hp39180000gn/T//ccsf5yWP.s 			page 10


 514              	.LVL52:
 515 0016 08AB     		add	r3, sp, #32
 516              	.LVL53:
 517 0018 83E80300 		stm	r3, {r0, r1}
 518              	.LVL54:
 519              		.loc 1 181 0
 520 001c 10EE100A 		vmov	r0, s0
 521 0020 FFF7FEFF 		bl	__aeabi_f2d
 522              	.LVL55:
 523 0024 41EC100B 		vmov	d0, r0, r1
 524 0028 41EC190B 		vmov	d9, r0, r1
 525 002c FFF7FEFF 		bl	cos
 526              	.LVL56:
 527 0030 0898     		ldr	r0, [sp, #32]
 528 0032 57EC106B 		vmov	r6, r7, d0
 529 0036 FFF7FEFF 		bl	__aeabi_i2d
 530              	.LVL57:
 531 003a B0EE490A 		vmov.f32	s0, s18
 532 003e F0EE690A 		vmov.f32	s1, s19
 533 0042 8046     		mov	r8, r0
 534 0044 8946     		mov	r9, r1
 535 0046 FFF7FEFF 		bl	sin
 536              	.LVL58:
 537 004a 0998     		ldr	r0, [sp, #36]
 538 004c 8DED020B 		vstr.64	d0, [sp, #8]
 539 0050 FFF7FEFF 		bl	__aeabi_i2d
 540              	.LVL59:
 541 0054 CDE90401 		strd	r0, [sp, #16]
 542 0058 2068     		ldr	r0, [r4]
 543 005a FFF7FEFF 		bl	__aeabi_i2d
 544              	.LVL60:
 545 005e 4246     		mov	r2, r8
 546 0060 8246     		mov	r10, r0
 547 0062 4B46     		mov	r3, r9
 548 0064 8B46     		mov	fp, r1
 549 0066 3046     		mov	r0, r6
 550 0068 3946     		mov	r1, r7
 551 006a CDE90667 		strd	r6, [sp, #24]
 552 006e FFF7FEFF 		bl	__aeabi_dmul
 553              	.LVL61:
 554 0072 DDE90423 		ldrd	r2, [sp, #16]
 555 0076 0646     		mov	r6, r0
 556 0078 0F46     		mov	r7, r1
 557 007a DDE90201 		ldrd	r0, [sp, #8]
 558 007e FFF7FEFF 		bl	__aeabi_dmul
 559              	.LVL62:
 560 0082 0246     		mov	r2, r0
 561 0084 0B46     		mov	r3, r1
 562 0086 3046     		mov	r0, r6
 563 0088 3946     		mov	r1, r7
 564 008a FFF7FEFF 		bl	__aeabi_dsub
 565              	.LVL63:
 566 008e 0246     		mov	r2, r0
 567 0090 0B46     		mov	r3, r1
 568 0092 5046     		mov	r0, r10
 569 0094 5946     		mov	r1, fp
 570 0096 FFF7FEFF 		bl	__aeabi_dsub
ARM GAS  /var/folders/qd/4mxf5pkd0zdf0b9dd1hp39180000gn/T//ccsf5yWP.s 			page 11


 571              	.LVL64:
 572 009a FFF7FEFF 		bl	__aeabi_d2iz
 573              	.LVL65:
 574 009e 2060     		str	r0, [r4]
 575 00a0 8246     		mov	r10, r0
 576              		.loc 1 182 0
 577 00a2 6068     		ldr	r0, [r4, #4]
 578 00a4 FFF7FEFF 		bl	__aeabi_i2d
 579              	.LVL66:
 580 00a8 DDE90223 		ldrd	r2, [sp, #8]
 581 00ac 0646     		mov	r6, r0
 582 00ae 0F46     		mov	r7, r1
 583 00b0 4046     		mov	r0, r8
 584 00b2 4946     		mov	r1, r9
 585 00b4 FFF7FEFF 		bl	__aeabi_dmul
 586              	.LVL67:
 587 00b8 DDE90423 		ldrd	r2, [sp, #16]
 588 00bc 8046     		mov	r8, r0
 589 00be 8946     		mov	r9, r1
 590 00c0 DDE90601 		ldrd	r0, [sp, #24]
 591 00c4 FFF7FEFF 		bl	__aeabi_dmul
 592              	.LVL68:
 593 00c8 0246     		mov	r2, r0
 594 00ca 0B46     		mov	r3, r1
 595 00cc 4046     		mov	r0, r8
 596 00ce 4946     		mov	r1, r9
 597 00d0 FFF7FEFF 		bl	__aeabi_dadd
 598              	.LVL69:
 599 00d4 0246     		mov	r2, r0
 600 00d6 0B46     		mov	r3, r1
 601 00d8 3046     		mov	r0, r6
 602 00da 3946     		mov	r1, r7
 603 00dc FFF7FEFF 		bl	__aeabi_dsub
 604              	.LVL70:
 605 00e0 FFF7FEFF 		bl	__aeabi_d2iz
 606              	.LVL71:
 607              		.loc 1 183 0
 608 00e4 94ED020A 		vldr.32	s0, [r4, #8]
 609              	.LBB30:
 610              	.LBB31:
 611              		.loc 1 151 0
 612 00e8 DFED227A 		vldr.32	s15, .L48+8
 613              	.LBE31:
 614              	.LBE30:
 615              		.loc 1 182 0
 616 00ec 6060     		str	r0, [r4, #4]
 617              		.loc 1 183 0
 618 00ee 38EE000A 		vadd.f32	s0, s16, s0
 619              		.loc 1 182 0
 620 00f2 0646     		mov	r6, r0
 621              	.LBB34:
 622              	.LBB32:
 623              		.loc 1 151 0
 624 00f4 B4EEE70A 		vcmpe.f32	s0, s15
 625 00f8 F1EE10FA 		vmrs	APSR_nzcv, FPSCR
 626              	.LBE32:
 627              	.LBE34:
ARM GAS  /var/folders/qd/4mxf5pkd0zdf0b9dd1hp39180000gn/T//ccsf5yWP.s 			page 12


 628              		.loc 1 183 0
 629 00fc 84ED020A 		vstr.32	s0, [r4, #8]
 630              	.LVL72:
 631              	.LBB35:
 632              	.LBB33:
 633              		.loc 1 151 0
 634 0100 08DB     		blt	.L37
 635              	.L39:
 636 0102 30EE670A 		vsub.f32	s0, s0, s15
 637 0106 B4EEE70A 		vcmpe.f32	s0, s15
 638 010a F1EE10FA 		vmrs	APSR_nzcv, FPSCR
 639 010e F8DA     		bge	.L39
 640 0110 84ED020A 		vstr.32	s0, [r4, #8]
 641              	.L37:
 642              		.loc 1 152 0
 643 0114 B5EEC00A 		vcmpe.f32	s0, #0
 644 0118 F1EE10FA 		vmrs	APSR_nzcv, FPSCR
 645 011c 0AD5     		bpl	.L40
 646 011e DFED157A 		vldr.32	s15, .L48+8
 647              	.L42:
 648 0122 30EE270A 		vadd.f32	s0, s0, s15
 649 0126 B5EEC00A 		vcmpe.f32	s0, #0
 650 012a F1EE10FA 		vmrs	APSR_nzcv, FPSCR
 651 012e F8D4     		bmi	.L42
 652 0130 84ED020A 		vstr.32	s0, [r4, #8]
 653              	.L40:
 654              	.LVL73:
 655              	.LBE33:
 656              	.LBE35:
 657              		.loc 1 186 0
 658 0134 10EE100A 		vmov	r0, s0
 659 0138 FFF7FEFF 		bl	__aeabi_f2d
 660              	.LVL74:
 661 013c 3346     		mov	r3, r6
 662 013e CDE90001 		strd	r0, [sp]
 663 0142 5246     		mov	r2, r10
 664 0144 0C49     		ldr	r1, .L48+12
 665 0146 0AA8     		add	r0, sp, #40
 666 0148 FFF7FEFF 		bl	sprintf
 667              	.LVL75:
 668              		.loc 1 187 0
 669 014c 0AA8     		add	r0, sp, #40
 670 014e 0321     		movs	r1, #3
 671 0150 FFF7FEFF 		bl	mod_com_writeMessage
 672              	.LVL76:
 673              		.loc 1 188 0
 674 0154 179A     		ldr	r2, [sp, #92]
 675 0156 2B68     		ldr	r3, [r5]
 676 0158 9A42     		cmp	r2, r3
 677 015a 04D1     		bne	.L47
 678 015c 19B0     		add	sp, sp, #100
 679              		.cfi_remember_state
 680              		.cfi_def_cfa_offset 52
 681              		@ sp needed
 682 015e BDEC048B 		vldm	sp!, {d8-d9}
 683              		.cfi_restore 82
 684              		.cfi_restore 83
ARM GAS  /var/folders/qd/4mxf5pkd0zdf0b9dd1hp39180000gn/T//ccsf5yWP.s 			page 13


 685              		.cfi_restore 80
 686              		.cfi_restore 81
 687              		.cfi_def_cfa_offset 36
 688              	.LVL77:
 689 0162 BDE8F08F 		pop	{r4, r5, r6, r7, r8, r9, r10, fp, pc}
 690              	.LVL78:
 691              	.L47:
 692              		.cfi_restore_state
 693 0166 FFF7FEFF 		bl	__stack_chk_fail
 694              	.LVL79:
 695              	.L49:
 696 016a 00BF     		.align	2
 697              	.L48:
 698 016c 00000000 		.word	__stack_chk_guard
 699 0170 00000000 		.word	.LANCHOR0
 700 0174 DB0FC940 		.word	1086918619
 701 0178 00000000 		.word	.LC2
 702              		.cfi_endproc
 703              	.LFE262:
 704              		.size	moveOrigin, .-moveOrigin
 705              		.section	.text.computeCoefDirecteur,"ax",%progbits
 706              		.align	1
 707              		.p2align 4,,15
 708              		.global	computeCoefDirecteur
 709              		.syntax unified
 710              		.thumb
 711              		.thumb_func
 712              		.fpu fpv4-sp-d16
 713              		.type	computeCoefDirecteur, %function
 714              	computeCoefDirecteur:
 715              	.LFB263:
 716              		.loc 1 191 0
 717              		.cfi_startproc
 718              		@ args = 0, pretend = 0, frame = 56
 719              		@ frame_needed = 0, uses_anonymous_args = 0
 720              	.LVL80:
 721 0000 2DE9F047 		push	{r4, r5, r6, r7, r8, r9, r10, lr}
 722              		.cfi_def_cfa_offset 32
 723              		.cfi_offset 4, -32
 724              		.cfi_offset 5, -28
 725              		.cfi_offset 6, -24
 726              		.cfi_offset 7, -20
 727              		.cfi_offset 8, -16
 728              		.cfi_offset 9, -12
 729              		.cfi_offset 10, -8
 730              		.cfi_offset 14, -4
 731 0004 2DED048B 		vpush.64	{d8, d9}
 732              		.cfi_def_cfa_offset 48
 733              		.cfi_offset 80, -48
 734              		.cfi_offset 81, -44
 735              		.cfi_offset 82, -40
 736              		.cfi_offset 83, -36
 737 0008 DFF8C0A0 		ldr	r10, .L58+4
 738 000c 90B0     		sub	sp, sp, #64
 739              		.cfi_def_cfa_offset 112
 740              		.loc 1 191 0
 741 000e DAF80030 		ldr	r3, [r10]
ARM GAS  /var/folders/qd/4mxf5pkd0zdf0b9dd1hp39180000gn/T//ccsf5yWP.s 			page 14


 742 0012 0F93     		str	r3, [sp, #60]
 743              	.LVL81:
 744              		.loc 1 194 0
 745 0014 0229     		cmp	r1, #2
 746              		.loc 1 191 0
 747 0016 9146     		mov	r9, r2
 748              		.loc 1 194 0
 749 0018 4CDD     		ble	.L54
 750              		.loc 1 192 0
 751 001a 9FED2B9A 		vldr.32	s18, .L58
 752              	.LBB36:
 753              		.loc 1 199 0
 754 001e DFF8B080 		ldr	r8, .L58+8
 755 0022 A0F11007 		sub	r7, r0, #16
 756 0026 0E46     		mov	r6, r1
 757 0028 0446     		mov	r4, r0
 758              	.LBE36:
 759              		.loc 1 192 0
 760 002a F0EE499A 		vmov.f32	s19, s18
 761 002e 07EBC107 		add	r7, r7, r1, lsl #3
 762              	.LVL82:
 763              	.L52:
 764              	.LBB37:
 765              		.loc 1 195 0 discriminator 3
 766 0032 6568     		ldr	r5, [r4, #4]
 767 0034 6269     		ldr	r2, [r4, #20]
 768 0036 2168     		ldr	r1, [r4]
 769 0038 2369     		ldr	r3, [r4, #16]
 770              		.loc 1 199 0 discriminator 3
 771 003a 0096     		str	r6, [sp]
 772              		.loc 1 195 0 discriminator 3
 773 003c AA1A     		subs	r2, r5, r2
 774 003e 07EE902A 		vmov	s15, r2	@ int
 775 0042 CB1A     		subs	r3, r1, r3
 776 0044 F8EEE76A 		vcvt.f32.s32	s13, s15
 777 0048 07EE903A 		vmov	s15, r3	@ int
 778 004c B8EEE77A 		vcvt.f32.s32	s14, s15
 779              		.loc 1 196 0 discriminator 3
 780 0050 07EE901A 		vmov	s15, r1	@ int
 781              		.loc 1 195 0 discriminator 3
 782 0054 C6EE878A 		vdiv.f32	s17, s13, s14
 783              	.LVL83:
 784              		.loc 1 199 0 discriminator 3
 785 0058 4146     		mov	r1, r8
 786 005a 02A8     		add	r0, sp, #8
 787 005c 0834     		adds	r4, r4, #8
 788              		.loc 1 196 0 discriminator 3
 789 005e 07EE105A 		vmov	s14, r5	@ int
 790 0062 F8EEE77A 		vcvt.f32.s32	s15, s15
 791 0066 B8EEC78A 		vcvt.f32.s32	s16, s14
 792 006a A7EEE88A 		vfms.f32	s16, s15, s17
 793              	.LVL84:
 794              		.loc 1 199 0 discriminator 3
 795 006e FFF7FEFF 		bl	sprintf
 796              	.LVL85:
 797              		.loc 1 200 0 discriminator 3
 798 0072 0321     		movs	r1, #3
ARM GAS  /var/folders/qd/4mxf5pkd0zdf0b9dd1hp39180000gn/T//ccsf5yWP.s 			page 15


 799 0074 02A8     		add	r0, sp, #8
 800 0076 FFF7FEFF 		bl	mod_com_writeMessage
 801              	.LVL86:
 802              	.LBE37:
 803              		.loc 1 194 0 discriminator 3
 804 007a A742     		cmp	r7, r4
 805              	.LBB38:
 806              		.loc 1 203 0 discriminator 3
 807 007c 39EE089A 		vadd.f32	s18, s18, s16
 808              	.LVL87:
 809              		.loc 1 202 0 discriminator 3
 810 0080 79EEA89A 		vadd.f32	s19, s19, s17
 811              	.LVL88:
 812              	.LBE38:
 813              		.loc 1 194 0 discriminator 3
 814 0084 D5D1     		bne	.L52
 815 0086 023E     		subs	r6, r6, #2
 816              	.LVL89:
 817 0088 07EE906A 		vmov	s15, r6	@ int
 818 008c F8EEE77A 		vcvt.f32.s32	s15, s15
 819              	.LVL90:
 820              	.L51:
 821              		.loc 1 205 0
 822 0090 C9EEA76A 		vdiv.f32	s13, s19, s15
 823              		.loc 1 207 0
 824 0094 0F9A     		ldr	r2, [sp, #60]
 825              		.loc 1 206 0
 826 0096 89EE277A 		vdiv.f32	s14, s18, s15
 827              		.loc 1 205 0
 828 009a C9ED006A 		vstr.32	s13, [r9]
 829              		.loc 1 207 0
 830 009e DAF80030 		ldr	r3, [r10]
 831              		.loc 1 206 0
 832 00a2 89ED017A 		vstr.32	s14, [r9, #4]
 833              		.loc 1 207 0
 834 00a6 9A42     		cmp	r2, r3
 835 00a8 0BD1     		bne	.L57
 836 00aa 10B0     		add	sp, sp, #64
 837              		.cfi_remember_state
 838              		.cfi_def_cfa_offset 48
 839              		@ sp needed
 840 00ac BDEC048B 		vldm	sp!, {d8-d9}
 841              		.cfi_restore 82
 842              		.cfi_restore 83
 843              		.cfi_restore 80
 844              		.cfi_restore 81
 845              		.cfi_def_cfa_offset 32
 846 00b0 BDE8F087 		pop	{r4, r5, r6, r7, r8, r9, r10, pc}
 847              	.LVL91:
 848              	.L54:
 849              		.cfi_restore_state
 850              		.loc 1 194 0
 851 00b4 DFED047A 		vldr.32	s15, .L58
 852              		.loc 1 192 0
 853 00b8 B0EE679A 		vmov.f32	s18, s15
 854 00bc F0EE679A 		vmov.f32	s19, s15
 855 00c0 E6E7     		b	.L51
ARM GAS  /var/folders/qd/4mxf5pkd0zdf0b9dd1hp39180000gn/T//ccsf5yWP.s 			page 16


 856              	.LVL92:
 857              	.L57:
 858              		.loc 1 207 0
 859 00c2 FFF7FEFF 		bl	__stack_chk_fail
 860              	.LVL93:
 861              	.L59:
 862 00c6 00BF     		.align	2
 863              	.L58:
 864 00c8 00000000 		.word	0
 865 00cc 00000000 		.word	__stack_chk_guard
 866 00d0 00000000 		.word	.LC3
 867              		.cfi_endproc
 868              	.LFE263:
 869              		.size	computeCoefDirecteur, .-computeCoefDirecteur
 870              		.section	.text.computeObjectDistance,"ax",%progbits
 871              		.align	1
 872              		.p2align 4,,15
 873              		.global	computeObjectDistance
 874              		.syntax unified
 875              		.thumb
 876              		.thumb_func
 877              		.fpu fpv4-sp-d16
 878              		.type	computeObjectDistance, %function
 879              	computeObjectDistance:
 880              	.LFB264:
 881              		.loc 1 209 0
 882              		.cfi_startproc
 883              		@ args = 0, pretend = 0, frame = 24
 884              		@ frame_needed = 0, uses_anonymous_args = 0
 885 0000 30B5     		push	{r4, r5, lr}
 886              		.cfi_def_cfa_offset 12
 887              		.cfi_offset 4, -12
 888              		.cfi_offset 5, -8
 889              		.cfi_offset 14, -4
 890 0002 87B0     		sub	sp, sp, #28
 891              		.cfi_def_cfa_offset 40
 892              		.loc 1 209 0
 893 0004 02AD     		add	r5, sp, #8
 894 0006 85E80300 		stm	r5, {r0, r1}
 895 000a 6C46     		mov	r4, sp
 896              		.loc 1 210 0
 897 000c 0398     		ldr	r0, [sp, #12]
 898              		.loc 1 209 0
 899 000e 84E80C00 		stm	r4, {r2, r3}
 900              		.loc 1 210 0
 901 0012 1946     		mov	r1, r3
 902 0014 029B     		ldr	r3, [sp, #8]
 903              		.loc 1 209 0
 904 0016 0D4C     		ldr	r4, .L64
 905              		.loc 1 210 0
 906 0018 401A     		subs	r0, r0, r1
 907 001a 9B1A     		subs	r3, r3, r2
 908 001c 00FB00F0 		mul	r0, r0, r0
 909 0020 03FB0300 		mla	r0, r3, r3, r0
 910              		.loc 1 209 0
 911 0024 2368     		ldr	r3, [r4]
 912 0026 0593     		str	r3, [sp, #20]
ARM GAS  /var/folders/qd/4mxf5pkd0zdf0b9dd1hp39180000gn/T//ccsf5yWP.s 			page 17


 913              	.LVL94:
 914              		.loc 1 210 0
 915 0028 FFF7FEFF 		bl	__aeabi_i2d
 916              	.LVL95:
 917 002c 41EC100B 		vmov	d0, r0, r1
 918 0030 FFF7FEFF 		bl	sqrt
 919              	.LVL96:
 920 0034 51EC100B 		vmov	r0, r1, d0
 921 0038 FFF7FEFF 		bl	__aeabi_d2iz
 922              	.LVL97:
 923              		.loc 1 211 0
 924 003c 059A     		ldr	r2, [sp, #20]
 925 003e 2368     		ldr	r3, [r4]
 926 0040 9A42     		cmp	r2, r3
 927 0042 01D1     		bne	.L63
 928 0044 07B0     		add	sp, sp, #28
 929              		.cfi_remember_state
 930              		.cfi_def_cfa_offset 12
 931              	.LVL98:
 932              		@ sp needed
 933 0046 30BD     		pop	{r4, r5, pc}
 934              	.LVL99:
 935              	.L63:
 936              		.cfi_restore_state
 937 0048 FFF7FEFF 		bl	__stack_chk_fail
 938              	.LVL100:
 939              	.L65:
 940              		.align	2
 941              	.L64:
 942 004c 00000000 		.word	__stack_chk_guard
 943              		.cfi_endproc
 944              	.LFE264:
 945              		.size	computeObjectDistance, .-computeObjectDistance
 946              		.section	.text.checkIfPointObjectInCircle,"ax",%progbits
 947              		.align	1
 948              		.p2align 4,,15
 949              		.global	checkIfPointObjectInCircle
 950              		.syntax unified
 951              		.thumb
 952              		.thumb_func
 953              		.fpu fpv4-sp-d16
 954              		.type	checkIfPointObjectInCircle, %function
 955              	checkIfPointObjectInCircle:
 956              	.LFB265:
 957              		.loc 1 213 0
 958              		.cfi_startproc
 959              		@ args = 0, pretend = 0, frame = 24
 960              		@ frame_needed = 0, uses_anonymous_args = 0
 961 0000 30B5     		push	{r4, r5, lr}
 962              		.cfi_def_cfa_offset 12
 963              		.cfi_offset 4, -12
 964              		.cfi_offset 5, -8
 965              		.cfi_offset 14, -4
 966 0002 87B0     		sub	sp, sp, #28
 967              		.cfi_def_cfa_offset 40
 968              		.loc 1 213 0
 969 0004 6C46     		mov	r4, sp
ARM GAS  /var/folders/qd/4mxf5pkd0zdf0b9dd1hp39180000gn/T//ccsf5yWP.s 			page 18


 970 0006 84E80C00 		stm	r4, {r2, r3}
 971 000a 02AD     		add	r5, sp, #8
 972 000c 85E80300 		stm	r5, {r0, r1}
 973              		.loc 1 214 0
 974 0010 DDE90014 		ldrd	r1, r4, [sp]
 975              		.loc 1 213 0
 976 0014 0A4A     		ldr	r2, .L70
 977              		.loc 1 214 0
 978 0016 039B     		ldr	r3, [sp, #12]
 979              		.loc 1 213 0
 980 0018 1568     		ldr	r5, [r2]
 981 001a 0595     		str	r5, [sp, #20]
 982              	.LVL101:
 983              		.loc 1 214 0
 984 001c 1B1B     		subs	r3, r3, r4
 985              	.LVL102:
 986 001e 401A     		subs	r0, r0, r1
 987              	.LVL103:
 988 0020 03FB03F3 		mul	r3, r3, r3
 989 0024 00FB0030 		mla	r0, r0, r0, r3
 990              		.loc 1 217 0
 991 0028 0599     		ldr	r1, [sp, #20]
 992              	.LVL104:
 993 002a 1268     		ldr	r2, [r2]
 994 002c 3B28     		cmp	r0, #59
 995 002e CCBF     		ite	gt
 996 0030 0020     		movgt	r0, #0
 997 0032 0120     		movle	r0, #1
 998 0034 9142     		cmp	r1, r2
 999 0036 01D1     		bne	.L69
 1000 0038 07B0     		add	sp, sp, #28
 1001              		.cfi_remember_state
 1002              		.cfi_def_cfa_offset 12
 1003              	.LVL105:
 1004              		@ sp needed
 1005 003a 30BD     		pop	{r4, r5, pc}
 1006              	.LVL106:
 1007              	.L69:
 1008              		.cfi_restore_state
 1009 003c FFF7FEFF 		bl	__stack_chk_fail
 1010              	.LVL107:
 1011              	.L71:
 1012              		.align	2
 1013              	.L70:
 1014 0040 00000000 		.word	__stack_chk_guard
 1015              		.cfi_endproc
 1016              	.LFE265:
 1017              		.size	checkIfPointObjectInCircle, .-checkIfPointObjectInCircle
 1018              		.section	.text.checkIfObjectExists,"ax",%progbits
 1019              		.align	1
 1020              		.p2align 4,,15
 1021              		.global	checkIfObjectExists
 1022              		.syntax unified
 1023              		.thumb
 1024              		.thumb_func
 1025              		.fpu fpv4-sp-d16
 1026              		.type	checkIfObjectExists, %function
ARM GAS  /var/folders/qd/4mxf5pkd0zdf0b9dd1hp39180000gn/T//ccsf5yWP.s 			page 19


 1027              	checkIfObjectExists:
 1028              	.LFB266:
 1029              		.loc 1 219 0
 1030              		.cfi_startproc
 1031              		@ args = 0, pretend = 0, frame = 16
 1032              		@ frame_needed = 0, uses_anonymous_args = 0
 1033 0000 F0B5     		push	{r4, r5, r6, r7, lr}
 1034              		.cfi_def_cfa_offset 20
 1035              		.cfi_offset 4, -20
 1036              		.cfi_offset 5, -16
 1037              		.cfi_offset 6, -12
 1038              		.cfi_offset 7, -8
 1039              		.cfi_offset 14, -4
 1040              	.LBB39:
 1041              		.loc 1 220 0
 1042 0002 1A4A     		ldr	r2, .L82
 1043              	.LBE39:
 1044              		.loc 1 219 0
 1045 0004 1A4E     		ldr	r6, .L82+4
 1046              	.LBB44:
 1047              		.loc 1 220 0
 1048 0006 1468     		ldr	r4, [r2]
 1049              	.LBE44:
 1050              		.loc 1 219 0
 1051 0008 3268     		ldr	r2, [r6]
 1052 000a 85B0     		sub	sp, sp, #20
 1053              		.cfi_def_cfa_offset 40
 1054              		.loc 1 219 0
 1055 000c 6B46     		mov	r3, sp
 1056              	.LBB45:
 1057              		.loc 1 220 0
 1058 000e 002C     		cmp	r4, #0
 1059              	.LBE45:
 1060              		.loc 1 219 0
 1061 0010 0392     		str	r2, [sp, #12]
 1062 0012 83E80300 		stm	r3, {r0, r1}
 1063              	.LVL108:
 1064              	.LBB46:
 1065              		.loc 1 220 0
 1066 0016 1EDD     		ble	.L77
 1067              		.loc 1 221 0
 1068 0018 164B     		ldr	r3, .L82+8
 1069 001a 0D46     		mov	r5, r1
 1070 001c 1968     		ldr	r1, [r3]
 1071              	.LVL109:
 1072              	.LBB40:
 1073              	.LBB41:
 1074              		.loc 1 214 0
 1075 001e D1E90032 		ldrd	r3, r2, [r1]
 1076 0022 AA1A     		subs	r2, r5, r2
 1077 0024 02FB02F2 		mul	r2, r2, r2
 1078 0028 C31A     		subs	r3, r0, r3
 1079 002a 03FB0323 		mla	r3, r3, r3, r2
 1080 002e 3B2B     		cmp	r3, #59
 1081 0030 0746     		mov	r7, r0
 1082 0032 17DD     		ble	.L79
 1083              	.LBE41:
ARM GAS  /var/folders/qd/4mxf5pkd0zdf0b9dd1hp39180000gn/T//ccsf5yWP.s 			page 20


 1084              	.LBE40:
 1085              		.loc 1 220 0
 1086 0034 0020     		movs	r0, #0
 1087              	.LVL110:
 1088 0036 0BE0     		b	.L74
 1089              	.LVL111:
 1090              	.L75:
 1091              	.LBB43:
 1092              	.LBB42:
 1093              		.loc 1 214 0
 1094 0038 D1E90232 		ldrd	r3, r2, [r1, #8]
 1095 003c AA1A     		subs	r2, r5, r2
 1096 003e 02FB02F2 		mul	r2, r2, r2
 1097 0042 FB1A     		subs	r3, r7, r3
 1098 0044 03FB0323 		mla	r3, r3, r3, r2
 1099 0048 3B2B     		cmp	r3, #59
 1100 004a 01F10801 		add	r1, r1, #8
 1101              	.LVL112:
 1102 004e 09DD     		ble	.L79
 1103              	.LVL113:
 1104              	.L74:
 1105              	.LBE42:
 1106              	.LBE43:
 1107              		.loc 1 220 0
 1108 0050 0130     		adds	r0, r0, #1
 1109              	.LVL114:
 1110 0052 A042     		cmp	r0, r4
 1111 0054 F0D1     		bne	.L75
 1112              	.LVL115:
 1113              	.L77:
 1114              	.LBE46:
 1115              		.loc 1 223 0
 1116 0056 0020     		movs	r0, #0
 1117              	.L73:
 1118              		.loc 1 224 0
 1119 0058 039A     		ldr	r2, [sp, #12]
 1120 005a 3368     		ldr	r3, [r6]
 1121 005c 9A42     		cmp	r2, r3
 1122 005e 03D1     		bne	.L81
 1123 0060 05B0     		add	sp, sp, #20
 1124              		.cfi_remember_state
 1125              		.cfi_def_cfa_offset 20
 1126              	.LVL116:
 1127              		@ sp needed
 1128 0062 F0BD     		pop	{r4, r5, r6, r7, pc}
 1129              	.LVL117:
 1130              	.L79:
 1131              		.cfi_restore_state
 1132              	.LBB47:
 1133              		.loc 1 222 0
 1134 0064 0120     		movs	r0, #1
 1135 0066 F7E7     		b	.L73
 1136              	.LVL118:
 1137              	.L81:
 1138              	.LBE47:
 1139              		.loc 1 224 0
 1140 0068 FFF7FEFF 		bl	__stack_chk_fail
ARM GAS  /var/folders/qd/4mxf5pkd0zdf0b9dd1hp39180000gn/T//ccsf5yWP.s 			page 21


 1141              	.LVL119:
 1142              	.L83:
 1143              		.align	2
 1144              	.L82:
 1145 006c 00000000 		.word	.LANCHOR1
 1146 0070 00000000 		.word	__stack_chk_guard
 1147 0074 00000000 		.word	.LANCHOR2
 1148              		.cfi_endproc
 1149              	.LFE266:
 1150              		.size	checkIfObjectExists, .-checkIfObjectExists
 1151              		.section	.text.isNear,"ax",%progbits
 1152              		.align	1
 1153              		.p2align 4,,15
 1154              		.global	isNear
 1155              		.syntax unified
 1156              		.thumb
 1157              		.thumb_func
 1158              		.fpu fpv4-sp-d16
 1159              		.type	isNear, %function
 1160              	isNear:
 1161              	.LFB267:
 1162              		.loc 1 226 0
 1163              		.cfi_startproc
 1164              		@ args = 0, pretend = 0, frame = 16
 1165              		@ frame_needed = 0, uses_anonymous_args = 0
 1166 0000 10B5     		push	{r4, lr}
 1167              		.cfi_def_cfa_offset 8
 1168              		.cfi_offset 4, -8
 1169              		.cfi_offset 14, -4
 1170 0002 84B0     		sub	sp, sp, #16
 1171              		.cfi_def_cfa_offset 24
 1172              		.loc 1 226 0
 1173 0004 6B46     		mov	r3, sp
 1174 0006 83E80300 		stm	r3, {r0, r1}
 1175              		.loc 1 227 0
 1176 000a 124B     		ldr	r3, .L88
 1177              		.loc 1 226 0
 1178 000c 124C     		ldr	r4, .L88+4
 1179              	.LBB48:
 1180              	.LBB49:
 1181              		.loc 1 210 0
 1182 000e 0846     		mov	r0, r1
 1183 0010 D3E90021 		ldrd	r2, r1, [r3]
 1184 0014 009B     		ldr	r3, [sp]
 1185 0016 401A     		subs	r0, r0, r1
 1186 0018 9B1A     		subs	r3, r3, r2
 1187 001a 00FB00F0 		mul	r0, r0, r0
 1188 001e 03FB0300 		mla	r0, r3, r3, r0
 1189              	.LBE49:
 1190              	.LBE48:
 1191              		.loc 1 226 0
 1192 0022 2368     		ldr	r3, [r4]
 1193 0024 0393     		str	r3, [sp, #12]
 1194              	.LVL120:
 1195              	.LBB51:
 1196              	.LBB50:
 1197              		.loc 1 210 0
ARM GAS  /var/folders/qd/4mxf5pkd0zdf0b9dd1hp39180000gn/T//ccsf5yWP.s 			page 22


 1198 0026 FFF7FEFF 		bl	__aeabi_i2d
 1199              	.LVL121:
 1200 002a 41EC100B 		vmov	d0, r0, r1
 1201 002e FFF7FEFF 		bl	sqrt
 1202              	.LVL122:
 1203 0032 51EC100B 		vmov	r0, r1, d0
 1204 0036 FFF7FEFF 		bl	__aeabi_d2iz
 1205              	.LVL123:
 1206              	.LBE50:
 1207              	.LBE51:
 1208              		.loc 1 231 0
 1209 003a 039A     		ldr	r2, [sp, #12]
 1210 003c 2368     		ldr	r3, [r4]
 1211 003e B628     		cmp	r0, #182
 1212 0040 CCBF     		ite	gt
 1213 0042 0020     		movgt	r0, #0
 1214 0044 0120     		movle	r0, #1
 1215 0046 9A42     		cmp	r2, r3
 1216 0048 01D1     		bne	.L87
 1217 004a 04B0     		add	sp, sp, #16
 1218              		.cfi_remember_state
 1219              		.cfi_def_cfa_offset 8
 1220              	.LVL124:
 1221              		@ sp needed
 1222 004c 10BD     		pop	{r4, pc}
 1223              	.LVL125:
 1224              	.L87:
 1225              		.cfi_restore_state
 1226 004e FFF7FEFF 		bl	__stack_chk_fail
 1227              	.LVL126:
 1228              	.L89:
 1229 0052 00BF     		.align	2
 1230              	.L88:
 1231 0054 00000000 		.word	.LANCHOR0
 1232 0058 00000000 		.word	__stack_chk_guard
 1233              		.cfi_endproc
 1234              	.LFE267:
 1235              		.size	isNear, .-isNear
 1236              		.section	.text.mod_mapping_init,"ax",%progbits
 1237              		.align	1
 1238              		.p2align 4,,15
 1239              		.global	mod_mapping_init
 1240              		.syntax unified
 1241              		.thumb
 1242              		.thumb_func
 1243              		.fpu fpv4-sp-d16
 1244              		.type	mod_mapping_init, %function
 1245              	mod_mapping_init:
 1246              	.LFB268:
 1247              		.loc 1 239 0
 1248              		.cfi_startproc
 1249              		@ args = 0, pretend = 0, frame = 8
 1250              		@ frame_needed = 0, uses_anonymous_args = 0
 1251 0000 10B5     		push	{r4, lr}
 1252              		.cfi_def_cfa_offset 8
 1253              		.cfi_offset 4, -8
 1254              		.cfi_offset 14, -4
ARM GAS  /var/folders/qd/4mxf5pkd0zdf0b9dd1hp39180000gn/T//ccsf5yWP.s 			page 23


 1255 0002 0E4C     		ldr	r4, .L95
 1256              	.LBB52:
 1257              	.LBB53:
 1258              		.loc 1 249 0
 1259 0004 0E4B     		ldr	r3, .L95+4
 1260              	.LBE53:
 1261              	.LBE52:
 1262              		.loc 1 239 0
 1263 0006 2268     		ldr	r2, [r4]
 1264 0008 82B0     		sub	sp, sp, #8
 1265              		.cfi_def_cfa_offset 16
 1266              	.LBB56:
 1267              	.LBB54:
 1268              		.loc 1 249 0
 1269 000a 0021     		movs	r1, #0
 1270              	.LBE54:
 1271              	.LBE56:
 1272              		.loc 1 239 0
 1273 000c 0192     		str	r2, [sp, #4]
 1274              		.loc 1 243 0
 1275 000e 0820     		movs	r0, #8
 1276              	.LBB57:
 1277              	.LBB55:
 1278              		.loc 1 249 0
 1279 0010 0022     		movs	r2, #0
 1280 0012 9960     		str	r1, [r3, #8]	@ float
 1281 0014 C3E90022 		strd	r2, r2, [r3]
 1282              	.LBE55:
 1283              	.LBE57:
 1284              		.loc 1 243 0
 1285 0018 FFF7FEFF 		bl	malloc
 1286              	.LVL127:
 1287              		.loc 1 244 0
 1288 001c 019A     		ldr	r2, [sp, #4]
 1289 001e 2368     		ldr	r3, [r4]
 1290              		.loc 1 243 0
 1291 0020 0849     		ldr	r1, .L95+8
 1292              		.loc 1 244 0
 1293 0022 9A42     		cmp	r2, r3
 1294              		.loc 1 243 0
 1295 0024 0860     		str	r0, [r1]
 1296              		.loc 1 244 0
 1297 0026 07D1     		bne	.L94
 1298 0028 0030     		adds	r0, r0, #0
 1299 002a 18BF     		it	ne
 1300 002c 0120     		movne	r0, #1
 1301              		.loc 1 245 0
 1302 002e 02B0     		add	sp, sp, #8
 1303              		.cfi_remember_state
 1304              		.cfi_def_cfa_offset 8
 1305              		@ sp needed
 1306 0030 BDE81040 		pop	{r4, lr}
 1307              		.cfi_restore 14
 1308              		.cfi_restore 4
 1309              		.cfi_def_cfa_offset 0
 1310              		.loc 1 244 0
 1311 0034 FFF7FEBF 		b	assert
ARM GAS  /var/folders/qd/4mxf5pkd0zdf0b9dd1hp39180000gn/T//ccsf5yWP.s 			page 24


 1312              	.LVL128:
 1313              	.L94:
 1314              		.cfi_restore_state
 1315 0038 FFF7FEFF 		bl	__stack_chk_fail
 1316              	.LVL129:
 1317              	.L96:
 1318              		.align	2
 1319              	.L95:
 1320 003c 00000000 		.word	__stack_chk_guard
 1321 0040 00000000 		.word	.LANCHOR0
 1322 0044 00000000 		.word	.LANCHOR2
 1323              		.cfi_endproc
 1324              	.LFE268:
 1325              		.size	mod_mapping_init, .-mod_mapping_init
 1326              		.section	.text.mod_mapping_resetCoordinates,"ax",%progbits
 1327              		.align	1
 1328              		.p2align 4,,15
 1329              		.global	mod_mapping_resetCoordinates
 1330              		.syntax unified
 1331              		.thumb
 1332              		.thumb_func
 1333              		.fpu fpv4-sp-d16
 1334              		.type	mod_mapping_resetCoordinates, %function
 1335              	mod_mapping_resetCoordinates:
 1336              	.LFB269:
 1337              		.loc 1 248 0
 1338              		.cfi_startproc
 1339              		@ args = 0, pretend = 0, frame = 8
 1340              		@ frame_needed = 0, uses_anonymous_args = 0
 1341 0000 10B5     		push	{r4, lr}
 1342              		.cfi_def_cfa_offset 8
 1343              		.cfi_offset 4, -8
 1344              		.cfi_offset 14, -4
 1345 0002 094A     		ldr	r2, .L101
 1346              		.loc 1 249 0
 1347 0004 094B     		ldr	r3, .L101+4
 1348              		.loc 1 248 0
 1349 0006 1168     		ldr	r1, [r2]
 1350 0008 82B0     		sub	sp, sp, #8
 1351              		.cfi_def_cfa_offset 16
 1352              		.loc 1 249 0
 1353 000a 0024     		movs	r4, #0
 1354              		.loc 1 248 0
 1355 000c 0191     		str	r1, [sp, #4]
 1356              		.loc 1 250 0
 1357 000e 0198     		ldr	r0, [sp, #4]
 1358 0010 1168     		ldr	r1, [r2]
 1359              		.loc 1 249 0
 1360 0012 9C60     		str	r4, [r3, #8]	@ float
 1361 0014 0022     		movs	r2, #0
 1362              		.loc 1 250 0
 1363 0016 8842     		cmp	r0, r1
 1364              		.loc 1 249 0
 1365 0018 C3E90022 		strd	r2, r2, [r3]
 1366              		.loc 1 250 0
 1367 001c 01D1     		bne	.L100
 1368 001e 02B0     		add	sp, sp, #8
ARM GAS  /var/folders/qd/4mxf5pkd0zdf0b9dd1hp39180000gn/T//ccsf5yWP.s 			page 25


 1369              		.cfi_remember_state
 1370              		.cfi_def_cfa_offset 8
 1371              		@ sp needed
 1372 0020 10BD     		pop	{r4, pc}
 1373              	.L100:
 1374              		.cfi_restore_state
 1375 0022 FFF7FEFF 		bl	__stack_chk_fail
 1376              	.LVL130:
 1377              	.L102:
 1378 0026 00BF     		.align	2
 1379              	.L101:
 1380 0028 00000000 		.word	__stack_chk_guard
 1381 002c 00000000 		.word	.LANCHOR0
 1382              		.cfi_endproc
 1383              	.LFE269:
 1384              		.size	mod_mapping_resetCoordinates, .-mod_mapping_resetCoordinates
 1385              		.section	.text.mod_mapping_updatePositionWheelSpeedType,"ax",%progbits
 1386              		.align	1
 1387              		.p2align 4,,15
 1388              		.global	mod_mapping_updatePositionWheelSpeedType
 1389              		.syntax unified
 1390              		.thumb
 1391              		.thumb_func
 1392              		.fpu fpv4-sp-d16
 1393              		.type	mod_mapping_updatePositionWheelSpeedType, %function
 1394              	mod_mapping_updatePositionWheelSpeedType:
 1395              	.LFB270:
 1396              		.loc 1 253 0
 1397              		.cfi_startproc
 1398              		@ args = 0, pretend = 0, frame = 72
 1399              		@ frame_needed = 0, uses_anonymous_args = 0
 1400              	.LVL131:
 1401 0000 70B5     		push	{r4, r5, r6, lr}
 1402              		.cfi_def_cfa_offset 16
 1403              		.cfi_offset 4, -16
 1404              		.cfi_offset 5, -12
 1405              		.cfi_offset 6, -8
 1406              		.cfi_offset 14, -4
 1407 0002 144E     		ldr	r6, .L107
 1408              		.loc 1 254 0
 1409 0004 144C     		ldr	r4, .L107+4
 1410              		.loc 1 253 0
 1411 0006 3368     		ldr	r3, [r6]
 1412 0008 94B0     		sub	sp, sp, #80
 1413              		.cfi_def_cfa_offset 96
 1414              		.loc 1 254 0
 1415 000a 02AD     		add	r5, sp, #8
 1416 000c 0246     		mov	r2, r0
 1417              		.loc 1 253 0
 1418 000e 1393     		str	r3, [sp, #76]
 1419              		.loc 1 254 0
 1420 0010 2846     		mov	r0, r5
 1421              	.LVL132:
 1422 0012 0B46     		mov	r3, r1
 1423 0014 2146     		mov	r1, r4
 1424              	.LVL133:
 1425 0016 FFF7FEFF 		bl	newAbsolutePositionWheelSpeedType
ARM GAS  /var/folders/qd/4mxf5pkd0zdf0b9dd1hp39180000gn/T//ccsf5yWP.s 			page 26


 1426              	.LVL134:
 1427 001a 95E80700 		ldm	r5, {r0, r1, r2}
 1428 001e 84E80700 		stm	r4, {r0, r1, r2}
 1429              		.loc 1 256 0
 1430 0022 0546     		mov	r5, r0
 1431 0024 A068     		ldr	r0, [r4, #8]	@ float
 1432 0026 0C46     		mov	r4, r1
 1433 0028 FFF7FEFF 		bl	__aeabi_f2d
 1434              	.LVL135:
 1435 002c 2346     		mov	r3, r4
 1436 002e CDE90001 		strd	r0, [sp]
 1437 0032 2A46     		mov	r2, r5
 1438 0034 0949     		ldr	r1, .L107+8
 1439 0036 06A8     		add	r0, sp, #24
 1440 0038 FFF7FEFF 		bl	sprintf
 1441              	.LVL136:
 1442              		.loc 1 257 0
 1443 003c 06A8     		add	r0, sp, #24
 1444 003e 0321     		movs	r1, #3
 1445 0040 FFF7FEFF 		bl	mod_com_writeMessage
 1446              	.LVL137:
 1447              		.loc 1 258 0
 1448 0044 139A     		ldr	r2, [sp, #76]
 1449 0046 3368     		ldr	r3, [r6]
 1450 0048 9A42     		cmp	r2, r3
 1451 004a 01D1     		bne	.L106
 1452 004c 14B0     		add	sp, sp, #80
 1453              		.cfi_remember_state
 1454              		.cfi_def_cfa_offset 16
 1455              		@ sp needed
 1456 004e 70BD     		pop	{r4, r5, r6, pc}
 1457              	.L106:
 1458              		.cfi_restore_state
 1459 0050 FFF7FEFF 		bl	__stack_chk_fail
 1460              	.LVL138:
 1461              	.L108:
 1462              		.align	2
 1463              	.L107:
 1464 0054 00000000 		.word	__stack_chk_guard
 1465 0058 00000000 		.word	.LANCHOR0
 1466 005c 00000000 		.word	.LC4
 1467              		.cfi_endproc
 1468              	.LFE270:
 1469              		.size	mod_mapping_updatePositionWheelSpeedType, .-mod_mapping_updatePositionWheelSpeedType
 1470              		.global	__aeabi_d2f
 1471              		.section	.text.mod_mapping_computeWallLocation,"ax",%progbits
 1472              		.align	1
 1473              		.p2align 4,,15
 1474              		.global	mod_mapping_computeWallLocation
 1475              		.syntax unified
 1476              		.thumb
 1477              		.thumb_func
 1478              		.fpu fpv4-sp-d16
 1479              		.type	mod_mapping_computeWallLocation, %function
 1480              	mod_mapping_computeWallLocation:
 1481              	.LFB271:
 1482              		.loc 1 261 0
ARM GAS  /var/folders/qd/4mxf5pkd0zdf0b9dd1hp39180000gn/T//ccsf5yWP.s 			page 27


 1483              		.cfi_startproc
 1484              		@ args = 0, pretend = 0, frame = 152
 1485              		@ frame_needed = 0, uses_anonymous_args = 0
 1486              	.LVL139:
 1487 0000 2DE9F04F 		push	{r4, r5, r6, r7, r8, r9, r10, fp, lr}
 1488              		.cfi_def_cfa_offset 36
 1489              		.cfi_offset 4, -36
 1490              		.cfi_offset 5, -32
 1491              		.cfi_offset 6, -28
 1492              		.cfi_offset 7, -24
 1493              		.cfi_offset 8, -20
 1494              		.cfi_offset 9, -16
 1495              		.cfi_offset 10, -12
 1496              		.cfi_offset 11, -8
 1497              		.cfi_offset 14, -4
 1498 0004 2DED028B 		vpush.64	{d8}
 1499              		.cfi_def_cfa_offset 44
 1500              		.cfi_offset 80, -44
 1501              		.cfi_offset 81, -40
 1502 0008 D04B     		ldr	r3, .L148
 1503 000a A9B0     		sub	sp, sp, #164
 1504              		.cfi_def_cfa_offset 208
 1505              		.loc 1 261 0
 1506 000c 1B68     		ldr	r3, [r3]
 1507 000e 2793     		str	r3, [sp, #156]
 1508              	.LVL140:
 1509 0010 0446     		mov	r4, r0
 1510              		.loc 1 278 0
 1511 0012 4FF4A860 		mov	r0, #1344
 1512              	.LVL141:
 1513 0016 FFF7FEFF 		bl	malloc
 1514              	.LVL142:
 1515              		.loc 1 279 0
 1516 001a 0646     		mov	r6, r0
 1517 001c 0030     		adds	r0, r0, #0
 1518              	.LVL143:
 1519 001e 18BF     		it	ne
 1520 0020 0120     		movne	r0, #1
 1521 0022 FFF7FEFF 		bl	assert
 1522              	.LVL144:
 1523              		.loc 1 264 0
 1524 0026 0027     		movs	r7, #0
 1525              		.loc 1 280 0
 1526 0028 0223     		movs	r3, #2
 1527 002a 2046     		mov	r0, r4
 1528 002c 86F8A030 		strb	r3, [r6, #160]
 1529              	.LVL145:
 1530 0030 04F5207E 		add	lr, r4, #640
 1531              		.loc 1 263 0
 1532 0034 3D46     		mov	r5, r7
 1533              		.loc 1 315 0
 1534 0036 B946     		mov	r9, r7
 1535 0038 4FF0A80C 		mov	ip, #168
 1536              		.loc 1 331 0
 1537 003c 4FF00108 		mov	r8, #1
 1538 0040 19E0     		b	.L120
 1539              	.LVL146:
ARM GAS  /var/folders/qd/4mxf5pkd0zdf0b9dd1hp39180000gn/T//ccsf5yWP.s 			page 28


 1540              	.L111:
 1541              		.loc 1 302 0
 1542 0042 012C     		cmp	r4, #1
 1543 0044 3DD0     		beq	.L144
 1544              		.loc 1 318 0
 1545 0046 84BB     		cbnz	r4, .L142
 1546 0048 03EB8504 		add	r4, r3, r5, lsl #2
 1547              		.loc 1 319 0
 1548 004c 54F8044C 		ldr	r4, [r4, #-4]
 1549 0050 E468     		ldr	r4, [r4, #12]
 1550 0052 A142     		cmp	r1, r4
 1551 0054 27DC     		bgt	.L143
 1552              		.loc 1 322 0
 1553 0056 0BD0     		beq	.L110
 1554              		.loc 1 327 0
 1555 0058 0137     		adds	r7, r7, #1
 1556              	.LVL147:
 1557 005a A832     		adds	r2, r2, #168
 1558              		.loc 1 329 0
 1559 005c 072F     		cmp	r7, #7
 1560              		.loc 1 326 0
 1561 005e C3F8A450 		str	r5, [r3, #164]
 1562 0062 06EB0203 		add	r3, r6, r2
 1563              		.loc 1 329 0
 1564 0066 49DC     		bgt	.L117
 1565              		.loc 1 330 0
 1566 0068 B050     		str	r0, [r6, r2]
 1567              		.loc 1 331 0
 1568 006a 0125     		movs	r5, #1
 1569              	.LVL148:
 1570 006c 83F8A080 		strb	r8, [r3, #160]
 1571              	.L110:
 1572              	.LVL149:
 1573 0070 1030     		adds	r0, r0, #16
 1574              		.loc 1 281 0 discriminator 2
 1575 0072 7045     		cmp	r0, lr
 1576 0074 11D0     		beq	.L145
 1577              	.LVL150:
 1578              	.L120:
 1579              		.loc 1 282 0
 1580 0076 C168     		ldr	r1, [r0, #12]
 1581 0078 0CFB07F2 		mul	r2, ip, r7
 1582 007c 3129     		cmp	r1, #49
 1583 007e 06EB0203 		add	r3, r6, r2
 1584 0082 F5DD     		ble	.L110
 1585              		.loc 1 285 0
 1586 0084 93F8A040 		ldrb	r4, [r3, #160]	@ zero_extendqisi2
 1587 0088 022C     		cmp	r4, #2
 1588 008a DAD1     		bne	.L111
 1589              		.loc 1 285 0 is_stmt 0 discriminator 1
 1590 008c 7DB9     		cbnz	r5, .L112
 1591              		.loc 1 286 0 is_stmt 1
 1592 008e B050     		str	r0, [r6, r2]
 1593 0090 1030     		adds	r0, r0, #16
 1594              		.loc 1 281 0
 1595 0092 7045     		cmp	r0, lr
 1596              		.loc 1 286 0
ARM GAS  /var/folders/qd/4mxf5pkd0zdf0b9dd1hp39180000gn/T//ccsf5yWP.s 			page 29


 1597 0094 4FF00105 		mov	r5, #1
 1598              	.LVL151:
 1599              		.loc 1 281 0
 1600 0098 EDD1     		bne	.L120
 1601              	.L145:
 1602              		.loc 1 339 0
 1603 009a 022F     		cmp	r7, #2
 1604              		.loc 1 336 0
 1605 009c C3F8A450 		str	r5, [r3, #164]
 1606              		.loc 1 339 0
 1607 00a0 2FDC     		bgt	.L129
 1608 00a2 0020     		movs	r0, #0
 1609 00a4 47E1     		b	.L121
 1610              	.L143:
 1611              		.loc 1 320 0
 1612 00a6 43F82500 		str	r0, [r3, r5, lsl #2]
 1613              	.L142:
 1614 00aa 0135     		adds	r5, r5, #1
 1615              	.LVL152:
 1616 00ac E0E7     		b	.L110
 1617              	.LVL153:
 1618              	.L112:
 1619              		.loc 1 290 0
 1620 00ae B258     		ldr	r2, [r6, r2]
 1621 00b0 D268     		ldr	r2, [r2, #12]
 1622 00b2 9142     		cmp	r1, r2
 1623 00b4 1BDA     		bge	.L114
 1624              		.loc 1 291 0
 1625 00b6 83F8A080 		strb	r8, [r3, #160]
 1626              		.loc 1 292 0
 1627 00ba 43F82500 		str	r0, [r3, r5, lsl #2]
 1628 00be 0135     		adds	r5, r5, #1
 1629              	.LVL154:
 1630 00c0 D6E7     		b	.L110
 1631              	.LVL155:
 1632              	.L144:
 1633 00c2 03EB850A 		add	r10, r3, r5, lsl #2
 1634              		.loc 1 303 0
 1635 00c6 5AF804AC 		ldr	r10, [r10, #-4]
 1636 00ca DAF80CA0 		ldr	r10, [r10, #12]
 1637 00ce 5145     		cmp	r1, r10
 1638 00d0 E9DB     		blt	.L143
 1639              		.loc 1 306 0
 1640 00d2 CDD0     		beq	.L110
 1641              		.loc 1 311 0
 1642 00d4 0137     		adds	r7, r7, #1
 1643              	.LVL156:
 1644 00d6 A832     		adds	r2, r2, #168
 1645              		.loc 1 313 0
 1646 00d8 072F     		cmp	r7, #7
 1647              		.loc 1 310 0
 1648 00da C3F8A450 		str	r5, [r3, #164]
 1649 00de 06EB0203 		add	r3, r6, r2
 1650              		.loc 1 313 0
 1651 00e2 0BDC     		bgt	.L117
 1652              		.loc 1 314 0
 1653 00e4 B050     		str	r0, [r6, r2]
ARM GAS  /var/folders/qd/4mxf5pkd0zdf0b9dd1hp39180000gn/T//ccsf5yWP.s 			page 30


 1654              		.loc 1 315 0
 1655 00e6 2546     		mov	r5, r4
 1656 00e8 83F8A090 		strb	r9, [r3, #160]
 1657 00ec C0E7     		b	.L110
 1658              	.LVL157:
 1659              	.L114:
 1660              		.loc 1 294 0
 1661 00ee BFD0     		beq	.L110
 1662              		.loc 1 298 0
 1663 00f0 83F8A090 		strb	r9, [r3, #160]
 1664              		.loc 1 299 0
 1665 00f4 43F82500 		str	r0, [r3, r5, lsl #2]
 1666 00f8 0135     		adds	r5, r5, #1
 1667              	.LVL158:
 1668 00fa B9E7     		b	.L110
 1669              	.LVL159:
 1670              	.L117:
 1671              		.loc 1 336 0
 1672 00fc 0022     		movs	r2, #0
 1673 00fe C3F8A420 		str	r2, [r3, #164]
 1674              	.LVL160:
 1675              	.L129:
 1676              	.LBB58:
 1677              		.loc 1 346 0
 1678 0102 0023     		movs	r3, #0
 1679 0104 CDE90C33 		strd	r3, r3, [sp, #48]
 1680 0108 CDE90E33 		strd	r3, r3, [sp, #56]
 1681              	.LVL161:
 1682 010c 08AC     		add	r4, sp, #32
 1683 010e 0394     		str	r4, [sp, #12]
 1684              	.LVL162:
 1685              	.L122:
 1686              	.LBB59:
 1687              		.loc 1 348 0 discriminator 3
 1688 0110 0820     		movs	r0, #8
 1689 0112 FFF7FEFF 		bl	malloc
 1690              	.LVL163:
 1691 0116 44F8040B 		str	r0, [r4], #4
 1692 011a 0CAB     		add	r3, sp, #48
 1693 011c A342     		cmp	r3, r4
 1694 011e F7D1     		bne	.L122
 1695 0120 331F     		subs	r3, r6, #4
 1696 0122 0293     		str	r3, [sp, #8]
 1697              	.LBE59:
 1698              		.loc 1 350 0
 1699 0124 0023     		movs	r3, #0
 1700 0126 0494     		str	r4, [sp, #16]
 1701 0128 06AD     		add	r5, sp, #24
 1702 012a 0596     		str	r6, [sp, #20]
 1703 012c 9A46     		mov	r10, r3
 1704              	.LVL164:
 1705              	.L125:
 1706              		.loc 1 352 0
 1707 012e 029F     		ldr	r7, [sp, #8]
 1708 0130 D7F8A810 		ldr	r1, [r7, #168]
 1709 0134 0029     		cmp	r1, #0
 1710              		.loc 1 351 0
ARM GAS  /var/folders/qd/4mxf5pkd0zdf0b9dd1hp39180000gn/T//ccsf5yWP.s 			page 31


 1711 0136 4FEA6A03 		asr	r3, r10, #1
 1712              	.LVL165:
 1713              		.loc 1 352 0
 1714 013a 2EDD     		ble	.L123
 1715 013c 28AA     		add	r2, sp, #160
 1716 013e 02EB8303 		add	r3, r2, r3, lsl #2
 1717              	.LVL166:
 1718              		.loc 1 353 0
 1719 0142 9846     		mov	r8, r3
 1720 0144 53F8700C 		ldr	r0, [r3, #-112]
 1721 0148 53F8804C 		ldr	r4, [r3, #-128]
 1722 014c 00F1010B 		add	fp, r0, #1
 1723              		.loc 1 352 0
 1724 0150 5B46     		mov	r3, fp
 1725 0152 4FEACB06 		lsl	r6, fp, #3
 1726 0156 00EB0109 		add	r9, r0, r1
 1727 015a BB46     		mov	fp, r7
 1728 015c 1F46     		mov	r7, r3
 1729 015e 00E0     		b	.L124
 1730              	.L146:
 1731 0160 0137     		adds	r7, r7, #1
 1732              	.LVL167:
 1733              	.L124:
 1734              		.loc 1 353 0 discriminator 3
 1735 0162 3146     		mov	r1, r6
 1736 0164 2046     		mov	r0, r4
 1737 0166 FFF7FEFF 		bl	realloc
 1738              	.LVL168:
 1739 016a 0446     		mov	r4, r0
 1740              		.loc 1 354 0 discriminator 3
 1741 016c 0030     		adds	r0, r0, #0
 1742 016e 18BF     		it	ne
 1743 0170 0120     		movne	r0, #1
 1744              		.loc 1 353 0 discriminator 3
 1745 0172 48F8804C 		str	r4, [r8, #-128]
 1746              		.loc 1 354 0 discriminator 3
 1747 0176 FFF7FEFF 		bl	assert
 1748              	.LVL169:
 1749              		.loc 1 355 0 discriminator 3
 1750 017a 5BF8041F 		ldr	r1, [fp, #4]!
 1751 017e 2846     		mov	r0, r5
 1752 0180 FFF7FEFF 		bl	measurementToPoint
 1753              	.LVL170:
 1754 0184 95E80300 		ldm	r5, {r0, r1}
 1755 0188 A319     		adds	r3, r4, r6
 1756              		.loc 1 352 0 discriminator 3
 1757 018a 4F45     		cmp	r7, r9
 1758              		.loc 1 355 0 discriminator 3
 1759 018c 03E90300 		stmdb	r3, {r0, r1}
 1760 0190 06F10806 		add	r6, r6, #8
 1761              		.loc 1 356 0 discriminator 3
 1762 0194 48F8707C 		str	r7, [r8, #-112]
 1763              		.loc 1 352 0 discriminator 3
 1764 0198 E2D1     		bne	.L146
 1765              	.LVL171:
 1766              	.L123:
 1767 019a 029B     		ldr	r3, [sp, #8]
ARM GAS  /var/folders/qd/4mxf5pkd0zdf0b9dd1hp39180000gn/T//ccsf5yWP.s 			page 32


 1768              		.loc 1 350 0
 1769 019c 0AF1010A 		add	r10, r10, #1
 1770              	.LVL172:
 1771 01a0 A833     		adds	r3, r3, #168
 1772 01a2 BAF1080F 		cmp	r10, #8
 1773 01a6 0293     		str	r3, [sp, #8]
 1774 01a8 C1D1     		bne	.L125
 1775 01aa 059E     		ldr	r6, [sp, #20]
 1776              		.loc 1 359 0
 1777 01ac 3046     		mov	r0, r6
 1778 01ae FFF7FEFF 		bl	free
 1779              	.LVL173:
 1780 01b2 DDE90348 		ldrd	r4, r8, [sp, #12]
 1781 01b6 12AD     		add	r5, sp, #72
 1782 01b8 2E46     		mov	r6, r5
 1783 01ba 0CAF     		add	r7, sp, #48
 1784              	.LVL174:
 1785              	.L126:
 1786              	.LBB60:
 1787              		.loc 1 364 0 discriminator 3
 1788 01bc 54F8040B 		ldr	r0, [r4], #4
 1789 01c0 57F8041B 		ldr	r1, [r7], #4
 1790 01c4 3246     		mov	r2, r6
 1791 01c6 FFF7FEFF 		bl	computeCoefDirecteur
 1792              	.LVL175:
 1793              		.loc 1 363 0 discriminator 3
 1794 01ca 4445     		cmp	r4, r8
 1795 01cc 06F10806 		add	r6, r6, #8
 1796 01d0 F4D1     		bne	.L126
 1797              	.LBE60:
 1798              	.LBB61:
 1799              		.loc 1 368 0
 1800 01d2 039F     		ldr	r7, [sp, #12]
 1801 01d4 0026     		movs	r6, #0
 1802              	.L127:
 1803              		.loc 1 367 0 discriminator 3
 1804 01d6 3868     		ldr	r0, [r7]
 1805 01d8 FFF7FEFF 		bl	free
 1806              	.LVL176:
 1807              		.loc 1 368 0 discriminator 3
 1808 01dc 47F8046B 		str	r6, [r7], #4
 1809              	.LVL177:
 1810              		.loc 1 366 0 discriminator 3
 1811 01e0 BC42     		cmp	r4, r7
 1812 01e2 F8D1     		bne	.L127
 1813              	.LVL178:
 1814              	.LBE61:
 1815 01e4 0023     		movs	r3, #0
 1816              	.LVL179:
 1817              	.L128:
 1818              	.LBE58:
 1819              	.LBB62:
 1820              		.loc 1 373 0 discriminator 3
 1821 01e6 2A46     		mov	r2, r5
 1822 01e8 D5ED037A 		vldr.32	s15, [r5, #12]
 1823 01ec D5ED025A 		vldr.32	s11, [r5, #8]
 1824 01f0 95ED016A 		vldr.32	s12, [r5, #4]
ARM GAS  /var/folders/qd/4mxf5pkd0zdf0b9dd1hp39180000gn/T//ccsf5yWP.s 			page 33


 1825 01f4 D2ED006A 		vldr.32	s13, [r2]
 1826 01f8 37EEC66A 		vsub.f32	s12, s15, s12
 1827 01fc 76EEE56A 		vsub.f32	s13, s13, s11
 1828 0200 0CA8     		add	r0, sp, #48
 1829 0202 86EE267A 		vdiv.f32	s14, s12, s13
 1830              		.loc 1 374 0 discriminator 3
 1831 0206 0CAA     		add	r2, sp, #48
 1832 0208 1A44     		add	r2, r2, r3
 1833              		.loc 1 373 0 discriminator 3
 1834 020a 0835     		adds	r5, r5, #8
 1835 020c BDEEC77A 		vcvt.s32.f32	s14, s14
 1836              		.loc 1 374 0 discriminator 3
 1837 0210 F8EEC76A 		vcvt.f32.s32	s13, s14
 1838              		.loc 1 373 0 discriminator 3
 1839 0214 17EE101A 		vmov	r1, s14	@ int
 1840              		.loc 1 374 0 discriminator 3
 1841 0218 E5EEA67A 		vfma.f32	s15, s11, s13
 1842              		.loc 1 373 0 discriminator 3
 1843 021c C150     		str	r1, [r0, r3]
 1844 021e 0833     		adds	r3, r3, #8
 1845              		.loc 1 374 0 discriminator 3
 1846 0220 FDEEE77A 		vcvt.s32.f32	s15, s15
 1847              		.loc 1 372 0 discriminator 3
 1848 0224 182B     		cmp	r3, #24
 1849              		.loc 1 374 0 discriminator 3
 1850 0226 C2ED017A 		vstr.32	s15, [r2, #4]	@ int
 1851              		.loc 1 372 0 discriminator 3
 1852 022a DCD1     		bne	.L128
 1853              	.LBE62:
 1854              		.loc 1 376 0
 1855 022c 1498     		ldr	r0, [sp, #80]	@ float
 1856              		.loc 1 380 0
 1857 022e 484C     		ldr	r4, .L148+4
 1858              		.loc 1 376 0
 1859 0230 FFF7FEFF 		bl	__aeabi_f2d
 1860              	.LVL180:
 1861 0234 41EC100B 		vmov	d0, r0, r1
 1862 0238 FFF7FEFF 		bl	atan
 1863              	.LVL181:
 1864 023c 51EC100B 		vmov	r0, r1, d0
 1865 0240 FFF7FEFF 		bl	__aeabi_d2f
 1866              	.LVL182:
 1867              		.loc 1 378 0
 1868 0244 0CAB     		add	r3, sp, #48
 1869              		.loc 1 376 0
 1870 0246 80F00046 		eor	r6, r0, #-2147483648
 1871              	.LVL183:
 1872              		.loc 1 378 0
 1873 024a 00EE106A 		vmov	s0, r6
 1874 024e 93E80300 		ldm	r3, {r0, r1}
 1875              		.loc 1 380 0
 1876 0252 0025     		movs	r5, #0
 1877              		.loc 1 378 0
 1878 0254 FFF7FEFF 		bl	moveOrigin
 1879              	.LVL184:
 1880              		.loc 1 382 0
 1881 0258 3046     		mov	r0, r6	@ float
ARM GAS  /var/folders/qd/4mxf5pkd0zdf0b9dd1hp39180000gn/T//ccsf5yWP.s 			page 34


 1882              		.loc 1 380 0
 1883 025a 2560     		str	r5, [r4]
 1884              		.loc 1 381 0
 1885 025c A560     		str	r5, [r4, #8]
 1886              		.loc 1 382 0
 1887 025e FFF7FEFF 		bl	__aeabi_f2d
 1888              	.LVL185:
 1889 0262 41EC100B 		vmov	d0, r0, r1
 1890 0266 41EC180B 		vmov	d8, r0, r1
 1891 026a FFF7FEFF 		bl	cos
 1892              	.LVL186:
 1893 026e 5BEC10AB 		vmov	r10, fp, d0
 1894              	.LVL187:
 1895 0272 B0EE480A 		vmov.f32	s0, s16
 1896 0276 F0EE680A 		vmov.f32	s1, s17
 1897 027a FFF7FEFF 		bl	sin
 1898              	.LVL188:
 1899 027e 0E98     		ldr	r0, [sp, #56]
 1900 0280 57EC106B 		vmov	r6, r7, d0
 1901              	.LVL189:
 1902 0284 FFF7FEFF 		bl	__aeabi_i2d
 1903              	.LVL190:
 1904 0288 5246     		mov	r2, r10
 1905 028a 5B46     		mov	r3, fp
 1906 028c FFF7FEFF 		bl	__aeabi_dmul
 1907              	.LVL191:
 1908 0290 304B     		ldr	r3, .L148+8
 1909 0292 8046     		mov	r8, r0
 1910 0294 1868     		ldr	r0, [r3]
 1911 0296 8946     		mov	r9, r1
 1912 0298 FFF7FEFF 		bl	__aeabi_i2d
 1913              	.LVL192:
 1914 029c 0246     		mov	r2, r0
 1915 029e 0B46     		mov	r3, r1
 1916 02a0 4046     		mov	r0, r8
 1917 02a2 4946     		mov	r1, r9
 1918 02a4 FFF7FEFF 		bl	__aeabi_dadd
 1919              	.LVL193:
 1920 02a8 8046     		mov	r8, r0
 1921 02aa 0F98     		ldr	r0, [sp, #60]
 1922 02ac 8946     		mov	r9, r1
 1923 02ae FFF7FEFF 		bl	__aeabi_i2d
 1924              	.LVL194:
 1925 02b2 3246     		mov	r2, r6
 1926 02b4 3B46     		mov	r3, r7
 1927 02b6 FFF7FEFF 		bl	__aeabi_dmul
 1928              	.LVL195:
 1929 02ba 0246     		mov	r2, r0
 1930 02bc 0B46     		mov	r3, r1
 1931 02be 4046     		mov	r0, r8
 1932 02c0 4946     		mov	r1, r9
 1933 02c2 FFF7FEFF 		bl	__aeabi_dsub
 1934              	.LVL196:
 1935 02c6 FFF7FEFF 		bl	__aeabi_d2iz
 1936              	.LVL197:
 1937 02ca 8046     		mov	r8, r0
 1938 02cc C4F80480 		str	r8, [r4, #4]
ARM GAS  /var/folders/qd/4mxf5pkd0zdf0b9dd1hp39180000gn/T//ccsf5yWP.s 			page 35


 1939              		.loc 1 383 0
 1940 02d0 1098     		ldr	r0, [sp, #64]
 1941 02d2 FFF7FEFF 		bl	__aeabi_i2d
 1942              	.LVL198:
 1943 02d6 3246     		mov	r2, r6
 1944 02d8 3B46     		mov	r3, r7
 1945 02da FFF7FEFF 		bl	__aeabi_dmul
 1946              	.LVL199:
 1947 02de 1D4B     		ldr	r3, .L148+8
 1948 02e0 0646     		mov	r6, r0
 1949 02e2 5868     		ldr	r0, [r3, #4]
 1950 02e4 0F46     		mov	r7, r1
 1951 02e6 FFF7FEFF 		bl	__aeabi_i2d
 1952              	.LVL200:
 1953 02ea 0246     		mov	r2, r0
 1954 02ec 0B46     		mov	r3, r1
 1955 02ee 3046     		mov	r0, r6
 1956 02f0 3946     		mov	r1, r7
 1957 02f2 FFF7FEFF 		bl	__aeabi_dadd
 1958              	.LVL201:
 1959 02f6 0646     		mov	r6, r0
 1960 02f8 1198     		ldr	r0, [sp, #68]
 1961 02fa 0F46     		mov	r7, r1
 1962 02fc FFF7FEFF 		bl	__aeabi_i2d
 1963              	.LVL202:
 1964 0300 5246     		mov	r2, r10
 1965 0302 5B46     		mov	r3, fp
 1966 0304 FFF7FEFF 		bl	__aeabi_dmul
 1967              	.LVL203:
 1968 0308 0246     		mov	r2, r0
 1969 030a 0B46     		mov	r3, r1
 1970 030c 3046     		mov	r0, r6
 1971 030e 3946     		mov	r1, r7
 1972 0310 FFF7FEFF 		bl	__aeabi_dadd
 1973              	.LVL204:
 1974 0314 FFF7FEFF 		bl	__aeabi_d2iz
 1975              	.LVL205:
 1976 0318 0646     		mov	r6, r0
 1977              		.loc 1 386 0
 1978 031a CDE90080 		strd	r8, r0, [sp]
 1979 031e 2B46     		mov	r3, r5
 1980 0320 2A46     		mov	r2, r5
 1981 0322 0D49     		ldr	r1, .L148+12
 1982              		.loc 1 383 0
 1983 0324 E660     		str	r6, [r4, #12]
 1984              		.loc 1 386 0
 1985 0326 1AA8     		add	r0, sp, #104
 1986 0328 FFF7FEFF 		bl	sprintf
 1987              	.LVL206:
 1988              		.loc 1 387 0
 1989 032c 1AA8     		add	r0, sp, #104
 1990 032e 0321     		movs	r1, #3
 1991 0330 FFF7FEFF 		bl	mod_com_writeMessage
 1992              	.LVL207:
 1993              		.loc 1 390 0
 1994 0334 0120     		movs	r0, #1
 1995              	.LVL208:
ARM GAS  /var/folders/qd/4mxf5pkd0zdf0b9dd1hp39180000gn/T//ccsf5yWP.s 			page 36


 1996              	.L121:
 1997              		.loc 1 392 0
 1998 0336 054B     		ldr	r3, .L148
 1999 0338 279A     		ldr	r2, [sp, #156]
 2000 033a 1B68     		ldr	r3, [r3]
 2001 033c 9A42     		cmp	r2, r3
 2002 033e 0DD1     		bne	.L147
 2003 0340 29B0     		add	sp, sp, #164
 2004              		.cfi_remember_state
 2005              		.cfi_def_cfa_offset 44
 2006              		@ sp needed
 2007 0342 BDEC028B 		vldm	sp!, {d8}
 2008              		.cfi_restore 80
 2009              		.cfi_restore 81
 2010              		.cfi_def_cfa_offset 36
 2011 0346 BDE8F08F 		pop	{r4, r5, r6, r7, r8, r9, r10, fp, pc}
 2012              	.L149:
 2013 034a 00BF     		.align	2
 2014              	.L148:
 2015 034c 00000000 		.word	__stack_chk_guard
 2016 0350 00000000 		.word	.LANCHOR3
 2017 0354 00000000 		.word	.LANCHOR0
 2018 0358 00000000 		.word	.LC5
 2019              	.L147:
 2020              		.cfi_restore_state
 2021 035c FFF7FEFF 		bl	__stack_chk_fail
 2022              	.LVL209:
 2023              		.cfi_endproc
 2024              	.LFE271:
 2025              		.size	mod_mapping_computeWallLocation, .-mod_mapping_computeWallLocation
 2026              		.section	.text.mod_mapping_getRobotDisplacement,"ax",%progbits
 2027              		.align	1
 2028              		.p2align 4,,15
 2029              		.global	mod_mapping_getRobotDisplacement
 2030              		.syntax unified
 2031              		.thumb
 2032              		.thumb_func
 2033              		.fpu fpv4-sp-d16
 2034              		.type	mod_mapping_getRobotDisplacement, %function
 2035              	mod_mapping_getRobotDisplacement:
 2036              	.LFB272:
 2037              		.loc 1 395 0
 2038              		.cfi_startproc
 2039              		@ args = 0, pretend = 0, frame = 56
 2040              		@ frame_needed = 0, uses_anonymous_args = 0
 2041              	.LVL210:
 2042 0000 2DE9F047 		push	{r4, r5, r6, r7, r8, r9, r10, lr}
 2043              		.cfi_def_cfa_offset 32
 2044              		.cfi_offset 4, -32
 2045              		.cfi_offset 5, -28
 2046              		.cfi_offset 6, -24
 2047              		.cfi_offset 7, -20
 2048              		.cfi_offset 8, -16
 2049              		.cfi_offset 9, -12
 2050              		.cfi_offset 10, -8
 2051              		.cfi_offset 14, -4
 2052 0004 2DED028B 		vpush.64	{d8}
ARM GAS  /var/folders/qd/4mxf5pkd0zdf0b9dd1hp39180000gn/T//ccsf5yWP.s 			page 37


 2053              		.cfi_def_cfa_offset 40
 2054              		.cfi_offset 80, -40
 2055              		.cfi_offset 81, -36
 2056              		.loc 1 398 0
 2057 0008 DFF838A1 		ldr	r10, .L165+32
 2058              		.loc 1 395 0
 2059 000c 454F     		ldr	r7, .L165
 2060              		.loc 1 399 0
 2061 000e DAE90023 		ldrd	r2, r3, [r10]
 2062 0012 D1E90054 		ldrd	r5, r4, [r1]
 2063              		.loc 1 395 0
 2064 0016 90B0     		sub	sp, sp, #64
 2065              		.cfi_def_cfa_offset 104
 2066              		.loc 1 398 0
 2067 0018 AD1A     		subs	r5, r5, r2
 2068              	.LVL211:
 2069              		.loc 1 399 0
 2070 001a E41A     		subs	r4, r4, r3
 2071              	.LVL212:
 2072              		.loc 1 395 0
 2073 001c 0646     		mov	r6, r0
 2074 001e 3B68     		ldr	r3, [r7]
 2075              		.loc 1 400 0
 2076 0020 94FBF5F0 		sdiv	r0, r4, r5
 2077              	.LVL213:
 2078              		.loc 1 395 0
 2079 0024 0F93     		str	r3, [sp, #60]
 2080              		.loc 1 400 0
 2081 0026 FFF7FEFF 		bl	__aeabi_i2d
 2082              	.LVL214:
 2083 002a 41EC100B 		vmov	d0, r0, r1
 2084 002e FFF7FEFF 		bl	atan
 2085              	.LVL215:
 2086 0032 59EC108B 		vmov	r8, r9, d0
 2087              	.LVL216:
 2088 0036 10EE100A 		vmov	r0, s0	@ int
 2089 003a 4946     		mov	r1, r9
 2090 003c FFF7FEFF 		bl	__aeabi_d2f
 2091              	.LVL217:
 2092              		.loc 1 403 0
 2093 0040 FFF7FEFF 		bl	__aeabi_f2d
 2094              	.LVL218:
 2095 0044 2346     		mov	r3, r4
 2096 0046 2A46     		mov	r2, r5
 2097 0048 CDE90001 		strd	r0, [sp]
 2098 004c 3649     		ldr	r1, .L165+4
 2099 004e 02A8     		add	r0, sp, #8
 2100 0050 FFF7FEFF 		bl	sprintf
 2101              	.LVL219:
 2102              		.loc 1 404 0
 2103 0054 02A8     		add	r0, sp, #8
 2104 0056 0321     		movs	r1, #3
 2105 0058 FFF7FEFF 		bl	mod_com_writeMessage
 2106              	.LVL220:
 2107              		.loc 1 412 0
 2108 005c 002D     		cmp	r5, #0
 2109              		.loc 1 413 0
ARM GAS  /var/folders/qd/4mxf5pkd0zdf0b9dd1hp39180000gn/T//ccsf5yWP.s 			page 38


 2110 005e ACBF     		ite	ge
 2111 0060 9FED327A 		vldrge.32	s14, .L165+8
 2112              		.loc 1 416 0
 2113 0064 9FED327A 		vldrlt.32	s14, .L165+12
 2114 0068 DAED027A 		vldr.32	s15, [r10, #8]
 2115 006c 77EE677A 		vsub.f32	s15, s14, s15
 2116              		.loc 1 421 0
 2117 0070 04FB04F4 		mul	r4, r4, r4
 2118              	.LVL221:
 2119              		.loc 1 416 0
 2120 0074 17EE900A 		vmov	r0, s15
 2121 0078 FFF7FEFF 		bl	__aeabi_f2d
 2122              	.LVL222:
 2123 007c 4246     		mov	r2, r8
 2124 007e 4B46     		mov	r3, r9
 2125 0080 FFF7FEFF 		bl	__aeabi_dadd
 2126              	.LVL223:
 2127 0084 FFF7FEFF 		bl	__aeabi_d2f
 2128              	.LVL224:
 2129 0088 08EE100A 		vmov	s16, r0
 2130              	.LVL225:
 2131              		.loc 1 421 0
 2132 008c 05FB0540 		mla	r0, r5, r5, r4
 2133              	.LVL226:
 2134 0090 FFF7FEFF 		bl	__aeabi_i2d
 2135              	.LVL227:
 2136 0094 41EC100B 		vmov	d0, r0, r1
 2137 0098 FFF7FEFF 		bl	sqrt
 2138              	.LVL228:
 2139 009c 51EC100B 		vmov	r0, r1, d0
 2140 00a0 FFF7FEFF 		bl	__aeabi_d2iz
 2141              	.LVL229:
 2142              		.loc 1 423 0
 2143 00a4 DFED237A 		vldr.32	s15, .L165+16
 2144 00a8 B4EEE78A 		vcmpe.f32	s16, s15
 2145 00ac F1EE10FA 		vmrs	APSR_nzcv, FPSCR
 2146              		.loc 1 421 0
 2147 00b0 0446     		mov	r4, r0
 2148              	.LVL230:
 2149              		.loc 1 423 0
 2150 00b2 08DD     		ble	.L153
 2151 00b4 9FED207A 		vldr.32	s14, .L165+20
 2152              	.LVL231:
 2153              	.L155:
 2154              		.loc 1 423 0 is_stmt 0 discriminator 2
 2155 00b8 38EE478A 		vsub.f32	s16, s16, s14
 2156              	.LVL232:
 2157 00bc B4EEE78A 		vcmpe.f32	s16, s15
 2158 00c0 F1EE10FA 		vmrs	APSR_nzcv, FPSCR
 2159 00c4 F8DC     		bgt	.L155
 2160              	.L153:
 2161              		.loc 1 424 0 is_stmt 1
 2162 00c6 DFED1D7A 		vldr.32	s15, .L165+24
 2163 00ca B4EEE78A 		vcmpe.f32	s16, s15
 2164 00ce F1EE10FA 		vmrs	APSR_nzcv, FPSCR
 2165 00d2 08D5     		bpl	.L156
 2166 00d4 9FED187A 		vldr.32	s14, .L165+20
ARM GAS  /var/folders/qd/4mxf5pkd0zdf0b9dd1hp39180000gn/T//ccsf5yWP.s 			page 39


 2167              	.L158:
 2168              		.loc 1 424 0 is_stmt 0 discriminator 2
 2169 00d8 38EE078A 		vadd.f32	s16, s16, s14
 2170              	.LVL233:
 2171 00dc B4EEE78A 		vcmpe.f32	s16, s15
 2172 00e0 F1EE10FA 		vmrs	APSR_nzcv, FPSCR
 2173 00e4 F8D4     		bmi	.L158
 2174              	.L156:
 2175              		.loc 1 426 0 is_stmt 1
 2176 00e6 18EE100A 		vmov	r0, s16
 2177              	.LVL234:
 2178 00ea FFF7FEFF 		bl	__aeabi_f2d
 2179              	.LVL235:
 2180 00ee 2246     		mov	r2, r4
 2181 00f0 CDE90001 		strd	r0, [sp]
 2182 00f4 1249     		ldr	r1, .L165+28
 2183 00f6 02A8     		add	r0, sp, #8
 2184 00f8 FFF7FEFF 		bl	sprintf
 2185              	.LVL236:
 2186              		.loc 1 427 0
 2187 00fc 02A8     		add	r0, sp, #8
 2188 00fe 0321     		movs	r1, #3
 2189 0100 FFF7FEFF 		bl	mod_com_writeMessage
 2190              	.LVL237:
 2191              		.loc 1 430 0
 2192 0104 0F9A     		ldr	r2, [sp, #60]
 2193 0106 3B68     		ldr	r3, [r7]
 2194              		.loc 1 429 0
 2195 0108 3460     		str	r4, [r6]
 2196              		.loc 1 430 0
 2197 010a 9A42     		cmp	r2, r3
 2198              		.loc 1 429 0
 2199 010c 86ED018A 		vstr.32	s16, [r6, #4]
 2200              	.LVL238:
 2201              		.loc 1 430 0
 2202 0110 3046     		mov	r0, r6
 2203 0112 04D1     		bne	.L164
 2204              	.LVL239:
 2205 0114 10B0     		add	sp, sp, #64
 2206              		.cfi_remember_state
 2207              		.cfi_def_cfa_offset 40
 2208              		@ sp needed
 2209 0116 BDEC028B 		vldm	sp!, {d8}
 2210              		.cfi_restore 80
 2211              		.cfi_restore 81
 2212              		.cfi_def_cfa_offset 32
 2213 011a BDE8F087 		pop	{r4, r5, r6, r7, r8, r9, r10, pc}
 2214              	.LVL240:
 2215              	.L164:
 2216              		.cfi_restore_state
 2217 011e FFF7FEFF 		bl	__stack_chk_fail
 2218              	.LVL241:
 2219              	.L166:
 2220 0122 00BF     		.align	2
 2221              	.L165:
 2222 0124 00000000 		.word	__stack_chk_guard
 2223 0128 00000000 		.word	.LC6
ARM GAS  /var/folders/qd/4mxf5pkd0zdf0b9dd1hp39180000gn/T//ccsf5yWP.s 			page 40


 2224 012c E4CB9640 		.word	1083624420
 2225 0130 DB0FC93F 		.word	1070141403
 2226 0134 DB0F4940 		.word	1078530011
 2227 0138 DB0FC940 		.word	1086918619
 2228 013c DB0F49C0 		.word	3226013659
 2229 0140 24000000 		.word	.LC7
 2230 0144 00000000 		.word	.LANCHOR0
 2231              		.cfi_endproc
 2232              	.LFE272:
 2233              		.size	mod_mapping_getRobotDisplacement, .-mod_mapping_getRobotDisplacement
 2234              		.section	.text.mod_mapping_getActualPosition,"ax",%progbits
 2235              		.align	1
 2236              		.p2align 4,,15
 2237              		.global	mod_mapping_getActualPosition
 2238              		.syntax unified
 2239              		.thumb
 2240              		.thumb_func
 2241              		.fpu fpv4-sp-d16
 2242              		.type	mod_mapping_getActualPosition, %function
 2243              	mod_mapping_getActualPosition:
 2244              	.LFB273:
 2245              		.loc 1 433 0
 2246              		.cfi_startproc
 2247              		@ args = 0, pretend = 0, frame = 8
 2248              		@ frame_needed = 0, uses_anonymous_args = 0
 2249              	.LVL242:
 2250 0000 30B5     		push	{r4, r5, lr}
 2251              		.cfi_def_cfa_offset 12
 2252              		.cfi_offset 4, -12
 2253              		.cfi_offset 5, -8
 2254              		.cfi_offset 14, -4
 2255 0002 094C     		ldr	r4, .L171
 2256              		.loc 1 434 0
 2257 0004 094A     		ldr	r2, .L171+4
 2258              		.loc 1 433 0
 2259 0006 2568     		ldr	r5, [r4]
 2260 0008 83B0     		sub	sp, sp, #12
 2261              		.cfi_def_cfa_offset 24
 2262              		.loc 1 433 0
 2263 000a 0346     		mov	r3, r0
 2264 000c 0195     		str	r5, [sp, #4]
 2265              		.loc 1 434 0
 2266 000e 07CA     		ldm	r2, {r0, r1, r2}
 2267              	.LVL243:
 2268              		.loc 1 435 0
 2269 0010 019D     		ldr	r5, [sp, #4]
 2270 0012 2468     		ldr	r4, [r4]
 2271 0014 A542     		cmp	r5, r4
 2272              		.loc 1 434 0
 2273 0016 83E80700 		stm	r3, {r0, r1, r2}
 2274              		.loc 1 435 0
 2275 001a 02D1     		bne	.L170
 2276 001c 1846     		mov	r0, r3
 2277 001e 03B0     		add	sp, sp, #12
 2278              		.cfi_remember_state
 2279              		.cfi_def_cfa_offset 12
 2280              		@ sp needed
ARM GAS  /var/folders/qd/4mxf5pkd0zdf0b9dd1hp39180000gn/T//ccsf5yWP.s 			page 41


 2281 0020 30BD     		pop	{r4, r5, pc}
 2282              	.L170:
 2283              		.cfi_restore_state
 2284 0022 FFF7FEFF 		bl	__stack_chk_fail
 2285              	.LVL244:
 2286              	.L172:
 2287 0026 00BF     		.align	2
 2288              	.L171:
 2289 0028 00000000 		.word	__stack_chk_guard
 2290 002c 00000000 		.word	.LANCHOR0
 2291              		.cfi_endproc
 2292              	.LFE273:
 2293              		.size	mod_mapping_getActualPosition, .-mod_mapping_getActualPosition
 2294              		.section	.text.mod_mapping_getRelativeAngle,"ax",%progbits
 2295              		.align	1
 2296              		.p2align 4,,15
 2297              		.global	mod_mapping_getRelativeAngle
 2298              		.syntax unified
 2299              		.thumb
 2300              		.thumb_func
 2301              		.fpu fpv4-sp-d16
 2302              		.type	mod_mapping_getRelativeAngle, %function
 2303              	mod_mapping_getRelativeAngle:
 2304              	.LFB274:
 2305              		.loc 1 438 0
 2306              		.cfi_startproc
 2307              		@ args = 0, pretend = 0, frame = 8
 2308              		@ frame_needed = 0, uses_anonymous_args = 0
 2309              	.LVL245:
 2310 0000 00B5     		push	{lr}
 2311              		.cfi_def_cfa_offset 4
 2312              		.cfi_offset 14, -4
 2313              		.loc 1 439 0
 2314 0002 1C4B     		ldr	r3, .L185
 2315 0004 DFED1C6A 		vldr.32	s13, .L185+4
 2316 0008 D3ED027A 		vldr.32	s15, [r3, #8]
 2317              		.loc 1 441 0
 2318 000c 9FED1B7A 		vldr.32	s14, .L185+8
 2319              		.loc 1 438 0
 2320 0010 1B4B     		ldr	r3, .L185+12
 2321              		.loc 1 439 0
 2322 0012 30EE670A 		vsub.f32	s0, s0, s15
 2323              	.LVL246:
 2324              		.loc 1 438 0
 2325 0016 83B0     		sub	sp, sp, #12
 2326              		.cfi_def_cfa_offset 16
 2327              		.loc 1 439 0
 2328 0018 30EE660A 		vsub.f32	s0, s0, s13
 2329              	.LVL247:
 2330              		.loc 1 438 0
 2331 001c 1A68     		ldr	r2, [r3]
 2332 001e 0192     		str	r2, [sp, #4]
 2333              		.loc 1 441 0
 2334 0020 B4EEC70A 		vcmpe.f32	s0, s14
 2335 0024 F1EE10FA 		vmrs	APSR_nzcv, FPSCR
 2336 0028 0ADD     		ble	.L174
 2337 002a F0EE477A 		vmov.f32	s15, s14
ARM GAS  /var/folders/qd/4mxf5pkd0zdf0b9dd1hp39180000gn/T//ccsf5yWP.s 			page 42


 2338 002e 9FED157A 		vldr.32	s14, .L185+16
 2339              	.L176:
 2340              		.loc 1 441 0 is_stmt 0 discriminator 2
 2341 0032 30EE470A 		vsub.f32	s0, s0, s14
 2342              	.LVL248:
 2343 0036 B4EEE70A 		vcmpe.f32	s0, s15
 2344 003a F1EE10FA 		vmrs	APSR_nzcv, FPSCR
 2345 003e F8DC     		bgt	.L176
 2346              	.L174:
 2347              		.loc 1 442 0 is_stmt 1
 2348 0040 DFED117A 		vldr.32	s15, .L185+20
 2349 0044 B4EEE70A 		vcmpe.f32	s0, s15
 2350 0048 F1EE10FA 		vmrs	APSR_nzcv, FPSCR
 2351 004c 08D5     		bpl	.L173
 2352 004e 9FED0D7A 		vldr.32	s14, .L185+16
 2353              	.L179:
 2354              		.loc 1 442 0 is_stmt 0 discriminator 2
 2355 0052 30EE070A 		vadd.f32	s0, s0, s14
 2356              	.LVL249:
 2357 0056 B4EEE70A 		vcmpe.f32	s0, s15
 2358 005a F1EE10FA 		vmrs	APSR_nzcv, FPSCR
 2359 005e F8D4     		bmi	.L179
 2360              	.L173:
 2361              		.loc 1 445 0 is_stmt 1
 2362 0060 019A     		ldr	r2, [sp, #4]
 2363 0062 1B68     		ldr	r3, [r3]
 2364 0064 9A42     		cmp	r2, r3
 2365 0066 02D1     		bne	.L184
 2366 0068 03B0     		add	sp, sp, #12
 2367              		.cfi_remember_state
 2368              		.cfi_def_cfa_offset 4
 2369              		@ sp needed
 2370 006a 5DF804FB 		ldr	pc, [sp], #4
 2371              	.L184:
 2372              		.cfi_restore_state
 2373 006e FFF7FEFF 		bl	__stack_chk_fail
 2374              	.LVL250:
 2375              	.L186:
 2376 0072 00BF     		.align	2
 2377              	.L185:
 2378 0074 00000000 		.word	.LANCHOR0
 2379 0078 DB0FC93F 		.word	1070141403
 2380 007c DB0F4940 		.word	1078530011
 2381 0080 00000000 		.word	__stack_chk_guard
 2382 0084 DB0FC940 		.word	1086918619
 2383 0088 DB0F49C0 		.word	3226013659
 2384              		.cfi_endproc
 2385              	.LFE274:
 2386              		.size	mod_mapping_getRelativeAngle, .-mod_mapping_getRelativeAngle
 2387              		.section	.text.mod_mapping_checkEnvironment,"ax",%progbits
 2388              		.align	1
 2389              		.p2align 4,,15
 2390              		.global	mod_mapping_checkEnvironment
 2391              		.syntax unified
 2392              		.thumb
 2393              		.thumb_func
 2394              		.fpu fpv4-sp-d16
ARM GAS  /var/folders/qd/4mxf5pkd0zdf0b9dd1hp39180000gn/T//ccsf5yWP.s 			page 43


 2395              		.type	mod_mapping_checkEnvironment, %function
 2396              	mod_mapping_checkEnvironment:
 2397              	.LFB275:
 2398              		.loc 1 448 0
 2399              		.cfi_startproc
 2400              		@ args = 0, pretend = 0, frame = 64
 2401              		@ frame_needed = 0, uses_anonymous_args = 0
 2402              	.LVL251:
 2403 0000 2DE9F04F 		push	{r4, r5, r6, r7, r8, r9, r10, fp, lr}
 2404              		.cfi_def_cfa_offset 36
 2405              		.cfi_offset 4, -36
 2406              		.cfi_offset 5, -32
 2407              		.cfi_offset 6, -28
 2408              		.cfi_offset 7, -24
 2409              		.cfi_offset 8, -20
 2410              		.cfi_offset 9, -16
 2411              		.cfi_offset 10, -12
 2412              		.cfi_offset 11, -8
 2413              		.cfi_offset 14, -4
 2414 0004 704B     		ldr	r3, .L224
 2415              		.loc 1 451 0
 2416 0006 DFF8D081 		ldr	r8, .L224+16
 2417              		.loc 1 448 0
 2418 000a 1B68     		ldr	r3, [r3]
 2419 000c 91B0     		sub	sp, sp, #68
 2420              		.cfi_def_cfa_offset 104
 2421              		.loc 1 448 0
 2422 000e 0546     		mov	r5, r0
 2423              		.loc 1 449 0
 2424 0010 C800     		lsls	r0, r1, #3
 2425              	.LVL252:
 2426              		.loc 1 448 0
 2427 0012 0F46     		mov	r7, r1
 2428 0014 0F93     		str	r3, [sp, #60]
 2429              		.loc 1 449 0
 2430 0016 FFF7FEFF 		bl	malloc
 2431              	.LVL253:
 2432              		.loc 1 450 0
 2433 001a 8246     		mov	r10, r0
 2434 001c 0030     		adds	r0, r0, #0
 2435              	.LVL254:
 2436              		.loc 1 451 0
 2437 001e 4FF00006 		mov	r6, #0
 2438              		.loc 1 450 0
 2439 0022 18BF     		it	ne
 2440 0024 0120     		movne	r0, #1
 2441 0026 FFF7FEFF 		bl	assert
 2442              	.LVL255:
 2443              	.LBB63:
 2444              		.loc 1 458 0
 2445 002a B742     		cmp	r7, r6
 2446              	.LBE63:
 2447              		.loc 1 452 0
 2448 002c C8E90166 		strd	r6, r6, [r8, #4]
 2449              	.LVL256:
 2450              	.LBB71:
 2451              		.loc 1 455 0
ARM GAS  /var/folders/qd/4mxf5pkd0zdf0b9dd1hp39180000gn/T//ccsf5yWP.s 			page 44


 2452 0030 88F80060 		strb	r6, [r8]
 2453              	.LVL257:
 2454 0034 88F80160 		strb	r6, [r8, #1]
 2455              	.LVL258:
 2456 0038 88F80260 		strb	r6, [r8, #2]
 2457              	.LVL259:
 2458 003c 88F80360 		strb	r6, [r8, #3]
 2459              	.LVL260:
 2460              	.LBE71:
 2461              	.LBB72:
 2462              		.loc 1 458 0
 2463 0040 2FDD     		ble	.L188
 2464              		.loc 1 464 0
 2465 0042 DFF89891 		ldr	r9, .L224+20
 2466 0046 5446     		mov	r4, r10
 2467 0048 09E0     		b	.L200
 2468              	.LVL261:
 2469              	.L220:
 2470              		.loc 1 464 0 is_stmt 0 discriminator 1
 2471 004a 0123     		movs	r3, #1
 2472 004c 88F80030 		strb	r3, [r8]
 2473              	.L190:
 2474              		.loc 1 458 0 is_stmt 1 discriminator 2
 2475 0050 0136     		adds	r6, r6, #1
 2476              	.LVL262:
 2477 0052 B742     		cmp	r7, r6
 2478 0054 05F11005 		add	r5, r5, #16
 2479 0058 04F10804 		add	r4, r4, #8
 2480 005c 21D0     		beq	.L188
 2481              	.LVL263:
 2482              	.L200:
 2483              		.loc 1 459 0
 2484 005e EB68     		ldr	r3, [r5, #12]
 2485 0060 002B     		cmp	r3, #0
 2486 0062 F5DD     		ble	.L190
 2487              		.loc 1 460 0
 2488 0064 2946     		mov	r1, r5
 2489 0066 2046     		mov	r0, r4
 2490 0068 FFF7FEFF 		bl	measurementToPoint
 2491              	.LVL264:
 2492              		.loc 1 462 0
 2493 006c 94E80300 		ldm	r4, {r0, r1}
 2494 0070 FFF7FEFF 		bl	isNear
 2495              	.LVL265:
 2496 0074 0028     		cmp	r0, #0
 2497 0076 EBD0     		beq	.L190
 2498              		.loc 1 464 0
 2499 0078 D9F80030 		ldr	r3, [r9]
 2500 007c 2268     		ldr	r2, [r4]
 2501 007e 2733     		adds	r3, r3, #39
 2502 0080 9342     		cmp	r3, r2
 2503 0082 E2DA     		bge	.L220
 2504              		.loc 1 465 0
 2505 0084 D9F80430 		ldr	r3, [r9, #4]
 2506 0088 273B     		subs	r3, r3, #39
 2507 008a 9A42     		cmp	r2, r3
 2508 008c 15DB     		blt	.L193
ARM GAS  /var/folders/qd/4mxf5pkd0zdf0b9dd1hp39180000gn/T//ccsf5yWP.s 			page 45


 2509              		.loc 1 458 0 discriminator 1
 2510 008e 0136     		adds	r6, r6, #1
 2511              	.LVL266:
 2512              		.loc 1 465 0 discriminator 1
 2513 0090 0123     		movs	r3, #1
 2514              		.loc 1 458 0 discriminator 1
 2515 0092 B742     		cmp	r7, r6
 2516              		.loc 1 465 0 discriminator 1
 2517 0094 88F80130 		strb	r3, [r8, #1]
 2518 0098 05F11005 		add	r5, r5, #16
 2519 009c 04F10804 		add	r4, r4, #8
 2520              		.loc 1 458 0 discriminator 1
 2521 00a0 DDD1     		bne	.L200
 2522              	.LVL267:
 2523              	.L188:
 2524              	.LBE72:
 2525              		.loc 1 492 0
 2526 00a2 494B     		ldr	r3, .L224
 2527 00a4 0F9A     		ldr	r2, [sp, #60]
 2528 00a6 1B68     		ldr	r3, [r3]
 2529 00a8 9A42     		cmp	r2, r3
 2530 00aa 40F08B80 		bne	.L221
 2531 00ae 5046     		mov	r0, r10
 2532              		.loc 1 495 0
 2533 00b0 11B0     		add	sp, sp, #68
 2534              		.cfi_remember_state
 2535              		.cfi_def_cfa_offset 36
 2536              		@ sp needed
 2537 00b2 BDE8F04F 		pop	{r4, r5, r6, r7, r8, r9, r10, fp, lr}
 2538              		.cfi_restore 14
 2539              		.cfi_restore 11
 2540              		.cfi_restore 10
 2541              		.cfi_restore 9
 2542              		.cfi_restore 8
 2543              		.cfi_restore 7
 2544              		.cfi_restore 6
 2545              		.cfi_restore 5
 2546              		.cfi_restore 4
 2547              		.cfi_def_cfa_offset 0
 2548              	.LVL268:
 2549              		.loc 1 492 0
 2550 00b6 FFF7FEBF 		b	free
 2551              	.LVL269:
 2552              	.L193:
 2553              		.cfi_restore_state
 2554              	.LBB73:
 2555              		.loc 1 466 0
 2556 00ba D9F80810 		ldr	r1, [r9, #8]
 2557 00be 6368     		ldr	r3, [r4, #4]
 2558 00c0 2731     		adds	r1, r1, #39
 2559 00c2 9942     		cmp	r1, r3
 2560 00c4 9B46     		mov	fp, r3
 2561 00c6 03DB     		blt	.L194
 2562              		.loc 1 466 0 is_stmt 0 discriminator 1
 2563 00c8 0123     		movs	r3, #1
 2564 00ca 88F80230 		strb	r3, [r8, #2]
 2565 00ce BFE7     		b	.L190
ARM GAS  /var/folders/qd/4mxf5pkd0zdf0b9dd1hp39180000gn/T//ccsf5yWP.s 			page 46


 2566              	.L194:
 2567              		.loc 1 467 0 is_stmt 1
 2568 00d0 D9F80C10 		ldr	r1, [r9, #12]
 2569 00d4 2739     		subs	r1, r1, #39
 2570 00d6 8B42     		cmp	r3, r1
 2571 00d8 03DB     		blt	.L222
 2572              		.loc 1 467 0 is_stmt 0 discriminator 1
 2573 00da 0123     		movs	r3, #1
 2574 00dc 88F80330 		strb	r3, [r8, #3]
 2575 00e0 B6E7     		b	.L190
 2576              	.L222:
 2577              	.LVL270:
 2578              	.LBB64:
 2579              	.LBB65:
 2580              		.loc 1 220 0 is_stmt 1
 2581 00e2 3A49     		ldr	r1, .L224+4
 2582 00e4 D1F800C0 		ldr	ip, [r1]
 2583 00e8 BCF1000F 		cmp	ip, #0
 2584 00ec 67DD     		ble	.L223
 2585              		.loc 1 221 0
 2586 00ee 3849     		ldr	r1, .L224+8
 2587 00f0 0191     		str	r1, [sp, #4]
 2588 00f2 D1F800E0 		ldr	lr, [r1]
 2589              	.LVL271:
 2590              	.LBB66:
 2591              	.LBB67:
 2592              		.loc 1 214 0
 2593 00f6 DEE90001 		ldrd	r0, r1, [lr]
 2594 00fa 101A     		subs	r0, r2, r0
 2595 00fc 00FB00F0 		mul	r0, r0, r0
 2596 0100 591A     		subs	r1, r3, r1
 2597 0102 01FB0101 		mla	r1, r1, r1, r0
 2598 0106 3B29     		cmp	r1, #59
 2599 0108 42DD     		ble	.L197
 2600              	.LBE67:
 2601              	.LBE66:
 2602              		.loc 1 220 0
 2603 010a 4FF0000B 		mov	fp, #0
 2604 010e 0BE0     		b	.L198
 2605              	.LVL272:
 2606              	.L199:
 2607              	.LBB69:
 2608              	.LBB68:
 2609              		.loc 1 214 0
 2610 0110 DEE90210 		ldrd	r1, r0, [lr, #8]
 2611 0114 181A     		subs	r0, r3, r0
 2612 0116 00FB00F0 		mul	r0, r0, r0
 2613 011a 511A     		subs	r1, r2, r1
 2614 011c 01FB0101 		mla	r1, r1, r1, r0
 2615 0120 3B29     		cmp	r1, #59
 2616 0122 0EF1080E 		add	lr, lr, #8
 2617              	.LVL273:
 2618 0126 33DD     		ble	.L197
 2619              	.LVL274:
 2620              	.L198:
 2621              	.LBE68:
 2622              	.LBE69:
ARM GAS  /var/folders/qd/4mxf5pkd0zdf0b9dd1hp39180000gn/T//ccsf5yWP.s 			page 47


 2623              		.loc 1 220 0
 2624 0128 0BF1010B 		add	fp, fp, #1
 2625              	.LVL275:
 2626 012c E345     		cmp	fp, ip
 2627 012e EFD1     		bne	.L199
 2628 0130 9B46     		mov	fp, r3
 2629              	.LVL276:
 2630              	.L196:
 2631              	.LBE65:
 2632              	.LBE64:
 2633              	.LBB70:
 2634              		.loc 1 475 0
 2635 0132 D8F80430 		ldr	r3, [r8, #4]
 2636 0136 94E80300 		ldm	r4, {r0, r1}
 2637 013a 03F1010E 		add	lr, r3, #1
 2638 013e 08EBCE0C 		add	ip, r8, lr, lsl #3
 2639 0142 0CF1040C 		add	ip, ip, #4
 2640 0146 8CE80300 		stm	ip, {r0, r1}
 2641              		.loc 1 478 0
 2642 014a 5B46     		mov	r3, fp
 2643 014c 2149     		ldr	r1, .L224+12
 2644              		.loc 1 476 0
 2645 014e C8F804E0 		str	lr, [r8, #4]
 2646              		.loc 1 478 0
 2647 0152 02A8     		add	r0, sp, #8
 2648 0154 FFF7FEFF 		bl	sprintf
 2649              	.LVL277:
 2650              		.loc 1 479 0
 2651 0158 02A8     		add	r0, sp, #8
 2652 015a 0321     		movs	r1, #3
 2653 015c FFF7FEFF 		bl	mod_com_writeMessage
 2654              	.LVL278:
 2655              		.loc 1 481 0
 2656 0160 1A4A     		ldr	r2, .L224+4
 2657 0162 0199     		ldr	r1, [sp, #4]
 2658 0164 1368     		ldr	r3, [r2]
 2659 0166 0868     		ldr	r0, [r1]
 2660 0168 0133     		adds	r3, r3, #1
 2661 016a D900     		lsls	r1, r3, #3
 2662 016c FFF7FEFF 		bl	realloc
 2663              	.LVL279:
 2664 0170 0199     		ldr	r1, [sp, #4]
 2665              		.loc 1 482 0
 2666 0172 164A     		ldr	r2, .L224+4
 2667              		.loc 1 481 0
 2668 0174 0860     		str	r0, [r1]
 2669              		.loc 1 482 0
 2670 0176 1268     		ldr	r2, [r2]
 2671              		.loc 1 481 0
 2672 0178 0346     		mov	r3, r0
 2673              		.loc 1 482 0
 2674 017a 94E80300 		ldm	r4, {r0, r1}
 2675 017e 03EBC203 		add	r3, r3, r2, lsl #3
 2676 0182 83E80300 		stm	r3, {r0, r1}
 2677              		.loc 1 483 0
 2678 0186 114A     		ldr	r2, .L224+4
 2679 0188 1368     		ldr	r3, [r2]
ARM GAS  /var/folders/qd/4mxf5pkd0zdf0b9dd1hp39180000gn/T//ccsf5yWP.s 			page 48


 2680 018a 0133     		adds	r3, r3, #1
 2681 018c 1360     		str	r3, [r2]
 2682 018e 0BE0     		b	.L202
 2683              	.LVL280:
 2684              	.L197:
 2685              	.LBE70:
 2686              		.loc 1 471 0
 2687 0190 D8F80820 		ldr	r2, [r8, #8]
 2688              	.LVL281:
 2689 0194 94E80300 		ldm	r4, {r0, r1}
 2690 0198 08EBC203 		add	r3, r8, r2, lsl #3
 2691              	.LVL282:
 2692 019c 2433     		adds	r3, r3, #36
 2693 019e 83E80300 		stm	r3, {r0, r1}
 2694              		.loc 1 472 0
 2695 01a2 0132     		adds	r2, r2, #1
 2696 01a4 C8F80820 		str	r2, [r8, #8]
 2697              	.LVL283:
 2698              	.L202:
 2699              		.loc 1 485 0
 2700 01a8 D8F80430 		ldr	r3, [r8, #4]
 2701 01ac 032B     		cmp	r3, #3
 2702 01ae 3FF478AF 		beq	.L188
 2703              		.loc 1 485 0 is_stmt 0 discriminator 1
 2704 01b2 D8F80830 		ldr	r3, [r8, #8]
 2705 01b6 032B     		cmp	r3, #3
 2706 01b8 7FF44AAF 		bne	.L190
 2707 01bc 71E7     		b	.L188
 2708              	.LVL284:
 2709              	.L223:
 2710 01be 044B     		ldr	r3, .L224+8
 2711 01c0 0193     		str	r3, [sp, #4]
 2712 01c2 B6E7     		b	.L196
 2713              	.LVL285:
 2714              	.L221:
 2715              	.LBE73:
 2716              		.loc 1 492 0 is_stmt 1
 2717 01c4 FFF7FEFF 		bl	__stack_chk_fail
 2718              	.LVL286:
 2719              	.L225:
 2720              		.align	2
 2721              	.L224:
 2722 01c8 00000000 		.word	__stack_chk_guard
 2723 01cc 00000000 		.word	.LANCHOR1
 2724 01d0 00000000 		.word	.LANCHOR2
 2725 01d4 00000000 		.word	.LC8
 2726 01d8 00000000 		.word	.LANCHOR4
 2727 01dc 00000000 		.word	.LANCHOR3
 2728              		.cfi_endproc
 2729              	.LFE275:
 2730              		.size	mod_mapping_checkEnvironment, .-mod_mapping_checkEnvironment
 2731              		.section	.text.mod_mapping_computeDistanceForPicture,"ax",%progbits
 2732              		.align	1
 2733              		.p2align 4,,15
 2734              		.global	mod_mapping_computeDistanceForPicture
 2735              		.syntax unified
 2736              		.thumb
ARM GAS  /var/folders/qd/4mxf5pkd0zdf0b9dd1hp39180000gn/T//ccsf5yWP.s 			page 49


 2737              		.thumb_func
 2738              		.fpu fpv4-sp-d16
 2739              		.type	mod_mapping_computeDistanceForPicture, %function
 2740              	mod_mapping_computeDistanceForPicture:
 2741              	.LFB276:
 2742              		.loc 1 498 0
 2743              		.cfi_startproc
 2744              		@ args = 0, pretend = 0, frame = 64
 2745              		@ frame_needed = 0, uses_anonymous_args = 0
 2746              	.LVL287:
 2747 0000 70B5     		push	{r4, r5, r6, lr}
 2748              		.cfi_def_cfa_offset 16
 2749              		.cfi_offset 4, -16
 2750              		.cfi_offset 5, -12
 2751              		.cfi_offset 6, -8
 2752              		.cfi_offset 14, -4
 2753 0002 124E     		ldr	r6, .L230
 2754 0004 92B0     		sub	sp, sp, #72
 2755              		.cfi_def_cfa_offset 88
 2756              		.loc 1 498 0
 2757 0006 02AB     		add	r3, sp, #8
 2758 0008 0446     		mov	r4, r0
 2759 000a 83E80600 		stm	r3, {r1, r2}
 2760 000e 3568     		ldr	r5, [r6]
 2761 0010 1195     		str	r5, [sp, #68]
 2762              		.loc 1 499 0
 2763 0012 1946     		mov	r1, r3
 2764 0014 FFF7FEFF 		bl	mod_mapping_getRobotDisplacement
 2765              	.LVL288:
 2766              		.loc 1 503 0
 2767 0018 6068     		ldr	r0, [r4, #4]	@ float
 2768              		.loc 1 500 0
 2769 001a 2568     		ldr	r5, [r4]
 2770              		.loc 1 503 0
 2771 001c FFF7FEFF 		bl	__aeabi_f2d
 2772              	.LVL289:
 2773              		.loc 1 500 0
 2774 0020 853D     		subs	r5, r5, #133
 2775              	.LVL290:
 2776              		.loc 1 503 0
 2777 0022 CDE90001 		strd	r0, [sp]
 2778              	.LVL291:
 2779 0026 2A46     		mov	r2, r5
 2780 0028 0949     		ldr	r1, .L230+4
 2781 002a 04A8     		add	r0, sp, #16
 2782 002c FFF7FEFF 		bl	sprintf
 2783              	.LVL292:
 2784              		.loc 1 504 0
 2785 0030 04A8     		add	r0, sp, #16
 2786 0032 0321     		movs	r1, #3
 2787 0034 FFF7FEFF 		bl	mod_com_writeMessage
 2788              	.LVL293:
 2789              		.loc 1 507 0
 2790 0038 119A     		ldr	r2, [sp, #68]
 2791 003a 3368     		ldr	r3, [r6]
 2792              		.loc 1 506 0
 2793 003c 2560     		str	r5, [r4]
ARM GAS  /var/folders/qd/4mxf5pkd0zdf0b9dd1hp39180000gn/T//ccsf5yWP.s 			page 50


 2794              	.LVL294:
 2795              		.loc 1 507 0
 2796 003e 9A42     		cmp	r2, r3
 2797 0040 02D1     		bne	.L229
 2798 0042 2046     		mov	r0, r4
 2799 0044 12B0     		add	sp, sp, #72
 2800              		.cfi_remember_state
 2801              		.cfi_def_cfa_offset 16
 2802              		@ sp needed
 2803 0046 70BD     		pop	{r4, r5, r6, pc}
 2804              	.LVL295:
 2805              	.L229:
 2806              		.cfi_restore_state
 2807 0048 FFF7FEFF 		bl	__stack_chk_fail
 2808              	.LVL296:
 2809              	.L231:
 2810              		.align	2
 2811              	.L230:
 2812 004c 00000000 		.word	__stack_chk_guard
 2813 0050 00000000 		.word	.LC9
 2814              		.cfi_endproc
 2815              	.LFE276:
 2816              		.size	mod_mapping_computeDistanceForPicture, .-mod_mapping_computeDistanceForPicture
 2817              		.section	.text.mod_mapping_getAreaCenter,"ax",%progbits
 2818              		.align	1
 2819              		.p2align 4,,15
 2820              		.global	mod_mapping_getAreaCenter
 2821              		.syntax unified
 2822              		.thumb
 2823              		.thumb_func
 2824              		.fpu fpv4-sp-d16
 2825              		.type	mod_mapping_getAreaCenter, %function
 2826              	mod_mapping_getAreaCenter:
 2827              	.LFB277:
 2828              		.loc 1 510 0
 2829              		.cfi_startproc
 2830              		@ args = 0, pretend = 0, frame = 8
 2831              		@ frame_needed = 0, uses_anonymous_args = 0
 2832              	.LVL297:
 2833 0000 30B5     		push	{r4, r5, lr}
 2834              		.cfi_def_cfa_offset 12
 2835              		.cfi_offset 4, -12
 2836              		.cfi_offset 5, -8
 2837              		.cfi_offset 14, -4
 2838 0002 0B49     		ldr	r1, .L236
 2839              		.loc 1 511 0
 2840 0004 0B4A     		ldr	r2, .L236+4
 2841              		.loc 1 510 0
 2842 0006 0C68     		ldr	r4, [r1]
 2843              		.loc 1 511 0
 2844 0008 D368     		ldr	r3, [r2, #12]
 2845 000a 5268     		ldr	r2, [r2, #4]
 2846              		.loc 1 510 0
 2847 000c 83B0     		sub	sp, sp, #12
 2848              		.cfi_def_cfa_offset 24
 2849              		.loc 1 511 0
 2850 000e 03EBD373 		add	r3, r3, r3, lsr #31
ARM GAS  /var/folders/qd/4mxf5pkd0zdf0b9dd1hp39180000gn/T//ccsf5yWP.s 			page 51


 2851              		.loc 1 510 0
 2852 0012 0194     		str	r4, [sp, #4]
 2853              		.loc 1 512 0
 2854 0014 019D     		ldr	r5, [sp, #4]
 2855 0016 0C68     		ldr	r4, [r1]
 2856              		.loc 1 511 0
 2857 0018 02EBD272 		add	r2, r2, r2, lsr #31
 2858 001c 5B10     		asrs	r3, r3, #1
 2859 001e 5210     		asrs	r2, r2, #1
 2860              		.loc 1 512 0
 2861 0020 A542     		cmp	r5, r4
 2862              		.loc 1 511 0
 2863 0022 C0E90023 		strd	r2, r3, [r0]
 2864              		.loc 1 512 0
 2865 0026 01D1     		bne	.L235
 2866 0028 03B0     		add	sp, sp, #12
 2867              		.cfi_remember_state
 2868              		.cfi_def_cfa_offset 12
 2869              		@ sp needed
 2870 002a 30BD     		pop	{r4, r5, pc}
 2871              	.L235:
 2872              		.cfi_restore_state
 2873 002c FFF7FEFF 		bl	__stack_chk_fail
 2874              	.LVL298:
 2875              	.L237:
 2876              		.align	2
 2877              	.L236:
 2878 0030 00000000 		.word	__stack_chk_guard
 2879 0034 00000000 		.word	.LANCHOR3
 2880              		.cfi_endproc
 2881              	.LFE277:
 2882              		.size	mod_mapping_getAreaCenter, .-mod_mapping_getAreaCenter
 2883              		.section	.text.mod_mapping_checkEnvironmentRobotReferencial,"ax",%progbits
 2884              		.align	1
 2885              		.p2align 4,,15
 2886              		.global	mod_mapping_checkEnvironmentRobotReferencial
 2887              		.syntax unified
 2888              		.thumb
 2889              		.thumb_func
 2890              		.fpu fpv4-sp-d16
 2891              		.type	mod_mapping_checkEnvironmentRobotReferencial, %function
 2892              	mod_mapping_checkEnvironmentRobotReferencial:
 2893              	.LFB278:
 2894              		.loc 1 515 0
 2895              		.cfi_startproc
 2896              		@ args = 0, pretend = 0, frame = 16
 2897              		@ frame_needed = 0, uses_anonymous_args = 0
 2898              	.LVL299:
 2899 0000 F0B5     		push	{r4, r5, r6, r7, lr}
 2900              		.cfi_def_cfa_offset 20
 2901              		.cfi_offset 4, -20
 2902              		.cfi_offset 5, -16
 2903              		.cfi_offset 6, -12
 2904              		.cfi_offset 7, -8
 2905              		.cfi_offset 14, -4
 2906 0002 3A4D     		ldr	r5, .L254
 2907 0004 85B0     		sub	sp, sp, #20
ARM GAS  /var/folders/qd/4mxf5pkd0zdf0b9dd1hp39180000gn/T//ccsf5yWP.s 			page 52


 2908              		.cfi_def_cfa_offset 40
 2909              		.loc 1 515 0
 2910 0006 1646     		mov	r6, r2
 2911 0008 2B68     		ldr	r3, [r5]
 2912 000a 0393     		str	r3, [sp, #12]
 2913 000c 0446     		mov	r4, r0
 2914              		.loc 1 517 0
 2915 000e 01A8     		add	r0, sp, #4
 2916              	.LVL300:
 2917              		.loc 1 515 0
 2918 0010 0F46     		mov	r7, r1
 2919              		.loc 1 517 0
 2920 0012 FFF7FEFF 		bl	measurementToPoint
 2921              	.LVL301:
 2922 0016 DDE90112 		ldrd	r1, r2, [sp, #4]
 2923              	.LVL302:
 2924              		.loc 1 519 0
 2925 001a 002E     		cmp	r6, #0
 2926 001c 3ED0     		beq	.L239
 2927              		.loc 1 520 0
 2928 001e 3448     		ldr	r0, .L254+4
 2929 0020 0368     		ldr	r3, [r0]
 2930 0022 2733     		adds	r3, r3, #39
 2931 0024 8B42     		cmp	r3, r1
 2932 0026 48DA     		bge	.L240
 2933              		.loc 1 520 0 is_stmt 0 discriminator 1
 2934 0028 4368     		ldr	r3, [r0, #4]
 2935 002a 273B     		subs	r3, r3, #39
 2936 002c 8B42     		cmp	r3, r1
 2937 002e 44DD     		ble	.L240
 2938              		.loc 1 521 0 is_stmt 1 discriminator 2
 2939 0030 8368     		ldr	r3, [r0, #8]
 2940 0032 2733     		adds	r3, r3, #39
 2941              		.loc 1 520 0 discriminator 2
 2942 0034 9342     		cmp	r3, r2
 2943 0036 40DA     		bge	.L240
 2944              		.loc 1 521 0
 2945 0038 C368     		ldr	r3, [r0, #12]
 2946 003a 273B     		subs	r3, r3, #39
 2947 003c 9342     		cmp	r3, r2
 2948 003e 3CDD     		ble	.L240
 2949              	.LVL303:
 2950              	.LBB74:
 2951              	.LBB75:
 2952              		.loc 1 220 0
 2953 0040 2C4B     		ldr	r3, .L254+8
 2954 0042 D3F800C0 		ldr	ip, [r3]
 2955 0046 BCF1000F 		cmp	ip, #0
 2956 004a 1CDD     		ble	.L241
 2957              		.loc 1 221 0
 2958 004c 2A4B     		ldr	r3, .L254+12
 2959 004e 1E68     		ldr	r6, [r3]
 2960              	.LVL304:
 2961              	.LBB76:
 2962              	.LBB77:
 2963              		.loc 1 214 0
 2964 0050 D6E90030 		ldrd	r3, r0, [r6]
ARM GAS  /var/folders/qd/4mxf5pkd0zdf0b9dd1hp39180000gn/T//ccsf5yWP.s 			page 53


 2965 0054 101A     		subs	r0, r2, r0
 2966 0056 00FB00F0 		mul	r0, r0, r0
 2967 005a CB1A     		subs	r3, r1, r3
 2968 005c 03FB0303 		mla	r3, r3, r3, r0
 2969 0060 3B2B     		cmp	r3, #59
 2970 0062 2ADD     		ble	.L240
 2971              	.LBE77:
 2972              	.LBE76:
 2973              		.loc 1 220 0
 2974 0064 0027     		movs	r7, #0
 2975              	.LVL305:
 2976 0066 0BE0     		b	.L242
 2977              	.LVL306:
 2978              	.L244:
 2979              	.LBB79:
 2980              	.LBB78:
 2981              		.loc 1 214 0
 2982 0068 D6E90230 		ldrd	r3, r0, [r6, #8]
 2983 006c 101A     		subs	r0, r2, r0
 2984 006e 00FB00F0 		mul	r0, r0, r0
 2985 0072 CB1A     		subs	r3, r1, r3
 2986 0074 03FB0303 		mla	r3, r3, r3, r0
 2987 0078 3B2B     		cmp	r3, #59
 2988 007a 06F10806 		add	r6, r6, #8
 2989              	.LVL307:
 2990 007e 1CDD     		ble	.L240
 2991              	.LVL308:
 2992              	.L242:
 2993              	.LBE78:
 2994              	.LBE79:
 2995              		.loc 1 220 0
 2996 0080 0137     		adds	r7, r7, #1
 2997              	.LVL309:
 2998 0082 6745     		cmp	r7, ip
 2999 0084 F0D1     		bne	.L244
 3000              	.LVL310:
 3001              	.L241:
 3002              	.LBE75:
 3003              	.LBE74:
 3004              		.loc 1 528 0
 3005 0086 1D48     		ldr	r0, .L254+16
 3006 0088 4368     		ldr	r3, [r0, #4]
 3007 008a DB00     		lsls	r3, r3, #3
 3008 008c 0C33     		adds	r3, r3, #12
 3009 008e C618     		adds	r6, r0, r3
 3010 0090 C150     		str	r1, [r0, r3]
 3011              	.LVL311:
 3012 0092 7260     		str	r2, [r6, #4]
 3013              		.loc 1 529 0
 3014 0094 4368     		ldr	r3, [r0, #4]
 3015 0096 0133     		adds	r3, r3, #1
 3016 0098 4360     		str	r3, [r0, #4]
 3017 009a 0BE0     		b	.L247
 3018              	.LVL312:
 3019              	.L239:
 3020              		.loc 1 518 0
 3021 009c FB68     		ldr	r3, [r7, #12]
ARM GAS  /var/folders/qd/4mxf5pkd0zdf0b9dd1hp39180000gn/T//ccsf5yWP.s 			page 54


 3022 009e 1848     		ldr	r0, .L254+20
 3023 00a0 2133     		adds	r3, r3, #33
 3024              		.loc 1 533 0
 3025 00a2 B3F5967F 		cmp	r3, #300
 3026 00a6 16DC     		bgt	.L245
 3027              		.loc 1 533 0 is_stmt 0 discriminator 1
 3028 00a8 0668     		ldr	r6, [r0]
 3029 00aa 06F11307 		add	r7, r6, #19
 3030              	.LVL313:
 3031 00ae 9F42     		cmp	r7, r3
 3032 00b0 0EDA     		bge	.L252
 3033              	.L246:
 3034              		.loc 1 537 0 is_stmt 1
 3035 00b2 0360     		str	r3, [r0]
 3036              	.LVL314:
 3037              	.L247:
 3038              		.loc 1 539 0
 3039 00b4 C4E90012 		strd	r1, r2, [r4]
 3040              	.LVL315:
 3041 00b8 03E0     		b	.L238
 3042              	.LVL316:
 3043              	.L240:
 3044              		.loc 1 522 0
 3045 00ba 4FF0FF33 		mov	r3, #-1
 3046 00be C4E90033 		strd	r3, r3, [r4]
 3047              	.LVL317:
 3048              	.L238:
 3049              		.loc 1 540 0
 3050 00c2 039A     		ldr	r2, [sp, #12]
 3051 00c4 2B68     		ldr	r3, [r5]
 3052 00c6 9A42     		cmp	r2, r3
 3053 00c8 2046     		mov	r0, r4
 3054 00ca 0CD1     		bne	.L253
 3055              	.LVL318:
 3056 00cc 05B0     		add	sp, sp, #20
 3057              		.cfi_remember_state
 3058              		.cfi_def_cfa_offset 20
 3059              		@ sp needed
 3060 00ce F0BD     		pop	{r4, r5, r6, r7, pc}
 3061              	.LVL319:
 3062              	.L252:
 3063              		.cfi_restore_state
 3064              		.loc 1 533 0 discriminator 2
 3065 00d0 133E     		subs	r6, r6, #19
 3066 00d2 9E42     		cmp	r6, r3
 3067 00d4 EDDC     		bgt	.L246
 3068              	.L245:
 3069              		.loc 1 534 0
 3070 00d6 4FF47A72 		mov	r2, #1000
 3071              	.LVL320:
 3072              		.loc 1 535 0
 3073 00da 4FF0FF33 		mov	r3, #-1
 3074              		.loc 1 534 0
 3075 00de 0260     		str	r2, [r0]
 3076              		.loc 1 535 0
 3077 00e0 C4E90033 		strd	r3, r3, [r4]
 3078 00e4 EDE7     		b	.L238
ARM GAS  /var/folders/qd/4mxf5pkd0zdf0b9dd1hp39180000gn/T//ccsf5yWP.s 			page 55


 3079              	.LVL321:
 3080              	.L253:
 3081              		.loc 1 540 0
 3082 00e6 FFF7FEFF 		bl	__stack_chk_fail
 3083              	.LVL322:
 3084              	.L255:
 3085 00ea 00BF     		.align	2
 3086              	.L254:
 3087 00ec 00000000 		.word	__stack_chk_guard
 3088 00f0 00000000 		.word	.LANCHOR3
 3089 00f4 00000000 		.word	.LANCHOR1
 3090 00f8 00000000 		.word	.LANCHOR2
 3091 00fc 00000000 		.word	.LANCHOR4
 3092 0100 00000000 		.word	.LANCHOR5
 3093              		.cfi_endproc
 3094              	.LFE278:
 3095              		.size	mod_mapping_checkEnvironmentRobotReferencial, .-mod_mapping_checkEnvironmentRobotReferencial
 3096              		.section	.text.mod_mapping_computeDistanceForPictureRobotReferencial,"ax",%progbits
 3097              		.align	1
 3098              		.p2align 4,,15
 3099              		.global	mod_mapping_computeDistanceForPictureRobotReferencial
 3100              		.syntax unified
 3101              		.thumb
 3102              		.thumb_func
 3103              		.fpu fpv4-sp-d16
 3104              		.type	mod_mapping_computeDistanceForPictureRobotReferencial, %function
 3105              	mod_mapping_computeDistanceForPictureRobotReferencial:
 3106              	.LFB279:
 3107              		.loc 1 542 0
 3108              		.cfi_startproc
 3109              		@ args = 0, pretend = 0, frame = 8
 3110              		@ frame_needed = 0, uses_anonymous_args = 0
 3111              	.LVL323:
 3112 0000 00B5     		push	{lr}
 3113              		.cfi_def_cfa_offset 4
 3114              		.cfi_offset 14, -4
 3115 0002 074B     		ldr	r3, .L260
 3116              		.loc 1 543 0
 3117 0004 C068     		ldr	r0, [r0, #12]
 3118              	.LVL324:
 3119              		.loc 1 542 0
 3120 0006 1A68     		ldr	r2, [r3]
 3121 0008 83B0     		sub	sp, sp, #12
 3122              		.cfi_def_cfa_offset 16
 3123              		.loc 1 542 0
 3124 000a 0192     		str	r2, [sp, #4]
 3125              		.loc 1 545 0
 3126 000c 019A     		ldr	r2, [sp, #4]
 3127 000e 1B68     		ldr	r3, [r3]
 3128 0010 9A42     		cmp	r2, r3
 3129 0012 03D1     		bne	.L259
 3130 0014 6438     		subs	r0, r0, #100
 3131 0016 03B0     		add	sp, sp, #12
 3132              		.cfi_remember_state
 3133              		.cfi_def_cfa_offset 4
 3134              		@ sp needed
 3135 0018 5DF804FB 		ldr	pc, [sp], #4
ARM GAS  /var/folders/qd/4mxf5pkd0zdf0b9dd1hp39180000gn/T//ccsf5yWP.s 			page 56


 3136              	.L259:
 3137              		.cfi_restore_state
 3138 001c FFF7FEFF 		bl	__stack_chk_fail
 3139              	.LVL325:
 3140              	.L261:
 3141              		.align	2
 3142              	.L260:
 3143 0020 00000000 		.word	__stack_chk_guard
 3144              		.cfi_endproc
 3145              	.LFE279:
 3146              		.size	mod_mapping_computeDistanceForPictureRobotReferencial, .-mod_mapping_computeDistanceForPictu
 3147              		.global	objectListSize
 3148              		.global	objectList
 3149              		.global	environment
 3150              		.global	wall
 3151              		.section	.bss.environment,"aw",%nobits
 3152              		.align	2
 3153              		.set	.LANCHOR4,. + 0
 3154              		.type	environment, %object
 3155              		.size	environment, 60
 3156              	environment:
 3157 0000 00000000 		.space	60
 3157      00000000 
 3157      00000000 
 3157      00000000 
 3157      00000000 
 3158              		.section	.bss.objectList,"aw",%nobits
 3159              		.align	2
 3160              		.set	.LANCHOR2,. + 0
 3161              		.type	objectList, %object
 3162              		.size	objectList, 4
 3163              	objectList:
 3164 0000 00000000 		.space	4
 3165              		.section	.bss.objectListSize,"aw",%nobits
 3166              		.align	2
 3167              		.set	.LANCHOR1,. + 0
 3168              		.type	objectListSize, %object
 3169              		.size	objectListSize, 4
 3170              	objectListSize:
 3171 0000 00000000 		.space	4
 3172              		.section	.bss.robotActualPosition,"aw",%nobits
 3173              		.align	2
 3174              		.set	.LANCHOR0,. + 0
 3175              		.type	robotActualPosition, %object
 3176              		.size	robotActualPosition, 12
 3177              	robotActualPosition:
 3178 0000 00000000 		.space	12
 3178      00000000 
 3178      00000000 
 3179              		.section	.bss.wall,"aw",%nobits
 3180              		.align	2
 3181              		.set	.LANCHOR3,. + 0
 3182              		.type	wall, %object
 3183              		.size	wall, 16
 3184              	wall:
 3185 0000 00000000 		.space	16
 3185      00000000 
ARM GAS  /var/folders/qd/4mxf5pkd0zdf0b9dd1hp39180000gn/T//ccsf5yWP.s 			page 57


 3185      00000000 
 3185      00000000 
 3186              		.section	.data.lastStepObjectDistance.12068,"aw",%progbits
 3187              		.align	2
 3188              		.set	.LANCHOR5,. + 0
 3189              		.type	lastStepObjectDistance.12068, %object
 3190              		.size	lastStepObjectDistance.12068, 4
 3191              	lastStepObjectDistance.12068:
 3192 0000 E8030000 		.word	1000
 3193              		.section	.rodata.computeCoefDirecteur.str1.4,"aMS",%progbits,1
 3194              		.align	2
 3195              	.LC3:
 3196 0000 6D3A2025 		.ascii	"m: %d / %d nb %d\000"
 3196      64202F20 
 3196      2564206E 
 3196      62202564 
 3196      00
 3197              		.section	.rodata.measurementToPoint.str1.4,"aMS",%progbits,1
 3198              		.align	2
 3199              	.LC1:
 3200 0000 4E657720 		.ascii	"New point computed : %d, %d\000"
 3200      706F696E 
 3200      7420636F 
 3200      6D707574 
 3200      6564203A 
 3201              		.section	.rodata.mod_mapping_checkEnvironment.str1.4,"aMS",%progbits,1
 3202              		.align	2
 3203              	.LC8:
 3204 0000 4E657720 		.ascii	"New object found: %d, %d\000"
 3204      6F626A65 
 3204      63742066 
 3204      6F756E64 
 3204      3A202564 
 3205              		.section	.rodata.mod_mapping_computeDistanceForPicture.str1.4,"aMS",%progbits,1
 3206              		.align	2
 3207              	.LC9:
 3208 0000 546F2064 		.ascii	"To do2: %d, %f\000"
 3208      6F323A20 
 3208      25642C20 
 3208      256600
 3209              		.section	.rodata.mod_mapping_computeWallLocation.str1.4,"aMS",%progbits,1
 3210              		.align	2
 3211              	.LC5:
 3212 0000 57616C6C 		.ascii	"Wall location: %d, %d, %d, %d\000"
 3212      206C6F63 
 3212      6174696F 
 3212      6E3A2025 
 3212      642C2025 
 3213              		.section	.rodata.mod_mapping_getRobotDisplacement.str1.4,"aMS",%progbits,1
 3214              		.align	2
 3215              	.LC6:
 3216 0000 64656C74 		.ascii	"deltaX: %d, deltaY; %d angle: %f\000"
 3216      61583A20 
 3216      25642C20 
 3216      64656C74 
 3216      61593B20 
 3217 0021 000000   		.space	3
ARM GAS  /var/folders/qd/4mxf5pkd0zdf0b9dd1hp39180000gn/T//ccsf5yWP.s 			page 58


 3218              	.LC7:
 3219 0024 546F2064 		.ascii	"To do: %d, %f\000"
 3219      6F3A2025 
 3219      642C2025 
 3219      6600
 3220              		.section	.rodata.mod_mapping_updatePositionWheelSpeedType.str1.4,"aMS",%progbits,1
 3221              		.align	2
 3222              	.LC4:
 3223 0000 4E657720 		.ascii	"New position: %d, %d, %f\000"
 3223      706F7369 
 3223      74696F6E 
 3223      3A202564 
 3223      2C202564 
 3224              		.section	.rodata.moveOrigin.str1.4,"aMS",%progbits,1
 3225              		.align	2
 3226              	.LC2:
 3227 0000 4E657720 		.ascii	"New origin: %d, %d, %f\000"
 3227      6F726967 
 3227      696E3A20 
 3227      25642C20 
 3227      25642C20 
 3228              		.text
 3229              	.Letext0:
 3230              		.file 2 "/Applications/Eclipse_e-puck2.app/Contents/Eclipse_e-puck2/Tools/gcc-arm-none-eabi-7-2017
 3231              		.file 3 "/Applications/Eclipse_e-puck2.app/Contents/Eclipse_e-puck2/Tools/gcc-arm-none-eabi-7-2017
 3232              		.file 4 "/Applications/Eclipse_e-puck2.app/Contents/Eclipse_e-puck2/Tools/gcc-arm-none-eabi-7-2017
 3233              		.file 5 "/Applications/Eclipse_e-puck2.app/Contents/Eclipse_e-puck2/Tools/gcc-arm-none-eabi-7-2017
 3234              		.file 6 "/Applications/Eclipse_e-puck2.app/Contents/Eclipse_e-puck2/Tools/gcc-arm-none-eabi-7-2017
 3235              		.file 7 "/Applications/Eclipse_e-puck2.app/Contents/Eclipse_e-puck2/Tools/gcc-arm-none-eabi-7-2017
 3236              		.file 8 "modules/headers/structs.h"
 3237              		.file 9 "modules/headers/mod_mapping.h"
 3238              		.file 10 "/Applications/Eclipse_e-puck2.app/Contents/Eclipse_e-puck2/Tools/gcc-arm-none-eabi-7-201
 3239              		.file 11 "lib/e-puck2_main-processor/ChibiOS//os/rt/ports/ARMCMx/compilers/GCC/chtypes.h"
 3240              		.file 12 "lib/e-puck2_main-processor/ChibiOS//os/rt/include/chsystypes.h"
 3241              		.file 13 "lib/e-puck2_main-processor/ChibiOS//os/rt/include/chschd.h"
 3242              		.file 14 "lib/e-puck2_main-processor/ChibiOS//os/ext/CMSIS/include/core_cm4.h"
 3243              		.file 15 "lib/e-puck2_main-processor/ChibiOS//os/ext/CMSIS/ST/system_stm32f4xx.h"
 3244              		.file 16 "lib/e-puck2_main-processor/ChibiOS//os/ext/CMSIS/ST/stm32f407xx.h"
 3245              		.file 17 "lib/e-puck2_main-processor/ChibiOS//os/rt/ports/ARMCMx/chcore.h"
 3246              		.file 18 "lib/e-puck2_main-processor/ChibiOS//os/rt/ports/ARMCMx/chcore_v7m.h"
 3247              		.file 19 "lib/e-puck2_main-processor/ChibiOS//os/rt/include/chdebug.h"
 3248              		.file 20 "lib/e-puck2_main-processor/ChibiOS//os/rt/include/chtm.h"
 3249              		.file 21 "lib/e-puck2_main-processor/ChibiOS//os/rt/include/chstats.h"
 3250              		.file 22 "lib/e-puck2_main-processor/ChibiOS//os/rt/include/chsem.h"
 3251              		.file 23 "lib/e-puck2_main-processor/ChibiOS//os/rt/include/chmtx.h"
 3252              		.file 24 "lib/e-puck2_main-processor/ChibiOS//os/rt/include/chregistry.h"
 3253              		.file 25 "lib/e-puck2_main-processor/ChibiOS//os/rt/include/chevents.h"
 3254              		.file 26 "lib/e-puck2_main-processor/ChibiOS//os/rt/include/chqueues.h"
 3255              		.file 27 "lib/e-puck2_main-processor/ChibiOS//os/hal/ports/STM32/STM32F4xx/stm32_dma.h"
 3256              		.file 28 "lib/e-puck2_main-processor/ChibiOS//os/hal/include/hal_ioblock.h"
 3257              		.file 29 "lib/e-puck2_main-processor/ChibiOS//os/hal/ports/STM32/LLD/GPIOv2/pal_lld.h"
 3258              		.file 30 "lib/e-puck2_main-processor/ChibiOS//os/hal/include/adc.h"
 3259              		.file 31 "lib/e-puck2_main-processor/ChibiOS//os/hal/ports/STM32/STM32F4xx/adc_lld.h"
 3260              		.file 32 "lib/e-puck2_main-processor/ChibiOS//os/hal/include/can.h"
 3261              		.file 33 "lib/e-puck2_main-processor/ChibiOS//os/hal/ports/STM32/LLD/can_lld.h"
 3262              		.file 34 "lib/e-puck2_main-processor/ChibiOS//os/hal/include/dac.h"
 3263              		.file 35 "lib/e-puck2_main-processor/ChibiOS//os/hal/ports/STM32/LLD/DACv1/dac_lld.h"
ARM GAS  /var/folders/qd/4mxf5pkd0zdf0b9dd1hp39180000gn/T//ccsf5yWP.s 			page 59


 3264              		.file 36 "lib/e-puck2_main-processor/ChibiOS//os/hal/include/ext.h"
 3265              		.file 37 "lib/e-puck2_main-processor/ChibiOS//os/hal/ports/STM32/LLD/ext_lld.h"
 3266              		.file 38 "lib/e-puck2_main-processor/ChibiOS//os/hal/include/gpt.h"
 3267              		.file 39 "lib/e-puck2_main-processor/ChibiOS//os/hal/ports/STM32/LLD/TIMv1/gpt_lld.h"
 3268              		.file 40 "lib/e-puck2_main-processor/ChibiOS//os/hal/ports/STM32/LLD/TIMv1/stm32_tim.h"
 3269              		.file 41 "lib/e-puck2_main-processor/ChibiOS//os/hal/include/i2c.h"
 3270              		.file 42 "lib/e-puck2_main-processor/ChibiOS//os/hal/ports/STM32/LLD/I2Cv1/i2c_lld.h"
 3271              		.file 43 "lib/e-puck2_main-processor/ChibiOS//os/hal/include/i2s.h"
 3272              		.file 44 "lib/e-puck2_main-processor/ChibiOS//os/hal/ports/STM32/LLD/SPIv1/i2s_lld.h"
 3273              		.file 45 "lib/e-puck2_main-processor/ChibiOS//os/hal/include/pwm.h"
 3274              		.file 46 "lib/e-puck2_main-processor/ChibiOS//os/hal/ports/STM32/LLD/TIMv1/pwm_lld.h"
 3275              		.file 47 "lib/e-puck2_main-processor/ChibiOS//os/hal/include/serial.h"
 3276              		.file 48 "lib/e-puck2_main-processor/ChibiOS//os/hal/ports/STM32/LLD/USARTv1/serial_lld.h"
 3277              		.file 49 "lib/e-puck2_main-processor/ChibiOS//os/hal/include/sdc.h"
 3278              		.file 50 "lib/e-puck2_main-processor/ChibiOS//os/hal/ports/STM32/LLD/sdc_lld.h"
 3279              		.file 51 "lib/e-puck2_main-processor/ChibiOS//os/hal/include/spi.h"
 3280              		.file 52 "lib/e-puck2_main-processor/ChibiOS//os/hal/ports/STM32/LLD/SPIv1/spi_lld.h"
 3281              		.file 53 "lib/e-puck2_main-processor/ChibiOS//os/hal/include/usb.h"
 3282              		.file 54 "lib/e-puck2_main-processor/ChibiOS//os/hal/ports/STM32/LLD/OTGv1/usb_lld.h"
 3283              		.file 55 "lib/e-puck2_main-processor/ChibiOS//os/hal/ports/STM32/LLD/OTGv1/stm32_otg.h"
 3284              		.file 56 "/Applications/Eclipse_e-puck2.app/Contents/Eclipse_e-puck2/Tools/gcc-arm-none-eabi-7-201
 3285              		.file 57 "/Applications/Eclipse_e-puck2.app/Contents/Eclipse_e-puck2/Tools/gcc-arm-none-eabi-7-201
 3286              		.file 58 "modules/headers/mod_communication.h"
 3287              		.file 59 "modules/headers/mod_check.h"
 3288              		.section	.debug_info,"",%progbits
 3289              	.Ldebug_info0:
 3290 0000 9D4E0000 		.4byte	0x4e9d
 3291 0004 0400     		.2byte	0x4
 3292 0006 00000000 		.4byte	.Ldebug_abbrev0
 3293 000a 04       		.byte	0x4
 3294 000b 01       		.uleb128 0x1
 3295 000c 960F0000 		.4byte	.LASF917
 3296 0010 0C       		.byte	0xc
 3297 0011 B51C0000 		.4byte	.LASF918
 3298 0015 9D0B0000 		.4byte	.LASF919
 3299 0019 28010000 		.4byte	.Ldebug_ranges0+0x128
 3300 001d 00000000 		.4byte	0
 3301 0021 00000000 		.4byte	.Ldebug_line0
 3302 0025 02       		.uleb128 0x2
 3303 0026 08       		.byte	0x8
 3304 0027 04       		.byte	0x4
 3305 0028 FE1D0000 		.4byte	.LASF0
 3306 002c 02       		.uleb128 0x2
 3307 002d 04       		.byte	0x4
 3308 002e 04       		.byte	0x4
 3309 002f E3090000 		.4byte	.LASF1
 3310 0033 03       		.uleb128 0x3
 3311 0034 04       		.byte	0x4
 3312 0035 05       		.byte	0x5
 3313 0036 696E7400 		.ascii	"int\000"
 3314 003a 04       		.uleb128 0x4
 3315 003b 7E0D0000 		.4byte	.LASF6
 3316 003f 02       		.byte	0x2
 3317 0040 D8       		.byte	0xd8
 3318 0041 45000000 		.4byte	0x45
 3319 0045 02       		.uleb128 0x2
 3320 0046 04       		.byte	0x4
ARM GAS  /var/folders/qd/4mxf5pkd0zdf0b9dd1hp39180000gn/T//ccsf5yWP.s 			page 60


 3321 0047 07       		.byte	0x7
 3322 0048 31250000 		.4byte	.LASF2
 3323 004c 02       		.uleb128 0x2
 3324 004d 08       		.byte	0x8
 3325 004e 05       		.byte	0x5
 3326 004f 51230000 		.4byte	.LASF3
 3327 0053 02       		.uleb128 0x2
 3328 0054 08       		.byte	0x8
 3329 0055 04       		.byte	0x4
 3330 0056 F7190000 		.4byte	.LASF4
 3331 005a 02       		.uleb128 0x2
 3332 005b 01       		.byte	0x1
 3333 005c 06       		.byte	0x6
 3334 005d 02160000 		.4byte	.LASF5
 3335 0061 04       		.uleb128 0x4
 3336 0062 D1000000 		.4byte	.LASF7
 3337 0066 03       		.byte	0x3
 3338 0067 2B       		.byte	0x2b
 3339 0068 6C000000 		.4byte	0x6c
 3340 006c 02       		.uleb128 0x2
 3341 006d 01       		.byte	0x1
 3342 006e 08       		.byte	0x8
 3343 006f 4E090000 		.4byte	.LASF8
 3344 0073 04       		.uleb128 0x4
 3345 0074 93070000 		.4byte	.LASF9
 3346 0078 03       		.byte	0x3
 3347 0079 37       		.byte	0x37
 3348 007a 7E000000 		.4byte	0x7e
 3349 007e 02       		.uleb128 0x2
 3350 007f 02       		.byte	0x2
 3351 0080 05       		.byte	0x5
 3352 0081 A3250000 		.4byte	.LASF10
 3353 0085 04       		.uleb128 0x4
 3354 0086 9D070000 		.4byte	.LASF11
 3355 008a 03       		.byte	0x3
 3356 008b 39       		.byte	0x39
 3357 008c 90000000 		.4byte	0x90
 3358 0090 02       		.uleb128 0x2
 3359 0091 02       		.byte	0x2
 3360 0092 07       		.byte	0x7
 3361 0093 E7150000 		.4byte	.LASF12
 3362 0097 04       		.uleb128 0x4
 3363 0098 6C1E0000 		.4byte	.LASF13
 3364 009c 03       		.byte	0x3
 3365 009d 4D       		.byte	0x4d
 3366 009e A2000000 		.4byte	0xa2
 3367 00a2 02       		.uleb128 0x2
 3368 00a3 04       		.byte	0x4
 3369 00a4 05       		.byte	0x5
 3370 00a5 B8180000 		.4byte	.LASF14
 3371 00a9 04       		.uleb128 0x4
 3372 00aa 761E0000 		.4byte	.LASF15
 3373 00ae 03       		.byte	0x3
 3374 00af 4F       		.byte	0x4f
 3375 00b0 B4000000 		.4byte	0xb4
 3376 00b4 02       		.uleb128 0x2
 3377 00b5 04       		.byte	0x4
ARM GAS  /var/folders/qd/4mxf5pkd0zdf0b9dd1hp39180000gn/T//ccsf5yWP.s 			page 61


 3378 00b6 07       		.byte	0x7
 3379 00b7 491A0000 		.4byte	.LASF16
 3380 00bb 04       		.uleb128 0x4
 3381 00bc CA110000 		.4byte	.LASF17
 3382 00c0 03       		.byte	0x3
 3383 00c1 69       		.byte	0x69
 3384 00c2 C6000000 		.4byte	0xc6
 3385 00c6 02       		.uleb128 0x2
 3386 00c7 08       		.byte	0x8
 3387 00c8 07       		.byte	0x7
 3388 00c9 70200000 		.4byte	.LASF18
 3389 00cd 04       		.uleb128 0x4
 3390 00ce 72070000 		.4byte	.LASF19
 3391 00d2 04       		.byte	0x4
 3392 00d3 22       		.byte	0x22
 3393 00d4 D8000000 		.4byte	0xd8
 3394 00d8 05       		.uleb128 0x5
 3395 00d9 04       		.byte	0x4
 3396 00da DE000000 		.4byte	0xde
 3397 00de 06       		.uleb128 0x6
 3398 00df CB050000 		.4byte	.LASF126
 3399 00e3 04       		.uleb128 0x4
 3400 00e4 350D0000 		.4byte	.LASF20
 3401 00e8 05       		.byte	0x5
 3402 00e9 2C       		.byte	0x2c
 3403 00ea A2000000 		.4byte	0xa2
 3404 00ee 04       		.uleb128 0x4
 3405 00ef AF1D0000 		.4byte	.LASF21
 3406 00f3 05       		.byte	0x5
 3407 00f4 72       		.byte	0x72
 3408 00f5 A2000000 		.4byte	0xa2
 3409 00f9 07       		.uleb128 0x7
 3410 00fa 250F0000 		.4byte	.LASF22
 3411 00fe 02       		.byte	0x2
 3412 00ff 6501     		.2byte	0x165
 3413 0101 45000000 		.4byte	0x45
 3414 0105 08       		.uleb128 0x8
 3415 0106 04       		.byte	0x4
 3416 0107 05       		.byte	0x5
 3417 0108 A6       		.byte	0xa6
 3418 0109 24010000 		.4byte	0x124
 3419 010d 09       		.uleb128 0x9
 3420 010e 20180000 		.4byte	.LASF23
 3421 0112 05       		.byte	0x5
 3422 0113 A8       		.byte	0xa8
 3423 0114 F9000000 		.4byte	0xf9
 3424 0118 09       		.uleb128 0x9
 3425 0119 D30E0000 		.4byte	.LASF24
 3426 011d 05       		.byte	0x5
 3427 011e A9       		.byte	0xa9
 3428 011f 24010000 		.4byte	0x124
 3429 0123 00       		.byte	0
 3430 0124 0A       		.uleb128 0xa
 3431 0125 6C000000 		.4byte	0x6c
 3432 0129 34010000 		.4byte	0x134
 3433 012d 0B       		.uleb128 0xb
 3434 012e 45000000 		.4byte	0x45
ARM GAS  /var/folders/qd/4mxf5pkd0zdf0b9dd1hp39180000gn/T//ccsf5yWP.s 			page 62


 3435 0132 03       		.byte	0x3
 3436 0133 00       		.byte	0
 3437 0134 0C       		.uleb128 0xc
 3438 0135 08       		.byte	0x8
 3439 0136 05       		.byte	0x5
 3440 0137 A3       		.byte	0xa3
 3441 0138 55010000 		.4byte	0x155
 3442 013c 0D       		.uleb128 0xd
 3443 013d 9D0D0000 		.4byte	.LASF25
 3444 0141 05       		.byte	0x5
 3445 0142 A5       		.byte	0xa5
 3446 0143 33000000 		.4byte	0x33
 3447 0147 00       		.byte	0
 3448 0148 0D       		.uleb128 0xd
 3449 0149 AE1E0000 		.4byte	.LASF26
 3450 014d 05       		.byte	0x5
 3451 014e AA       		.byte	0xaa
 3452 014f 05010000 		.4byte	0x105
 3453 0153 04       		.byte	0x4
 3454 0154 00       		.byte	0
 3455 0155 04       		.uleb128 0x4
 3456 0156 271E0000 		.4byte	.LASF27
 3457 015a 05       		.byte	0x5
 3458 015b AB       		.byte	0xab
 3459 015c 34010000 		.4byte	0x134
 3460 0160 04       		.uleb128 0x4
 3461 0161 AE220000 		.4byte	.LASF28
 3462 0165 05       		.byte	0x5
 3463 0166 AF       		.byte	0xaf
 3464 0167 CD000000 		.4byte	0xcd
 3465 016b 0E       		.uleb128 0xe
 3466 016c 04       		.byte	0x4
 3467 016d 05       		.uleb128 0x5
 3468 016e 04       		.byte	0x4
 3469 016f 73010000 		.4byte	0x173
 3470 0173 02       		.uleb128 0x2
 3471 0174 01       		.byte	0x1
 3472 0175 08       		.byte	0x8
 3473 0176 E41A0000 		.4byte	.LASF29
 3474 017a 0F       		.uleb128 0xf
 3475 017b 73010000 		.4byte	0x173
 3476 017f 04       		.uleb128 0x4
 3477 0180 97140000 		.4byte	.LASF30
 3478 0184 06       		.byte	0x6
 3479 0185 16       		.byte	0x16
 3480 0186 B4000000 		.4byte	0xb4
 3481 018a 10       		.uleb128 0x10
 3482 018b 6D1B0000 		.4byte	.LASF35
 3483 018f 18       		.byte	0x18
 3484 0190 06       		.byte	0x6
 3485 0191 2F       		.byte	0x2f
 3486 0192 DD010000 		.4byte	0x1dd
 3487 0196 0D       		.uleb128 0xd
 3488 0197 D5110000 		.4byte	.LASF31
 3489 019b 06       		.byte	0x6
 3490 019c 31       		.byte	0x31
 3491 019d DD010000 		.4byte	0x1dd
ARM GAS  /var/folders/qd/4mxf5pkd0zdf0b9dd1hp39180000gn/T//ccsf5yWP.s 			page 63


 3492 01a1 00       		.byte	0
 3493 01a2 11       		.uleb128 0x11
 3494 01a3 5F6B00   		.ascii	"_k\000"
 3495 01a6 06       		.byte	0x6
 3496 01a7 32       		.byte	0x32
 3497 01a8 33000000 		.4byte	0x33
 3498 01ac 04       		.byte	0x4
 3499 01ad 0D       		.uleb128 0xd
 3500 01ae CB190000 		.4byte	.LASF32
 3501 01b2 06       		.byte	0x6
 3502 01b3 32       		.byte	0x32
 3503 01b4 33000000 		.4byte	0x33
 3504 01b8 08       		.byte	0x8
 3505 01b9 0D       		.uleb128 0xd
 3506 01ba D4240000 		.4byte	.LASF33
 3507 01be 06       		.byte	0x6
 3508 01bf 32       		.byte	0x32
 3509 01c0 33000000 		.4byte	0x33
 3510 01c4 0C       		.byte	0xc
 3511 01c5 0D       		.uleb128 0xd
 3512 01c6 DE090000 		.4byte	.LASF34
 3513 01ca 06       		.byte	0x6
 3514 01cb 32       		.byte	0x32
 3515 01cc 33000000 		.4byte	0x33
 3516 01d0 10       		.byte	0x10
 3517 01d1 11       		.uleb128 0x11
 3518 01d2 5F7800   		.ascii	"_x\000"
 3519 01d5 06       		.byte	0x6
 3520 01d6 33       		.byte	0x33
 3521 01d7 E3010000 		.4byte	0x1e3
 3522 01db 14       		.byte	0x14
 3523 01dc 00       		.byte	0
 3524 01dd 05       		.uleb128 0x5
 3525 01de 04       		.byte	0x4
 3526 01df 8A010000 		.4byte	0x18a
 3527 01e3 0A       		.uleb128 0xa
 3528 01e4 7F010000 		.4byte	0x17f
 3529 01e8 F3010000 		.4byte	0x1f3
 3530 01ec 0B       		.uleb128 0xb
 3531 01ed 45000000 		.4byte	0x45
 3532 01f1 00       		.byte	0
 3533 01f2 00       		.byte	0
 3534 01f3 10       		.uleb128 0x10
 3535 01f4 CB060000 		.4byte	.LASF36
 3536 01f8 24       		.byte	0x24
 3537 01f9 06       		.byte	0x6
 3538 01fa 37       		.byte	0x37
 3539 01fb 6C020000 		.4byte	0x26c
 3540 01ff 0D       		.uleb128 0xd
 3541 0200 14130000 		.4byte	.LASF37
 3542 0204 06       		.byte	0x6
 3543 0205 39       		.byte	0x39
 3544 0206 33000000 		.4byte	0x33
 3545 020a 00       		.byte	0
 3546 020b 0D       		.uleb128 0xd
 3547 020c E3240000 		.4byte	.LASF38
 3548 0210 06       		.byte	0x6
ARM GAS  /var/folders/qd/4mxf5pkd0zdf0b9dd1hp39180000gn/T//ccsf5yWP.s 			page 64


 3549 0211 3A       		.byte	0x3a
 3550 0212 33000000 		.4byte	0x33
 3551 0216 04       		.byte	0x4
 3552 0217 0D       		.uleb128 0xd
 3553 0218 F40E0000 		.4byte	.LASF39
 3554 021c 06       		.byte	0x6
 3555 021d 3B       		.byte	0x3b
 3556 021e 33000000 		.4byte	0x33
 3557 0222 08       		.byte	0x8
 3558 0223 0D       		.uleb128 0xd
 3559 0224 18110000 		.4byte	.LASF40
 3560 0228 06       		.byte	0x6
 3561 0229 3C       		.byte	0x3c
 3562 022a 33000000 		.4byte	0x33
 3563 022e 0C       		.byte	0xc
 3564 022f 0D       		.uleb128 0xd
 3565 0230 81010000 		.4byte	.LASF41
 3566 0234 06       		.byte	0x6
 3567 0235 3D       		.byte	0x3d
 3568 0236 33000000 		.4byte	0x33
 3569 023a 10       		.byte	0x10
 3570 023b 0D       		.uleb128 0xd
 3571 023c 0C0B0000 		.4byte	.LASF42
 3572 0240 06       		.byte	0x6
 3573 0241 3E       		.byte	0x3e
 3574 0242 33000000 		.4byte	0x33
 3575 0246 14       		.byte	0x14
 3576 0247 0D       		.uleb128 0xd
 3577 0248 BF080000 		.4byte	.LASF43
 3578 024c 06       		.byte	0x6
 3579 024d 3F       		.byte	0x3f
 3580 024e 33000000 		.4byte	0x33
 3581 0252 18       		.byte	0x18
 3582 0253 0D       		.uleb128 0xd
 3583 0254 2D070000 		.4byte	.LASF44
 3584 0258 06       		.byte	0x6
 3585 0259 40       		.byte	0x40
 3586 025a 33000000 		.4byte	0x33
 3587 025e 1C       		.byte	0x1c
 3588 025f 0D       		.uleb128 0xd
 3589 0260 C9080000 		.4byte	.LASF45
 3590 0264 06       		.byte	0x6
 3591 0265 41       		.byte	0x41
 3592 0266 33000000 		.4byte	0x33
 3593 026a 20       		.byte	0x20
 3594 026b 00       		.byte	0
 3595 026c 12       		.uleb128 0x12
 3596 026d 62130000 		.4byte	.LASF46
 3597 0271 0801     		.2byte	0x108
 3598 0273 06       		.byte	0x6
 3599 0274 4A       		.byte	0x4a
 3600 0275 AC020000 		.4byte	0x2ac
 3601 0279 0D       		.uleb128 0xd
 3602 027a 46110000 		.4byte	.LASF47
 3603 027e 06       		.byte	0x6
 3604 027f 4B       		.byte	0x4b
 3605 0280 AC020000 		.4byte	0x2ac
ARM GAS  /var/folders/qd/4mxf5pkd0zdf0b9dd1hp39180000gn/T//ccsf5yWP.s 			page 65


 3606 0284 00       		.byte	0
 3607 0285 0D       		.uleb128 0xd
 3608 0286 8B080000 		.4byte	.LASF48
 3609 028a 06       		.byte	0x6
 3610 028b 4C       		.byte	0x4c
 3611 028c AC020000 		.4byte	0x2ac
 3612 0290 80       		.byte	0x80
 3613 0291 13       		.uleb128 0x13
 3614 0292 8A010000 		.4byte	.LASF49
 3615 0296 06       		.byte	0x6
 3616 0297 4E       		.byte	0x4e
 3617 0298 7F010000 		.4byte	0x17f
 3618 029c 0001     		.2byte	0x100
 3619 029e 13       		.uleb128 0x13
 3620 029f CC1E0000 		.4byte	.LASF50
 3621 02a3 06       		.byte	0x6
 3622 02a4 51       		.byte	0x51
 3623 02a5 7F010000 		.4byte	0x17f
 3624 02a9 0401     		.2byte	0x104
 3625 02ab 00       		.byte	0
 3626 02ac 0A       		.uleb128 0xa
 3627 02ad 6B010000 		.4byte	0x16b
 3628 02b1 BC020000 		.4byte	0x2bc
 3629 02b5 0B       		.uleb128 0xb
 3630 02b6 45000000 		.4byte	0x45
 3631 02ba 1F       		.byte	0x1f
 3632 02bb 00       		.byte	0
 3633 02bc 12       		.uleb128 0x12
 3634 02bd 21010000 		.4byte	.LASF51
 3635 02c1 9001     		.2byte	0x190
 3636 02c3 06       		.byte	0x6
 3637 02c4 5D       		.byte	0x5d
 3638 02c5 FA020000 		.4byte	0x2fa
 3639 02c9 0D       		.uleb128 0xd
 3640 02ca D5110000 		.4byte	.LASF31
 3641 02ce 06       		.byte	0x6
 3642 02cf 5E       		.byte	0x5e
 3643 02d0 FA020000 		.4byte	0x2fa
 3644 02d4 00       		.byte	0
 3645 02d5 0D       		.uleb128 0xd
 3646 02d6 AC010000 		.4byte	.LASF52
 3647 02da 06       		.byte	0x6
 3648 02db 5F       		.byte	0x5f
 3649 02dc 33000000 		.4byte	0x33
 3650 02e0 04       		.byte	0x4
 3651 02e1 0D       		.uleb128 0xd
 3652 02e2 051E0000 		.4byte	.LASF53
 3653 02e6 06       		.byte	0x6
 3654 02e7 61       		.byte	0x61
 3655 02e8 00030000 		.4byte	0x300
 3656 02ec 08       		.byte	0x8
 3657 02ed 0D       		.uleb128 0xd
 3658 02ee 62130000 		.4byte	.LASF46
 3659 02f2 06       		.byte	0x6
 3660 02f3 62       		.byte	0x62
 3661 02f4 6C020000 		.4byte	0x26c
 3662 02f8 88       		.byte	0x88
ARM GAS  /var/folders/qd/4mxf5pkd0zdf0b9dd1hp39180000gn/T//ccsf5yWP.s 			page 66


 3663 02f9 00       		.byte	0
 3664 02fa 05       		.uleb128 0x5
 3665 02fb 04       		.byte	0x4
 3666 02fc BC020000 		.4byte	0x2bc
 3667 0300 0A       		.uleb128 0xa
 3668 0301 10030000 		.4byte	0x310
 3669 0305 10030000 		.4byte	0x310
 3670 0309 0B       		.uleb128 0xb
 3671 030a 45000000 		.4byte	0x45
 3672 030e 1F       		.byte	0x1f
 3673 030f 00       		.byte	0
 3674 0310 05       		.uleb128 0x5
 3675 0311 04       		.byte	0x4
 3676 0312 16030000 		.4byte	0x316
 3677 0316 14       		.uleb128 0x14
 3678 0317 10       		.uleb128 0x10
 3679 0318 4A170000 		.4byte	.LASF54
 3680 031c 08       		.byte	0x8
 3681 031d 06       		.byte	0x6
 3682 031e 75       		.byte	0x75
 3683 031f 3C030000 		.4byte	0x33c
 3684 0323 0D       		.uleb128 0xd
 3685 0324 36060000 		.4byte	.LASF55
 3686 0328 06       		.byte	0x6
 3687 0329 76       		.byte	0x76
 3688 032a 3C030000 		.4byte	0x33c
 3689 032e 00       		.byte	0
 3690 032f 0D       		.uleb128 0xd
 3691 0330 290A0000 		.4byte	.LASF56
 3692 0334 06       		.byte	0x6
 3693 0335 77       		.byte	0x77
 3694 0336 33000000 		.4byte	0x33
 3695 033a 04       		.byte	0x4
 3696 033b 00       		.byte	0
 3697 033c 05       		.uleb128 0x5
 3698 033d 04       		.byte	0x4
 3699 033e 6C000000 		.4byte	0x6c
 3700 0342 10       		.uleb128 0x10
 3701 0343 F61D0000 		.4byte	.LASF57
 3702 0347 68       		.byte	0x68
 3703 0348 06       		.byte	0x6
 3704 0349 B5       		.byte	0xb5
 3705 034a 6C040000 		.4byte	0x46c
 3706 034e 11       		.uleb128 0x11
 3707 034f 5F7000   		.ascii	"_p\000"
 3708 0352 06       		.byte	0x6
 3709 0353 B6       		.byte	0xb6
 3710 0354 3C030000 		.4byte	0x33c
 3711 0358 00       		.byte	0
 3712 0359 11       		.uleb128 0x11
 3713 035a 5F7200   		.ascii	"_r\000"
 3714 035d 06       		.byte	0x6
 3715 035e B7       		.byte	0xb7
 3716 035f 33000000 		.4byte	0x33
 3717 0363 04       		.byte	0x4
 3718 0364 11       		.uleb128 0x11
 3719 0365 5F7700   		.ascii	"_w\000"
ARM GAS  /var/folders/qd/4mxf5pkd0zdf0b9dd1hp39180000gn/T//ccsf5yWP.s 			page 67


 3720 0368 06       		.byte	0x6
 3721 0369 B8       		.byte	0xb8
 3722 036a 33000000 		.4byte	0x33
 3723 036e 08       		.byte	0x8
 3724 036f 0D       		.uleb128 0xd
 3725 0370 01020000 		.4byte	.LASF58
 3726 0374 06       		.byte	0x6
 3727 0375 B9       		.byte	0xb9
 3728 0376 7E000000 		.4byte	0x7e
 3729 037a 0C       		.byte	0xc
 3730 037b 0D       		.uleb128 0xd
 3731 037c CC1D0000 		.4byte	.LASF59
 3732 0380 06       		.byte	0x6
 3733 0381 BA       		.byte	0xba
 3734 0382 7E000000 		.4byte	0x7e
 3735 0386 0E       		.byte	0xe
 3736 0387 11       		.uleb128 0x11
 3737 0388 5F626600 		.ascii	"_bf\000"
 3738 038c 06       		.byte	0x6
 3739 038d BB       		.byte	0xbb
 3740 038e 17030000 		.4byte	0x317
 3741 0392 10       		.byte	0x10
 3742 0393 0D       		.uleb128 0xd
 3743 0394 88040000 		.4byte	.LASF60
 3744 0398 06       		.byte	0x6
 3745 0399 BC       		.byte	0xbc
 3746 039a 33000000 		.4byte	0x33
 3747 039e 18       		.byte	0x18
 3748 039f 0D       		.uleb128 0xd
 3749 03a0 26120000 		.4byte	.LASF61
 3750 03a4 06       		.byte	0x6
 3751 03a5 C3       		.byte	0xc3
 3752 03a6 6B010000 		.4byte	0x16b
 3753 03aa 1C       		.byte	0x1c
 3754 03ab 0D       		.uleb128 0xd
 3755 03ac D0250000 		.4byte	.LASF62
 3756 03b0 06       		.byte	0x6
 3757 03b1 C5       		.byte	0xc5
 3758 03b2 C7050000 		.4byte	0x5c7
 3759 03b6 20       		.byte	0x20
 3760 03b7 0D       		.uleb128 0xd
 3761 03b8 880A0000 		.4byte	.LASF63
 3762 03bc 06       		.byte	0x6
 3763 03bd C7       		.byte	0xc7
 3764 03be F6050000 		.4byte	0x5f6
 3765 03c2 24       		.byte	0x24
 3766 03c3 0D       		.uleb128 0xd
 3767 03c4 9E150000 		.4byte	.LASF64
 3768 03c8 06       		.byte	0x6
 3769 03c9 CA       		.byte	0xca
 3770 03ca 1A060000 		.4byte	0x61a
 3771 03ce 28       		.byte	0x28
 3772 03cf 0D       		.uleb128 0xd
 3773 03d0 DD1A0000 		.4byte	.LASF65
 3774 03d4 06       		.byte	0x6
 3775 03d5 CB       		.byte	0xcb
 3776 03d6 34060000 		.4byte	0x634
ARM GAS  /var/folders/qd/4mxf5pkd0zdf0b9dd1hp39180000gn/T//ccsf5yWP.s 			page 68


 3777 03da 2C       		.byte	0x2c
 3778 03db 11       		.uleb128 0x11
 3779 03dc 5F756200 		.ascii	"_ub\000"
 3780 03e0 06       		.byte	0x6
 3781 03e1 CE       		.byte	0xce
 3782 03e2 17030000 		.4byte	0x317
 3783 03e6 30       		.byte	0x30
 3784 03e7 11       		.uleb128 0x11
 3785 03e8 5F757000 		.ascii	"_up\000"
 3786 03ec 06       		.byte	0x6
 3787 03ed CF       		.byte	0xcf
 3788 03ee 3C030000 		.4byte	0x33c
 3789 03f2 38       		.byte	0x38
 3790 03f3 11       		.uleb128 0x11
 3791 03f4 5F757200 		.ascii	"_ur\000"
 3792 03f8 06       		.byte	0x6
 3793 03f9 D0       		.byte	0xd0
 3794 03fa 33000000 		.4byte	0x33
 3795 03fe 3C       		.byte	0x3c
 3796 03ff 0D       		.uleb128 0xd
 3797 0400 071D0000 		.4byte	.LASF66
 3798 0404 06       		.byte	0x6
 3799 0405 D3       		.byte	0xd3
 3800 0406 3A060000 		.4byte	0x63a
 3801 040a 40       		.byte	0x40
 3802 040b 0D       		.uleb128 0xd
 3803 040c D8020000 		.4byte	.LASF67
 3804 0410 06       		.byte	0x6
 3805 0411 D4       		.byte	0xd4
 3806 0412 4A060000 		.4byte	0x64a
 3807 0416 43       		.byte	0x43
 3808 0417 11       		.uleb128 0x11
 3809 0418 5F6C6200 		.ascii	"_lb\000"
 3810 041c 06       		.byte	0x6
 3811 041d D7       		.byte	0xd7
 3812 041e 17030000 		.4byte	0x317
 3813 0422 44       		.byte	0x44
 3814 0423 0D       		.uleb128 0xd
 3815 0424 F51C0000 		.4byte	.LASF68
 3816 0428 06       		.byte	0x6
 3817 0429 DA       		.byte	0xda
 3818 042a 33000000 		.4byte	0x33
 3819 042e 4C       		.byte	0x4c
 3820 042f 0D       		.uleb128 0xd
 3821 0430 EE160000 		.4byte	.LASF69
 3822 0434 06       		.byte	0x6
 3823 0435 DB       		.byte	0xdb
 3824 0436 E3000000 		.4byte	0xe3
 3825 043a 50       		.byte	0x50
 3826 043b 0D       		.uleb128 0xd
 3827 043c 1F050000 		.4byte	.LASF70
 3828 0440 06       		.byte	0x6
 3829 0441 DE       		.byte	0xde
 3830 0442 8A040000 		.4byte	0x48a
 3831 0446 54       		.byte	0x54
 3832 0447 0D       		.uleb128 0xd
 3833 0448 D2020000 		.4byte	.LASF71
ARM GAS  /var/folders/qd/4mxf5pkd0zdf0b9dd1hp39180000gn/T//ccsf5yWP.s 			page 69


 3834 044c 06       		.byte	0x6
 3835 044d E2       		.byte	0xe2
 3836 044e 60010000 		.4byte	0x160
 3837 0452 58       		.byte	0x58
 3838 0453 0D       		.uleb128 0xd
 3839 0454 18010000 		.4byte	.LASF72
 3840 0458 06       		.byte	0x6
 3841 0459 E4       		.byte	0xe4
 3842 045a 55010000 		.4byte	0x155
 3843 045e 5C       		.byte	0x5c
 3844 045f 0D       		.uleb128 0xd
 3845 0460 74230000 		.4byte	.LASF73
 3846 0464 06       		.byte	0x6
 3847 0465 E5       		.byte	0xe5
 3848 0466 33000000 		.4byte	0x33
 3849 046a 64       		.byte	0x64
 3850 046b 00       		.byte	0
 3851 046c 15       		.uleb128 0x15
 3852 046d 33000000 		.4byte	0x33
 3853 0471 8A040000 		.4byte	0x48a
 3854 0475 16       		.uleb128 0x16
 3855 0476 8A040000 		.4byte	0x48a
 3856 047a 16       		.uleb128 0x16
 3857 047b 6B010000 		.4byte	0x16b
 3858 047f 16       		.uleb128 0x16
 3859 0480 6D010000 		.4byte	0x16d
 3860 0484 16       		.uleb128 0x16
 3861 0485 33000000 		.4byte	0x33
 3862 0489 00       		.byte	0
 3863 048a 05       		.uleb128 0x5
 3864 048b 04       		.byte	0x4
 3865 048c 95040000 		.4byte	0x495
 3866 0490 0F       		.uleb128 0xf
 3867 0491 8A040000 		.4byte	0x48a
 3868 0495 17       		.uleb128 0x17
 3869 0496 E1050000 		.4byte	.LASF74
 3870 049a 2804     		.2byte	0x428
 3871 049c 06       		.byte	0x6
 3872 049d 3902     		.2byte	0x239
 3873 049f C7050000 		.4byte	0x5c7
 3874 04a3 18       		.uleb128 0x18
 3875 04a4 FD100000 		.4byte	.LASF75
 3876 04a8 06       		.byte	0x6
 3877 04a9 3B02     		.2byte	0x23b
 3878 04ab 33000000 		.4byte	0x33
 3879 04af 00       		.byte	0
 3880 04b0 18       		.uleb128 0x18
 3881 04b1 790C0000 		.4byte	.LASF76
 3882 04b5 06       		.byte	0x6
 3883 04b6 4002     		.2byte	0x240
 3884 04b8 A1060000 		.4byte	0x6a1
 3885 04bc 04       		.byte	0x4
 3886 04bd 18       		.uleb128 0x18
 3887 04be 5C090000 		.4byte	.LASF77
 3888 04c2 06       		.byte	0x6
 3889 04c3 4002     		.2byte	0x240
 3890 04c5 A1060000 		.4byte	0x6a1
ARM GAS  /var/folders/qd/4mxf5pkd0zdf0b9dd1hp39180000gn/T//ccsf5yWP.s 			page 70


 3891 04c9 08       		.byte	0x8
 3892 04ca 18       		.uleb128 0x18
 3893 04cb 6B080000 		.4byte	.LASF78
 3894 04cf 06       		.byte	0x6
 3895 04d0 4002     		.2byte	0x240
 3896 04d2 A1060000 		.4byte	0x6a1
 3897 04d6 0C       		.byte	0xc
 3898 04d7 18       		.uleb128 0x18
 3899 04d8 A7010000 		.4byte	.LASF79
 3900 04dc 06       		.byte	0x6
 3901 04dd 4202     		.2byte	0x242
 3902 04df 33000000 		.4byte	0x33
 3903 04e3 10       		.byte	0x10
 3904 04e4 18       		.uleb128 0x18
 3905 04e5 53190000 		.4byte	.LASF80
 3906 04e9 06       		.byte	0x6
 3907 04ea 4302     		.2byte	0x243
 3908 04ec 83080000 		.4byte	0x883
 3909 04f0 14       		.byte	0x14
 3910 04f1 18       		.uleb128 0x18
 3911 04f2 A9210000 		.4byte	.LASF81
 3912 04f6 06       		.byte	0x6
 3913 04f7 4602     		.2byte	0x246
 3914 04f9 33000000 		.4byte	0x33
 3915 04fd 30       		.byte	0x30
 3916 04fe 18       		.uleb128 0x18
 3917 04ff B5230000 		.4byte	.LASF82
 3918 0503 06       		.byte	0x6
 3919 0504 4702     		.2byte	0x247
 3920 0506 98080000 		.4byte	0x898
 3921 050a 34       		.byte	0x34
 3922 050b 18       		.uleb128 0x18
 3923 050c 24220000 		.4byte	.LASF83
 3924 0510 06       		.byte	0x6
 3925 0511 4902     		.2byte	0x249
 3926 0513 33000000 		.4byte	0x33
 3927 0517 38       		.byte	0x38
 3928 0518 18       		.uleb128 0x18
 3929 0519 4A1D0000 		.4byte	.LASF84
 3930 051d 06       		.byte	0x6
 3931 051e 4B02     		.2byte	0x24b
 3932 0520 A9080000 		.4byte	0x8a9
 3933 0524 3C       		.byte	0x3c
 3934 0525 18       		.uleb128 0x18
 3935 0526 73080000 		.4byte	.LASF85
 3936 052a 06       		.byte	0x6
 3937 052b 4E02     		.2byte	0x24e
 3938 052d DD010000 		.4byte	0x1dd
 3939 0531 40       		.byte	0x40
 3940 0532 18       		.uleb128 0x18
 3941 0533 5C080000 		.4byte	.LASF86
 3942 0537 06       		.byte	0x6
 3943 0538 4F02     		.2byte	0x24f
 3944 053a 33000000 		.4byte	0x33
 3945 053e 44       		.byte	0x44
 3946 053f 18       		.uleb128 0x18
 3947 0540 0F1F0000 		.4byte	.LASF87
ARM GAS  /var/folders/qd/4mxf5pkd0zdf0b9dd1hp39180000gn/T//ccsf5yWP.s 			page 71


 3948 0544 06       		.byte	0x6
 3949 0545 5002     		.2byte	0x250
 3950 0547 DD010000 		.4byte	0x1dd
 3951 054b 48       		.byte	0x48
 3952 054c 18       		.uleb128 0x18
 3953 054d B0160000 		.4byte	.LASF88
 3954 0551 06       		.byte	0x6
 3955 0552 5102     		.2byte	0x251
 3956 0554 AF080000 		.4byte	0x8af
 3957 0558 4C       		.byte	0x4c
 3958 0559 18       		.uleb128 0x18
 3959 055a 42020000 		.4byte	.LASF89
 3960 055e 06       		.byte	0x6
 3961 055f 5402     		.2byte	0x254
 3962 0561 33000000 		.4byte	0x33
 3963 0565 50       		.byte	0x50
 3964 0566 18       		.uleb128 0x18
 3965 0567 3E0E0000 		.4byte	.LASF90
 3966 056b 06       		.byte	0x6
 3967 056c 5502     		.2byte	0x255
 3968 056e 6D010000 		.4byte	0x16d
 3969 0572 54       		.byte	0x54
 3970 0573 18       		.uleb128 0x18
 3971 0574 340F0000 		.4byte	.LASF91
 3972 0578 06       		.byte	0x6
 3973 0579 7802     		.2byte	0x278
 3974 057b 61080000 		.4byte	0x861
 3975 057f 58       		.byte	0x58
 3976 0580 19       		.uleb128 0x19
 3977 0581 21010000 		.4byte	.LASF51
 3978 0585 06       		.byte	0x6
 3979 0586 7C02     		.2byte	0x27c
 3980 0588 FA020000 		.4byte	0x2fa
 3981 058c 4801     		.2byte	0x148
 3982 058e 19       		.uleb128 0x19
 3983 058f 9D1B0000 		.4byte	.LASF92
 3984 0593 06       		.byte	0x6
 3985 0594 7D02     		.2byte	0x27d
 3986 0596 BC020000 		.4byte	0x2bc
 3987 059a 4C01     		.2byte	0x14c
 3988 059c 19       		.uleb128 0x19
 3989 059d 72020000 		.4byte	.LASF93
 3990 05a1 06       		.byte	0x6
 3991 05a2 8102     		.2byte	0x281
 3992 05a4 C0080000 		.4byte	0x8c0
 3993 05a8 DC02     		.2byte	0x2dc
 3994 05aa 19       		.uleb128 0x19
 3995 05ab 281D0000 		.4byte	.LASF94
 3996 05af 06       		.byte	0x6
 3997 05b0 8602     		.2byte	0x286
 3998 05b2 66060000 		.4byte	0x666
 3999 05b6 E002     		.2byte	0x2e0
 4000 05b8 19       		.uleb128 0x19
 4001 05b9 28060000 		.4byte	.LASF95
 4002 05bd 06       		.byte	0x6
 4003 05be 8802     		.2byte	0x288
 4004 05c0 CC080000 		.4byte	0x8cc
ARM GAS  /var/folders/qd/4mxf5pkd0zdf0b9dd1hp39180000gn/T//ccsf5yWP.s 			page 72


 4005 05c4 EC02     		.2byte	0x2ec
 4006 05c6 00       		.byte	0
 4007 05c7 05       		.uleb128 0x5
 4008 05c8 04       		.byte	0x4
 4009 05c9 6C040000 		.4byte	0x46c
 4010 05cd 15       		.uleb128 0x15
 4011 05ce 33000000 		.4byte	0x33
 4012 05d2 EB050000 		.4byte	0x5eb
 4013 05d6 16       		.uleb128 0x16
 4014 05d7 8A040000 		.4byte	0x48a
 4015 05db 16       		.uleb128 0x16
 4016 05dc 6B010000 		.4byte	0x16b
 4017 05e0 16       		.uleb128 0x16
 4018 05e1 EB050000 		.4byte	0x5eb
 4019 05e5 16       		.uleb128 0x16
 4020 05e6 33000000 		.4byte	0x33
 4021 05ea 00       		.byte	0
 4022 05eb 05       		.uleb128 0x5
 4023 05ec 04       		.byte	0x4
 4024 05ed 7A010000 		.4byte	0x17a
 4025 05f1 1A       		.uleb128 0x1a
 4026 05f2 EB050000 		.4byte	0x5eb
 4027 05f6 05       		.uleb128 0x5
 4028 05f7 04       		.byte	0x4
 4029 05f8 CD050000 		.4byte	0x5cd
 4030 05fc 15       		.uleb128 0x15
 4031 05fd EE000000 		.4byte	0xee
 4032 0601 1A060000 		.4byte	0x61a
 4033 0605 16       		.uleb128 0x16
 4034 0606 8A040000 		.4byte	0x48a
 4035 060a 16       		.uleb128 0x16
 4036 060b 6B010000 		.4byte	0x16b
 4037 060f 16       		.uleb128 0x16
 4038 0610 EE000000 		.4byte	0xee
 4039 0614 16       		.uleb128 0x16
 4040 0615 33000000 		.4byte	0x33
 4041 0619 00       		.byte	0
 4042 061a 05       		.uleb128 0x5
 4043 061b 04       		.byte	0x4
 4044 061c FC050000 		.4byte	0x5fc
 4045 0620 15       		.uleb128 0x15
 4046 0621 33000000 		.4byte	0x33
 4047 0625 34060000 		.4byte	0x634
 4048 0629 16       		.uleb128 0x16
 4049 062a 8A040000 		.4byte	0x48a
 4050 062e 16       		.uleb128 0x16
 4051 062f 6B010000 		.4byte	0x16b
 4052 0633 00       		.byte	0
 4053 0634 05       		.uleb128 0x5
 4054 0635 04       		.byte	0x4
 4055 0636 20060000 		.4byte	0x620
 4056 063a 0A       		.uleb128 0xa
 4057 063b 6C000000 		.4byte	0x6c
 4058 063f 4A060000 		.4byte	0x64a
 4059 0643 0B       		.uleb128 0xb
 4060 0644 45000000 		.4byte	0x45
 4061 0648 02       		.byte	0x2
ARM GAS  /var/folders/qd/4mxf5pkd0zdf0b9dd1hp39180000gn/T//ccsf5yWP.s 			page 73


 4062 0649 00       		.byte	0
 4063 064a 0A       		.uleb128 0xa
 4064 064b 6C000000 		.4byte	0x6c
 4065 064f 5A060000 		.4byte	0x65a
 4066 0653 0B       		.uleb128 0xb
 4067 0654 45000000 		.4byte	0x45
 4068 0658 00       		.byte	0
 4069 0659 00       		.byte	0
 4070 065a 07       		.uleb128 0x7
 4071 065b B8240000 		.4byte	.LASF96
 4072 065f 06       		.byte	0x6
 4073 0660 1F01     		.2byte	0x11f
 4074 0662 42030000 		.4byte	0x342
 4075 0666 1B       		.uleb128 0x1b
 4076 0667 021B0000 		.4byte	.LASF97
 4077 066b 0C       		.byte	0xc
 4078 066c 06       		.byte	0x6
 4079 066d 2301     		.2byte	0x123
 4080 066f 9B060000 		.4byte	0x69b
 4081 0673 18       		.uleb128 0x18
 4082 0674 D5110000 		.4byte	.LASF31
 4083 0678 06       		.byte	0x6
 4084 0679 2501     		.2byte	0x125
 4085 067b 9B060000 		.4byte	0x69b
 4086 067f 00       		.byte	0
 4087 0680 18       		.uleb128 0x18
 4088 0681 630F0000 		.4byte	.LASF98
 4089 0685 06       		.byte	0x6
 4090 0686 2601     		.2byte	0x126
 4091 0688 33000000 		.4byte	0x33
 4092 068c 04       		.byte	0x4
 4093 068d 18       		.uleb128 0x18
 4094 068e 4D190000 		.4byte	.LASF99
 4095 0692 06       		.byte	0x6
 4096 0693 2701     		.2byte	0x127
 4097 0695 A1060000 		.4byte	0x6a1
 4098 0699 08       		.byte	0x8
 4099 069a 00       		.byte	0
 4100 069b 05       		.uleb128 0x5
 4101 069c 04       		.byte	0x4
 4102 069d 66060000 		.4byte	0x666
 4103 06a1 05       		.uleb128 0x5
 4104 06a2 04       		.byte	0x4
 4105 06a3 5A060000 		.4byte	0x65a
 4106 06a7 1B       		.uleb128 0x1b
 4107 06a8 00260000 		.4byte	.LASF100
 4108 06ac 0E       		.byte	0xe
 4109 06ad 06       		.byte	0x6
 4110 06ae 3F01     		.2byte	0x13f
 4111 06b0 DC060000 		.4byte	0x6dc
 4112 06b4 18       		.uleb128 0x18
 4113 06b5 89150000 		.4byte	.LASF101
 4114 06b9 06       		.byte	0x6
 4115 06ba 4001     		.2byte	0x140
 4116 06bc DC060000 		.4byte	0x6dc
 4117 06c0 00       		.byte	0
 4118 06c1 18       		.uleb128 0x18
ARM GAS  /var/folders/qd/4mxf5pkd0zdf0b9dd1hp39180000gn/T//ccsf5yWP.s 			page 74


 4119 06c2 710B0000 		.4byte	.LASF102
 4120 06c6 06       		.byte	0x6
 4121 06c7 4101     		.2byte	0x141
 4122 06c9 DC060000 		.4byte	0x6dc
 4123 06cd 06       		.byte	0x6
 4124 06ce 18       		.uleb128 0x18
 4125 06cf CE030000 		.4byte	.LASF103
 4126 06d3 06       		.byte	0x6
 4127 06d4 4201     		.2byte	0x142
 4128 06d6 90000000 		.4byte	0x90
 4129 06da 0C       		.byte	0xc
 4130 06db 00       		.byte	0
 4131 06dc 0A       		.uleb128 0xa
 4132 06dd 90000000 		.4byte	0x90
 4133 06e1 EC060000 		.4byte	0x6ec
 4134 06e5 0B       		.uleb128 0xb
 4135 06e6 45000000 		.4byte	0x45
 4136 06ea 02       		.byte	0x2
 4137 06eb 00       		.byte	0
 4138 06ec 1C       		.uleb128 0x1c
 4139 06ed D0       		.byte	0xd0
 4140 06ee 06       		.byte	0x6
 4141 06ef 5902     		.2byte	0x259
 4142 06f1 ED070000 		.4byte	0x7ed
 4143 06f5 18       		.uleb128 0x18
 4144 06f6 C6070000 		.4byte	.LASF104
 4145 06fa 06       		.byte	0x6
 4146 06fb 5B02     		.2byte	0x25b
 4147 06fd 45000000 		.4byte	0x45
 4148 0701 00       		.byte	0
 4149 0702 18       		.uleb128 0x18
 4150 0703 31150000 		.4byte	.LASF105
 4151 0707 06       		.byte	0x6
 4152 0708 5C02     		.2byte	0x25c
 4153 070a 6D010000 		.4byte	0x16d
 4154 070e 04       		.byte	0x4
 4155 070f 18       		.uleb128 0x18
 4156 0710 F4170000 		.4byte	.LASF106
 4157 0714 06       		.byte	0x6
 4158 0715 5D02     		.2byte	0x25d
 4159 0717 ED070000 		.4byte	0x7ed
 4160 071b 08       		.byte	0x8
 4161 071c 18       		.uleb128 0x18
 4162 071d 850D0000 		.4byte	.LASF107
 4163 0721 06       		.byte	0x6
 4164 0722 5E02     		.2byte	0x25e
 4165 0724 F3010000 		.4byte	0x1f3
 4166 0728 24       		.byte	0x24
 4167 0729 18       		.uleb128 0x18
 4168 072a AE200000 		.4byte	.LASF108
 4169 072e 06       		.byte	0x6
 4170 072f 5F02     		.2byte	0x25f
 4171 0731 33000000 		.4byte	0x33
 4172 0735 48       		.byte	0x48
 4173 0736 18       		.uleb128 0x18
 4174 0737 7E190000 		.4byte	.LASF109
 4175 073b 06       		.byte	0x6
ARM GAS  /var/folders/qd/4mxf5pkd0zdf0b9dd1hp39180000gn/T//ccsf5yWP.s 			page 75


 4176 073c 6002     		.2byte	0x260
 4177 073e C6000000 		.4byte	0xc6
 4178 0742 50       		.byte	0x50
 4179 0743 18       		.uleb128 0x18
 4180 0744 48250000 		.4byte	.LASF110
 4181 0748 06       		.byte	0x6
 4182 0749 6102     		.2byte	0x261
 4183 074b A7060000 		.4byte	0x6a7
 4184 074f 58       		.byte	0x58
 4185 0750 18       		.uleb128 0x18
 4186 0751 1B1D0000 		.4byte	.LASF111
 4187 0755 06       		.byte	0x6
 4188 0756 6202     		.2byte	0x262
 4189 0758 55010000 		.4byte	0x155
 4190 075c 68       		.byte	0x68
 4191 075d 18       		.uleb128 0x18
 4192 075e 65060000 		.4byte	.LASF112
 4193 0762 06       		.byte	0x6
 4194 0763 6302     		.2byte	0x263
 4195 0765 55010000 		.4byte	0x155
 4196 0769 70       		.byte	0x70
 4197 076a 18       		.uleb128 0x18
 4198 076b E4180000 		.4byte	.LASF113
 4199 076f 06       		.byte	0x6
 4200 0770 6402     		.2byte	0x264
 4201 0772 55010000 		.4byte	0x155
 4202 0776 78       		.byte	0x78
 4203 0777 18       		.uleb128 0x18
 4204 0778 72170000 		.4byte	.LASF114
 4205 077c 06       		.byte	0x6
 4206 077d 6502     		.2byte	0x265
 4207 077f FD070000 		.4byte	0x7fd
 4208 0783 80       		.byte	0x80
 4209 0784 18       		.uleb128 0x18
 4210 0785 04120000 		.4byte	.LASF115
 4211 0789 06       		.byte	0x6
 4212 078a 6602     		.2byte	0x266
 4213 078c 0D080000 		.4byte	0x80d
 4214 0790 88       		.byte	0x88
 4215 0791 18       		.uleb128 0x18
 4216 0792 211C0000 		.4byte	.LASF116
 4217 0796 06       		.byte	0x6
 4218 0797 6702     		.2byte	0x267
 4219 0799 33000000 		.4byte	0x33
 4220 079d A0       		.byte	0xa0
 4221 079e 18       		.uleb128 0x18
 4222 079f 190C0000 		.4byte	.LASF117
 4223 07a3 06       		.byte	0x6
 4224 07a4 6802     		.2byte	0x268
 4225 07a6 55010000 		.4byte	0x155
 4226 07aa A4       		.byte	0xa4
 4227 07ab 18       		.uleb128 0x18
 4228 07ac DA0E0000 		.4byte	.LASF118
 4229 07b0 06       		.byte	0x6
 4230 07b1 6902     		.2byte	0x269
 4231 07b3 55010000 		.4byte	0x155
 4232 07b7 AC       		.byte	0xac
ARM GAS  /var/folders/qd/4mxf5pkd0zdf0b9dd1hp39180000gn/T//ccsf5yWP.s 			page 76


 4233 07b8 18       		.uleb128 0x18
 4234 07b9 C5090000 		.4byte	.LASF119
 4235 07bd 06       		.byte	0x6
 4236 07be 6A02     		.2byte	0x26a
 4237 07c0 55010000 		.4byte	0x155
 4238 07c4 B4       		.byte	0xb4
 4239 07c5 18       		.uleb128 0x18
 4240 07c6 E4130000 		.4byte	.LASF120
 4241 07ca 06       		.byte	0x6
 4242 07cb 6B02     		.2byte	0x26b
 4243 07cd 55010000 		.4byte	0x155
 4244 07d1 BC       		.byte	0xbc
 4245 07d2 18       		.uleb128 0x18
 4246 07d3 33180000 		.4byte	.LASF121
 4247 07d7 06       		.byte	0x6
 4248 07d8 6C02     		.2byte	0x26c
 4249 07da 55010000 		.4byte	0x155
 4250 07de C4       		.byte	0xc4
 4251 07df 18       		.uleb128 0x18
 4252 07e0 321E0000 		.4byte	.LASF122
 4253 07e4 06       		.byte	0x6
 4254 07e5 6D02     		.2byte	0x26d
 4255 07e7 33000000 		.4byte	0x33
 4256 07eb CC       		.byte	0xcc
 4257 07ec 00       		.byte	0
 4258 07ed 0A       		.uleb128 0xa
 4259 07ee 73010000 		.4byte	0x173
 4260 07f2 FD070000 		.4byte	0x7fd
 4261 07f6 0B       		.uleb128 0xb
 4262 07f7 45000000 		.4byte	0x45
 4263 07fb 19       		.byte	0x19
 4264 07fc 00       		.byte	0
 4265 07fd 0A       		.uleb128 0xa
 4266 07fe 73010000 		.4byte	0x173
 4267 0802 0D080000 		.4byte	0x80d
 4268 0806 0B       		.uleb128 0xb
 4269 0807 45000000 		.4byte	0x45
 4270 080b 07       		.byte	0x7
 4271 080c 00       		.byte	0
 4272 080d 0A       		.uleb128 0xa
 4273 080e 73010000 		.4byte	0x173
 4274 0812 1D080000 		.4byte	0x81d
 4275 0816 0B       		.uleb128 0xb
 4276 0817 45000000 		.4byte	0x45
 4277 081b 17       		.byte	0x17
 4278 081c 00       		.byte	0
 4279 081d 1C       		.uleb128 0x1c
 4280 081e F0       		.byte	0xf0
 4281 081f 06       		.byte	0x6
 4282 0820 7202     		.2byte	0x272
 4283 0822 41080000 		.4byte	0x841
 4284 0826 18       		.uleb128 0x18
 4285 0827 71190000 		.4byte	.LASF123
 4286 082b 06       		.byte	0x6
 4287 082c 7502     		.2byte	0x275
 4288 082e 41080000 		.4byte	0x841
 4289 0832 00       		.byte	0
ARM GAS  /var/folders/qd/4mxf5pkd0zdf0b9dd1hp39180000gn/T//ccsf5yWP.s 			page 77


 4290 0833 18       		.uleb128 0x18
 4291 0834 800C0000 		.4byte	.LASF124
 4292 0838 06       		.byte	0x6
 4293 0839 7602     		.2byte	0x276
 4294 083b 51080000 		.4byte	0x851
 4295 083f 78       		.byte	0x78
 4296 0840 00       		.byte	0
 4297 0841 0A       		.uleb128 0xa
 4298 0842 3C030000 		.4byte	0x33c
 4299 0846 51080000 		.4byte	0x851
 4300 084a 0B       		.uleb128 0xb
 4301 084b 45000000 		.4byte	0x45
 4302 084f 1D       		.byte	0x1d
 4303 0850 00       		.byte	0
 4304 0851 0A       		.uleb128 0xa
 4305 0852 45000000 		.4byte	0x45
 4306 0856 61080000 		.4byte	0x861
 4307 085a 0B       		.uleb128 0xb
 4308 085b 45000000 		.4byte	0x45
 4309 085f 1D       		.byte	0x1d
 4310 0860 00       		.byte	0
 4311 0861 1D       		.uleb128 0x1d
 4312 0862 F0       		.byte	0xf0
 4313 0863 06       		.byte	0x6
 4314 0864 5702     		.2byte	0x257
 4315 0866 83080000 		.4byte	0x883
 4316 086a 1E       		.uleb128 0x1e
 4317 086b E1050000 		.4byte	.LASF74
 4318 086f 06       		.byte	0x6
 4319 0870 6E02     		.2byte	0x26e
 4320 0872 EC060000 		.4byte	0x6ec
 4321 0876 1E       		.uleb128 0x1e
 4322 0877 E7020000 		.4byte	.LASF125
 4323 087b 06       		.byte	0x6
 4324 087c 7702     		.2byte	0x277
 4325 087e 1D080000 		.4byte	0x81d
 4326 0882 00       		.byte	0
 4327 0883 0A       		.uleb128 0xa
 4328 0884 73010000 		.4byte	0x173
 4329 0888 93080000 		.4byte	0x893
 4330 088c 0B       		.uleb128 0xb
 4331 088d 45000000 		.4byte	0x45
 4332 0891 18       		.byte	0x18
 4333 0892 00       		.byte	0
 4334 0893 06       		.uleb128 0x6
 4335 0894 301D0000 		.4byte	.LASF127
 4336 0898 05       		.uleb128 0x5
 4337 0899 04       		.byte	0x4
 4338 089a 93080000 		.4byte	0x893
 4339 089e 1F       		.uleb128 0x1f
 4340 089f A9080000 		.4byte	0x8a9
 4341 08a3 16       		.uleb128 0x16
 4342 08a4 8A040000 		.4byte	0x48a
 4343 08a8 00       		.byte	0
 4344 08a9 05       		.uleb128 0x5
 4345 08aa 04       		.byte	0x4
 4346 08ab 9E080000 		.4byte	0x89e
ARM GAS  /var/folders/qd/4mxf5pkd0zdf0b9dd1hp39180000gn/T//ccsf5yWP.s 			page 78


 4347 08af 05       		.uleb128 0x5
 4348 08b0 04       		.byte	0x4
 4349 08b1 DD010000 		.4byte	0x1dd
 4350 08b5 1F       		.uleb128 0x1f
 4351 08b6 C0080000 		.4byte	0x8c0
 4352 08ba 16       		.uleb128 0x16
 4353 08bb 33000000 		.4byte	0x33
 4354 08bf 00       		.byte	0
 4355 08c0 05       		.uleb128 0x5
 4356 08c1 04       		.byte	0x4
 4357 08c2 C6080000 		.4byte	0x8c6
 4358 08c6 05       		.uleb128 0x5
 4359 08c7 04       		.byte	0x4
 4360 08c8 B5080000 		.4byte	0x8b5
 4361 08cc 0A       		.uleb128 0xa
 4362 08cd 5A060000 		.4byte	0x65a
 4363 08d1 DC080000 		.4byte	0x8dc
 4364 08d5 0B       		.uleb128 0xb
 4365 08d6 45000000 		.4byte	0x45
 4366 08da 02       		.byte	0x2
 4367 08db 00       		.byte	0
 4368 08dc 20       		.uleb128 0x20
 4369 08dd CD1C0000 		.4byte	.LASF128
 4370 08e1 06       		.byte	0x6
 4371 08e2 0703     		.2byte	0x307
 4372 08e4 8A040000 		.4byte	0x48a
 4373 08e8 20       		.uleb128 0x20
 4374 08e9 86210000 		.4byte	.LASF129
 4375 08ed 06       		.byte	0x6
 4376 08ee 0803     		.2byte	0x308
 4377 08f0 90040000 		.4byte	0x490
 4378 08f4 0F       		.uleb128 0xf
 4379 08f5 2C000000 		.4byte	0x2c
 4380 08f9 21       		.uleb128 0x21
 4381 08fa 7F180000 		.4byte	.LASF920
 4382 08fe 05       		.byte	0x5
 4383 08ff 01       		.byte	0x1
 4384 0900 5A000000 		.4byte	0x5a
 4385 0904 07       		.byte	0x7
 4386 0905 8202     		.2byte	0x282
 4387 0907 24090000 		.4byte	0x924
 4388 090b 22       		.uleb128 0x22
 4389 090c 4E160000 		.4byte	.LASF130
 4390 0910 7F       		.sleb128 -1
 4391 0911 23       		.uleb128 0x23
 4392 0912 64020000 		.4byte	.LASF131
 4393 0916 00       		.byte	0
 4394 0917 23       		.uleb128 0x23
 4395 0918 9A000000 		.4byte	.LASF132
 4396 091c 01       		.byte	0x1
 4397 091d 23       		.uleb128 0x23
 4398 091e 41220000 		.4byte	.LASF133
 4399 0922 02       		.byte	0x2
 4400 0923 00       		.byte	0
 4401 0924 20       		.uleb128 0x20
 4402 0925 F6080000 		.4byte	.LASF134
 4403 0929 07       		.byte	0x7
ARM GAS  /var/folders/qd/4mxf5pkd0zdf0b9dd1hp39180000gn/T//ccsf5yWP.s 			page 79


 4404 092a 8D02     		.2byte	0x28d
 4405 092c F9080000 		.4byte	0x8f9
 4406 0930 0C       		.uleb128 0xc
 4407 0931 08       		.byte	0x8
 4408 0932 08       		.byte	0x8
 4409 0933 0F       		.byte	0xf
 4410 0934 51090000 		.4byte	0x951
 4411 0938 0D       		.uleb128 0xd
 4412 0939 631F0000 		.4byte	.LASF135
 4413 093d 08       		.byte	0x8
 4414 093e 10       		.byte	0x10
 4415 093f 2C000000 		.4byte	0x2c
 4416 0943 00       		.byte	0
 4417 0944 0D       		.uleb128 0xd
 4418 0945 080D0000 		.4byte	.LASF136
 4419 0949 08       		.byte	0x8
 4420 094a 11       		.byte	0x11
 4421 094b 2C000000 		.4byte	0x2c
 4422 094f 04       		.byte	0x4
 4423 0950 00       		.byte	0
 4424 0951 04       		.uleb128 0x4
 4425 0952 7B0A0000 		.4byte	.LASF137
 4426 0956 08       		.byte	0x8
 4427 0957 12       		.byte	0x12
 4428 0958 30090000 		.4byte	0x930
 4429 095c 0F       		.uleb128 0xf
 4430 095d 51090000 		.4byte	0x951
 4431 0961 0C       		.uleb128 0xc
 4432 0962 0C       		.byte	0xc
 4433 0963 09       		.byte	0x9
 4434 0964 1C       		.byte	0x1c
 4435 0965 8A090000 		.4byte	0x98a
 4436 0969 11       		.uleb128 0x11
 4437 096a 7800     		.ascii	"x\000"
 4438 096c 09       		.byte	0x9
 4439 096d 1D       		.byte	0x1d
 4440 096e 33000000 		.4byte	0x33
 4441 0972 00       		.byte	0
 4442 0973 11       		.uleb128 0x11
 4443 0974 7900     		.ascii	"y\000"
 4444 0976 09       		.byte	0x9
 4445 0977 1E       		.byte	0x1e
 4446 0978 33000000 		.4byte	0x33
 4447 097c 04       		.byte	0x4
 4448 097d 0D       		.uleb128 0xd
 4449 097e 01140000 		.4byte	.LASF138
 4450 0982 09       		.byte	0x9
 4451 0983 1F       		.byte	0x1f
 4452 0984 2C000000 		.4byte	0x2c
 4453 0988 08       		.byte	0x8
 4454 0989 00       		.byte	0
 4455 098a 04       		.uleb128 0x4
 4456 098b 2E140000 		.4byte	.LASF139
 4457 098f 09       		.byte	0x9
 4458 0990 20       		.byte	0x20
 4459 0991 61090000 		.4byte	0x961
 4460 0995 0C       		.uleb128 0xc
ARM GAS  /var/folders/qd/4mxf5pkd0zdf0b9dd1hp39180000gn/T//ccsf5yWP.s 			page 80


 4461 0996 08       		.byte	0x8
 4462 0997 09       		.byte	0x9
 4463 0998 22       		.byte	0x22
 4464 0999 B2090000 		.4byte	0x9b2
 4465 099d 11       		.uleb128 0x11
 4466 099e 7800     		.ascii	"x\000"
 4467 09a0 09       		.byte	0x9
 4468 09a1 23       		.byte	0x23
 4469 09a2 33000000 		.4byte	0x33
 4470 09a6 00       		.byte	0
 4471 09a7 11       		.uleb128 0x11
 4472 09a8 7900     		.ascii	"y\000"
 4473 09aa 09       		.byte	0x9
 4474 09ab 24       		.byte	0x24
 4475 09ac 33000000 		.4byte	0x33
 4476 09b0 04       		.byte	0x4
 4477 09b1 00       		.byte	0
 4478 09b2 04       		.uleb128 0x4
 4479 09b3 B2110000 		.4byte	.LASF140
 4480 09b7 09       		.byte	0x9
 4481 09b8 25       		.byte	0x25
 4482 09b9 95090000 		.4byte	0x995
 4483 09bd 0F       		.uleb128 0xf
 4484 09be B2090000 		.4byte	0x9b2
 4485 09c2 0C       		.uleb128 0xc
 4486 09c3 10       		.byte	0x10
 4487 09c4 09       		.byte	0x9
 4488 09c5 27       		.byte	0x27
 4489 09c6 E3090000 		.4byte	0x9e3
 4490 09ca 0D       		.uleb128 0xd
 4491 09cb 1E1A0000 		.4byte	.LASF141
 4492 09cf 09       		.byte	0x9
 4493 09d0 28       		.byte	0x28
 4494 09d1 8A090000 		.4byte	0x98a
 4495 09d5 00       		.byte	0
 4496 09d6 0D       		.uleb128 0xd
 4497 09d7 2C0C0000 		.4byte	.LASF142
 4498 09db 09       		.byte	0x9
 4499 09dc 29       		.byte	0x29
 4500 09dd 33000000 		.4byte	0x33
 4501 09e1 0C       		.byte	0xc
 4502 09e2 00       		.byte	0
 4503 09e3 04       		.uleb128 0x4
 4504 09e4 35030000 		.4byte	.LASF143
 4505 09e8 09       		.byte	0x9
 4506 09e9 2A       		.byte	0x2a
 4507 09ea C2090000 		.4byte	0x9c2
 4508 09ee 0C       		.uleb128 0xc
 4509 09ef 08       		.byte	0x8
 4510 09f0 09       		.byte	0x9
 4511 09f1 2C       		.byte	0x2c
 4512 09f2 0F0A0000 		.4byte	0xa0f
 4513 09f6 0D       		.uleb128 0xd
 4514 09f7 E4190000 		.4byte	.LASF144
 4515 09fb 09       		.byte	0x9
 4516 09fc 2D       		.byte	0x2d
 4517 09fd 33000000 		.4byte	0x33
ARM GAS  /var/folders/qd/4mxf5pkd0zdf0b9dd1hp39180000gn/T//ccsf5yWP.s 			page 81


 4518 0a01 00       		.byte	0
 4519 0a02 0D       		.uleb128 0xd
 4520 0a03 A5060000 		.4byte	.LASF145
 4521 0a07 09       		.byte	0x9
 4522 0a08 2E       		.byte	0x2e
 4523 0a09 2C000000 		.4byte	0x2c
 4524 0a0d 04       		.byte	0x4
 4525 0a0e 00       		.byte	0
 4526 0a0f 04       		.uleb128 0x4
 4527 0a10 A9020000 		.4byte	.LASF146
 4528 0a14 09       		.byte	0x9
 4529 0a15 2F       		.byte	0x2f
 4530 0a16 EE090000 		.4byte	0x9ee
 4531 0a1a 0C       		.uleb128 0xc
 4532 0a1b 3C       		.byte	0x3c
 4533 0a1c 09       		.byte	0x9
 4534 0a1d 31       		.byte	0x31
 4535 0a1e 5F0A0000 		.4byte	0xa5f
 4536 0a22 0D       		.uleb128 0xd
 4537 0a23 571B0000 		.4byte	.LASF147
 4538 0a27 09       		.byte	0x9
 4539 0a28 32       		.byte	0x32
 4540 0a29 5F0A0000 		.4byte	0xa5f
 4541 0a2d 00       		.byte	0
 4542 0a2e 0D       		.uleb128 0xd
 4543 0a2f 52210000 		.4byte	.LASF148
 4544 0a33 09       		.byte	0x9
 4545 0a34 33       		.byte	0x33
 4546 0a35 33000000 		.4byte	0x33
 4547 0a39 04       		.byte	0x4
 4548 0a3a 0D       		.uleb128 0xd
 4549 0a3b 24170000 		.4byte	.LASF149
 4550 0a3f 09       		.byte	0x9
 4551 0a40 34       		.byte	0x34
 4552 0a41 33000000 		.4byte	0x33
 4553 0a45 08       		.byte	0x8
 4554 0a46 0D       		.uleb128 0xd
 4555 0a47 C5120000 		.4byte	.LASF150
 4556 0a4b 09       		.byte	0x9
 4557 0a4c 35       		.byte	0x35
 4558 0a4d 760A0000 		.4byte	0xa76
 4559 0a51 0C       		.byte	0xc
 4560 0a52 0D       		.uleb128 0xd
 4561 0a53 D4080000 		.4byte	.LASF151
 4562 0a57 09       		.byte	0x9
 4563 0a58 36       		.byte	0x36
 4564 0a59 760A0000 		.4byte	0xa76
 4565 0a5d 24       		.byte	0x24
 4566 0a5e 00       		.byte	0
 4567 0a5f 0A       		.uleb128 0xa
 4568 0a60 6F0A0000 		.4byte	0xa6f
 4569 0a64 6F0A0000 		.4byte	0xa6f
 4570 0a68 0B       		.uleb128 0xb
 4571 0a69 45000000 		.4byte	0x45
 4572 0a6d 03       		.byte	0x3
 4573 0a6e 00       		.byte	0
 4574 0a6f 02       		.uleb128 0x2
ARM GAS  /var/folders/qd/4mxf5pkd0zdf0b9dd1hp39180000gn/T//ccsf5yWP.s 			page 82


 4575 0a70 01       		.byte	0x1
 4576 0a71 02       		.byte	0x2
 4577 0a72 03010000 		.4byte	.LASF152
 4578 0a76 0A       		.uleb128 0xa
 4579 0a77 B2090000 		.4byte	0x9b2
 4580 0a7b 860A0000 		.4byte	0xa86
 4581 0a7f 0B       		.uleb128 0xb
 4582 0a80 45000000 		.4byte	0x45
 4583 0a84 02       		.byte	0x2
 4584 0a85 00       		.byte	0
 4585 0a86 04       		.uleb128 0x4
 4586 0a87 F1030000 		.4byte	.LASF153
 4587 0a8b 09       		.byte	0x9
 4588 0a8c 37       		.byte	0x37
 4589 0a8d 1A0A0000 		.4byte	0xa1a
 4590 0a91 24       		.uleb128 0x24
 4591 0a92 B6150000 		.4byte	.LASF154
 4592 0a96 09       		.byte	0x9
 4593 0a97 39       		.byte	0x39
 4594 0a98 860A0000 		.4byte	0xa86
 4595 0a9c 04       		.uleb128 0x4
 4596 0a9d A50D0000 		.4byte	.LASF155
 4597 0aa1 0A       		.byte	0xa
 4598 0aa2 18       		.byte	0x18
 4599 0aa3 61000000 		.4byte	0x61
 4600 0aa7 0F       		.uleb128 0xf
 4601 0aa8 9C0A0000 		.4byte	0xa9c
 4602 0aac 04       		.uleb128 0x4
 4603 0aad C2150000 		.4byte	.LASF156
 4604 0ab1 0A       		.byte	0xa
 4605 0ab2 20       		.byte	0x20
 4606 0ab3 73000000 		.4byte	0x73
 4607 0ab7 04       		.uleb128 0x4
 4608 0ab8 E0010000 		.4byte	.LASF157
 4609 0abc 0A       		.byte	0xa
 4610 0abd 24       		.byte	0x24
 4611 0abe 85000000 		.4byte	0x85
 4612 0ac2 04       		.uleb128 0x4
 4613 0ac3 A0030000 		.4byte	.LASF158
 4614 0ac7 0A       		.byte	0xa
 4615 0ac8 2C       		.byte	0x2c
 4616 0ac9 97000000 		.4byte	0x97
 4617 0acd 1A       		.uleb128 0x1a
 4618 0ace C20A0000 		.4byte	0xac2
 4619 0ad2 04       		.uleb128 0x4
 4620 0ad3 B2190000 		.4byte	.LASF159
 4621 0ad7 0A       		.byte	0xa
 4622 0ad8 30       		.byte	0x30
 4623 0ad9 A9000000 		.4byte	0xa9
 4624 0add 1A       		.uleb128 0x1a
 4625 0ade D20A0000 		.4byte	0xad2
 4626 0ae2 0F       		.uleb128 0xf
 4627 0ae3 DD0A0000 		.4byte	0xadd
 4628 0ae7 04       		.uleb128 0x4
 4629 0ae8 BF0A0000 		.4byte	.LASF160
 4630 0aec 0A       		.byte	0xa
 4631 0aed 3C       		.byte	0x3c
ARM GAS  /var/folders/qd/4mxf5pkd0zdf0b9dd1hp39180000gn/T//ccsf5yWP.s 			page 83


 4632 0aee BB000000 		.4byte	0xbb
 4633 0af2 04       		.uleb128 0x4
 4634 0af3 DC0C0000 		.4byte	.LASF161
 4635 0af7 0B       		.byte	0xb
 4636 0af8 45       		.byte	0x45
 4637 0af9 D20A0000 		.4byte	0xad2
 4638 0afd 04       		.uleb128 0x4
 4639 0afe F5050000 		.4byte	.LASF162
 4640 0b02 0B       		.byte	0xb
 4641 0b03 46       		.byte	0x46
 4642 0b04 E70A0000 		.4byte	0xae7
 4643 0b08 04       		.uleb128 0x4
 4644 0b09 78130000 		.4byte	.LASF163
 4645 0b0d 0B       		.byte	0xb
 4646 0b0e 48       		.byte	0x48
 4647 0b0f 9C0A0000 		.4byte	0xa9c
 4648 0b13 04       		.uleb128 0x4
 4649 0b14 7D210000 		.4byte	.LASF164
 4650 0b18 0B       		.byte	0xb
 4651 0b19 49       		.byte	0x49
 4652 0b1a 9C0A0000 		.4byte	0xa9c
 4653 0b1e 04       		.uleb128 0x4
 4654 0b1f DF120000 		.4byte	.LASF165
 4655 0b23 0B       		.byte	0xb
 4656 0b24 4A       		.byte	0x4a
 4657 0b25 9C0A0000 		.4byte	0xa9c
 4658 0b29 04       		.uleb128 0x4
 4659 0b2a 27150000 		.4byte	.LASF166
 4660 0b2e 0B       		.byte	0xb
 4661 0b2f 4B       		.byte	0x4b
 4662 0b30 9C0A0000 		.4byte	0xa9c
 4663 0b34 04       		.uleb128 0x4
 4664 0b35 AE060000 		.4byte	.LASF167
 4665 0b39 0B       		.byte	0xb
 4666 0b3a 4C       		.byte	0x4c
 4667 0b3b D20A0000 		.4byte	0xad2
 4668 0b3f 04       		.uleb128 0x4
 4669 0b40 50000000 		.4byte	.LASF168
 4670 0b44 0B       		.byte	0xb
 4671 0b45 4D       		.byte	0x4d
 4672 0b46 C20A0000 		.4byte	0xac2
 4673 0b4a 04       		.uleb128 0x4
 4674 0b4b 0C1A0000 		.4byte	.LASF169
 4675 0b4f 0B       		.byte	0xb
 4676 0b50 4F       		.byte	0x4f
 4677 0b51 D20A0000 		.4byte	0xad2
 4678 0b55 04       		.uleb128 0x4
 4679 0b56 BD230000 		.4byte	.LASF170
 4680 0b5a 0B       		.byte	0xb
 4681 0b5b 50       		.byte	0x50
 4682 0b5c D20A0000 		.4byte	0xad2
 4683 0b60 04       		.uleb128 0x4
 4684 0b61 691C0000 		.4byte	.LASF171
 4685 0b65 0B       		.byte	0xb
 4686 0b66 51       		.byte	0x51
 4687 0b67 C20A0000 		.4byte	0xac2
 4688 0b6b 04       		.uleb128 0x4
ARM GAS  /var/folders/qd/4mxf5pkd0zdf0b9dd1hp39180000gn/T//ccsf5yWP.s 			page 84


 4689 0b6c 2E160000 		.4byte	.LASF172
 4690 0b70 0B       		.byte	0xb
 4691 0b71 52       		.byte	0x52
 4692 0b72 D20A0000 		.4byte	0xad2
 4693 0b76 04       		.uleb128 0x4
 4694 0b77 B4030000 		.4byte	.LASF173
 4695 0b7b 0C       		.byte	0xc
 4696 0b7c 33       		.byte	0x33
 4697 0b7d D20A0000 		.4byte	0xad2
 4698 0b81 1A       		.uleb128 0x1a
 4699 0b82 760B0000 		.4byte	0xb76
 4700 0b86 04       		.uleb128 0x4
 4701 0b87 43030000 		.4byte	.LASF174
 4702 0b8b 0C       		.byte	0xc
 4703 0b8c 3F       		.byte	0x3f
 4704 0b8d 910B0000 		.4byte	0xb91
 4705 0b91 10       		.uleb128 0x10
 4706 0b92 97090000 		.4byte	.LASF175
 4707 0b96 68       		.byte	0x68
 4708 0b97 0D       		.byte	0xd
 4709 0b98 C2       		.byte	0xc2
 4710 0b99 AF0C0000 		.4byte	0xcaf
 4711 0b9d 0D       		.uleb128 0xd
 4712 0b9e 75120000 		.4byte	.LASF176
 4713 0ba2 0D       		.byte	0xd
 4714 0ba3 C3       		.byte	0xc3
 4715 0ba4 BA0C0000 		.4byte	0xcba
 4716 0ba8 00       		.byte	0
 4717 0ba9 0D       		.uleb128 0xd
 4718 0baa D00D0000 		.4byte	.LASF177
 4719 0bae 0D       		.byte	0xd
 4720 0baf C5       		.byte	0xc5
 4721 0bb0 BA0C0000 		.4byte	0xcba
 4722 0bb4 04       		.byte	0x4
 4723 0bb5 0D       		.uleb128 0xd
 4724 0bb6 B2000000 		.4byte	.LASF178
 4725 0bba 0D       		.byte	0xd
 4726 0bbb C7       		.byte	0xc7
 4727 0bbc 340B0000 		.4byte	0xb34
 4728 0bc0 08       		.byte	0x8
 4729 0bc1 0D       		.uleb128 0xd
 4730 0bc2 5C0A0000 		.4byte	.LASF179
 4731 0bc6 0D       		.byte	0xd
 4732 0bc7 C8       		.byte	0xc8
 4733 0bc8 C2160000 		.4byte	0x16c2
 4734 0bcc 0C       		.byte	0xc
 4735 0bcd 0D       		.uleb128 0xd
 4736 0bce 7C020000 		.4byte	.LASF180
 4737 0bd2 0D       		.byte	0xd
 4738 0bd3 CA       		.byte	0xca
 4739 0bd4 BA0C0000 		.4byte	0xcba
 4740 0bd8 10       		.byte	0x10
 4741 0bd9 0D       		.uleb128 0xd
 4742 0bda 23240000 		.4byte	.LASF181
 4743 0bde 0D       		.byte	0xd
 4744 0bdf CB       		.byte	0xcb
 4745 0be0 BA0C0000 		.4byte	0xcba
ARM GAS  /var/folders/qd/4mxf5pkd0zdf0b9dd1hp39180000gn/T//ccsf5yWP.s 			page 85


 4746 0be4 14       		.byte	0x14
 4747 0be5 0D       		.uleb128 0xd
 4748 0be6 1D220000 		.4byte	.LASF182
 4749 0bea 0D       		.byte	0xd
 4750 0beb D2       		.byte	0xd2
 4751 0bec EB050000 		.4byte	0x5eb
 4752 0bf0 18       		.byte	0x18
 4753 0bf1 0D       		.uleb128 0xd
 4754 0bf2 5E1C0000 		.4byte	.LASF183
 4755 0bf6 0D       		.byte	0xd
 4756 0bf7 D8       		.byte	0xd8
 4757 0bf8 381A0000 		.4byte	0x1a38
 4758 0bfc 1C       		.byte	0x1c
 4759 0bfd 0D       		.uleb128 0xd
 4760 0bfe 56260000 		.4byte	.LASF184
 4761 0c02 0D       		.byte	0xd
 4762 0c03 DD       		.byte	0xdd
 4763 0c04 130B0000 		.4byte	0xb13
 4764 0c08 20       		.byte	0x20
 4765 0c09 0D       		.uleb128 0xd
 4766 0c0a 23210000 		.4byte	.LASF185
 4767 0c0e 0D       		.byte	0xd
 4768 0c0f E1       		.byte	0xe1
 4769 0c10 080B0000 		.4byte	0xb08
 4770 0c14 21       		.byte	0x21
 4771 0c15 0D       		.uleb128 0xd
 4772 0c16 97180000 		.4byte	.LASF186
 4773 0c1a 0D       		.byte	0xd
 4774 0c1b E6       		.byte	0xe6
 4775 0c1c 1E0B0000 		.4byte	0xb1e
 4776 0c20 22       		.byte	0x22
 4777 0c21 0D       		.uleb128 0xd
 4778 0c22 1A160000 		.4byte	.LASF187
 4779 0c26 0D       		.byte	0xd
 4780 0c27 EC       		.byte	0xec
 4781 0c28 290B0000 		.4byte	0xb29
 4782 0c2c 23       		.byte	0x23
 4783 0c2d 0D       		.uleb128 0xd
 4784 0c2e 90180000 		.4byte	.LASF188
 4785 0c32 0D       		.byte	0xd
 4786 0c33 F3       		.byte	0xf3
 4787 0c34 810B0000 		.4byte	0xb81
 4788 0c38 24       		.byte	0x24
 4789 0c39 25       		.uleb128 0x25
 4790 0c3a 705F7500 		.ascii	"p_u\000"
 4791 0c3e 0D       		.byte	0xd
 4792 0c3f 3101     		.2byte	0x131
 4793 0c41 67190000 		.4byte	0x1967
 4794 0c45 28       		.byte	0x28
 4795 0c46 18       		.uleb128 0x18
 4796 0c47 46050000 		.4byte	.LASF189
 4797 0c4b 0D       		.byte	0xd
 4798 0c4c 3601     		.2byte	0x136
 4799 0c4e C00C0000 		.4byte	0xcc0
 4800 0c52 2C       		.byte	0x2c
 4801 0c53 18       		.uleb128 0x18
 4802 0c54 C2160000 		.4byte	.LASF190
ARM GAS  /var/folders/qd/4mxf5pkd0zdf0b9dd1hp39180000gn/T//ccsf5yWP.s 			page 86


 4803 0c58 0D       		.byte	0xd
 4804 0c59 3C01     		.2byte	0x13c
 4805 0c5b E40C0000 		.4byte	0xce4
 4806 0c5f 30       		.byte	0x30
 4807 0c60 18       		.uleb128 0x18
 4808 0c61 C0070000 		.4byte	.LASF191
 4809 0c65 0D       		.byte	0xd
 4810 0c66 4001     		.2byte	0x140
 4811 0c68 3F0B0000 		.4byte	0xb3f
 4812 0c6c 38       		.byte	0x38
 4813 0c6d 18       		.uleb128 0x18
 4814 0c6e 311F0000 		.4byte	.LASF192
 4815 0c72 0D       		.byte	0xd
 4816 0c73 4601     		.2byte	0x146
 4817 0c75 4A0B0000 		.4byte	0xb4a
 4818 0c79 3C       		.byte	0x3c
 4819 0c7a 18       		.uleb128 0x18
 4820 0c7b 48210000 		.4byte	.LASF193
 4821 0c7f 0D       		.byte	0xd
 4822 0c80 4D01     		.2byte	0x14d
 4823 0c82 321A0000 		.4byte	0x1a32
 4824 0c86 40       		.byte	0x40
 4825 0c87 18       		.uleb128 0x18
 4826 0c88 D21D0000 		.4byte	.LASF194
 4827 0c8c 0D       		.byte	0xd
 4828 0c8d 5101     		.2byte	0x151
 4829 0c8f 340B0000 		.4byte	0xb34
 4830 0c93 44       		.byte	0x44
 4831 0c94 18       		.uleb128 0x18
 4832 0c95 E7120000 		.4byte	.LASF195
 4833 0c99 0D       		.byte	0xd
 4834 0c9a 5801     		.2byte	0x158
 4835 0c9c 6B010000 		.4byte	0x16b
 4836 0ca0 48       		.byte	0x48
 4837 0ca1 18       		.uleb128 0x18
 4838 0ca2 91260000 		.4byte	.LASF196
 4839 0ca6 0D       		.byte	0xd
 4840 0ca7 5E01     		.2byte	0x15e
 4841 0ca9 18190000 		.4byte	0x1918
 4842 0cad 50       		.byte	0x50
 4843 0cae 00       		.byte	0
 4844 0caf 04       		.uleb128 0x4
 4845 0cb0 8E240000 		.4byte	.LASF197
 4846 0cb4 0C       		.byte	0xc
 4847 0cb5 44       		.byte	0x44
 4848 0cb6 BA0C0000 		.4byte	0xcba
 4849 0cba 05       		.uleb128 0x5
 4850 0cbb 04       		.byte	0x4
 4851 0cbc 860B0000 		.4byte	0xb86
 4852 0cc0 04       		.uleb128 0x4
 4853 0cc1 85050000 		.4byte	.LASF198
 4854 0cc5 0C       		.byte	0xc
 4855 0cc6 49       		.byte	0x49
 4856 0cc7 CB0C0000 		.4byte	0xccb
 4857 0ccb 10       		.uleb128 0x10
 4858 0ccc 70260000 		.4byte	.LASF199
 4859 0cd0 04       		.byte	0x4
ARM GAS  /var/folders/qd/4mxf5pkd0zdf0b9dd1hp39180000gn/T//ccsf5yWP.s 			page 87


 4860 0cd1 0D       		.byte	0xd
 4861 0cd2 B0       		.byte	0xb0
 4862 0cd3 E40C0000 		.4byte	0xce4
 4863 0cd7 0D       		.uleb128 0xd
 4864 0cd8 75120000 		.4byte	.LASF176
 4865 0cdc 0D       		.byte	0xd
 4866 0cdd B1       		.byte	0xb1
 4867 0cde BA0C0000 		.4byte	0xcba
 4868 0ce2 00       		.byte	0
 4869 0ce3 00       		.byte	0
 4870 0ce4 04       		.uleb128 0x4
 4871 0ce5 64180000 		.4byte	.LASF200
 4872 0ce9 0C       		.byte	0xc
 4873 0cea 50       		.byte	0x50
 4874 0ceb EF0C0000 		.4byte	0xcef
 4875 0cef 10       		.uleb128 0x10
 4876 0cf0 53020000 		.4byte	.LASF201
 4877 0cf4 08       		.byte	0x8
 4878 0cf5 0D       		.byte	0xd
 4879 0cf6 B7       		.byte	0xb7
 4880 0cf7 140D0000 		.4byte	0xd14
 4881 0cfb 0D       		.uleb128 0xd
 4882 0cfc 75120000 		.4byte	.LASF176
 4883 0d00 0D       		.byte	0xd
 4884 0d01 B8       		.byte	0xb8
 4885 0d02 BA0C0000 		.4byte	0xcba
 4886 0d06 00       		.byte	0
 4887 0d07 0D       		.uleb128 0xd
 4888 0d08 D00D0000 		.4byte	.LASF177
 4889 0d0c 0D       		.byte	0xd
 4890 0d0d B9       		.byte	0xb9
 4891 0d0e BA0C0000 		.4byte	0xcba
 4892 0d12 04       		.byte	0x4
 4893 0d13 00       		.byte	0
 4894 0d14 04       		.uleb128 0x4
 4895 0d15 8A090000 		.4byte	.LASF202
 4896 0d19 0C       		.byte	0xc
 4897 0d1a 57       		.byte	0x57
 4898 0d1b 1F0D0000 		.4byte	0xd1f
 4899 0d1f 1B       		.uleb128 0x1b
 4900 0d20 581E0000 		.4byte	.LASF203
 4901 0d24 1C       		.byte	0x1c
 4902 0d25 0D       		.byte	0xd
 4903 0d26 9001     		.2byte	0x190
 4904 0d28 7B0D0000 		.4byte	0xd7b
 4905 0d2c 18       		.uleb128 0x18
 4906 0d2d FA1A0000 		.4byte	.LASF204
 4907 0d31 0D       		.byte	0xd
 4908 0d32 9101     		.2byte	0x191
 4909 0d34 E40C0000 		.4byte	0xce4
 4910 0d38 00       		.byte	0
 4911 0d39 18       		.uleb128 0x18
 4912 0d3a 37200000 		.4byte	.LASF205
 4913 0d3e 0D       		.byte	0xd
 4914 0d3f 9201     		.2byte	0x192
 4915 0d41 340B0000 		.4byte	0xb34
 4916 0d45 08       		.byte	0x8
ARM GAS  /var/folders/qd/4mxf5pkd0zdf0b9dd1hp39180000gn/T//ccsf5yWP.s 			page 88


 4917 0d46 18       		.uleb128 0x18
 4918 0d47 B70C0000 		.4byte	.LASF206
 4919 0d4b 0D       		.byte	0xd
 4920 0d4c 9401     		.2byte	0x194
 4921 0d4e C2160000 		.4byte	0x16c2
 4922 0d52 0C       		.byte	0xc
 4923 0d53 18       		.uleb128 0x18
 4924 0d54 CB140000 		.4byte	.LASF207
 4925 0d58 0D       		.byte	0xd
 4926 0d59 9701     		.2byte	0x197
 4927 0d5b BA0C0000 		.4byte	0xcba
 4928 0d5f 10       		.byte	0x10
 4929 0d60 18       		.uleb128 0x18
 4930 0d61 C80D0000 		.4byte	.LASF208
 4931 0d65 0D       		.byte	0xd
 4932 0d66 9801     		.2byte	0x198
 4933 0d68 BA0C0000 		.4byte	0xcba
 4934 0d6c 14       		.byte	0x14
 4935 0d6d 18       		.uleb128 0x18
 4936 0d6e F3100000 		.4byte	.LASF209
 4937 0d72 0D       		.byte	0xd
 4938 0d73 9B01     		.2byte	0x19b
 4939 0d75 BA0C0000 		.4byte	0xcba
 4940 0d79 18       		.byte	0x18
 4941 0d7a 00       		.byte	0
 4942 0d7b 04       		.uleb128 0x4
 4943 0d7c 7B1D0000 		.4byte	.LASF210
 4944 0d80 0C       		.byte	0xc
 4945 0d81 5C       		.byte	0x5c
 4946 0d82 860D0000 		.4byte	0xd86
 4947 0d86 05       		.uleb128 0x5
 4948 0d87 04       		.byte	0x4
 4949 0d88 8C0D0000 		.4byte	0xd8c
 4950 0d8c 1F       		.uleb128 0x1f
 4951 0d8d 970D0000 		.4byte	0xd97
 4952 0d91 16       		.uleb128 0x16
 4953 0d92 6B010000 		.4byte	0x16b
 4954 0d96 00       		.byte	0
 4955 0d97 04       		.uleb128 0x4
 4956 0d98 9B0C0000 		.4byte	.LASF211
 4957 0d9c 0C       		.byte	0xc
 4958 0d9d 61       		.byte	0x61
 4959 0d9e A20D0000 		.4byte	0xda2
 4960 0da2 1B       		.uleb128 0x1b
 4961 0da3 12210000 		.4byte	.LASF212
 4962 0da7 14       		.byte	0x14
 4963 0da8 0D       		.byte	0xd
 4964 0da9 6B01     		.2byte	0x16b
 4965 0dab F10D0000 		.4byte	0xdf1
 4966 0daf 18       		.uleb128 0x18
 4967 0db0 BD0C0000 		.4byte	.LASF213
 4968 0db4 0D       		.byte	0xd
 4969 0db5 6C01     		.2byte	0x16c
 4970 0db7 3E1A0000 		.4byte	0x1a3e
 4971 0dbb 00       		.byte	0
 4972 0dbc 18       		.uleb128 0x18
 4973 0dbd 2F090000 		.4byte	.LASF214
ARM GAS  /var/folders/qd/4mxf5pkd0zdf0b9dd1hp39180000gn/T//ccsf5yWP.s 			page 89


 4974 0dc1 0D       		.byte	0xd
 4975 0dc2 6D01     		.2byte	0x16d
 4976 0dc4 3E1A0000 		.4byte	0x1a3e
 4977 0dc8 04       		.byte	0x4
 4978 0dc9 18       		.uleb128 0x18
 4979 0dca 80150000 		.4byte	.LASF215
 4980 0dce 0D       		.byte	0xd
 4981 0dcf 6E01     		.2byte	0x16e
 4982 0dd1 760B0000 		.4byte	0xb76
 4983 0dd5 08       		.byte	0x8
 4984 0dd6 18       		.uleb128 0x18
 4985 0dd7 F6200000 		.4byte	.LASF216
 4986 0ddb 0D       		.byte	0xd
 4987 0ddc 6F01     		.2byte	0x16f
 4988 0dde 7B0D0000 		.4byte	0xd7b
 4989 0de2 0C       		.byte	0xc
 4990 0de3 18       		.uleb128 0x18
 4991 0de4 620A0000 		.4byte	.LASF217
 4992 0de8 0D       		.byte	0xd
 4993 0de9 7101     		.2byte	0x171
 4994 0deb 6B010000 		.4byte	0x16b
 4995 0def 10       		.byte	0x10
 4996 0df0 00       		.byte	0
 4997 0df1 04       		.uleb128 0x4
 4998 0df2 B7220000 		.4byte	.LASF218
 4999 0df6 0C       		.byte	0xc
 5000 0df7 66       		.byte	0x66
 5001 0df8 FC0D0000 		.4byte	0xdfc
 5002 0dfc 1B       		.uleb128 0x1b
 5003 0dfd 6D030000 		.4byte	.LASF219
 5004 0e01 10       		.byte	0x10
 5005 0e02 0D       		.byte	0xd
 5006 0e03 7B01     		.2byte	0x17b
 5007 0e05 3E0E0000 		.4byte	0xe3e
 5008 0e09 18       		.uleb128 0x18
 5009 0e0a BD0C0000 		.4byte	.LASF213
 5010 0e0e 0D       		.byte	0xd
 5011 0e0f 7C01     		.2byte	0x17c
 5012 0e11 3E1A0000 		.4byte	0x1a3e
 5013 0e15 00       		.byte	0
 5014 0e16 18       		.uleb128 0x18
 5015 0e17 2F090000 		.4byte	.LASF214
 5016 0e1b 0D       		.byte	0xd
 5017 0e1c 7E01     		.2byte	0x17e
 5018 0e1e 3E1A0000 		.4byte	0x1a3e
 5019 0e22 04       		.byte	0x4
 5020 0e23 18       		.uleb128 0x18
 5021 0e24 80150000 		.4byte	.LASF215
 5022 0e28 0D       		.byte	0xd
 5023 0e29 8001     		.2byte	0x180
 5024 0e2b 760B0000 		.4byte	0xb76
 5025 0e2f 08       		.byte	0x8
 5026 0e30 18       		.uleb128 0x18
 5027 0e31 62010000 		.4byte	.LASF220
 5028 0e35 0D       		.byte	0xd
 5029 0e36 8201     		.2byte	0x182
 5030 0e38 810B0000 		.4byte	0xb81
ARM GAS  /var/folders/qd/4mxf5pkd0zdf0b9dd1hp39180000gn/T//ccsf5yWP.s 			page 90


 5031 0e3c 0C       		.byte	0xc
 5032 0e3d 00       		.byte	0
 5033 0e3e 04       		.uleb128 0x4
 5034 0e3f 350A0000 		.4byte	.LASF221
 5035 0e43 0C       		.byte	0xc
 5036 0e44 6B       		.byte	0x6b
 5037 0e45 490E0000 		.4byte	0xe49
 5038 0e49 17       		.uleb128 0x17
 5039 0e4a 811E0000 		.4byte	.LASF222
 5040 0e4e 1404     		.2byte	0x414
 5041 0e50 0D       		.byte	0xd
 5042 0e51 A201     		.2byte	0x1a2
 5043 0e53 8C0E0000 		.4byte	0xe8c
 5044 0e57 18       		.uleb128 0x18
 5045 0e58 9F140000 		.4byte	.LASF223
 5046 0e5c 0D       		.byte	0xd
 5047 0e5d AA01     		.2byte	0x1aa
 5048 0e5f F1050000 		.4byte	0x5f1
 5049 0e63 00       		.byte	0
 5050 0e64 18       		.uleb128 0x18
 5051 0e65 6C140000 		.4byte	.LASF224
 5052 0e69 0D       		.byte	0xd
 5053 0e6a AF01     		.2byte	0x1af
 5054 0e6c 600B0000 		.4byte	0xb60
 5055 0e70 04       		.byte	0x4
 5056 0e71 18       		.uleb128 0x18
 5057 0e72 4A020000 		.4byte	.LASF225
 5058 0e76 0D       		.byte	0xd
 5059 0e77 B301     		.2byte	0x1b3
 5060 0e79 600B0000 		.4byte	0xb60
 5061 0e7d 08       		.byte	0x8
 5062 0e7e 18       		.uleb128 0x18
 5063 0e7f DD170000 		.4byte	.LASF226
 5064 0e83 0D       		.byte	0xd
 5065 0e84 B901     		.2byte	0x1b9
 5066 0e86 AA180000 		.4byte	0x18aa
 5067 0e8a 0C       		.byte	0xc
 5068 0e8b 00       		.byte	0
 5069 0e8c 04       		.uleb128 0x4
 5070 0e8d C5000000 		.4byte	.LASF227
 5071 0e91 0C       		.byte	0xc
 5072 0e92 70       		.byte	0x70
 5073 0e93 970E0000 		.4byte	0xe97
 5074 0e97 17       		.uleb128 0x17
 5075 0e98 CD170000 		.4byte	.LASF228
 5076 0e9c 7006     		.2byte	0x670
 5077 0e9e 0D       		.byte	0xd
 5078 0e9f C201     		.2byte	0x1c2
 5079 0ea1 040F0000 		.4byte	0xf04
 5080 0ea5 18       		.uleb128 0x18
 5081 0ea6 7F050000 		.4byte	.LASF229
 5082 0eaa 0D       		.byte	0xd
 5083 0eab C601     		.2byte	0x1c6
 5084 0ead 140D0000 		.4byte	0xd14
 5085 0eb1 00       		.byte	0
 5086 0eb2 18       		.uleb128 0x18
 5087 0eb3 25050000 		.4byte	.LASF230
ARM GAS  /var/folders/qd/4mxf5pkd0zdf0b9dd1hp39180000gn/T//ccsf5yWP.s 			page 91


 5088 0eb7 0D       		.byte	0xd
 5089 0eb8 CA01     		.2byte	0x1ca
 5090 0eba F10D0000 		.4byte	0xdf1
 5091 0ebe 1C       		.byte	0x1c
 5092 0ebf 25       		.uleb128 0x25
 5093 0ec0 64626700 		.ascii	"dbg\000"
 5094 0ec4 0D       		.byte	0xd
 5095 0ec5 CE01     		.2byte	0x1ce
 5096 0ec7 3E0E0000 		.4byte	0xe3e
 5097 0ecb 2C       		.byte	0x2c
 5098 0ecc 19       		.uleb128 0x19
 5099 0ecd C1180000 		.4byte	.LASF231
 5100 0ed1 0D       		.byte	0xd
 5101 0ed2 D201     		.2byte	0x1d2
 5102 0ed4 860B0000 		.4byte	0xb86
 5103 0ed8 4004     		.2byte	0x440
 5104 0eda 26       		.uleb128 0x26
 5105 0edb 746D00   		.ascii	"tm\000"
 5106 0ede 0D       		.byte	0xd
 5107 0edf D701     		.2byte	0x1d7
 5108 0ee1 CA180000 		.4byte	0x18ca
 5109 0ee5 A804     		.2byte	0x4a8
 5110 0ee7 19       		.uleb128 0x19
 5111 0ee8 431C0000 		.4byte	.LASF232
 5112 0eec 0D       		.byte	0xd
 5113 0eed DD01     		.2byte	0x1dd
 5114 0eef 5C190000 		.4byte	0x195c
 5115 0ef3 B004     		.2byte	0x4b0
 5116 0ef5 19       		.uleb128 0x19
 5117 0ef6 C5200000 		.4byte	.LASF233
 5118 0efa 0D       		.byte	0xd
 5119 0efb E301     		.2byte	0x1e3
 5120 0efd 441A0000 		.4byte	0x1a44
 5121 0f01 E804     		.2byte	0x4e8
 5122 0f03 00       		.byte	0
 5123 0f04 0A       		.uleb128 0xa
 5124 0f05 D20A0000 		.4byte	0xad2
 5125 0f09 140F0000 		.4byte	0xf14
 5126 0f0d 0B       		.uleb128 0xb
 5127 0f0e 45000000 		.4byte	0x45
 5128 0f12 01       		.byte	0x1
 5129 0f13 00       		.byte	0
 5130 0f14 0A       		.uleb128 0xa
 5131 0f15 D20A0000 		.4byte	0xad2
 5132 0f19 240F0000 		.4byte	0xf24
 5133 0f1d 0B       		.uleb128 0xb
 5134 0f1e 45000000 		.4byte	0x45
 5135 0f22 07       		.byte	0x7
 5136 0f23 00       		.byte	0
 5137 0f24 20       		.uleb128 0x20
 5138 0f25 45200000 		.4byte	.LASF234
 5139 0f29 0E       		.byte	0xe
 5140 0f2a A706     		.2byte	0x6a7
 5141 0f2c CD0A0000 		.4byte	0xacd
 5142 0f30 24       		.uleb128 0x24
 5143 0f31 F6160000 		.4byte	.LASF235
 5144 0f35 0F       		.byte	0xf
ARM GAS  /var/folders/qd/4mxf5pkd0zdf0b9dd1hp39180000gn/T//ccsf5yWP.s 			page 92


 5145 0f36 4C       		.byte	0x4c
 5146 0f37 D20A0000 		.4byte	0xad2
 5147 0f3b 0C       		.uleb128 0xc
 5148 0f3c 50       		.byte	0x50
 5149 0f3d 10       		.byte	0x10
 5150 0f3e C4       		.byte	0xc4
 5151 0f3f 32100000 		.4byte	0x1032
 5152 0f43 11       		.uleb128 0x11
 5153 0f44 535200   		.ascii	"SR\000"
 5154 0f47 10       		.byte	0x10
 5155 0f48 C6       		.byte	0xc6
 5156 0f49 DD0A0000 		.4byte	0xadd
 5157 0f4d 00       		.byte	0
 5158 0f4e 11       		.uleb128 0x11
 5159 0f4f 43523100 		.ascii	"CR1\000"
 5160 0f53 10       		.byte	0x10
 5161 0f54 C7       		.byte	0xc7
 5162 0f55 DD0A0000 		.4byte	0xadd
 5163 0f59 04       		.byte	0x4
 5164 0f5a 11       		.uleb128 0x11
 5165 0f5b 43523200 		.ascii	"CR2\000"
 5166 0f5f 10       		.byte	0x10
 5167 0f60 C8       		.byte	0xc8
 5168 0f61 DD0A0000 		.4byte	0xadd
 5169 0f65 08       		.byte	0x8
 5170 0f66 0D       		.uleb128 0xd
 5171 0f67 B9020000 		.4byte	.LASF236
 5172 0f6b 10       		.byte	0x10
 5173 0f6c C9       		.byte	0xc9
 5174 0f6d DD0A0000 		.4byte	0xadd
 5175 0f71 0C       		.byte	0xc
 5176 0f72 0D       		.uleb128 0xd
 5177 0f73 BF020000 		.4byte	.LASF237
 5178 0f77 10       		.byte	0x10
 5179 0f78 CA       		.byte	0xca
 5180 0f79 DD0A0000 		.4byte	0xadd
 5181 0f7d 10       		.byte	0x10
 5182 0f7e 0D       		.uleb128 0xd
 5183 0f7f 690A0000 		.4byte	.LASF238
 5184 0f83 10       		.byte	0x10
 5185 0f84 CB       		.byte	0xcb
 5186 0f85 DD0A0000 		.4byte	0xadd
 5187 0f89 14       		.byte	0x14
 5188 0f8a 0D       		.uleb128 0xd
 5189 0f8b 6F0A0000 		.4byte	.LASF239
 5190 0f8f 10       		.byte	0x10
 5191 0f90 CC       		.byte	0xcc
 5192 0f91 DD0A0000 		.4byte	0xadd
 5193 0f95 18       		.byte	0x18
 5194 0f96 0D       		.uleb128 0xd
 5195 0f97 91110000 		.4byte	.LASF240
 5196 0f9b 10       		.byte	0x10
 5197 0f9c CD       		.byte	0xcd
 5198 0f9d DD0A0000 		.4byte	0xadd
 5199 0fa1 1C       		.byte	0x1c
 5200 0fa2 0D       		.uleb128 0xd
 5201 0fa3 750A0000 		.4byte	.LASF241
ARM GAS  /var/folders/qd/4mxf5pkd0zdf0b9dd1hp39180000gn/T//ccsf5yWP.s 			page 93


 5202 0fa7 10       		.byte	0x10
 5203 0fa8 CE       		.byte	0xce
 5204 0fa9 DD0A0000 		.4byte	0xadd
 5205 0fad 20       		.byte	0x20
 5206 0fae 11       		.uleb128 0x11
 5207 0faf 48545200 		.ascii	"HTR\000"
 5208 0fb3 10       		.byte	0x10
 5209 0fb4 CF       		.byte	0xcf
 5210 0fb5 DD0A0000 		.4byte	0xadd
 5211 0fb9 24       		.byte	0x24
 5212 0fba 11       		.uleb128 0x11
 5213 0fbb 4C545200 		.ascii	"LTR\000"
 5214 0fbf 10       		.byte	0x10
 5215 0fc0 D0       		.byte	0xd0
 5216 0fc1 DD0A0000 		.4byte	0xadd
 5217 0fc5 28       		.byte	0x28
 5218 0fc6 0D       		.uleb128 0xd
 5219 0fc7 8B130000 		.4byte	.LASF242
 5220 0fcb 10       		.byte	0x10
 5221 0fcc D1       		.byte	0xd1
 5222 0fcd DD0A0000 		.4byte	0xadd
 5223 0fd1 2C       		.byte	0x2c
 5224 0fd2 0D       		.uleb128 0xd
 5225 0fd3 90130000 		.4byte	.LASF243
 5226 0fd7 10       		.byte	0x10
 5227 0fd8 D2       		.byte	0xd2
 5228 0fd9 DD0A0000 		.4byte	0xadd
 5229 0fdd 30       		.byte	0x30
 5230 0fde 0D       		.uleb128 0xd
 5231 0fdf 95130000 		.4byte	.LASF244
 5232 0fe3 10       		.byte	0x10
 5233 0fe4 D3       		.byte	0xd3
 5234 0fe5 DD0A0000 		.4byte	0xadd
 5235 0fe9 34       		.byte	0x34
 5236 0fea 0D       		.uleb128 0xd
 5237 0feb 740C0000 		.4byte	.LASF245
 5238 0fef 10       		.byte	0x10
 5239 0ff0 D4       		.byte	0xd4
 5240 0ff1 DD0A0000 		.4byte	0xadd
 5241 0ff5 38       		.byte	0x38
 5242 0ff6 0D       		.uleb128 0xd
 5243 0ff7 3C220000 		.4byte	.LASF246
 5244 0ffb 10       		.byte	0x10
 5245 0ffc D5       		.byte	0xd5
 5246 0ffd DD0A0000 		.4byte	0xadd
 5247 1001 3C       		.byte	0x3c
 5248 1002 0D       		.uleb128 0xd
 5249 1003 CE0C0000 		.4byte	.LASF247
 5250 1007 10       		.byte	0x10
 5251 1008 D6       		.byte	0xd6
 5252 1009 DD0A0000 		.4byte	0xadd
 5253 100d 40       		.byte	0x40
 5254 100e 0D       		.uleb128 0xd
 5255 100f 50220000 		.4byte	.LASF248
 5256 1013 10       		.byte	0x10
 5257 1014 D7       		.byte	0xd7
 5258 1015 DD0A0000 		.4byte	0xadd
ARM GAS  /var/folders/qd/4mxf5pkd0zdf0b9dd1hp39180000gn/T//ccsf5yWP.s 			page 94


 5259 1019 44       		.byte	0x44
 5260 101a 0D       		.uleb128 0xd
 5261 101b 55220000 		.4byte	.LASF249
 5262 101f 10       		.byte	0x10
 5263 1020 D8       		.byte	0xd8
 5264 1021 DD0A0000 		.4byte	0xadd
 5265 1025 48       		.byte	0x48
 5266 1026 11       		.uleb128 0x11
 5267 1027 445200   		.ascii	"DR\000"
 5268 102a 10       		.byte	0x10
 5269 102b D9       		.byte	0xd9
 5270 102c DD0A0000 		.4byte	0xadd
 5271 1030 4C       		.byte	0x4c
 5272 1031 00       		.byte	0
 5273 1032 04       		.uleb128 0x4
 5274 1033 D3150000 		.4byte	.LASF250
 5275 1037 10       		.byte	0x10
 5276 1038 DA       		.byte	0xda
 5277 1039 3B0F0000 		.4byte	0xf3b
 5278 103d 0C       		.uleb128 0xc
 5279 103e 10       		.byte	0x10
 5280 103f 10       		.byte	0x10
 5281 1040 E9       		.byte	0xe9
 5282 1041 76100000 		.4byte	0x1076
 5283 1045 11       		.uleb128 0x11
 5284 1046 54495200 		.ascii	"TIR\000"
 5285 104a 10       		.byte	0x10
 5286 104b EB       		.byte	0xeb
 5287 104c DD0A0000 		.4byte	0xadd
 5288 1050 00       		.byte	0
 5289 1051 0D       		.uleb128 0xd
 5290 1052 58110000 		.4byte	.LASF251
 5291 1056 10       		.byte	0x10
 5292 1057 EC       		.byte	0xec
 5293 1058 DD0A0000 		.4byte	0xadd
 5294 105c 04       		.byte	0x4
 5295 105d 0D       		.uleb128 0xd
 5296 105e B3180000 		.4byte	.LASF252
 5297 1062 10       		.byte	0x10
 5298 1063 ED       		.byte	0xed
 5299 1064 DD0A0000 		.4byte	0xadd
 5300 1068 08       		.byte	0x8
 5301 1069 0D       		.uleb128 0xd
 5302 106a 35160000 		.4byte	.LASF253
 5303 106e 10       		.byte	0x10
 5304 106f EE       		.byte	0xee
 5305 1070 DD0A0000 		.4byte	0xadd
 5306 1074 0C       		.byte	0xc
 5307 1075 00       		.byte	0
 5308 1076 04       		.uleb128 0x4
 5309 1077 69050000 		.4byte	.LASF254
 5310 107b 10       		.byte	0x10
 5311 107c EF       		.byte	0xef
 5312 107d 3D100000 		.4byte	0x103d
 5313 1081 0C       		.uleb128 0xc
 5314 1082 10       		.byte	0x10
 5315 1083 10       		.byte	0x10
ARM GAS  /var/folders/qd/4mxf5pkd0zdf0b9dd1hp39180000gn/T//ccsf5yWP.s 			page 95


 5316 1084 F5       		.byte	0xf5
 5317 1085 BA100000 		.4byte	0x10ba
 5318 1089 11       		.uleb128 0x11
 5319 108a 52495200 		.ascii	"RIR\000"
 5320 108e 10       		.byte	0x10
 5321 108f F7       		.byte	0xf7
 5322 1090 DD0A0000 		.4byte	0xadd
 5323 1094 00       		.byte	0
 5324 1095 0D       		.uleb128 0xd
 5325 1096 3B1E0000 		.4byte	.LASF255
 5326 109a 10       		.byte	0x10
 5327 109b F8       		.byte	0xf8
 5328 109c DD0A0000 		.4byte	0xadd
 5329 10a0 04       		.byte	0x4
 5330 10a1 0D       		.uleb128 0xd
 5331 10a2 DF190000 		.4byte	.LASF256
 5332 10a6 10       		.byte	0x10
 5333 10a7 F9       		.byte	0xf9
 5334 10a8 DD0A0000 		.4byte	0xadd
 5335 10ac 08       		.byte	0x8
 5336 10ad 0D       		.uleb128 0xd
 5337 10ae 7C170000 		.4byte	.LASF257
 5338 10b2 10       		.byte	0x10
 5339 10b3 FA       		.byte	0xfa
 5340 10b4 DD0A0000 		.4byte	0xadd
 5341 10b8 0C       		.byte	0xc
 5342 10b9 00       		.byte	0
 5343 10ba 04       		.uleb128 0x4
 5344 10bb 841D0000 		.4byte	.LASF258
 5345 10bf 10       		.byte	0x10
 5346 10c0 FB       		.byte	0xfb
 5347 10c1 81100000 		.4byte	0x1081
 5348 10c5 1C       		.uleb128 0x1c
 5349 10c6 08       		.byte	0x8
 5350 10c7 10       		.byte	0x10
 5351 10c8 0101     		.2byte	0x101
 5352 10ca E9100000 		.4byte	0x10e9
 5353 10ce 25       		.uleb128 0x25
 5354 10cf 46523100 		.ascii	"FR1\000"
 5355 10d3 10       		.byte	0x10
 5356 10d4 0301     		.2byte	0x103
 5357 10d6 DD0A0000 		.4byte	0xadd
 5358 10da 00       		.byte	0
 5359 10db 25       		.uleb128 0x25
 5360 10dc 46523200 		.ascii	"FR2\000"
 5361 10e0 10       		.byte	0x10
 5362 10e1 0401     		.2byte	0x104
 5363 10e3 DD0A0000 		.4byte	0xadd
 5364 10e7 04       		.byte	0x4
 5365 10e8 00       		.byte	0
 5366 10e9 07       		.uleb128 0x7
 5367 10ea 5D110000 		.4byte	.LASF259
 5368 10ee 10       		.byte	0x10
 5369 10ef 0501     		.2byte	0x105
 5370 10f1 C5100000 		.4byte	0x10c5
 5371 10f5 27       		.uleb128 0x27
 5372 10f6 2003     		.2byte	0x320
ARM GAS  /var/folders/qd/4mxf5pkd0zdf0b9dd1hp39180000gn/T//ccsf5yWP.s 			page 96


 5373 10f8 10       		.byte	0x10
 5374 10f9 0B01     		.2byte	0x10b
 5375 10fb 2B120000 		.4byte	0x122b
 5376 10ff 25       		.uleb128 0x25
 5377 1100 4D435200 		.ascii	"MCR\000"
 5378 1104 10       		.byte	0x10
 5379 1105 0D01     		.2byte	0x10d
 5380 1107 DD0A0000 		.4byte	0xadd
 5381 110b 00       		.byte	0
 5382 110c 25       		.uleb128 0x25
 5383 110d 4D535200 		.ascii	"MSR\000"
 5384 1111 10       		.byte	0x10
 5385 1112 0E01     		.2byte	0x10e
 5386 1114 DD0A0000 		.4byte	0xadd
 5387 1118 04       		.byte	0x4
 5388 1119 25       		.uleb128 0x25
 5389 111a 54535200 		.ascii	"TSR\000"
 5390 111e 10       		.byte	0x10
 5391 111f 0F01     		.2byte	0x10f
 5392 1121 DD0A0000 		.4byte	0xadd
 5393 1125 08       		.byte	0x8
 5394 1126 18       		.uleb128 0x18
 5395 1127 800E0000 		.4byte	.LASF260
 5396 112b 10       		.byte	0x10
 5397 112c 1001     		.2byte	0x110
 5398 112e DD0A0000 		.4byte	0xadd
 5399 1132 0C       		.byte	0xc
 5400 1133 18       		.uleb128 0x18
 5401 1134 2D1A0000 		.4byte	.LASF261
 5402 1138 10       		.byte	0x10
 5403 1139 1101     		.2byte	0x111
 5404 113b DD0A0000 		.4byte	0xadd
 5405 113f 10       		.byte	0x10
 5406 1140 25       		.uleb128 0x25
 5407 1141 49455200 		.ascii	"IER\000"
 5408 1145 10       		.byte	0x10
 5409 1146 1201     		.2byte	0x112
 5410 1148 DD0A0000 		.4byte	0xadd
 5411 114c 14       		.byte	0x14
 5412 114d 25       		.uleb128 0x25
 5413 114e 45535200 		.ascii	"ESR\000"
 5414 1152 10       		.byte	0x10
 5415 1153 1301     		.2byte	0x113
 5416 1155 DD0A0000 		.4byte	0xadd
 5417 1159 18       		.byte	0x18
 5418 115a 25       		.uleb128 0x25
 5419 115b 42545200 		.ascii	"BTR\000"
 5420 115f 10       		.byte	0x10
 5421 1160 1401     		.2byte	0x114
 5422 1162 DD0A0000 		.4byte	0xadd
 5423 1166 1C       		.byte	0x1c
 5424 1167 18       		.uleb128 0x18
 5425 1168 681F0000 		.4byte	.LASF262
 5426 116c 10       		.byte	0x10
 5427 116d 1501     		.2byte	0x115
 5428 116f 2B120000 		.4byte	0x122b
 5429 1173 20       		.byte	0x20
ARM GAS  /var/folders/qd/4mxf5pkd0zdf0b9dd1hp39180000gn/T//ccsf5yWP.s 			page 97


 5430 1174 19       		.uleb128 0x19
 5431 1175 47120000 		.4byte	.LASF263
 5432 1179 10       		.byte	0x10
 5433 117a 1601     		.2byte	0x116
 5434 117c 3B120000 		.4byte	0x123b
 5435 1180 8001     		.2byte	0x180
 5436 1182 19       		.uleb128 0x19
 5437 1183 D4230000 		.4byte	.LASF264
 5438 1187 10       		.byte	0x10
 5439 1188 1701     		.2byte	0x117
 5440 118a 4B120000 		.4byte	0x124b
 5441 118e B001     		.2byte	0x1b0
 5442 1190 19       		.uleb128 0x19
 5443 1191 721F0000 		.4byte	.LASF265
 5444 1195 10       		.byte	0x10
 5445 1196 1801     		.2byte	0x118
 5446 1198 5B120000 		.4byte	0x125b
 5447 119c D001     		.2byte	0x1d0
 5448 119e 26       		.uleb128 0x26
 5449 119f 464D5200 		.ascii	"FMR\000"
 5450 11a3 10       		.byte	0x10
 5451 11a4 1901     		.2byte	0x119
 5452 11a6 DD0A0000 		.4byte	0xadd
 5453 11aa 0002     		.2byte	0x200
 5454 11ac 19       		.uleb128 0x19
 5455 11ad DF0A0000 		.4byte	.LASF266
 5456 11b1 10       		.byte	0x10
 5457 11b2 1A01     		.2byte	0x11a
 5458 11b4 DD0A0000 		.4byte	0xadd
 5459 11b8 0402     		.2byte	0x204
 5460 11ba 19       		.uleb128 0x19
 5461 11bb 7C1F0000 		.4byte	.LASF267
 5462 11bf 10       		.byte	0x10
 5463 11c0 1B01     		.2byte	0x11b
 5464 11c2 D20A0000 		.4byte	0xad2
 5465 11c6 0802     		.2byte	0x208
 5466 11c8 19       		.uleb128 0x19
 5467 11c9 6B210000 		.4byte	.LASF268
 5468 11cd 10       		.byte	0x10
 5469 11ce 1C01     		.2byte	0x11c
 5470 11d0 DD0A0000 		.4byte	0xadd
 5471 11d4 0C02     		.2byte	0x20c
 5472 11d6 19       		.uleb128 0x19
 5473 11d7 861F0000 		.4byte	.LASF269
 5474 11db 10       		.byte	0x10
 5475 11dc 1D01     		.2byte	0x11d
 5476 11de D20A0000 		.4byte	0xad2
 5477 11e2 1002     		.2byte	0x210
 5478 11e4 19       		.uleb128 0x19
 5479 11e5 271A0000 		.4byte	.LASF270
 5480 11e9 10       		.byte	0x10
 5481 11ea 1E01     		.2byte	0x11e
 5482 11ec DD0A0000 		.4byte	0xadd
 5483 11f0 1402     		.2byte	0x214
 5484 11f2 19       		.uleb128 0x19
 5485 11f3 901F0000 		.4byte	.LASF271
 5486 11f7 10       		.byte	0x10
ARM GAS  /var/folders/qd/4mxf5pkd0zdf0b9dd1hp39180000gn/T//ccsf5yWP.s 			page 98


 5487 11f8 1F01     		.2byte	0x11f
 5488 11fa D20A0000 		.4byte	0xad2
 5489 11fe 1802     		.2byte	0x218
 5490 1200 19       		.uleb128 0x19
 5491 1201 10040000 		.4byte	.LASF272
 5492 1205 10       		.byte	0x10
 5493 1206 2001     		.2byte	0x120
 5494 1208 DD0A0000 		.4byte	0xadd
 5495 120c 1C02     		.2byte	0x21c
 5496 120e 19       		.uleb128 0x19
 5497 120f 9A1F0000 		.4byte	.LASF273
 5498 1213 10       		.byte	0x10
 5499 1214 2101     		.2byte	0x121
 5500 1216 140F0000 		.4byte	0xf14
 5501 121a 2002     		.2byte	0x220
 5502 121c 19       		.uleb128 0x19
 5503 121d 18060000 		.4byte	.LASF274
 5504 1221 10       		.byte	0x10
 5505 1222 2201     		.2byte	0x122
 5506 1224 6B120000 		.4byte	0x126b
 5507 1228 4002     		.2byte	0x240
 5508 122a 00       		.byte	0
 5509 122b 0A       		.uleb128 0xa
 5510 122c D20A0000 		.4byte	0xad2
 5511 1230 3B120000 		.4byte	0x123b
 5512 1234 0B       		.uleb128 0xb
 5513 1235 45000000 		.4byte	0x45
 5514 1239 57       		.byte	0x57
 5515 123a 00       		.byte	0
 5516 123b 0A       		.uleb128 0xa
 5517 123c 76100000 		.4byte	0x1076
 5518 1240 4B120000 		.4byte	0x124b
 5519 1244 0B       		.uleb128 0xb
 5520 1245 45000000 		.4byte	0x45
 5521 1249 02       		.byte	0x2
 5522 124a 00       		.byte	0
 5523 124b 0A       		.uleb128 0xa
 5524 124c BA100000 		.4byte	0x10ba
 5525 1250 5B120000 		.4byte	0x125b
 5526 1254 0B       		.uleb128 0xb
 5527 1255 45000000 		.4byte	0x45
 5528 1259 01       		.byte	0x1
 5529 125a 00       		.byte	0
 5530 125b 0A       		.uleb128 0xa
 5531 125c D20A0000 		.4byte	0xad2
 5532 1260 6B120000 		.4byte	0x126b
 5533 1264 0B       		.uleb128 0xb
 5534 1265 45000000 		.4byte	0x45
 5535 1269 0B       		.byte	0xb
 5536 126a 00       		.byte	0
 5537 126b 0A       		.uleb128 0xa
 5538 126c E9100000 		.4byte	0x10e9
 5539 1270 7B120000 		.4byte	0x127b
 5540 1274 0B       		.uleb128 0xb
 5541 1275 45000000 		.4byte	0x45
 5542 1279 1B       		.byte	0x1b
 5543 127a 00       		.byte	0
ARM GAS  /var/folders/qd/4mxf5pkd0zdf0b9dd1hp39180000gn/T//ccsf5yWP.s 			page 99


 5544 127b 07       		.uleb128 0x7
 5545 127c 290D0000 		.4byte	.LASF275
 5546 1280 10       		.byte	0x10
 5547 1281 2301     		.2byte	0x123
 5548 1283 F5100000 		.4byte	0x10f5
 5549 1287 1C       		.uleb128 0x1c
 5550 1288 38       		.byte	0x38
 5551 1289 10       		.byte	0x10
 5552 128a 3601     		.2byte	0x136
 5553 128c 45130000 		.4byte	0x1345
 5554 1290 25       		.uleb128 0x25
 5555 1291 435200   		.ascii	"CR\000"
 5556 1294 10       		.byte	0x10
 5557 1295 3801     		.2byte	0x138
 5558 1297 DD0A0000 		.4byte	0xadd
 5559 129b 00       		.byte	0
 5560 129c 18       		.uleb128 0x18
 5561 129d 56170000 		.4byte	.LASF276
 5562 12a1 10       		.byte	0x10
 5563 12a2 3901     		.2byte	0x139
 5564 12a4 DD0A0000 		.4byte	0xadd
 5565 12a8 04       		.byte	0x4
 5566 12a9 18       		.uleb128 0x18
 5567 12aa B61F0000 		.4byte	.LASF277
 5568 12ae 10       		.byte	0x10
 5569 12af 3A01     		.2byte	0x13a
 5570 12b1 DD0A0000 		.4byte	0xadd
 5571 12b5 08       		.byte	0x8
 5572 12b6 18       		.uleb128 0x18
 5573 12b7 DF1B0000 		.4byte	.LASF278
 5574 12bb 10       		.byte	0x10
 5575 12bc 3B01     		.2byte	0x13b
 5576 12be DD0A0000 		.4byte	0xadd
 5577 12c2 0C       		.byte	0xc
 5578 12c3 18       		.uleb128 0x18
 5579 12c4 440A0000 		.4byte	.LASF279
 5580 12c8 10       		.byte	0x10
 5581 12c9 3C01     		.2byte	0x13c
 5582 12cb DD0A0000 		.4byte	0xadd
 5583 12cf 10       		.byte	0x10
 5584 12d0 18       		.uleb128 0x18
 5585 12d1 BE1F0000 		.4byte	.LASF280
 5586 12d5 10       		.byte	0x10
 5587 12d6 3D01     		.2byte	0x13d
 5588 12d8 DD0A0000 		.4byte	0xadd
 5589 12dc 14       		.byte	0x14
 5590 12dd 18       		.uleb128 0x18
 5591 12de E71B0000 		.4byte	.LASF281
 5592 12e2 10       		.byte	0x10
 5593 12e3 3E01     		.2byte	0x13e
 5594 12e5 DD0A0000 		.4byte	0xadd
 5595 12e9 18       		.byte	0x18
 5596 12ea 18       		.uleb128 0x18
 5597 12eb 4B0A0000 		.4byte	.LASF282
 5598 12ef 10       		.byte	0x10
 5599 12f0 3F01     		.2byte	0x13f
 5600 12f2 DD0A0000 		.4byte	0xadd
ARM GAS  /var/folders/qd/4mxf5pkd0zdf0b9dd1hp39180000gn/T//ccsf5yWP.s 			page 100


 5601 12f6 1C       		.byte	0x1c
 5602 12f7 18       		.uleb128 0x18
 5603 12f8 10200000 		.4byte	.LASF283
 5604 12fc 10       		.byte	0x10
 5605 12fd 4001     		.2byte	0x140
 5606 12ff DD0A0000 		.4byte	0xadd
 5607 1303 20       		.byte	0x20
 5608 1304 18       		.uleb128 0x18
 5609 1305 3B1C0000 		.4byte	.LASF284
 5610 1309 10       		.byte	0x10
 5611 130a 4101     		.2byte	0x141
 5612 130c DD0A0000 		.4byte	0xadd
 5613 1310 24       		.byte	0x24
 5614 1311 18       		.uleb128 0x18
 5615 1312 EB230000 		.4byte	.LASF285
 5616 1316 10       		.byte	0x10
 5617 1317 4201     		.2byte	0x142
 5618 1319 DD0A0000 		.4byte	0xadd
 5619 131d 28       		.byte	0x28
 5620 131e 18       		.uleb128 0x18
 5621 131f 6D010000 		.4byte	.LASF286
 5622 1323 10       		.byte	0x10
 5623 1324 4301     		.2byte	0x143
 5624 1326 DD0A0000 		.4byte	0xadd
 5625 132a 2C       		.byte	0x2c
 5626 132b 18       		.uleb128 0x18
 5627 132c 72010000 		.4byte	.LASF287
 5628 1330 10       		.byte	0x10
 5629 1331 4401     		.2byte	0x144
 5630 1333 DD0A0000 		.4byte	0xadd
 5631 1337 30       		.byte	0x30
 5632 1338 25       		.uleb128 0x25
 5633 1339 535200   		.ascii	"SR\000"
 5634 133c 10       		.byte	0x10
 5635 133d 4501     		.2byte	0x145
 5636 133f DD0A0000 		.4byte	0xadd
 5637 1343 34       		.byte	0x34
 5638 1344 00       		.byte	0
 5639 1345 07       		.uleb128 0x7
 5640 1346 9C1D0000 		.4byte	.LASF288
 5641 134a 10       		.byte	0x10
 5642 134b 4601     		.2byte	0x146
 5643 134d 87120000 		.4byte	0x1287
 5644 1351 1C       		.uleb128 0x1c
 5645 1352 18       		.byte	0x18
 5646 1353 10       		.byte	0x10
 5647 1354 6B01     		.2byte	0x16b
 5648 1356 A8130000 		.4byte	0x13a8
 5649 135a 25       		.uleb128 0x25
 5650 135b 435200   		.ascii	"CR\000"
 5651 135e 10       		.byte	0x10
 5652 135f 6D01     		.2byte	0x16d
 5653 1361 DD0A0000 		.4byte	0xadd
 5654 1365 00       		.byte	0
 5655 1366 18       		.uleb128 0x18
 5656 1367 A1200000 		.4byte	.LASF289
 5657 136b 10       		.byte	0x10
ARM GAS  /var/folders/qd/4mxf5pkd0zdf0b9dd1hp39180000gn/T//ccsf5yWP.s 			page 101


 5658 136c 6E01     		.2byte	0x16e
 5659 136e DD0A0000 		.4byte	0xadd
 5660 1372 04       		.byte	0x4
 5661 1373 25       		.uleb128 0x25
 5662 1374 50415200 		.ascii	"PAR\000"
 5663 1378 10       		.byte	0x10
 5664 1379 6F01     		.2byte	0x16f
 5665 137b DD0A0000 		.4byte	0xadd
 5666 137f 08       		.byte	0x8
 5667 1380 18       		.uleb128 0x18
 5668 1381 D3030000 		.4byte	.LASF290
 5669 1385 10       		.byte	0x10
 5670 1386 7001     		.2byte	0x170
 5671 1388 DD0A0000 		.4byte	0xadd
 5672 138c 0C       		.byte	0xc
 5673 138d 18       		.uleb128 0x18
 5674 138e 07080000 		.4byte	.LASF291
 5675 1392 10       		.byte	0x10
 5676 1393 7101     		.2byte	0x171
 5677 1395 DD0A0000 		.4byte	0xadd
 5678 1399 10       		.byte	0x10
 5679 139a 25       		.uleb128 0x25
 5680 139b 46435200 		.ascii	"FCR\000"
 5681 139f 10       		.byte	0x10
 5682 13a0 7201     		.2byte	0x172
 5683 13a2 DD0A0000 		.4byte	0xadd
 5684 13a6 14       		.byte	0x14
 5685 13a7 00       		.byte	0
 5686 13a8 07       		.uleb128 0x7
 5687 13a9 11080000 		.4byte	.LASF292
 5688 13ad 10       		.byte	0x10
 5689 13ae 7301     		.2byte	0x173
 5690 13b0 51130000 		.4byte	0x1351
 5691 13b4 0A       		.uleb128 0xa
 5692 13b5 DD0A0000 		.4byte	0xadd
 5693 13b9 C4130000 		.4byte	0x13c4
 5694 13bd 0B       		.uleb128 0xb
 5695 13be 45000000 		.4byte	0x45
 5696 13c2 01       		.byte	0x1
 5697 13c3 00       		.byte	0
 5698 13c4 1A       		.uleb128 0x1a
 5699 13c5 B4130000 		.4byte	0x13b4
 5700 13c9 0A       		.uleb128 0xa
 5701 13ca DD0A0000 		.4byte	0xadd
 5702 13ce D9130000 		.4byte	0x13d9
 5703 13d2 0B       		.uleb128 0xb
 5704 13d3 45000000 		.4byte	0x45
 5705 13d7 03       		.byte	0x3
 5706 13d8 00       		.byte	0
 5707 13d9 1A       		.uleb128 0x1a
 5708 13da C9130000 		.4byte	0x13c9
 5709 13de 1C       		.uleb128 0x1c
 5710 13df 28       		.byte	0x28
 5711 13e0 10       		.byte	0x10
 5712 13e1 3F02     		.2byte	0x23f
 5713 13e3 69140000 		.4byte	0x1469
 5714 13e7 25       		.uleb128 0x25
ARM GAS  /var/folders/qd/4mxf5pkd0zdf0b9dd1hp39180000gn/T//ccsf5yWP.s 			page 102


 5715 13e8 43523100 		.ascii	"CR1\000"
 5716 13ec 10       		.byte	0x10
 5717 13ed 4102     		.2byte	0x241
 5718 13ef DD0A0000 		.4byte	0xadd
 5719 13f3 00       		.byte	0
 5720 13f4 25       		.uleb128 0x25
 5721 13f5 43523200 		.ascii	"CR2\000"
 5722 13f9 10       		.byte	0x10
 5723 13fa 4202     		.2byte	0x242
 5724 13fc DD0A0000 		.4byte	0xadd
 5725 1400 04       		.byte	0x4
 5726 1401 18       		.uleb128 0x18
 5727 1402 87260000 		.4byte	.LASF293
 5728 1406 10       		.byte	0x10
 5729 1407 4302     		.2byte	0x243
 5730 1409 DD0A0000 		.4byte	0xadd
 5731 140d 08       		.byte	0x8
 5732 140e 18       		.uleb128 0x18
 5733 140f 8C260000 		.4byte	.LASF294
 5734 1413 10       		.byte	0x10
 5735 1414 4402     		.2byte	0x244
 5736 1416 DD0A0000 		.4byte	0xadd
 5737 141a 0C       		.byte	0xc
 5738 141b 25       		.uleb128 0x25
 5739 141c 445200   		.ascii	"DR\000"
 5740 141f 10       		.byte	0x10
 5741 1420 4502     		.2byte	0x245
 5742 1422 DD0A0000 		.4byte	0xadd
 5743 1426 10       		.byte	0x10
 5744 1427 25       		.uleb128 0x25
 5745 1428 53523100 		.ascii	"SR1\000"
 5746 142c 10       		.byte	0x10
 5747 142d 4602     		.2byte	0x246
 5748 142f DD0A0000 		.4byte	0xadd
 5749 1433 14       		.byte	0x14
 5750 1434 25       		.uleb128 0x25
 5751 1435 53523200 		.ascii	"SR2\000"
 5752 1439 10       		.byte	0x10
 5753 143a 4702     		.2byte	0x247
 5754 143c DD0A0000 		.4byte	0xadd
 5755 1440 18       		.byte	0x18
 5756 1441 25       		.uleb128 0x25
 5757 1442 43435200 		.ascii	"CCR\000"
 5758 1446 10       		.byte	0x10
 5759 1447 4802     		.2byte	0x248
 5760 1449 DD0A0000 		.4byte	0xadd
 5761 144d 1C       		.byte	0x1c
 5762 144e 18       		.uleb128 0x18
 5763 144f 37050000 		.4byte	.LASF295
 5764 1453 10       		.byte	0x10
 5765 1454 4902     		.2byte	0x249
 5766 1456 DD0A0000 		.4byte	0xadd
 5767 145a 20       		.byte	0x20
 5768 145b 18       		.uleb128 0x18
 5769 145c 1A250000 		.4byte	.LASF296
 5770 1460 10       		.byte	0x10
 5771 1461 4A02     		.2byte	0x24a
ARM GAS  /var/folders/qd/4mxf5pkd0zdf0b9dd1hp39180000gn/T//ccsf5yWP.s 			page 103


 5772 1463 DD0A0000 		.4byte	0xadd
 5773 1467 24       		.byte	0x24
 5774 1468 00       		.byte	0
 5775 1469 07       		.uleb128 0x7
 5776 146a EF120000 		.4byte	.LASF297
 5777 146e 10       		.byte	0x10
 5778 146f 4B02     		.2byte	0x24b
 5779 1471 DE130000 		.4byte	0x13de
 5780 1475 1C       		.uleb128 0x1c
 5781 1476 84       		.byte	0x84
 5782 1477 10       		.byte	0x10
 5783 1478 BF02     		.2byte	0x2bf
 5784 147a 83150000 		.4byte	0x1583
 5785 147e 18       		.uleb128 0x18
 5786 147f D7170000 		.4byte	.LASF298
 5787 1483 10       		.byte	0x10
 5788 1484 C102     		.2byte	0x2c1
 5789 1486 DD0A0000 		.4byte	0xadd
 5790 148a 00       		.byte	0
 5791 148b 18       		.uleb128 0x18
 5792 148c F1210000 		.4byte	.LASF299
 5793 1490 10       		.byte	0x10
 5794 1491 C202     		.2byte	0x2c2
 5795 1493 DD0A0000 		.4byte	0xadd
 5796 1497 04       		.byte	0x4
 5797 1498 25       		.uleb128 0x25
 5798 1499 41524700 		.ascii	"ARG\000"
 5799 149d 10       		.byte	0x10
 5800 149e C302     		.2byte	0x2c3
 5801 14a0 DD0A0000 		.4byte	0xadd
 5802 14a4 08       		.byte	0x8
 5803 14a5 25       		.uleb128 0x25
 5804 14a6 434D4400 		.ascii	"CMD\000"
 5805 14aa 10       		.byte	0x10
 5806 14ab C402     		.2byte	0x2c4
 5807 14ad DD0A0000 		.4byte	0xadd
 5808 14b1 0C       		.byte	0xc
 5809 14b2 18       		.uleb128 0x18
 5810 14b3 AF1A0000 		.4byte	.LASF300
 5811 14b7 10       		.byte	0x10
 5812 14b8 C502     		.2byte	0x2c5
 5813 14ba E20A0000 		.4byte	0xae2
 5814 14be 10       		.byte	0x10
 5815 14bf 18       		.uleb128 0x18
 5816 14c0 4D060000 		.4byte	.LASF301
 5817 14c4 10       		.byte	0x10
 5818 14c5 C602     		.2byte	0x2c6
 5819 14c7 E20A0000 		.4byte	0xae2
 5820 14cb 14       		.byte	0x14
 5821 14cc 18       		.uleb128 0x18
 5822 14cd 53060000 		.4byte	.LASF302
 5823 14d1 10       		.byte	0x10
 5824 14d2 C702     		.2byte	0x2c7
 5825 14d4 E20A0000 		.4byte	0xae2
 5826 14d8 18       		.byte	0x18
 5827 14d9 18       		.uleb128 0x18
 5828 14da 59060000 		.4byte	.LASF303
ARM GAS  /var/folders/qd/4mxf5pkd0zdf0b9dd1hp39180000gn/T//ccsf5yWP.s 			page 104


 5829 14de 10       		.byte	0x10
 5830 14df C802     		.2byte	0x2c8
 5831 14e1 E20A0000 		.4byte	0xae2
 5832 14e5 1C       		.byte	0x1c
 5833 14e6 18       		.uleb128 0x18
 5834 14e7 5F060000 		.4byte	.LASF304
 5835 14eb 10       		.byte	0x10
 5836 14ec C902     		.2byte	0x2c9
 5837 14ee E20A0000 		.4byte	0xae2
 5838 14f2 20       		.byte	0x20
 5839 14f3 18       		.uleb128 0x18
 5840 14f4 B6140000 		.4byte	.LASF305
 5841 14f8 10       		.byte	0x10
 5842 14f9 CA02     		.2byte	0x2ca
 5843 14fb DD0A0000 		.4byte	0xadd
 5844 14ff 24       		.byte	0x24
 5845 1500 18       		.uleb128 0x18
 5846 1501 74160000 		.4byte	.LASF306
 5847 1505 10       		.byte	0x10
 5848 1506 CB02     		.2byte	0x2cb
 5849 1508 DD0A0000 		.4byte	0xadd
 5850 150c 28       		.byte	0x28
 5851 150d 18       		.uleb128 0x18
 5852 150e 06250000 		.4byte	.LASF307
 5853 1512 10       		.byte	0x10
 5854 1513 CC02     		.2byte	0x2cc
 5855 1515 DD0A0000 		.4byte	0xadd
 5856 1519 2C       		.byte	0x2c
 5857 151a 18       		.uleb128 0x18
 5858 151b 80260000 		.4byte	.LASF308
 5859 151f 10       		.byte	0x10
 5860 1520 CD02     		.2byte	0x2cd
 5861 1522 E20A0000 		.4byte	0xae2
 5862 1526 30       		.byte	0x30
 5863 1527 25       		.uleb128 0x25
 5864 1528 53544100 		.ascii	"STA\000"
 5865 152c 10       		.byte	0x10
 5866 152d CE02     		.2byte	0x2ce
 5867 152f E20A0000 		.4byte	0xae2
 5868 1533 34       		.byte	0x34
 5869 1534 25       		.uleb128 0x25
 5870 1535 49435200 		.ascii	"ICR\000"
 5871 1539 10       		.byte	0x10
 5872 153a CF02     		.2byte	0x2cf
 5873 153c DD0A0000 		.4byte	0xadd
 5874 1540 38       		.byte	0x38
 5875 1541 18       		.uleb128 0x18
 5876 1542 B1010000 		.4byte	.LASF309
 5877 1546 10       		.byte	0x10
 5878 1547 D002     		.2byte	0x2d0
 5879 1549 DD0A0000 		.4byte	0xadd
 5880 154d 3C       		.byte	0x3c
 5881 154e 18       		.uleb128 0x18
 5882 154f 681F0000 		.4byte	.LASF262
 5883 1553 10       		.byte	0x10
 5884 1554 D102     		.2byte	0x2d1
 5885 1556 040F0000 		.4byte	0xf04
ARM GAS  /var/folders/qd/4mxf5pkd0zdf0b9dd1hp39180000gn/T//ccsf5yWP.s 			page 105


 5886 155a 40       		.byte	0x40
 5887 155b 18       		.uleb128 0x18
 5888 155c 60150000 		.4byte	.LASF310
 5889 1560 10       		.byte	0x10
 5890 1561 D202     		.2byte	0x2d2
 5891 1563 E20A0000 		.4byte	0xae2
 5892 1567 48       		.byte	0x48
 5893 1568 18       		.uleb128 0x18
 5894 1569 721F0000 		.4byte	.LASF265
 5895 156d 10       		.byte	0x10
 5896 156e D302     		.2byte	0x2d3
 5897 1570 83150000 		.4byte	0x1583
 5898 1574 4C       		.byte	0x4c
 5899 1575 18       		.uleb128 0x18
 5900 1576 6D090000 		.4byte	.LASF311
 5901 157a 10       		.byte	0x10
 5902 157b D402     		.2byte	0x2d4
 5903 157d DD0A0000 		.4byte	0xadd
 5904 1581 80       		.byte	0x80
 5905 1582 00       		.byte	0
 5906 1583 0A       		.uleb128 0xa
 5907 1584 D20A0000 		.4byte	0xad2
 5908 1588 93150000 		.4byte	0x1593
 5909 158c 0B       		.uleb128 0xb
 5910 158d 45000000 		.4byte	0x45
 5911 1591 0C       		.byte	0xc
 5912 1592 00       		.byte	0
 5913 1593 07       		.uleb128 0x7
 5914 1594 87200000 		.4byte	.LASF312
 5915 1598 10       		.byte	0x10
 5916 1599 D502     		.2byte	0x2d5
 5917 159b 75140000 		.4byte	0x1475
 5918 159f 1C       		.uleb128 0x1c
 5919 15a0 24       		.byte	0x24
 5920 15a1 10       		.byte	0x10
 5921 15a2 DB02     		.2byte	0x2db
 5922 15a4 1C160000 		.4byte	0x161c
 5923 15a8 25       		.uleb128 0x25
 5924 15a9 43523100 		.ascii	"CR1\000"
 5925 15ad 10       		.byte	0x10
 5926 15ae DD02     		.2byte	0x2dd
 5927 15b0 DD0A0000 		.4byte	0xadd
 5928 15b4 00       		.byte	0
 5929 15b5 25       		.uleb128 0x25
 5930 15b6 43523200 		.ascii	"CR2\000"
 5931 15ba 10       		.byte	0x10
 5932 15bb DE02     		.2byte	0x2de
 5933 15bd DD0A0000 		.4byte	0xadd
 5934 15c1 04       		.byte	0x4
 5935 15c2 25       		.uleb128 0x25
 5936 15c3 535200   		.ascii	"SR\000"
 5937 15c6 10       		.byte	0x10
 5938 15c7 DF02     		.2byte	0x2df
 5939 15c9 DD0A0000 		.4byte	0xadd
 5940 15cd 08       		.byte	0x8
 5941 15ce 25       		.uleb128 0x25
 5942 15cf 445200   		.ascii	"DR\000"
ARM GAS  /var/folders/qd/4mxf5pkd0zdf0b9dd1hp39180000gn/T//ccsf5yWP.s 			page 106


 5943 15d2 10       		.byte	0x10
 5944 15d3 E002     		.2byte	0x2e0
 5945 15d5 DD0A0000 		.4byte	0xadd
 5946 15d9 0C       		.byte	0xc
 5947 15da 18       		.uleb128 0x18
 5948 15db 83070000 		.4byte	.LASF313
 5949 15df 10       		.byte	0x10
 5950 15e0 E102     		.2byte	0x2e1
 5951 15e2 DD0A0000 		.4byte	0xadd
 5952 15e6 10       		.byte	0x10
 5953 15e7 18       		.uleb128 0x18
 5954 15e8 640B0000 		.4byte	.LASF314
 5955 15ec 10       		.byte	0x10
 5956 15ed E202     		.2byte	0x2e2
 5957 15ef DD0A0000 		.4byte	0xadd
 5958 15f3 14       		.byte	0x14
 5959 15f4 18       		.uleb128 0x18
 5960 15f5 8F0A0000 		.4byte	.LASF315
 5961 15f9 10       		.byte	0x10
 5962 15fa E302     		.2byte	0x2e3
 5963 15fc DD0A0000 		.4byte	0xadd
 5964 1600 18       		.byte	0x18
 5965 1601 18       		.uleb128 0x18
 5966 1602 34230000 		.4byte	.LASF316
 5967 1606 10       		.byte	0x10
 5968 1607 E402     		.2byte	0x2e4
 5969 1609 DD0A0000 		.4byte	0xadd
 5970 160d 1C       		.byte	0x1c
 5971 160e 18       		.uleb128 0x18
 5972 160f 46070000 		.4byte	.LASF317
 5973 1613 10       		.byte	0x10
 5974 1614 E502     		.2byte	0x2e5
 5975 1616 DD0A0000 		.4byte	0xadd
 5976 161a 20       		.byte	0x20
 5977 161b 00       		.byte	0
 5978 161c 07       		.uleb128 0x7
 5979 161d EA200000 		.4byte	.LASF318
 5980 1621 10       		.byte	0x10
 5981 1622 E602     		.2byte	0x2e6
 5982 1624 9F150000 		.4byte	0x159f
 5983 1628 1C       		.uleb128 0x1c
 5984 1629 1C       		.byte	0x1c
 5985 162a 10       		.byte	0x10
 5986 162b 0903     		.2byte	0x309
 5987 162d 8B160000 		.4byte	0x168b
 5988 1631 25       		.uleb128 0x25
 5989 1632 535200   		.ascii	"SR\000"
 5990 1635 10       		.byte	0x10
 5991 1636 0B03     		.2byte	0x30b
 5992 1638 DD0A0000 		.4byte	0xadd
 5993 163c 00       		.byte	0
 5994 163d 25       		.uleb128 0x25
 5995 163e 445200   		.ascii	"DR\000"
 5996 1641 10       		.byte	0x10
 5997 1642 0C03     		.2byte	0x30c
 5998 1644 DD0A0000 		.4byte	0xadd
 5999 1648 04       		.byte	0x4
ARM GAS  /var/folders/qd/4mxf5pkd0zdf0b9dd1hp39180000gn/T//ccsf5yWP.s 			page 107


 6000 1649 25       		.uleb128 0x25
 6001 164a 42525200 		.ascii	"BRR\000"
 6002 164e 10       		.byte	0x10
 6003 164f 0D03     		.2byte	0x30d
 6004 1651 DD0A0000 		.4byte	0xadd
 6005 1655 08       		.byte	0x8
 6006 1656 25       		.uleb128 0x25
 6007 1657 43523100 		.ascii	"CR1\000"
 6008 165b 10       		.byte	0x10
 6009 165c 0E03     		.2byte	0x30e
 6010 165e DD0A0000 		.4byte	0xadd
 6011 1662 0C       		.byte	0xc
 6012 1663 25       		.uleb128 0x25
 6013 1664 43523200 		.ascii	"CR2\000"
 6014 1668 10       		.byte	0x10
 6015 1669 0F03     		.2byte	0x30f
 6016 166b DD0A0000 		.4byte	0xadd
 6017 166f 10       		.byte	0x10
 6018 1670 25       		.uleb128 0x25
 6019 1671 43523300 		.ascii	"CR3\000"
 6020 1675 10       		.byte	0x10
 6021 1676 1003     		.2byte	0x310
 6022 1678 DD0A0000 		.4byte	0xadd
 6023 167c 14       		.byte	0x14
 6024 167d 18       		.uleb128 0x18
 6025 167e A30E0000 		.4byte	.LASF319
 6026 1682 10       		.byte	0x10
 6027 1683 1103     		.2byte	0x311
 6028 1685 DD0A0000 		.4byte	0xadd
 6029 1689 18       		.byte	0x18
 6030 168a 00       		.byte	0
 6031 168b 07       		.uleb128 0x7
 6032 168c E3250000 		.4byte	.LASF320
 6033 1690 10       		.byte	0x10
 6034 1691 1203     		.2byte	0x312
 6035 1693 28160000 		.4byte	0x1628
 6036 1697 0A       		.uleb128 0xa
 6037 1698 DD0A0000 		.4byte	0xadd
 6038 169c A7160000 		.4byte	0x16a7
 6039 16a0 0B       		.uleb128 0xb
 6040 16a1 45000000 		.4byte	0x45
 6041 16a5 0E       		.byte	0xe
 6042 16a6 00       		.byte	0
 6043 16a7 1A       		.uleb128 0x1a
 6044 16a8 97160000 		.4byte	0x1697
 6045 16ac 04       		.uleb128 0x4
 6046 16ad 031A0000 		.4byte	.LASF321
 6047 16b1 11       		.byte	0x11
 6048 16b2 65       		.byte	0x65
 6049 16b3 6B010000 		.4byte	0x16b
 6050 16b7 04       		.uleb128 0x4
 6051 16b8 3C0D0000 		.4byte	.LASF322
 6052 16bc 11       		.byte	0x11
 6053 16bd 6D       		.byte	0x6d
 6054 16be E70A0000 		.4byte	0xae7
 6055 16c2 10       		.uleb128 0x10
 6056 16c3 70130000 		.4byte	.LASF323
ARM GAS  /var/folders/qd/4mxf5pkd0zdf0b9dd1hp39180000gn/T//ccsf5yWP.s 			page 108


 6057 16c7 04       		.byte	0x4
 6058 16c8 11       		.byte	0x11
 6059 16c9 89       		.byte	0x89
 6060 16ca DB160000 		.4byte	0x16db
 6061 16ce 11       		.uleb128 0x11
 6062 16cf 72313300 		.ascii	"r13\000"
 6063 16d3 11       		.byte	0x11
 6064 16d4 8A       		.byte	0x8a
 6065 16d5 1C180000 		.4byte	0x181c
 6066 16d9 00       		.byte	0
 6067 16da 00       		.byte	0
 6068 16db 10       		.uleb128 0x10
 6069 16dc 09000000 		.4byte	.LASF324
 6070 16e0 64       		.byte	0x64
 6071 16e1 12       		.byte	0x12
 6072 16e2 F4       		.byte	0xf4
 6073 16e3 1C180000 		.4byte	0x181c
 6074 16e7 11       		.uleb128 0x11
 6075 16e8 73313600 		.ascii	"s16\000"
 6076 16ec 12       		.byte	0x12
 6077 16ed F6       		.byte	0xf6
 6078 16ee AC160000 		.4byte	0x16ac
 6079 16f2 00       		.byte	0
 6080 16f3 11       		.uleb128 0x11
 6081 16f4 73313700 		.ascii	"s17\000"
 6082 16f8 12       		.byte	0x12
 6083 16f9 F7       		.byte	0xf7
 6084 16fa AC160000 		.4byte	0x16ac
 6085 16fe 04       		.byte	0x4
 6086 16ff 11       		.uleb128 0x11
 6087 1700 73313800 		.ascii	"s18\000"
 6088 1704 12       		.byte	0x12
 6089 1705 F8       		.byte	0xf8
 6090 1706 AC160000 		.4byte	0x16ac
 6091 170a 08       		.byte	0x8
 6092 170b 11       		.uleb128 0x11
 6093 170c 73313900 		.ascii	"s19\000"
 6094 1710 12       		.byte	0x12
 6095 1711 F9       		.byte	0xf9
 6096 1712 AC160000 		.4byte	0x16ac
 6097 1716 0C       		.byte	0xc
 6098 1717 11       		.uleb128 0x11
 6099 1718 73323000 		.ascii	"s20\000"
 6100 171c 12       		.byte	0x12
 6101 171d FA       		.byte	0xfa
 6102 171e AC160000 		.4byte	0x16ac
 6103 1722 10       		.byte	0x10
 6104 1723 11       		.uleb128 0x11
 6105 1724 73323100 		.ascii	"s21\000"
 6106 1728 12       		.byte	0x12
 6107 1729 FB       		.byte	0xfb
 6108 172a AC160000 		.4byte	0x16ac
 6109 172e 14       		.byte	0x14
 6110 172f 11       		.uleb128 0x11
 6111 1730 73323200 		.ascii	"s22\000"
 6112 1734 12       		.byte	0x12
 6113 1735 FC       		.byte	0xfc
ARM GAS  /var/folders/qd/4mxf5pkd0zdf0b9dd1hp39180000gn/T//ccsf5yWP.s 			page 109


 6114 1736 AC160000 		.4byte	0x16ac
 6115 173a 18       		.byte	0x18
 6116 173b 11       		.uleb128 0x11
 6117 173c 73323300 		.ascii	"s23\000"
 6118 1740 12       		.byte	0x12
 6119 1741 FD       		.byte	0xfd
 6120 1742 AC160000 		.4byte	0x16ac
 6121 1746 1C       		.byte	0x1c
 6122 1747 11       		.uleb128 0x11
 6123 1748 73323400 		.ascii	"s24\000"
 6124 174c 12       		.byte	0x12
 6125 174d FE       		.byte	0xfe
 6126 174e AC160000 		.4byte	0x16ac
 6127 1752 20       		.byte	0x20
 6128 1753 11       		.uleb128 0x11
 6129 1754 73323500 		.ascii	"s25\000"
 6130 1758 12       		.byte	0x12
 6131 1759 FF       		.byte	0xff
 6132 175a AC160000 		.4byte	0x16ac
 6133 175e 24       		.byte	0x24
 6134 175f 25       		.uleb128 0x25
 6135 1760 73323600 		.ascii	"s26\000"
 6136 1764 12       		.byte	0x12
 6137 1765 0001     		.2byte	0x100
 6138 1767 AC160000 		.4byte	0x16ac
 6139 176b 28       		.byte	0x28
 6140 176c 25       		.uleb128 0x25
 6141 176d 73323700 		.ascii	"s27\000"
 6142 1771 12       		.byte	0x12
 6143 1772 0101     		.2byte	0x101
 6144 1774 AC160000 		.4byte	0x16ac
 6145 1778 2C       		.byte	0x2c
 6146 1779 25       		.uleb128 0x25
 6147 177a 73323800 		.ascii	"s28\000"
 6148 177e 12       		.byte	0x12
 6149 177f 0201     		.2byte	0x102
 6150 1781 AC160000 		.4byte	0x16ac
 6151 1785 30       		.byte	0x30
 6152 1786 25       		.uleb128 0x25
 6153 1787 73323900 		.ascii	"s29\000"
 6154 178b 12       		.byte	0x12
 6155 178c 0301     		.2byte	0x103
 6156 178e AC160000 		.4byte	0x16ac
 6157 1792 34       		.byte	0x34
 6158 1793 25       		.uleb128 0x25
 6159 1794 73333000 		.ascii	"s30\000"
 6160 1798 12       		.byte	0x12
 6161 1799 0401     		.2byte	0x104
 6162 179b AC160000 		.4byte	0x16ac
 6163 179f 38       		.byte	0x38
 6164 17a0 25       		.uleb128 0x25
 6165 17a1 73333100 		.ascii	"s31\000"
 6166 17a5 12       		.byte	0x12
 6167 17a6 0501     		.2byte	0x105
 6168 17a8 AC160000 		.4byte	0x16ac
 6169 17ac 3C       		.byte	0x3c
 6170 17ad 25       		.uleb128 0x25
ARM GAS  /var/folders/qd/4mxf5pkd0zdf0b9dd1hp39180000gn/T//ccsf5yWP.s 			page 110


 6171 17ae 723400   		.ascii	"r4\000"
 6172 17b1 12       		.byte	0x12
 6173 17b2 0701     		.2byte	0x107
 6174 17b4 AC160000 		.4byte	0x16ac
 6175 17b8 40       		.byte	0x40
 6176 17b9 25       		.uleb128 0x25
 6177 17ba 723500   		.ascii	"r5\000"
 6178 17bd 12       		.byte	0x12
 6179 17be 0801     		.2byte	0x108
 6180 17c0 AC160000 		.4byte	0x16ac
 6181 17c4 44       		.byte	0x44
 6182 17c5 25       		.uleb128 0x25
 6183 17c6 723600   		.ascii	"r6\000"
 6184 17c9 12       		.byte	0x12
 6185 17ca 0901     		.2byte	0x109
 6186 17cc AC160000 		.4byte	0x16ac
 6187 17d0 48       		.byte	0x48
 6188 17d1 25       		.uleb128 0x25
 6189 17d2 723700   		.ascii	"r7\000"
 6190 17d5 12       		.byte	0x12
 6191 17d6 0A01     		.2byte	0x10a
 6192 17d8 AC160000 		.4byte	0x16ac
 6193 17dc 4C       		.byte	0x4c
 6194 17dd 25       		.uleb128 0x25
 6195 17de 723800   		.ascii	"r8\000"
 6196 17e1 12       		.byte	0x12
 6197 17e2 0B01     		.2byte	0x10b
 6198 17e4 AC160000 		.4byte	0x16ac
 6199 17e8 50       		.byte	0x50
 6200 17e9 25       		.uleb128 0x25
 6201 17ea 723900   		.ascii	"r9\000"
 6202 17ed 12       		.byte	0x12
 6203 17ee 0C01     		.2byte	0x10c
 6204 17f0 AC160000 		.4byte	0x16ac
 6205 17f4 54       		.byte	0x54
 6206 17f5 25       		.uleb128 0x25
 6207 17f6 72313000 		.ascii	"r10\000"
 6208 17fa 12       		.byte	0x12
 6209 17fb 0D01     		.2byte	0x10d
 6210 17fd AC160000 		.4byte	0x16ac
 6211 1801 58       		.byte	0x58
 6212 1802 25       		.uleb128 0x25
 6213 1803 72313100 		.ascii	"r11\000"
 6214 1807 12       		.byte	0x12
 6215 1808 0E01     		.2byte	0x10e
 6216 180a AC160000 		.4byte	0x16ac
 6217 180e 5C       		.byte	0x5c
 6218 180f 25       		.uleb128 0x25
 6219 1810 6C7200   		.ascii	"lr\000"
 6220 1813 12       		.byte	0x12
 6221 1814 0F01     		.2byte	0x10f
 6222 1816 AC160000 		.4byte	0x16ac
 6223 181a 60       		.byte	0x60
 6224 181b 00       		.byte	0
 6225 181c 05       		.uleb128 0x5
 6226 181d 04       		.byte	0x4
 6227 181e DB160000 		.4byte	0x16db
ARM GAS  /var/folders/qd/4mxf5pkd0zdf0b9dd1hp39180000gn/T//ccsf5yWP.s 			page 111


 6228 1822 0C       		.uleb128 0xc
 6229 1823 10       		.byte	0x10
 6230 1824 13       		.byte	0x13
 6231 1825 51       		.byte	0x51
 6232 1826 5B180000 		.4byte	0x185b
 6233 182a 0D       		.uleb128 0xd
 6234 182b DC1F0000 		.4byte	.LASF325
 6235 182f 13       		.byte	0x13
 6236 1830 55       		.byte	0x55
 6237 1831 760B0000 		.4byte	0xb76
 6238 1835 00       		.byte	0
 6239 1836 0D       		.uleb128 0xd
 6240 1837 7B1A0000 		.4byte	.LASF326
 6241 183b 13       		.byte	0x13
 6242 183c 59       		.byte	0x59
 6243 183d BA0C0000 		.4byte	0xcba
 6244 1841 04       		.byte	0x4
 6245 1842 0D       		.uleb128 0xd
 6246 1843 6A0C0000 		.4byte	.LASF327
 6247 1847 13       		.byte	0x13
 6248 1848 5D       		.byte	0x5d
 6249 1849 6B010000 		.4byte	0x16b
 6250 184d 08       		.byte	0x8
 6251 184e 0D       		.uleb128 0xd
 6252 184f 200A0000 		.4byte	.LASF328
 6253 1853 13       		.byte	0x13
 6254 1854 61       		.byte	0x61
 6255 1855 9C0A0000 		.4byte	0xa9c
 6256 1859 0C       		.byte	0xc
 6257 185a 00       		.byte	0
 6258 185b 04       		.uleb128 0x4
 6259 185c 470D0000 		.4byte	.LASF329
 6260 1860 13       		.byte	0x13
 6261 1861 62       		.byte	0x62
 6262 1862 22180000 		.4byte	0x1822
 6263 1866 28       		.uleb128 0x28
 6264 1867 0804     		.2byte	0x408
 6265 1869 13       		.byte	0x13
 6266 186a 67       		.byte	0x67
 6267 186b 94180000 		.4byte	0x1894
 6268 186f 0D       		.uleb128 0xd
 6269 1870 240E0000 		.4byte	.LASF330
 6270 1874 13       		.byte	0x13
 6271 1875 6B       		.byte	0x6b
 6272 1876 45000000 		.4byte	0x45
 6273 187a 00       		.byte	0
 6274 187b 0D       		.uleb128 0xd
 6275 187c 8F150000 		.4byte	.LASF331
 6276 1880 13       		.byte	0x13
 6277 1881 6F       		.byte	0x6f
 6278 1882 94180000 		.4byte	0x1894
 6279 1886 04       		.byte	0x4
 6280 1887 0D       		.uleb128 0xd
 6281 1888 72090000 		.4byte	.LASF332
 6282 188c 13       		.byte	0x13
 6283 188d 73       		.byte	0x73
 6284 188e 9A180000 		.4byte	0x189a
ARM GAS  /var/folders/qd/4mxf5pkd0zdf0b9dd1hp39180000gn/T//ccsf5yWP.s 			page 112


 6285 1892 08       		.byte	0x8
 6286 1893 00       		.byte	0
 6287 1894 05       		.uleb128 0x5
 6288 1895 04       		.byte	0x4
 6289 1896 5B180000 		.4byte	0x185b
 6290 189a 0A       		.uleb128 0xa
 6291 189b 5B180000 		.4byte	0x185b
 6292 189f AA180000 		.4byte	0x18aa
 6293 18a3 0B       		.uleb128 0xb
 6294 18a4 45000000 		.4byte	0x45
 6295 18a8 3F       		.byte	0x3f
 6296 18a9 00       		.byte	0
 6297 18aa 04       		.uleb128 0x4
 6298 18ab 15000000 		.4byte	.LASF333
 6299 18af 13       		.byte	0x13
 6300 18b0 74       		.byte	0x74
 6301 18b1 66180000 		.4byte	0x1866
 6302 18b5 0C       		.uleb128 0xc
 6303 18b6 04       		.byte	0x4
 6304 18b7 14       		.byte	0x14
 6305 18b8 38       		.byte	0x38
 6306 18b9 CA180000 		.4byte	0x18ca
 6307 18bd 0D       		.uleb128 0xd
 6308 18be 94200000 		.4byte	.LASF334
 6309 18c2 14       		.byte	0x14
 6310 18c3 3C       		.byte	0x3c
 6311 18c4 F20A0000 		.4byte	0xaf2
 6312 18c8 00       		.byte	0
 6313 18c9 00       		.byte	0
 6314 18ca 04       		.uleb128 0x4
 6315 18cb 94050000 		.4byte	.LASF335
 6316 18cf 14       		.byte	0x14
 6317 18d0 3D       		.byte	0x3d
 6318 18d1 B5180000 		.4byte	0x18b5
 6319 18d5 0C       		.uleb128 0xc
 6320 18d6 18       		.byte	0x18
 6321 18d7 14       		.byte	0x14
 6322 18d8 48       		.byte	0x48
 6323 18d9 18190000 		.4byte	0x1918
 6324 18dd 0D       		.uleb128 0xd
 6325 18de 57070000 		.4byte	.LASF336
 6326 18e2 14       		.byte	0x14
 6327 18e3 49       		.byte	0x49
 6328 18e4 F20A0000 		.4byte	0xaf2
 6329 18e8 00       		.byte	0
 6330 18e9 0D       		.uleb128 0xd
 6331 18ea 5C010000 		.4byte	.LASF337
 6332 18ee 14       		.byte	0x14
 6333 18ef 4A       		.byte	0x4a
 6334 18f0 F20A0000 		.4byte	0xaf2
 6335 18f4 04       		.byte	0x4
 6336 18f5 0D       		.uleb128 0xd
 6337 18f6 9E190000 		.4byte	.LASF338
 6338 18fa 14       		.byte	0x14
 6339 18fb 4B       		.byte	0x4b
 6340 18fc F20A0000 		.4byte	0xaf2
 6341 1900 08       		.byte	0x8
ARM GAS  /var/folders/qd/4mxf5pkd0zdf0b9dd1hp39180000gn/T//ccsf5yWP.s 			page 113


 6342 1901 11       		.uleb128 0x11
 6343 1902 6E00     		.ascii	"n\000"
 6344 1904 14       		.byte	0x14
 6345 1905 4C       		.byte	0x4c
 6346 1906 6B0B0000 		.4byte	0xb6b
 6347 190a 0C       		.byte	0xc
 6348 190b 0D       		.uleb128 0xd
 6349 190c 42190000 		.4byte	.LASF339
 6350 1910 14       		.byte	0x14
 6351 1911 4D       		.byte	0x4d
 6352 1912 FD0A0000 		.4byte	0xafd
 6353 1916 10       		.byte	0x10
 6354 1917 00       		.byte	0
 6355 1918 04       		.uleb128 0x4
 6356 1919 7C230000 		.4byte	.LASF340
 6357 191d 14       		.byte	0x14
 6358 191e 4E       		.byte	0x4e
 6359 191f D5180000 		.4byte	0x18d5
 6360 1923 0C       		.uleb128 0xc
 6361 1924 38       		.byte	0x38
 6362 1925 15       		.byte	0x15
 6363 1926 38       		.byte	0x38
 6364 1927 5C190000 		.4byte	0x195c
 6365 192b 0D       		.uleb128 0xd
 6366 192c B6060000 		.4byte	.LASF341
 6367 1930 15       		.byte	0x15
 6368 1931 39       		.byte	0x39
 6369 1932 6B0B0000 		.4byte	0xb6b
 6370 1936 00       		.byte	0
 6371 1937 0D       		.uleb128 0xd
 6372 1938 C80A0000 		.4byte	.LASF342
 6373 193c 15       		.byte	0x15
 6374 193d 3A       		.byte	0x3a
 6375 193e 6B0B0000 		.4byte	0xb6b
 6376 1942 04       		.byte	0x4
 6377 1943 0D       		.uleb128 0xd
 6378 1944 17230000 		.4byte	.LASF343
 6379 1948 15       		.byte	0x15
 6380 1949 3B       		.byte	0x3b
 6381 194a 18190000 		.4byte	0x1918
 6382 194e 08       		.byte	0x8
 6383 194f 0D       		.uleb128 0xd
 6384 1950 6F000000 		.4byte	.LASF344
 6385 1954 15       		.byte	0x15
 6386 1955 3D       		.byte	0x3d
 6387 1956 18190000 		.4byte	0x1918
 6388 195a 20       		.byte	0x20
 6389 195b 00       		.byte	0
 6390 195c 04       		.uleb128 0x4
 6391 195d 50050000 		.4byte	.LASF345
 6392 1961 15       		.byte	0x15
 6393 1962 3F       		.byte	0x3f
 6394 1963 23190000 		.4byte	0x1923
 6395 1967 08       		.uleb128 0x8
 6396 1968 04       		.byte	0x4
 6397 1969 0D       		.byte	0xd
 6398 196a FA       		.byte	0xfa
ARM GAS  /var/folders/qd/4mxf5pkd0zdf0b9dd1hp39180000gn/T//ccsf5yWP.s 			page 114


 6399 196b C4190000 		.4byte	0x19c4
 6400 196f 1E       		.uleb128 0x1e
 6401 1970 3F110000 		.4byte	.LASF346
 6402 1974 0D       		.byte	0xd
 6403 1975 0101     		.2byte	0x101
 6404 1977 3F0B0000 		.4byte	0xb3f
 6405 197b 1E       		.uleb128 0x1e
 6406 197c FE070000 		.4byte	.LASF347
 6407 1980 0D       		.byte	0xd
 6408 1981 0801     		.2byte	0x108
 6409 1983 3F0B0000 		.4byte	0xb3f
 6410 1987 1E       		.uleb128 0x1e
 6411 1988 A81D0000 		.4byte	.LASF348
 6412 198c 0D       		.byte	0xd
 6413 198d 0F01     		.2byte	0x10f
 6414 198f 6B010000 		.4byte	0x16b
 6415 1993 1E       		.uleb128 0x1e
 6416 1994 63190000 		.4byte	.LASF349
 6417 1998 0D       		.byte	0xd
 6418 1999 1601     		.2byte	0x116
 6419 199b C4190000 		.4byte	0x19c4
 6420 199f 1E       		.uleb128 0x1e
 6421 19a0 DB000000 		.4byte	.LASF350
 6422 19a4 0D       		.byte	0xd
 6423 19a5 1E01     		.2byte	0x11e
 6424 19a7 EF190000 		.4byte	0x19ef
 6425 19ab 1E       		.uleb128 0x1e
 6426 19ac EF1D0000 		.4byte	.LASF351
 6427 19b0 0D       		.byte	0xd
 6428 19b1 2701     		.2byte	0x127
 6429 19b3 321A0000 		.4byte	0x1a32
 6430 19b7 1E       		.uleb128 0x1e
 6431 19b8 2B210000 		.4byte	.LASF352
 6432 19bc 0D       		.byte	0xd
 6433 19bd 2F01     		.2byte	0x12f
 6434 19bf 4A0B0000 		.4byte	0xb4a
 6435 19c3 00       		.byte	0
 6436 19c4 05       		.uleb128 0x5
 6437 19c5 04       		.byte	0x4
 6438 19c6 AF0C0000 		.4byte	0xcaf
 6439 19ca 10       		.uleb128 0x10
 6440 19cb 26180000 		.4byte	.LASF353
 6441 19cf 0C       		.byte	0xc
 6442 19d0 16       		.byte	0x16
 6443 19d1 34       		.byte	0x34
 6444 19d2 EF190000 		.4byte	0x19ef
 6445 19d6 0D       		.uleb128 0xd
 6446 19d7 0F230000 		.4byte	.LASF354
 6447 19db 16       		.byte	0x16
 6448 19dc 35       		.byte	0x35
 6449 19dd E40C0000 		.4byte	0xce4
 6450 19e1 00       		.byte	0
 6451 19e2 0D       		.uleb128 0xd
 6452 19e3 84090000 		.4byte	.LASF355
 6453 19e7 16       		.byte	0x16
 6454 19e8 37       		.byte	0x37
 6455 19e9 600B0000 		.4byte	0xb60
ARM GAS  /var/folders/qd/4mxf5pkd0zdf0b9dd1hp39180000gn/T//ccsf5yWP.s 			page 115


 6456 19ed 08       		.byte	0x8
 6457 19ee 00       		.byte	0
 6458 19ef 05       		.uleb128 0x5
 6459 19f0 04       		.byte	0x4
 6460 19f1 CA190000 		.4byte	0x19ca
 6461 19f5 10       		.uleb128 0x10
 6462 19f6 770B0000 		.4byte	.LASF356
 6463 19fa 14       		.byte	0x14
 6464 19fb 17       		.byte	0x17
 6465 19fc 39       		.byte	0x39
 6466 19fd 321A0000 		.4byte	0x1a32
 6467 1a01 0D       		.uleb128 0xd
 6468 1a02 59140000 		.4byte	.LASF357
 6469 1a06 17       		.byte	0x17
 6470 1a07 3A       		.byte	0x3a
 6471 1a08 E40C0000 		.4byte	0xce4
 6472 1a0c 00       		.byte	0
 6473 1a0d 0D       		.uleb128 0xd
 6474 1a0e E6160000 		.4byte	.LASF358
 6475 1a12 17       		.byte	0x17
 6476 1a13 3C       		.byte	0x3c
 6477 1a14 BA0C0000 		.4byte	0xcba
 6478 1a18 08       		.byte	0x8
 6479 1a19 0D       		.uleb128 0xd
 6480 1a1a 99010000 		.4byte	.LASF359
 6481 1a1e 17       		.byte	0x17
 6482 1a1f 3E       		.byte	0x3e
 6483 1a20 761B0000 		.4byte	0x1b76
 6484 1a24 0C       		.byte	0xc
 6485 1a25 0D       		.uleb128 0xd
 6486 1a26 7B080000 		.4byte	.LASF360
 6487 1a2a 17       		.byte	0x17
 6488 1a2b 41       		.byte	0x41
 6489 1a2c 600B0000 		.4byte	0xb60
 6490 1a30 10       		.byte	0x10
 6491 1a31 00       		.byte	0
 6492 1a32 05       		.uleb128 0x5
 6493 1a33 04       		.byte	0x4
 6494 1a34 F5190000 		.4byte	0x19f5
 6495 1a38 05       		.uleb128 0x5
 6496 1a39 04       		.byte	0x4
 6497 1a3a B7160000 		.4byte	0x16b7
 6498 1a3e 05       		.uleb128 0x5
 6499 1a3f 04       		.byte	0x4
 6500 1a40 970D0000 		.4byte	0xd97
 6501 1a44 0A       		.uleb128 0xa
 6502 1a45 B7160000 		.4byte	0x16b7
 6503 1a49 541A0000 		.4byte	0x1a54
 6504 1a4d 0B       		.uleb128 0xb
 6505 1a4e 45000000 		.4byte	0x45
 6506 1a52 30       		.byte	0x30
 6507 1a53 00       		.byte	0
 6508 1a54 29       		.uleb128 0x29
 6509 1a55 636800   		.ascii	"ch\000"
 6510 1a58 0D       		.byte	0xd
 6511 1a59 0902     		.2byte	0x209
 6512 1a5b 8C0E0000 		.4byte	0xe8c
ARM GAS  /var/folders/qd/4mxf5pkd0zdf0b9dd1hp39180000gn/T//ccsf5yWP.s 			page 116


 6513 1a5f 0C       		.uleb128 0xc
 6514 1a60 16       		.byte	0x16
 6515 1a61 18       		.byte	0x18
 6516 1a62 34       		.byte	0x34
 6517 1a63 401B0000 		.4byte	0x1b40
 6518 1a67 0D       		.uleb128 0xd
 6519 1a68 3C230000 		.4byte	.LASF361
 6520 1a6c 18       		.byte	0x18
 6521 1a6d 35       		.byte	0x35
 6522 1a6e 401B0000 		.4byte	0x1b40
 6523 1a72 00       		.byte	0
 6524 1a73 0D       		.uleb128 0xd
 6525 1a74 EC240000 		.4byte	.LASF362
 6526 1a78 18       		.byte	0x18
 6527 1a79 36       		.byte	0x36
 6528 1a7a 9C0A0000 		.4byte	0xa9c
 6529 1a7e 04       		.byte	0x4
 6530 1a7f 0D       		.uleb128 0xd
 6531 1a80 F6020000 		.4byte	.LASF363
 6532 1a84 18       		.byte	0x18
 6533 1a85 37       		.byte	0x37
 6534 1a86 9C0A0000 		.4byte	0xa9c
 6535 1a8a 05       		.byte	0x5
 6536 1a8b 0D       		.uleb128 0xd
 6537 1a8c 3F170000 		.4byte	.LASF364
 6538 1a90 18       		.byte	0x18
 6539 1a91 38       		.byte	0x38
 6540 1a92 B70A0000 		.4byte	0xab7
 6541 1a96 06       		.byte	0x6
 6542 1a97 0D       		.uleb128 0xd
 6543 1a98 27000000 		.4byte	.LASF365
 6544 1a9c 18       		.byte	0x18
 6545 1a9d 39       		.byte	0x39
 6546 1a9e 9C0A0000 		.4byte	0xa9c
 6547 1aa2 08       		.byte	0x8
 6548 1aa3 0D       		.uleb128 0xd
 6549 1aa4 3E150000 		.4byte	.LASF366
 6550 1aa8 18       		.byte	0x18
 6551 1aa9 3A       		.byte	0x3a
 6552 1aaa 9C0A0000 		.4byte	0xa9c
 6553 1aae 09       		.byte	0x9
 6554 1aaf 0D       		.uleb128 0xd
 6555 1ab0 0C250000 		.4byte	.LASF367
 6556 1ab4 18       		.byte	0x18
 6557 1ab5 3B       		.byte	0x3b
 6558 1ab6 9C0A0000 		.4byte	0xa9c
 6559 1aba 0A       		.byte	0xa
 6560 1abb 0D       		.uleb128 0xd
 6561 1abc 68230000 		.4byte	.LASF368
 6562 1ac0 18       		.byte	0x18
 6563 1ac1 3C       		.byte	0x3c
 6564 1ac2 9C0A0000 		.4byte	0xa9c
 6565 1ac6 0B       		.byte	0xb
 6566 1ac7 0D       		.uleb128 0xd
 6567 1ac8 A3220000 		.4byte	.LASF369
 6568 1acc 18       		.byte	0x18
 6569 1acd 3D       		.byte	0x3d
ARM GAS  /var/folders/qd/4mxf5pkd0zdf0b9dd1hp39180000gn/T//ccsf5yWP.s 			page 117


 6570 1ace 9C0A0000 		.4byte	0xa9c
 6571 1ad2 0C       		.byte	0xc
 6572 1ad3 0D       		.uleb128 0xd
 6573 1ad4 320C0000 		.4byte	.LASF370
 6574 1ad8 18       		.byte	0x18
 6575 1ad9 3E       		.byte	0x3e
 6576 1ada 9C0A0000 		.4byte	0xa9c
 6577 1ade 0D       		.byte	0xd
 6578 1adf 0D       		.uleb128 0xd
 6579 1ae0 E8050000 		.4byte	.LASF371
 6580 1ae4 18       		.byte	0x18
 6581 1ae5 3F       		.byte	0x3f
 6582 1ae6 9C0A0000 		.4byte	0xa9c
 6583 1aea 0E       		.byte	0xe
 6584 1aeb 0D       		.uleb128 0xd
 6585 1aec D70D0000 		.4byte	.LASF372
 6586 1af0 18       		.byte	0x18
 6587 1af1 40       		.byte	0x40
 6588 1af2 9C0A0000 		.4byte	0xa9c
 6589 1af6 0F       		.byte	0xf
 6590 1af7 0D       		.uleb128 0xd
 6591 1af8 6A0F0000 		.4byte	.LASF373
 6592 1afc 18       		.byte	0x18
 6593 1afd 41       		.byte	0x41
 6594 1afe 9C0A0000 		.4byte	0xa9c
 6595 1b02 10       		.byte	0x10
 6596 1b03 0D       		.uleb128 0xd
 6597 1b04 D9160000 		.4byte	.LASF374
 6598 1b08 18       		.byte	0x18
 6599 1b09 43       		.byte	0x43
 6600 1b0a 9C0A0000 		.4byte	0xa9c
 6601 1b0e 11       		.byte	0x11
 6602 1b0f 0D       		.uleb128 0xd
 6603 1b10 C5020000 		.4byte	.LASF375
 6604 1b14 18       		.byte	0x18
 6605 1b15 44       		.byte	0x44
 6606 1b16 9C0A0000 		.4byte	0xa9c
 6607 1b1a 12       		.byte	0x12
 6608 1b1b 0D       		.uleb128 0xd
 6609 1b1c CD160000 		.4byte	.LASF376
 6610 1b20 18       		.byte	0x18
 6611 1b21 45       		.byte	0x45
 6612 1b22 9C0A0000 		.4byte	0xa9c
 6613 1b26 13       		.byte	0x13
 6614 1b27 0D       		.uleb128 0xd
 6615 1b28 D91C0000 		.4byte	.LASF377
 6616 1b2c 18       		.byte	0x18
 6617 1b2d 46       		.byte	0x46
 6618 1b2e 9C0A0000 		.4byte	0xa9c
 6619 1b32 14       		.byte	0x14
 6620 1b33 0D       		.uleb128 0xd
 6621 1b34 B9000000 		.4byte	.LASF378
 6622 1b38 18       		.byte	0x18
 6623 1b39 48       		.byte	0x48
 6624 1b3a 9C0A0000 		.4byte	0xa9c
 6625 1b3e 15       		.byte	0x15
 6626 1b3f 00       		.byte	0
ARM GAS  /var/folders/qd/4mxf5pkd0zdf0b9dd1hp39180000gn/T//ccsf5yWP.s 			page 118


 6627 1b40 0A       		.uleb128 0xa
 6628 1b41 73010000 		.4byte	0x173
 6629 1b45 501B0000 		.4byte	0x1b50
 6630 1b49 0B       		.uleb128 0xb
 6631 1b4a 45000000 		.4byte	0x45
 6632 1b4e 03       		.byte	0x3
 6633 1b4f 00       		.byte	0
 6634 1b50 04       		.uleb128 0x4
 6635 1b51 E5140000 		.4byte	.LASF379
 6636 1b55 18       		.byte	0x18
 6637 1b56 49       		.byte	0x49
 6638 1b57 5F1A0000 		.4byte	0x1a5f
 6639 1b5b 0F       		.uleb128 0xf
 6640 1b5c 501B0000 		.4byte	0x1b50
 6641 1b60 24       		.uleb128 0x24
 6642 1b61 D10A0000 		.4byte	.LASF380
 6643 1b65 18       		.byte	0x18
 6644 1b66 6E       		.byte	0x6e
 6645 1b67 5B1B0000 		.4byte	0x1b5b
 6646 1b6b 04       		.uleb128 0x4
 6647 1b6c 071F0000 		.4byte	.LASF381
 6648 1b70 17       		.byte	0x17
 6649 1b71 34       		.byte	0x34
 6650 1b72 F5190000 		.4byte	0x19f5
 6651 1b76 05       		.uleb128 0x5
 6652 1b77 04       		.byte	0x4
 6653 1b78 6B1B0000 		.4byte	0x1b6b
 6654 1b7c 04       		.uleb128 0x4
 6655 1b7d 160B0000 		.4byte	.LASF382
 6656 1b81 19       		.byte	0x19
 6657 1b82 34       		.byte	0x34
 6658 1b83 871B0000 		.4byte	0x1b87
 6659 1b87 10       		.uleb128 0x10
 6660 1b88 94250000 		.4byte	.LASF383
 6661 1b8c 14       		.byte	0x14
 6662 1b8d 19       		.byte	0x19
 6663 1b8e 39       		.byte	0x39
 6664 1b8f D01B0000 		.4byte	0x1bd0
 6665 1b93 0D       		.uleb128 0xd
 6666 1b94 29020000 		.4byte	.LASF384
 6667 1b98 19       		.byte	0x19
 6668 1b99 3A       		.byte	0x3a
 6669 1b9a D01B0000 		.4byte	0x1bd0
 6670 1b9e 00       		.byte	0
 6671 1b9f 0D       		.uleb128 0xd
 6672 1ba0 18200000 		.4byte	.LASF385
 6673 1ba4 19       		.byte	0x19
 6674 1ba5 3D       		.byte	0x3d
 6675 1ba6 BA0C0000 		.4byte	0xcba
 6676 1baa 04       		.byte	0x4
 6677 1bab 0D       		.uleb128 0xd
 6678 1bac 4C030000 		.4byte	.LASF386
 6679 1bb0 19       		.byte	0x19
 6680 1bb1 3F       		.byte	0x3f
 6681 1bb2 4A0B0000 		.4byte	0xb4a
 6682 1bb6 08       		.byte	0x8
 6683 1bb7 0D       		.uleb128 0xd
ARM GAS  /var/folders/qd/4mxf5pkd0zdf0b9dd1hp39180000gn/T//ccsf5yWP.s 			page 119


 6684 1bb8 32210000 		.4byte	.LASF387
 6685 1bbc 19       		.byte	0x19
 6686 1bbd 41       		.byte	0x41
 6687 1bbe 550B0000 		.4byte	0xb55
 6688 1bc2 0C       		.byte	0xc
 6689 1bc3 0D       		.uleb128 0xd
 6690 1bc4 100E0000 		.4byte	.LASF388
 6691 1bc8 19       		.byte	0x19
 6692 1bc9 43       		.byte	0x43
 6693 1bca 550B0000 		.4byte	0xb55
 6694 1bce 10       		.byte	0x10
 6695 1bcf 00       		.byte	0
 6696 1bd0 05       		.uleb128 0x5
 6697 1bd1 04       		.byte	0x4
 6698 1bd2 7C1B0000 		.4byte	0x1b7c
 6699 1bd6 10       		.uleb128 0x10
 6700 1bd7 3B210000 		.4byte	.LASF389
 6701 1bdb 04       		.byte	0x4
 6702 1bdc 19       		.byte	0x19
 6703 1bdd 4A       		.byte	0x4a
 6704 1bde EF1B0000 		.4byte	0x1bef
 6705 1be2 0D       		.uleb128 0xd
 6706 1be3 A6200000 		.4byte	.LASF390
 6707 1be7 19       		.byte	0x19
 6708 1be8 4B       		.byte	0x4b
 6709 1be9 D01B0000 		.4byte	0x1bd0
 6710 1bed 00       		.byte	0
 6711 1bee 00       		.byte	0
 6712 1bef 04       		.uleb128 0x4
 6713 1bf0 68150000 		.4byte	.LASF391
 6714 1bf4 19       		.byte	0x19
 6715 1bf5 4E       		.byte	0x4e
 6716 1bf6 D61B0000 		.4byte	0x1bd6
 6717 1bfa 04       		.uleb128 0x4
 6718 1bfb 500E0000 		.4byte	.LASF392
 6719 1bff 1A       		.byte	0x1a
 6720 1c00 3F       		.byte	0x3f
 6721 1c01 051C0000 		.4byte	0x1c05
 6722 1c05 10       		.uleb128 0x10
 6723 1c06 BA110000 		.4byte	.LASF393
 6724 1c0a 24       		.byte	0x24
 6725 1c0b 1A       		.byte	0x1a
 6726 1c0c 4D       		.byte	0x4d
 6727 1c0d 721C0000 		.4byte	0x1c72
 6728 1c11 0D       		.uleb128 0xd
 6729 1c12 5F050000 		.4byte	.LASF394
 6730 1c16 1A       		.byte	0x1a
 6731 1c17 4E       		.byte	0x4e
 6732 1c18 E40C0000 		.4byte	0xce4
 6733 1c1c 00       		.byte	0
 6734 1c1d 0D       		.uleb128 0xd
 6735 1c1e 07190000 		.4byte	.LASF395
 6736 1c22 1A       		.byte	0x1a
 6737 1c23 4F       		.byte	0x4f
 6738 1c24 3A000000 		.4byte	0x3a
 6739 1c28 08       		.byte	0x8
 6740 1c29 0D       		.uleb128 0xd
ARM GAS  /var/folders/qd/4mxf5pkd0zdf0b9dd1hp39180000gn/T//ccsf5yWP.s 			page 120


 6741 1c2a 6C120000 		.4byte	.LASF396
 6742 1c2e 1A       		.byte	0x1a
 6743 1c2f 50       		.byte	0x50
 6744 1c30 941C0000 		.4byte	0x1c94
 6745 1c34 0C       		.byte	0xc
 6746 1c35 0D       		.uleb128 0xd
 6747 1c36 82040000 		.4byte	.LASF397
 6748 1c3a 1A       		.byte	0x1a
 6749 1c3b 51       		.byte	0x51
 6750 1c3c 941C0000 		.4byte	0x1c94
 6751 1c40 10       		.byte	0x10
 6752 1c41 0D       		.uleb128 0xd
 6753 1c42 811A0000 		.4byte	.LASF398
 6754 1c46 1A       		.byte	0x1a
 6755 1c47 53       		.byte	0x53
 6756 1c48 941C0000 		.4byte	0x1c94
 6757 1c4c 14       		.byte	0x14
 6758 1c4d 0D       		.uleb128 0xd
 6759 1c4e 69190000 		.4byte	.LASF399
 6760 1c52 1A       		.byte	0x1a
 6761 1c53 54       		.byte	0x54
 6762 1c54 941C0000 		.4byte	0x1c94
 6763 1c58 18       		.byte	0x18
 6764 1c59 0D       		.uleb128 0xd
 6765 1c5a E61D0000 		.4byte	.LASF400
 6766 1c5e 1A       		.byte	0x1a
 6767 1c5f 55       		.byte	0x55
 6768 1c60 721C0000 		.4byte	0x1c72
 6769 1c64 1C       		.byte	0x1c
 6770 1c65 0D       		.uleb128 0xd
 6771 1c66 501B0000 		.4byte	.LASF401
 6772 1c6a 1A       		.byte	0x1a
 6773 1c6b 56       		.byte	0x56
 6774 1c6c 6B010000 		.4byte	0x16b
 6775 1c70 20       		.byte	0x20
 6776 1c71 00       		.byte	0
 6777 1c72 04       		.uleb128 0x4
 6778 1c73 51040000 		.4byte	.LASF402
 6779 1c77 1A       		.byte	0x1a
 6780 1c78 42       		.byte	0x42
 6781 1c79 7D1C0000 		.4byte	0x1c7d
 6782 1c7d 05       		.uleb128 0x5
 6783 1c7e 04       		.byte	0x4
 6784 1c7f 831C0000 		.4byte	0x1c83
 6785 1c83 1F       		.uleb128 0x1f
 6786 1c84 8E1C0000 		.4byte	0x1c8e
 6787 1c88 16       		.uleb128 0x16
 6788 1c89 8E1C0000 		.4byte	0x1c8e
 6789 1c8d 00       		.byte	0
 6790 1c8e 05       		.uleb128 0x5
 6791 1c8f 04       		.byte	0x4
 6792 1c90 FA1B0000 		.4byte	0x1bfa
 6793 1c94 05       		.uleb128 0x5
 6794 1c95 04       		.byte	0x4
 6795 1c96 9C0A0000 		.4byte	0xa9c
 6796 1c9a 04       		.uleb128 0x4
 6797 1c9b A5050000 		.4byte	.LASF403
ARM GAS  /var/folders/qd/4mxf5pkd0zdf0b9dd1hp39180000gn/T//ccsf5yWP.s 			page 121


 6798 1c9f 1A       		.byte	0x1a
 6799 1ca0 64       		.byte	0x64
 6800 1ca1 FA1B0000 		.4byte	0x1bfa
 6801 1ca5 04       		.uleb128 0x4
 6802 1ca6 F1250000 		.4byte	.LASF404
 6803 1caa 1A       		.byte	0x1a
 6804 1cab 71       		.byte	0x71
 6805 1cac FA1B0000 		.4byte	0x1bfa
 6806 1cb0 15       		.uleb128 0x15
 6807 1cb1 3A000000 		.4byte	0x3a
 6808 1cb5 C91C0000 		.4byte	0x1cc9
 6809 1cb9 16       		.uleb128 0x16
 6810 1cba 6B010000 		.4byte	0x16b
 6811 1cbe 16       		.uleb128 0x16
 6812 1cbf C91C0000 		.4byte	0x1cc9
 6813 1cc3 16       		.uleb128 0x16
 6814 1cc4 3A000000 		.4byte	0x3a
 6815 1cc8 00       		.byte	0
 6816 1cc9 05       		.uleb128 0x5
 6817 1cca 04       		.byte	0x4
 6818 1ccb A70A0000 		.4byte	0xaa7
 6819 1ccf 05       		.uleb128 0x5
 6820 1cd0 04       		.byte	0x4
 6821 1cd1 B01C0000 		.4byte	0x1cb0
 6822 1cd5 15       		.uleb128 0x15
 6823 1cd6 3A000000 		.4byte	0x3a
 6824 1cda EE1C0000 		.4byte	0x1cee
 6825 1cde 16       		.uleb128 0x16
 6826 1cdf 6B010000 		.4byte	0x16b
 6827 1ce3 16       		.uleb128 0x16
 6828 1ce4 941C0000 		.4byte	0x1c94
 6829 1ce8 16       		.uleb128 0x16
 6830 1ce9 3A000000 		.4byte	0x3a
 6831 1ced 00       		.byte	0
 6832 1cee 05       		.uleb128 0x5
 6833 1cef 04       		.byte	0x4
 6834 1cf0 D51C0000 		.4byte	0x1cd5
 6835 1cf4 15       		.uleb128 0x15
 6836 1cf5 3F0B0000 		.4byte	0xb3f
 6837 1cf9 081D0000 		.4byte	0x1d08
 6838 1cfd 16       		.uleb128 0x16
 6839 1cfe 6B010000 		.4byte	0x16b
 6840 1d02 16       		.uleb128 0x16
 6841 1d03 9C0A0000 		.4byte	0xa9c
 6842 1d07 00       		.byte	0
 6843 1d08 05       		.uleb128 0x5
 6844 1d09 04       		.byte	0x4
 6845 1d0a F41C0000 		.4byte	0x1cf4
 6846 1d0e 15       		.uleb128 0x15
 6847 1d0f 3F0B0000 		.4byte	0xb3f
 6848 1d13 1D1D0000 		.4byte	0x1d1d
 6849 1d17 16       		.uleb128 0x16
 6850 1d18 6B010000 		.4byte	0x16b
 6851 1d1c 00       		.byte	0
 6852 1d1d 05       		.uleb128 0x5
 6853 1d1e 04       		.byte	0x4
 6854 1d1f 0E1D0000 		.4byte	0x1d0e
ARM GAS  /var/folders/qd/4mxf5pkd0zdf0b9dd1hp39180000gn/T//ccsf5yWP.s 			page 122


 6855 1d23 0C       		.uleb128 0xc
 6856 1d24 0C       		.byte	0xc
 6857 1d25 1B       		.byte	0x1b
 6858 1d26 DA       		.byte	0xda
 6859 1d27 681D0000 		.4byte	0x1d68
 6860 1d2b 0D       		.uleb128 0xd
 6861 1d2c 5D250000 		.4byte	.LASF405
 6862 1d30 1B       		.byte	0x1b
 6863 1d31 DB       		.byte	0xdb
 6864 1d32 681D0000 		.4byte	0x1d68
 6865 1d36 00       		.byte	0
 6866 1d37 0D       		.uleb128 0xd
 6867 1d38 22110000 		.4byte	.LASF406
 6868 1d3c 1B       		.byte	0x1b
 6869 1d3d DC       		.byte	0xdc
 6870 1d3e 6E1D0000 		.4byte	0x1d6e
 6871 1d42 04       		.byte	0x4
 6872 1d43 0D       		.uleb128 0xd
 6873 1d44 6F040000 		.4byte	.LASF407
 6874 1d48 1B       		.byte	0x1b
 6875 1d49 DD       		.byte	0xdd
 6876 1d4a 9C0A0000 		.4byte	0xa9c
 6877 1d4e 08       		.byte	0x8
 6878 1d4f 0D       		.uleb128 0xd
 6879 1d50 FD1E0000 		.4byte	.LASF408
 6880 1d54 1B       		.byte	0x1b
 6881 1d55 DF       		.byte	0xdf
 6882 1d56 9C0A0000 		.4byte	0xa9c
 6883 1d5a 09       		.byte	0x9
 6884 1d5b 0D       		.uleb128 0xd
 6885 1d5c 84030000 		.4byte	.LASF409
 6886 1d60 1B       		.byte	0x1b
 6887 1d61 E0       		.byte	0xe0
 6888 1d62 9C0A0000 		.4byte	0xa9c
 6889 1d66 0A       		.byte	0xa
 6890 1d67 00       		.byte	0
 6891 1d68 05       		.uleb128 0x5
 6892 1d69 04       		.byte	0x4
 6893 1d6a A8130000 		.4byte	0x13a8
 6894 1d6e 05       		.uleb128 0x5
 6895 1d6f 04       		.byte	0x4
 6896 1d70 DD0A0000 		.4byte	0xadd
 6897 1d74 04       		.uleb128 0x4
 6898 1d75 AC130000 		.4byte	.LASF410
 6899 1d79 1B       		.byte	0x1b
 6900 1d7a E1       		.byte	0xe1
 6901 1d7b 231D0000 		.4byte	0x1d23
 6902 1d7f 0F       		.uleb128 0xf
 6903 1d80 741D0000 		.4byte	0x1d74
 6904 1d84 0A       		.uleb128 0xa
 6905 1d85 7F1D0000 		.4byte	0x1d7f
 6906 1d89 941D0000 		.4byte	0x1d94
 6907 1d8d 0B       		.uleb128 0xb
 6908 1d8e 45000000 		.4byte	0x45
 6909 1d92 0F       		.byte	0xf
 6910 1d93 00       		.byte	0
 6911 1d94 0F       		.uleb128 0xf
ARM GAS  /var/folders/qd/4mxf5pkd0zdf0b9dd1hp39180000gn/T//ccsf5yWP.s 			page 123


 6912 1d95 841D0000 		.4byte	0x1d84
 6913 1d99 20       		.uleb128 0x20
 6914 1d9a CC1B0000 		.4byte	.LASF411
 6915 1d9e 1B       		.byte	0x1b
 6916 1d9f BB01     		.2byte	0x1bb
 6917 1da1 941D0000 		.4byte	0x1d94
 6918 1da5 15       		.uleb128 0x15
 6919 1da6 3F0B0000 		.4byte	0xb3f
 6920 1daa BE1D0000 		.4byte	0x1dbe
 6921 1dae 16       		.uleb128 0x16
 6922 1daf 6B010000 		.4byte	0x16b
 6923 1db3 16       		.uleb128 0x16
 6924 1db4 9C0A0000 		.4byte	0xa9c
 6925 1db8 16       		.uleb128 0x16
 6926 1db9 760B0000 		.4byte	0xb76
 6927 1dbd 00       		.byte	0
 6928 1dbe 05       		.uleb128 0x5
 6929 1dbf 04       		.byte	0x4
 6930 1dc0 A51D0000 		.4byte	0x1da5
 6931 1dc4 15       		.uleb128 0x15
 6932 1dc5 3F0B0000 		.4byte	0xb3f
 6933 1dc9 D81D0000 		.4byte	0x1dd8
 6934 1dcd 16       		.uleb128 0x16
 6935 1dce 6B010000 		.4byte	0x16b
 6936 1dd2 16       		.uleb128 0x16
 6937 1dd3 760B0000 		.4byte	0xb76
 6938 1dd7 00       		.byte	0
 6939 1dd8 05       		.uleb128 0x5
 6940 1dd9 04       		.byte	0x4
 6941 1dda C41D0000 		.4byte	0x1dc4
 6942 1dde 15       		.uleb128 0x15
 6943 1ddf 3A000000 		.4byte	0x3a
 6944 1de3 FC1D0000 		.4byte	0x1dfc
 6945 1de7 16       		.uleb128 0x16
 6946 1de8 6B010000 		.4byte	0x16b
 6947 1dec 16       		.uleb128 0x16
 6948 1ded C91C0000 		.4byte	0x1cc9
 6949 1df1 16       		.uleb128 0x16
 6950 1df2 3A000000 		.4byte	0x3a
 6951 1df6 16       		.uleb128 0x16
 6952 1df7 760B0000 		.4byte	0xb76
 6953 1dfb 00       		.byte	0
 6954 1dfc 05       		.uleb128 0x5
 6955 1dfd 04       		.byte	0x4
 6956 1dfe DE1D0000 		.4byte	0x1dde
 6957 1e02 15       		.uleb128 0x15
 6958 1e03 3A000000 		.4byte	0x3a
 6959 1e07 201E0000 		.4byte	0x1e20
 6960 1e0b 16       		.uleb128 0x16
 6961 1e0c 6B010000 		.4byte	0x16b
 6962 1e10 16       		.uleb128 0x16
 6963 1e11 941C0000 		.4byte	0x1c94
 6964 1e15 16       		.uleb128 0x16
 6965 1e16 3A000000 		.4byte	0x3a
 6966 1e1a 16       		.uleb128 0x16
 6967 1e1b 760B0000 		.4byte	0xb76
 6968 1e1f 00       		.byte	0
ARM GAS  /var/folders/qd/4mxf5pkd0zdf0b9dd1hp39180000gn/T//ccsf5yWP.s 			page 124


 6969 1e20 05       		.uleb128 0x5
 6970 1e21 04       		.byte	0x4
 6971 1e22 021E0000 		.4byte	0x1e02
 6972 1e26 2A       		.uleb128 0x2a
 6973 1e27 07       		.byte	0x7
 6974 1e28 01       		.byte	0x1
 6975 1e29 6C000000 		.4byte	0x6c
 6976 1e2d 1C       		.byte	0x1c
 6977 1e2e 28       		.byte	0x28
 6978 1e2f 6A1E0000 		.4byte	0x1e6a
 6979 1e33 23       		.uleb128 0x23
 6980 1e34 40010000 		.4byte	.LASF412
 6981 1e38 00       		.byte	0
 6982 1e39 23       		.uleb128 0x23
 6983 1e3a FE0E0000 		.4byte	.LASF413
 6984 1e3e 01       		.byte	0x1
 6985 1e3f 23       		.uleb128 0x23
 6986 1e40 010B0000 		.4byte	.LASF414
 6987 1e44 02       		.byte	0x2
 6988 1e45 23       		.uleb128 0x23
 6989 1e46 3B1D0000 		.4byte	.LASF415
 6990 1e4a 03       		.byte	0x3
 6991 1e4b 23       		.uleb128 0x23
 6992 1e4c 5F240000 		.4byte	.LASF416
 6993 1e50 04       		.byte	0x4
 6994 1e51 23       		.uleb128 0x23
 6995 1e52 89070000 		.4byte	.LASF417
 6996 1e56 05       		.byte	0x5
 6997 1e57 23       		.uleb128 0x23
 6998 1e58 D41E0000 		.4byte	.LASF418
 6999 1e5c 06       		.byte	0x6
 7000 1e5d 23       		.uleb128 0x23
 7001 1e5e D3190000 		.4byte	.LASF419
 7002 1e62 07       		.byte	0x7
 7003 1e63 23       		.uleb128 0x23
 7004 1e64 2B240000 		.4byte	.LASF420
 7005 1e68 08       		.byte	0x8
 7006 1e69 00       		.byte	0
 7007 1e6a 04       		.uleb128 0x4
 7008 1e6b 74180000 		.4byte	.LASF421
 7009 1e6f 1C       		.byte	0x1c
 7010 1e70 32       		.byte	0x32
 7011 1e71 261E0000 		.4byte	0x1e26
 7012 1e75 0C       		.uleb128 0xc
 7013 1e76 08       		.byte	0x8
 7014 1e77 1C       		.byte	0x1c
 7015 1e78 37       		.byte	0x37
 7016 1e79 961E0000 		.4byte	0x1e96
 7017 1e7d 0D       		.uleb128 0xd
 7018 1e7e 1A070000 		.4byte	.LASF422
 7019 1e82 1C       		.byte	0x1c
 7020 1e83 38       		.byte	0x38
 7021 1e84 D20A0000 		.4byte	0xad2
 7022 1e88 00       		.byte	0
 7023 1e89 0D       		.uleb128 0xd
 7024 1e8a 401E0000 		.4byte	.LASF423
 7025 1e8e 1C       		.byte	0x1c
ARM GAS  /var/folders/qd/4mxf5pkd0zdf0b9dd1hp39180000gn/T//ccsf5yWP.s 			page 125


 7026 1e8f 39       		.byte	0x39
 7027 1e90 D20A0000 		.4byte	0xad2
 7028 1e94 04       		.byte	0x4
 7029 1e95 00       		.byte	0
 7030 1e96 04       		.uleb128 0x4
 7031 1e97 60200000 		.4byte	.LASF424
 7032 1e9b 1C       		.byte	0x1c
 7033 1e9c 3A       		.byte	0x3a
 7034 1e9d 751E0000 		.4byte	0x1e75
 7035 1ea1 15       		.uleb128 0x15
 7036 1ea2 6F0A0000 		.4byte	0xa6f
 7037 1ea6 B01E0000 		.4byte	0x1eb0
 7038 1eaa 16       		.uleb128 0x16
 7039 1eab 6B010000 		.4byte	0x16b
 7040 1eaf 00       		.byte	0
 7041 1eb0 05       		.uleb128 0x5
 7042 1eb1 04       		.byte	0x4
 7043 1eb2 A11E0000 		.4byte	0x1ea1
 7044 1eb6 15       		.uleb128 0x15
 7045 1eb7 6F0A0000 		.4byte	0xa6f
 7046 1ebb D41E0000 		.4byte	0x1ed4
 7047 1ebf 16       		.uleb128 0x16
 7048 1ec0 6B010000 		.4byte	0x16b
 7049 1ec4 16       		.uleb128 0x16
 7050 1ec5 D20A0000 		.4byte	0xad2
 7051 1ec9 16       		.uleb128 0x16
 7052 1eca 941C0000 		.4byte	0x1c94
 7053 1ece 16       		.uleb128 0x16
 7054 1ecf D20A0000 		.4byte	0xad2
 7055 1ed3 00       		.byte	0
 7056 1ed4 05       		.uleb128 0x5
 7057 1ed5 04       		.byte	0x4
 7058 1ed6 B61E0000 		.4byte	0x1eb6
 7059 1eda 15       		.uleb128 0x15
 7060 1edb 6F0A0000 		.4byte	0xa6f
 7061 1edf F81E0000 		.4byte	0x1ef8
 7062 1ee3 16       		.uleb128 0x16
 7063 1ee4 6B010000 		.4byte	0x16b
 7064 1ee8 16       		.uleb128 0x16
 7065 1ee9 D20A0000 		.4byte	0xad2
 7066 1eed 16       		.uleb128 0x16
 7067 1eee C91C0000 		.4byte	0x1cc9
 7068 1ef2 16       		.uleb128 0x16
 7069 1ef3 D20A0000 		.4byte	0xad2
 7070 1ef7 00       		.byte	0
 7071 1ef8 05       		.uleb128 0x5
 7072 1ef9 04       		.byte	0x4
 7073 1efa DA1E0000 		.4byte	0x1eda
 7074 1efe 15       		.uleb128 0x15
 7075 1eff 6F0A0000 		.4byte	0xa6f
 7076 1f03 121F0000 		.4byte	0x1f12
 7077 1f07 16       		.uleb128 0x16
 7078 1f08 6B010000 		.4byte	0x16b
 7079 1f0c 16       		.uleb128 0x16
 7080 1f0d 121F0000 		.4byte	0x1f12
 7081 1f11 00       		.byte	0
 7082 1f12 05       		.uleb128 0x5
ARM GAS  /var/folders/qd/4mxf5pkd0zdf0b9dd1hp39180000gn/T//ccsf5yWP.s 			page 126


 7083 1f13 04       		.byte	0x4
 7084 1f14 961E0000 		.4byte	0x1e96
 7085 1f18 05       		.uleb128 0x5
 7086 1f19 04       		.byte	0x4
 7087 1f1a FE1E0000 		.4byte	0x1efe
 7088 1f1e 0A       		.uleb128 0xa
 7089 1f1f D20A0000 		.4byte	0xad2
 7090 1f23 2E1F0000 		.4byte	0x1f2e
 7091 1f27 0B       		.uleb128 0xb
 7092 1f28 45000000 		.4byte	0x45
 7093 1f2c 03       		.byte	0x3
 7094 1f2d 00       		.byte	0
 7095 1f2e 0C       		.uleb128 0xc
 7096 1f2f 04       		.byte	0x4
 7097 1f30 1D       		.byte	0x1d
 7098 1f31 B3       		.byte	0xb3
 7099 1f32 4F1F0000 		.4byte	0x1f4f
 7100 1f36 11       		.uleb128 0x11
 7101 1f37 73657400 		.ascii	"set\000"
 7102 1f3b 1D       		.byte	0x1d
 7103 1f3c B4       		.byte	0xb4
 7104 1f3d B70A0000 		.4byte	0xab7
 7105 1f41 00       		.byte	0
 7106 1f42 0D       		.uleb128 0xd
 7107 1f43 1E0D0000 		.4byte	.LASF425
 7108 1f47 1D       		.byte	0x1d
 7109 1f48 B5       		.byte	0xb5
 7110 1f49 B70A0000 		.4byte	0xab7
 7111 1f4d 02       		.byte	0x2
 7112 1f4e 00       		.byte	0
 7113 1f4f 08       		.uleb128 0x8
 7114 1f50 04       		.byte	0x4
 7115 1f51 1D       		.byte	0x1d
 7116 1f52 B1       		.byte	0xb1
 7117 1f53 6A1F0000 		.4byte	0x1f6a
 7118 1f57 2B       		.uleb128 0x2b
 7119 1f58 5700     		.ascii	"W\000"
 7120 1f5a 1D       		.byte	0x1d
 7121 1f5b B2       		.byte	0xb2
 7122 1f5c D20A0000 		.4byte	0xad2
 7123 1f60 2B       		.uleb128 0x2b
 7124 1f61 4800     		.ascii	"H\000"
 7125 1f63 1D       		.byte	0x1d
 7126 1f64 B6       		.byte	0xb6
 7127 1f65 2E1F0000 		.4byte	0x1f2e
 7128 1f69 00       		.byte	0
 7129 1f6a 1A       		.uleb128 0x1a
 7130 1f6b 4F1F0000 		.4byte	0x1f4f
 7131 1f6f 0C       		.uleb128 0xc
 7132 1f70 2C       		.byte	0x2c
 7133 1f71 1D       		.byte	0x1d
 7134 1f72 A9       		.byte	0xa9
 7135 1f73 FC1F0000 		.4byte	0x1ffc
 7136 1f77 0D       		.uleb128 0xd
 7137 1f78 3C1F0000 		.4byte	.LASF426
 7138 1f7c 1D       		.byte	0x1d
 7139 1f7d AB       		.byte	0xab
ARM GAS  /var/folders/qd/4mxf5pkd0zdf0b9dd1hp39180000gn/T//ccsf5yWP.s 			page 127


 7140 1f7e DD0A0000 		.4byte	0xadd
 7141 1f82 00       		.byte	0
 7142 1f83 0D       		.uleb128 0xd
 7143 1f84 0D030000 		.4byte	.LASF427
 7144 1f88 1D       		.byte	0x1d
 7145 1f89 AC       		.byte	0xac
 7146 1f8a DD0A0000 		.4byte	0xadd
 7147 1f8e 04       		.byte	0x4
 7148 1f8f 0D       		.uleb128 0xd
 7149 1f90 B90E0000 		.4byte	.LASF428
 7150 1f94 1D       		.byte	0x1d
 7151 1f95 AD       		.byte	0xad
 7152 1f96 DD0A0000 		.4byte	0xadd
 7153 1f9a 08       		.byte	0x8
 7154 1f9b 0D       		.uleb128 0xd
 7155 1f9c 661E0000 		.4byte	.LASF429
 7156 1fa0 1D       		.byte	0x1d
 7157 1fa1 AE       		.byte	0xae
 7158 1fa2 DD0A0000 		.4byte	0xadd
 7159 1fa6 0C       		.byte	0xc
 7160 1fa7 11       		.uleb128 0x11
 7161 1fa8 49445200 		.ascii	"IDR\000"
 7162 1fac 1D       		.byte	0x1d
 7163 1fad AF       		.byte	0xaf
 7164 1fae DD0A0000 		.4byte	0xadd
 7165 1fb2 10       		.byte	0x10
 7166 1fb3 11       		.uleb128 0x11
 7167 1fb4 4F445200 		.ascii	"ODR\000"
 7168 1fb8 1D       		.byte	0x1d
 7169 1fb9 B0       		.byte	0xb0
 7170 1fba DD0A0000 		.4byte	0xadd
 7171 1fbe 14       		.byte	0x14
 7172 1fbf 0D       		.uleb128 0xd
 7173 1fc0 A7130000 		.4byte	.LASF430
 7174 1fc4 1D       		.byte	0x1d
 7175 1fc5 B7       		.byte	0xb7
 7176 1fc6 6A1F0000 		.4byte	0x1f6a
 7177 1fca 18       		.byte	0x18
 7178 1fcb 0D       		.uleb128 0xd
 7179 1fcc A3190000 		.4byte	.LASF431
 7180 1fd0 1D       		.byte	0x1d
 7181 1fd1 B8       		.byte	0xb8
 7182 1fd2 DD0A0000 		.4byte	0xadd
 7183 1fd6 1C       		.byte	0x1c
 7184 1fd7 0D       		.uleb128 0xd
 7185 1fd8 B01C0000 		.4byte	.LASF432
 7186 1fdc 1D       		.byte	0x1d
 7187 1fdd B9       		.byte	0xb9
 7188 1fde DD0A0000 		.4byte	0xadd
 7189 1fe2 20       		.byte	0x20
 7190 1fe3 0D       		.uleb128 0xd
 7191 1fe4 AB1C0000 		.4byte	.LASF433
 7192 1fe8 1D       		.byte	0x1d
 7193 1fe9 BA       		.byte	0xba
 7194 1fea DD0A0000 		.4byte	0xadd
 7195 1fee 24       		.byte	0x24
 7196 1fef 11       		.uleb128 0x11
ARM GAS  /var/folders/qd/4mxf5pkd0zdf0b9dd1hp39180000gn/T//ccsf5yWP.s 			page 128


 7197 1ff0 42525200 		.ascii	"BRR\000"
 7198 1ff4 1D       		.byte	0x1d
 7199 1ff5 BB       		.byte	0xbb
 7200 1ff6 DD0A0000 		.4byte	0xadd
 7201 1ffa 28       		.byte	0x28
 7202 1ffb 00       		.byte	0
 7203 1ffc 04       		.uleb128 0x4
 7204 1ffd 32110000 		.4byte	.LASF434
 7205 2001 1D       		.byte	0x1d
 7206 2002 BC       		.byte	0xbc
 7207 2003 6F1F0000 		.4byte	0x1f6f
 7208 2007 0C       		.uleb128 0xc
 7209 2008 1C       		.byte	0x1c
 7210 2009 1D       		.byte	0x1d
 7211 200a C1       		.byte	0xc1
 7212 200b 64200000 		.4byte	0x2064
 7213 200f 0D       		.uleb128 0xd
 7214 2010 EA220000 		.4byte	.LASF435
 7215 2014 1D       		.byte	0x1d
 7216 2015 C3       		.byte	0xc3
 7217 2016 D20A0000 		.4byte	0xad2
 7218 201a 00       		.byte	0
 7219 201b 0D       		.uleb128 0xd
 7220 201c 06030000 		.4byte	.LASF436
 7221 2020 1D       		.byte	0x1d
 7222 2021 C5       		.byte	0xc5
 7223 2022 D20A0000 		.4byte	0xad2
 7224 2026 04       		.byte	0x4
 7225 2027 0D       		.uleb128 0xd
 7226 2028 08020000 		.4byte	.LASF437
 7227 202c 1D       		.byte	0x1d
 7228 202d C7       		.byte	0xc7
 7229 202e D20A0000 		.4byte	0xad2
 7230 2032 08       		.byte	0x8
 7231 2033 0D       		.uleb128 0xd
 7232 2034 C2210000 		.4byte	.LASF438
 7233 2038 1D       		.byte	0x1d
 7234 2039 C9       		.byte	0xc9
 7235 203a D20A0000 		.4byte	0xad2
 7236 203e 0C       		.byte	0xc
 7237 203f 11       		.uleb128 0x11
 7238 2040 6F647200 		.ascii	"odr\000"
 7239 2044 1D       		.byte	0x1d
 7240 2045 CB       		.byte	0xcb
 7241 2046 D20A0000 		.4byte	0xad2
 7242 204a 10       		.byte	0x10
 7243 204b 0D       		.uleb128 0xd
 7244 204c E01E0000 		.4byte	.LASF439
 7245 2050 1D       		.byte	0x1d
 7246 2051 CD       		.byte	0xcd
 7247 2052 D20A0000 		.4byte	0xad2
 7248 2056 14       		.byte	0x14
 7249 2057 0D       		.uleb128 0xd
 7250 2058 56000000 		.4byte	.LASF440
 7251 205c 1D       		.byte	0x1d
 7252 205d CF       		.byte	0xcf
 7253 205e D20A0000 		.4byte	0xad2
ARM GAS  /var/folders/qd/4mxf5pkd0zdf0b9dd1hp39180000gn/T//ccsf5yWP.s 			page 129


 7254 2062 18       		.byte	0x18
 7255 2063 00       		.byte	0
 7256 2064 04       		.uleb128 0x4
 7257 2065 A61B0000 		.4byte	.LASF441
 7258 2069 1D       		.byte	0x1d
 7259 206a D0       		.byte	0xd0
 7260 206b 07200000 		.4byte	0x2007
 7261 206f 0C       		.uleb128 0xc
 7262 2070 FC       		.byte	0xfc
 7263 2071 1D       		.byte	0x1d
 7264 2072 D9       		.byte	0xd9
 7265 2073 E4200000 		.4byte	0x20e4
 7266 2077 0D       		.uleb128 0xd
 7267 2078 C3110000 		.4byte	.LASF442
 7268 207c 1D       		.byte	0x1d
 7269 207d DC       		.byte	0xdc
 7270 207e 64200000 		.4byte	0x2064
 7271 2082 00       		.byte	0
 7272 2083 0D       		.uleb128 0xd
 7273 2084 EF020000 		.4byte	.LASF443
 7274 2088 1D       		.byte	0x1d
 7275 2089 E0       		.byte	0xe0
 7276 208a 64200000 		.4byte	0x2064
 7277 208e 1C       		.byte	0x1c
 7278 208f 0D       		.uleb128 0xd
 7279 2090 A0010000 		.4byte	.LASF444
 7280 2094 1D       		.byte	0x1d
 7281 2095 E4       		.byte	0xe4
 7282 2096 64200000 		.4byte	0x2064
 7283 209a 38       		.byte	0x38
 7284 209b 0D       		.uleb128 0xd
 7285 209c 2C0E0000 		.4byte	.LASF445
 7286 20a0 1D       		.byte	0x1d
 7287 20a1 E8       		.byte	0xe8
 7288 20a2 64200000 		.4byte	0x2064
 7289 20a6 54       		.byte	0x54
 7290 20a7 0D       		.uleb128 0xd
 7291 20a8 F31A0000 		.4byte	.LASF446
 7292 20ac 1D       		.byte	0x1d
 7293 20ad EC       		.byte	0xec
 7294 20ae 64200000 		.4byte	0x2064
 7295 20b2 70       		.byte	0x70
 7296 20b3 0D       		.uleb128 0xd
 7297 20b4 46260000 		.4byte	.LASF447
 7298 20b8 1D       		.byte	0x1d
 7299 20b9 F0       		.byte	0xf0
 7300 20ba 64200000 		.4byte	0x2064
 7301 20be 8C       		.byte	0x8c
 7302 20bf 0D       		.uleb128 0xd
 7303 20c0 080C0000 		.4byte	.LASF448
 7304 20c4 1D       		.byte	0x1d
 7305 20c5 F4       		.byte	0xf4
 7306 20c6 64200000 		.4byte	0x2064
 7307 20ca A8       		.byte	0xa8
 7308 20cb 0D       		.uleb128 0xd
 7309 20cc 11190000 		.4byte	.LASF449
 7310 20d0 1D       		.byte	0x1d
ARM GAS  /var/folders/qd/4mxf5pkd0zdf0b9dd1hp39180000gn/T//ccsf5yWP.s 			page 130


 7311 20d1 F8       		.byte	0xf8
 7312 20d2 64200000 		.4byte	0x2064
 7313 20d6 C4       		.byte	0xc4
 7314 20d7 0D       		.uleb128 0xd
 7315 20d8 37240000 		.4byte	.LASF450
 7316 20dc 1D       		.byte	0x1d
 7317 20dd FC       		.byte	0xfc
 7318 20de 64200000 		.4byte	0x2064
 7319 20e2 E0       		.byte	0xe0
 7320 20e3 00       		.byte	0
 7321 20e4 04       		.uleb128 0x4
 7322 20e5 E40A0000 		.4byte	.LASF451
 7323 20e9 1D       		.byte	0x1d
 7324 20ea FE       		.byte	0xfe
 7325 20eb 6F200000 		.4byte	0x206f
 7326 20ef 0F       		.uleb128 0xf
 7327 20f0 E4200000 		.4byte	0x20e4
 7328 20f4 07       		.uleb128 0x7
 7329 20f5 18190000 		.4byte	.LASF452
 7330 20f9 1D       		.byte	0x1d
 7331 20fa 1B01     		.2byte	0x11b
 7332 20fc 00210000 		.4byte	0x2100
 7333 2100 05       		.uleb128 0x5
 7334 2101 04       		.byte	0x4
 7335 2102 FC1F0000 		.4byte	0x1ffc
 7336 2106 20       		.uleb128 0x20
 7337 2107 ED1F0000 		.4byte	.LASF453
 7338 210b 1D       		.byte	0x1d
 7339 210c DA01     		.2byte	0x1da
 7340 210e EF200000 		.4byte	0x20ef
 7341 2112 2A       		.uleb128 0x2a
 7342 2113 07       		.byte	0x7
 7343 2114 01       		.byte	0x1
 7344 2115 6C000000 		.4byte	0x6c
 7345 2119 1E       		.byte	0x1e
 7346 211a 46       		.byte	0x46
 7347 211b 44210000 		.4byte	0x2144
 7348 211f 23       		.uleb128 0x23
 7349 2120 47080000 		.4byte	.LASF454
 7350 2124 00       		.byte	0
 7351 2125 23       		.uleb128 0x23
 7352 2126 3A160000 		.4byte	.LASF455
 7353 212a 01       		.byte	0x1
 7354 212b 23       		.uleb128 0x23
 7355 212c 99220000 		.4byte	.LASF456
 7356 2130 02       		.byte	0x2
 7357 2131 23       		.uleb128 0x23
 7358 2132 80130000 		.4byte	.LASF457
 7359 2136 03       		.byte	0x3
 7360 2137 23       		.uleb128 0x23
 7361 2138 8E060000 		.4byte	.LASF458
 7362 213c 04       		.byte	0x4
 7363 213d 23       		.uleb128 0x23
 7364 213e 2B130000 		.4byte	.LASF459
 7365 2142 05       		.byte	0x5
 7366 2143 00       		.byte	0
 7367 2144 04       		.uleb128 0x4
ARM GAS  /var/folders/qd/4mxf5pkd0zdf0b9dd1hp39180000gn/T//ccsf5yWP.s 			page 131


 7368 2145 5B040000 		.4byte	.LASF460
 7369 2149 1E       		.byte	0x1e
 7370 214a 4D       		.byte	0x4d
 7371 214b 12210000 		.4byte	0x2112
 7372 214f 07       		.uleb128 0x7
 7373 2150 52120000 		.4byte	.LASF461
 7374 2154 1F       		.byte	0x1f
 7375 2155 2701     		.2byte	0x127
 7376 2157 B70A0000 		.4byte	0xab7
 7377 215b 07       		.uleb128 0x7
 7378 215c 681D0000 		.4byte	.LASF462
 7379 2160 1F       		.byte	0x1f
 7380 2161 2C01     		.2byte	0x12c
 7381 2163 B70A0000 		.4byte	0xab7
 7382 2167 2C       		.uleb128 0x2c
 7383 2168 07       		.byte	0x7
 7384 2169 01       		.byte	0x1
 7385 216a 6C000000 		.4byte	0x6c
 7386 216e 1F       		.byte	0x1f
 7387 216f 3301     		.2byte	0x133
 7388 2171 82210000 		.4byte	0x2182
 7389 2175 23       		.uleb128 0x23
 7390 2176 850E0000 		.4byte	.LASF463
 7391 217a 00       		.byte	0
 7392 217b 23       		.uleb128 0x23
 7393 217c 31020000 		.4byte	.LASF464
 7394 2180 01       		.byte	0x1
 7395 2181 00       		.byte	0
 7396 2182 07       		.uleb128 0x7
 7397 2183 98230000 		.4byte	.LASF465
 7398 2187 1F       		.byte	0x1f
 7399 2188 3601     		.2byte	0x136
 7400 218a 67210000 		.4byte	0x2167
 7401 218e 07       		.uleb128 0x7
 7402 218f 390F0000 		.4byte	.LASF466
 7403 2193 1F       		.byte	0x1f
 7404 2194 3B01     		.2byte	0x13b
 7405 2196 9A210000 		.4byte	0x219a
 7406 219a 1B       		.uleb128 0x1b
 7407 219b 390F0000 		.4byte	.LASF466
 7408 219f 38       		.byte	0x38
 7409 21a0 1F       		.byte	0x1f
 7410 21a1 9F01     		.2byte	0x19f
 7411 21a3 2A220000 		.4byte	0x222a
 7412 21a7 18       		.uleb128 0x18
 7413 21a8 39170000 		.4byte	.LASF467
 7414 21ac 1F       		.byte	0x1f
 7415 21ad A301     		.2byte	0x1a3
 7416 21af 44210000 		.4byte	0x2144
 7417 21b3 00       		.byte	0
 7418 21b4 18       		.uleb128 0x18
 7419 21b5 0D1D0000 		.4byte	.LASF468
 7420 21b9 1F       		.byte	0x1f
 7421 21ba A701     		.2byte	0x1a7
 7422 21bc 51230000 		.4byte	0x2351
 7423 21c0 04       		.byte	0x4
 7424 21c1 18       		.uleb128 0x18
ARM GAS  /var/folders/qd/4mxf5pkd0zdf0b9dd1hp39180000gn/T//ccsf5yWP.s 			page 132


 7425 21c2 B6010000 		.4byte	.LASF469
 7426 21c6 1F       		.byte	0x1f
 7427 21c7 AB01     		.2byte	0x1ab
 7428 21c9 57220000 		.4byte	0x2257
 7429 21cd 08       		.byte	0x8
 7430 21ce 18       		.uleb128 0x18
 7431 21cf 181A0000 		.4byte	.LASF470
 7432 21d3 1F       		.byte	0x1f
 7433 21d4 AF01     		.2byte	0x1af
 7434 21d6 3A000000 		.4byte	0x3a
 7435 21da 0C       		.byte	0xc
 7436 21db 18       		.uleb128 0x18
 7437 21dc 0B200000 		.4byte	.LASF471
 7438 21e0 1F       		.byte	0x1f
 7439 21e1 B301     		.2byte	0x1b3
 7440 21e3 57230000 		.4byte	0x2357
 7441 21e7 10       		.byte	0x10
 7442 21e8 18       		.uleb128 0x18
 7443 21e9 F1060000 		.4byte	.LASF472
 7444 21ed 1F       		.byte	0x1f
 7445 21ee B801     		.2byte	0x1b8
 7446 21f0 AF0C0000 		.4byte	0xcaf
 7447 21f4 14       		.byte	0x14
 7448 21f5 18       		.uleb128 0x18
 7449 21f6 E40C0000 		.4byte	.LASF473
 7450 21fa 1F       		.byte	0x1f
 7451 21fb BE01     		.2byte	0x1be
 7452 21fd 6B1B0000 		.4byte	0x1b6b
 7453 2201 18       		.byte	0x18
 7454 2202 25       		.uleb128 0x25
 7455 2203 61646300 		.ascii	"adc\000"
 7456 2207 1F       		.byte	0x1f
 7457 2208 C701     		.2byte	0x1c7
 7458 220a 5D230000 		.4byte	0x235d
 7459 220e 2C       		.byte	0x2c
 7460 220f 18       		.uleb128 0x18
 7461 2210 A30A0000 		.4byte	.LASF474
 7462 2214 1F       		.byte	0x1f
 7463 2215 CB01     		.2byte	0x1cb
 7464 2217 63230000 		.4byte	0x2363
 7465 221b 30       		.byte	0x30
 7466 221c 18       		.uleb128 0x18
 7467 221d 3A190000 		.4byte	.LASF475
 7468 2221 1F       		.byte	0x1f
 7469 2222 CF01     		.2byte	0x1cf
 7470 2224 D20A0000 		.4byte	0xad2
 7471 2228 34       		.byte	0x34
 7472 2229 00       		.byte	0
 7473 222a 07       		.uleb128 0x7
 7474 222b 501C0000 		.4byte	.LASF476
 7475 222f 1F       		.byte	0x1f
 7476 2230 4501     		.2byte	0x145
 7477 2232 36220000 		.4byte	0x2236
 7478 2236 05       		.uleb128 0x5
 7479 2237 04       		.byte	0x4
 7480 2238 3C220000 		.4byte	0x223c
 7481 223c 1F       		.uleb128 0x1f
ARM GAS  /var/folders/qd/4mxf5pkd0zdf0b9dd1hp39180000gn/T//ccsf5yWP.s 			page 133


 7482 223d 51220000 		.4byte	0x2251
 7483 2241 16       		.uleb128 0x16
 7484 2242 51220000 		.4byte	0x2251
 7485 2246 16       		.uleb128 0x16
 7486 2247 57220000 		.4byte	0x2257
 7487 224b 16       		.uleb128 0x16
 7488 224c 3A000000 		.4byte	0x3a
 7489 2250 00       		.byte	0
 7490 2251 05       		.uleb128 0x5
 7491 2252 04       		.byte	0x4
 7492 2253 8E210000 		.4byte	0x218e
 7493 2257 05       		.uleb128 0x5
 7494 2258 04       		.byte	0x4
 7495 2259 4F210000 		.4byte	0x214f
 7496 225d 07       		.uleb128 0x7
 7497 225e 06170000 		.4byte	.LASF477
 7498 2262 1F       		.byte	0x1f
 7499 2263 4E01     		.2byte	0x14e
 7500 2265 69220000 		.4byte	0x2269
 7501 2269 05       		.uleb128 0x5
 7502 226a 04       		.byte	0x4
 7503 226b 6F220000 		.4byte	0x226f
 7504 226f 1F       		.uleb128 0x1f
 7505 2270 7F220000 		.4byte	0x227f
 7506 2274 16       		.uleb128 0x16
 7507 2275 51220000 		.4byte	0x2251
 7508 2279 16       		.uleb128 0x16
 7509 227a 82210000 		.4byte	0x2182
 7510 227e 00       		.byte	0
 7511 227f 1C       		.uleb128 0x1c
 7512 2280 28       		.byte	0x28
 7513 2281 1F       		.byte	0x1f
 7514 2282 5801     		.2byte	0x158
 7515 2284 18230000 		.4byte	0x2318
 7516 2288 18       		.uleb128 0x18
 7517 2289 D6220000 		.4byte	.LASF478
 7518 228d 1F       		.byte	0x1f
 7519 228e 5C01     		.2byte	0x15c
 7520 2290 6F0A0000 		.4byte	0xa6f
 7521 2294 00       		.byte	0
 7522 2295 18       		.uleb128 0x18
 7523 2296 84110000 		.4byte	.LASF479
 7524 229a 1F       		.byte	0x1f
 7525 229b 6001     		.2byte	0x160
 7526 229d 5B210000 		.4byte	0x215b
 7527 22a1 02       		.byte	0x2
 7528 22a2 18       		.uleb128 0x18
 7529 22a3 3E090000 		.4byte	.LASF480
 7530 22a7 1F       		.byte	0x1f
 7531 22a8 6401     		.2byte	0x164
 7532 22aa 2A220000 		.4byte	0x222a
 7533 22ae 04       		.byte	0x4
 7534 22af 18       		.uleb128 0x18
 7535 22b0 56240000 		.4byte	.LASF481
 7536 22b4 1F       		.byte	0x1f
 7537 22b5 6801     		.2byte	0x168
 7538 22b7 5D220000 		.4byte	0x225d
ARM GAS  /var/folders/qd/4mxf5pkd0zdf0b9dd1hp39180000gn/T//ccsf5yWP.s 			page 134


 7539 22bb 08       		.byte	0x8
 7540 22bc 25       		.uleb128 0x25
 7541 22bd 63723100 		.ascii	"cr1\000"
 7542 22c1 1F       		.byte	0x1f
 7543 22c2 6F01     		.2byte	0x16f
 7544 22c4 D20A0000 		.4byte	0xad2
 7545 22c8 0C       		.byte	0xc
 7546 22c9 25       		.uleb128 0x25
 7547 22ca 63723200 		.ascii	"cr2\000"
 7548 22ce 1F       		.byte	0x1f
 7549 22cf 7601     		.2byte	0x176
 7550 22d1 D20A0000 		.4byte	0xad2
 7551 22d5 10       		.byte	0x10
 7552 22d6 18       		.uleb128 0x18
 7553 22d7 58180000 		.4byte	.LASF482
 7554 22db 1F       		.byte	0x1f
 7555 22dc 7C01     		.2byte	0x17c
 7556 22de D20A0000 		.4byte	0xad2
 7557 22e2 14       		.byte	0x14
 7558 22e3 18       		.uleb128 0x18
 7559 22e4 5E180000 		.4byte	.LASF483
 7560 22e8 1F       		.byte	0x1f
 7561 22e9 8201     		.2byte	0x182
 7562 22eb D20A0000 		.4byte	0xad2
 7563 22ef 18       		.byte	0x18
 7564 22f0 18       		.uleb128 0x18
 7565 22f1 33010000 		.4byte	.LASF484
 7566 22f5 1F       		.byte	0x1f
 7567 22f6 8701     		.2byte	0x187
 7568 22f8 D20A0000 		.4byte	0xad2
 7569 22fc 1C       		.byte	0x1c
 7570 22fd 18       		.uleb128 0x18
 7571 22fe 3E250000 		.4byte	.LASF485
 7572 2302 1F       		.byte	0x1f
 7573 2303 8C01     		.2byte	0x18c
 7574 2305 D20A0000 		.4byte	0xad2
 7575 2309 20       		.byte	0x20
 7576 230a 18       		.uleb128 0x18
 7577 230b 43250000 		.4byte	.LASF486
 7578 230f 1F       		.byte	0x1f
 7579 2310 9101     		.2byte	0x191
 7580 2312 D20A0000 		.4byte	0xad2
 7581 2316 24       		.byte	0x24
 7582 2317 00       		.byte	0
 7583 2318 07       		.uleb128 0x7
 7584 2319 B3050000 		.4byte	.LASF487
 7585 231d 1F       		.byte	0x1f
 7586 231e 9201     		.2byte	0x192
 7587 2320 7F220000 		.4byte	0x227f
 7588 2324 0F       		.uleb128 0xf
 7589 2325 18230000 		.4byte	0x2318
 7590 2329 1C       		.uleb128 0x1c
 7591 232a 04       		.byte	0x4
 7592 232b 1F       		.byte	0x1f
 7593 232c 9801     		.2byte	0x198
 7594 232e 40230000 		.4byte	0x2340
 7595 2332 18       		.uleb128 0x18
ARM GAS  /var/folders/qd/4mxf5pkd0zdf0b9dd1hp39180000gn/T//ccsf5yWP.s 			page 135


 7596 2333 64250000 		.4byte	.LASF488
 7597 2337 1F       		.byte	0x1f
 7598 2338 9901     		.2byte	0x199
 7599 233a D20A0000 		.4byte	0xad2
 7600 233e 00       		.byte	0
 7601 233f 00       		.byte	0
 7602 2340 07       		.uleb128 0x7
 7603 2341 510F0000 		.4byte	.LASF489
 7604 2345 1F       		.byte	0x1f
 7605 2346 9A01     		.2byte	0x19a
 7606 2348 29230000 		.4byte	0x2329
 7607 234c 0F       		.uleb128 0xf
 7608 234d 40230000 		.4byte	0x2340
 7609 2351 05       		.uleb128 0x5
 7610 2352 04       		.byte	0x4
 7611 2353 4C230000 		.4byte	0x234c
 7612 2357 05       		.uleb128 0x5
 7613 2358 04       		.byte	0x4
 7614 2359 24230000 		.4byte	0x2324
 7615 235d 05       		.uleb128 0x5
 7616 235e 04       		.byte	0x4
 7617 235f 32100000 		.4byte	0x1032
 7618 2363 05       		.uleb128 0x5
 7619 2364 04       		.byte	0x4
 7620 2365 7F1D0000 		.4byte	0x1d7f
 7621 2369 20       		.uleb128 0x20
 7622 236a 23190000 		.4byte	.LASF490
 7623 236e 1F       		.byte	0x1f
 7624 236f 1402     		.2byte	0x214
 7625 2371 8E210000 		.4byte	0x218e
 7626 2375 20       		.uleb128 0x20
 7627 2376 29190000 		.4byte	.LASF491
 7628 237a 1F       		.byte	0x1f
 7629 237b 1802     		.2byte	0x218
 7630 237d 8E210000 		.4byte	0x218e
 7631 2381 20       		.uleb128 0x20
 7632 2382 2F190000 		.4byte	.LASF492
 7633 2386 1F       		.byte	0x1f
 7634 2387 1C02     		.2byte	0x21c
 7635 2389 8E210000 		.4byte	0x218e
 7636 238d 2A       		.uleb128 0x2a
 7637 238e 07       		.byte	0x7
 7638 238f 01       		.byte	0x1
 7639 2390 6C000000 		.4byte	0x6c
 7640 2394 20       		.byte	0x20
 7641 2395 5F       		.byte	0x5f
 7642 2396 B9230000 		.4byte	0x23b9
 7643 239a 23       		.uleb128 0x23
 7644 239b B50D0000 		.4byte	.LASF493
 7645 239f 00       		.byte	0
 7646 23a0 23       		.uleb128 0x23
 7647 23a1 A9000000 		.4byte	.LASF494
 7648 23a5 01       		.byte	0x1
 7649 23a6 23       		.uleb128 0x23
 7650 23a7 43000000 		.4byte	.LASF495
 7651 23ab 02       		.byte	0x2
 7652 23ac 23       		.uleb128 0x23
ARM GAS  /var/folders/qd/4mxf5pkd0zdf0b9dd1hp39180000gn/T//ccsf5yWP.s 			page 136


 7653 23ad 3F1A0000 		.4byte	.LASF496
 7654 23b1 03       		.byte	0x3
 7655 23b2 23       		.uleb128 0x23
 7656 23b3 F4090000 		.4byte	.LASF497
 7657 23b7 04       		.byte	0x4
 7658 23b8 00       		.byte	0
 7659 23b9 04       		.uleb128 0x4
 7660 23ba 0D060000 		.4byte	.LASF498
 7661 23be 20       		.byte	0x20
 7662 23bf 65       		.byte	0x65
 7663 23c0 8D230000 		.4byte	0x238d
 7664 23c4 0A       		.uleb128 0xa
 7665 23c5 9C0A0000 		.4byte	0xa9c
 7666 23c9 D4230000 		.4byte	0x23d4
 7667 23cd 0B       		.uleb128 0xb
 7668 23ce 45000000 		.4byte	0x45
 7669 23d2 07       		.byte	0x7
 7670 23d3 00       		.byte	0
 7671 23d4 0C       		.uleb128 0xc
 7672 23d5 08       		.byte	0x8
 7673 23d6 21       		.byte	0x21
 7674 23d7 F4       		.byte	0xf4
 7675 23d8 F6230000 		.4byte	0x23f6
 7676 23dc 11       		.uleb128 0x11
 7677 23dd 6D637200 		.ascii	"mcr\000"
 7678 23e1 21       		.byte	0x21
 7679 23e2 FA       		.byte	0xfa
 7680 23e3 D20A0000 		.4byte	0xad2
 7681 23e7 00       		.byte	0
 7682 23e8 25       		.uleb128 0x25
 7683 23e9 62747200 		.ascii	"btr\000"
 7684 23ed 21       		.byte	0x21
 7685 23ee 0001     		.2byte	0x100
 7686 23f0 D20A0000 		.4byte	0xad2
 7687 23f4 04       		.byte	0x4
 7688 23f5 00       		.byte	0
 7689 23f6 07       		.uleb128 0x7
 7690 23f7 E91A0000 		.4byte	.LASF499
 7691 23fb 21       		.byte	0x21
 7692 23fc 0101     		.2byte	0x101
 7693 23fe D4230000 		.4byte	0x23d4
 7694 2402 0F       		.uleb128 0xf
 7695 2403 F6230000 		.4byte	0x23f6
 7696 2407 1C       		.uleb128 0x1c
 7697 2408 30       		.byte	0x30
 7698 2409 21       		.byte	0x21
 7699 240a 0601     		.2byte	0x106
 7700 240c 93240000 		.4byte	0x2493
 7701 2410 18       		.uleb128 0x18
 7702 2411 39170000 		.4byte	.LASF467
 7703 2415 21       		.byte	0x21
 7704 2416 0A01     		.2byte	0x10a
 7705 2418 B9230000 		.4byte	0x23b9
 7706 241c 00       		.byte	0
 7707 241d 18       		.uleb128 0x18
 7708 241e 0D1D0000 		.4byte	.LASF468
 7709 2422 21       		.byte	0x21
ARM GAS  /var/folders/qd/4mxf5pkd0zdf0b9dd1hp39180000gn/T//ccsf5yWP.s 			page 137


 7710 2423 0E01     		.2byte	0x10e
 7711 2425 93240000 		.4byte	0x2493
 7712 2429 04       		.byte	0x4
 7713 242a 18       		.uleb128 0x18
 7714 242b 7C090000 		.4byte	.LASF500
 7715 242f 21       		.byte	0x21
 7716 2430 1201     		.2byte	0x112
 7717 2432 E40C0000 		.4byte	0xce4
 7718 2436 08       		.byte	0x8
 7719 2437 18       		.uleb128 0x18
 7720 2438 D41F0000 		.4byte	.LASF501
 7721 243c 21       		.byte	0x21
 7722 243d 1601     		.2byte	0x116
 7723 243f E40C0000 		.4byte	0xce4
 7724 2443 10       		.byte	0x10
 7725 2444 18       		.uleb128 0x18
 7726 2445 B71A0000 		.4byte	.LASF502
 7727 2449 21       		.byte	0x21
 7728 244a 2301     		.2byte	0x123
 7729 244c EF1B0000 		.4byte	0x1bef
 7730 2450 18       		.byte	0x18
 7731 2451 18       		.uleb128 0x18
 7732 2452 C41A0000 		.4byte	.LASF503
 7733 2456 21       		.byte	0x21
 7734 2457 2A01     		.2byte	0x12a
 7735 2459 EF1B0000 		.4byte	0x1bef
 7736 245d 1C       		.byte	0x1c
 7737 245e 18       		.uleb128 0x18
 7738 245f 78110000 		.4byte	.LASF504
 7739 2463 21       		.byte	0x21
 7740 2464 3001     		.2byte	0x130
 7741 2466 EF1B0000 		.4byte	0x1bef
 7742 246a 20       		.byte	0x20
 7743 246b 18       		.uleb128 0x18
 7744 246c 61030000 		.4byte	.LASF505
 7745 2470 21       		.byte	0x21
 7746 2471 3501     		.2byte	0x135
 7747 2473 EF1B0000 		.4byte	0x1bef
 7748 2477 24       		.byte	0x24
 7749 2478 18       		.uleb128 0x18
 7750 2479 18090000 		.4byte	.LASF506
 7751 247d 21       		.byte	0x21
 7752 247e 3901     		.2byte	0x139
 7753 2480 EF1B0000 		.4byte	0x1bef
 7754 2484 28       		.byte	0x28
 7755 2485 25       		.uleb128 0x25
 7756 2486 63616E00 		.ascii	"can\000"
 7757 248a 21       		.byte	0x21
 7758 248b 3F01     		.2byte	0x13f
 7759 248d 99240000 		.4byte	0x2499
 7760 2491 2C       		.byte	0x2c
 7761 2492 00       		.byte	0
 7762 2493 05       		.uleb128 0x5
 7763 2494 04       		.byte	0x4
 7764 2495 02240000 		.4byte	0x2402
 7765 2499 05       		.uleb128 0x5
 7766 249a 04       		.byte	0x4
ARM GAS  /var/folders/qd/4mxf5pkd0zdf0b9dd1hp39180000gn/T//ccsf5yWP.s 			page 138


 7767 249b 7B120000 		.4byte	0x127b
 7768 249f 07       		.uleb128 0x7
 7769 24a0 C4030000 		.4byte	.LASF507
 7770 24a4 21       		.byte	0x21
 7771 24a5 4001     		.2byte	0x140
 7772 24a7 07240000 		.4byte	0x2407
 7773 24ab 20       		.uleb128 0x20
 7774 24ac 65210000 		.4byte	.LASF508
 7775 24b0 21       		.byte	0x21
 7776 24b1 4B01     		.2byte	0x14b
 7777 24b3 9F240000 		.4byte	0x249f
 7778 24b7 2A       		.uleb128 0x2a
 7779 24b8 07       		.byte	0x7
 7780 24b9 01       		.byte	0x1
 7781 24ba 6C000000 		.4byte	0x6c
 7782 24be 22       		.byte	0x22
 7783 24bf 46       		.byte	0x46
 7784 24c0 E9240000 		.4byte	0x24e9
 7785 24c4 23       		.uleb128 0x23
 7786 24c5 541D0000 		.4byte	.LASF509
 7787 24c9 00       		.byte	0
 7788 24ca 23       		.uleb128 0x23
 7789 24cb 22230000 		.4byte	.LASF510
 7790 24cf 01       		.byte	0x1
 7791 24d0 23       		.uleb128 0x23
 7792 24d1 C10E0000 		.4byte	.LASF511
 7793 24d5 02       		.byte	0x2
 7794 24d6 23       		.uleb128 0x23
 7795 24d7 19170000 		.4byte	.LASF512
 7796 24db 03       		.byte	0x3
 7797 24dc 23       		.uleb128 0x23
 7798 24dd E81C0000 		.4byte	.LASF513
 7799 24e1 04       		.byte	0x4
 7800 24e2 23       		.uleb128 0x23
 7801 24e3 E9100000 		.4byte	.LASF514
 7802 24e7 05       		.byte	0x5
 7803 24e8 00       		.byte	0
 7804 24e9 04       		.uleb128 0x4
 7805 24ea 701A0000 		.4byte	.LASF515
 7806 24ee 22       		.byte	0x22
 7807 24ef 4D       		.byte	0x4d
 7808 24f0 B7240000 		.4byte	0x24b7
 7809 24f4 0C       		.uleb128 0xc
 7810 24f5 1C       		.byte	0x1c
 7811 24f6 23       		.byte	0x23
 7812 24f7 F9       		.byte	0xf9
 7813 24f8 57250000 		.4byte	0x2557
 7814 24fc 11       		.uleb128 0x11
 7815 24fd 64616300 		.ascii	"dac\000"
 7816 2501 23       		.byte	0x23
 7817 2502 FD       		.byte	0xfd
 7818 2503 57250000 		.4byte	0x2557
 7819 2507 00       		.byte	0
 7820 2508 18       		.uleb128 0x18
 7821 2509 C0190000 		.4byte	.LASF516
 7822 250d 23       		.byte	0x23
 7823 250e 0101     		.2byte	0x101
ARM GAS  /var/folders/qd/4mxf5pkd0zdf0b9dd1hp39180000gn/T//ccsf5yWP.s 			page 139


 7824 2510 D20A0000 		.4byte	0xad2
 7825 2514 04       		.byte	0x4
 7826 2515 18       		.uleb128 0x18
 7827 2516 F8060000 		.4byte	.LASF517
 7828 251a 23       		.byte	0x23
 7829 251b 0501     		.2byte	0x105
 7830 251d D20A0000 		.4byte	0xad2
 7831 2521 08       		.byte	0x8
 7832 2522 18       		.uleb128 0x18
 7833 2523 CE010000 		.4byte	.LASF518
 7834 2527 23       		.byte	0x23
 7835 2528 0901     		.2byte	0x109
 7836 252a D20A0000 		.4byte	0xad2
 7837 252e 0C       		.byte	0xc
 7838 252f 25       		.uleb128 0x25
 7839 2530 646D6100 		.ascii	"dma\000"
 7840 2534 23       		.byte	0x23
 7841 2535 0D01     		.2byte	0x10d
 7842 2537 63230000 		.4byte	0x2363
 7843 253b 10       		.byte	0x10
 7844 253c 18       		.uleb128 0x18
 7845 253d 3A190000 		.4byte	.LASF475
 7846 2541 23       		.byte	0x23
 7847 2542 1101     		.2byte	0x111
 7848 2544 D20A0000 		.4byte	0xad2
 7849 2548 14       		.byte	0x14
 7850 2549 18       		.uleb128 0x18
 7851 254a F2180000 		.4byte	.LASF519
 7852 254e 23       		.byte	0x23
 7853 254f 1501     		.2byte	0x115
 7854 2551 D20A0000 		.4byte	0xad2
 7855 2555 18       		.byte	0x18
 7856 2556 00       		.byte	0
 7857 2557 05       		.uleb128 0x5
 7858 2558 04       		.byte	0x4
 7859 2559 45130000 		.4byte	0x1345
 7860 255d 07       		.uleb128 0x7
 7861 255e 14030000 		.4byte	.LASF520
 7862 2562 23       		.byte	0x23
 7863 2563 1601     		.2byte	0x116
 7864 2565 F4240000 		.4byte	0x24f4
 7865 2569 0F       		.uleb128 0xf
 7866 256a 5D250000 		.4byte	0x255d
 7867 256e 07       		.uleb128 0x7
 7868 256f EF0C0000 		.4byte	.LASF521
 7869 2573 23       		.byte	0x23
 7870 2574 1B01     		.2byte	0x11b
 7871 2576 7A250000 		.4byte	0x257a
 7872 257a 1B       		.uleb128 0x1b
 7873 257b EF0C0000 		.4byte	.LASF521
 7874 257f 30       		.byte	0x30
 7875 2580 23       		.byte	0x23
 7876 2581 7B01     		.2byte	0x17b
 7877 2583 F0250000 		.4byte	0x25f0
 7878 2587 18       		.uleb128 0x18
 7879 2588 39170000 		.4byte	.LASF467
 7880 258c 23       		.byte	0x23
ARM GAS  /var/folders/qd/4mxf5pkd0zdf0b9dd1hp39180000gn/T//ccsf5yWP.s 			page 140


 7881 258d 7F01     		.2byte	0x17f
 7882 258f E9240000 		.4byte	0x24e9
 7883 2593 00       		.byte	0
 7884 2594 18       		.uleb128 0x18
 7885 2595 0B200000 		.4byte	.LASF471
 7886 2599 23       		.byte	0x23
 7887 259a 8301     		.2byte	0x183
 7888 259c 2E270000 		.4byte	0x272e
 7889 25a0 04       		.byte	0x4
 7890 25a1 18       		.uleb128 0x18
 7891 25a2 B6010000 		.4byte	.LASF469
 7892 25a6 23       		.byte	0x23
 7893 25a7 8701     		.2byte	0x187
 7894 25a9 55260000 		.4byte	0x2655
 7895 25ad 08       		.byte	0x8
 7896 25ae 18       		.uleb128 0x18
 7897 25af 181A0000 		.4byte	.LASF470
 7898 25b3 23       		.byte	0x23
 7899 25b4 8B01     		.2byte	0x18b
 7900 25b6 B70A0000 		.4byte	0xab7
 7901 25ba 0C       		.byte	0xc
 7902 25bb 18       		.uleb128 0x18
 7903 25bc 0D1D0000 		.4byte	.LASF468
 7904 25c0 23       		.byte	0x23
 7905 25c1 8F01     		.2byte	0x18f
 7906 25c3 34270000 		.4byte	0x2734
 7907 25c7 10       		.byte	0x10
 7908 25c8 18       		.uleb128 0x18
 7909 25c9 F1060000 		.4byte	.LASF472
 7910 25cd 23       		.byte	0x23
 7911 25ce 9401     		.2byte	0x194
 7912 25d0 AF0C0000 		.4byte	0xcaf
 7913 25d4 14       		.byte	0x14
 7914 25d5 18       		.uleb128 0x18
 7915 25d6 E40C0000 		.4byte	.LASF473
 7916 25da 23       		.byte	0x23
 7917 25db 9A01     		.2byte	0x19a
 7918 25dd 6B1B0000 		.4byte	0x1b6b
 7919 25e1 18       		.byte	0x18
 7920 25e2 18       		.uleb128 0x18
 7921 25e3 E9110000 		.4byte	.LASF522
 7922 25e7 23       		.byte	0x23
 7923 25e8 A301     		.2byte	0x1a3
 7924 25ea 3A270000 		.4byte	0x273a
 7925 25ee 2C       		.byte	0x2c
 7926 25ef 00       		.byte	0
 7927 25f0 07       		.uleb128 0x7
 7928 25f1 891A0000 		.4byte	.LASF523
 7929 25f5 23       		.byte	0x23
 7930 25f6 2001     		.2byte	0x120
 7931 25f8 B70A0000 		.4byte	0xab7
 7932 25fc 0F       		.uleb128 0xf
 7933 25fd F0250000 		.4byte	0x25f0
 7934 2601 2C       		.uleb128 0x2c
 7935 2602 07       		.byte	0x7
 7936 2603 01       		.byte	0x1
 7937 2604 6C000000 		.4byte	0x6c
ARM GAS  /var/folders/qd/4mxf5pkd0zdf0b9dd1hp39180000gn/T//ccsf5yWP.s 			page 141


 7938 2608 23       		.byte	0x23
 7939 2609 2701     		.2byte	0x127
 7940 260b 1C260000 		.4byte	0x261c
 7941 260f 23       		.uleb128 0x23
 7942 2610 1A1B0000 		.4byte	.LASF524
 7943 2614 00       		.byte	0
 7944 2615 23       		.uleb128 0x23
 7945 2616 06090000 		.4byte	.LASF525
 7946 261a 01       		.byte	0x1
 7947 261b 00       		.byte	0
 7948 261c 07       		.uleb128 0x7
 7949 261d 3C120000 		.4byte	.LASF526
 7950 2621 23       		.byte	0x23
 7951 2622 2A01     		.2byte	0x12a
 7952 2624 01260000 		.4byte	0x2601
 7953 2628 07       		.uleb128 0x7
 7954 2629 64070000 		.4byte	.LASF527
 7955 262d 23       		.byte	0x23
 7956 262e 3401     		.2byte	0x134
 7957 2630 34260000 		.4byte	0x2634
 7958 2634 05       		.uleb128 0x5
 7959 2635 04       		.byte	0x4
 7960 2636 3A260000 		.4byte	0x263a
 7961 263a 1F       		.uleb128 0x1f
 7962 263b 4F260000 		.4byte	0x264f
 7963 263f 16       		.uleb128 0x16
 7964 2640 4F260000 		.4byte	0x264f
 7965 2644 16       		.uleb128 0x16
 7966 2645 55260000 		.4byte	0x2655
 7967 2649 16       		.uleb128 0x16
 7968 264a 3A000000 		.4byte	0x3a
 7969 264e 00       		.byte	0
 7970 264f 05       		.uleb128 0x5
 7971 2650 04       		.byte	0x4
 7972 2651 6E250000 		.4byte	0x256e
 7973 2655 05       		.uleb128 0x5
 7974 2656 04       		.byte	0x4
 7975 2657 FC250000 		.4byte	0x25fc
 7976 265b 07       		.uleb128 0x7
 7977 265c C8210000 		.4byte	.LASF528
 7978 2660 23       		.byte	0x23
 7979 2661 3F01     		.2byte	0x13f
 7980 2663 67260000 		.4byte	0x2667
 7981 2667 05       		.uleb128 0x5
 7982 2668 04       		.byte	0x4
 7983 2669 6D260000 		.4byte	0x266d
 7984 266d 1F       		.uleb128 0x1f
 7985 266e 7D260000 		.4byte	0x267d
 7986 2672 16       		.uleb128 0x16
 7987 2673 4F260000 		.4byte	0x264f
 7988 2677 16       		.uleb128 0x16
 7989 2678 1C260000 		.4byte	0x261c
 7990 267c 00       		.byte	0
 7991 267d 2C       		.uleb128 0x2c
 7992 267e 07       		.byte	0x7
 7993 267f 01       		.byte	0x1
 7994 2680 6C000000 		.4byte	0x6c
ARM GAS  /var/folders/qd/4mxf5pkd0zdf0b9dd1hp39180000gn/T//ccsf5yWP.s 			page 142


 7995 2684 23       		.byte	0x23
 7996 2685 4401     		.2byte	0x144
 7997 2687 9E260000 		.4byte	0x269e
 7998 268b 23       		.uleb128 0x23
 7999 268c B71D0000 		.4byte	.LASF529
 8000 2690 00       		.byte	0
 8001 2691 23       		.uleb128 0x23
 8002 2692 3E140000 		.4byte	.LASF530
 8003 2696 01       		.byte	0x1
 8004 2697 23       		.uleb128 0x23
 8005 2698 01180000 		.4byte	.LASF531
 8006 269c 02       		.byte	0x2
 8007 269d 00       		.byte	0
 8008 269e 07       		.uleb128 0x7
 8009 269f 960A0000 		.4byte	.LASF532
 8010 26a3 23       		.byte	0x23
 8011 26a4 4D01     		.2byte	0x14d
 8012 26a6 7D260000 		.4byte	0x267d
 8013 26aa 1C       		.uleb128 0x1c
 8014 26ab 10       		.byte	0x10
 8015 26ac 23       		.byte	0x23
 8016 26ad 5201     		.2byte	0x152
 8017 26af E8260000 		.4byte	0x26e8
 8018 26b3 18       		.uleb128 0x18
 8019 26b4 84110000 		.4byte	.LASF479
 8020 26b8 23       		.byte	0x23
 8021 26b9 5601     		.2byte	0x156
 8022 26bb D20A0000 		.4byte	0xad2
 8023 26bf 00       		.byte	0
 8024 26c0 18       		.uleb128 0x18
 8025 26c1 3E090000 		.4byte	.LASF480
 8026 26c5 23       		.byte	0x23
 8027 26c6 5A01     		.2byte	0x15a
 8028 26c8 28260000 		.4byte	0x2628
 8029 26cc 04       		.byte	0x4
 8030 26cd 18       		.uleb128 0x18
 8031 26ce 56240000 		.4byte	.LASF481
 8032 26d2 23       		.byte	0x23
 8033 26d3 5E01     		.2byte	0x15e
 8034 26d5 5B260000 		.4byte	0x265b
 8035 26d9 08       		.byte	0x8
 8036 26da 18       		.uleb128 0x18
 8037 26db 96150000 		.4byte	.LASF533
 8038 26df 23       		.byte	0x23
 8039 26e0 6601     		.2byte	0x166
 8040 26e2 D20A0000 		.4byte	0xad2
 8041 26e6 0C       		.byte	0xc
 8042 26e7 00       		.byte	0
 8043 26e8 07       		.uleb128 0x7
 8044 26e9 01130000 		.4byte	.LASF534
 8045 26ed 23       		.byte	0x23
 8046 26ee 6701     		.2byte	0x167
 8047 26f0 AA260000 		.4byte	0x26aa
 8048 26f4 0F       		.uleb128 0xf
 8049 26f5 E8260000 		.4byte	0x26e8
 8050 26f9 1C       		.uleb128 0x1c
 8051 26fa 04       		.byte	0x4
ARM GAS  /var/folders/qd/4mxf5pkd0zdf0b9dd1hp39180000gn/T//ccsf5yWP.s 			page 143


 8052 26fb 23       		.byte	0x23
 8053 26fc 6C01     		.2byte	0x16c
 8054 26fe 1D270000 		.4byte	0x271d
 8055 2702 18       		.uleb128 0x18
 8056 2703 DA0A0000 		.4byte	.LASF535
 8057 2707 23       		.byte	0x23
 8058 2708 7101     		.2byte	0x171
 8059 270a F0250000 		.4byte	0x25f0
 8060 270e 00       		.byte	0
 8061 270f 18       		.uleb128 0x18
 8062 2710 09010000 		.4byte	.LASF536
 8063 2714 23       		.byte	0x23
 8064 2715 7501     		.2byte	0x175
 8065 2717 9E260000 		.4byte	0x269e
 8066 271b 02       		.byte	0x2
 8067 271c 00       		.byte	0
 8068 271d 07       		.uleb128 0x7
 8069 271e FE0C0000 		.4byte	.LASF537
 8070 2722 23       		.byte	0x23
 8071 2723 7601     		.2byte	0x176
 8072 2725 F9260000 		.4byte	0x26f9
 8073 2729 0F       		.uleb128 0xf
 8074 272a 1D270000 		.4byte	0x271d
 8075 272e 05       		.uleb128 0x5
 8076 272f 04       		.byte	0x4
 8077 2730 F4260000 		.4byte	0x26f4
 8078 2734 05       		.uleb128 0x5
 8079 2735 04       		.byte	0x4
 8080 2736 29270000 		.4byte	0x2729
 8081 273a 05       		.uleb128 0x5
 8082 273b 04       		.byte	0x4
 8083 273c 69250000 		.4byte	0x2569
 8084 2740 20       		.uleb128 0x20
 8085 2741 BE030000 		.4byte	.LASF538
 8086 2745 23       		.byte	0x23
 8087 2746 B301     		.2byte	0x1b3
 8088 2748 6E250000 		.4byte	0x256e
 8089 274c 2A       		.uleb128 0x2a
 8090 274d 07       		.byte	0x7
 8091 274e 01       		.byte	0x1
 8092 274f 6C000000 		.4byte	0x6c
 8093 2753 24       		.byte	0x24
 8094 2754 3F       		.byte	0x3f
 8095 2755 6C270000 		.4byte	0x276c
 8096 2759 23       		.uleb128 0x23
 8097 275a E9090000 		.4byte	.LASF539
 8098 275e 00       		.byte	0
 8099 275f 23       		.uleb128 0x23
 8100 2760 4D260000 		.4byte	.LASF540
 8101 2764 01       		.byte	0x1
 8102 2765 23       		.uleb128 0x23
 8103 2766 F6010000 		.4byte	.LASF541
 8104 276a 02       		.byte	0x2
 8105 276b 00       		.byte	0
 8106 276c 04       		.uleb128 0x4
 8107 276d 6F1C0000 		.4byte	.LASF542
 8108 2771 24       		.byte	0x24
ARM GAS  /var/folders/qd/4mxf5pkd0zdf0b9dd1hp39180000gn/T//ccsf5yWP.s 			page 144


 8109 2772 43       		.byte	0x43
 8110 2773 4C270000 		.4byte	0x274c
 8111 2777 04       		.uleb128 0x4
 8112 2778 81080000 		.4byte	.LASF543
 8113 277c 24       		.byte	0x24
 8114 277d 48       		.byte	0x48
 8115 277e 82270000 		.4byte	0x2782
 8116 2782 10       		.uleb128 0x10
 8117 2783 81080000 		.4byte	.LASF543
 8118 2787 08       		.byte	0x8
 8119 2788 25       		.byte	0x25
 8120 2789 71       		.byte	0x71
 8121 278a A7270000 		.4byte	0x27a7
 8122 278e 0D       		.uleb128 0xd
 8123 278f 39170000 		.4byte	.LASF467
 8124 2793 25       		.byte	0x25
 8125 2794 75       		.byte	0x75
 8126 2795 6C270000 		.4byte	0x276c
 8127 2799 00       		.byte	0
 8128 279a 0D       		.uleb128 0xd
 8129 279b 0D1D0000 		.4byte	.LASF468
 8130 279f 25       		.byte	0x25
 8131 27a0 79       		.byte	0x79
 8132 27a1 39280000 		.4byte	0x2839
 8133 27a5 04       		.byte	0x4
 8134 27a6 00       		.byte	0
 8135 27a7 04       		.uleb128 0x4
 8136 27a8 A1240000 		.4byte	.LASF544
 8137 27ac 25       		.byte	0x25
 8138 27ad 47       		.byte	0x47
 8139 27ae D20A0000 		.4byte	0xad2
 8140 27b2 04       		.uleb128 0x4
 8141 27b3 C61F0000 		.4byte	.LASF545
 8142 27b7 25       		.byte	0x25
 8143 27b8 4F       		.byte	0x4f
 8144 27b9 BD270000 		.4byte	0x27bd
 8145 27bd 05       		.uleb128 0x5
 8146 27be 04       		.byte	0x4
 8147 27bf C3270000 		.4byte	0x27c3
 8148 27c3 1F       		.uleb128 0x1f
 8149 27c4 D3270000 		.4byte	0x27d3
 8150 27c8 16       		.uleb128 0x16
 8151 27c9 D3270000 		.4byte	0x27d3
 8152 27cd 16       		.uleb128 0x16
 8153 27ce A7270000 		.4byte	0x27a7
 8154 27d2 00       		.byte	0
 8155 27d3 05       		.uleb128 0x5
 8156 27d4 04       		.byte	0x4
 8157 27d5 77270000 		.4byte	0x2777
 8158 27d9 0C       		.uleb128 0xc
 8159 27da 08       		.byte	0x8
 8160 27db 25       		.byte	0x25
 8161 27dc 54       		.byte	0x54
 8162 27dd F9270000 		.4byte	0x27f9
 8163 27e1 0D       		.uleb128 0xd
 8164 27e2 66080000 		.4byte	.LASF546
 8165 27e6 25       		.byte	0x25
ARM GAS  /var/folders/qd/4mxf5pkd0zdf0b9dd1hp39180000gn/T//ccsf5yWP.s 			page 145


 8166 27e7 58       		.byte	0x58
 8167 27e8 D20A0000 		.4byte	0xad2
 8168 27ec 00       		.byte	0
 8169 27ed 11       		.uleb128 0x11
 8170 27ee 636200   		.ascii	"cb\000"
 8171 27f1 25       		.byte	0x25
 8172 27f2 5F       		.byte	0x5f
 8173 27f3 B2270000 		.4byte	0x27b2
 8174 27f7 04       		.byte	0x4
 8175 27f8 00       		.byte	0
 8176 27f9 04       		.uleb128 0x4
 8177 27fa A80E0000 		.4byte	.LASF547
 8178 27fe 25       		.byte	0x25
 8179 27ff 60       		.byte	0x60
 8180 2800 D9270000 		.4byte	0x27d9
 8181 2804 0C       		.uleb128 0xc
 8182 2805 B8       		.byte	0xb8
 8183 2806 25       		.byte	0x25
 8184 2807 66       		.byte	0x66
 8185 2808 19280000 		.4byte	0x2819
 8186 280c 0D       		.uleb128 0xd
 8187 280d E8210000 		.4byte	.LASF548
 8188 2811 25       		.byte	0x25
 8189 2812 6A       		.byte	0x6a
 8190 2813 19280000 		.4byte	0x2819
 8191 2817 00       		.byte	0
 8192 2818 00       		.byte	0
 8193 2819 0A       		.uleb128 0xa
 8194 281a F9270000 		.4byte	0x27f9
 8195 281e 29280000 		.4byte	0x2829
 8196 2822 0B       		.uleb128 0xb
 8197 2823 45000000 		.4byte	0x45
 8198 2827 16       		.byte	0x16
 8199 2828 00       		.byte	0
 8200 2829 04       		.uleb128 0x4
 8201 282a A41E0000 		.4byte	.LASF549
 8202 282e 25       		.byte	0x25
 8203 282f 6C       		.byte	0x6c
 8204 2830 04280000 		.4byte	0x2804
 8205 2834 0F       		.uleb128 0xf
 8206 2835 29280000 		.4byte	0x2829
 8207 2839 05       		.uleb128 0x5
 8208 283a 04       		.byte	0x4
 8209 283b 34280000 		.4byte	0x2834
 8210 283f 24       		.uleb128 0x24
 8211 2840 FE050000 		.4byte	.LASF550
 8212 2844 25       		.byte	0x25
 8213 2845 86       		.byte	0x86
 8214 2846 77270000 		.4byte	0x2777
 8215 284a 2A       		.uleb128 0x2a
 8216 284b 07       		.byte	0x7
 8217 284c 01       		.byte	0x1
 8218 284d 6C000000 		.4byte	0x6c
 8219 2851 26       		.byte	0x26
 8220 2852 31       		.byte	0x31
 8221 2853 76280000 		.4byte	0x2876
 8222 2857 23       		.uleb128 0x23
ARM GAS  /var/folders/qd/4mxf5pkd0zdf0b9dd1hp39180000gn/T//ccsf5yWP.s 			page 146


 8223 2858 15180000 		.4byte	.LASF551
 8224 285c 00       		.byte	0
 8225 285d 23       		.uleb128 0x23
 8226 285e CA150000 		.4byte	.LASF552
 8227 2862 01       		.byte	0x1
 8228 2863 23       		.uleb128 0x23
 8229 2864 661A0000 		.4byte	.LASF553
 8230 2868 02       		.byte	0x2
 8231 2869 23       		.uleb128 0x23
 8232 286a A8070000 		.4byte	.LASF554
 8233 286e 03       		.byte	0x3
 8234 286f 23       		.uleb128 0x23
 8235 2870 76040000 		.4byte	.LASF555
 8236 2874 04       		.byte	0x4
 8237 2875 00       		.byte	0
 8238 2876 04       		.uleb128 0x4
 8239 2877 8C140000 		.4byte	.LASF556
 8240 287b 26       		.byte	0x26
 8241 287c 37       		.byte	0x37
 8242 287d 4A280000 		.4byte	0x284a
 8243 2881 04       		.uleb128 0x4
 8244 2882 FD180000 		.4byte	.LASF557
 8245 2886 26       		.byte	0x26
 8246 2887 3C       		.byte	0x3c
 8247 2888 8C280000 		.4byte	0x288c
 8248 288c 1B       		.uleb128 0x1b
 8249 288d FD180000 		.4byte	.LASF557
 8250 2891 10       		.byte	0x10
 8251 2892 27       		.byte	0x27
 8252 2893 9701     		.2byte	0x197
 8253 2895 CE280000 		.4byte	0x28ce
 8254 2899 18       		.uleb128 0x18
 8255 289a 39170000 		.4byte	.LASF467
 8256 289e 27       		.byte	0x27
 8257 289f 9B01     		.2byte	0x19b
 8258 28a1 76280000 		.4byte	0x2876
 8259 28a5 00       		.byte	0
 8260 28a6 18       		.uleb128 0x18
 8261 28a7 0D1D0000 		.4byte	.LASF468
 8262 28ab 27       		.byte	0x27
 8263 28ac 9F01     		.2byte	0x19f
 8264 28ae 632A0000 		.4byte	0x2a63
 8265 28b2 04       		.byte	0x4
 8266 28b3 18       		.uleb128 0x18
 8267 28b4 180D0000 		.4byte	.LASF558
 8268 28b8 27       		.byte	0x27
 8269 28b9 A701     		.2byte	0x1a7
 8270 28bb D20A0000 		.4byte	0xad2
 8271 28bf 08       		.byte	0x8
 8272 28c0 25       		.uleb128 0x25
 8273 28c1 74696D00 		.ascii	"tim\000"
 8274 28c5 27       		.byte	0x27
 8275 28c6 AB01     		.2byte	0x1ab
 8276 28c8 692A0000 		.4byte	0x2a69
 8277 28cc 0C       		.byte	0xc
 8278 28cd 00       		.byte	0
 8279 28ce 04       		.uleb128 0x4
ARM GAS  /var/folders/qd/4mxf5pkd0zdf0b9dd1hp39180000gn/T//ccsf5yWP.s 			page 147


 8280 28cf 5E120000 		.4byte	.LASF559
 8281 28d3 26       		.byte	0x26
 8282 28d4 43       		.byte	0x43
 8283 28d5 D9280000 		.4byte	0x28d9
 8284 28d9 05       		.uleb128 0x5
 8285 28da 04       		.byte	0x4
 8286 28db DF280000 		.4byte	0x28df
 8287 28df 1F       		.uleb128 0x1f
 8288 28e0 EA280000 		.4byte	0x28ea
 8289 28e4 16       		.uleb128 0x16
 8290 28e5 EA280000 		.4byte	0x28ea
 8291 28e9 00       		.byte	0
 8292 28ea 05       		.uleb128 0x5
 8293 28eb 04       		.byte	0x4
 8294 28ec 81280000 		.4byte	0x2881
 8295 28f0 1C       		.uleb128 0x1c
 8296 28f1 60       		.byte	0x60
 8297 28f2 28       		.byte	0x28
 8298 28f3 9E01     		.2byte	0x19e
 8299 28f5 FC290000 		.4byte	0x29fc
 8300 28f9 25       		.uleb128 0x25
 8301 28fa 43523100 		.ascii	"CR1\000"
 8302 28fe 28       		.byte	0x28
 8303 28ff 9F01     		.2byte	0x19f
 8304 2901 DD0A0000 		.4byte	0xadd
 8305 2905 00       		.byte	0
 8306 2906 25       		.uleb128 0x25
 8307 2907 43523200 		.ascii	"CR2\000"
 8308 290b 28       		.byte	0x28
 8309 290c A001     		.2byte	0x1a0
 8310 290e DD0A0000 		.4byte	0xadd
 8311 2912 04       		.byte	0x4
 8312 2913 18       		.uleb128 0x18
 8313 2914 FE200000 		.4byte	.LASF560
 8314 2918 28       		.byte	0x28
 8315 2919 A101     		.2byte	0x1a1
 8316 291b DD0A0000 		.4byte	0xadd
 8317 291f 08       		.byte	0x8
 8318 2920 18       		.uleb128 0x18
 8319 2921 520A0000 		.4byte	.LASF561
 8320 2925 28       		.byte	0x28
 8321 2926 A201     		.2byte	0x1a2
 8322 2928 DD0A0000 		.4byte	0xadd
 8323 292c 0C       		.byte	0xc
 8324 292d 25       		.uleb128 0x25
 8325 292e 535200   		.ascii	"SR\000"
 8326 2931 28       		.byte	0x28
 8327 2932 A301     		.2byte	0x1a3
 8328 2934 DD0A0000 		.4byte	0xadd
 8329 2938 10       		.byte	0x10
 8330 2939 25       		.uleb128 0x25
 8331 293a 45475200 		.ascii	"EGR\000"
 8332 293e 28       		.byte	0x28
 8333 293f A401     		.2byte	0x1a4
 8334 2941 DD0A0000 		.4byte	0xadd
 8335 2945 14       		.byte	0x14
 8336 2946 18       		.uleb128 0x18
ARM GAS  /var/folders/qd/4mxf5pkd0zdf0b9dd1hp39180000gn/T//ccsf5yWP.s 			page 148


 8337 2947 1F250000 		.4byte	.LASF562
 8338 294b 28       		.byte	0x28
 8339 294c A501     		.2byte	0x1a5
 8340 294e DD0A0000 		.4byte	0xadd
 8341 2952 18       		.byte	0x18
 8342 2953 18       		.uleb128 0x18
 8343 2954 25250000 		.4byte	.LASF563
 8344 2958 28       		.byte	0x28
 8345 2959 A601     		.2byte	0x1a6
 8346 295b DD0A0000 		.4byte	0xadd
 8347 295f 1C       		.byte	0x1c
 8348 2960 18       		.uleb128 0x18
 8349 2961 41070000 		.4byte	.LASF564
 8350 2965 28       		.byte	0x28
 8351 2966 A701     		.2byte	0x1a7
 8352 2968 DD0A0000 		.4byte	0xadd
 8353 296c 20       		.byte	0x20
 8354 296d 25       		.uleb128 0x25
 8355 296e 434E5400 		.ascii	"CNT\000"
 8356 2972 28       		.byte	0x28
 8357 2973 A801     		.2byte	0x1a8
 8358 2975 DD0A0000 		.4byte	0xadd
 8359 2979 24       		.byte	0x24
 8360 297a 25       		.uleb128 0x25
 8361 297b 50534300 		.ascii	"PSC\000"
 8362 297f 28       		.byte	0x28
 8363 2980 A901     		.2byte	0x1a9
 8364 2982 DD0A0000 		.4byte	0xadd
 8365 2986 28       		.byte	0x28
 8366 2987 25       		.uleb128 0x25
 8367 2988 41525200 		.ascii	"ARR\000"
 8368 298c 28       		.byte	0x28
 8369 298d AA01     		.2byte	0x1aa
 8370 298f DD0A0000 		.4byte	0xadd
 8371 2993 2C       		.byte	0x2c
 8372 2994 25       		.uleb128 0x25
 8373 2995 52435200 		.ascii	"RCR\000"
 8374 2999 28       		.byte	0x28
 8375 299a AB01     		.2byte	0x1ab
 8376 299c DD0A0000 		.4byte	0xadd
 8377 29a0 30       		.byte	0x30
 8378 29a1 25       		.uleb128 0x25
 8379 29a2 43435200 		.ascii	"CCR\000"
 8380 29a6 28       		.byte	0x28
 8381 29a7 AC01     		.2byte	0x1ac
 8382 29a9 D9130000 		.4byte	0x13d9
 8383 29ad 34       		.byte	0x34
 8384 29ae 18       		.uleb128 0x18
 8385 29af C9010000 		.4byte	.LASF565
 8386 29b3 28       		.byte	0x28
 8387 29b4 AD01     		.2byte	0x1ad
 8388 29b6 DD0A0000 		.4byte	0xadd
 8389 29ba 44       		.byte	0x44
 8390 29bb 25       		.uleb128 0x25
 8391 29bc 44435200 		.ascii	"DCR\000"
 8392 29c0 28       		.byte	0x28
 8393 29c1 AE01     		.2byte	0x1ae
ARM GAS  /var/folders/qd/4mxf5pkd0zdf0b9dd1hp39180000gn/T//ccsf5yWP.s 			page 149


 8394 29c3 DD0A0000 		.4byte	0xadd
 8395 29c7 48       		.byte	0x48
 8396 29c8 18       		.uleb128 0x18
 8397 29c9 AA170000 		.4byte	.LASF566
 8398 29cd 28       		.byte	0x28
 8399 29ce AF01     		.2byte	0x1af
 8400 29d0 DD0A0000 		.4byte	0xadd
 8401 29d4 4C       		.byte	0x4c
 8402 29d5 25       		.uleb128 0x25
 8403 29d6 4F5200   		.ascii	"OR\000"
 8404 29d9 28       		.byte	0x28
 8405 29da B001     		.2byte	0x1b0
 8406 29dc DD0A0000 		.4byte	0xadd
 8407 29e0 50       		.byte	0x50
 8408 29e1 18       		.uleb128 0x18
 8409 29e2 2B250000 		.4byte	.LASF567
 8410 29e6 28       		.byte	0x28
 8411 29e7 B101     		.2byte	0x1b1
 8412 29e9 DD0A0000 		.4byte	0xadd
 8413 29ed 54       		.byte	0x54
 8414 29ee 18       		.uleb128 0x18
 8415 29ef 240D0000 		.4byte	.LASF568
 8416 29f3 28       		.byte	0x28
 8417 29f4 B201     		.2byte	0x1b2
 8418 29f6 C4130000 		.4byte	0x13c4
 8419 29fa 58       		.byte	0x58
 8420 29fb 00       		.byte	0
 8421 29fc 07       		.uleb128 0x7
 8422 29fd 2B200000 		.4byte	.LASF569
 8423 2a01 28       		.byte	0x28
 8424 2a02 B301     		.2byte	0x1b3
 8425 2a04 F0280000 		.4byte	0x28f0
 8426 2a08 07       		.uleb128 0x7
 8427 2a09 B5080000 		.4byte	.LASF570
 8428 2a0d 27       		.byte	0x27
 8429 2a0e 6D01     		.2byte	0x16d
 8430 2a10 D20A0000 		.4byte	0xad2
 8431 2a14 1C       		.uleb128 0x1c
 8432 2a15 10       		.byte	0x10
 8433 2a16 27       		.byte	0x27
 8434 2a17 7801     		.2byte	0x178
 8435 2a19 522A0000 		.4byte	0x2a52
 8436 2a1d 18       		.uleb128 0x18
 8437 2a1e BF240000 		.4byte	.LASF571
 8438 2a22 27       		.byte	0x27
 8439 2a23 7E01     		.2byte	0x17e
 8440 2a25 082A0000 		.4byte	0x2a08
 8441 2a29 00       		.byte	0
 8442 2a2a 18       		.uleb128 0x18
 8443 2a2b C4170000 		.4byte	.LASF572
 8444 2a2f 27       		.byte	0x27
 8445 2a30 8501     		.2byte	0x185
 8446 2a32 CE280000 		.4byte	0x28ce
 8447 2a36 04       		.byte	0x4
 8448 2a37 25       		.uleb128 0x25
 8449 2a38 63723200 		.ascii	"cr2\000"
 8450 2a3c 27       		.byte	0x27
ARM GAS  /var/folders/qd/4mxf5pkd0zdf0b9dd1hp39180000gn/T//ccsf5yWP.s 			page 150


 8451 2a3d 8B01     		.2byte	0x18b
 8452 2a3f D20A0000 		.4byte	0xad2
 8453 2a43 08       		.byte	0x8
 8454 2a44 18       		.uleb128 0x18
 8455 2a45 890C0000 		.4byte	.LASF573
 8456 2a49 27       		.byte	0x27
 8457 2a4a 9101     		.2byte	0x191
 8458 2a4c D20A0000 		.4byte	0xad2
 8459 2a50 0C       		.byte	0xc
 8460 2a51 00       		.byte	0
 8461 2a52 07       		.uleb128 0x7
 8462 2a53 9B060000 		.4byte	.LASF574
 8463 2a57 27       		.byte	0x27
 8464 2a58 9201     		.2byte	0x192
 8465 2a5a 142A0000 		.4byte	0x2a14
 8466 2a5e 0F       		.uleb128 0xf
 8467 2a5f 522A0000 		.4byte	0x2a52
 8468 2a63 05       		.uleb128 0x5
 8469 2a64 04       		.byte	0x4
 8470 2a65 5E2A0000 		.4byte	0x2a5e
 8471 2a69 05       		.uleb128 0x5
 8472 2a6a 04       		.byte	0x4
 8473 2a6b FC290000 		.4byte	0x29fc
 8474 2a6f 20       		.uleb128 0x20
 8475 2a70 50240000 		.4byte	.LASF575
 8476 2a74 27       		.byte	0x27
 8477 2a75 F201     		.2byte	0x1f2
 8478 2a77 81280000 		.4byte	0x2881
 8479 2a7b 20       		.uleb128 0x20
 8480 2a7c 141D0000 		.4byte	.LASF576
 8481 2a80 27       		.byte	0x27
 8482 2a81 0202     		.2byte	0x202
 8483 2a83 81280000 		.4byte	0x2881
 8484 2a87 2A       		.uleb128 0x2a
 8485 2a88 07       		.byte	0x7
 8486 2a89 01       		.byte	0x1
 8487 2a8a 6C000000 		.4byte	0x6c
 8488 2a8e 29       		.byte	0x29
 8489 2a8f 4C       		.byte	0x4c
 8490 2a90 B92A0000 		.4byte	0x2ab9
 8491 2a94 23       		.uleb128 0x23
 8492 2a95 73060000 		.4byte	.LASF577
 8493 2a99 00       		.byte	0
 8494 2a9a 23       		.uleb128 0x23
 8495 2a9b 720E0000 		.4byte	.LASF578
 8496 2a9f 01       		.byte	0x1
 8497 2aa0 23       		.uleb128 0x23
 8498 2aa1 23070000 		.4byte	.LASF579
 8499 2aa5 02       		.byte	0x2
 8500 2aa6 23       		.uleb128 0x23
 8501 2aa7 A5040000 		.4byte	.LASF580
 8502 2aab 03       		.byte	0x3
 8503 2aac 23       		.uleb128 0x23
 8504 2aad 4A150000 		.4byte	.LASF581
 8505 2ab1 04       		.byte	0x4
 8506 2ab2 23       		.uleb128 0x23
 8507 2ab3 61140000 		.4byte	.LASF582
ARM GAS  /var/folders/qd/4mxf5pkd0zdf0b9dd1hp39180000gn/T//ccsf5yWP.s 			page 151


 8508 2ab7 05       		.byte	0x5
 8509 2ab8 00       		.byte	0
 8510 2ab9 04       		.uleb128 0x4
 8511 2aba 1B120000 		.4byte	.LASF583
 8512 2abe 29       		.byte	0x29
 8513 2abf 53       		.byte	0x53
 8514 2ac0 872A0000 		.4byte	0x2a87
 8515 2ac4 07       		.uleb128 0x7
 8516 2ac5 DA180000 		.4byte	.LASF584
 8517 2ac9 2A       		.byte	0x2a
 8518 2aca 6A01     		.2byte	0x16a
 8519 2acc B70A0000 		.4byte	0xab7
 8520 2ad0 07       		.uleb128 0x7
 8521 2ad1 E0030000 		.4byte	.LASF585
 8522 2ad5 2A       		.byte	0x2a
 8523 2ad6 6F01     		.2byte	0x16f
 8524 2ad8 D20A0000 		.4byte	0xad2
 8525 2adc 2C       		.uleb128 0x2c
 8526 2add 07       		.byte	0x7
 8527 2ade 01       		.byte	0x1
 8528 2adf 6C000000 		.4byte	0x6c
 8529 2ae3 2A       		.byte	0x2a
 8530 2ae4 7401     		.2byte	0x174
 8531 2ae6 FD2A0000 		.4byte	0x2afd
 8532 2aea 23       		.uleb128 0x23
 8533 2aeb B8040000 		.4byte	.LASF586
 8534 2aef 01       		.byte	0x1
 8535 2af0 23       		.uleb128 0x23
 8536 2af1 5B000000 		.4byte	.LASF587
 8537 2af5 02       		.byte	0x2
 8538 2af6 23       		.uleb128 0x23
 8539 2af7 A1090000 		.4byte	.LASF588
 8540 2afb 03       		.byte	0x3
 8541 2afc 00       		.byte	0
 8542 2afd 07       		.uleb128 0x7
 8543 2afe 6A250000 		.4byte	.LASF589
 8544 2b02 2A       		.byte	0x2a
 8545 2b03 7801     		.2byte	0x178
 8546 2b05 DC2A0000 		.4byte	0x2adc
 8547 2b09 2C       		.uleb128 0x2c
 8548 2b0a 07       		.byte	0x7
 8549 2b0b 01       		.byte	0x1
 8550 2b0c 6C000000 		.4byte	0x6c
 8551 2b10 2A       		.byte	0x2a
 8552 2b11 7D01     		.2byte	0x17d
 8553 2b13 2A2B0000 		.4byte	0x2b2a
 8554 2b17 23       		.uleb128 0x23
 8555 2b18 D2050000 		.4byte	.LASF590
 8556 2b1c 01       		.byte	0x1
 8557 2b1d 23       		.uleb128 0x23
 8558 2b1e F4240000 		.4byte	.LASF591
 8559 2b22 02       		.byte	0x2
 8560 2b23 23       		.uleb128 0x23
 8561 2b24 AA0A0000 		.4byte	.LASF592
 8562 2b28 03       		.byte	0x3
 8563 2b29 00       		.byte	0
 8564 2b2a 07       		.uleb128 0x7
ARM GAS  /var/folders/qd/4mxf5pkd0zdf0b9dd1hp39180000gn/T//ccsf5yWP.s 			page 152


 8565 2b2b D9060000 		.4byte	.LASF593
 8566 2b2f 2A       		.byte	0x2a
 8567 2b30 8101     		.2byte	0x181
 8568 2b32 092B0000 		.4byte	0x2b09
 8569 2b36 1C       		.uleb128 0x1c
 8570 2b37 0C       		.byte	0xc
 8571 2b38 2A       		.byte	0x2a
 8572 2b39 8601     		.2byte	0x186
 8573 2b3b 672B0000 		.4byte	0x2b67
 8574 2b3f 18       		.uleb128 0x18
 8575 2b40 FA150000 		.4byte	.LASF594
 8576 2b44 2A       		.byte	0x2a
 8577 2b45 8801     		.2byte	0x188
 8578 2b47 FD2A0000 		.4byte	0x2afd
 8579 2b4b 00       		.byte	0
 8580 2b4c 18       		.uleb128 0x18
 8581 2b4d A8030000 		.4byte	.LASF595
 8582 2b51 2A       		.byte	0x2a
 8583 2b52 8901     		.2byte	0x189
 8584 2b54 D20A0000 		.4byte	0xad2
 8585 2b58 04       		.byte	0x4
 8586 2b59 18       		.uleb128 0x18
 8587 2b5a 1E260000 		.4byte	.LASF596
 8588 2b5e 2A       		.byte	0x2a
 8589 2b5f 8C01     		.2byte	0x18c
 8590 2b61 2A2B0000 		.4byte	0x2b2a
 8591 2b65 08       		.byte	0x8
 8592 2b66 00       		.byte	0
 8593 2b67 07       		.uleb128 0x7
 8594 2b68 D6010000 		.4byte	.LASF597
 8595 2b6c 2A       		.byte	0x2a
 8596 2b6d 8E01     		.2byte	0x18e
 8597 2b6f 362B0000 		.4byte	0x2b36
 8598 2b73 0F       		.uleb128 0xf
 8599 2b74 672B0000 		.4byte	0x2b67
 8600 2b78 07       		.uleb128 0x7
 8601 2b79 9B040000 		.4byte	.LASF598
 8602 2b7d 2A       		.byte	0x2a
 8603 2b7e 9301     		.2byte	0x193
 8604 2b80 842B0000 		.4byte	0x2b84
 8605 2b84 1B       		.uleb128 0x1b
 8606 2b85 9B040000 		.4byte	.LASF598
 8607 2b89 3C       		.byte	0x3c
 8608 2b8a 2A       		.byte	0x2a
 8609 2b8b 9801     		.2byte	0x198
 8610 2b8d 212C0000 		.4byte	0x2c21
 8611 2b91 18       		.uleb128 0x18
 8612 2b92 39170000 		.4byte	.LASF467
 8613 2b96 2A       		.byte	0x2a
 8614 2b97 9C01     		.2byte	0x19c
 8615 2b99 B92A0000 		.4byte	0x2ab9
 8616 2b9d 00       		.byte	0
 8617 2b9e 18       		.uleb128 0x18
 8618 2b9f 0D1D0000 		.4byte	.LASF468
 8619 2ba3 2A       		.byte	0x2a
 8620 2ba4 A001     		.2byte	0x1a0
 8621 2ba6 212C0000 		.4byte	0x2c21
ARM GAS  /var/folders/qd/4mxf5pkd0zdf0b9dd1hp39180000gn/T//ccsf5yWP.s 			page 153


 8622 2baa 04       		.byte	0x4
 8623 2bab 18       		.uleb128 0x18
 8624 2bac 55010000 		.4byte	.LASF599
 8625 2bb0 2A       		.byte	0x2a
 8626 2bb1 A401     		.2byte	0x1a4
 8627 2bb3 D02A0000 		.4byte	0x2ad0
 8628 2bb7 08       		.byte	0x8
 8629 2bb8 18       		.uleb128 0x18
 8630 2bb9 E40C0000 		.4byte	.LASF473
 8631 2bbd 2A       		.byte	0x2a
 8632 2bbe A901     		.2byte	0x1a9
 8633 2bc0 6B1B0000 		.4byte	0x1b6b
 8634 2bc4 0C       		.byte	0xc
 8635 2bc5 18       		.uleb128 0x18
 8636 2bc6 F1060000 		.4byte	.LASF472
 8637 2bca 2A       		.byte	0x2a
 8638 2bcb B201     		.2byte	0x1b2
 8639 2bcd AF0C0000 		.4byte	0xcaf
 8640 2bd1 20       		.byte	0x20
 8641 2bd2 18       		.uleb128 0x18
 8642 2bd3 7B0E0000 		.4byte	.LASF600
 8643 2bd7 2A       		.byte	0x2a
 8644 2bd8 B601     		.2byte	0x1b6
 8645 2bda C42A0000 		.4byte	0x2ac4
 8646 2bde 24       		.byte	0x24
 8647 2bdf 18       		.uleb128 0x18
 8648 2be0 52080000 		.4byte	.LASF601
 8649 2be4 2A       		.byte	0x2a
 8650 2be5 BA01     		.2byte	0x1ba
 8651 2be7 D20A0000 		.4byte	0xad2
 8652 2beb 28       		.byte	0x28
 8653 2bec 18       		.uleb128 0x18
 8654 2bed AB080000 		.4byte	.LASF602
 8655 2bf1 2A       		.byte	0x2a
 8656 2bf2 BE01     		.2byte	0x1be
 8657 2bf4 D20A0000 		.4byte	0xad2
 8658 2bf8 2C       		.byte	0x2c
 8659 2bf9 18       		.uleb128 0x18
 8660 2bfa 12010000 		.4byte	.LASF603
 8661 2bfe 2A       		.byte	0x2a
 8662 2bff C201     		.2byte	0x1c2
 8663 2c01 63230000 		.4byte	0x2363
 8664 2c05 30       		.byte	0x30
 8665 2c06 18       		.uleb128 0x18
 8666 2c07 E9010000 		.4byte	.LASF604
 8667 2c0b 2A       		.byte	0x2a
 8668 2c0c C601     		.2byte	0x1c6
 8669 2c0e 63230000 		.4byte	0x2363
 8670 2c12 34       		.byte	0x34
 8671 2c13 25       		.uleb128 0x25
 8672 2c14 69326300 		.ascii	"i2c\000"
 8673 2c18 2A       		.byte	0x2a
 8674 2c19 CA01     		.2byte	0x1ca
 8675 2c1b 272C0000 		.4byte	0x2c27
 8676 2c1f 38       		.byte	0x38
 8677 2c20 00       		.byte	0
 8678 2c21 05       		.uleb128 0x5
ARM GAS  /var/folders/qd/4mxf5pkd0zdf0b9dd1hp39180000gn/T//ccsf5yWP.s 			page 154


 8679 2c22 04       		.byte	0x4
 8680 2c23 732B0000 		.4byte	0x2b73
 8681 2c27 05       		.uleb128 0x5
 8682 2c28 04       		.byte	0x4
 8683 2c29 69140000 		.4byte	0x1469
 8684 2c2d 20       		.uleb128 0x20
 8685 2c2e 7C120000 		.4byte	.LASF605
 8686 2c32 2A       		.byte	0x2a
 8687 2c33 E001     		.2byte	0x1e0
 8688 2c35 782B0000 		.4byte	0x2b78
 8689 2c39 2A       		.uleb128 0x2a
 8690 2c3a 07       		.byte	0x7
 8691 2c3b 01       		.byte	0x1
 8692 2c3c 6C000000 		.4byte	0x6c
 8693 2c40 2B       		.byte	0x2b
 8694 2c41 39       		.byte	0x39
 8695 2c42 652C0000 		.4byte	0x2c65
 8696 2c46 23       		.uleb128 0x23
 8697 2c47 27110000 		.4byte	.LASF606
 8698 2c4b 00       		.byte	0
 8699 2c4c 23       		.uleb128 0x23
 8700 2c4d C50C0000 		.4byte	.LASF607
 8701 2c51 01       		.byte	0x1
 8702 2c52 23       		.uleb128 0x23
 8703 2c53 24160000 		.4byte	.LASF608
 8704 2c57 02       		.byte	0x2
 8705 2c58 23       		.uleb128 0x23
 8706 2c59 5B1A0000 		.4byte	.LASF609
 8707 2c5d 03       		.byte	0x3
 8708 2c5e 23       		.uleb128 0x23
 8709 2c5f 561F0000 		.4byte	.LASF610
 8710 2c63 04       		.byte	0x4
 8711 2c64 00       		.byte	0
 8712 2c65 04       		.uleb128 0x4
 8713 2c66 DF220000 		.4byte	.LASF611
 8714 2c6a 2B       		.byte	0x2b
 8715 2c6b 3F       		.byte	0x3f
 8716 2c6c 392C0000 		.4byte	0x2c39
 8717 2c70 04       		.uleb128 0x4
 8718 2c71 14260000 		.4byte	.LASF612
 8719 2c75 2C       		.byte	0x2c
 8720 2c76 E2       		.byte	0xe2
 8721 2c77 7B2C0000 		.4byte	0x2c7b
 8722 2c7b 1B       		.uleb128 0x1b
 8723 2c7c 14260000 		.4byte	.LASF612
 8724 2c80 20       		.byte	0x20
 8725 2c81 2C       		.byte	0x2c
 8726 2c82 1B01     		.2byte	0x11b
 8727 2c84 F12C0000 		.4byte	0x2cf1
 8728 2c88 18       		.uleb128 0x18
 8729 2c89 39170000 		.4byte	.LASF467
 8730 2c8d 2C       		.byte	0x2c
 8731 2c8e 1F01     		.2byte	0x11f
 8732 2c90 652C0000 		.4byte	0x2c65
 8733 2c94 00       		.byte	0
 8734 2c95 18       		.uleb128 0x18
 8735 2c96 0D1D0000 		.4byte	.LASF468
ARM GAS  /var/folders/qd/4mxf5pkd0zdf0b9dd1hp39180000gn/T//ccsf5yWP.s 			page 155


 8736 2c9a 2C       		.byte	0x2c
 8737 2c9b 2301     		.2byte	0x123
 8738 2c9d 892D0000 		.4byte	0x2d89
 8739 2ca1 04       		.byte	0x4
 8740 2ca2 25       		.uleb128 0x25
 8741 2ca3 73706900 		.ascii	"spi\000"
 8742 2ca7 2C       		.byte	0x2c
 8743 2ca8 2801     		.2byte	0x128
 8744 2caa 8F2D0000 		.4byte	0x2d8f
 8745 2cae 08       		.byte	0x8
 8746 2caf 25       		.uleb128 0x25
 8747 2cb0 63666700 		.ascii	"cfg\000"
 8748 2cb4 2C       		.byte	0x2c
 8749 2cb5 2C01     		.2byte	0x12c
 8750 2cb7 B70A0000 		.4byte	0xab7
 8751 2cbb 0C       		.byte	0xc
 8752 2cbc 18       		.uleb128 0x18
 8753 2cbd 12010000 		.4byte	.LASF603
 8754 2cc1 2C       		.byte	0x2c
 8755 2cc2 3001     		.2byte	0x130
 8756 2cc4 63230000 		.4byte	0x2363
 8757 2cc8 10       		.byte	0x10
 8758 2cc9 18       		.uleb128 0x18
 8759 2cca E9010000 		.4byte	.LASF604
 8760 2cce 2C       		.byte	0x2c
 8761 2ccf 3401     		.2byte	0x134
 8762 2cd1 63230000 		.4byte	0x2363
 8763 2cd5 14       		.byte	0x14
 8764 2cd6 18       		.uleb128 0x18
 8765 2cd7 52080000 		.4byte	.LASF601
 8766 2cdb 2C       		.byte	0x2c
 8767 2cdc 3801     		.2byte	0x138
 8768 2cde D20A0000 		.4byte	0xad2
 8769 2ce2 18       		.byte	0x18
 8770 2ce3 18       		.uleb128 0x18
 8771 2ce4 AB080000 		.4byte	.LASF602
 8772 2ce8 2C       		.byte	0x2c
 8773 2ce9 3C01     		.2byte	0x13c
 8774 2ceb D20A0000 		.4byte	0xad2
 8775 2cef 1C       		.byte	0x1c
 8776 2cf0 00       		.byte	0
 8777 2cf1 04       		.uleb128 0x4
 8778 2cf2 97080000 		.4byte	.LASF613
 8779 2cf6 2C       		.byte	0x2c
 8780 2cf7 EB       		.byte	0xeb
 8781 2cf8 FC2C0000 		.4byte	0x2cfc
 8782 2cfc 05       		.uleb128 0x5
 8783 2cfd 04       		.byte	0x4
 8784 2cfe 022D0000 		.4byte	0x2d02
 8785 2d02 1F       		.uleb128 0x1f
 8786 2d03 172D0000 		.4byte	0x2d17
 8787 2d07 16       		.uleb128 0x16
 8788 2d08 172D0000 		.4byte	0x2d17
 8789 2d0c 16       		.uleb128 0x16
 8790 2d0d 3A000000 		.4byte	0x3a
 8791 2d11 16       		.uleb128 0x16
 8792 2d12 3A000000 		.4byte	0x3a
ARM GAS  /var/folders/qd/4mxf5pkd0zdf0b9dd1hp39180000gn/T//ccsf5yWP.s 			page 156


 8793 2d16 00       		.byte	0
 8794 2d17 05       		.uleb128 0x5
 8795 2d18 04       		.byte	0x4
 8796 2d19 702C0000 		.4byte	0x2c70
 8797 2d1d 0C       		.uleb128 0xc
 8798 2d1e 14       		.byte	0x14
 8799 2d1f 2C       		.byte	0x2c
 8800 2d20 F1       		.byte	0xf1
 8801 2d21 712D0000 		.4byte	0x2d71
 8802 2d25 0D       		.uleb128 0xd
 8803 2d26 77010000 		.4byte	.LASF614
 8804 2d2a 2C       		.byte	0x2c
 8805 2d2b F6       		.byte	0xf6
 8806 2d2c 712D0000 		.4byte	0x2d71
 8807 2d30 00       		.byte	0
 8808 2d31 0D       		.uleb128 0xd
 8809 2d32 4B010000 		.4byte	.LASF615
 8810 2d36 2C       		.byte	0x2c
 8811 2d37 FB       		.byte	0xfb
 8812 2d38 6B010000 		.4byte	0x16b
 8813 2d3c 04       		.byte	0x4
 8814 2d3d 0D       		.uleb128 0xd
 8815 2d3e EA0C0000 		.4byte	.LASF616
 8816 2d42 2C       		.byte	0x2c
 8817 2d43 FF       		.byte	0xff
 8818 2d44 3A000000 		.4byte	0x3a
 8819 2d48 08       		.byte	0x8
 8820 2d49 18       		.uleb128 0x18
 8821 2d4a 3E090000 		.4byte	.LASF480
 8822 2d4e 2C       		.byte	0x2c
 8823 2d4f 0301     		.2byte	0x103
 8824 2d51 F12C0000 		.4byte	0x2cf1
 8825 2d55 0C       		.byte	0xc
 8826 2d56 18       		.uleb128 0x18
 8827 2d57 A71A0000 		.4byte	.LASF617
 8828 2d5b 2C       		.byte	0x2c
 8829 2d5c 0F01     		.2byte	0x10f
 8830 2d5e AC0A0000 		.4byte	0xaac
 8831 2d62 10       		.byte	0x10
 8832 2d63 18       		.uleb128 0x18
 8833 2d64 BC060000 		.4byte	.LASF618
 8834 2d68 2C       		.byte	0x2c
 8835 2d69 1501     		.2byte	0x115
 8836 2d6b AC0A0000 		.4byte	0xaac
 8837 2d6f 12       		.byte	0x12
 8838 2d70 00       		.byte	0
 8839 2d71 05       		.uleb128 0x5
 8840 2d72 04       		.byte	0x4
 8841 2d73 772D0000 		.4byte	0x2d77
 8842 2d77 2D       		.uleb128 0x2d
 8843 2d78 07       		.uleb128 0x7
 8844 2d79 29260000 		.4byte	.LASF619
 8845 2d7d 2C       		.byte	0x2c
 8846 2d7e 1601     		.2byte	0x116
 8847 2d80 1D2D0000 		.4byte	0x2d1d
 8848 2d84 0F       		.uleb128 0xf
 8849 2d85 782D0000 		.4byte	0x2d78
ARM GAS  /var/folders/qd/4mxf5pkd0zdf0b9dd1hp39180000gn/T//ccsf5yWP.s 			page 157


 8850 2d89 05       		.uleb128 0x5
 8851 2d8a 04       		.byte	0x4
 8852 2d8b 842D0000 		.4byte	0x2d84
 8853 2d8f 05       		.uleb128 0x5
 8854 2d90 04       		.byte	0x4
 8855 2d91 1C160000 		.4byte	0x161c
 8856 2d95 20       		.uleb128 0x20
 8857 2d96 5E260000 		.4byte	.LASF620
 8858 2d9a 2C       		.byte	0x2c
 8859 2d9b 4801     		.2byte	0x148
 8860 2d9d 702C0000 		.4byte	0x2c70
 8861 2da1 2A       		.uleb128 0x2a
 8862 2da2 07       		.byte	0x7
 8863 2da3 01       		.byte	0x1
 8864 2da4 6C000000 		.4byte	0x6c
 8865 2da8 2D       		.byte	0x2d
 8866 2da9 4A       		.byte	0x4a
 8867 2daa C12D0000 		.4byte	0x2dc1
 8868 2dae 23       		.uleb128 0x23
 8869 2daf 4C070000 		.4byte	.LASF621
 8870 2db3 00       		.byte	0
 8871 2db4 23       		.uleb128 0x23
 8872 2db5 D30C0000 		.4byte	.LASF622
 8873 2db9 01       		.byte	0x1
 8874 2dba 23       		.uleb128 0x23
 8875 2dbb 4E110000 		.4byte	.LASF623
 8876 2dbf 02       		.byte	0x2
 8877 2dc0 00       		.byte	0
 8878 2dc1 04       		.uleb128 0x4
 8879 2dc2 56030000 		.4byte	.LASF624
 8880 2dc6 2D       		.byte	0x2d
 8881 2dc7 4E       		.byte	0x4e
 8882 2dc8 A12D0000 		.4byte	0x2da1
 8883 2dcc 04       		.uleb128 0x4
 8884 2dcd FE0B0000 		.4byte	.LASF625
 8885 2dd1 2D       		.byte	0x2d
 8886 2dd2 53       		.byte	0x53
 8887 2dd3 D72D0000 		.4byte	0x2dd7
 8888 2dd7 1B       		.uleb128 0x1b
 8889 2dd8 FE0B0000 		.4byte	.LASF625
 8890 2ddc 1C       		.byte	0x1c
 8891 2ddd 2E       		.byte	0x2e
 8892 2dde 7901     		.2byte	0x179
 8893 2de0 402E0000 		.4byte	0x2e40
 8894 2de4 18       		.uleb128 0x18
 8895 2de5 39170000 		.4byte	.LASF467
 8896 2de9 2E       		.byte	0x2e
 8897 2dea 7D01     		.2byte	0x17d
 8898 2dec C12D0000 		.4byte	0x2dc1
 8899 2df0 00       		.byte	0
 8900 2df1 18       		.uleb128 0x18
 8901 2df2 0D1D0000 		.4byte	.LASF468
 8902 2df6 2E       		.byte	0x2e
 8903 2df7 8101     		.2byte	0x181
 8904 2df9 3B2F0000 		.4byte	0x2f3b
 8905 2dfd 04       		.byte	0x4
 8906 2dfe 18       		.uleb128 0x18
ARM GAS  /var/folders/qd/4mxf5pkd0zdf0b9dd1hp39180000gn/T//ccsf5yWP.s 			page 158


 8907 2dff 52140000 		.4byte	.LASF626
 8908 2e03 2E       		.byte	0x2e
 8909 2e04 8501     		.2byte	0x185
 8910 2e06 862E0000 		.4byte	0x2e86
 8911 2e0a 08       		.byte	0x8
 8912 2e0b 18       		.uleb128 0x18
 8913 2e0c 121B0000 		.4byte	.LASF627
 8914 2e10 2E       		.byte	0x2e
 8915 2e11 8901     		.2byte	0x189
 8916 2e13 7A2E0000 		.4byte	0x2e7a
 8917 2e17 0C       		.byte	0xc
 8918 2e18 18       		.uleb128 0x18
 8919 2e19 E8210000 		.4byte	.LASF548
 8920 2e1d 2E       		.byte	0x2e
 8921 2e1e 8D01     		.2byte	0x18d
 8922 2e20 6E2E0000 		.4byte	0x2e6e
 8923 2e24 10       		.byte	0x10
 8924 2e25 18       		.uleb128 0x18
 8925 2e26 180D0000 		.4byte	.LASF558
 8926 2e2a 2E       		.byte	0x2e
 8927 2e2b 9501     		.2byte	0x195
 8928 2e2d D20A0000 		.4byte	0xad2
 8929 2e31 14       		.byte	0x14
 8930 2e32 25       		.uleb128 0x25
 8931 2e33 74696D00 		.ascii	"tim\000"
 8932 2e37 2E       		.byte	0x2e
 8933 2e38 9901     		.2byte	0x199
 8934 2e3a 692A0000 		.4byte	0x2a69
 8935 2e3e 18       		.byte	0x18
 8936 2e3f 00       		.byte	0
 8937 2e40 04       		.uleb128 0x4
 8938 2e41 DB110000 		.4byte	.LASF628
 8939 2e45 2D       		.byte	0x2d
 8940 2e46 5A       		.byte	0x5a
 8941 2e47 4B2E0000 		.4byte	0x2e4b
 8942 2e4b 05       		.uleb128 0x5
 8943 2e4c 04       		.byte	0x4
 8944 2e4d 512E0000 		.4byte	0x2e51
 8945 2e51 1F       		.uleb128 0x1f
 8946 2e52 5C2E0000 		.4byte	0x2e5c
 8947 2e56 16       		.uleb128 0x16
 8948 2e57 5C2E0000 		.4byte	0x2e5c
 8949 2e5b 00       		.byte	0
 8950 2e5c 05       		.uleb128 0x5
 8951 2e5d 04       		.byte	0x4
 8952 2e5e CC2D0000 		.4byte	0x2dcc
 8953 2e62 07       		.uleb128 0x7
 8954 2e63 63160000 		.4byte	.LASF629
 8955 2e67 2E       		.byte	0x2e
 8956 2e68 2501     		.2byte	0x125
 8957 2e6a D20A0000 		.4byte	0xad2
 8958 2e6e 07       		.uleb128 0x7
 8959 2e6f A6180000 		.4byte	.LASF630
 8960 2e73 2E       		.byte	0x2e
 8961 2e74 2A01     		.2byte	0x12a
 8962 2e76 9C0A0000 		.4byte	0xa9c
 8963 2e7a 07       		.uleb128 0x7
ARM GAS  /var/folders/qd/4mxf5pkd0zdf0b9dd1hp39180000gn/T//ccsf5yWP.s 			page 159


 8964 2e7b 0E160000 		.4byte	.LASF631
 8965 2e7f 2E       		.byte	0x2e
 8966 2e80 2F01     		.2byte	0x12f
 8967 2e82 D20A0000 		.4byte	0xad2
 8968 2e86 07       		.uleb128 0x7
 8969 2e87 F40D0000 		.4byte	.LASF632
 8970 2e8b 2E       		.byte	0x2e
 8971 2e8c 3401     		.2byte	0x134
 8972 2e8e D20A0000 		.4byte	0xad2
 8973 2e92 1C       		.uleb128 0x1c
 8974 2e93 08       		.byte	0x8
 8975 2e94 2E       		.byte	0x2e
 8976 2e95 3901     		.2byte	0x139
 8977 2e97 B62E0000 		.4byte	0x2eb6
 8978 2e9b 18       		.uleb128 0x18
 8979 2e9c 66080000 		.4byte	.LASF546
 8980 2ea0 2E       		.byte	0x2e
 8981 2ea1 3D01     		.2byte	0x13d
 8982 2ea3 622E0000 		.4byte	0x2e62
 8983 2ea7 00       		.byte	0
 8984 2ea8 18       		.uleb128 0x18
 8985 2ea9 C4170000 		.4byte	.LASF572
 8986 2ead 2E       		.byte	0x2e
 8987 2eae 4301     		.2byte	0x143
 8988 2eb0 402E0000 		.4byte	0x2e40
 8989 2eb4 04       		.byte	0x4
 8990 2eb5 00       		.byte	0
 8991 2eb6 07       		.uleb128 0x7
 8992 2eb7 E30D0000 		.4byte	.LASF633
 8993 2ebb 2E       		.byte	0x2e
 8994 2ebc 4501     		.2byte	0x145
 8995 2ebe 922E0000 		.4byte	0x2e92
 8996 2ec2 1C       		.uleb128 0x1c
 8997 2ec3 34       		.byte	0x34
 8998 2ec4 2E       		.byte	0x2e
 8999 2ec5 4A01     		.2byte	0x14a
 9000 2ec7 1A2F0000 		.4byte	0x2f1a
 9001 2ecb 18       		.uleb128 0x18
 9002 2ecc BF240000 		.4byte	.LASF571
 9003 2ed0 2E       		.byte	0x2e
 9004 2ed1 5001     		.2byte	0x150
 9005 2ed3 D20A0000 		.4byte	0xad2
 9006 2ed7 00       		.byte	0
 9007 2ed8 18       		.uleb128 0x18
 9008 2ed9 52140000 		.4byte	.LASF626
 9009 2edd 2E       		.byte	0x2e
 9010 2ede 5601     		.2byte	0x156
 9011 2ee0 862E0000 		.4byte	0x2e86
 9012 2ee4 04       		.byte	0x4
 9013 2ee5 18       		.uleb128 0x18
 9014 2ee6 C4170000 		.4byte	.LASF572
 9015 2eea 2E       		.byte	0x2e
 9016 2eeb 5C01     		.2byte	0x15c
 9017 2eed 402E0000 		.4byte	0x2e40
 9018 2ef1 08       		.byte	0x8
 9019 2ef2 18       		.uleb128 0x18
 9020 2ef3 E8210000 		.4byte	.LASF548
ARM GAS  /var/folders/qd/4mxf5pkd0zdf0b9dd1hp39180000gn/T//ccsf5yWP.s 			page 160


 9021 2ef7 2E       		.byte	0x2e
 9022 2ef8 6001     		.2byte	0x160
 9023 2efa 1A2F0000 		.4byte	0x2f1a
 9024 2efe 0C       		.byte	0xc
 9025 2eff 25       		.uleb128 0x25
 9026 2f00 63723200 		.ascii	"cr2\000"
 9027 2f04 2E       		.byte	0x2e
 9028 2f05 6601     		.2byte	0x166
 9029 2f07 D20A0000 		.4byte	0xad2
 9030 2f0b 2C       		.byte	0x2c
 9031 2f0c 18       		.uleb128 0x18
 9032 2f0d 890C0000 		.4byte	.LASF573
 9033 2f11 2E       		.byte	0x2e
 9034 2f12 7301     		.2byte	0x173
 9035 2f14 D20A0000 		.4byte	0xad2
 9036 2f18 30       		.byte	0x30
 9037 2f19 00       		.byte	0
 9038 2f1a 0A       		.uleb128 0xa
 9039 2f1b B62E0000 		.4byte	0x2eb6
 9040 2f1f 2A2F0000 		.4byte	0x2f2a
 9041 2f23 0B       		.uleb128 0xb
 9042 2f24 45000000 		.4byte	0x45
 9043 2f28 03       		.byte	0x3
 9044 2f29 00       		.byte	0
 9045 2f2a 07       		.uleb128 0x7
 9046 2f2b 0F0C0000 		.4byte	.LASF634
 9047 2f2f 2E       		.byte	0x2e
 9048 2f30 7401     		.2byte	0x174
 9049 2f32 C22E0000 		.4byte	0x2ec2
 9050 2f36 0F       		.uleb128 0xf
 9051 2f37 2A2F0000 		.4byte	0x2f2a
 9052 2f3b 05       		.uleb128 0x5
 9053 2f3c 04       		.byte	0x4
 9054 2f3d 362F0000 		.4byte	0x2f36
 9055 2f41 20       		.uleb128 0x20
 9056 2f42 AD120000 		.4byte	.LASF635
 9057 2f46 2E       		.byte	0x2e
 9058 2f47 BC01     		.2byte	0x1bc
 9059 2f49 CC2D0000 		.4byte	0x2dcc
 9060 2f4d 20       		.uleb128 0x20
 9061 2f4e B3120000 		.4byte	.LASF636
 9062 2f52 2E       		.byte	0x2e
 9063 2f53 C001     		.2byte	0x1c0
 9064 2f55 CC2D0000 		.4byte	0x2dcc
 9065 2f59 20       		.uleb128 0x20
 9066 2f5a B9120000 		.4byte	.LASF637
 9067 2f5e 2E       		.byte	0x2e
 9068 2f5f C401     		.2byte	0x1c4
 9069 2f61 CC2D0000 		.4byte	0x2dcc
 9070 2f65 20       		.uleb128 0x20
 9071 2f66 BF120000 		.4byte	.LASF638
 9072 2f6a 2E       		.byte	0x2e
 9073 2f6b C801     		.2byte	0x1c8
 9074 2f6d CC2D0000 		.4byte	0x2dcc
 9075 2f71 2A       		.uleb128 0x2a
 9076 2f72 07       		.byte	0x7
 9077 2f73 01       		.byte	0x1
ARM GAS  /var/folders/qd/4mxf5pkd0zdf0b9dd1hp39180000gn/T//ccsf5yWP.s 			page 161


 9078 2f74 6C000000 		.4byte	0x6c
 9079 2f78 2F       		.byte	0x2f
 9080 2f79 55       		.byte	0x55
 9081 2f7a 912F0000 		.4byte	0x2f91
 9082 2f7e 23       		.uleb128 0x23
 9083 2f7f 06040000 		.4byte	.LASF639
 9084 2f83 00       		.byte	0
 9085 2f84 23       		.uleb128 0x23
 9086 2f85 560D0000 		.4byte	.LASF640
 9087 2f89 01       		.byte	0x1
 9088 2f8a 23       		.uleb128 0x23
 9089 2f8b 7A0F0000 		.4byte	.LASF641
 9090 2f8f 02       		.byte	0x2
 9091 2f90 00       		.byte	0
 9092 2f91 04       		.uleb128 0x4
 9093 2f92 A8190000 		.4byte	.LASF642
 9094 2f96 2F       		.byte	0x2f
 9095 2f97 59       		.byte	0x59
 9096 2f98 712F0000 		.4byte	0x2f71
 9097 2f9c 04       		.uleb128 0x4
 9098 2f9d 2F220000 		.4byte	.LASF643
 9099 2fa1 2F       		.byte	0x2f
 9100 2fa2 5E       		.byte	0x5e
 9101 2fa3 A72F0000 		.4byte	0x2fa7
 9102 2fa7 10       		.uleb128 0x10
 9103 2fa8 2F220000 		.4byte	.LASF643
 9104 2fac 78       		.byte	0x78
 9105 2fad 2F       		.byte	0x2f
 9106 2fae 78       		.byte	0x78
 9107 2faf 12300000 		.4byte	0x3012
 9108 2fb3 11       		.uleb128 0x11
 9109 2fb4 766D7400 		.ascii	"vmt\000"
 9110 2fb8 2F       		.byte	0x2f
 9111 2fb9 7A       		.byte	0x7a
 9112 2fba 90300000 		.4byte	0x3090
 9113 2fbe 00       		.byte	0
 9114 2fbf 0D       		.uleb128 0xd
 9115 2fc0 32000000 		.4byte	.LASF644
 9116 2fc4 2F       		.byte	0x2f
 9117 2fc5 7B       		.byte	0x7b
 9118 2fc6 EF1B0000 		.4byte	0x1bef
 9119 2fca 04       		.byte	0x4
 9120 2fcb 0D       		.uleb128 0xd
 9121 2fcc 39170000 		.4byte	.LASF467
 9122 2fd0 2F       		.byte	0x2f
 9123 2fd1 7B       		.byte	0x7b
 9124 2fd2 912F0000 		.4byte	0x2f91
 9125 2fd6 08       		.byte	0x8
 9126 2fd7 0D       		.uleb128 0xd
 9127 2fd8 89190000 		.4byte	.LASF645
 9128 2fdc 2F       		.byte	0x2f
 9129 2fdd 7B       		.byte	0x7b
 9130 2fde 9A1C0000 		.4byte	0x1c9a
 9131 2fe2 0C       		.byte	0xc
 9132 2fe3 0D       		.uleb128 0xd
 9133 2fe4 D8120000 		.4byte	.LASF646
 9134 2fe8 2F       		.byte	0x2f
ARM GAS  /var/folders/qd/4mxf5pkd0zdf0b9dd1hp39180000gn/T//ccsf5yWP.s 			page 162


 9135 2fe9 7B       		.byte	0x7b
 9136 2fea A51C0000 		.4byte	0x1ca5
 9137 2fee 30       		.byte	0x30
 9138 2fef 11       		.uleb128 0x11
 9139 2ff0 696200   		.ascii	"ib\000"
 9140 2ff3 2F       		.byte	0x2f
 9141 2ff4 7B       		.byte	0x7b
 9142 2ff5 96300000 		.4byte	0x3096
 9143 2ff9 54       		.byte	0x54
 9144 2ffa 11       		.uleb128 0x11
 9145 2ffb 6F6200   		.ascii	"ob\000"
 9146 2ffe 2F       		.byte	0x2f
 9147 2fff 7B       		.byte	0x7b
 9148 3000 96300000 		.4byte	0x3096
 9149 3004 64       		.byte	0x64
 9150 3005 0D       		.uleb128 0xd
 9151 3006 3A1B0000 		.4byte	.LASF647
 9152 300a 2F       		.byte	0x2f
 9153 300b 7B       		.byte	0x7b
 9154 300c A6300000 		.4byte	0x30a6
 9155 3010 74       		.byte	0x74
 9156 3011 00       		.byte	0
 9157 3012 29       		.uleb128 0x29
 9158 3013 53443300 		.ascii	"SD3\000"
 9159 3017 30       		.byte	0x30
 9160 3018 1501     		.2byte	0x115
 9161 301a 9C2F0000 		.4byte	0x2f9c
 9162 301e 10       		.uleb128 0x10
 9163 301f 070F0000 		.4byte	.LASF648
 9164 3023 20       		.byte	0x20
 9165 3024 2F       		.byte	0x2f
 9166 3025 6D       		.byte	0x6d
 9167 3026 8B300000 		.4byte	0x308b
 9168 302a 0D       		.uleb128 0xd
 9169 302b 78190000 		.4byte	.LASF649
 9170 302f 2F       		.byte	0x2f
 9171 3030 6E       		.byte	0x6e
 9172 3031 CF1C0000 		.4byte	0x1ccf
 9173 3035 00       		.byte	0
 9174 3036 0D       		.uleb128 0xd
 9175 3037 B3040000 		.4byte	.LASF650
 9176 303b 2F       		.byte	0x2f
 9177 303c 6E       		.byte	0x6e
 9178 303d EE1C0000 		.4byte	0x1cee
 9179 3041 04       		.byte	0x4
 9180 3042 11       		.uleb128 0x11
 9181 3043 70757400 		.ascii	"put\000"
 9182 3047 2F       		.byte	0x2f
 9183 3048 6E       		.byte	0x6e
 9184 3049 081D0000 		.4byte	0x1d08
 9185 304d 08       		.byte	0x8
 9186 304e 11       		.uleb128 0x11
 9187 304f 67657400 		.ascii	"get\000"
 9188 3053 2F       		.byte	0x2f
 9189 3054 6E       		.byte	0x6e
 9190 3055 1D1D0000 		.4byte	0x1d1d
 9191 3059 0C       		.byte	0xc
ARM GAS  /var/folders/qd/4mxf5pkd0zdf0b9dd1hp39180000gn/T//ccsf5yWP.s 			page 163


 9192 305a 0D       		.uleb128 0xd
 9193 305b 22150000 		.4byte	.LASF651
 9194 305f 2F       		.byte	0x2f
 9195 3060 6E       		.byte	0x6e
 9196 3061 BE1D0000 		.4byte	0x1dbe
 9197 3065 10       		.byte	0x10
 9198 3066 0D       		.uleb128 0xd
 9199 3067 5E190000 		.4byte	.LASF652
 9200 306b 2F       		.byte	0x2f
 9201 306c 6E       		.byte	0x6e
 9202 306d D81D0000 		.4byte	0x1dd8
 9203 3071 14       		.byte	0x14
 9204 3072 0D       		.uleb128 0xd
 9205 3073 4A230000 		.4byte	.LASF653
 9206 3077 2F       		.byte	0x2f
 9207 3078 6E       		.byte	0x6e
 9208 3079 FC1D0000 		.4byte	0x1dfc
 9209 307d 18       		.byte	0x18
 9210 307e 0D       		.uleb128 0xd
 9211 307f 7E140000 		.4byte	.LASF654
 9212 3083 2F       		.byte	0x2f
 9213 3084 6E       		.byte	0x6e
 9214 3085 201E0000 		.4byte	0x1e20
 9215 3089 1C       		.byte	0x1c
 9216 308a 00       		.byte	0
 9217 308b 0F       		.uleb128 0xf
 9218 308c 1E300000 		.4byte	0x301e
 9219 3090 05       		.uleb128 0x5
 9220 3091 04       		.byte	0x4
 9221 3092 8B300000 		.4byte	0x308b
 9222 3096 0A       		.uleb128 0xa
 9223 3097 9C0A0000 		.4byte	0xa9c
 9224 309b A6300000 		.4byte	0x30a6
 9225 309f 0B       		.uleb128 0xb
 9226 30a0 45000000 		.4byte	0x45
 9227 30a4 0F       		.byte	0xf
 9228 30a5 00       		.byte	0
 9229 30a6 05       		.uleb128 0x5
 9230 30a7 04       		.byte	0x4
 9231 30a8 8B160000 		.4byte	0x168b
 9232 30ac 2A       		.uleb128 0x2a
 9233 30ad 07       		.byte	0x7
 9234 30ae 01       		.byte	0x1
 9235 30af 6C000000 		.4byte	0x6c
 9236 30b3 31       		.byte	0x31
 9237 30b4 6C       		.byte	0x6c
 9238 30b5 CC300000 		.4byte	0x30cc
 9239 30b9 23       		.uleb128 0x23
 9240 30ba 20030000 		.4byte	.LASF655
 9241 30be 00       		.byte	0
 9242 30bf 23       		.uleb128 0x23
 9243 30c0 79160000 		.4byte	.LASF656
 9244 30c4 01       		.byte	0x1
 9245 30c5 23       		.uleb128 0x23
 9246 30c6 F3130000 		.4byte	.LASF657
 9247 30ca 02       		.byte	0x2
 9248 30cb 00       		.byte	0
ARM GAS  /var/folders/qd/4mxf5pkd0zdf0b9dd1hp39180000gn/T//ccsf5yWP.s 			page 164


 9249 30cc 04       		.uleb128 0x4
 9250 30cd 2E1C0000 		.4byte	.LASF658
 9251 30d1 31       		.byte	0x31
 9252 30d2 70       		.byte	0x70
 9253 30d3 AC300000 		.4byte	0x30ac
 9254 30d7 04       		.uleb128 0x4
 9255 30d8 461B0000 		.4byte	.LASF659
 9256 30dc 32       		.byte	0x32
 9257 30dd BF       		.byte	0xbf
 9258 30de D20A0000 		.4byte	0xad2
 9259 30e2 04       		.uleb128 0x4
 9260 30e3 86000000 		.4byte	.LASF660
 9261 30e7 32       		.byte	0x32
 9262 30e8 C4       		.byte	0xc4
 9263 30e9 D20A0000 		.4byte	0xad2
 9264 30ed 04       		.uleb128 0x4
 9265 30ee FC210000 		.4byte	.LASF661
 9266 30f2 32       		.byte	0x32
 9267 30f3 C9       		.byte	0xc9
 9268 30f4 F8300000 		.4byte	0x30f8
 9269 30f8 10       		.uleb128 0x10
 9270 30f9 FC210000 		.4byte	.LASF661
 9271 30fd 4C       		.byte	0x4c
 9272 30fe 32       		.byte	0x32
 9273 30ff F2       		.byte	0xf2
 9274 3100 A7310000 		.4byte	0x31a7
 9275 3104 11       		.uleb128 0x11
 9276 3105 766D7400 		.ascii	"vmt\000"
 9277 3109 32       		.byte	0x32
 9278 310a F6       		.byte	0xf6
 9279 310b 4A320000 		.4byte	0x324a
 9280 310f 00       		.byte	0
 9281 3110 0D       		.uleb128 0xd
 9282 3111 39170000 		.4byte	.LASF467
 9283 3115 32       		.byte	0x32
 9284 3116 F7       		.byte	0xf7
 9285 3117 6A1E0000 		.4byte	0x1e6a
 9286 311b 04       		.byte	0x4
 9287 311c 11       		.uleb128 0x11
 9288 311d 63696400 		.ascii	"cid\000"
 9289 3121 32       		.byte	0x32
 9290 3122 F7       		.byte	0xf7
 9291 3123 1E1F0000 		.4byte	0x1f1e
 9292 3127 08       		.byte	0x8
 9293 3128 11       		.uleb128 0x11
 9294 3129 63736400 		.ascii	"csd\000"
 9295 312d 32       		.byte	0x32
 9296 312e F7       		.byte	0xf7
 9297 312f 1E1F0000 		.4byte	0x1f1e
 9298 3133 18       		.byte	0x18
 9299 3134 0D       		.uleb128 0xd
 9300 3135 DD1D0000 		.4byte	.LASF662
 9301 3139 32       		.byte	0x32
 9302 313a F7       		.byte	0xf7
 9303 313b D20A0000 		.4byte	0xad2
 9304 313f 28       		.byte	0x28
 9305 3140 0D       		.uleb128 0xd
ARM GAS  /var/folders/qd/4mxf5pkd0zdf0b9dd1hp39180000gn/T//ccsf5yWP.s 			page 165


 9306 3141 0D1D0000 		.4byte	.LASF468
 9307 3145 32       		.byte	0x32
 9308 3146 FB       		.byte	0xfb
 9309 3147 50320000 		.4byte	0x3250
 9310 314b 2C       		.byte	0x2c
 9311 314c 0D       		.uleb128 0xd
 9312 314d 66040000 		.4byte	.LASF663
 9313 3151 32       		.byte	0x32
 9314 3152 FF       		.byte	0xff
 9315 3153 D7300000 		.4byte	0x30d7
 9316 3157 30       		.byte	0x30
 9317 3158 18       		.uleb128 0x18
 9318 3159 55010000 		.4byte	.LASF599
 9319 315d 32       		.byte	0x32
 9320 315e 0301     		.2byte	0x103
 9321 3160 E2300000 		.4byte	0x30e2
 9322 3164 34       		.byte	0x34
 9323 3165 25       		.uleb128 0x25
 9324 3166 72636100 		.ascii	"rca\000"
 9325 316a 32       		.byte	0x32
 9326 316b 0701     		.2byte	0x107
 9327 316d D20A0000 		.4byte	0xad2
 9328 3171 38       		.byte	0x38
 9329 3172 18       		.uleb128 0x18
 9330 3173 F1060000 		.4byte	.LASF472
 9331 3177 32       		.byte	0x32
 9332 3178 0C01     		.2byte	0x10c
 9333 317a AF0C0000 		.4byte	0xcaf
 9334 317e 3C       		.byte	0x3c
 9335 317f 18       		.uleb128 0x18
 9336 3180 3A190000 		.4byte	.LASF475
 9337 3184 32       		.byte	0x32
 9338 3185 1001     		.2byte	0x110
 9339 3187 D20A0000 		.4byte	0xad2
 9340 318b 40       		.byte	0x40
 9341 318c 25       		.uleb128 0x25
 9342 318d 646D6100 		.ascii	"dma\000"
 9343 3191 32       		.byte	0x32
 9344 3192 1401     		.2byte	0x114
 9345 3194 63230000 		.4byte	0x2363
 9346 3198 44       		.byte	0x44
 9347 3199 18       		.uleb128 0x18
 9348 319a 51170000 		.4byte	.LASF664
 9349 319e 32       		.byte	0x32
 9350 319f 1901     		.2byte	0x119
 9351 31a1 56320000 		.4byte	0x3256
 9352 31a5 48       		.byte	0x48
 9353 31a6 00       		.byte	0
 9354 31a7 0C       		.uleb128 0xc
 9355 31a8 08       		.byte	0x8
 9356 31a9 32       		.byte	0x32
 9357 31aa CF       		.byte	0xcf
 9358 31ab C8310000 		.4byte	0x31c8
 9359 31af 0D       		.uleb128 0xd
 9360 31b0 330E0000 		.4byte	.LASF665
 9361 31b4 32       		.byte	0x32
 9362 31b5 D8       		.byte	0xd8
ARM GAS  /var/folders/qd/4mxf5pkd0zdf0b9dd1hp39180000gn/T//ccsf5yWP.s 			page 166


 9363 31b6 941C0000 		.4byte	0x1c94
 9364 31ba 00       		.byte	0
 9365 31bb 0D       		.uleb128 0xd
 9366 31bc E1230000 		.4byte	.LASF666
 9367 31c0 32       		.byte	0x32
 9368 31c1 DC       		.byte	0xdc
 9369 31c2 CC300000 		.4byte	0x30cc
 9370 31c6 04       		.byte	0x4
 9371 31c7 00       		.byte	0
 9372 31c8 04       		.uleb128 0x4
 9373 31c9 081B0000 		.4byte	.LASF667
 9374 31cd 32       		.byte	0x32
 9375 31ce DE       		.byte	0xde
 9376 31cf A7310000 		.4byte	0x31a7
 9377 31d3 0F       		.uleb128 0xf
 9378 31d4 C8310000 		.4byte	0x31c8
 9379 31d8 10       		.uleb128 0x10
 9380 31d9 F7230000 		.4byte	.LASF668
 9381 31dd 20       		.byte	0x20
 9382 31de 32       		.byte	0x32
 9383 31df EB       		.byte	0xeb
 9384 31e0 45320000 		.4byte	0x3245
 9385 31e4 0D       		.uleb128 0xd
 9386 31e5 64260000 		.4byte	.LASF669
 9387 31e9 32       		.byte	0x32
 9388 31ea EC       		.byte	0xec
 9389 31eb B01E0000 		.4byte	0x1eb0
 9390 31ef 00       		.byte	0
 9391 31f0 0D       		.uleb128 0xd
 9392 31f1 8E0C0000 		.4byte	.LASF670
 9393 31f5 32       		.byte	0x32
 9394 31f6 EC       		.byte	0xec
 9395 31f7 B01E0000 		.4byte	0x1eb0
 9396 31fb 04       		.byte	0x4
 9397 31fc 0D       		.uleb128 0xd
 9398 31fd 2C0F0000 		.4byte	.LASF671
 9399 3201 32       		.byte	0x32
 9400 3202 EC       		.byte	0xec
 9401 3203 B01E0000 		.4byte	0x1eb0
 9402 3207 08       		.byte	0x8
 9403 3208 0D       		.uleb128 0xd
 9404 3209 12150000 		.4byte	.LASF672
 9405 320d 32       		.byte	0x32
 9406 320e EC       		.byte	0xec
 9407 320f B01E0000 		.4byte	0x1eb0
 9408 3213 0C       		.byte	0xc
 9409 3214 0D       		.uleb128 0xd
 9410 3215 B3040000 		.4byte	.LASF650
 9411 3219 32       		.byte	0x32
 9412 321a EC       		.byte	0xec
 9413 321b D41E0000 		.4byte	0x1ed4
 9414 321f 10       		.byte	0x10
 9415 3220 0D       		.uleb128 0xd
 9416 3221 78190000 		.4byte	.LASF649
 9417 3225 32       		.byte	0x32
 9418 3226 EC       		.byte	0xec
 9419 3227 F81E0000 		.4byte	0x1ef8
ARM GAS  /var/folders/qd/4mxf5pkd0zdf0b9dd1hp39180000gn/T//ccsf5yWP.s 			page 167


 9420 322b 14       		.byte	0x14
 9421 322c 0D       		.uleb128 0xd
 9422 322d 351B0000 		.4byte	.LASF673
 9423 3231 32       		.byte	0x32
 9424 3232 EC       		.byte	0xec
 9425 3233 B01E0000 		.4byte	0x1eb0
 9426 3237 18       		.byte	0x18
 9427 3238 0D       		.uleb128 0xd
 9428 3239 8F230000 		.4byte	.LASF674
 9429 323d 32       		.byte	0x32
 9430 323e EC       		.byte	0xec
 9431 323f 181F0000 		.4byte	0x1f18
 9432 3243 1C       		.byte	0x1c
 9433 3244 00       		.byte	0
 9434 3245 0F       		.uleb128 0xf
 9435 3246 D8310000 		.4byte	0x31d8
 9436 324a 05       		.uleb128 0x5
 9437 324b 04       		.byte	0x4
 9438 324c 45320000 		.4byte	0x3245
 9439 3250 05       		.uleb128 0x5
 9440 3251 04       		.byte	0x4
 9441 3252 D3310000 		.4byte	0x31d3
 9442 3256 05       		.uleb128 0x5
 9443 3257 04       		.byte	0x4
 9444 3258 93150000 		.4byte	0x1593
 9445 325c 20       		.uleb128 0x20
 9446 325d 2F0A0000 		.4byte	.LASF675
 9447 3261 32       		.byte	0x32
 9448 3262 2501     		.2byte	0x125
 9449 3264 ED300000 		.4byte	0x30ed
 9450 3268 2A       		.uleb128 0x2a
 9451 3269 07       		.byte	0x7
 9452 326a 01       		.byte	0x1
 9453 326b 6C000000 		.4byte	0x6c
 9454 326f 33       		.byte	0x33
 9455 3270 46       		.byte	0x46
 9456 3271 94320000 		.4byte	0x3294
 9457 3275 23       		.uleb128 0x23
 9458 3276 07070000 		.4byte	.LASF676
 9459 327a 00       		.byte	0
 9460 327b 23       		.uleb128 0x23
 9461 327c DE020000 		.4byte	.LASF677
 9462 3280 01       		.byte	0x1
 9463 3281 23       		.uleb128 0x23
 9464 3282 CA230000 		.4byte	.LASF678
 9465 3286 02       		.byte	0x2
 9466 3287 23       		.uleb128 0x23
 9467 3288 980E0000 		.4byte	.LASF679
 9468 328c 03       		.byte	0x3
 9469 328d 23       		.uleb128 0x23
 9470 328e A9140000 		.4byte	.LASF680
 9471 3292 04       		.byte	0x4
 9472 3293 00       		.byte	0
 9473 3294 04       		.uleb128 0x4
 9474 3295 670E0000 		.4byte	.LASF681
 9475 3299 33       		.byte	0x33
 9476 329a 4C       		.byte	0x4c
ARM GAS  /var/folders/qd/4mxf5pkd0zdf0b9dd1hp39180000gn/T//ccsf5yWP.s 			page 168


 9477 329b 68320000 		.4byte	0x3268
 9478 329f 07       		.uleb128 0x7
 9479 32a0 05230000 		.4byte	.LASF682
 9480 32a4 34       		.byte	0x34
 9481 32a5 9601     		.2byte	0x196
 9482 32a7 AB320000 		.4byte	0x32ab
 9483 32ab 1B       		.uleb128 0x1b
 9484 32ac 05230000 		.4byte	.LASF682
 9485 32b0 34       		.byte	0x34
 9486 32b1 34       		.byte	0x34
 9487 32b2 BA01     		.2byte	0x1ba
 9488 32b4 2E330000 		.4byte	0x332e
 9489 32b8 18       		.uleb128 0x18
 9490 32b9 39170000 		.4byte	.LASF467
 9491 32bd 34       		.byte	0x34
 9492 32be BE01     		.2byte	0x1be
 9493 32c0 94320000 		.4byte	0x3294
 9494 32c4 00       		.byte	0
 9495 32c5 18       		.uleb128 0x18
 9496 32c6 0D1D0000 		.4byte	.LASF468
 9497 32ca 34       		.byte	0x34
 9498 32cb C201     		.2byte	0x1c2
 9499 32cd A0330000 		.4byte	0x33a0
 9500 32d1 04       		.byte	0x4
 9501 32d2 18       		.uleb128 0x18
 9502 32d3 F1060000 		.4byte	.LASF472
 9503 32d7 34       		.byte	0x34
 9504 32d8 C701     		.2byte	0x1c7
 9505 32da AF0C0000 		.4byte	0xcaf
 9506 32de 08       		.byte	0x8
 9507 32df 18       		.uleb128 0x18
 9508 32e0 E40C0000 		.4byte	.LASF473
 9509 32e4 34       		.byte	0x34
 9510 32e5 CD01     		.2byte	0x1cd
 9511 32e7 6B1B0000 		.4byte	0x1b6b
 9512 32eb 0C       		.byte	0xc
 9513 32ec 25       		.uleb128 0x25
 9514 32ed 73706900 		.ascii	"spi\000"
 9515 32f1 34       		.byte	0x34
 9516 32f2 D601     		.2byte	0x1d6
 9517 32f4 8F2D0000 		.4byte	0x2d8f
 9518 32f8 20       		.byte	0x20
 9519 32f9 18       		.uleb128 0x18
 9520 32fa 12010000 		.4byte	.LASF603
 9521 32fe 34       		.byte	0x34
 9522 32ff DA01     		.2byte	0x1da
 9523 3301 63230000 		.4byte	0x2363
 9524 3305 24       		.byte	0x24
 9525 3306 18       		.uleb128 0x18
 9526 3307 E9010000 		.4byte	.LASF604
 9527 330b 34       		.byte	0x34
 9528 330c DE01     		.2byte	0x1de
 9529 330e 63230000 		.4byte	0x2363
 9530 3312 28       		.byte	0x28
 9531 3313 18       		.uleb128 0x18
 9532 3314 52080000 		.4byte	.LASF601
 9533 3318 34       		.byte	0x34
ARM GAS  /var/folders/qd/4mxf5pkd0zdf0b9dd1hp39180000gn/T//ccsf5yWP.s 			page 169


 9534 3319 E201     		.2byte	0x1e2
 9535 331b D20A0000 		.4byte	0xad2
 9536 331f 2C       		.byte	0x2c
 9537 3320 18       		.uleb128 0x18
 9538 3321 AB080000 		.4byte	.LASF602
 9539 3325 34       		.byte	0x34
 9540 3326 E601     		.2byte	0x1e6
 9541 3328 D20A0000 		.4byte	0xad2
 9542 332c 30       		.byte	0x30
 9543 332d 00       		.byte	0
 9544 332e 07       		.uleb128 0x7
 9545 332f A2160000 		.4byte	.LASF683
 9546 3333 34       		.byte	0x34
 9547 3334 9E01     		.2byte	0x19e
 9548 3336 3A330000 		.4byte	0x333a
 9549 333a 05       		.uleb128 0x5
 9550 333b 04       		.byte	0x4
 9551 333c 40330000 		.4byte	0x3340
 9552 3340 1F       		.uleb128 0x1f
 9553 3341 4B330000 		.4byte	0x334b
 9554 3345 16       		.uleb128 0x16
 9555 3346 4B330000 		.4byte	0x334b
 9556 334a 00       		.byte	0
 9557 334b 05       		.uleb128 0x5
 9558 334c 04       		.byte	0x4
 9559 334d 9F320000 		.4byte	0x329f
 9560 3351 1C       		.uleb128 0x1c
 9561 3352 0C       		.byte	0xc
 9562 3353 34       		.byte	0x34
 9563 3354 A301     		.2byte	0x1a3
 9564 3356 8F330000 		.4byte	0x338f
 9565 335a 18       		.uleb128 0x18
 9566 335b 3E090000 		.4byte	.LASF480
 9567 335f 34       		.byte	0x34
 9568 3360 A701     		.2byte	0x1a7
 9569 3362 2E330000 		.4byte	0x332e
 9570 3366 00       		.byte	0
 9571 3367 18       		.uleb128 0x18
 9572 3368 87240000 		.4byte	.LASF684
 9573 336c 34       		.byte	0x34
 9574 336d AC01     		.2byte	0x1ac
 9575 336f F4200000 		.4byte	0x20f4
 9576 3373 04       		.byte	0x4
 9577 3374 18       		.uleb128 0x18
 9578 3375 A5080000 		.4byte	.LASF685
 9579 3379 34       		.byte	0x34
 9580 337a B001     		.2byte	0x1b0
 9581 337c B70A0000 		.4byte	0xab7
 9582 3380 08       		.byte	0x8
 9583 3381 25       		.uleb128 0x25
 9584 3382 63723100 		.ascii	"cr1\000"
 9585 3386 34       		.byte	0x34
 9586 3387 B401     		.2byte	0x1b4
 9587 3389 B70A0000 		.4byte	0xab7
 9588 338d 0A       		.byte	0xa
 9589 338e 00       		.byte	0
 9590 338f 07       		.uleb128 0x7
ARM GAS  /var/folders/qd/4mxf5pkd0zdf0b9dd1hp39180000gn/T//ccsf5yWP.s 			page 170


 9591 3390 9F210000 		.4byte	.LASF686
 9592 3394 34       		.byte	0x34
 9593 3395 B501     		.2byte	0x1b5
 9594 3397 51330000 		.4byte	0x3351
 9595 339b 0F       		.uleb128 0xf
 9596 339c 8F330000 		.4byte	0x338f
 9597 33a0 05       		.uleb128 0x5
 9598 33a1 04       		.byte	0x4
 9599 33a2 9B330000 		.4byte	0x339b
 9600 33a6 20       		.uleb128 0x20
 9601 33a7 9B200000 		.4byte	.LASF687
 9602 33ab 34       		.byte	0x34
 9603 33ac F201     		.2byte	0x1f2
 9604 33ae 9F320000 		.4byte	0x329f
 9605 33b2 04       		.uleb128 0x4
 9606 33b3 89120000 		.4byte	.LASF688
 9607 33b7 35       		.byte	0x35
 9608 33b8 FA       		.byte	0xfa
 9609 33b9 BD330000 		.4byte	0x33bd
 9610 33bd 17       		.uleb128 0x17
 9611 33be 89120000 		.4byte	.LASF688
 9612 33c2 6002     		.2byte	0x260
 9613 33c4 36       		.byte	0x36
 9614 33c5 7701     		.2byte	0x177
 9615 33c7 E9340000 		.4byte	0x34e9
 9616 33cb 18       		.uleb128 0x18
 9617 33cc 39170000 		.4byte	.LASF467
 9618 33d0 36       		.byte	0x36
 9619 33d1 7B01     		.2byte	0x17b
 9620 33d3 21350000 		.4byte	0x3521
 9621 33d7 00       		.byte	0
 9622 33d8 18       		.uleb128 0x18
 9623 33d9 0D1D0000 		.4byte	.LASF468
 9624 33dd 36       		.byte	0x36
 9625 33de 7F01     		.2byte	0x17f
 9626 33e0 443E0000 		.4byte	0x3e44
 9627 33e4 04       		.byte	0x4
 9628 33e5 18       		.uleb128 0x18
 9629 33e6 DB210000 		.4byte	.LASF689
 9630 33ea 36       		.byte	0x36
 9631 33eb 8301     		.2byte	0x183
 9632 33ed B70A0000 		.4byte	0xab7
 9633 33f1 08       		.byte	0x8
 9634 33f2 18       		.uleb128 0x18
 9635 33f3 AE240000 		.4byte	.LASF690
 9636 33f7 36       		.byte	0x36
 9637 33f8 8701     		.2byte	0x187
 9638 33fa B70A0000 		.4byte	0xab7
 9639 33fe 0A       		.byte	0xa
 9640 33ff 25       		.uleb128 0x25
 9641 3400 65706300 		.ascii	"epc\000"
 9642 3404 36       		.byte	0x36
 9643 3405 8B01     		.2byte	0x18b
 9644 3407 4A3E0000 		.4byte	0x3e4a
 9645 340b 0C       		.byte	0xc
 9646 340c 18       		.uleb128 0x18
 9647 340d 37070000 		.4byte	.LASF691
ARM GAS  /var/folders/qd/4mxf5pkd0zdf0b9dd1hp39180000gn/T//ccsf5yWP.s 			page 171


 9648 3411 36       		.byte	0x36
 9649 3412 9201     		.2byte	0x192
 9650 3414 603E0000 		.4byte	0x3e60
 9651 3418 1C       		.byte	0x1c
 9652 3419 18       		.uleb128 0x18
 9653 341a 5F0C0000 		.4byte	.LASF692
 9654 341e 36       		.byte	0x36
 9655 341f 9901     		.2byte	0x199
 9656 3421 603E0000 		.4byte	0x3e60
 9657 3425 28       		.byte	0x28
 9658 3426 18       		.uleb128 0x18
 9659 3427 0F110000 		.4byte	.LASF693
 9660 342b 36       		.byte	0x36
 9661 342c 9D01     		.2byte	0x19d
 9662 342e 66350000 		.4byte	0x3566
 9663 3432 34       		.byte	0x34
 9664 3433 18       		.uleb128 0x18
 9665 3434 8E1C0000 		.4byte	.LASF694
 9666 3438 36       		.byte	0x36
 9667 3439 A101     		.2byte	0x1a1
 9668 343b 941C0000 		.4byte	0x1c94
 9669 343f 38       		.byte	0x38
 9670 3440 18       		.uleb128 0x18
 9671 3441 CC180000 		.4byte	.LASF695
 9672 3445 36       		.byte	0x36
 9673 3446 A501     		.2byte	0x1a5
 9674 3448 3A000000 		.4byte	0x3a
 9675 344c 3C       		.byte	0x3c
 9676 344d 18       		.uleb128 0x18
 9677 344e EB1E0000 		.4byte	.LASF696
 9678 3452 36       		.byte	0x36
 9679 3453 A901     		.2byte	0x1a9
 9680 3455 E6350000 		.4byte	0x35e6
 9681 3459 40       		.byte	0x40
 9682 345a 18       		.uleb128 0x18
 9683 345b 01070000 		.4byte	.LASF697
 9684 345f 36       		.byte	0x36
 9685 3460 AD01     		.2byte	0x1ad
 9686 3462 C4230000 		.4byte	0x23c4
 9687 3466 44       		.byte	0x44
 9688 3467 18       		.uleb128 0x18
 9689 3468 6D160000 		.4byte	.LASF698
 9690 346c 36       		.byte	0x36
 9691 346d B101     		.2byte	0x1b1
 9692 346f B70A0000 		.4byte	0xab7
 9693 3473 4C       		.byte	0x4c
 9694 3474 18       		.uleb128 0x18
 9695 3475 BA160000 		.4byte	.LASF699
 9696 3479 36       		.byte	0x36
 9697 347a B501     		.2byte	0x1b5
 9698 347c 9C0A0000 		.4byte	0xa9c
 9699 3480 4E       		.byte	0x4e
 9700 3481 18       		.uleb128 0x18
 9701 3482 8F1B0000 		.4byte	.LASF700
 9702 3486 36       		.byte	0x36
 9703 3487 B901     		.2byte	0x1b9
 9704 3489 9C0A0000 		.4byte	0xa9c
ARM GAS  /var/folders/qd/4mxf5pkd0zdf0b9dd1hp39180000gn/T//ccsf5yWP.s 			page 172


 9705 348d 4F       		.byte	0x4f
 9706 348e 25       		.uleb128 0x25
 9707 348f 6F746700 		.ascii	"otg\000"
 9708 3493 36       		.byte	0x36
 9709 3494 C101     		.2byte	0x1c1
 9710 3496 703E0000 		.4byte	0x3e70
 9711 349a 50       		.byte	0x50
 9712 349b 18       		.uleb128 0x18
 9713 349c 1A0E0000 		.4byte	.LASF701
 9714 34a0 36       		.byte	0x36
 9715 34a1 C501     		.2byte	0x1c5
 9716 34a3 763E0000 		.4byte	0x3e76
 9717 34a7 54       		.byte	0x54
 9718 34a8 18       		.uleb128 0x18
 9719 34a9 3E200000 		.4byte	.LASF702
 9720 34ad 36       		.byte	0x36
 9721 34ae C901     		.2byte	0x1c9
 9722 34b0 D20A0000 		.4byte	0xad2
 9723 34b4 58       		.byte	0x58
 9724 34b5 18       		.uleb128 0x18
 9725 34b6 0E0D0000 		.4byte	.LASF703
 9726 34ba 36       		.byte	0x36
 9727 34bb CD01     		.2byte	0x1cd
 9728 34bd D20A0000 		.4byte	0xad2
 9729 34c1 5C       		.byte	0x5c
 9730 34c2 18       		.uleb128 0x18
 9731 34c3 0C080000 		.4byte	.LASF704
 9732 34c7 36       		.byte	0x36
 9733 34c8 D101     		.2byte	0x1d1
 9734 34ca AF0C0000 		.4byte	0xcaf
 9735 34ce 60       		.byte	0x60
 9736 34cf 25       		.uleb128 0x25
 9737 34d0 747200   		.ascii	"tr\000"
 9738 34d3 36       		.byte	0x36
 9739 34d4 D601     		.2byte	0x1d6
 9740 34d6 AF0C0000 		.4byte	0xcaf
 9741 34da 64       		.byte	0x64
 9742 34db 18       		.uleb128 0x18
 9743 34dc 58150000 		.4byte	.LASF705
 9744 34e0 36       		.byte	0x36
 9745 34e1 DA01     		.2byte	0x1da
 9746 34e3 7C3E0000 		.4byte	0x3e7c
 9747 34e7 68       		.byte	0x68
 9748 34e8 00       		.byte	0
 9749 34e9 04       		.uleb128 0x4
 9750 34ea D6090000 		.4byte	.LASF706
 9751 34ee 35       		.byte	0x35
 9752 34ef FF       		.byte	0xff
 9753 34f0 9C0A0000 		.4byte	0xa9c
 9754 34f4 2C       		.uleb128 0x2c
 9755 34f5 07       		.byte	0x7
 9756 34f6 01       		.byte	0x1
 9757 34f7 6C000000 		.4byte	0x6c
 9758 34fb 35       		.byte	0x35
 9759 34fc 0401     		.2byte	0x104
 9760 34fe 21350000 		.4byte	0x3521
 9761 3502 23       		.uleb128 0x23
ARM GAS  /var/folders/qd/4mxf5pkd0zdf0b9dd1hp39180000gn/T//ccsf5yWP.s 			page 173


 9762 3503 52250000 		.4byte	.LASF707
 9763 3507 00       		.byte	0
 9764 3508 23       		.uleb128 0x23
 9765 3509 00000000 		.4byte	.LASF708
 9766 350d 01       		.byte	0x1
 9767 350e 23       		.uleb128 0x23
 9768 350f 74140000 		.4byte	.LASF709
 9769 3513 02       		.byte	0x2
 9770 3514 23       		.uleb128 0x23
 9771 3515 321A0000 		.4byte	.LASF710
 9772 3519 03       		.byte	0x3
 9773 351a 23       		.uleb128 0x23
 9774 351b 24080000 		.4byte	.LASF711
 9775 351f 04       		.byte	0x4
 9776 3520 00       		.byte	0
 9777 3521 07       		.uleb128 0x7
 9778 3522 99260000 		.4byte	.LASF712
 9779 3526 35       		.byte	0x35
 9780 3527 0A01     		.2byte	0x10a
 9781 3529 F4340000 		.4byte	0x34f4
 9782 352d 2C       		.uleb128 0x2c
 9783 352e 07       		.byte	0x7
 9784 352f 01       		.byte	0x1
 9785 3530 6C000000 		.4byte	0x6c
 9786 3534 35       		.byte	0x35
 9787 3535 1801     		.2byte	0x118
 9788 3537 66350000 		.4byte	0x3566
 9789 353b 23       		.uleb128 0x23
 9790 353c B61E0000 		.4byte	.LASF713
 9791 3540 00       		.byte	0
 9792 3541 23       		.uleb128 0x23
 9793 3542 04110000 		.4byte	.LASF714
 9794 3546 01       		.byte	0x1
 9795 3547 23       		.uleb128 0x23
 9796 3548 7A1C0000 		.4byte	.LASF715
 9797 354c 02       		.byte	0x2
 9798 354d 23       		.uleb128 0x23
 9799 354e 5E170000 		.4byte	.LASF716
 9800 3552 03       		.byte	0x3
 9801 3553 23       		.uleb128 0x23
 9802 3554 43160000 		.4byte	.LASF717
 9803 3558 04       		.byte	0x4
 9804 3559 23       		.uleb128 0x23
 9805 355a F0110000 		.4byte	.LASF718
 9806 355e 05       		.byte	0x5
 9807 355f 23       		.uleb128 0x23
 9808 3560 170F0000 		.4byte	.LASF719
 9809 3564 06       		.byte	0x6
 9810 3565 00       		.byte	0
 9811 3566 07       		.uleb128 0x7
 9812 3567 2E120000 		.4byte	.LASF720
 9813 356b 35       		.byte	0x35
 9814 356c 2001     		.2byte	0x120
 9815 356e 2D350000 		.4byte	0x352d
 9816 3572 2C       		.uleb128 0x2c
 9817 3573 07       		.byte	0x7
 9818 3574 01       		.byte	0x1
ARM GAS  /var/folders/qd/4mxf5pkd0zdf0b9dd1hp39180000gn/T//ccsf5yWP.s 			page 174


 9819 3575 6C000000 		.4byte	0x6c
 9820 3579 35       		.byte	0x35
 9821 357a 2501     		.2byte	0x125
 9822 357c A5350000 		.4byte	0x35a5
 9823 3580 23       		.uleb128 0x23
 9824 3581 481E0000 		.4byte	.LASF721
 9825 3585 00       		.byte	0
 9826 3586 23       		.uleb128 0x23
 9827 3587 951A0000 		.4byte	.LASF722
 9828 358b 01       		.byte	0x1
 9829 358c 23       		.uleb128 0x23
 9830 358d FD140000 		.4byte	.LASF723
 9831 3591 02       		.byte	0x2
 9832 3592 23       		.uleb128 0x23
 9833 3593 A4150000 		.4byte	.LASF724
 9834 3597 03       		.byte	0x3
 9835 3598 23       		.uleb128 0x23
 9836 3599 12240000 		.4byte	.LASF725
 9837 359d 04       		.byte	0x4
 9838 359e 23       		.uleb128 0x23
 9839 359f D3140000 		.4byte	.LASF726
 9840 35a3 05       		.byte	0x5
 9841 35a4 00       		.byte	0
 9842 35a5 07       		.uleb128 0x7
 9843 35a6 D21A0000 		.4byte	.LASF727
 9844 35aa 35       		.byte	0x35
 9845 35ab 2C01     		.2byte	0x12c
 9846 35ad 72350000 		.4byte	0x3572
 9847 35b1 1C       		.uleb128 0x1c
 9848 35b2 08       		.byte	0x8
 9849 35b3 35       		.byte	0x35
 9850 35b4 3101     		.2byte	0x131
 9851 35b6 D5350000 		.4byte	0x35d5
 9852 35ba 18       		.uleb128 0x18
 9853 35bb 33260000 		.4byte	.LASF728
 9854 35bf 35       		.byte	0x35
 9855 35c0 3501     		.2byte	0x135
 9856 35c2 3A000000 		.4byte	0x3a
 9857 35c6 00       		.byte	0
 9858 35c7 18       		.uleb128 0x18
 9859 35c8 91040000 		.4byte	.LASF729
 9860 35cc 35       		.byte	0x35
 9861 35cd 3901     		.2byte	0x139
 9862 35cf C91C0000 		.4byte	0x1cc9
 9863 35d3 04       		.byte	0x4
 9864 35d4 00       		.byte	0
 9865 35d5 07       		.uleb128 0x7
 9866 35d6 8E160000 		.4byte	.LASF730
 9867 35da 35       		.byte	0x35
 9868 35db 3A01     		.2byte	0x13a
 9869 35dd B1350000 		.4byte	0x35b1
 9870 35e1 0F       		.uleb128 0xf
 9871 35e2 D5350000 		.4byte	0x35d5
 9872 35e6 07       		.uleb128 0x7
 9873 35e7 C2250000 		.4byte	.LASF731
 9874 35eb 35       		.byte	0x35
 9875 35ec 4201     		.2byte	0x142
ARM GAS  /var/folders/qd/4mxf5pkd0zdf0b9dd1hp39180000gn/T//ccsf5yWP.s 			page 175


 9876 35ee F2350000 		.4byte	0x35f2
 9877 35f2 05       		.uleb128 0x5
 9878 35f3 04       		.byte	0x4
 9879 35f4 F8350000 		.4byte	0x35f8
 9880 35f8 1F       		.uleb128 0x1f
 9881 35f9 03360000 		.4byte	0x3603
 9882 35fd 16       		.uleb128 0x16
 9883 35fe 03360000 		.4byte	0x3603
 9884 3602 00       		.byte	0
 9885 3603 05       		.uleb128 0x5
 9886 3604 04       		.byte	0x4
 9887 3605 B2330000 		.4byte	0x33b2
 9888 3609 07       		.uleb128 0x7
 9889 360a 0F050000 		.4byte	.LASF732
 9890 360e 35       		.byte	0x35
 9891 360f 4B01     		.2byte	0x14b
 9892 3611 15360000 		.4byte	0x3615
 9893 3615 05       		.uleb128 0x5
 9894 3616 04       		.byte	0x4
 9895 3617 1B360000 		.4byte	0x361b
 9896 361b 1F       		.uleb128 0x1f
 9897 361c 2B360000 		.4byte	0x362b
 9898 3620 16       		.uleb128 0x16
 9899 3621 03360000 		.4byte	0x3603
 9900 3625 16       		.uleb128 0x16
 9901 3626 E9340000 		.4byte	0x34e9
 9902 362a 00       		.byte	0
 9903 362b 07       		.uleb128 0x7
 9904 362c F40A0000 		.4byte	.LASF733
 9905 3630 35       		.byte	0x35
 9906 3631 5401     		.2byte	0x154
 9907 3633 37360000 		.4byte	0x3637
 9908 3637 05       		.uleb128 0x5
 9909 3638 04       		.byte	0x4
 9910 3639 3D360000 		.4byte	0x363d
 9911 363d 1F       		.uleb128 0x1f
 9912 363e 4D360000 		.4byte	0x364d
 9913 3642 16       		.uleb128 0x16
 9914 3643 03360000 		.4byte	0x3603
 9915 3647 16       		.uleb128 0x16
 9916 3648 A5350000 		.4byte	0x35a5
 9917 364c 00       		.byte	0
 9918 364d 07       		.uleb128 0x7
 9919 364e 7E060000 		.4byte	.LASF734
 9920 3652 35       		.byte	0x35
 9921 3653 6001     		.2byte	0x160
 9922 3655 59360000 		.4byte	0x3659
 9923 3659 05       		.uleb128 0x5
 9924 365a 04       		.byte	0x4
 9925 365b 5F360000 		.4byte	0x365f
 9926 365f 15       		.uleb128 0x15
 9927 3660 6F0A0000 		.4byte	0xa6f
 9928 3664 6E360000 		.4byte	0x366e
 9929 3668 16       		.uleb128 0x16
 9930 3669 03360000 		.4byte	0x3603
 9931 366d 00       		.byte	0
 9932 366e 07       		.uleb128 0x7
ARM GAS  /var/folders/qd/4mxf5pkd0zdf0b9dd1hp39180000gn/T//ccsf5yWP.s 			page 176


 9933 366f 830F0000 		.4byte	.LASF735
 9934 3673 35       		.byte	0x35
 9935 3674 6501     		.2byte	0x165
 9936 3676 7A360000 		.4byte	0x367a
 9937 367a 05       		.uleb128 0x5
 9938 367b 04       		.byte	0x4
 9939 367c 80360000 		.4byte	0x3680
 9940 3680 15       		.uleb128 0x15
 9941 3681 9E360000 		.4byte	0x369e
 9942 3685 9E360000 		.4byte	0x369e
 9943 3689 16       		.uleb128 0x16
 9944 368a 03360000 		.4byte	0x3603
 9945 368e 16       		.uleb128 0x16
 9946 368f 9C0A0000 		.4byte	0xa9c
 9947 3693 16       		.uleb128 0x16
 9948 3694 9C0A0000 		.4byte	0xa9c
 9949 3698 16       		.uleb128 0x16
 9950 3699 B70A0000 		.4byte	0xab7
 9951 369d 00       		.byte	0
 9952 369e 05       		.uleb128 0x5
 9953 369f 04       		.byte	0x4
 9954 36a0 E1350000 		.4byte	0x35e1
 9955 36a4 0C       		.uleb128 0xc
 9956 36a5 20       		.byte	0x20
 9957 36a6 37       		.byte	0x37
 9958 36a7 35       		.byte	0x35
 9959 36a8 0D370000 		.4byte	0x370d
 9960 36ac 0D       		.uleb128 0xd
 9961 36ad 2E030000 		.4byte	.LASF736
 9962 36b1 37       		.byte	0x37
 9963 36b2 36       		.byte	0x36
 9964 36b3 DD0A0000 		.4byte	0xadd
 9965 36b7 00       		.byte	0
 9966 36b8 0D       		.uleb128 0xd
 9967 36b9 770D0000 		.4byte	.LASF737
 9968 36bd 37       		.byte	0x37
 9969 36be 38       		.byte	0x38
 9970 36bf DD0A0000 		.4byte	0xadd
 9971 36c3 04       		.byte	0x4
 9972 36c4 0D       		.uleb128 0xd
 9973 36c5 A3020000 		.4byte	.LASF738
 9974 36c9 37       		.byte	0x37
 9975 36ca 39       		.byte	0x39
 9976 36cb DD0A0000 		.4byte	0xadd
 9977 36cf 08       		.byte	0x8
 9978 36d0 0D       		.uleb128 0xd
 9979 36d1 FE1C0000 		.4byte	.LASF739
 9980 36d5 37       		.byte	0x37
 9981 36d6 3A       		.byte	0x3a
 9982 36d7 DD0A0000 		.4byte	0xadd
 9983 36db 0C       		.byte	0xc
 9984 36dc 0D       		.uleb128 0xd
 9985 36dd F6140000 		.4byte	.LASF740
 9986 36e1 37       		.byte	0x37
 9987 36e2 3C       		.byte	0x3c
 9988 36e3 DD0A0000 		.4byte	0xadd
 9989 36e7 10       		.byte	0x10
ARM GAS  /var/folders/qd/4mxf5pkd0zdf0b9dd1hp39180000gn/T//ccsf5yWP.s 			page 177


 9990 36e8 0D       		.uleb128 0xd
 9991 36e9 AD0D0000 		.4byte	.LASF741
 9992 36ed 37       		.byte	0x37
 9993 36ee 3E       		.byte	0x3e
 9994 36ef DD0A0000 		.4byte	0xadd
 9995 36f3 14       		.byte	0x14
 9996 36f4 0D       		.uleb128 0xd
 9997 36f5 C00D0000 		.4byte	.LASF742
 9998 36f9 37       		.byte	0x37
 9999 36fa 3F       		.byte	0x3f
 10000 36fb DD0A0000 		.4byte	0xadd
 10001 36ff 18       		.byte	0x18
 10002 3700 0D       		.uleb128 0xd
 10003 3701 D8030000 		.4byte	.LASF743
 10004 3705 37       		.byte	0x37
 10005 3706 40       		.byte	0x40
 10006 3707 DD0A0000 		.4byte	0xadd
 10007 370b 1C       		.byte	0x1c
 10008 370c 00       		.byte	0
 10009 370d 04       		.uleb128 0x4
 10010 370e 961C0000 		.4byte	.LASF744
 10011 3712 37       		.byte	0x37
 10012 3713 41       		.byte	0x41
 10013 3714 A4360000 		.4byte	0x36a4
 10014 3718 0C       		.uleb128 0xc
 10015 3719 20       		.byte	0x20
 10016 371a 37       		.byte	0x37
 10017 371b 46       		.byte	0x46
 10018 371c 81370000 		.4byte	0x3781
 10019 3720 0D       		.uleb128 0xd
 10020 3721 080E0000 		.4byte	.LASF745
 10021 3725 37       		.byte	0x37
 10022 3726 47       		.byte	0x47
 10023 3727 DD0A0000 		.4byte	0xadd
 10024 372b 00       		.byte	0
 10025 372c 0D       		.uleb128 0xd
 10026 372d 82120000 		.4byte	.LASF746
 10027 3731 37       		.byte	0x37
 10028 3732 49       		.byte	0x49
 10029 3733 DD0A0000 		.4byte	0xadd
 10030 3737 04       		.byte	0x4
 10031 3738 0D       		.uleb128 0xd
 10032 3739 D4200000 		.4byte	.LASF747
 10033 373d 37       		.byte	0x37
 10034 373e 4A       		.byte	0x4a
 10035 373f DD0A0000 		.4byte	0xadd
 10036 3743 08       		.byte	0x8
 10037 3744 0D       		.uleb128 0xd
 10038 3745 A6120000 		.4byte	.LASF748
 10039 3749 37       		.byte	0x37
 10040 374a 4C       		.byte	0x4c
 10041 374b DD0A0000 		.4byte	0xadd
 10042 374f 0C       		.byte	0xc
 10043 3750 0D       		.uleb128 0xd
 10044 3751 4F180000 		.4byte	.LASF749
 10045 3755 37       		.byte	0x37
 10046 3756 4D       		.byte	0x4d
ARM GAS  /var/folders/qd/4mxf5pkd0zdf0b9dd1hp39180000gn/T//ccsf5yWP.s 			page 178


 10047 3757 DD0A0000 		.4byte	0xadd
 10048 375b 10       		.byte	0x10
 10049 375c 0D       		.uleb128 0xd
 10050 375d AD0D0000 		.4byte	.LASF741
 10051 3761 37       		.byte	0x37
 10052 3762 4F       		.byte	0x4f
 10053 3763 DD0A0000 		.4byte	0xadd
 10054 3767 14       		.byte	0x14
 10055 3768 0D       		.uleb128 0xd
 10056 3769 12070000 		.4byte	.LASF750
 10057 376d 37       		.byte	0x37
 10058 376e 50       		.byte	0x50
 10059 376f DD0A0000 		.4byte	0xadd
 10060 3773 18       		.byte	0x18
 10061 3774 0D       		.uleb128 0xd
 10062 3775 BD200000 		.4byte	.LASF751
 10063 3779 37       		.byte	0x37
 10064 377a 52       		.byte	0x52
 10065 377b DD0A0000 		.4byte	0xadd
 10066 377f 1C       		.byte	0x1c
 10067 3780 00       		.byte	0
 10068 3781 04       		.uleb128 0x4
 10069 3782 2F080000 		.4byte	.LASF752
 10070 3786 37       		.byte	0x37
 10071 3787 53       		.byte	0x53
 10072 3788 18370000 		.4byte	0x3718
 10073 378c 0C       		.uleb128 0xc
 10074 378d 20       		.byte	0x20
 10075 378e 37       		.byte	0x37
 10076 378f 58       		.byte	0x58
 10077 3790 F5370000 		.4byte	0x37f5
 10078 3794 0D       		.uleb128 0xd
 10079 3795 DF150000 		.4byte	.LASF753
 10080 3799 37       		.byte	0x37
 10081 379a 59       		.byte	0x59
 10082 379b DD0A0000 		.4byte	0xadd
 10083 379f 00       		.byte	0
 10084 37a0 0D       		.uleb128 0xd
 10085 37a1 82120000 		.4byte	.LASF746
 10086 37a5 37       		.byte	0x37
 10087 37a6 5B       		.byte	0x5b
 10088 37a7 DD0A0000 		.4byte	0xadd
 10089 37ab 04       		.byte	0x4
 10090 37ac 0D       		.uleb128 0xd
 10091 37ad 96190000 		.4byte	.LASF754
 10092 37b1 37       		.byte	0x37
 10093 37b2 5C       		.byte	0x5c
 10094 37b3 DD0A0000 		.4byte	0xadd
 10095 37b7 08       		.byte	0x8
 10096 37b8 0D       		.uleb128 0xd
 10097 37b9 A6120000 		.4byte	.LASF748
 10098 37bd 37       		.byte	0x37
 10099 37be 5E       		.byte	0x5e
 10100 37bf DD0A0000 		.4byte	0xadd
 10101 37c3 0C       		.byte	0xc
 10102 37c4 0D       		.uleb128 0xd
 10103 37c5 5A220000 		.4byte	.LASF755
ARM GAS  /var/folders/qd/4mxf5pkd0zdf0b9dd1hp39180000gn/T//ccsf5yWP.s 			page 179


 10104 37c9 37       		.byte	0x37
 10105 37ca 5F       		.byte	0x5f
 10106 37cb DD0A0000 		.4byte	0xadd
 10107 37cf 10       		.byte	0x10
 10108 37d0 0D       		.uleb128 0xd
 10109 37d1 AD0D0000 		.4byte	.LASF741
 10110 37d5 37       		.byte	0x37
 10111 37d6 61       		.byte	0x61
 10112 37d7 DD0A0000 		.4byte	0xadd
 10113 37db 14       		.byte	0x14
 10114 37dc 0D       		.uleb128 0xd
 10115 37dd C00D0000 		.4byte	.LASF742
 10116 37e1 37       		.byte	0x37
 10117 37e2 62       		.byte	0x62
 10118 37e3 DD0A0000 		.4byte	0xadd
 10119 37e7 18       		.byte	0x18
 10120 37e8 0D       		.uleb128 0xd
 10121 37e9 BD200000 		.4byte	.LASF751
 10122 37ed 37       		.byte	0x37
 10123 37ee 63       		.byte	0x63
 10124 37ef DD0A0000 		.4byte	0xadd
 10125 37f3 1C       		.byte	0x1c
 10126 37f4 00       		.byte	0
 10127 37f5 04       		.uleb128 0x4
 10128 37f6 D3070000 		.4byte	.LASF756
 10129 37fa 37       		.byte	0x37
 10130 37fb 64       		.byte	0x64
 10131 37fc 8C370000 		.4byte	0x378c
 10132 3800 2E       		.uleb128 0x2e
 10133 3801 00100100 		.4byte	0x11000
 10134 3805 37       		.byte	0x37
 10135 3806 69       		.byte	0x69
 10136 3807 DD3A0000 		.4byte	0x3add
 10137 380b 0D       		.uleb128 0xd
 10138 380c E3040000 		.4byte	.LASF757
 10139 3810 37       		.byte	0x37
 10140 3811 6A       		.byte	0x6a
 10141 3812 DD0A0000 		.4byte	0xadd
 10142 3816 00       		.byte	0
 10143 3817 0D       		.uleb128 0xd
 10144 3818 470C0000 		.4byte	.LASF758
 10145 381c 37       		.byte	0x37
 10146 381d 6B       		.byte	0x6b
 10147 381e DD0A0000 		.4byte	0xadd
 10148 3822 04       		.byte	0x4
 10149 3823 0D       		.uleb128 0xd
 10150 3824 5C070000 		.4byte	.LASF759
 10151 3828 37       		.byte	0x37
 10152 3829 6C       		.byte	0x6c
 10153 382a DD0A0000 		.4byte	0xadd
 10154 382e 08       		.byte	0x8
 10155 382f 0D       		.uleb128 0xd
 10156 3830 DB250000 		.4byte	.LASF760
 10157 3834 37       		.byte	0x37
 10158 3835 6D       		.byte	0x6d
 10159 3836 DD0A0000 		.4byte	0xadd
 10160 383a 0C       		.byte	0xc
ARM GAS  /var/folders/qd/4mxf5pkd0zdf0b9dd1hp39180000gn/T//ccsf5yWP.s 			page 180


 10161 383b 0D       		.uleb128 0xd
 10162 383c 84140000 		.4byte	.LASF761
 10163 3840 37       		.byte	0x37
 10164 3841 6E       		.byte	0x6e
 10165 3842 DD0A0000 		.4byte	0xadd
 10166 3846 10       		.byte	0x10
 10167 3847 0D       		.uleb128 0xd
 10168 3848 98030000 		.4byte	.LASF762
 10169 384c 37       		.byte	0x37
 10170 384d 6F       		.byte	0x6f
 10171 384e DD0A0000 		.4byte	0xadd
 10172 3852 14       		.byte	0x14
 10173 3853 0D       		.uleb128 0xd
 10174 3854 7E1B0000 		.4byte	.LASF763
 10175 3858 37       		.byte	0x37
 10176 3859 70       		.byte	0x70
 10177 385a DD0A0000 		.4byte	0xadd
 10178 385e 18       		.byte	0x18
 10179 385f 0D       		.uleb128 0xd
 10180 3860 EE070000 		.4byte	.LASF764
 10181 3864 37       		.byte	0x37
 10182 3865 71       		.byte	0x71
 10183 3866 DD0A0000 		.4byte	0xadd
 10184 386a 1C       		.byte	0x1c
 10185 386b 0D       		.uleb128 0xd
 10186 386c E6070000 		.4byte	.LASF765
 10187 3870 37       		.byte	0x37
 10188 3871 73       		.byte	0x73
 10189 3872 DD0A0000 		.4byte	0xadd
 10190 3876 20       		.byte	0x20
 10191 3877 0D       		.uleb128 0xd
 10192 3878 2D1B0000 		.4byte	.LASF766
 10193 387c 37       		.byte	0x37
 10194 387d 75       		.byte	0x75
 10195 387e DD0A0000 		.4byte	0xadd
 10196 3882 24       		.byte	0x24
 10197 3883 0D       		.uleb128 0xd
 10198 3884 91000000 		.4byte	.LASF767
 10199 3888 37       		.byte	0x37
 10200 3889 76       		.byte	0x76
 10201 388a DD0A0000 		.4byte	0xadd
 10202 388e 28       		.byte	0x28
 10203 388f 0D       		.uleb128 0xd
 10204 3890 861B0000 		.4byte	.LASF768
 10205 3894 37       		.byte	0x37
 10206 3895 78       		.byte	0x78
 10207 3896 DD0A0000 		.4byte	0xadd
 10208 389a 2C       		.byte	0x2c
 10209 389b 0D       		.uleb128 0xd
 10210 389c CB0E0000 		.4byte	.LASF769
 10211 38a0 37       		.byte	0x37
 10212 38a1 7A       		.byte	0x7a
 10213 38a2 DD0A0000 		.4byte	0xadd
 10214 38a6 30       		.byte	0x30
 10215 38a7 0D       		.uleb128 0xd
 10216 38a8 48240000 		.4byte	.LASF770
 10217 38ac 37       		.byte	0x37
ARM GAS  /var/folders/qd/4mxf5pkd0zdf0b9dd1hp39180000gn/T//ccsf5yWP.s 			page 181


 10218 38ad 7B       		.byte	0x7b
 10219 38ae DD0A0000 		.4byte	0xadd
 10220 38b2 34       		.byte	0x34
 10221 38b3 0D       		.uleb128 0xd
 10222 38b4 BE010000 		.4byte	.LASF771
 10223 38b8 37       		.byte	0x37
 10224 38b9 7C       		.byte	0x7c
 10225 38ba DD0A0000 		.4byte	0xadd
 10226 38be 38       		.byte	0x38
 10227 38bf 11       		.uleb128 0x11
 10228 38c0 43494400 		.ascii	"CID\000"
 10229 38c4 37       		.byte	0x37
 10230 38c5 7D       		.byte	0x7d
 10231 38c6 DD0A0000 		.4byte	0xadd
 10232 38ca 3C       		.byte	0x3c
 10233 38cb 0D       		.uleb128 0xd
 10234 38cc 97110000 		.4byte	.LASF772
 10235 38d0 37       		.byte	0x37
 10236 38d1 7E       		.byte	0x7e
 10237 38d2 ED3A0000 		.4byte	0x3aed
 10238 38d6 40       		.byte	0x40
 10239 38d7 13       		.uleb128 0x13
 10240 38d8 5F230000 		.4byte	.LASF773
 10241 38dc 37       		.byte	0x37
 10242 38dd 7F       		.byte	0x7f
 10243 38de DD0A0000 		.4byte	0xadd
 10244 38e2 0001     		.2byte	0x100
 10245 38e4 13       		.uleb128 0x13
 10246 38e5 21020000 		.4byte	.LASF774
 10247 38e9 37       		.byte	0x37
 10248 38ea 81       		.byte	0x81
 10249 38eb A7160000 		.4byte	0x16a7
 10250 38ef 0401     		.2byte	0x104
 10251 38f1 13       		.uleb128 0x13
 10252 38f2 77150000 		.4byte	.LASF775
 10253 38f6 37       		.byte	0x37
 10254 38f7 83       		.byte	0x83
 10255 38f8 023B0000 		.4byte	0x3b02
 10256 38fc 4001     		.2byte	0x140
 10257 38fe 13       		.uleb128 0x13
 10258 38ff 35190000 		.4byte	.LASF776
 10259 3903 37       		.byte	0x37
 10260 3904 84       		.byte	0x84
 10261 3905 DD0A0000 		.4byte	0xadd
 10262 3909 0004     		.2byte	0x400
 10263 390b 13       		.uleb128 0x13
 10264 390c 4D250000 		.4byte	.LASF777
 10265 3910 37       		.byte	0x37
 10266 3911 85       		.byte	0x85
 10267 3912 DD0A0000 		.4byte	0xadd
 10268 3916 0404     		.2byte	0x404
 10269 3918 13       		.uleb128 0x13
 10270 3919 4B040000 		.4byte	.LASF778
 10271 391d 37       		.byte	0x37
 10272 391e 86       		.byte	0x86
 10273 391f DD0A0000 		.4byte	0xadd
 10274 3923 0804     		.2byte	0x408
ARM GAS  /var/folders/qd/4mxf5pkd0zdf0b9dd1hp39180000gn/T//ccsf5yWP.s 			page 182


 10275 3925 13       		.uleb128 0x13
 10276 3926 CD220000 		.4byte	.LASF779
 10277 392a 37       		.byte	0x37
 10278 392b 88       		.byte	0x88
 10279 392c DD0A0000 		.4byte	0xadd
 10280 3930 0C04     		.2byte	0x40c
 10281 3932 13       		.uleb128 0x13
 10282 3933 FE020000 		.4byte	.LASF780
 10283 3937 37       		.byte	0x37
 10284 3938 89       		.byte	0x89
 10285 3939 DD0A0000 		.4byte	0xadd
 10286 393d 1004     		.2byte	0x410
 10287 393f 13       		.uleb128 0x13
 10288 3940 EB030000 		.4byte	.LASF781
 10289 3944 37       		.byte	0x37
 10290 3945 8B       		.byte	0x8b
 10291 3946 DD0A0000 		.4byte	0xadd
 10292 394a 1404     		.2byte	0x414
 10293 394c 13       		.uleb128 0x13
 10294 394d 560C0000 		.4byte	.LASF782
 10295 3951 37       		.byte	0x37
 10296 3952 8D       		.byte	0x8d
 10297 3953 DD0A0000 		.4byte	0xadd
 10298 3957 1804     		.2byte	0x418
 10299 3959 13       		.uleb128 0x13
 10300 395a 1E1E0000 		.4byte	.LASF783
 10301 395e 37       		.byte	0x37
 10302 395f 8F       		.byte	0x8f
 10303 3960 173B0000 		.4byte	0x3b17
 10304 3964 1C04     		.2byte	0x41c
 10305 3966 13       		.uleb128 0x13
 10306 3967 84020000 		.4byte	.LASF784
 10307 396b 37       		.byte	0x37
 10308 396c 90       		.byte	0x90
 10309 396d DD0A0000 		.4byte	0xadd
 10310 3971 4004     		.2byte	0x440
 10311 3973 13       		.uleb128 0x13
 10312 3974 E41F0000 		.4byte	.LASF785
 10313 3978 37       		.byte	0x37
 10314 3979 92       		.byte	0x92
 10315 397a 2C3B0000 		.4byte	0x3b2c
 10316 397e 4404     		.2byte	0x444
 10317 3980 2F       		.uleb128 0x2f
 10318 3981 686300   		.ascii	"hc\000"
 10319 3984 37       		.byte	0x37
 10320 3985 93       		.byte	0x93
 10321 3986 313B0000 		.4byte	0x3b31
 10322 398a 0005     		.2byte	0x500
 10323 398c 13       		.uleb128 0x13
 10324 398d 2B230000 		.4byte	.LASF786
 10325 3991 37       		.byte	0x37
 10326 3992 94       		.byte	0x94
 10327 3993 513B0000 		.4byte	0x3b51
 10328 3997 0007     		.2byte	0x700
 10329 3999 13       		.uleb128 0x13
 10330 399a 681B0000 		.4byte	.LASF787
 10331 399e 37       		.byte	0x37
ARM GAS  /var/folders/qd/4mxf5pkd0zdf0b9dd1hp39180000gn/T//ccsf5yWP.s 			page 183


 10332 399f 95       		.byte	0x95
 10333 39a0 DD0A0000 		.4byte	0xadd
 10334 39a4 0008     		.2byte	0x800
 10335 39a6 13       		.uleb128 0x13
 10336 39a7 F2230000 		.4byte	.LASF788
 10337 39ab 37       		.byte	0x37
 10338 39ac 96       		.byte	0x96
 10339 39ad DD0A0000 		.4byte	0xadd
 10340 39b1 0408     		.2byte	0x804
 10341 39b3 13       		.uleb128 0x13
 10342 39b4 C6050000 		.4byte	.LASF789
 10343 39b8 37       		.byte	0x37
 10344 39b9 97       		.byte	0x97
 10345 39ba DD0A0000 		.4byte	0xadd
 10346 39be 0808     		.2byte	0x808
 10347 39c0 13       		.uleb128 0x13
 10348 39c1 C3040000 		.4byte	.LASF790
 10349 39c5 37       		.byte	0x37
 10350 39c6 98       		.byte	0x98
 10351 39c7 DD0A0000 		.4byte	0xadd
 10352 39cb 0C08     		.2byte	0x80c
 10353 39cd 13       		.uleb128 0x13
 10354 39ce 3F0C0000 		.4byte	.LASF791
 10355 39d2 37       		.byte	0x37
 10356 39d3 99       		.byte	0x99
 10357 39d4 DD0A0000 		.4byte	0xadd
 10358 39d8 1008     		.2byte	0x810
 10359 39da 13       		.uleb128 0x13
 10360 39db 0A210000 		.4byte	.LASF792
 10361 39df 37       		.byte	0x37
 10362 39e0 9B       		.byte	0x9b
 10363 39e1 DD0A0000 		.4byte	0xadd
 10364 39e5 1408     		.2byte	0x814
 10365 39e7 13       		.uleb128 0x13
 10366 39e8 99210000 		.4byte	.LASF793
 10367 39ec 37       		.byte	0x37
 10368 39ed 9D       		.byte	0x9d
 10369 39ee DD0A0000 		.4byte	0xadd
 10370 39f2 1808     		.2byte	0x818
 10371 39f4 13       		.uleb128 0x13
 10372 39f5 9B1E0000 		.4byte	.LASF794
 10373 39f9 37       		.byte	0x37
 10374 39fa 9F       		.byte	0x9f
 10375 39fb DD0A0000 		.4byte	0xadd
 10376 39ff 1C08     		.2byte	0x81c
 10377 3a01 13       		.uleb128 0x13
 10378 3a02 2D060000 		.4byte	.LASF795
 10379 3a06 37       		.byte	0x37
 10380 3a07 A1       		.byte	0xa1
 10381 3a08 DD0A0000 		.4byte	0xadd
 10382 3a0c 2008     		.2byte	0x820
 10383 3a0e 13       		.uleb128 0x13
 10384 3a0f 3D050000 		.4byte	.LASF796
 10385 3a13 37       		.byte	0x37
 10386 3a14 A2       		.byte	0xa2
 10387 3a15 DD0A0000 		.4byte	0xadd
 10388 3a19 2408     		.2byte	0x824
ARM GAS  /var/folders/qd/4mxf5pkd0zdf0b9dd1hp39180000gn/T//ccsf5yWP.s 			page 184


 10389 3a1b 13       		.uleb128 0x13
 10390 3a1c 751B0000 		.4byte	.LASF797
 10391 3a20 37       		.byte	0x37
 10392 3a21 A3       		.byte	0xa3
 10393 3a22 DD0A0000 		.4byte	0xadd
 10394 3a26 2808     		.2byte	0x828
 10395 3a28 13       		.uleb128 0x13
 10396 3a29 E90E0000 		.4byte	.LASF798
 10397 3a2d 37       		.byte	0x37
 10398 3a2e A5       		.byte	0xa5
 10399 3a2f DD0A0000 		.4byte	0xadd
 10400 3a33 2C08     		.2byte	0x82c
 10401 3a35 13       		.uleb128 0x13
 10402 3a36 C2060000 		.4byte	.LASF799
 10403 3a3a 37       		.byte	0x37
 10404 3a3b A7       		.byte	0xa7
 10405 3a3c DD0A0000 		.4byte	0xadd
 10406 3a40 3008     		.2byte	0x830
 10407 3a42 13       		.uleb128 0x13
 10408 3a43 FD0D0000 		.4byte	.LASF800
 10409 3a47 37       		.byte	0x37
 10410 3a48 A8       		.byte	0xa8
 10411 3a49 DD0A0000 		.4byte	0xadd
 10412 3a4d 3408     		.2byte	0x834
 10413 3a4f 13       		.uleb128 0x13
 10414 3a50 D0060000 		.4byte	.LASF801
 10415 3a54 37       		.byte	0x37
 10416 3a55 AA       		.byte	0xaa
 10417 3a56 DD0A0000 		.4byte	0xadd
 10418 3a5a 3808     		.2byte	0x838
 10419 3a5c 13       		.uleb128 0x13
 10420 3a5d E8060000 		.4byte	.LASF802
 10421 3a61 37       		.byte	0x37
 10422 3a62 AB       		.byte	0xab
 10423 3a63 DD0A0000 		.4byte	0xadd
 10424 3a67 3C08     		.2byte	0x83c
 10425 3a69 13       		.uleb128 0x13
 10426 3a6a 7A070000 		.4byte	.LASF803
 10427 3a6e 37       		.byte	0x37
 10428 3a6f AC       		.byte	0xac
 10429 3a70 663B0000 		.4byte	0x3b66
 10430 3a74 4008     		.2byte	0x840
 10431 3a76 13       		.uleb128 0x13
 10432 3a77 940D0000 		.4byte	.LASF804
 10433 3a7b 37       		.byte	0x37
 10434 3a7c AD       		.byte	0xad
 10435 3a7d 663B0000 		.4byte	0x3b66
 10436 3a81 8008     		.2byte	0x880
 10437 3a83 13       		.uleb128 0x13
 10438 3a84 93120000 		.4byte	.LASF805
 10439 3a88 37       		.byte	0x37
 10440 3a89 AE       		.byte	0xae
 10441 3a8a 663B0000 		.4byte	0x3b66
 10442 3a8e C008     		.2byte	0x8c0
 10443 3a90 2F       		.uleb128 0x2f
 10444 3a91 696500   		.ascii	"ie\000"
 10445 3a94 37       		.byte	0x37
ARM GAS  /var/folders/qd/4mxf5pkd0zdf0b9dd1hp39180000gn/T//ccsf5yWP.s 			page 185


 10446 3a95 AF       		.byte	0xaf
 10447 3a96 6B3B0000 		.4byte	0x3b6b
 10448 3a9a 0009     		.2byte	0x900
 10449 3a9c 2F       		.uleb128 0x2f
 10450 3a9d 6F6500   		.ascii	"oe\000"
 10451 3aa0 37       		.byte	0x37
 10452 3aa1 B0       		.byte	0xb0
 10453 3aa2 7B3B0000 		.4byte	0x3b7b
 10454 3aa6 000B     		.2byte	0xb00
 10455 3aa8 13       		.uleb128 0x13
 10456 3aa9 5B0B0000 		.4byte	.LASF806
 10457 3aad 37       		.byte	0x37
 10458 3aae B1       		.byte	0xb1
 10459 3aaf 513B0000 		.4byte	0x3b51
 10460 3ab3 000D     		.2byte	0xd00
 10461 3ab5 13       		.uleb128 0x13
 10462 3ab6 0A240000 		.4byte	.LASF807
 10463 3aba 37       		.byte	0x37
 10464 3abb B2       		.byte	0xb2
 10465 3abc DD0A0000 		.4byte	0xadd
 10466 3ac0 000E     		.2byte	0xe00
 10467 3ac2 13       		.uleb128 0x13
 10468 3ac3 D1180000 		.4byte	.LASF808
 10469 3ac7 37       		.byte	0x37
 10470 3ac8 B4       		.byte	0xb4
 10471 3ac9 9B3B0000 		.4byte	0x3b9b
 10472 3acd 040E     		.2byte	0xe04
 10473 3acf 13       		.uleb128 0x13
 10474 3ad0 6D090000 		.4byte	.LASF311
 10475 3ad4 37       		.byte	0x37
 10476 3ad5 B5       		.byte	0xb5
 10477 3ad6 B73B0000 		.4byte	0x3bb7
 10478 3ada 0010     		.2byte	0x1000
 10479 3adc 00       		.byte	0
 10480 3add 0A       		.uleb128 0xa
 10481 3ade DD0A0000 		.4byte	0xadd
 10482 3ae2 ED3A0000 		.4byte	0x3aed
 10483 3ae6 0B       		.uleb128 0xb
 10484 3ae7 45000000 		.4byte	0x45
 10485 3aeb 2F       		.byte	0x2f
 10486 3aec 00       		.byte	0
 10487 3aed 1A       		.uleb128 0x1a
 10488 3aee DD3A0000 		.4byte	0x3add
 10489 3af2 0A       		.uleb128 0xa
 10490 3af3 DD0A0000 		.4byte	0xadd
 10491 3af7 023B0000 		.4byte	0x3b02
 10492 3afb 0B       		.uleb128 0xb
 10493 3afc 45000000 		.4byte	0x45
 10494 3b00 AF       		.byte	0xaf
 10495 3b01 00       		.byte	0
 10496 3b02 1A       		.uleb128 0x1a
 10497 3b03 F23A0000 		.4byte	0x3af2
 10498 3b07 0A       		.uleb128 0xa
 10499 3b08 DD0A0000 		.4byte	0xadd
 10500 3b0c 173B0000 		.4byte	0x3b17
 10501 3b10 0B       		.uleb128 0xb
 10502 3b11 45000000 		.4byte	0x45
ARM GAS  /var/folders/qd/4mxf5pkd0zdf0b9dd1hp39180000gn/T//ccsf5yWP.s 			page 186


 10503 3b15 08       		.byte	0x8
 10504 3b16 00       		.byte	0
 10505 3b17 1A       		.uleb128 0x1a
 10506 3b18 073B0000 		.4byte	0x3b07
 10507 3b1c 0A       		.uleb128 0xa
 10508 3b1d DD0A0000 		.4byte	0xadd
 10509 3b21 2C3B0000 		.4byte	0x3b2c
 10510 3b25 0B       		.uleb128 0xb
 10511 3b26 45000000 		.4byte	0x45
 10512 3b2a 2E       		.byte	0x2e
 10513 3b2b 00       		.byte	0
 10514 3b2c 1A       		.uleb128 0x1a
 10515 3b2d 1C3B0000 		.4byte	0x3b1c
 10516 3b31 0A       		.uleb128 0xa
 10517 3b32 0D370000 		.4byte	0x370d
 10518 3b36 413B0000 		.4byte	0x3b41
 10519 3b3a 0B       		.uleb128 0xb
 10520 3b3b 45000000 		.4byte	0x45
 10521 3b3f 0F       		.byte	0xf
 10522 3b40 00       		.byte	0
 10523 3b41 0A       		.uleb128 0xa
 10524 3b42 DD0A0000 		.4byte	0xadd
 10525 3b46 513B0000 		.4byte	0x3b51
 10526 3b4a 0B       		.uleb128 0xb
 10527 3b4b 45000000 		.4byte	0x45
 10528 3b4f 3F       		.byte	0x3f
 10529 3b50 00       		.byte	0
 10530 3b51 1A       		.uleb128 0x1a
 10531 3b52 413B0000 		.4byte	0x3b41
 10532 3b56 0A       		.uleb128 0xa
 10533 3b57 DD0A0000 		.4byte	0xadd
 10534 3b5b 663B0000 		.4byte	0x3b66
 10535 3b5f 0B       		.uleb128 0xb
 10536 3b60 45000000 		.4byte	0x45
 10537 3b64 0F       		.byte	0xf
 10538 3b65 00       		.byte	0
 10539 3b66 1A       		.uleb128 0x1a
 10540 3b67 563B0000 		.4byte	0x3b56
 10541 3b6b 0A       		.uleb128 0xa
 10542 3b6c 81370000 		.4byte	0x3781
 10543 3b70 7B3B0000 		.4byte	0x3b7b
 10544 3b74 0B       		.uleb128 0xb
 10545 3b75 45000000 		.4byte	0x45
 10546 3b79 0F       		.byte	0xf
 10547 3b7a 00       		.byte	0
 10548 3b7b 0A       		.uleb128 0xa
 10549 3b7c F5370000 		.4byte	0x37f5
 10550 3b80 8B3B0000 		.4byte	0x3b8b
 10551 3b84 0B       		.uleb128 0xb
 10552 3b85 45000000 		.4byte	0x45
 10553 3b89 0F       		.byte	0xf
 10554 3b8a 00       		.byte	0
 10555 3b8b 0A       		.uleb128 0xa
 10556 3b8c DD0A0000 		.4byte	0xadd
 10557 3b90 9B3B0000 		.4byte	0x3b9b
 10558 3b94 0B       		.uleb128 0xb
 10559 3b95 45000000 		.4byte	0x45
ARM GAS  /var/folders/qd/4mxf5pkd0zdf0b9dd1hp39180000gn/T//ccsf5yWP.s 			page 187


 10560 3b99 7E       		.byte	0x7e
 10561 3b9a 00       		.byte	0
 10562 3b9b 1A       		.uleb128 0x1a
 10563 3b9c 8B3B0000 		.4byte	0x3b8b
 10564 3ba0 0A       		.uleb128 0xa
 10565 3ba1 DD0A0000 		.4byte	0xadd
 10566 3ba5 B73B0000 		.4byte	0x3bb7
 10567 3ba9 0B       		.uleb128 0xb
 10568 3baa 45000000 		.4byte	0x45
 10569 3bae 0F       		.byte	0xf
 10570 3baf 30       		.uleb128 0x30
 10571 3bb0 45000000 		.4byte	0x45
 10572 3bb4 FF03     		.2byte	0x3ff
 10573 3bb6 00       		.byte	0
 10574 3bb7 1A       		.uleb128 0x1a
 10575 3bb8 A03B0000 		.4byte	0x3ba0
 10576 3bbc 04       		.uleb128 0x4
 10577 3bbd 08260000 		.4byte	.LASF809
 10578 3bc1 37       		.byte	0x37
 10579 3bc2 B6       		.byte	0xb6
 10580 3bc3 00380000 		.4byte	0x3800
 10581 3bc7 0C       		.uleb128 0xc
 10582 3bc8 0C       		.byte	0xc
 10583 3bc9 36       		.byte	0x36
 10584 3bca C6       		.byte	0xc6
 10585 3bcb F43B0000 		.4byte	0x3bf4
 10586 3bcf 0D       		.uleb128 0xd
 10587 3bd0 E9080000 		.4byte	.LASF810
 10588 3bd4 36       		.byte	0x36
 10589 3bd5 C7       		.byte	0xc7
 10590 3bd6 D20A0000 		.4byte	0xad2
 10591 3bda 00       		.byte	0
 10592 3bdb 0D       		.uleb128 0xd
 10593 3bdc 270B0000 		.4byte	.LASF811
 10594 3be0 36       		.byte	0x36
 10595 3be1 C8       		.byte	0xc8
 10596 3be2 D20A0000 		.4byte	0xad2
 10597 3be6 04       		.byte	0x4
 10598 3be7 0D       		.uleb128 0xd
 10599 3be8 430F0000 		.4byte	.LASF812
 10600 3bec 36       		.byte	0x36
 10601 3bed C9       		.byte	0xc9
 10602 3bee D20A0000 		.4byte	0xad2
 10603 3bf2 08       		.byte	0x8
 10604 3bf3 00       		.byte	0
 10605 3bf4 04       		.uleb128 0x4
 10606 3bf5 480B0000 		.4byte	.LASF813
 10607 3bf9 36       		.byte	0x36
 10608 3bfa CA       		.byte	0xca
 10609 3bfb C73B0000 		.4byte	0x3bc7
 10610 3bff 0F       		.uleb128 0xf
 10611 3c00 F43B0000 		.4byte	0x3bf4
 10612 3c04 0C       		.uleb128 0xc
 10613 3c05 04       		.byte	0x4
 10614 3c06 36       		.byte	0x36
 10615 3c07 DD       		.byte	0xdd
 10616 3c08 193C0000 		.4byte	0x3c19
ARM GAS  /var/folders/qd/4mxf5pkd0zdf0b9dd1hp39180000gn/T//ccsf5yWP.s 			page 188


 10617 3c0c 0D       		.uleb128 0xd
 10618 3c0d 04240000 		.4byte	.LASF814
 10619 3c11 36       		.byte	0x36
 10620 3c12 E1       		.byte	0xe1
 10621 3c13 C91C0000 		.4byte	0x1cc9
 10622 3c17 00       		.byte	0
 10623 3c18 00       		.byte	0
 10624 3c19 0C       		.uleb128 0xc
 10625 3c1a 04       		.byte	0x4
 10626 3c1b 36       		.byte	0x36
 10627 3c1c E3       		.byte	0xe3
 10628 3c1d 2E3C0000 		.4byte	0x3c2e
 10629 3c21 0D       		.uleb128 0xd
 10630 3c22 7C090000 		.4byte	.LASF500
 10631 3c26 36       		.byte	0x36
 10632 3c27 E7       		.byte	0xe7
 10633 3c28 2E3C0000 		.4byte	0x3c2e
 10634 3c2c 00       		.byte	0
 10635 3c2d 00       		.byte	0
 10636 3c2e 05       		.uleb128 0x5
 10637 3c2f 04       		.byte	0x4
 10638 3c30 A51C0000 		.4byte	0x1ca5
 10639 3c34 08       		.uleb128 0x8
 10640 3c35 04       		.byte	0x4
 10641 3c36 36       		.byte	0x36
 10642 3c37 DC       		.byte	0xdc
 10643 3c38 533C0000 		.4byte	0x3c53
 10644 3c3c 09       		.uleb128 0x9
 10645 3c3d 24200000 		.4byte	.LASF815
 10646 3c41 36       		.byte	0x36
 10647 3c42 E2       		.byte	0xe2
 10648 3c43 043C0000 		.4byte	0x3c04
 10649 3c47 09       		.uleb128 0x9
 10650 3c48 E51E0000 		.4byte	.LASF816
 10651 3c4c 36       		.byte	0x36
 10652 3c4d E8       		.byte	0xe8
 10653 3c4e 193C0000 		.4byte	0x3c19
 10654 3c52 00       		.byte	0
 10655 3c53 0C       		.uleb128 0xc
 10656 3c54 14       		.byte	0x14
 10657 3c55 36       		.byte	0x36
 10658 3c56 CF       		.byte	0xcf
 10659 3c57 983C0000 		.4byte	0x3c98
 10660 3c5b 0D       		.uleb128 0xd
 10661 3c5c B7070000 		.4byte	.LASF817
 10662 3c60 36       		.byte	0x36
 10663 3c61 D3       		.byte	0xd3
 10664 3c62 6F0A0000 		.4byte	0xa6f
 10665 3c66 00       		.byte	0
 10666 3c67 0D       		.uleb128 0xd
 10667 3c68 07140000 		.4byte	.LASF818
 10668 3c6c 36       		.byte	0x36
 10669 3c6d D7       		.byte	0xd7
 10670 3c6e 3A000000 		.4byte	0x3a
 10671 3c72 04       		.byte	0x4
 10672 3c73 0D       		.uleb128 0xd
 10673 3c74 EE0A0000 		.4byte	.LASF819
ARM GAS  /var/folders/qd/4mxf5pkd0zdf0b9dd1hp39180000gn/T//ccsf5yWP.s 			page 189


 10674 3c78 36       		.byte	0x36
 10675 3c79 DB       		.byte	0xdb
 10676 3c7a 3A000000 		.4byte	0x3a
 10677 3c7e 08       		.byte	0x8
 10678 3c7f 0D       		.uleb128 0xd
 10679 3c80 66080000 		.4byte	.LASF546
 10680 3c84 36       		.byte	0x36
 10681 3c85 E9       		.byte	0xe9
 10682 3c86 343C0000 		.4byte	0x3c34
 10683 3c8a 0C       		.byte	0xc
 10684 3c8b 0D       		.uleb128 0xd
 10685 3c8c 5B0F0000 		.4byte	.LASF820
 10686 3c90 36       		.byte	0x36
 10687 3c91 ED       		.byte	0xed
 10688 3c92 3A000000 		.4byte	0x3a
 10689 3c96 10       		.byte	0x10
 10690 3c97 00       		.byte	0
 10691 3c98 04       		.uleb128 0x4
 10692 3c99 9F110000 		.4byte	.LASF821
 10693 3c9d 36       		.byte	0x36
 10694 3c9e EE       		.byte	0xee
 10695 3c9f 533C0000 		.4byte	0x3c53
 10696 3ca3 1C       		.uleb128 0x1c
 10697 3ca4 04       		.byte	0x4
 10698 3ca5 36       		.byte	0x36
 10699 3ca6 0101     		.2byte	0x101
 10700 3ca8 BA3C0000 		.4byte	0x3cba
 10701 3cac 18       		.uleb128 0x18
 10702 3cad 6B0B0000 		.4byte	.LASF822
 10703 3cb1 36       		.byte	0x36
 10704 3cb2 0501     		.2byte	0x105
 10705 3cb4 941C0000 		.4byte	0x1c94
 10706 3cb8 00       		.byte	0
 10707 3cb9 00       		.byte	0
 10708 3cba 1C       		.uleb128 0x1c
 10709 3cbb 04       		.byte	0x4
 10710 3cbc 36       		.byte	0x36
 10711 3cbd 0701     		.2byte	0x107
 10712 3cbf D13C0000 		.4byte	0x3cd1
 10713 3cc3 18       		.uleb128 0x18
 10714 3cc4 D41F0000 		.4byte	.LASF501
 10715 3cc8 36       		.byte	0x36
 10716 3cc9 0B01     		.2byte	0x10b
 10717 3ccb D13C0000 		.4byte	0x3cd1
 10718 3ccf 00       		.byte	0
 10719 3cd0 00       		.byte	0
 10720 3cd1 05       		.uleb128 0x5
 10721 3cd2 04       		.byte	0x4
 10722 3cd3 9A1C0000 		.4byte	0x1c9a
 10723 3cd7 1D       		.uleb128 0x1d
 10724 3cd8 04       		.byte	0x4
 10725 3cd9 36       		.byte	0x36
 10726 3cda 0001     		.2byte	0x100
 10727 3cdc F93C0000 		.4byte	0x3cf9
 10728 3ce0 1E       		.uleb128 0x1e
 10729 3ce1 24200000 		.4byte	.LASF815
 10730 3ce5 36       		.byte	0x36
ARM GAS  /var/folders/qd/4mxf5pkd0zdf0b9dd1hp39180000gn/T//ccsf5yWP.s 			page 190


 10731 3ce6 0601     		.2byte	0x106
 10732 3ce8 A33C0000 		.4byte	0x3ca3
 10733 3cec 1E       		.uleb128 0x1e
 10734 3ced E51E0000 		.4byte	.LASF816
 10735 3cf1 36       		.byte	0x36
 10736 3cf2 0C01     		.2byte	0x10c
 10737 3cf4 BA3C0000 		.4byte	0x3cba
 10738 3cf8 00       		.byte	0
 10739 3cf9 0C       		.uleb128 0xc
 10740 3cfa 14       		.byte	0x14
 10741 3cfb 36       		.byte	0x36
 10742 3cfc F3       		.byte	0xf3
 10743 3cfd 403D0000 		.4byte	0x3d40
 10744 3d01 0D       		.uleb128 0xd
 10745 3d02 04060000 		.4byte	.LASF823
 10746 3d06 36       		.byte	0x36
 10747 3d07 F7       		.byte	0xf7
 10748 3d08 6F0A0000 		.4byte	0xa6f
 10749 3d0c 00       		.byte	0
 10750 3d0d 0D       		.uleb128 0xd
 10751 3d0e EF140000 		.4byte	.LASF824
 10752 3d12 36       		.byte	0x36
 10753 3d13 FB       		.byte	0xfb
 10754 3d14 3A000000 		.4byte	0x3a
 10755 3d18 04       		.byte	0x4
 10756 3d19 0D       		.uleb128 0xd
 10757 3d1a 41080000 		.4byte	.LASF825
 10758 3d1e 36       		.byte	0x36
 10759 3d1f FF       		.byte	0xff
 10760 3d20 3A000000 		.4byte	0x3a
 10761 3d24 08       		.byte	0x8
 10762 3d25 18       		.uleb128 0x18
 10763 3d26 66080000 		.4byte	.LASF546
 10764 3d2a 36       		.byte	0x36
 10765 3d2b 0D01     		.2byte	0x10d
 10766 3d2d D73C0000 		.4byte	0x3cd7
 10767 3d31 0C       		.byte	0xc
 10768 3d32 18       		.uleb128 0x18
 10769 3d33 5B0F0000 		.4byte	.LASF820
 10770 3d37 36       		.byte	0x36
 10771 3d38 1101     		.2byte	0x111
 10772 3d3a 3A000000 		.4byte	0x3a
 10773 3d3e 10       		.byte	0x10
 10774 3d3f 00       		.byte	0
 10775 3d40 07       		.uleb128 0x7
 10776 3d41 0A1E0000 		.4byte	.LASF826
 10777 3d45 36       		.byte	0x36
 10778 3d46 1201     		.2byte	0x112
 10779 3d48 F93C0000 		.4byte	0x3cf9
 10780 3d4c 1C       		.uleb128 0x1c
 10781 3d4d 24       		.byte	0x24
 10782 3d4e 36       		.byte	0x36
 10783 3d4f 1801     		.2byte	0x118
 10784 3d51 D83D0000 		.4byte	0x3dd8
 10785 3d55 18       		.uleb128 0x18
 10786 3d56 9E180000 		.4byte	.LASF827
 10787 3d5a 36       		.byte	0x36
ARM GAS  /var/folders/qd/4mxf5pkd0zdf0b9dd1hp39180000gn/T//ccsf5yWP.s 			page 191


 10788 3d5b 1C01     		.2byte	0x11c
 10789 3d5d D20A0000 		.4byte	0xad2
 10790 3d61 00       		.byte	0
 10791 3d62 18       		.uleb128 0x18
 10792 3d63 45090000 		.4byte	.LASF828
 10793 3d67 36       		.byte	0x36
 10794 3d68 2701     		.2byte	0x127
 10795 3d6a 09360000 		.4byte	0x3609
 10796 3d6e 04       		.byte	0x4
 10797 3d6f 18       		.uleb128 0x18
 10798 3d70 90190000 		.4byte	.LASF829
 10799 3d74 36       		.byte	0x36
 10800 3d75 2D01     		.2byte	0x12d
 10801 3d77 09360000 		.4byte	0x3609
 10802 3d7b 08       		.byte	0x8
 10803 3d7c 18       		.uleb128 0x18
 10804 3d7d 4F0C0000 		.4byte	.LASF830
 10805 3d81 36       		.byte	0x36
 10806 3d82 3301     		.2byte	0x133
 10807 3d84 09360000 		.4byte	0x3609
 10808 3d88 0C       		.byte	0xc
 10809 3d89 18       		.uleb128 0x18
 10810 3d8a 3B260000 		.4byte	.LASF831
 10811 3d8e 36       		.byte	0x36
 10812 3d8f 3901     		.2byte	0x139
 10813 3d91 B70A0000 		.4byte	0xab7
 10814 3d95 10       		.byte	0x10
 10815 3d96 18       		.uleb128 0x18
 10816 3d97 AB0C0000 		.4byte	.LASF832
 10817 3d9b 36       		.byte	0x36
 10818 3d9c 3F01     		.2byte	0x13f
 10819 3d9e B70A0000 		.4byte	0xab7
 10820 3da2 12       		.byte	0x12
 10821 3da3 18       		.uleb128 0x18
 10822 3da4 DA240000 		.4byte	.LASF833
 10823 3da8 36       		.byte	0x36
 10824 3da9 4401     		.2byte	0x144
 10825 3dab D83D0000 		.4byte	0x3dd8
 10826 3daf 14       		.byte	0x14
 10827 3db0 18       		.uleb128 0x18
 10828 3db1 460E0000 		.4byte	.LASF834
 10829 3db5 36       		.byte	0x36
 10830 3db6 4901     		.2byte	0x149
 10831 3db8 DE3D0000 		.4byte	0x3dde
 10832 3dbc 18       		.byte	0x18
 10833 3dbd 18       		.uleb128 0x18
 10834 3dbe 1D130000 		.4byte	.LASF835
 10835 3dc2 36       		.byte	0x36
 10836 3dc3 5001     		.2byte	0x150
 10837 3dc5 B70A0000 		.4byte	0xab7
 10838 3dc9 1C       		.byte	0x1c
 10839 3dca 18       		.uleb128 0x18
 10840 3dcb 3E240000 		.4byte	.LASF836
 10841 3dcf 36       		.byte	0x36
 10842 3dd0 5601     		.2byte	0x156
 10843 3dd2 941C0000 		.4byte	0x1c94
 10844 3dd6 20       		.byte	0x20
ARM GAS  /var/folders/qd/4mxf5pkd0zdf0b9dd1hp39180000gn/T//ccsf5yWP.s 			page 192


 10845 3dd7 00       		.byte	0
 10846 3dd8 05       		.uleb128 0x5
 10847 3dd9 04       		.byte	0x4
 10848 3dda 983C0000 		.4byte	0x3c98
 10849 3dde 05       		.uleb128 0x5
 10850 3ddf 04       		.byte	0x4
 10851 3de0 403D0000 		.4byte	0x3d40
 10852 3de4 07       		.uleb128 0x7
 10853 3de5 A41F0000 		.4byte	.LASF837
 10854 3de9 36       		.byte	0x36
 10855 3dea 5701     		.2byte	0x157
 10856 3dec 4C3D0000 		.4byte	0x3d4c
 10857 3df0 0F       		.uleb128 0xf
 10858 3df1 E43D0000 		.4byte	0x3de4
 10859 3df5 1C       		.uleb128 0x1c
 10860 3df6 10       		.byte	0x10
 10861 3df7 36       		.byte	0x36
 10862 3df8 5C01     		.2byte	0x15c
 10863 3dfa 333E0000 		.4byte	0x3e33
 10864 3dfe 18       		.uleb128 0x18
 10865 3dff CC040000 		.4byte	.LASF838
 10866 3e03 36       		.byte	0x36
 10867 3e04 6101     		.2byte	0x161
 10868 3e06 2B360000 		.4byte	0x362b
 10869 3e0a 00       		.byte	0
 10870 3e0b 18       		.uleb128 0x18
 10871 3e0c A3230000 		.4byte	.LASF839
 10872 3e10 36       		.byte	0x36
 10873 3e11 6601     		.2byte	0x166
 10874 3e13 6E360000 		.4byte	0x366e
 10875 3e17 04       		.byte	0x4
 10876 3e18 18       		.uleb128 0x18
 10877 3e19 D3130000 		.4byte	.LASF840
 10878 3e1d 36       		.byte	0x36
 10879 3e1e 6C01     		.2byte	0x16c
 10880 3e20 4D360000 		.4byte	0x364d
 10881 3e24 08       		.byte	0x8
 10882 3e25 18       		.uleb128 0x18
 10883 3e26 EF010000 		.4byte	.LASF841
 10884 3e2a 36       		.byte	0x36
 10885 3e2b 7001     		.2byte	0x170
 10886 3e2d E6350000 		.4byte	0x35e6
 10887 3e31 0C       		.byte	0xc
 10888 3e32 00       		.byte	0
 10889 3e33 07       		.uleb128 0x7
 10890 3e34 9C120000 		.4byte	.LASF842
 10891 3e38 36       		.byte	0x36
 10892 3e39 7201     		.2byte	0x172
 10893 3e3b F53D0000 		.4byte	0x3df5
 10894 3e3f 0F       		.uleb128 0xf
 10895 3e40 333E0000 		.4byte	0x3e33
 10896 3e44 05       		.uleb128 0x5
 10897 3e45 04       		.byte	0x4
 10898 3e46 3F3E0000 		.4byte	0x3e3f
 10899 3e4a 0A       		.uleb128 0xa
 10900 3e4b 5A3E0000 		.4byte	0x3e5a
 10901 3e4f 5A3E0000 		.4byte	0x3e5a
ARM GAS  /var/folders/qd/4mxf5pkd0zdf0b9dd1hp39180000gn/T//ccsf5yWP.s 			page 193


 10902 3e53 0B       		.uleb128 0xb
 10903 3e54 45000000 		.4byte	0x45
 10904 3e58 03       		.byte	0x3
 10905 3e59 00       		.byte	0
 10906 3e5a 05       		.uleb128 0x5
 10907 3e5b 04       		.byte	0x4
 10908 3e5c F03D0000 		.4byte	0x3df0
 10909 3e60 0A       		.uleb128 0xa
 10910 3e61 6B010000 		.4byte	0x16b
 10911 3e65 703E0000 		.4byte	0x3e70
 10912 3e69 0B       		.uleb128 0xb
 10913 3e6a 45000000 		.4byte	0x45
 10914 3e6e 02       		.byte	0x2
 10915 3e6f 00       		.byte	0
 10916 3e70 05       		.uleb128 0x5
 10917 3e71 04       		.byte	0x4
 10918 3e72 BC3B0000 		.4byte	0x3bbc
 10919 3e76 05       		.uleb128 0x5
 10920 3e77 04       		.byte	0x4
 10921 3e78 FF3B0000 		.4byte	0x3bff
 10922 3e7c 0A       		.uleb128 0xa
 10923 3e7d B7160000 		.4byte	0x16b7
 10924 3e81 8C3E0000 		.4byte	0x3e8c
 10925 3e85 0B       		.uleb128 0xb
 10926 3e86 45000000 		.4byte	0x45
 10927 3e8a 3E       		.byte	0x3e
 10928 3e8b 00       		.byte	0
 10929 3e8c 20       		.uleb128 0x20
 10930 3e8d 9C160000 		.4byte	.LASF843
 10931 3e91 36       		.byte	0x36
 10932 3e92 0602     		.2byte	0x206
 10933 3e94 B2330000 		.4byte	0x33b2
 10934 3e98 24       		.uleb128 0x24
 10935 3e99 29010000 		.4byte	.LASF844
 10936 3e9d 38       		.byte	0x38
 10937 3e9e 63       		.byte	0x63
 10938 3e9f 6D010000 		.4byte	0x16d
 10939 3ea3 31       		.uleb128 0x31
 10940 3ea4 421F0000 		.4byte	.LASF853
 10941 3ea8 01       		.byte	0x1
 10942 3ea9 23       		.byte	0x23
 10943 3eaa 8A090000 		.4byte	0x98a
 10944 3eae 05       		.uleb128 0x5
 10945 3eaf 03       		.byte	0x3
 10946 3eb0 00000000 		.4byte	robotActualPosition
 10947 3eb4 0C       		.uleb128 0xc
 10948 3eb5 10       		.byte	0x10
 10949 3eb6 01       		.byte	0x1
 10950 3eb7 27       		.byte	0x27
 10951 3eb8 E93E0000 		.4byte	0x3ee9
 10952 3ebc 11       		.uleb128 0x11
 10953 3ebd 783000   		.ascii	"x0\000"
 10954 3ec0 01       		.byte	0x1
 10955 3ec1 28       		.byte	0x28
 10956 3ec2 33000000 		.4byte	0x33
 10957 3ec6 00       		.byte	0
 10958 3ec7 11       		.uleb128 0x11
ARM GAS  /var/folders/qd/4mxf5pkd0zdf0b9dd1hp39180000gn/T//ccsf5yWP.s 			page 194


 10959 3ec8 783200   		.ascii	"x2\000"
 10960 3ecb 01       		.byte	0x1
 10961 3ecc 29       		.byte	0x29
 10962 3ecd 33000000 		.4byte	0x33
 10963 3ed1 04       		.byte	0x4
 10964 3ed2 11       		.uleb128 0x11
 10965 3ed3 793100   		.ascii	"y1\000"
 10966 3ed6 01       		.byte	0x1
 10967 3ed7 2A       		.byte	0x2a
 10968 3ed8 33000000 		.4byte	0x33
 10969 3edc 08       		.byte	0x8
 10970 3edd 11       		.uleb128 0x11
 10971 3ede 793300   		.ascii	"y3\000"
 10972 3ee1 01       		.byte	0x1
 10973 3ee2 2B       		.byte	0x2b
 10974 3ee3 33000000 		.4byte	0x33
 10975 3ee7 0C       		.byte	0xc
 10976 3ee8 00       		.byte	0
 10977 3ee9 04       		.uleb128 0x4
 10978 3eea EB040000 		.4byte	.LASF845
 10979 3eee 01       		.byte	0x1
 10980 3eef 2C       		.byte	0x2c
 10981 3ef0 B43E0000 		.4byte	0x3eb4
 10982 3ef4 32       		.uleb128 0x32
 10983 3ef5 570A0000 		.4byte	.LASF846
 10984 3ef9 01       		.byte	0x1
 10985 3efa 2E       		.byte	0x2e
 10986 3efb E93E0000 		.4byte	0x3ee9
 10987 3eff 05       		.uleb128 0x5
 10988 3f00 03       		.byte	0x3
 10989 3f01 00000000 		.4byte	wall
 10990 3f05 33       		.uleb128 0x33
 10991 3f06 910A0000 		.4byte	0xa91
 10992 3f0a 01       		.byte	0x1
 10993 3f0b 30       		.byte	0x30
 10994 3f0c 05       		.uleb128 0x5
 10995 3f0d 03       		.byte	0x3
 10996 3f0e 00000000 		.4byte	environment
 10997 3f12 32       		.uleb128 0x32
 10998 3f13 00200000 		.4byte	.LASF847
 10999 3f17 01       		.byte	0x1
 11000 3f18 33       		.byte	0x33
 11001 3f19 233F0000 		.4byte	0x3f23
 11002 3f1d 05       		.uleb128 0x5
 11003 3f1e 03       		.byte	0x3
 11004 3f1f 00000000 		.4byte	objectList
 11005 3f23 05       		.uleb128 0x5
 11006 3f24 04       		.byte	0x4
 11007 3f25 B2090000 		.4byte	0x9b2
 11008 3f29 32       		.uleb128 0x32
 11009 3f2a DA100000 		.4byte	.LASF848
 11010 3f2e 01       		.byte	0x1
 11011 3f2f 34       		.byte	0x34
 11012 3f30 33000000 		.4byte	0x33
 11013 3f34 05       		.uleb128 0x5
 11014 3f35 03       		.byte	0x3
 11015 3f36 00000000 		.4byte	objectListSize
ARM GAS  /var/folders/qd/4mxf5pkd0zdf0b9dd1hp39180000gn/T//ccsf5yWP.s 			page 195


 11016 3f3a 34       		.uleb128 0x34
 11017 3f3b 63220000 		.4byte	.LASF849
 11018 3f3f 01       		.byte	0x1
 11019 3f40 1E02     		.2byte	0x21e
 11020 3f42 33000000 		.4byte	0x33
 11021 3f46 00000000 		.4byte	.LFB279
 11022 3f4a 24000000 		.4byte	.LFE279-.LFB279
 11023 3f4e 01       		.uleb128 0x1
 11024 3f4f 9C       		.byte	0x9c
 11025 3f50 6E3F0000 		.4byte	0x3f6e
 11026 3f54 35       		.uleb128 0x35
 11027 3f55 7A000000 		.4byte	.LASF851
 11028 3f59 01       		.byte	0x1
 11029 3f5a 1E02     		.2byte	0x21e
 11030 3f5c 6E3F0000 		.4byte	0x3f6e
 11031 3f60 00000000 		.4byte	.LLST62
 11032 3f64 36       		.uleb128 0x36
 11033 3f65 20000000 		.4byte	.LVL325
 11034 3f69 294E0000 		.4byte	0x4e29
 11035 3f6d 00       		.byte	0
 11036 3f6e 05       		.uleb128 0x5
 11037 3f6f 04       		.byte	0x4
 11038 3f70 E3090000 		.4byte	0x9e3
 11039 3f74 34       		.uleb128 0x34
 11040 3f75 35130000 		.4byte	.LASF850
 11041 3f79 01       		.byte	0x1
 11042 3f7a 0302     		.2byte	0x203
 11043 3f7c B2090000 		.4byte	0x9b2
 11044 3f80 00000000 		.4byte	.LFB278
 11045 3f84 04010000 		.4byte	.LFE278-.LFB278
 11046 3f88 01       		.uleb128 0x1
 11047 3f89 9C       		.byte	0x9c
 11048 3f8a 53400000 		.4byte	0x4053
 11049 3f8e 35       		.uleb128 0x35
 11050 3f8f 7A000000 		.4byte	.LASF851
 11051 3f93 01       		.byte	0x1
 11052 3f94 0302     		.2byte	0x203
 11053 3f96 6E3F0000 		.4byte	0x3f6e
 11054 3f9a 21000000 		.4byte	.LLST56
 11055 3f9e 35       		.uleb128 0x35
 11056 3f9f D5040000 		.4byte	.LASF852
 11057 3fa3 01       		.byte	0x1
 11058 3fa4 0302     		.2byte	0x203
 11059 3fa6 6F0A0000 		.4byte	0xa6f
 11060 3faa 66000000 		.4byte	.LLST57
 11061 3fae 37       		.uleb128 0x37
 11062 3faf 06220000 		.4byte	.LASF854
 11063 3fb3 01       		.byte	0x1
 11064 3fb4 0402     		.2byte	0x204
 11065 3fb6 33000000 		.4byte	0x33
 11066 3fba 05       		.uleb128 0x5
 11067 3fbb 03       		.byte	0x3
 11068 3fbc 00000000 		.4byte	lastStepObjectDistance.12068
 11069 3fc0 38       		.uleb128 0x38
 11070 3fc1 FB120000 		.4byte	.LASF855
 11071 3fc5 01       		.byte	0x1
 11072 3fc6 0502     		.2byte	0x205
ARM GAS  /var/folders/qd/4mxf5pkd0zdf0b9dd1hp39180000gn/T//ccsf5yWP.s 			page 196


 11073 3fc8 B2090000 		.4byte	0x9b2
 11074 3fcc 87000000 		.4byte	.LLST58
 11075 3fd0 38       		.uleb128 0x38
 11076 3fd1 F41E0000 		.4byte	.LASF856
 11077 3fd5 01       		.byte	0x1
 11078 3fd6 0602     		.2byte	0x206
 11079 3fd8 33000000 		.4byte	0x33
 11080 3fdc CC000000 		.4byte	.LLST59
 11081 3fe0 39       		.uleb128 0x39
 11082 3fe1 44490000 		.4byte	0x4944
 11083 3fe5 40000000 		.4byte	.LBB74
 11084 3fe9 46000000 		.4byte	.LBE74-.LBB74
 11085 3fed 01       		.byte	0x1
 11086 3fee 0C02     		.2byte	0x20c
 11087 3ff0 2F400000 		.4byte	0x402f
 11088 3ff4 3A       		.uleb128 0x3a
 11089 3ff5 54490000 		.4byte	0x4954
 11090 3ff9 3B       		.uleb128 0x3b
 11091 3ffa CD4D0000 		.4byte	0x4dcd
 11092 3ffe 40000000 		.4byte	.LBB75
 11093 4002 46000000 		.4byte	.LBE75-.LBB75
 11094 4006 3C       		.uleb128 0x3c
 11095 4007 D64D0000 		.4byte	0x4dd6
 11096 400b 3D       		.uleb128 0x3d
 11097 400c 6B490000 		.4byte	0x496b
 11098 4010 50000000 		.4byte	.LBB76
 11099 4014 10010000 		.4byte	.Ldebug_ranges0+0x110
 11100 4018 01       		.byte	0x1
 11101 4019 DD       		.byte	0xdd
 11102 401a 3E       		.uleb128 0x3e
 11103 401b 86490000 		.4byte	0x4986
 11104 401f 40010000 		.4byte	.LLST60
 11105 4023 3E       		.uleb128 0x3e
 11106 4024 7B490000 		.4byte	0x497b
 11107 4028 9A010000 		.4byte	.LLST61
 11108 402c 00       		.byte	0
 11109 402d 00       		.byte	0
 11110 402e 00       		.byte	0
 11111 402f 3F       		.uleb128 0x3f
 11112 4030 16000000 		.4byte	.LVL301
 11113 4034 864B0000 		.4byte	0x4b86
 11114 4038 49400000 		.4byte	0x4049
 11115 403c 40       		.uleb128 0x40
 11116 403d 01       		.uleb128 0x1
 11117 403e 50       		.byte	0x50
 11118 403f 02       		.uleb128 0x2
 11119 4040 91       		.byte	0x91
 11120 4041 5C       		.sleb128 -36
 11121 4042 40       		.uleb128 0x40
 11122 4043 01       		.uleb128 0x1
 11123 4044 51       		.byte	0x51
 11124 4045 02       		.uleb128 0x2
 11125 4046 77       		.byte	0x77
 11126 4047 00       		.sleb128 0
 11127 4048 00       		.byte	0
 11128 4049 36       		.uleb128 0x36
 11129 404a EA000000 		.4byte	.LVL322
ARM GAS  /var/folders/qd/4mxf5pkd0zdf0b9dd1hp39180000gn/T//ccsf5yWP.s 			page 197


 11130 404e 294E0000 		.4byte	0x4e29
 11131 4052 00       		.byte	0
 11132 4053 34       		.uleb128 0x34
 11133 4054 89020000 		.4byte	.LASF857
 11134 4058 01       		.byte	0x1
 11135 4059 FE01     		.2byte	0x1fe
 11136 405b B2090000 		.4byte	0x9b2
 11137 405f 00000000 		.4byte	.LFB277
 11138 4063 38000000 		.4byte	.LFE277-.LFB277
 11139 4067 01       		.uleb128 0x1
 11140 4068 9C       		.byte	0x9c
 11141 4069 77400000 		.4byte	0x4077
 11142 406d 36       		.uleb128 0x36
 11143 406e 30000000 		.4byte	.LVL298
 11144 4072 294E0000 		.4byte	0x4e29
 11145 4076 00       		.byte	0
 11146 4077 41       		.uleb128 0x41
 11147 4078 EF1B0000 		.4byte	.LASF858
 11148 407c 01       		.byte	0x1
 11149 407d F201     		.2byte	0x1f2
 11150 407f 0F0A0000 		.4byte	0xa0f
 11151 4083 00000000 		.4byte	.LFB276
 11152 4087 54000000 		.4byte	.LFE276-.LFB276
 11153 408b 01       		.uleb128 0x1
 11154 408c 9C       		.byte	0x9c
 11155 408d 24410000 		.4byte	0x4124
 11156 4091 42       		.uleb128 0x42
 11157 4092 FB120000 		.4byte	.LASF855
 11158 4096 01       		.byte	0x1
 11159 4097 F201     		.2byte	0x1f2
 11160 4099 B2090000 		.4byte	0x9b2
 11161 409d 03       		.uleb128 0x3
 11162 409e 91       		.byte	0x91
 11163 409f B07F     		.sleb128 -80
 11164 40a1 38       		.uleb128 0x38
 11165 40a2 1D150000 		.4byte	.LASF859
 11166 40a6 01       		.byte	0x1
 11167 40a7 F301     		.2byte	0x1f3
 11168 40a9 0F0A0000 		.4byte	0xa0f
 11169 40ad C2010000 		.4byte	.LLST55
 11170 40b1 37       		.uleb128 0x37
 11171 40b2 F0190000 		.4byte	.LASF860
 11172 40b6 01       		.byte	0x1
 11173 40b7 F601     		.2byte	0x1f6
 11174 40b9 24410000 		.4byte	0x4124
 11175 40bd 03       		.uleb128 0x3
 11176 40be 91       		.byte	0x91
 11177 40bf B87F     		.sleb128 -72
 11178 40c1 3F       		.uleb128 0x3f
 11179 40c2 18000000 		.4byte	.LVL288
 11180 40c6 34430000 		.4byte	0x4334
 11181 40ca DC400000 		.4byte	0x40dc
 11182 40ce 40       		.uleb128 0x40
 11183 40cf 01       		.uleb128 0x1
 11184 40d0 50       		.byte	0x50
 11185 40d1 02       		.uleb128 0x2
 11186 40d2 74       		.byte	0x74
ARM GAS  /var/folders/qd/4mxf5pkd0zdf0b9dd1hp39180000gn/T//ccsf5yWP.s 			page 198


 11187 40d3 00       		.sleb128 0
 11188 40d4 40       		.uleb128 0x40
 11189 40d5 01       		.uleb128 0x1
 11190 40d6 51       		.byte	0x51
 11191 40d7 03       		.uleb128 0x3
 11192 40d8 91       		.byte	0x91
 11193 40d9 B07F     		.sleb128 -80
 11194 40db 00       		.byte	0
 11195 40dc 3F       		.uleb128 0x3f
 11196 40dd 30000000 		.4byte	.LVL292
 11197 40e1 324E0000 		.4byte	0x4e32
 11198 40e5 00410000 		.4byte	0x4100
 11199 40e9 40       		.uleb128 0x40
 11200 40ea 01       		.uleb128 0x1
 11201 40eb 50       		.byte	0x50
 11202 40ec 03       		.uleb128 0x3
 11203 40ed 91       		.byte	0x91
 11204 40ee B87F     		.sleb128 -72
 11205 40f0 40       		.uleb128 0x40
 11206 40f1 01       		.uleb128 0x1
 11207 40f2 51       		.byte	0x51
 11208 40f3 05       		.uleb128 0x5
 11209 40f4 03       		.byte	0x3
 11210 40f5 00000000 		.4byte	.LC9
 11211 40f9 40       		.uleb128 0x40
 11212 40fa 01       		.uleb128 0x1
 11213 40fb 52       		.byte	0x52
 11214 40fc 02       		.uleb128 0x2
 11215 40fd 75       		.byte	0x75
 11216 40fe 00       		.sleb128 0
 11217 40ff 00       		.byte	0
 11218 4100 3F       		.uleb128 0x3f
 11219 4101 38000000 		.4byte	.LVL293
 11220 4105 3D4E0000 		.4byte	0x4e3d
 11221 4109 1A410000 		.4byte	0x411a
 11222 410d 40       		.uleb128 0x40
 11223 410e 01       		.uleb128 0x1
 11224 410f 50       		.byte	0x50
 11225 4110 03       		.uleb128 0x3
 11226 4111 91       		.byte	0x91
 11227 4112 B87F     		.sleb128 -72
 11228 4114 40       		.uleb128 0x40
 11229 4115 01       		.uleb128 0x1
 11230 4116 51       		.byte	0x51
 11231 4117 01       		.uleb128 0x1
 11232 4118 33       		.byte	0x33
 11233 4119 00       		.byte	0
 11234 411a 36       		.uleb128 0x36
 11235 411b 4C000000 		.4byte	.LVL296
 11236 411f 294E0000 		.4byte	0x4e29
 11237 4123 00       		.byte	0
 11238 4124 0A       		.uleb128 0xa
 11239 4125 73010000 		.4byte	0x173
 11240 4129 34410000 		.4byte	0x4134
 11241 412d 0B       		.uleb128 0xb
 11242 412e 45000000 		.4byte	0x45
 11243 4132 31       		.byte	0x31
ARM GAS  /var/folders/qd/4mxf5pkd0zdf0b9dd1hp39180000gn/T//ccsf5yWP.s 			page 199


 11244 4133 00       		.byte	0
 11245 4134 43       		.uleb128 0x43
 11246 4135 F2040000 		.4byte	.LASF887
 11247 4139 01       		.byte	0x1
 11248 413a C001     		.2byte	0x1c0
 11249 413c 00000000 		.4byte	.LFB275
 11250 4140 E0010000 		.4byte	.LFE275-.LFB275
 11251 4144 01       		.uleb128 0x1
 11252 4145 9C       		.byte	0x9c
 11253 4146 CC420000 		.4byte	0x42cc
 11254 414a 35       		.uleb128 0x35
 11255 414b 7A000000 		.4byte	.LASF851
 11256 414f 01       		.byte	0x1
 11257 4150 C001     		.2byte	0x1c0
 11258 4152 6E3F0000 		.4byte	0x3f6e
 11259 4156 E2010000 		.4byte	.LLST48
 11260 415a 35       		.uleb128 0x35
 11261 415b F0220000 		.4byte	.LASF861
 11262 415f 01       		.byte	0x1
 11263 4160 C001     		.2byte	0x1c0
 11264 4162 33000000 		.4byte	0x33
 11265 4166 0E020000 		.4byte	.LLST49
 11266 416a 38       		.uleb128 0x38
 11267 416b FB120000 		.4byte	.LASF855
 11268 416f 01       		.byte	0x1
 11269 4170 C101     		.2byte	0x1c1
 11270 4172 233F0000 		.4byte	0x3f23
 11271 4176 45020000 		.4byte	.LLST50
 11272 417a 44       		.uleb128 0x44
 11273 417b 30000000 		.4byte	.LBB71
 11274 417f 10000000 		.4byte	.LBE71-.LBB71
 11275 4183 96410000 		.4byte	0x4196
 11276 4187 45       		.uleb128 0x45
 11277 4188 6900     		.ascii	"i\000"
 11278 418a 01       		.byte	0x1
 11279 418b C601     		.2byte	0x1c6
 11280 418d 33000000 		.4byte	0x33
 11281 4191 79020000 		.4byte	.LLST54
 11282 4195 00       		.byte	0
 11283 4196 46       		.uleb128 0x46
 11284 4197 D8000000 		.4byte	.Ldebug_ranges0+0xd8
 11285 419b 85420000 		.4byte	0x4285
 11286 419f 45       		.uleb128 0x45
 11287 41a0 6900     		.ascii	"i\000"
 11288 41a2 01       		.byte	0x1
 11289 41a3 CA01     		.2byte	0x1ca
 11290 41a5 33000000 		.4byte	0x33
 11291 41a9 BD020000 		.4byte	.LLST51
 11292 41ad 44       		.uleb128 0x44
 11293 41ae 32010000 		.4byte	.LBB70
 11294 41b2 5E000000 		.4byte	.LBE70-.LBB70
 11295 41b6 12420000 		.4byte	0x4212
 11296 41ba 37       		.uleb128 0x37
 11297 41bb F0190000 		.4byte	.LASF860
 11298 41bf 01       		.byte	0x1
 11299 41c0 DD01     		.2byte	0x1dd
 11300 41c2 24410000 		.4byte	0x4124
ARM GAS  /var/folders/qd/4mxf5pkd0zdf0b9dd1hp39180000gn/T//ccsf5yWP.s 			page 200


 11301 41c6 03       		.uleb128 0x3
 11302 41c7 91       		.byte	0x91
 11303 41c8 A07F     		.sleb128 -96
 11304 41ca 3F       		.uleb128 0x3f
 11305 41cb 58010000 		.4byte	.LVL277
 11306 41cf 324E0000 		.4byte	0x4e32
 11307 41d3 EE410000 		.4byte	0x41ee
 11308 41d7 40       		.uleb128 0x40
 11309 41d8 01       		.uleb128 0x1
 11310 41d9 50       		.byte	0x50
 11311 41da 03       		.uleb128 0x3
 11312 41db 91       		.byte	0x91
 11313 41dc A07F     		.sleb128 -96
 11314 41de 40       		.uleb128 0x40
 11315 41df 01       		.uleb128 0x1
 11316 41e0 51       		.byte	0x51
 11317 41e1 05       		.uleb128 0x5
 11318 41e2 03       		.byte	0x3
 11319 41e3 00000000 		.4byte	.LC8
 11320 41e7 40       		.uleb128 0x40
 11321 41e8 01       		.uleb128 0x1
 11322 41e9 53       		.byte	0x53
 11323 41ea 02       		.uleb128 0x2
 11324 41eb 7B       		.byte	0x7b
 11325 41ec 00       		.sleb128 0
 11326 41ed 00       		.byte	0
 11327 41ee 3F       		.uleb128 0x3f
 11328 41ef 60010000 		.4byte	.LVL278
 11329 41f3 3D4E0000 		.4byte	0x4e3d
 11330 41f7 08420000 		.4byte	0x4208
 11331 41fb 40       		.uleb128 0x40
 11332 41fc 01       		.uleb128 0x1
 11333 41fd 50       		.byte	0x50
 11334 41fe 03       		.uleb128 0x3
 11335 41ff 91       		.byte	0x91
 11336 4200 A07F     		.sleb128 -96
 11337 4202 40       		.uleb128 0x40
 11338 4203 01       		.uleb128 0x1
 11339 4204 51       		.byte	0x51
 11340 4205 01       		.uleb128 0x1
 11341 4206 33       		.byte	0x33
 11342 4207 00       		.byte	0
 11343 4208 36       		.uleb128 0x36
 11344 4209 70010000 		.4byte	.LVL279
 11345 420d 484E0000 		.4byte	0x4e48
 11346 4211 00       		.byte	0
 11347 4212 39       		.uleb128 0x39
 11348 4213 44490000 		.4byte	0x4944
 11349 4217 E2000000 		.4byte	.LBB64
 11350 421b 50000000 		.4byte	.LBE64-.LBB64
 11351 421f 01       		.byte	0x1
 11352 4220 D601     		.2byte	0x1d6
 11353 4222 61420000 		.4byte	0x4261
 11354 4226 3A       		.uleb128 0x3a
 11355 4227 54490000 		.4byte	0x4954
 11356 422b 3B       		.uleb128 0x3b
 11357 422c CD4D0000 		.4byte	0x4dcd
ARM GAS  /var/folders/qd/4mxf5pkd0zdf0b9dd1hp39180000gn/T//ccsf5yWP.s 			page 201


 11358 4230 E2000000 		.4byte	.LBB65
 11359 4234 50000000 		.4byte	.LBE65-.LBB65
 11360 4238 3C       		.uleb128 0x3c
 11361 4239 D64D0000 		.4byte	0x4dd6
 11362 423d 3D       		.uleb128 0x3d
 11363 423e 6B490000 		.4byte	0x496b
 11364 4242 F6000000 		.4byte	.LBB66
 11365 4246 F8000000 		.4byte	.Ldebug_ranges0+0xf8
 11366 424a 01       		.byte	0x1
 11367 424b DD       		.byte	0xdd
 11368 424c 3E       		.uleb128 0x3e
 11369 424d 86490000 		.4byte	0x4986
 11370 4251 E7020000 		.4byte	.LLST52
 11371 4255 3E       		.uleb128 0x3e
 11372 4256 7B490000 		.4byte	0x497b
 11373 425a 41030000 		.4byte	.LLST53
 11374 425e 00       		.byte	0
 11375 425f 00       		.byte	0
 11376 4260 00       		.byte	0
 11377 4261 3F       		.uleb128 0x3f
 11378 4262 6C000000 		.4byte	.LVL264
 11379 4266 864B0000 		.4byte	0x4b86
 11380 426a 7B420000 		.4byte	0x427b
 11381 426e 40       		.uleb128 0x40
 11382 426f 01       		.uleb128 0x1
 11383 4270 50       		.byte	0x50
 11384 4271 02       		.uleb128 0x2
 11385 4272 74       		.byte	0x74
 11386 4273 00       		.sleb128 0
 11387 4274 40       		.uleb128 0x40
 11388 4275 01       		.uleb128 0x1
 11389 4276 51       		.byte	0x51
 11390 4277 02       		.uleb128 0x2
 11391 4278 75       		.byte	0x75
 11392 4279 00       		.sleb128 0
 11393 427a 00       		.byte	0
 11394 427b 36       		.uleb128 0x36
 11395 427c 74000000 		.4byte	.LVL265
 11396 4280 E4480000 		.4byte	0x48e4
 11397 4284 00       		.byte	0
 11398 4285 3F       		.uleb128 0x3f
 11399 4286 1A000000 		.4byte	.LVL253
 11400 428a 534E0000 		.4byte	0x4e53
 11401 428e 9B420000 		.4byte	0x429b
 11402 4292 40       		.uleb128 0x40
 11403 4293 01       		.uleb128 0x1
 11404 4294 50       		.byte	0x50
 11405 4295 04       		.uleb128 0x4
 11406 4296 77       		.byte	0x77
 11407 4297 00       		.sleb128 0
 11408 4298 33       		.byte	0x33
 11409 4299 24       		.byte	0x24
 11410 429a 00       		.byte	0
 11411 429b 3F       		.uleb128 0x3f
 11412 429c 2A000000 		.4byte	.LVL255
 11413 42a0 5E4E0000 		.4byte	0x4e5e
 11414 42a4 B9420000 		.4byte	0x42b9
ARM GAS  /var/folders/qd/4mxf5pkd0zdf0b9dd1hp39180000gn/T//ccsf5yWP.s 			page 202


 11415 42a8 40       		.uleb128 0x40
 11416 42a9 01       		.uleb128 0x1
 11417 42aa 50       		.byte	0x50
 11418 42ab 0C       		.uleb128 0xc
 11419 42ac 31       		.byte	0x31
 11420 42ad 7A       		.byte	0x7a
 11421 42ae 00       		.sleb128 0
 11422 42af 7A       		.byte	0x7a
 11423 42b0 00       		.sleb128 0
 11424 42b1 30       		.byte	0x30
 11425 42b2 2E       		.byte	0x2e
 11426 42b3 28       		.byte	0x28
 11427 42b4 0100     		.2byte	0x1
 11428 42b6 16       		.byte	0x16
 11429 42b7 13       		.byte	0x13
 11430 42b8 00       		.byte	0
 11431 42b9 47       		.uleb128 0x47
 11432 42ba BA000000 		.4byte	.LVL269
 11433 42be 694E0000 		.4byte	0x4e69
 11434 42c2 36       		.uleb128 0x36
 11435 42c3 C8010000 		.4byte	.LVL286
 11436 42c7 294E0000 		.4byte	0x4e29
 11437 42cb 00       		.byte	0
 11438 42cc 34       		.uleb128 0x34
 11439 42cd 141F0000 		.4byte	.LASF862
 11440 42d1 01       		.byte	0x1
 11441 42d2 B601     		.2byte	0x1b6
 11442 42d4 2C000000 		.4byte	0x2c
 11443 42d8 00000000 		.4byte	.LFB274
 11444 42dc 8C000000 		.4byte	.LFE274-.LFB274
 11445 42e0 01       		.uleb128 0x1
 11446 42e1 9C       		.byte	0x9c
 11447 42e2 10430000 		.4byte	0x4310
 11448 42e6 35       		.uleb128 0x35
 11449 42e7 93010000 		.4byte	.LASF863
 11450 42eb 01       		.byte	0x1
 11451 42ec B601     		.2byte	0x1b6
 11452 42ee F4080000 		.4byte	0x8f4
 11453 42f2 69030000 		.4byte	.LLST46
 11454 42f6 38       		.uleb128 0x38
 11455 42f7 5F1D0000 		.4byte	.LASF864
 11456 42fb 01       		.byte	0x1
 11457 42fc B701     		.2byte	0x1b7
 11458 42fe 2C000000 		.4byte	0x2c
 11459 4302 8D030000 		.4byte	.LLST47
 11460 4306 36       		.uleb128 0x36
 11461 4307 72000000 		.4byte	.LVL250
 11462 430b 294E0000 		.4byte	0x4e29
 11463 430f 00       		.byte	0
 11464 4310 34       		.uleb128 0x34
 11465 4311 76250000 		.4byte	.LASF865
 11466 4315 01       		.byte	0x1
 11467 4316 B101     		.2byte	0x1b1
 11468 4318 8A090000 		.4byte	0x98a
 11469 431c 00000000 		.4byte	.LFB273
 11470 4320 30000000 		.4byte	.LFE273-.LFB273
 11471 4324 01       		.uleb128 0x1
ARM GAS  /var/folders/qd/4mxf5pkd0zdf0b9dd1hp39180000gn/T//ccsf5yWP.s 			page 203


 11472 4325 9C       		.byte	0x9c
 11473 4326 34430000 		.4byte	0x4334
 11474 432a 36       		.uleb128 0x36
 11475 432b 26000000 		.4byte	.LVL244
 11476 432f 294E0000 		.4byte	0x4e29
 11477 4333 00       		.byte	0
 11478 4334 41       		.uleb128 0x41
 11479 4335 E2000000 		.4byte	.LASF866
 11480 4339 01       		.byte	0x1
 11481 433a 8B01     		.2byte	0x18b
 11482 433c 0F0A0000 		.4byte	0xa0f
 11483 4340 00000000 		.4byte	.LFB272
 11484 4344 48010000 		.4byte	.LFE272-.LFB272
 11485 4348 01       		.uleb128 0x1
 11486 4349 9C       		.byte	0x9c
 11487 434a 5D440000 		.4byte	0x445d
 11488 434e 35       		.uleb128 0x35
 11489 434f BF130000 		.4byte	.LASF867
 11490 4353 01       		.byte	0x1
 11491 4354 8B01     		.2byte	0x18b
 11492 4356 5D440000 		.4byte	0x445d
 11493 435a A1030000 		.4byte	.LLST42
 11494 435e 38       		.uleb128 0x38
 11495 435f 9A130000 		.4byte	.LASF868
 11496 4363 01       		.byte	0x1
 11497 4364 8C01     		.2byte	0x18c
 11498 4366 0F0A0000 		.4byte	0xa0f
 11499 436a C2030000 		.4byte	.LLST43
 11500 436e 37       		.uleb128 0x37
 11501 436f 03210000 		.4byte	.LASF869
 11502 4373 01       		.byte	0x1
 11503 4374 8E01     		.2byte	0x18e
 11504 4376 33000000 		.4byte	0x33
 11505 437a 01       		.uleb128 0x1
 11506 437b 55       		.byte	0x55
 11507 437c 38       		.uleb128 0x38
 11508 437d B3090000 		.4byte	.LASF870
 11509 4381 01       		.byte	0x1
 11510 4382 8F01     		.2byte	0x18f
 11511 4384 33000000 		.4byte	0x33
 11512 4388 2D040000 		.4byte	.LLST44
 11513 438c 37       		.uleb128 0x37
 11514 438d DC200000 		.4byte	.LASF871
 11515 4391 01       		.byte	0x1
 11516 4392 9001     		.2byte	0x190
 11517 4394 2C000000 		.4byte	0x2c
 11518 4398 06       		.uleb128 0x6
 11519 4399 F5       		.byte	0xf5
 11520 439a 08       		.uleb128 0x8
 11521 439b 25       		.uleb128 0x25
 11522 439c F7       		.byte	0xf7
 11523 439d 2C       		.uleb128 0x2c
 11524 439e 9F       		.byte	0x9f
 11525 439f 37       		.uleb128 0x37
 11526 43a0 F0190000 		.4byte	.LASF860
 11527 43a4 01       		.byte	0x1
 11528 43a5 9201     		.2byte	0x192
ARM GAS  /var/folders/qd/4mxf5pkd0zdf0b9dd1hp39180000gn/T//ccsf5yWP.s 			page 204


 11529 43a7 24410000 		.4byte	0x4124
 11530 43ab 03       		.uleb128 0x3
 11531 43ac 91       		.byte	0x91
 11532 43ad A07F     		.sleb128 -96
 11533 43af 38       		.uleb128 0x38
 11534 43b0 93010000 		.4byte	.LASF863
 11535 43b4 01       		.byte	0x1
 11536 43b5 9A01     		.2byte	0x19a
 11537 43b7 2C000000 		.4byte	0x2c
 11538 43bb 40040000 		.4byte	.LLST45
 11539 43bf 36       		.uleb128 0x36
 11540 43c0 32000000 		.4byte	.LVL215
 11541 43c4 744E0000 		.4byte	0x4e74
 11542 43c8 3F       		.uleb128 0x3f
 11543 43c9 54000000 		.4byte	.LVL219
 11544 43cd 324E0000 		.4byte	0x4e32
 11545 43d1 F2430000 		.4byte	0x43f2
 11546 43d5 40       		.uleb128 0x40
 11547 43d6 01       		.uleb128 0x1
 11548 43d7 50       		.byte	0x50
 11549 43d8 03       		.uleb128 0x3
 11550 43d9 91       		.byte	0x91
 11551 43da A07F     		.sleb128 -96
 11552 43dc 40       		.uleb128 0x40
 11553 43dd 01       		.uleb128 0x1
 11554 43de 51       		.byte	0x51
 11555 43df 05       		.uleb128 0x5
 11556 43e0 03       		.byte	0x3
 11557 43e1 00000000 		.4byte	.LC6
 11558 43e5 40       		.uleb128 0x40
 11559 43e6 01       		.uleb128 0x1
 11560 43e7 52       		.byte	0x52
 11561 43e8 02       		.uleb128 0x2
 11562 43e9 75       		.byte	0x75
 11563 43ea 00       		.sleb128 0
 11564 43eb 40       		.uleb128 0x40
 11565 43ec 01       		.uleb128 0x1
 11566 43ed 53       		.byte	0x53
 11567 43ee 02       		.uleb128 0x2
 11568 43ef 74       		.byte	0x74
 11569 43f0 00       		.sleb128 0
 11570 43f1 00       		.byte	0
 11571 43f2 3F       		.uleb128 0x3f
 11572 43f3 5C000000 		.4byte	.LVL220
 11573 43f7 3D4E0000 		.4byte	0x4e3d
 11574 43fb 0C440000 		.4byte	0x440c
 11575 43ff 40       		.uleb128 0x40
 11576 4400 01       		.uleb128 0x1
 11577 4401 50       		.byte	0x50
 11578 4402 03       		.uleb128 0x3
 11579 4403 91       		.byte	0x91
 11580 4404 A07F     		.sleb128 -96
 11581 4406 40       		.uleb128 0x40
 11582 4407 01       		.uleb128 0x1
 11583 4408 51       		.byte	0x51
 11584 4409 01       		.uleb128 0x1
 11585 440a 33       		.byte	0x33
ARM GAS  /var/folders/qd/4mxf5pkd0zdf0b9dd1hp39180000gn/T//ccsf5yWP.s 			page 205


 11586 440b 00       		.byte	0
 11587 440c 36       		.uleb128 0x36
 11588 440d 9C000000 		.4byte	.LVL228
 11589 4411 7F4E0000 		.4byte	0x4e7f
 11590 4415 3F       		.uleb128 0x3f
 11591 4416 FC000000 		.4byte	.LVL236
 11592 441a 324E0000 		.4byte	0x4e32
 11593 441e 39440000 		.4byte	0x4439
 11594 4422 40       		.uleb128 0x40
 11595 4423 01       		.uleb128 0x1
 11596 4424 50       		.byte	0x50
 11597 4425 03       		.uleb128 0x3
 11598 4426 91       		.byte	0x91
 11599 4427 A07F     		.sleb128 -96
 11600 4429 40       		.uleb128 0x40
 11601 442a 01       		.uleb128 0x1
 11602 442b 51       		.byte	0x51
 11603 442c 05       		.uleb128 0x5
 11604 442d 03       		.byte	0x3
 11605 442e 24000000 		.4byte	.LC7
 11606 4432 40       		.uleb128 0x40
 11607 4433 01       		.uleb128 0x1
 11608 4434 52       		.byte	0x52
 11609 4435 02       		.uleb128 0x2
 11610 4436 74       		.byte	0x74
 11611 4437 00       		.sleb128 0
 11612 4438 00       		.byte	0
 11613 4439 3F       		.uleb128 0x3f
 11614 443a 04010000 		.4byte	.LVL237
 11615 443e 3D4E0000 		.4byte	0x4e3d
 11616 4442 53440000 		.4byte	0x4453
 11617 4446 40       		.uleb128 0x40
 11618 4447 01       		.uleb128 0x1
 11619 4448 50       		.byte	0x50
 11620 4449 03       		.uleb128 0x3
 11621 444a 91       		.byte	0x91
 11622 444b A07F     		.sleb128 -96
 11623 444d 40       		.uleb128 0x40
 11624 444e 01       		.uleb128 0x1
 11625 444f 51       		.byte	0x51
 11626 4450 01       		.uleb128 0x1
 11627 4451 33       		.byte	0x33
 11628 4452 00       		.byte	0
 11629 4453 36       		.uleb128 0x36
 11630 4454 22010000 		.4byte	.LVL241
 11631 4458 294E0000 		.4byte	0x4e29
 11632 445c 00       		.byte	0
 11633 445d 05       		.uleb128 0x5
 11634 445e 04       		.byte	0x4
 11635 445f BD090000 		.4byte	0x9bd
 11636 4463 41       		.uleb128 0x41
 11637 4464 0E140000 		.4byte	.LASF872
 11638 4468 01       		.byte	0x1
 11639 4469 0501     		.2byte	0x105
 11640 446b 6F0A0000 		.4byte	0xa6f
 11641 446f 00000000 		.4byte	.LFB271
 11642 4473 60030000 		.4byte	.LFE271-.LFB271
ARM GAS  /var/folders/qd/4mxf5pkd0zdf0b9dd1hp39180000gn/T//ccsf5yWP.s 			page 206


 11643 4477 01       		.uleb128 0x1
 11644 4478 9C       		.byte	0x9c
 11645 4479 8E470000 		.4byte	0x478e
 11646 447d 35       		.uleb128 0x35
 11647 447e 7A000000 		.4byte	.LASF851
 11648 4482 01       		.byte	0x1
 11649 4483 0501     		.2byte	0x105
 11650 4485 6E3F0000 		.4byte	0x3f6e
 11651 4489 5F040000 		.4byte	.LLST31
 11652 448d 45       		.uleb128 0x45
 11653 448e 6900     		.ascii	"i\000"
 11654 4490 01       		.byte	0x1
 11655 4491 0601     		.2byte	0x106
 11656 4493 33000000 		.4byte	0x33
 11657 4497 99040000 		.4byte	.LLST32
 11658 449b 38       		.uleb128 0x38
 11659 449c BD140000 		.4byte	.LASF873
 11660 44a0 01       		.byte	0x1
 11661 44a1 0701     		.2byte	0x107
 11662 44a3 33000000 		.4byte	0x33
 11663 44a7 B8040000 		.4byte	.LLST33
 11664 44ab 38       		.uleb128 0x38
 11665 44ac 15040000 		.4byte	.LASF874
 11666 44b0 01       		.byte	0x1
 11667 44b1 0801     		.2byte	0x108
 11668 44b3 33000000 		.4byte	0x33
 11669 44b7 4E050000 		.4byte	.LLST34
 11670 44bb 2C       		.uleb128 0x2c
 11671 44bc 07       		.byte	0x7
 11672 44bd 01       		.byte	0x1
 11673 44be 6C000000 		.4byte	0x6c
 11674 44c2 01       		.byte	0x1
 11675 44c3 0A01     		.2byte	0x10a
 11676 44c5 DC440000 		.4byte	0x44dc
 11677 44c9 23       		.uleb128 0x23
 11678 44ca 10120000 		.4byte	.LASF875
 11679 44ce 00       		.byte	0
 11680 44cf 23       		.uleb128 0x23
 11681 44d0 C9240000 		.4byte	.LASF876
 11682 44d4 01       		.byte	0x1
 11683 44d5 23       		.uleb128 0x23
 11684 44d6 38010000 		.4byte	.LASF877
 11685 44da 02       		.byte	0x2
 11686 44db 00       		.byte	0
 11687 44dc 07       		.uleb128 0x7
 11688 44dd 5B0E0000 		.4byte	.LASF878
 11689 44e1 01       		.byte	0x1
 11690 44e2 0E01     		.2byte	0x10e
 11691 44e4 BB440000 		.4byte	0x44bb
 11692 44e8 1C       		.uleb128 0x1c
 11693 44e9 A8       		.byte	0xa8
 11694 44ea 01       		.byte	0x1
 11695 44eb 1001     		.2byte	0x110
 11696 44ed 19450000 		.4byte	0x4519
 11697 44f1 18       		.uleb128 0x18
 11698 44f2 7A000000 		.4byte	.LASF851
 11699 44f6 01       		.byte	0x1
ARM GAS  /var/folders/qd/4mxf5pkd0zdf0b9dd1hp39180000gn/T//ccsf5yWP.s 			page 207


 11700 44f7 1101     		.2byte	0x111
 11701 44f9 8E470000 		.4byte	0x478e
 11702 44fd 00       		.byte	0
 11703 44fe 18       		.uleb128 0x18
 11704 44ff 25090000 		.4byte	.LASF879
 11705 4503 01       		.byte	0x1
 11706 4504 1201     		.2byte	0x112
 11707 4506 DC440000 		.4byte	0x44dc
 11708 450a A0       		.byte	0xa0
 11709 450b 18       		.uleb128 0x18
 11710 450c 2C050000 		.4byte	.LASF880
 11711 4510 01       		.byte	0x1
 11712 4511 1301     		.2byte	0x113
 11713 4513 33000000 		.4byte	0x33
 11714 4517 A4       		.byte	0xa4
 11715 4518 00       		.byte	0
 11716 4519 07       		.uleb128 0x7
 11717 451a 5E0D0000 		.4byte	.LASF881
 11718 451e 01       		.byte	0x1
 11719 451f 1401     		.2byte	0x114
 11720 4521 E8440000 		.4byte	0x44e8
 11721 4525 38       		.uleb128 0x38
 11722 4526 401B0000 		.4byte	.LASF882
 11723 452a 01       		.byte	0x1
 11724 452b 1601     		.2byte	0x116
 11725 452d 35450000 		.4byte	0x4535
 11726 4531 6D050000 		.4byte	.LLST35
 11727 4535 05       		.uleb128 0x5
 11728 4536 04       		.byte	0x4
 11729 4537 19450000 		.4byte	0x4519
 11730 453b 45       		.uleb128 0x45
 11731 453c 6A00     		.ascii	"j\000"
 11732 453e 01       		.byte	0x1
 11733 453f 5501     		.2byte	0x155
 11734 4541 33000000 		.4byte	0x33
 11735 4545 A4050000 		.4byte	.LLST36
 11736 4549 37       		.uleb128 0x37
 11737 454a 911E0000 		.4byte	.LASF883
 11738 454e 01       		.byte	0x1
 11739 454f 5601     		.2byte	0x156
 11740 4551 9E470000 		.4byte	0x479e
 11741 4555 03       		.uleb128 0x3
 11742 4556 91       		.byte	0x91
 11743 4557 F87E     		.sleb128 -136
 11744 4559 37       		.uleb128 0x37
 11745 455a 8B030000 		.4byte	.LASF884
 11746 455e 01       		.byte	0x1
 11747 455f 7301     		.2byte	0x173
 11748 4561 760A0000 		.4byte	0xa76
 11749 4565 03       		.uleb128 0x3
 11750 4566 91       		.byte	0x91
 11751 4567 E07E     		.sleb128 -160
 11752 4569 38       		.uleb128 0x38
 11753 456a EA170000 		.4byte	.LASF885
 11754 456e 01       		.byte	0x1
 11755 456f 7801     		.2byte	0x178
 11756 4571 2C000000 		.4byte	0x2c
ARM GAS  /var/folders/qd/4mxf5pkd0zdf0b9dd1hp39180000gn/T//ccsf5yWP.s 			page 208


 11757 4575 B8050000 		.4byte	.LLST37
 11758 4579 37       		.uleb128 0x37
 11759 457a F0190000 		.4byte	.LASF860
 11760 457e 01       		.byte	0x1
 11761 457f 8101     		.2byte	0x181
 11762 4581 24410000 		.4byte	0x4124
 11763 4585 03       		.uleb128 0x3
 11764 4586 91       		.byte	0x91
 11765 4587 987F     		.sleb128 -104
 11766 4589 44       		.uleb128 0x44
 11767 458a 02010000 		.4byte	.LBB58
 11768 458e E4000000 		.4byte	.LBE58-.LBB58
 11769 4592 9A460000 		.4byte	0x469a
 11770 4596 37       		.uleb128 0x37
 11771 4597 570A0000 		.4byte	.LASF846
 11772 459b 01       		.byte	0x1
 11773 459c 5901     		.2byte	0x159
 11774 459e B4470000 		.4byte	0x47b4
 11775 45a2 03       		.uleb128 0x3
 11776 45a3 91       		.byte	0x91
 11777 45a4 D07E     		.sleb128 -176
 11778 45a6 37       		.uleb128 0x37
 11779 45a7 C4010000 		.4byte	.LASF886
 11780 45ab 01       		.byte	0x1
 11781 45ac 5A01     		.2byte	0x15a
 11782 45ae C4470000 		.4byte	0x47c4
 11783 45b2 03       		.uleb128 0x3
 11784 45b3 91       		.byte	0x91
 11785 45b4 E07E     		.sleb128 -160
 11786 45b6 45       		.uleb128 0x45
 11787 45b7 696400   		.ascii	"id\000"
 11788 45ba 01       		.byte	0x1
 11789 45bb 5D01     		.2byte	0x15d
 11790 45bd 33000000 		.4byte	0x33
 11791 45c1 CB050000 		.4byte	.LLST38
 11792 45c5 44       		.uleb128 0x44
 11793 45c6 10010000 		.4byte	.LBB59
 11794 45ca 14000000 		.4byte	.LBE59-.LBB59
 11795 45ce F0450000 		.4byte	0x45f0
 11796 45d2 45       		.uleb128 0x45
 11797 45d3 6900     		.ascii	"i\000"
 11798 45d5 01       		.byte	0x1
 11799 45d6 5C01     		.2byte	0x15c
 11800 45d8 33000000 		.4byte	0x33
 11801 45dc FC050000 		.4byte	.LLST39
 11802 45e0 48       		.uleb128 0x48
 11803 45e1 16010000 		.4byte	.LVL163
 11804 45e5 534E0000 		.4byte	0x4e53
 11805 45e9 40       		.uleb128 0x40
 11806 45ea 01       		.uleb128 0x1
 11807 45eb 50       		.byte	0x50
 11808 45ec 01       		.uleb128 0x1
 11809 45ed 38       		.byte	0x38
 11810 45ee 00       		.byte	0
 11811 45ef 00       		.byte	0
 11812 45f0 44       		.uleb128 0x44
 11813 45f1 BC010000 		.4byte	.LBB60
ARM GAS  /var/folders/qd/4mxf5pkd0zdf0b9dd1hp39180000gn/T//ccsf5yWP.s 			page 209


 11814 45f5 16000000 		.4byte	.LBE60-.LBB60
 11815 45f9 1C460000 		.4byte	0x461c
 11816 45fd 45       		.uleb128 0x45
 11817 45fe 6900     		.ascii	"i\000"
 11818 4600 01       		.byte	0x1
 11819 4601 6B01     		.2byte	0x16b
 11820 4603 33000000 		.4byte	0x33
 11821 4607 10060000 		.4byte	.LLST40
 11822 460b 48       		.uleb128 0x48
 11823 460c CA010000 		.4byte	.LVL175
 11824 4610 B9490000 		.4byte	0x49b9
 11825 4614 40       		.uleb128 0x40
 11826 4615 01       		.uleb128 0x1
 11827 4616 52       		.byte	0x52
 11828 4617 02       		.uleb128 0x2
 11829 4618 76       		.byte	0x76
 11830 4619 00       		.sleb128 0
 11831 461a 00       		.byte	0
 11832 461b 00       		.byte	0
 11833 461c 44       		.uleb128 0x44
 11834 461d D2010000 		.4byte	.LBB61
 11835 4621 12000000 		.4byte	.LBE61-.LBB61
 11836 4625 3D460000 		.4byte	0x463d
 11837 4629 49       		.uleb128 0x49
 11838 462a 6900     		.ascii	"i\000"
 11839 462c 01       		.byte	0x1
 11840 462d 6E01     		.2byte	0x16e
 11841 462f 33000000 		.4byte	0x33
 11842 4633 36       		.uleb128 0x36
 11843 4634 DC010000 		.4byte	.LVL176
 11844 4638 694E0000 		.4byte	0x4e69
 11845 463c 00       		.byte	0
 11846 463d 3F       		.uleb128 0x3f
 11847 463e 6A010000 		.4byte	.LVL168
 11848 4642 484E0000 		.4byte	0x4e48
 11849 4646 57460000 		.4byte	0x4657
 11850 464a 40       		.uleb128 0x40
 11851 464b 01       		.uleb128 0x1
 11852 464c 50       		.byte	0x50
 11853 464d 02       		.uleb128 0x2
 11854 464e 74       		.byte	0x74
 11855 464f 00       		.sleb128 0
 11856 4650 40       		.uleb128 0x40
 11857 4651 01       		.uleb128 0x1
 11858 4652 51       		.byte	0x51
 11859 4653 02       		.uleb128 0x2
 11860 4654 76       		.byte	0x76
 11861 4655 00       		.sleb128 0
 11862 4656 00       		.byte	0
 11863 4657 3F       		.uleb128 0x3f
 11864 4658 7A010000 		.4byte	.LVL169
 11865 465c 5E4E0000 		.4byte	0x4e5e
 11866 4660 75460000 		.4byte	0x4675
 11867 4664 40       		.uleb128 0x40
 11868 4665 01       		.uleb128 0x1
 11869 4666 50       		.byte	0x50
 11870 4667 0C       		.uleb128 0xc
ARM GAS  /var/folders/qd/4mxf5pkd0zdf0b9dd1hp39180000gn/T//ccsf5yWP.s 			page 210


 11871 4668 31       		.byte	0x31
 11872 4669 74       		.byte	0x74
 11873 466a 00       		.sleb128 0
 11874 466b 74       		.byte	0x74
 11875 466c 00       		.sleb128 0
 11876 466d 30       		.byte	0x30
 11877 466e 2E       		.byte	0x2e
 11878 466f 28       		.byte	0x28
 11879 4670 0100     		.2byte	0x1
 11880 4672 16       		.byte	0x16
 11881 4673 13       		.byte	0x13
 11882 4674 00       		.byte	0
 11883 4675 3F       		.uleb128 0x3f
 11884 4676 84010000 		.4byte	.LVL170
 11885 467a 864B0000 		.4byte	0x4b86
 11886 467e 89460000 		.4byte	0x4689
 11887 4682 40       		.uleb128 0x40
 11888 4683 01       		.uleb128 0x1
 11889 4684 50       		.byte	0x50
 11890 4685 02       		.uleb128 0x2
 11891 4686 75       		.byte	0x75
 11892 4687 00       		.sleb128 0
 11893 4688 00       		.byte	0
 11894 4689 48       		.uleb128 0x48
 11895 468a B2010000 		.4byte	.LVL173
 11896 468e 694E0000 		.4byte	0x4e69
 11897 4692 40       		.uleb128 0x40
 11898 4693 01       		.uleb128 0x1
 11899 4694 50       		.byte	0x50
 11900 4695 02       		.uleb128 0x2
 11901 4696 76       		.byte	0x76
 11902 4697 00       		.sleb128 0
 11903 4698 00       		.byte	0
 11904 4699 00       		.byte	0
 11905 469a 44       		.uleb128 0x44
 11906 469b E6010000 		.4byte	.LBB62
 11907 469f 46000000 		.4byte	.LBE62-.LBB62
 11908 46a3 B6460000 		.4byte	0x46b6
 11909 46a7 45       		.uleb128 0x45
 11910 46a8 6900     		.ascii	"i\000"
 11911 46aa 01       		.byte	0x1
 11912 46ab 7401     		.2byte	0x174
 11913 46ad 33000000 		.4byte	0x33
 11914 46b1 24060000 		.4byte	.LLST41
 11915 46b5 00       		.byte	0
 11916 46b6 3F       		.uleb128 0x3f
 11917 46b7 1A000000 		.4byte	.LVL142
 11918 46bb 534E0000 		.4byte	0x4e53
 11919 46bf CB460000 		.4byte	0x46cb
 11920 46c3 40       		.uleb128 0x40
 11921 46c4 01       		.uleb128 0x1
 11922 46c5 50       		.byte	0x50
 11923 46c6 03       		.uleb128 0x3
 11924 46c7 0A       		.byte	0xa
 11925 46c8 4005     		.2byte	0x540
 11926 46ca 00       		.byte	0
 11927 46cb 3F       		.uleb128 0x3f
ARM GAS  /var/folders/qd/4mxf5pkd0zdf0b9dd1hp39180000gn/T//ccsf5yWP.s 			page 211


 11928 46cc 26000000 		.4byte	.LVL144
 11929 46d0 5E4E0000 		.4byte	0x4e5e
 11930 46d4 E9460000 		.4byte	0x46e9
 11931 46d8 40       		.uleb128 0x40
 11932 46d9 01       		.uleb128 0x1
 11933 46da 50       		.byte	0x50
 11934 46db 0C       		.uleb128 0xc
 11935 46dc 31       		.byte	0x31
 11936 46dd 76       		.byte	0x76
 11937 46de 00       		.sleb128 0
 11938 46df 76       		.byte	0x76
 11939 46e0 00       		.sleb128 0
 11940 46e1 30       		.byte	0x30
 11941 46e2 2E       		.byte	0x2e
 11942 46e3 28       		.byte	0x28
 11943 46e4 0100     		.2byte	0x1
 11944 46e6 16       		.byte	0x16
 11945 46e7 13       		.byte	0x13
 11946 46e8 00       		.byte	0
 11947 46e9 36       		.uleb128 0x36
 11948 46ea 3C020000 		.4byte	.LVL181
 11949 46ee 744E0000 		.4byte	0x4e74
 11950 46f2 3F       		.uleb128 0x3f
 11951 46f3 58020000 		.4byte	.LVL184
 11952 46f7 A14A0000 		.4byte	0x4aa1
 11953 46fb 08470000 		.4byte	0x4708
 11954 46ff 40       		.uleb128 0x40
 11955 4700 02       		.uleb128 0x2
 11956 4701 90       		.byte	0x90
 11957 4702 40       		.uleb128 0x40
 11958 4703 03       		.uleb128 0x3
 11959 4704 F5       		.byte	0xf5
 11960 4705 06       		.uleb128 0x6
 11961 4706 2C       		.uleb128 0x2c
 11962 4707 00       		.byte	0
 11963 4708 3F       		.uleb128 0x3f
 11964 4709 6E020000 		.4byte	.LVL186
 11965 470d 8A4E0000 		.4byte	0x4e8a
 11966 4711 24470000 		.4byte	0x4724
 11967 4715 40       		.uleb128 0x40
 11968 4716 08       		.uleb128 0x8
 11969 4717 90       		.byte	0x90
 11970 4718 40       		.uleb128 0x40
 11971 4719 93       		.byte	0x93
 11972 471a 04       		.uleb128 0x4
 11973 471b 90       		.byte	0x90
 11974 471c 41       		.uleb128 0x41
 11975 471d 93       		.byte	0x93
 11976 471e 04       		.uleb128 0x4
 11977 471f 03       		.uleb128 0x3
 11978 4720 F5       		.byte	0xf5
 11979 4721 50       		.uleb128 0x50
 11980 4722 25       		.uleb128 0x25
 11981 4723 00       		.byte	0
 11982 4724 3F       		.uleb128 0x3f
 11983 4725 7E020000 		.4byte	.LVL188
 11984 4729 954E0000 		.4byte	0x4e95
ARM GAS  /var/folders/qd/4mxf5pkd0zdf0b9dd1hp39180000gn/T//ccsf5yWP.s 			page 212


 11985 472d 40470000 		.4byte	0x4740
 11986 4731 40       		.uleb128 0x40
 11987 4732 08       		.uleb128 0x8
 11988 4733 90       		.byte	0x90
 11989 4734 40       		.uleb128 0x40
 11990 4735 93       		.byte	0x93
 11991 4736 04       		.uleb128 0x4
 11992 4737 90       		.byte	0x90
 11993 4738 41       		.uleb128 0x41
 11994 4739 93       		.byte	0x93
 11995 473a 04       		.uleb128 0x4
 11996 473b 03       		.uleb128 0x3
 11997 473c F5       		.byte	0xf5
 11998 473d 50       		.uleb128 0x50
 11999 473e 25       		.uleb128 0x25
 12000 473f 00       		.byte	0
 12001 4740 3F       		.uleb128 0x3f
 12002 4741 2C030000 		.4byte	.LVL206
 12003 4745 324E0000 		.4byte	0x4e32
 12004 4749 6A470000 		.4byte	0x476a
 12005 474d 40       		.uleb128 0x40
 12006 474e 01       		.uleb128 0x1
 12007 474f 50       		.byte	0x50
 12008 4750 03       		.uleb128 0x3
 12009 4751 91       		.byte	0x91
 12010 4752 987F     		.sleb128 -104
 12011 4754 40       		.uleb128 0x40
 12012 4755 01       		.uleb128 0x1
 12013 4756 51       		.byte	0x51
 12014 4757 05       		.uleb128 0x5
 12015 4758 03       		.byte	0x3
 12016 4759 00000000 		.4byte	.LC5
 12017 475d 40       		.uleb128 0x40
 12018 475e 01       		.uleb128 0x1
 12019 475f 52       		.byte	0x52
 12020 4760 02       		.uleb128 0x2
 12021 4761 75       		.byte	0x75
 12022 4762 00       		.sleb128 0
 12023 4763 40       		.uleb128 0x40
 12024 4764 01       		.uleb128 0x1
 12025 4765 53       		.byte	0x53
 12026 4766 02       		.uleb128 0x2
 12027 4767 75       		.byte	0x75
 12028 4768 00       		.sleb128 0
 12029 4769 00       		.byte	0
 12030 476a 3F       		.uleb128 0x3f
 12031 476b 34030000 		.4byte	.LVL207
 12032 476f 3D4E0000 		.4byte	0x4e3d
 12033 4773 84470000 		.4byte	0x4784
 12034 4777 40       		.uleb128 0x40
 12035 4778 01       		.uleb128 0x1
 12036 4779 50       		.byte	0x50
 12037 477a 03       		.uleb128 0x3
 12038 477b 91       		.byte	0x91
 12039 477c 987F     		.sleb128 -104
 12040 477e 40       		.uleb128 0x40
 12041 477f 01       		.uleb128 0x1
ARM GAS  /var/folders/qd/4mxf5pkd0zdf0b9dd1hp39180000gn/T//ccsf5yWP.s 			page 213


 12042 4780 51       		.byte	0x51
 12043 4781 01       		.uleb128 0x1
 12044 4782 33       		.byte	0x33
 12045 4783 00       		.byte	0
 12046 4784 36       		.uleb128 0x36
 12047 4785 60030000 		.4byte	.LVL209
 12048 4789 294E0000 		.4byte	0x4e29
 12049 478d 00       		.byte	0
 12050 478e 0A       		.uleb128 0xa
 12051 478f 6E3F0000 		.4byte	0x3f6e
 12052 4793 9E470000 		.4byte	0x479e
 12053 4797 0B       		.uleb128 0xb
 12054 4798 45000000 		.4byte	0x45
 12055 479c 27       		.byte	0x27
 12056 479d 00       		.byte	0
 12057 479e 0A       		.uleb128 0xa
 12058 479f 2C000000 		.4byte	0x2c
 12059 47a3 B4470000 		.4byte	0x47b4
 12060 47a7 0B       		.uleb128 0xb
 12061 47a8 45000000 		.4byte	0x45
 12062 47ac 03       		.byte	0x3
 12063 47ad 0B       		.uleb128 0xb
 12064 47ae 45000000 		.4byte	0x45
 12065 47b2 01       		.byte	0x1
 12066 47b3 00       		.byte	0
 12067 47b4 0A       		.uleb128 0xa
 12068 47b5 233F0000 		.4byte	0x3f23
 12069 47b9 C4470000 		.4byte	0x47c4
 12070 47bd 0B       		.uleb128 0xb
 12071 47be 45000000 		.4byte	0x45
 12072 47c2 03       		.byte	0x3
 12073 47c3 00       		.byte	0
 12074 47c4 0A       		.uleb128 0xa
 12075 47c5 33000000 		.4byte	0x33
 12076 47c9 D4470000 		.4byte	0x47d4
 12077 47cd 0B       		.uleb128 0xb
 12078 47ce 45000000 		.4byte	0x45
 12079 47d2 03       		.byte	0x3
 12080 47d3 00       		.byte	0
 12081 47d4 4A       		.uleb128 0x4a
 12082 47d5 81170000 		.4byte	.LASF888
 12083 47d9 01       		.byte	0x1
 12084 47da FD       		.byte	0xfd
 12085 47db 00000000 		.4byte	.LFB270
 12086 47df 60000000 		.4byte	.LFE270-.LFB270
 12087 47e3 01       		.uleb128 0x1
 12088 47e4 9C       		.byte	0x9c
 12089 47e5 8C480000 		.4byte	0x488c
 12090 47e9 4B       		.uleb128 0x4b
 12091 47ea BA090000 		.4byte	.LASF889
 12092 47ee 01       		.byte	0x1
 12093 47ef FD       		.byte	0xfd
 12094 47f0 8C480000 		.4byte	0x488c
 12095 47f4 38060000 		.4byte	.LLST29
 12096 47f8 4B       		.uleb128 0x4b
 12097 47f9 270C0000 		.4byte	.LASF890
 12098 47fd 01       		.byte	0x1
ARM GAS  /var/folders/qd/4mxf5pkd0zdf0b9dd1hp39180000gn/T//ccsf5yWP.s 			page 214


 12099 47fe FD       		.byte	0xfd
 12100 47ff 33000000 		.4byte	0x33
 12101 4803 64060000 		.4byte	.LLST30
 12102 4807 31       		.uleb128 0x31
 12103 4808 F0190000 		.4byte	.LASF860
 12104 480c 01       		.byte	0x1
 12105 480d FF       		.byte	0xff
 12106 480e 24410000 		.4byte	0x4124
 12107 4812 03       		.uleb128 0x3
 12108 4813 91       		.byte	0x91
 12109 4814 B87F     		.sleb128 -72
 12110 4816 3F       		.uleb128 0x3f
 12111 4817 1A000000 		.4byte	.LVL134
 12112 481b 524C0000 		.4byte	0x4c52
 12113 481f 3E480000 		.4byte	0x483e
 12114 4823 40       		.uleb128 0x40
 12115 4824 01       		.uleb128 0x1
 12116 4825 50       		.byte	0x50
 12117 4826 02       		.uleb128 0x2
 12118 4827 75       		.byte	0x75
 12119 4828 00       		.sleb128 0
 12120 4829 40       		.uleb128 0x40
 12121 482a 01       		.uleb128 0x1
 12122 482b 51       		.byte	0x51
 12123 482c 02       		.uleb128 0x2
 12124 482d 74       		.byte	0x74
 12125 482e 00       		.sleb128 0
 12126 482f 40       		.uleb128 0x40
 12127 4830 01       		.uleb128 0x1
 12128 4831 52       		.byte	0x52
 12129 4832 03       		.uleb128 0x3
 12130 4833 F3       		.byte	0xf3
 12131 4834 01       		.uleb128 0x1
 12132 4835 50       		.byte	0x50
 12133 4836 40       		.uleb128 0x40
 12134 4837 01       		.uleb128 0x1
 12135 4838 53       		.byte	0x53
 12136 4839 03       		.uleb128 0x3
 12137 483a F3       		.byte	0xf3
 12138 483b 01       		.uleb128 0x1
 12139 483c 51       		.byte	0x51
 12140 483d 00       		.byte	0
 12141 483e 3F       		.uleb128 0x3f
 12142 483f 3C000000 		.4byte	.LVL136
 12143 4843 324E0000 		.4byte	0x4e32
 12144 4847 68480000 		.4byte	0x4868
 12145 484b 40       		.uleb128 0x40
 12146 484c 01       		.uleb128 0x1
 12147 484d 50       		.byte	0x50
 12148 484e 03       		.uleb128 0x3
 12149 484f 91       		.byte	0x91
 12150 4850 B87F     		.sleb128 -72
 12151 4852 40       		.uleb128 0x40
 12152 4853 01       		.uleb128 0x1
 12153 4854 51       		.byte	0x51
 12154 4855 05       		.uleb128 0x5
 12155 4856 03       		.byte	0x3
ARM GAS  /var/folders/qd/4mxf5pkd0zdf0b9dd1hp39180000gn/T//ccsf5yWP.s 			page 215


 12156 4857 00000000 		.4byte	.LC4
 12157 485b 40       		.uleb128 0x40
 12158 485c 01       		.uleb128 0x1
 12159 485d 52       		.byte	0x52
 12160 485e 02       		.uleb128 0x2
 12161 485f 75       		.byte	0x75
 12162 4860 00       		.sleb128 0
 12163 4861 40       		.uleb128 0x40
 12164 4862 01       		.uleb128 0x1
 12165 4863 53       		.byte	0x53
 12166 4864 02       		.uleb128 0x2
 12167 4865 74       		.byte	0x74
 12168 4866 00       		.sleb128 0
 12169 4867 00       		.byte	0
 12170 4868 3F       		.uleb128 0x3f
 12171 4869 44000000 		.4byte	.LVL137
 12172 486d 3D4E0000 		.4byte	0x4e3d
 12173 4871 82480000 		.4byte	0x4882
 12174 4875 40       		.uleb128 0x40
 12175 4876 01       		.uleb128 0x1
 12176 4877 50       		.byte	0x50
 12177 4878 03       		.uleb128 0x3
 12178 4879 91       		.byte	0x91
 12179 487a B87F     		.sleb128 -72
 12180 487c 40       		.uleb128 0x40
 12181 487d 01       		.uleb128 0x1
 12182 487e 51       		.byte	0x51
 12183 487f 01       		.uleb128 0x1
 12184 4880 33       		.byte	0x33
 12185 4881 00       		.byte	0
 12186 4882 36       		.uleb128 0x36
 12187 4883 54000000 		.4byte	.LVL138
 12188 4887 294E0000 		.4byte	0x4e29
 12189 488b 00       		.byte	0
 12190 488c 05       		.uleb128 0x5
 12191 488d 04       		.byte	0x4
 12192 488e 5C090000 		.4byte	0x95c
 12193 4892 4C       		.uleb128 0x4c
 12194 4893 800B0000 		.4byte	.LASF921
 12195 4897 01       		.byte	0x1
 12196 4898 F8       		.byte	0xf8
 12197 4899 01       		.byte	0x1
 12198 489a 4D       		.uleb128 0x4d
 12199 489b 10020000 		.4byte	.LASF891
 12200 489f 01       		.byte	0x1
 12201 48a0 EF       		.byte	0xef
 12202 48a1 00000000 		.4byte	.LFB268
 12203 48a5 48000000 		.4byte	.LFE268-.LFB268
 12204 48a9 01       		.uleb128 0x1
 12205 48aa 9C       		.byte	0x9c
 12206 48ab E4480000 		.4byte	0x48e4
 12207 48af 4E       		.uleb128 0x4e
 12208 48b0 92480000 		.4byte	0x4892
 12209 48b4 04000000 		.4byte	.LBB52
 12210 48b8 B8000000 		.4byte	.Ldebug_ranges0+0xb8
 12211 48bc 01       		.byte	0x1
 12212 48bd F1       		.byte	0xf1
ARM GAS  /var/folders/qd/4mxf5pkd0zdf0b9dd1hp39180000gn/T//ccsf5yWP.s 			page 216


 12213 48be 3F       		.uleb128 0x3f
 12214 48bf 1C000000 		.4byte	.LVL127
 12215 48c3 534E0000 		.4byte	0x4e53
 12216 48c7 D1480000 		.4byte	0x48d1
 12217 48cb 40       		.uleb128 0x40
 12218 48cc 01       		.uleb128 0x1
 12219 48cd 50       		.byte	0x50
 12220 48ce 01       		.uleb128 0x1
 12221 48cf 38       		.byte	0x38
 12222 48d0 00       		.byte	0
 12223 48d1 47       		.uleb128 0x47
 12224 48d2 38000000 		.4byte	.LVL128
 12225 48d6 5E4E0000 		.4byte	0x4e5e
 12226 48da 36       		.uleb128 0x36
 12227 48db 3C000000 		.4byte	.LVL129
 12228 48df 294E0000 		.4byte	0x4e29
 12229 48e3 00       		.byte	0
 12230 48e4 4F       		.uleb128 0x4f
 12231 48e5 3D040000 		.4byte	.LASF892
 12232 48e9 01       		.byte	0x1
 12233 48ea E2       		.byte	0xe2
 12234 48eb 6F0A0000 		.4byte	0xa6f
 12235 48ef 00000000 		.4byte	.LFB267
 12236 48f3 5C000000 		.4byte	.LFE267-.LFB267
 12237 48f7 01       		.uleb128 0x1
 12238 48f8 9C       		.byte	0x9c
 12239 48f9 44490000 		.4byte	0x4944
 12240 48fd 50       		.uleb128 0x50
 12241 48fe FB120000 		.4byte	.LASF855
 12242 4902 01       		.byte	0x1
 12243 4903 E2       		.byte	0xe2
 12244 4904 B2090000 		.4byte	0x9b2
 12245 4908 02       		.uleb128 0x2
 12246 4909 91       		.byte	0x91
 12247 490a 68       		.sleb128 -24
 12248 490b 51       		.uleb128 0x51
 12249 490c 92490000 		.4byte	0x4992
 12250 4910 0E000000 		.4byte	.LBB48
 12251 4914 A0000000 		.4byte	.Ldebug_ranges0+0xa0
 12252 4918 01       		.byte	0x1
 12253 4919 E3       		.byte	0xe3
 12254 491a 3A490000 		.4byte	0x493a
 12255 491e 3E       		.uleb128 0x3e
 12256 491f AD490000 		.4byte	0x49ad
 12257 4923 90060000 		.4byte	.LLST27
 12258 4927 3E       		.uleb128 0x3e
 12259 4928 A2490000 		.4byte	0x49a2
 12260 492c A8060000 		.4byte	.LLST28
 12261 4930 36       		.uleb128 0x36
 12262 4931 32000000 		.4byte	.LVL122
 12263 4935 7F4E0000 		.4byte	0x4e7f
 12264 4939 00       		.byte	0
 12265 493a 36       		.uleb128 0x36
 12266 493b 52000000 		.4byte	.LVL126
 12267 493f 294E0000 		.4byte	0x4e29
 12268 4943 00       		.byte	0
 12269 4944 52       		.uleb128 0x52
ARM GAS  /var/folders/qd/4mxf5pkd0zdf0b9dd1hp39180000gn/T//ccsf5yWP.s 			page 217


 12270 4945 340B0000 		.4byte	.LASF893
 12271 4949 01       		.byte	0x1
 12272 494a DB       		.byte	0xdb
 12273 494b 6F0A0000 		.4byte	0xa6f
 12274 494f 01       		.byte	0x1
 12275 4950 6B490000 		.4byte	0x496b
 12276 4954 53       		.uleb128 0x53
 12277 4955 44040000 		.4byte	.LASF895
 12278 4959 01       		.byte	0x1
 12279 495a DB       		.byte	0xdb
 12280 495b B2090000 		.4byte	0x9b2
 12281 495f 54       		.uleb128 0x54
 12282 4960 55       		.uleb128 0x55
 12283 4961 6900     		.ascii	"i\000"
 12284 4963 01       		.byte	0x1
 12285 4964 DC       		.byte	0xdc
 12286 4965 33000000 		.4byte	0x33
 12287 4969 00       		.byte	0
 12288 496a 00       		.byte	0
 12289 496b 52       		.uleb128 0x52
 12290 496c 22040000 		.4byte	.LASF894
 12291 4970 01       		.byte	0x1
 12292 4971 D5       		.byte	0xd5
 12293 4972 6F0A0000 		.4byte	0xa6f
 12294 4976 01       		.byte	0x1
 12295 4977 92490000 		.4byte	0x4992
 12296 497b 53       		.uleb128 0x53
 12297 497c FB120000 		.4byte	.LASF855
 12298 4980 01       		.byte	0x1
 12299 4981 D5       		.byte	0xd5
 12300 4982 B2090000 		.4byte	0x9b2
 12301 4986 53       		.uleb128 0x53
 12302 4987 87160000 		.4byte	.LASF896
 12303 498b 01       		.byte	0x1
 12304 498c D5       		.byte	0xd5
 12305 498d B2090000 		.4byte	0x9b2
 12306 4991 00       		.byte	0
 12307 4992 52       		.uleb128 0x52
 12308 4993 71240000 		.4byte	.LASF897
 12309 4997 01       		.byte	0x1
 12310 4998 D1       		.byte	0xd1
 12311 4999 33000000 		.4byte	0x33
 12312 499d 01       		.byte	0x1
 12313 499e B9490000 		.4byte	0x49b9
 12314 49a2 53       		.uleb128 0x53
 12315 49a3 52200000 		.4byte	.LASF898
 12316 49a7 01       		.byte	0x1
 12317 49a8 D1       		.byte	0xd1
 12318 49a9 B2090000 		.4byte	0x9b2
 12319 49ad 53       		.uleb128 0x53
 12320 49ae 59200000 		.4byte	.LASF899
 12321 49b2 01       		.byte	0x1
 12322 49b3 D1       		.byte	0xd1
 12323 49b4 B2090000 		.4byte	0x9b2
 12324 49b8 00       		.byte	0
 12325 49b9 4D       		.uleb128 0x4d
 12326 49ba AD250000 		.4byte	.LASF900
ARM GAS  /var/folders/qd/4mxf5pkd0zdf0b9dd1hp39180000gn/T//ccsf5yWP.s 			page 218


 12327 49be 01       		.byte	0x1
 12328 49bf BF       		.byte	0xbf
 12329 49c0 00000000 		.4byte	.LFB263
 12330 49c4 D4000000 		.4byte	.LFE263-.LFB263
 12331 49c8 01       		.uleb128 0x1
 12332 49c9 9C       		.byte	0x9c
 12333 49ca 9B4A0000 		.4byte	0x4a9b
 12334 49ce 4B       		.uleb128 0x4b
 12335 49cf FB120000 		.4byte	.LASF855
 12336 49d3 01       		.byte	0x1
 12337 49d4 BF       		.byte	0xbf
 12338 49d5 233F0000 		.4byte	0x3f23
 12339 49d9 E4060000 		.4byte	.LLST11
 12340 49dd 4B       		.uleb128 0x4b
 12341 49de 64090000 		.4byte	.LASF901
 12342 49e2 01       		.byte	0x1
 12343 49e3 BF       		.byte	0xbf
 12344 49e4 33000000 		.4byte	0x33
 12345 49e8 1E070000 		.4byte	.LLST12
 12346 49ec 56       		.uleb128 0x56
 12347 49ed 746F7400 		.ascii	"tot\000"
 12348 49f1 01       		.byte	0x1
 12349 49f2 BF       		.byte	0xbf
 12350 49f3 9B4A0000 		.4byte	0x4a9b
 12351 49f7 70070000 		.4byte	.LLST13
 12352 49fb 57       		.uleb128 0x57
 12353 49fc 6D00     		.ascii	"m\000"
 12354 49fe 01       		.byte	0x1
 12355 49ff C0       		.byte	0xc0
 12356 4a00 2C000000 		.4byte	0x2c
 12357 4a04 A4070000 		.4byte	.LLST14
 12358 4a08 57       		.uleb128 0x57
 12359 4a09 7000     		.ascii	"p\000"
 12360 4a0b 01       		.byte	0x1
 12361 4a0c C0       		.byte	0xc0
 12362 4a0d 2C000000 		.4byte	0x2c
 12363 4a11 B8070000 		.4byte	.LLST15
 12364 4a15 58       		.uleb128 0x58
 12365 4a16 BB190000 		.4byte	.LASF902
 12366 4a1a 01       		.byte	0x1
 12367 4a1b C0       		.byte	0xc0
 12368 4a1c 2C000000 		.4byte	0x2c
 12369 4a20 CC070000 		.4byte	.LLST16
 12370 4a24 58       		.uleb128 0x58
 12371 4a25 F90C0000 		.4byte	.LASF903
 12372 4a29 01       		.byte	0x1
 12373 4a2a C0       		.byte	0xc0
 12374 4a2b 2C000000 		.4byte	0x2c
 12375 4a2f 00080000 		.4byte	.LLST17
 12376 4a33 57       		.uleb128 0x57
 12377 4a34 6900     		.ascii	"i\000"
 12378 4a36 01       		.byte	0x1
 12379 4a37 C1       		.byte	0xc1
 12380 4a38 33000000 		.4byte	0x33
 12381 4a3c 40080000 		.4byte	.LLST18
 12382 4a40 46       		.uleb128 0x46
 12383 4a41 38000000 		.4byte	.Ldebug_ranges0+0x38
ARM GAS  /var/folders/qd/4mxf5pkd0zdf0b9dd1hp39180000gn/T//ccsf5yWP.s 			page 219


 12384 4a45 914A0000 		.4byte	0x4a91
 12385 4a49 31       		.uleb128 0x31
 12386 4a4a F0190000 		.4byte	.LASF860
 12387 4a4e 01       		.byte	0x1
 12388 4a4f C6       		.byte	0xc6
 12389 4a50 24410000 		.4byte	0x4124
 12390 4a54 03       		.uleb128 0x3
 12391 4a55 91       		.byte	0x91
 12392 4a56 987F     		.sleb128 -104
 12393 4a58 3F       		.uleb128 0x3f
 12394 4a59 72000000 		.4byte	.LVL85
 12395 4a5d 324E0000 		.4byte	0x4e32
 12396 4a61 7A4A0000 		.4byte	0x4a7a
 12397 4a65 40       		.uleb128 0x40
 12398 4a66 01       		.uleb128 0x1
 12399 4a67 50       		.byte	0x50
 12400 4a68 03       		.uleb128 0x3
 12401 4a69 91       		.byte	0x91
 12402 4a6a 987F     		.sleb128 -104
 12403 4a6c 40       		.uleb128 0x40
 12404 4a6d 01       		.uleb128 0x1
 12405 4a6e 51       		.byte	0x51
 12406 4a6f 02       		.uleb128 0x2
 12407 4a70 78       		.byte	0x78
 12408 4a71 00       		.sleb128 0
 12409 4a72 40       		.uleb128 0x40
 12410 4a73 02       		.uleb128 0x2
 12411 4a74 7D       		.byte	0x7d
 12412 4a75 00       		.sleb128 0
 12413 4a76 02       		.uleb128 0x2
 12414 4a77 76       		.byte	0x76
 12415 4a78 00       		.sleb128 0
 12416 4a79 00       		.byte	0
 12417 4a7a 48       		.uleb128 0x48
 12418 4a7b 7A000000 		.4byte	.LVL86
 12419 4a7f 3D4E0000 		.4byte	0x4e3d
 12420 4a83 40       		.uleb128 0x40
 12421 4a84 01       		.uleb128 0x1
 12422 4a85 50       		.byte	0x50
 12423 4a86 03       		.uleb128 0x3
 12424 4a87 91       		.byte	0x91
 12425 4a88 987F     		.sleb128 -104
 12426 4a8a 40       		.uleb128 0x40
 12427 4a8b 01       		.uleb128 0x1
 12428 4a8c 51       		.byte	0x51
 12429 4a8d 01       		.uleb128 0x1
 12430 4a8e 33       		.byte	0x33
 12431 4a8f 00       		.byte	0
 12432 4a90 00       		.byte	0
 12433 4a91 36       		.uleb128 0x36
 12434 4a92 C6000000 		.4byte	.LVL93
 12435 4a96 294E0000 		.4byte	0x4e29
 12436 4a9a 00       		.byte	0
 12437 4a9b 05       		.uleb128 0x5
 12438 4a9c 04       		.byte	0x4
 12439 4a9d 2C000000 		.4byte	0x2c
 12440 4aa1 4A       		.uleb128 0x4a
ARM GAS  /var/folders/qd/4mxf5pkd0zdf0b9dd1hp39180000gn/T//ccsf5yWP.s 			page 220


 12441 4aa2 44180000 		.4byte	.LASF904
 12442 4aa6 01       		.byte	0x1
 12443 4aa7 B4       		.byte	0xb4
 12444 4aa8 00000000 		.4byte	.LFB262
 12445 4aac 7C010000 		.4byte	.LFE262-.LFB262
 12446 4ab0 01       		.uleb128 0x1
 12447 4ab1 9C       		.byte	0x9c
 12448 4ab2 864B0000 		.4byte	0x4b86
 12449 4ab6 4B       		.uleb128 0x4b
 12450 4ab7 8B030000 		.4byte	.LASF884
 12451 4abb 01       		.byte	0x1
 12452 4abc B4       		.byte	0xb4
 12453 4abd B2090000 		.4byte	0x9b2
 12454 4ac1 60080000 		.4byte	.LLST8
 12455 4ac5 4B       		.uleb128 0x4b
 12456 4ac6 EA170000 		.4byte	.LASF885
 12457 4aca 01       		.byte	0x1
 12458 4acb B4       		.byte	0xb4
 12459 4acc 2C000000 		.4byte	0x2c
 12460 4ad0 8F080000 		.4byte	.LLST9
 12461 4ad4 31       		.uleb128 0x31
 12462 4ad5 F0190000 		.4byte	.LASF860
 12463 4ad9 01       		.byte	0x1
 12464 4ada B9       		.byte	0xb9
 12465 4adb 24410000 		.4byte	0x4124
 12466 4adf 03       		.uleb128 0x3
 12467 4ae0 91       		.byte	0x91
 12468 4ae1 907F     		.sleb128 -112
 12469 4ae3 51       		.uleb128 0x51
 12470 4ae4 0C4D0000 		.4byte	0x4d0c
 12471 4ae8 E8000000 		.4byte	.LBB30
 12472 4aec 18000000 		.4byte	.Ldebug_ranges0+0x18
 12473 4af0 01       		.byte	0x1
 12474 4af1 B8       		.byte	0xb8
 12475 4af2 004B0000 		.4byte	0x4b00
 12476 4af6 3E       		.uleb128 0x3e
 12477 4af7 184D0000 		.4byte	0x4d18
 12478 4afb CB080000 		.4byte	.LLST10
 12479 4aff 00       		.byte	0
 12480 4b00 3F       		.uleb128 0x3f
 12481 4b01 30000000 		.4byte	.LVL56
 12482 4b05 8A4E0000 		.4byte	0x4e8a
 12483 4b09 1C4B0000 		.4byte	0x4b1c
 12484 4b0d 40       		.uleb128 0x40
 12485 4b0e 08       		.uleb128 0x8
 12486 4b0f 90       		.byte	0x90
 12487 4b10 40       		.uleb128 0x40
 12488 4b11 93       		.byte	0x93
 12489 4b12 04       		.uleb128 0x4
 12490 4b13 90       		.byte	0x90
 12491 4b14 41       		.uleb128 0x41
 12492 4b15 93       		.byte	0x93
 12493 4b16 04       		.uleb128 0x4
 12494 4b17 03       		.uleb128 0x3
 12495 4b18 F5       		.byte	0xf5
 12496 4b19 52       		.uleb128 0x52
 12497 4b1a 25       		.uleb128 0x25
ARM GAS  /var/folders/qd/4mxf5pkd0zdf0b9dd1hp39180000gn/T//ccsf5yWP.s 			page 221


 12498 4b1b 00       		.byte	0
 12499 4b1c 3F       		.uleb128 0x3f
 12500 4b1d 4A000000 		.4byte	.LVL58
 12501 4b21 954E0000 		.4byte	0x4e95
 12502 4b25 384B0000 		.4byte	0x4b38
 12503 4b29 40       		.uleb128 0x40
 12504 4b2a 08       		.uleb128 0x8
 12505 4b2b 90       		.byte	0x90
 12506 4b2c 40       		.uleb128 0x40
 12507 4b2d 93       		.byte	0x93
 12508 4b2e 04       		.uleb128 0x4
 12509 4b2f 90       		.byte	0x90
 12510 4b30 41       		.uleb128 0x41
 12511 4b31 93       		.byte	0x93
 12512 4b32 04       		.uleb128 0x4
 12513 4b33 03       		.uleb128 0x3
 12514 4b34 F5       		.byte	0xf5
 12515 4b35 52       		.uleb128 0x52
 12516 4b36 25       		.uleb128 0x25
 12517 4b37 00       		.byte	0
 12518 4b38 3F       		.uleb128 0x3f
 12519 4b39 4C010000 		.4byte	.LVL75
 12520 4b3d 324E0000 		.4byte	0x4e32
 12521 4b41 624B0000 		.4byte	0x4b62
 12522 4b45 40       		.uleb128 0x40
 12523 4b46 01       		.uleb128 0x1
 12524 4b47 50       		.byte	0x50
 12525 4b48 03       		.uleb128 0x3
 12526 4b49 91       		.byte	0x91
 12527 4b4a 907F     		.sleb128 -112
 12528 4b4c 40       		.uleb128 0x40
 12529 4b4d 01       		.uleb128 0x1
 12530 4b4e 51       		.byte	0x51
 12531 4b4f 05       		.uleb128 0x5
 12532 4b50 03       		.byte	0x3
 12533 4b51 00000000 		.4byte	.LC2
 12534 4b55 40       		.uleb128 0x40
 12535 4b56 01       		.uleb128 0x1
 12536 4b57 52       		.byte	0x52
 12537 4b58 02       		.uleb128 0x2
 12538 4b59 7A       		.byte	0x7a
 12539 4b5a 00       		.sleb128 0
 12540 4b5b 40       		.uleb128 0x40
 12541 4b5c 01       		.uleb128 0x1
 12542 4b5d 53       		.byte	0x53
 12543 4b5e 02       		.uleb128 0x2
 12544 4b5f 76       		.byte	0x76
 12545 4b60 00       		.sleb128 0
 12546 4b61 00       		.byte	0
 12547 4b62 3F       		.uleb128 0x3f
 12548 4b63 54010000 		.4byte	.LVL76
 12549 4b67 3D4E0000 		.4byte	0x4e3d
 12550 4b6b 7C4B0000 		.4byte	0x4b7c
 12551 4b6f 40       		.uleb128 0x40
 12552 4b70 01       		.uleb128 0x1
 12553 4b71 50       		.byte	0x50
 12554 4b72 03       		.uleb128 0x3
ARM GAS  /var/folders/qd/4mxf5pkd0zdf0b9dd1hp39180000gn/T//ccsf5yWP.s 			page 222


 12555 4b73 91       		.byte	0x91
 12556 4b74 907F     		.sleb128 -112
 12557 4b76 40       		.uleb128 0x40
 12558 4b77 01       		.uleb128 0x1
 12559 4b78 51       		.byte	0x51
 12560 4b79 01       		.uleb128 0x1
 12561 4b7a 33       		.byte	0x33
 12562 4b7b 00       		.byte	0
 12563 4b7c 36       		.uleb128 0x36
 12564 4b7d 6A010000 		.4byte	.LVL79
 12565 4b81 294E0000 		.4byte	0x4e29
 12566 4b85 00       		.byte	0
 12567 4b86 4F       		.uleb128 0x4f
 12568 4b87 B91B0000 		.4byte	.LASF905
 12569 4b8b 01       		.byte	0x1
 12570 4b8c A9       		.byte	0xa9
 12571 4b8d B2090000 		.4byte	0x9b2
 12572 4b91 00000000 		.4byte	.LFB261
 12573 4b95 DC000000 		.4byte	.LFE261-.LFB261
 12574 4b99 01       		.uleb128 0x1
 12575 4b9a 9C       		.byte	0x9c
 12576 4b9b 524C0000 		.4byte	0x4c52
 12577 4b9f 4B       		.uleb128 0x4b
 12578 4ba0 7A000000 		.4byte	.LASF851
 12579 4ba4 01       		.byte	0x1
 12580 4ba5 A9       		.byte	0xa9
 12581 4ba6 6E3F0000 		.4byte	0x3f6e
 12582 4baa E3080000 		.4byte	.LLST6
 12583 4bae 58       		.uleb128 0x58
 12584 4baf FB120000 		.4byte	.LASF855
 12585 4bb3 01       		.byte	0x1
 12586 4bb4 AA       		.byte	0xaa
 12587 4bb5 B2090000 		.4byte	0x9b2
 12588 4bb9 0F090000 		.4byte	.LLST7
 12589 4bbd 31       		.uleb128 0x31
 12590 4bbe F0190000 		.4byte	.LASF860
 12591 4bc2 01       		.byte	0x1
 12592 4bc3 AD       		.byte	0xad
 12593 4bc4 24410000 		.4byte	0x4124
 12594 4bc8 03       		.uleb128 0x3
 12595 4bc9 91       		.byte	0x91
 12596 4bca A07F     		.sleb128 -96
 12597 4bcc 3F       		.uleb128 0x3f
 12598 4bcd 2A000000 		.4byte	.LVL31
 12599 4bd1 954E0000 		.4byte	0x4e95
 12600 4bd5 E84B0000 		.4byte	0x4be8
 12601 4bd9 40       		.uleb128 0x40
 12602 4bda 08       		.uleb128 0x8
 12603 4bdb 90       		.byte	0x90
 12604 4bdc 40       		.uleb128 0x40
 12605 4bdd 93       		.byte	0x93
 12606 4bde 04       		.uleb128 0x4
 12607 4bdf 90       		.byte	0x90
 12608 4be0 41       		.uleb128 0x41
 12609 4be1 93       		.byte	0x93
 12610 4be2 04       		.uleb128 0x4
 12611 4be3 03       		.uleb128 0x3
ARM GAS  /var/folders/qd/4mxf5pkd0zdf0b9dd1hp39180000gn/T//ccsf5yWP.s 			page 223


 12612 4be4 F5       		.byte	0xf5
 12613 4be5 50       		.uleb128 0x50
 12614 4be6 25       		.uleb128 0x25
 12615 4be7 00       		.byte	0
 12616 4be8 3F       		.uleb128 0x3f
 12617 4be9 6E000000 		.4byte	.LVL38
 12618 4bed 8A4E0000 		.4byte	0x4e8a
 12619 4bf1 044C0000 		.4byte	0x4c04
 12620 4bf5 40       		.uleb128 0x40
 12621 4bf6 08       		.uleb128 0x8
 12622 4bf7 90       		.byte	0x90
 12623 4bf8 40       		.uleb128 0x40
 12624 4bf9 93       		.byte	0x93
 12625 4bfa 04       		.uleb128 0x4
 12626 4bfb 90       		.byte	0x90
 12627 4bfc 41       		.uleb128 0x41
 12628 4bfd 93       		.byte	0x93
 12629 4bfe 04       		.uleb128 0x4
 12630 4bff 03       		.uleb128 0x3
 12631 4c00 F5       		.byte	0xf5
 12632 4c01 50       		.uleb128 0x50
 12633 4c02 25       		.uleb128 0x25
 12634 4c03 00       		.byte	0
 12635 4c04 3F       		.uleb128 0x3f
 12636 4c05 AE000000 		.4byte	.LVL46
 12637 4c09 324E0000 		.4byte	0x4e32
 12638 4c0d 2E4C0000 		.4byte	0x4c2e
 12639 4c11 40       		.uleb128 0x40
 12640 4c12 01       		.uleb128 0x1
 12641 4c13 50       		.byte	0x50
 12642 4c14 03       		.uleb128 0x3
 12643 4c15 91       		.byte	0x91
 12644 4c16 A07F     		.sleb128 -96
 12645 4c18 40       		.uleb128 0x40
 12646 4c19 01       		.uleb128 0x1
 12647 4c1a 51       		.byte	0x51
 12648 4c1b 05       		.uleb128 0x5
 12649 4c1c 03       		.byte	0x3
 12650 4c1d 00000000 		.4byte	.LC1
 12651 4c21 40       		.uleb128 0x40
 12652 4c22 01       		.uleb128 0x1
 12653 4c23 52       		.byte	0x52
 12654 4c24 02       		.uleb128 0x2
 12655 4c25 76       		.byte	0x76
 12656 4c26 00       		.sleb128 0
 12657 4c27 40       		.uleb128 0x40
 12658 4c28 01       		.uleb128 0x1
 12659 4c29 53       		.byte	0x53
 12660 4c2a 02       		.uleb128 0x2
 12661 4c2b 74       		.byte	0x74
 12662 4c2c 00       		.sleb128 0
 12663 4c2d 00       		.byte	0
 12664 4c2e 3F       		.uleb128 0x3f
 12665 4c2f B6000000 		.4byte	.LVL47
 12666 4c33 3D4E0000 		.4byte	0x4e3d
 12667 4c37 484C0000 		.4byte	0x4c48
 12668 4c3b 40       		.uleb128 0x40
ARM GAS  /var/folders/qd/4mxf5pkd0zdf0b9dd1hp39180000gn/T//ccsf5yWP.s 			page 224


 12669 4c3c 01       		.uleb128 0x1
 12670 4c3d 50       		.byte	0x50
 12671 4c3e 03       		.uleb128 0x3
 12672 4c3f 91       		.byte	0x91
 12673 4c40 A07F     		.sleb128 -96
 12674 4c42 40       		.uleb128 0x40
 12675 4c43 01       		.uleb128 0x1
 12676 4c44 51       		.byte	0x51
 12677 4c45 01       		.uleb128 0x1
 12678 4c46 33       		.byte	0x33
 12679 4c47 00       		.byte	0
 12680 4c48 36       		.uleb128 0x36
 12681 4c49 D2000000 		.4byte	.LVL50
 12682 4c4d 294E0000 		.4byte	0x4e29
 12683 4c51 00       		.byte	0
 12684 4c52 4F       		.uleb128 0x4f
 12685 4c53 FE090000 		.4byte	.LASF906
 12686 4c57 01       		.byte	0x1
 12687 4c58 9C       		.byte	0x9c
 12688 4c59 8A090000 		.4byte	0x98a
 12689 4c5d 00000000 		.4byte	.LFB260
 12690 4c61 58010000 		.4byte	.LFE260-.LFB260
 12691 4c65 01       		.uleb128 0x1
 12692 4c66 9C       		.byte	0x9c
 12693 4c67 064D0000 		.4byte	0x4d06
 12694 4c6b 4B       		.uleb128 0x4b
 12695 4c6c 70210000 		.4byte	.LASF907
 12696 4c70 01       		.byte	0x1
 12697 4c71 9C       		.byte	0x9c
 12698 4c72 064D0000 		.4byte	0x4d06
 12699 4c76 65090000 		.4byte	.LLST1
 12700 4c7a 4B       		.uleb128 0x4b
 12701 4c7b BA090000 		.4byte	.LASF889
 12702 4c7f 01       		.byte	0x1
 12703 4c80 9D       		.byte	0x9d
 12704 4c81 8C480000 		.4byte	0x488c
 12705 4c85 83090000 		.4byte	.LLST2
 12706 4c89 4B       		.uleb128 0x4b
 12707 4c8a 270C0000 		.4byte	.LASF890
 12708 4c8e 01       		.byte	0x1
 12709 4c8f 9D       		.byte	0x9d
 12710 4c90 33000000 		.4byte	0x33
 12711 4c94 A4090000 		.4byte	.LLST3
 12712 4c98 58       		.uleb128 0x58
 12713 4c99 151C0000 		.4byte	.LASF908
 12714 4c9d 01       		.byte	0x1
 12715 4c9e 9E       		.byte	0x9e
 12716 4c9f 8A090000 		.4byte	0x98a
 12717 4ca3 D1090000 		.4byte	.LLST4
 12718 4ca7 51       		.uleb128 0x51
 12719 4ca8 0C4D0000 		.4byte	0x4d0c
 12720 4cac E2000000 		.4byte	.LBB26
 12721 4cb0 00000000 		.4byte	.Ldebug_ranges0+0
 12722 4cb4 01       		.byte	0x1
 12723 4cb5 A4       		.byte	0xa4
 12724 4cb6 C44C0000 		.4byte	0x4cc4
 12725 4cba 3E       		.uleb128 0x3e
ARM GAS  /var/folders/qd/4mxf5pkd0zdf0b9dd1hp39180000gn/T//ccsf5yWP.s 			page 225


 12726 4cbb 184D0000 		.4byte	0x4d18
 12727 4cbf 450A0000 		.4byte	.LLST5
 12728 4cc3 00       		.byte	0
 12729 4cc4 3F       		.uleb128 0x3f
 12730 4cc5 58000000 		.4byte	.LVL7
 12731 4cc9 8A4E0000 		.4byte	0x4e8a
 12732 4ccd E04C0000 		.4byte	0x4ce0
 12733 4cd1 40       		.uleb128 0x40
 12734 4cd2 08       		.uleb128 0x8
 12735 4cd3 90       		.byte	0x90
 12736 4cd4 40       		.uleb128 0x40
 12737 4cd5 93       		.byte	0x93
 12738 4cd6 04       		.uleb128 0x4
 12739 4cd7 90       		.byte	0x90
 12740 4cd8 41       		.uleb128 0x41
 12741 4cd9 93       		.byte	0x93
 12742 4cda 04       		.uleb128 0x4
 12743 4cdb 03       		.uleb128 0x3
 12744 4cdc F5       		.byte	0xf5
 12745 4cdd 54       		.uleb128 0x54
 12746 4cde 25       		.uleb128 0x25
 12747 4cdf 00       		.byte	0
 12748 4ce0 3F       		.uleb128 0x3f
 12749 4ce1 9E000000 		.4byte	.LVL14
 12750 4ce5 954E0000 		.4byte	0x4e95
 12751 4ce9 FC4C0000 		.4byte	0x4cfc
 12752 4ced 40       		.uleb128 0x40
 12753 4cee 08       		.uleb128 0x8
 12754 4cef 90       		.byte	0x90
 12755 4cf0 40       		.uleb128 0x40
 12756 4cf1 93       		.byte	0x93
 12757 4cf2 04       		.uleb128 0x4
 12758 4cf3 90       		.byte	0x90
 12759 4cf4 41       		.uleb128 0x41
 12760 4cf5 93       		.byte	0x93
 12761 4cf6 04       		.uleb128 0x4
 12762 4cf7 03       		.uleb128 0x3
 12763 4cf8 F5       		.byte	0xf5
 12764 4cf9 54       		.uleb128 0x54
 12765 4cfa 25       		.uleb128 0x25
 12766 4cfb 00       		.byte	0
 12767 4cfc 36       		.uleb128 0x36
 12768 4cfd 42010000 		.4byte	.LVL27
 12769 4d01 294E0000 		.4byte	0x4e29
 12770 4d05 00       		.byte	0
 12771 4d06 05       		.uleb128 0x5
 12772 4d07 04       		.byte	0x4
 12773 4d08 8A090000 		.4byte	0x98a
 12774 4d0c 59       		.uleb128 0x59
 12775 4d0d 38000000 		.4byte	.LASF922
 12776 4d11 01       		.byte	0x1
 12777 4d12 96       		.byte	0x96
 12778 4d13 01       		.byte	0x1
 12779 4d14 244D0000 		.4byte	0x4d24
 12780 4d18 53       		.uleb128 0x53
 12781 4d19 93010000 		.4byte	.LASF863
 12782 4d1d 01       		.byte	0x1
ARM GAS  /var/folders/qd/4mxf5pkd0zdf0b9dd1hp39180000gn/T//ccsf5yWP.s 			page 226


 12783 4d1e 96       		.byte	0x96
 12784 4d1f 9B4A0000 		.4byte	0x4a9b
 12785 4d23 00       		.byte	0
 12786 4d24 5A       		.uleb128 0x5a
 12787 4d25 0C4D0000 		.4byte	0x4d0c
 12788 4d29 00000000 		.4byte	.LFB259
 12789 4d2d 68000000 		.4byte	.LFE259-.LFB259
 12790 4d31 01       		.uleb128 0x1
 12791 4d32 9C       		.byte	0x9c
 12792 4d33 4A4D0000 		.4byte	0x4d4a
 12793 4d37 3E       		.uleb128 0x3e
 12794 4d38 184D0000 		.4byte	0x4d18
 12795 4d3c 5D0A0000 		.4byte	.LLST0
 12796 4d40 36       		.uleb128 0x36
 12797 4d41 60000000 		.4byte	.LVL1
 12798 4d45 294E0000 		.4byte	0x4e29
 12799 4d49 00       		.byte	0
 12800 4d4a 5B       		.uleb128 0x5b
 12801 4d4b 92490000 		.4byte	0x4992
 12802 4d4f 00000000 		.4byte	.LFB264
 12803 4d53 50000000 		.4byte	.LFE264-.LFB264
 12804 4d57 01       		.uleb128 0x1
 12805 4d58 9C       		.byte	0x9c
 12806 4d59 824D0000 		.4byte	0x4d82
 12807 4d5d 3E       		.uleb128 0x3e
 12808 4d5e A2490000 		.4byte	0x49a2
 12809 4d62 7E0A0000 		.4byte	.LLST19
 12810 4d66 3E       		.uleb128 0x3e
 12811 4d67 AD490000 		.4byte	0x49ad
 12812 4d6b AA0A0000 		.4byte	.LLST20
 12813 4d6f 36       		.uleb128 0x36
 12814 4d70 34000000 		.4byte	.LVL96
 12815 4d74 7F4E0000 		.4byte	0x4e7f
 12816 4d78 36       		.uleb128 0x36
 12817 4d79 4C000000 		.4byte	.LVL100
 12818 4d7d 294E0000 		.4byte	0x4e29
 12819 4d81 00       		.byte	0
 12820 4d82 5A       		.uleb128 0x5a
 12821 4d83 6B490000 		.4byte	0x496b
 12822 4d87 00000000 		.4byte	.LFB265
 12823 4d8b 44000000 		.4byte	.LFE265-.LFB265
 12824 4d8f 01       		.uleb128 0x1
 12825 4d90 9C       		.byte	0x9c
 12826 4d91 B14D0000 		.4byte	0x4db1
 12827 4d95 3E       		.uleb128 0x3e
 12828 4d96 7B490000 		.4byte	0x497b
 12829 4d9a F90A0000 		.4byte	.LLST21
 12830 4d9e 3E       		.uleb128 0x3e
 12831 4d9f 86490000 		.4byte	0x4986
 12832 4da3 460B0000 		.4byte	.LLST22
 12833 4da7 36       		.uleb128 0x36
 12834 4da8 40000000 		.4byte	.LVL107
 12835 4dac 294E0000 		.4byte	0x4e29
 12836 4db0 00       		.byte	0
 12837 4db1 5A       		.uleb128 0x5a
 12838 4db2 44490000 		.4byte	0x4944
 12839 4db6 00000000 		.4byte	.LFB266
ARM GAS  /var/folders/qd/4mxf5pkd0zdf0b9dd1hp39180000gn/T//ccsf5yWP.s 			page 227


 12840 4dba 78000000 		.4byte	.LFE266-.LFB266
 12841 4dbe 01       		.uleb128 0x1
 12842 4dbf 9C       		.byte	0x9c
 12843 4dc0 0C4E0000 		.4byte	0x4e0c
 12844 4dc4 3E       		.uleb128 0x3e
 12845 4dc5 54490000 		.4byte	0x4954
 12846 4dc9 910B0000 		.4byte	.LLST23
 12847 4dcd 46       		.uleb128 0x46
 12848 4dce 58000000 		.4byte	.Ldebug_ranges0+0x58
 12849 4dd2 024E0000 		.4byte	0x4e02
 12850 4dd6 5C       		.uleb128 0x5c
 12851 4dd7 60490000 		.4byte	0x4960
 12852 4ddb 0F0C0000 		.4byte	.LLST24
 12853 4ddf 3D       		.uleb128 0x3d
 12854 4de0 6B490000 		.4byte	0x496b
 12855 4de4 1E000000 		.4byte	.LBB40
 12856 4de8 88000000 		.4byte	.Ldebug_ranges0+0x88
 12857 4dec 01       		.byte	0x1
 12858 4ded DD       		.byte	0xdd
 12859 4dee 3E       		.uleb128 0x3e
 12860 4def 86490000 		.4byte	0x4986
 12861 4df3 2E0C0000 		.4byte	.LLST25
 12862 4df7 3E       		.uleb128 0x3e
 12863 4df8 7B490000 		.4byte	0x497b
 12864 4dfc 880C0000 		.4byte	.LLST26
 12865 4e00 00       		.byte	0
 12866 4e01 00       		.byte	0
 12867 4e02 36       		.uleb128 0x36
 12868 4e03 6C000000 		.4byte	.LVL119
 12869 4e07 294E0000 		.4byte	0x4e29
 12870 4e0b 00       		.byte	0
 12871 4e0c 5A       		.uleb128 0x5a
 12872 4e0d 92480000 		.4byte	0x4892
 12873 4e11 00000000 		.4byte	.LFB269
 12874 4e15 30000000 		.4byte	.LFE269-.LFB269
 12875 4e19 01       		.uleb128 0x1
 12876 4e1a 9C       		.byte	0x9c
 12877 4e1b 294E0000 		.4byte	0x4e29
 12878 4e1f 36       		.uleb128 0x36
 12879 4e20 26000000 		.4byte	.LVL130
 12880 4e24 294E0000 		.4byte	0x4e29
 12881 4e28 00       		.byte	0
 12882 4e29 5D       		.uleb128 0x5d
 12883 4e2a 3C060000 		.4byte	.LASF923
 12884 4e2e 3C060000 		.4byte	.LASF923
 12885 4e32 5E       		.uleb128 0x5e
 12886 4e33 F6070000 		.4byte	.LASF909
 12887 4e37 F6070000 		.4byte	.LASF909
 12888 4e3b 39       		.byte	0x39
 12889 4e3c F4       		.byte	0xf4
 12890 4e3d 5E       		.uleb128 0x5e
 12891 4e3e AF170000 		.4byte	.LASF910
 12892 4e42 AF170000 		.4byte	.LASF910
 12893 4e46 3A       		.byte	0x3a
 12894 4e47 2C       		.byte	0x2c
 12895 4e48 5E       		.uleb128 0x5e
 12896 4e49 601B0000 		.4byte	.LASF911
ARM GAS  /var/folders/qd/4mxf5pkd0zdf0b9dd1hp39180000gn/T//ccsf5yWP.s 			page 228


 12897 4e4d 601B0000 		.4byte	.LASF911
 12898 4e51 38       		.byte	0x38
 12899 4e52 8D       		.byte	0x8d
 12900 4e53 5E       		.uleb128 0x5e
 12901 4e54 37090000 		.4byte	.LASF912
 12902 4e58 37090000 		.4byte	.LASF912
 12903 4e5c 38       		.byte	0x38
 12904 4e5d 68       		.byte	0x68
 12905 4e5e 5E       		.uleb128 0x5e
 12906 4e5f 5C160000 		.4byte	.LASF913
 12907 4e63 5C160000 		.4byte	.LASF913
 12908 4e67 3B       		.byte	0x3b
 12909 4e68 11       		.byte	0x11
 12910 4e69 5E       		.uleb128 0x5e
 12911 4e6a 32050000 		.4byte	.LASF914
 12912 4e6e 32050000 		.4byte	.LASF914
 12913 4e72 38       		.byte	0x38
 12914 4e73 5D       		.byte	0x5d
 12915 4e74 5E       		.uleb128 0x5e
 12916 4e75 F7210000 		.4byte	.LASF915
 12917 4e79 F7210000 		.4byte	.LASF915
 12918 4e7d 07       		.byte	0x7
 12919 4e7e 56       		.byte	0x56
 12920 4e7f 5E       		.uleb128 0x5e
 12921 4e80 D6250000 		.4byte	.LASF916
 12922 4e84 D6250000 		.4byte	.LASF916
 12923 4e88 07       		.byte	0x7
 12924 4e89 70       		.byte	0x70
 12925 4e8a 5F       		.uleb128 0x5f
 12926 4e8b 636F7300 		.ascii	"cos\000"
 12927 4e8f 636F7300 		.ascii	"cos\000"
 12928 4e93 07       		.byte	0x7
 12929 4e94 57       		.byte	0x57
 12930 4e95 5F       		.uleb128 0x5f
 12931 4e96 73696E00 		.ascii	"sin\000"
 12932 4e9a 73696E00 		.ascii	"sin\000"
 12933 4e9e 07       		.byte	0x7
 12934 4e9f 58       		.byte	0x58
 12935 4ea0 00       		.byte	0
 12936              		.section	.debug_abbrev,"",%progbits
 12937              	.Ldebug_abbrev0:
 12938 0000 01       		.uleb128 0x1
 12939 0001 11       		.uleb128 0x11
 12940 0002 01       		.byte	0x1
 12941 0003 25       		.uleb128 0x25
 12942 0004 0E       		.uleb128 0xe
 12943 0005 13       		.uleb128 0x13
 12944 0006 0B       		.uleb128 0xb
 12945 0007 03       		.uleb128 0x3
 12946 0008 0E       		.uleb128 0xe
 12947 0009 1B       		.uleb128 0x1b
 12948 000a 0E       		.uleb128 0xe
 12949 000b 55       		.uleb128 0x55
 12950 000c 17       		.uleb128 0x17
 12951 000d 11       		.uleb128 0x11
 12952 000e 01       		.uleb128 0x1
 12953 000f 10       		.uleb128 0x10
ARM GAS  /var/folders/qd/4mxf5pkd0zdf0b9dd1hp39180000gn/T//ccsf5yWP.s 			page 229


 12954 0010 17       		.uleb128 0x17
 12955 0011 00       		.byte	0
 12956 0012 00       		.byte	0
 12957 0013 02       		.uleb128 0x2
 12958 0014 24       		.uleb128 0x24
 12959 0015 00       		.byte	0
 12960 0016 0B       		.uleb128 0xb
 12961 0017 0B       		.uleb128 0xb
 12962 0018 3E       		.uleb128 0x3e
 12963 0019 0B       		.uleb128 0xb
 12964 001a 03       		.uleb128 0x3
 12965 001b 0E       		.uleb128 0xe
 12966 001c 00       		.byte	0
 12967 001d 00       		.byte	0
 12968 001e 03       		.uleb128 0x3
 12969 001f 24       		.uleb128 0x24
 12970 0020 00       		.byte	0
 12971 0021 0B       		.uleb128 0xb
 12972 0022 0B       		.uleb128 0xb
 12973 0023 3E       		.uleb128 0x3e
 12974 0024 0B       		.uleb128 0xb
 12975 0025 03       		.uleb128 0x3
 12976 0026 08       		.uleb128 0x8
 12977 0027 00       		.byte	0
 12978 0028 00       		.byte	0
 12979 0029 04       		.uleb128 0x4
 12980 002a 16       		.uleb128 0x16
 12981 002b 00       		.byte	0
 12982 002c 03       		.uleb128 0x3
 12983 002d 0E       		.uleb128 0xe
 12984 002e 3A       		.uleb128 0x3a
 12985 002f 0B       		.uleb128 0xb
 12986 0030 3B       		.uleb128 0x3b
 12987 0031 0B       		.uleb128 0xb
 12988 0032 49       		.uleb128 0x49
 12989 0033 13       		.uleb128 0x13
 12990 0034 00       		.byte	0
 12991 0035 00       		.byte	0
 12992 0036 05       		.uleb128 0x5
 12993 0037 0F       		.uleb128 0xf
 12994 0038 00       		.byte	0
 12995 0039 0B       		.uleb128 0xb
 12996 003a 0B       		.uleb128 0xb
 12997 003b 49       		.uleb128 0x49
 12998 003c 13       		.uleb128 0x13
 12999 003d 00       		.byte	0
 13000 003e 00       		.byte	0
 13001 003f 06       		.uleb128 0x6
 13002 0040 13       		.uleb128 0x13
 13003 0041 00       		.byte	0
 13004 0042 03       		.uleb128 0x3
 13005 0043 0E       		.uleb128 0xe
 13006 0044 3C       		.uleb128 0x3c
 13007 0045 19       		.uleb128 0x19
 13008 0046 00       		.byte	0
 13009 0047 00       		.byte	0
 13010 0048 07       		.uleb128 0x7
ARM GAS  /var/folders/qd/4mxf5pkd0zdf0b9dd1hp39180000gn/T//ccsf5yWP.s 			page 230


 13011 0049 16       		.uleb128 0x16
 13012 004a 00       		.byte	0
 13013 004b 03       		.uleb128 0x3
 13014 004c 0E       		.uleb128 0xe
 13015 004d 3A       		.uleb128 0x3a
 13016 004e 0B       		.uleb128 0xb
 13017 004f 3B       		.uleb128 0x3b
 13018 0050 05       		.uleb128 0x5
 13019 0051 49       		.uleb128 0x49
 13020 0052 13       		.uleb128 0x13
 13021 0053 00       		.byte	0
 13022 0054 00       		.byte	0
 13023 0055 08       		.uleb128 0x8
 13024 0056 17       		.uleb128 0x17
 13025 0057 01       		.byte	0x1
 13026 0058 0B       		.uleb128 0xb
 13027 0059 0B       		.uleb128 0xb
 13028 005a 3A       		.uleb128 0x3a
 13029 005b 0B       		.uleb128 0xb
 13030 005c 3B       		.uleb128 0x3b
 13031 005d 0B       		.uleb128 0xb
 13032 005e 01       		.uleb128 0x1
 13033 005f 13       		.uleb128 0x13
 13034 0060 00       		.byte	0
 13035 0061 00       		.byte	0
 13036 0062 09       		.uleb128 0x9
 13037 0063 0D       		.uleb128 0xd
 13038 0064 00       		.byte	0
 13039 0065 03       		.uleb128 0x3
 13040 0066 0E       		.uleb128 0xe
 13041 0067 3A       		.uleb128 0x3a
 13042 0068 0B       		.uleb128 0xb
 13043 0069 3B       		.uleb128 0x3b
 13044 006a 0B       		.uleb128 0xb
 13045 006b 49       		.uleb128 0x49
 13046 006c 13       		.uleb128 0x13
 13047 006d 00       		.byte	0
 13048 006e 00       		.byte	0
 13049 006f 0A       		.uleb128 0xa
 13050 0070 01       		.uleb128 0x1
 13051 0071 01       		.byte	0x1
 13052 0072 49       		.uleb128 0x49
 13053 0073 13       		.uleb128 0x13
 13054 0074 01       		.uleb128 0x1
 13055 0075 13       		.uleb128 0x13
 13056 0076 00       		.byte	0
 13057 0077 00       		.byte	0
 13058 0078 0B       		.uleb128 0xb
 13059 0079 21       		.uleb128 0x21
 13060 007a 00       		.byte	0
 13061 007b 49       		.uleb128 0x49
 13062 007c 13       		.uleb128 0x13
 13063 007d 2F       		.uleb128 0x2f
 13064 007e 0B       		.uleb128 0xb
 13065 007f 00       		.byte	0
 13066 0080 00       		.byte	0
 13067 0081 0C       		.uleb128 0xc
ARM GAS  /var/folders/qd/4mxf5pkd0zdf0b9dd1hp39180000gn/T//ccsf5yWP.s 			page 231


 13068 0082 13       		.uleb128 0x13
 13069 0083 01       		.byte	0x1
 13070 0084 0B       		.uleb128 0xb
 13071 0085 0B       		.uleb128 0xb
 13072 0086 3A       		.uleb128 0x3a
 13073 0087 0B       		.uleb128 0xb
 13074 0088 3B       		.uleb128 0x3b
 13075 0089 0B       		.uleb128 0xb
 13076 008a 01       		.uleb128 0x1
 13077 008b 13       		.uleb128 0x13
 13078 008c 00       		.byte	0
 13079 008d 00       		.byte	0
 13080 008e 0D       		.uleb128 0xd
 13081 008f 0D       		.uleb128 0xd
 13082 0090 00       		.byte	0
 13083 0091 03       		.uleb128 0x3
 13084 0092 0E       		.uleb128 0xe
 13085 0093 3A       		.uleb128 0x3a
 13086 0094 0B       		.uleb128 0xb
 13087 0095 3B       		.uleb128 0x3b
 13088 0096 0B       		.uleb128 0xb
 13089 0097 49       		.uleb128 0x49
 13090 0098 13       		.uleb128 0x13
 13091 0099 38       		.uleb128 0x38
 13092 009a 0B       		.uleb128 0xb
 13093 009b 00       		.byte	0
 13094 009c 00       		.byte	0
 13095 009d 0E       		.uleb128 0xe
 13096 009e 0F       		.uleb128 0xf
 13097 009f 00       		.byte	0
 13098 00a0 0B       		.uleb128 0xb
 13099 00a1 0B       		.uleb128 0xb
 13100 00a2 00       		.byte	0
 13101 00a3 00       		.byte	0
 13102 00a4 0F       		.uleb128 0xf
 13103 00a5 26       		.uleb128 0x26
 13104 00a6 00       		.byte	0
 13105 00a7 49       		.uleb128 0x49
 13106 00a8 13       		.uleb128 0x13
 13107 00a9 00       		.byte	0
 13108 00aa 00       		.byte	0
 13109 00ab 10       		.uleb128 0x10
 13110 00ac 13       		.uleb128 0x13
 13111 00ad 01       		.byte	0x1
 13112 00ae 03       		.uleb128 0x3
 13113 00af 0E       		.uleb128 0xe
 13114 00b0 0B       		.uleb128 0xb
 13115 00b1 0B       		.uleb128 0xb
 13116 00b2 3A       		.uleb128 0x3a
 13117 00b3 0B       		.uleb128 0xb
 13118 00b4 3B       		.uleb128 0x3b
 13119 00b5 0B       		.uleb128 0xb
 13120 00b6 01       		.uleb128 0x1
 13121 00b7 13       		.uleb128 0x13
 13122 00b8 00       		.byte	0
 13123 00b9 00       		.byte	0
 13124 00ba 11       		.uleb128 0x11
ARM GAS  /var/folders/qd/4mxf5pkd0zdf0b9dd1hp39180000gn/T//ccsf5yWP.s 			page 232


 13125 00bb 0D       		.uleb128 0xd
 13126 00bc 00       		.byte	0
 13127 00bd 03       		.uleb128 0x3
 13128 00be 08       		.uleb128 0x8
 13129 00bf 3A       		.uleb128 0x3a
 13130 00c0 0B       		.uleb128 0xb
 13131 00c1 3B       		.uleb128 0x3b
 13132 00c2 0B       		.uleb128 0xb
 13133 00c3 49       		.uleb128 0x49
 13134 00c4 13       		.uleb128 0x13
 13135 00c5 38       		.uleb128 0x38
 13136 00c6 0B       		.uleb128 0xb
 13137 00c7 00       		.byte	0
 13138 00c8 00       		.byte	0
 13139 00c9 12       		.uleb128 0x12
 13140 00ca 13       		.uleb128 0x13
 13141 00cb 01       		.byte	0x1
 13142 00cc 03       		.uleb128 0x3
 13143 00cd 0E       		.uleb128 0xe
 13144 00ce 0B       		.uleb128 0xb
 13145 00cf 05       		.uleb128 0x5
 13146 00d0 3A       		.uleb128 0x3a
 13147 00d1 0B       		.uleb128 0xb
 13148 00d2 3B       		.uleb128 0x3b
 13149 00d3 0B       		.uleb128 0xb
 13150 00d4 01       		.uleb128 0x1
 13151 00d5 13       		.uleb128 0x13
 13152 00d6 00       		.byte	0
 13153 00d7 00       		.byte	0
 13154 00d8 13       		.uleb128 0x13
 13155 00d9 0D       		.uleb128 0xd
 13156 00da 00       		.byte	0
 13157 00db 03       		.uleb128 0x3
 13158 00dc 0E       		.uleb128 0xe
 13159 00dd 3A       		.uleb128 0x3a
 13160 00de 0B       		.uleb128 0xb
 13161 00df 3B       		.uleb128 0x3b
 13162 00e0 0B       		.uleb128 0xb
 13163 00e1 49       		.uleb128 0x49
 13164 00e2 13       		.uleb128 0x13
 13165 00e3 38       		.uleb128 0x38
 13166 00e4 05       		.uleb128 0x5
 13167 00e5 00       		.byte	0
 13168 00e6 00       		.byte	0
 13169 00e7 14       		.uleb128 0x14
 13170 00e8 15       		.uleb128 0x15
 13171 00e9 00       		.byte	0
 13172 00ea 27       		.uleb128 0x27
 13173 00eb 19       		.uleb128 0x19
 13174 00ec 00       		.byte	0
 13175 00ed 00       		.byte	0
 13176 00ee 15       		.uleb128 0x15
 13177 00ef 15       		.uleb128 0x15
 13178 00f0 01       		.byte	0x1
 13179 00f1 27       		.uleb128 0x27
 13180 00f2 19       		.uleb128 0x19
 13181 00f3 49       		.uleb128 0x49
ARM GAS  /var/folders/qd/4mxf5pkd0zdf0b9dd1hp39180000gn/T//ccsf5yWP.s 			page 233


 13182 00f4 13       		.uleb128 0x13
 13183 00f5 01       		.uleb128 0x1
 13184 00f6 13       		.uleb128 0x13
 13185 00f7 00       		.byte	0
 13186 00f8 00       		.byte	0
 13187 00f9 16       		.uleb128 0x16
 13188 00fa 05       		.uleb128 0x5
 13189 00fb 00       		.byte	0
 13190 00fc 49       		.uleb128 0x49
 13191 00fd 13       		.uleb128 0x13
 13192 00fe 00       		.byte	0
 13193 00ff 00       		.byte	0
 13194 0100 17       		.uleb128 0x17
 13195 0101 13       		.uleb128 0x13
 13196 0102 01       		.byte	0x1
 13197 0103 03       		.uleb128 0x3
 13198 0104 0E       		.uleb128 0xe
 13199 0105 0B       		.uleb128 0xb
 13200 0106 05       		.uleb128 0x5
 13201 0107 3A       		.uleb128 0x3a
 13202 0108 0B       		.uleb128 0xb
 13203 0109 3B       		.uleb128 0x3b
 13204 010a 05       		.uleb128 0x5
 13205 010b 01       		.uleb128 0x1
 13206 010c 13       		.uleb128 0x13
 13207 010d 00       		.byte	0
 13208 010e 00       		.byte	0
 13209 010f 18       		.uleb128 0x18
 13210 0110 0D       		.uleb128 0xd
 13211 0111 00       		.byte	0
 13212 0112 03       		.uleb128 0x3
 13213 0113 0E       		.uleb128 0xe
 13214 0114 3A       		.uleb128 0x3a
 13215 0115 0B       		.uleb128 0xb
 13216 0116 3B       		.uleb128 0x3b
 13217 0117 05       		.uleb128 0x5
 13218 0118 49       		.uleb128 0x49
 13219 0119 13       		.uleb128 0x13
 13220 011a 38       		.uleb128 0x38
 13221 011b 0B       		.uleb128 0xb
 13222 011c 00       		.byte	0
 13223 011d 00       		.byte	0
 13224 011e 19       		.uleb128 0x19
 13225 011f 0D       		.uleb128 0xd
 13226 0120 00       		.byte	0
 13227 0121 03       		.uleb128 0x3
 13228 0122 0E       		.uleb128 0xe
 13229 0123 3A       		.uleb128 0x3a
 13230 0124 0B       		.uleb128 0xb
 13231 0125 3B       		.uleb128 0x3b
 13232 0126 05       		.uleb128 0x5
 13233 0127 49       		.uleb128 0x49
 13234 0128 13       		.uleb128 0x13
 13235 0129 38       		.uleb128 0x38
 13236 012a 05       		.uleb128 0x5
 13237 012b 00       		.byte	0
 13238 012c 00       		.byte	0
ARM GAS  /var/folders/qd/4mxf5pkd0zdf0b9dd1hp39180000gn/T//ccsf5yWP.s 			page 234


 13239 012d 1A       		.uleb128 0x1a
 13240 012e 35       		.uleb128 0x35
 13241 012f 00       		.byte	0
 13242 0130 49       		.uleb128 0x49
 13243 0131 13       		.uleb128 0x13
 13244 0132 00       		.byte	0
 13245 0133 00       		.byte	0
 13246 0134 1B       		.uleb128 0x1b
 13247 0135 13       		.uleb128 0x13
 13248 0136 01       		.byte	0x1
 13249 0137 03       		.uleb128 0x3
 13250 0138 0E       		.uleb128 0xe
 13251 0139 0B       		.uleb128 0xb
 13252 013a 0B       		.uleb128 0xb
 13253 013b 3A       		.uleb128 0x3a
 13254 013c 0B       		.uleb128 0xb
 13255 013d 3B       		.uleb128 0x3b
 13256 013e 05       		.uleb128 0x5
 13257 013f 01       		.uleb128 0x1
 13258 0140 13       		.uleb128 0x13
 13259 0141 00       		.byte	0
 13260 0142 00       		.byte	0
 13261 0143 1C       		.uleb128 0x1c
 13262 0144 13       		.uleb128 0x13
 13263 0145 01       		.byte	0x1
 13264 0146 0B       		.uleb128 0xb
 13265 0147 0B       		.uleb128 0xb
 13266 0148 3A       		.uleb128 0x3a
 13267 0149 0B       		.uleb128 0xb
 13268 014a 3B       		.uleb128 0x3b
 13269 014b 05       		.uleb128 0x5
 13270 014c 01       		.uleb128 0x1
 13271 014d 13       		.uleb128 0x13
 13272 014e 00       		.byte	0
 13273 014f 00       		.byte	0
 13274 0150 1D       		.uleb128 0x1d
 13275 0151 17       		.uleb128 0x17
 13276 0152 01       		.byte	0x1
 13277 0153 0B       		.uleb128 0xb
 13278 0154 0B       		.uleb128 0xb
 13279 0155 3A       		.uleb128 0x3a
 13280 0156 0B       		.uleb128 0xb
 13281 0157 3B       		.uleb128 0x3b
 13282 0158 05       		.uleb128 0x5
 13283 0159 01       		.uleb128 0x1
 13284 015a 13       		.uleb128 0x13
 13285 015b 00       		.byte	0
 13286 015c 00       		.byte	0
 13287 015d 1E       		.uleb128 0x1e
 13288 015e 0D       		.uleb128 0xd
 13289 015f 00       		.byte	0
 13290 0160 03       		.uleb128 0x3
 13291 0161 0E       		.uleb128 0xe
 13292 0162 3A       		.uleb128 0x3a
 13293 0163 0B       		.uleb128 0xb
 13294 0164 3B       		.uleb128 0x3b
 13295 0165 05       		.uleb128 0x5
ARM GAS  /var/folders/qd/4mxf5pkd0zdf0b9dd1hp39180000gn/T//ccsf5yWP.s 			page 235


 13296 0166 49       		.uleb128 0x49
 13297 0167 13       		.uleb128 0x13
 13298 0168 00       		.byte	0
 13299 0169 00       		.byte	0
 13300 016a 1F       		.uleb128 0x1f
 13301 016b 15       		.uleb128 0x15
 13302 016c 01       		.byte	0x1
 13303 016d 27       		.uleb128 0x27
 13304 016e 19       		.uleb128 0x19
 13305 016f 01       		.uleb128 0x1
 13306 0170 13       		.uleb128 0x13
 13307 0171 00       		.byte	0
 13308 0172 00       		.byte	0
 13309 0173 20       		.uleb128 0x20
 13310 0174 34       		.uleb128 0x34
 13311 0175 00       		.byte	0
 13312 0176 03       		.uleb128 0x3
 13313 0177 0E       		.uleb128 0xe
 13314 0178 3A       		.uleb128 0x3a
 13315 0179 0B       		.uleb128 0xb
 13316 017a 3B       		.uleb128 0x3b
 13317 017b 05       		.uleb128 0x5
 13318 017c 49       		.uleb128 0x49
 13319 017d 13       		.uleb128 0x13
 13320 017e 3F       		.uleb128 0x3f
 13321 017f 19       		.uleb128 0x19
 13322 0180 3C       		.uleb128 0x3c
 13323 0181 19       		.uleb128 0x19
 13324 0182 00       		.byte	0
 13325 0183 00       		.byte	0
 13326 0184 21       		.uleb128 0x21
 13327 0185 04       		.uleb128 0x4
 13328 0186 01       		.byte	0x1
 13329 0187 03       		.uleb128 0x3
 13330 0188 0E       		.uleb128 0xe
 13331 0189 3E       		.uleb128 0x3e
 13332 018a 0B       		.uleb128 0xb
 13333 018b 0B       		.uleb128 0xb
 13334 018c 0B       		.uleb128 0xb
 13335 018d 49       		.uleb128 0x49
 13336 018e 13       		.uleb128 0x13
 13337 018f 3A       		.uleb128 0x3a
 13338 0190 0B       		.uleb128 0xb
 13339 0191 3B       		.uleb128 0x3b
 13340 0192 05       		.uleb128 0x5
 13341 0193 01       		.uleb128 0x1
 13342 0194 13       		.uleb128 0x13
 13343 0195 00       		.byte	0
 13344 0196 00       		.byte	0
 13345 0197 22       		.uleb128 0x22
 13346 0198 28       		.uleb128 0x28
 13347 0199 00       		.byte	0
 13348 019a 03       		.uleb128 0x3
 13349 019b 0E       		.uleb128 0xe
 13350 019c 1C       		.uleb128 0x1c
 13351 019d 0D       		.uleb128 0xd
 13352 019e 00       		.byte	0
ARM GAS  /var/folders/qd/4mxf5pkd0zdf0b9dd1hp39180000gn/T//ccsf5yWP.s 			page 236


 13353 019f 00       		.byte	0
 13354 01a0 23       		.uleb128 0x23
 13355 01a1 28       		.uleb128 0x28
 13356 01a2 00       		.byte	0
 13357 01a3 03       		.uleb128 0x3
 13358 01a4 0E       		.uleb128 0xe
 13359 01a5 1C       		.uleb128 0x1c
 13360 01a6 0B       		.uleb128 0xb
 13361 01a7 00       		.byte	0
 13362 01a8 00       		.byte	0
 13363 01a9 24       		.uleb128 0x24
 13364 01aa 34       		.uleb128 0x34
 13365 01ab 00       		.byte	0
 13366 01ac 03       		.uleb128 0x3
 13367 01ad 0E       		.uleb128 0xe
 13368 01ae 3A       		.uleb128 0x3a
 13369 01af 0B       		.uleb128 0xb
 13370 01b0 3B       		.uleb128 0x3b
 13371 01b1 0B       		.uleb128 0xb
 13372 01b2 49       		.uleb128 0x49
 13373 01b3 13       		.uleb128 0x13
 13374 01b4 3F       		.uleb128 0x3f
 13375 01b5 19       		.uleb128 0x19
 13376 01b6 3C       		.uleb128 0x3c
 13377 01b7 19       		.uleb128 0x19
 13378 01b8 00       		.byte	0
 13379 01b9 00       		.byte	0
 13380 01ba 25       		.uleb128 0x25
 13381 01bb 0D       		.uleb128 0xd
 13382 01bc 00       		.byte	0
 13383 01bd 03       		.uleb128 0x3
 13384 01be 08       		.uleb128 0x8
 13385 01bf 3A       		.uleb128 0x3a
 13386 01c0 0B       		.uleb128 0xb
 13387 01c1 3B       		.uleb128 0x3b
 13388 01c2 05       		.uleb128 0x5
 13389 01c3 49       		.uleb128 0x49
 13390 01c4 13       		.uleb128 0x13
 13391 01c5 38       		.uleb128 0x38
 13392 01c6 0B       		.uleb128 0xb
 13393 01c7 00       		.byte	0
 13394 01c8 00       		.byte	0
 13395 01c9 26       		.uleb128 0x26
 13396 01ca 0D       		.uleb128 0xd
 13397 01cb 00       		.byte	0
 13398 01cc 03       		.uleb128 0x3
 13399 01cd 08       		.uleb128 0x8
 13400 01ce 3A       		.uleb128 0x3a
 13401 01cf 0B       		.uleb128 0xb
 13402 01d0 3B       		.uleb128 0x3b
 13403 01d1 05       		.uleb128 0x5
 13404 01d2 49       		.uleb128 0x49
 13405 01d3 13       		.uleb128 0x13
 13406 01d4 38       		.uleb128 0x38
 13407 01d5 05       		.uleb128 0x5
 13408 01d6 00       		.byte	0
 13409 01d7 00       		.byte	0
ARM GAS  /var/folders/qd/4mxf5pkd0zdf0b9dd1hp39180000gn/T//ccsf5yWP.s 			page 237


 13410 01d8 27       		.uleb128 0x27
 13411 01d9 13       		.uleb128 0x13
 13412 01da 01       		.byte	0x1
 13413 01db 0B       		.uleb128 0xb
 13414 01dc 05       		.uleb128 0x5
 13415 01dd 3A       		.uleb128 0x3a
 13416 01de 0B       		.uleb128 0xb
 13417 01df 3B       		.uleb128 0x3b
 13418 01e0 05       		.uleb128 0x5
 13419 01e1 01       		.uleb128 0x1
 13420 01e2 13       		.uleb128 0x13
 13421 01e3 00       		.byte	0
 13422 01e4 00       		.byte	0
 13423 01e5 28       		.uleb128 0x28
 13424 01e6 13       		.uleb128 0x13
 13425 01e7 01       		.byte	0x1
 13426 01e8 0B       		.uleb128 0xb
 13427 01e9 05       		.uleb128 0x5
 13428 01ea 3A       		.uleb128 0x3a
 13429 01eb 0B       		.uleb128 0xb
 13430 01ec 3B       		.uleb128 0x3b
 13431 01ed 0B       		.uleb128 0xb
 13432 01ee 01       		.uleb128 0x1
 13433 01ef 13       		.uleb128 0x13
 13434 01f0 00       		.byte	0
 13435 01f1 00       		.byte	0
 13436 01f2 29       		.uleb128 0x29
 13437 01f3 34       		.uleb128 0x34
 13438 01f4 00       		.byte	0
 13439 01f5 03       		.uleb128 0x3
 13440 01f6 08       		.uleb128 0x8
 13441 01f7 3A       		.uleb128 0x3a
 13442 01f8 0B       		.uleb128 0xb
 13443 01f9 3B       		.uleb128 0x3b
 13444 01fa 05       		.uleb128 0x5
 13445 01fb 49       		.uleb128 0x49
 13446 01fc 13       		.uleb128 0x13
 13447 01fd 3F       		.uleb128 0x3f
 13448 01fe 19       		.uleb128 0x19
 13449 01ff 3C       		.uleb128 0x3c
 13450 0200 19       		.uleb128 0x19
 13451 0201 00       		.byte	0
 13452 0202 00       		.byte	0
 13453 0203 2A       		.uleb128 0x2a
 13454 0204 04       		.uleb128 0x4
 13455 0205 01       		.byte	0x1
 13456 0206 3E       		.uleb128 0x3e
 13457 0207 0B       		.uleb128 0xb
 13458 0208 0B       		.uleb128 0xb
 13459 0209 0B       		.uleb128 0xb
 13460 020a 49       		.uleb128 0x49
 13461 020b 13       		.uleb128 0x13
 13462 020c 3A       		.uleb128 0x3a
 13463 020d 0B       		.uleb128 0xb
 13464 020e 3B       		.uleb128 0x3b
 13465 020f 0B       		.uleb128 0xb
 13466 0210 01       		.uleb128 0x1
ARM GAS  /var/folders/qd/4mxf5pkd0zdf0b9dd1hp39180000gn/T//ccsf5yWP.s 			page 238


 13467 0211 13       		.uleb128 0x13
 13468 0212 00       		.byte	0
 13469 0213 00       		.byte	0
 13470 0214 2B       		.uleb128 0x2b
 13471 0215 0D       		.uleb128 0xd
 13472 0216 00       		.byte	0
 13473 0217 03       		.uleb128 0x3
 13474 0218 08       		.uleb128 0x8
 13475 0219 3A       		.uleb128 0x3a
 13476 021a 0B       		.uleb128 0xb
 13477 021b 3B       		.uleb128 0x3b
 13478 021c 0B       		.uleb128 0xb
 13479 021d 49       		.uleb128 0x49
 13480 021e 13       		.uleb128 0x13
 13481 021f 00       		.byte	0
 13482 0220 00       		.byte	0
 13483 0221 2C       		.uleb128 0x2c
 13484 0222 04       		.uleb128 0x4
 13485 0223 01       		.byte	0x1
 13486 0224 3E       		.uleb128 0x3e
 13487 0225 0B       		.uleb128 0xb
 13488 0226 0B       		.uleb128 0xb
 13489 0227 0B       		.uleb128 0xb
 13490 0228 49       		.uleb128 0x49
 13491 0229 13       		.uleb128 0x13
 13492 022a 3A       		.uleb128 0x3a
 13493 022b 0B       		.uleb128 0xb
 13494 022c 3B       		.uleb128 0x3b
 13495 022d 05       		.uleb128 0x5
 13496 022e 01       		.uleb128 0x1
 13497 022f 13       		.uleb128 0x13
 13498 0230 00       		.byte	0
 13499 0231 00       		.byte	0
 13500 0232 2D       		.uleb128 0x2d
 13501 0233 26       		.uleb128 0x26
 13502 0234 00       		.byte	0
 13503 0235 00       		.byte	0
 13504 0236 00       		.byte	0
 13505 0237 2E       		.uleb128 0x2e
 13506 0238 13       		.uleb128 0x13
 13507 0239 01       		.byte	0x1
 13508 023a 0B       		.uleb128 0xb
 13509 023b 06       		.uleb128 0x6
 13510 023c 3A       		.uleb128 0x3a
 13511 023d 0B       		.uleb128 0xb
 13512 023e 3B       		.uleb128 0x3b
 13513 023f 0B       		.uleb128 0xb
 13514 0240 01       		.uleb128 0x1
 13515 0241 13       		.uleb128 0x13
 13516 0242 00       		.byte	0
 13517 0243 00       		.byte	0
 13518 0244 2F       		.uleb128 0x2f
 13519 0245 0D       		.uleb128 0xd
 13520 0246 00       		.byte	0
 13521 0247 03       		.uleb128 0x3
 13522 0248 08       		.uleb128 0x8
 13523 0249 3A       		.uleb128 0x3a
ARM GAS  /var/folders/qd/4mxf5pkd0zdf0b9dd1hp39180000gn/T//ccsf5yWP.s 			page 239


 13524 024a 0B       		.uleb128 0xb
 13525 024b 3B       		.uleb128 0x3b
 13526 024c 0B       		.uleb128 0xb
 13527 024d 49       		.uleb128 0x49
 13528 024e 13       		.uleb128 0x13
 13529 024f 38       		.uleb128 0x38
 13530 0250 05       		.uleb128 0x5
 13531 0251 00       		.byte	0
 13532 0252 00       		.byte	0
 13533 0253 30       		.uleb128 0x30
 13534 0254 21       		.uleb128 0x21
 13535 0255 00       		.byte	0
 13536 0256 49       		.uleb128 0x49
 13537 0257 13       		.uleb128 0x13
 13538 0258 2F       		.uleb128 0x2f
 13539 0259 05       		.uleb128 0x5
 13540 025a 00       		.byte	0
 13541 025b 00       		.byte	0
 13542 025c 31       		.uleb128 0x31
 13543 025d 34       		.uleb128 0x34
 13544 025e 00       		.byte	0
 13545 025f 03       		.uleb128 0x3
 13546 0260 0E       		.uleb128 0xe
 13547 0261 3A       		.uleb128 0x3a
 13548 0262 0B       		.uleb128 0xb
 13549 0263 3B       		.uleb128 0x3b
 13550 0264 0B       		.uleb128 0xb
 13551 0265 49       		.uleb128 0x49
 13552 0266 13       		.uleb128 0x13
 13553 0267 02       		.uleb128 0x2
 13554 0268 18       		.uleb128 0x18
 13555 0269 00       		.byte	0
 13556 026a 00       		.byte	0
 13557 026b 32       		.uleb128 0x32
 13558 026c 34       		.uleb128 0x34
 13559 026d 00       		.byte	0
 13560 026e 03       		.uleb128 0x3
 13561 026f 0E       		.uleb128 0xe
 13562 0270 3A       		.uleb128 0x3a
 13563 0271 0B       		.uleb128 0xb
 13564 0272 3B       		.uleb128 0x3b
 13565 0273 0B       		.uleb128 0xb
 13566 0274 49       		.uleb128 0x49
 13567 0275 13       		.uleb128 0x13
 13568 0276 3F       		.uleb128 0x3f
 13569 0277 19       		.uleb128 0x19
 13570 0278 02       		.uleb128 0x2
 13571 0279 18       		.uleb128 0x18
 13572 027a 00       		.byte	0
 13573 027b 00       		.byte	0
 13574 027c 33       		.uleb128 0x33
 13575 027d 34       		.uleb128 0x34
 13576 027e 00       		.byte	0
 13577 027f 47       		.uleb128 0x47
 13578 0280 13       		.uleb128 0x13
 13579 0281 3A       		.uleb128 0x3a
 13580 0282 0B       		.uleb128 0xb
ARM GAS  /var/folders/qd/4mxf5pkd0zdf0b9dd1hp39180000gn/T//ccsf5yWP.s 			page 240


 13581 0283 3B       		.uleb128 0x3b
 13582 0284 0B       		.uleb128 0xb
 13583 0285 02       		.uleb128 0x2
 13584 0286 18       		.uleb128 0x18
 13585 0287 00       		.byte	0
 13586 0288 00       		.byte	0
 13587 0289 34       		.uleb128 0x34
 13588 028a 2E       		.uleb128 0x2e
 13589 028b 01       		.byte	0x1
 13590 028c 3F       		.uleb128 0x3f
 13591 028d 19       		.uleb128 0x19
 13592 028e 03       		.uleb128 0x3
 13593 028f 0E       		.uleb128 0xe
 13594 0290 3A       		.uleb128 0x3a
 13595 0291 0B       		.uleb128 0xb
 13596 0292 3B       		.uleb128 0x3b
 13597 0293 05       		.uleb128 0x5
 13598 0294 27       		.uleb128 0x27
 13599 0295 19       		.uleb128 0x19
 13600 0296 49       		.uleb128 0x49
 13601 0297 13       		.uleb128 0x13
 13602 0298 11       		.uleb128 0x11
 13603 0299 01       		.uleb128 0x1
 13604 029a 12       		.uleb128 0x12
 13605 029b 06       		.uleb128 0x6
 13606 029c 40       		.uleb128 0x40
 13607 029d 18       		.uleb128 0x18
 13608 029e 9742     		.uleb128 0x2117
 13609 02a0 19       		.uleb128 0x19
 13610 02a1 01       		.uleb128 0x1
 13611 02a2 13       		.uleb128 0x13
 13612 02a3 00       		.byte	0
 13613 02a4 00       		.byte	0
 13614 02a5 35       		.uleb128 0x35
 13615 02a6 05       		.uleb128 0x5
 13616 02a7 00       		.byte	0
 13617 02a8 03       		.uleb128 0x3
 13618 02a9 0E       		.uleb128 0xe
 13619 02aa 3A       		.uleb128 0x3a
 13620 02ab 0B       		.uleb128 0xb
 13621 02ac 3B       		.uleb128 0x3b
 13622 02ad 05       		.uleb128 0x5
 13623 02ae 49       		.uleb128 0x49
 13624 02af 13       		.uleb128 0x13
 13625 02b0 02       		.uleb128 0x2
 13626 02b1 17       		.uleb128 0x17
 13627 02b2 00       		.byte	0
 13628 02b3 00       		.byte	0
 13629 02b4 36       		.uleb128 0x36
 13630 02b5 898201   		.uleb128 0x4109
 13631 02b8 00       		.byte	0
 13632 02b9 11       		.uleb128 0x11
 13633 02ba 01       		.uleb128 0x1
 13634 02bb 31       		.uleb128 0x31
 13635 02bc 13       		.uleb128 0x13
 13636 02bd 00       		.byte	0
 13637 02be 00       		.byte	0
ARM GAS  /var/folders/qd/4mxf5pkd0zdf0b9dd1hp39180000gn/T//ccsf5yWP.s 			page 241


 13638 02bf 37       		.uleb128 0x37
 13639 02c0 34       		.uleb128 0x34
 13640 02c1 00       		.byte	0
 13641 02c2 03       		.uleb128 0x3
 13642 02c3 0E       		.uleb128 0xe
 13643 02c4 3A       		.uleb128 0x3a
 13644 02c5 0B       		.uleb128 0xb
 13645 02c6 3B       		.uleb128 0x3b
 13646 02c7 05       		.uleb128 0x5
 13647 02c8 49       		.uleb128 0x49
 13648 02c9 13       		.uleb128 0x13
 13649 02ca 02       		.uleb128 0x2
 13650 02cb 18       		.uleb128 0x18
 13651 02cc 00       		.byte	0
 13652 02cd 00       		.byte	0
 13653 02ce 38       		.uleb128 0x38
 13654 02cf 34       		.uleb128 0x34
 13655 02d0 00       		.byte	0
 13656 02d1 03       		.uleb128 0x3
 13657 02d2 0E       		.uleb128 0xe
 13658 02d3 3A       		.uleb128 0x3a
 13659 02d4 0B       		.uleb128 0xb
 13660 02d5 3B       		.uleb128 0x3b
 13661 02d6 05       		.uleb128 0x5
 13662 02d7 49       		.uleb128 0x49
 13663 02d8 13       		.uleb128 0x13
 13664 02d9 02       		.uleb128 0x2
 13665 02da 17       		.uleb128 0x17
 13666 02db 00       		.byte	0
 13667 02dc 00       		.byte	0
 13668 02dd 39       		.uleb128 0x39
 13669 02de 1D       		.uleb128 0x1d
 13670 02df 01       		.byte	0x1
 13671 02e0 31       		.uleb128 0x31
 13672 02e1 13       		.uleb128 0x13
 13673 02e2 11       		.uleb128 0x11
 13674 02e3 01       		.uleb128 0x1
 13675 02e4 12       		.uleb128 0x12
 13676 02e5 06       		.uleb128 0x6
 13677 02e6 58       		.uleb128 0x58
 13678 02e7 0B       		.uleb128 0xb
 13679 02e8 59       		.uleb128 0x59
 13680 02e9 05       		.uleb128 0x5
 13681 02ea 01       		.uleb128 0x1
 13682 02eb 13       		.uleb128 0x13
 13683 02ec 00       		.byte	0
 13684 02ed 00       		.byte	0
 13685 02ee 3A       		.uleb128 0x3a
 13686 02ef 05       		.uleb128 0x5
 13687 02f0 00       		.byte	0
 13688 02f1 31       		.uleb128 0x31
 13689 02f2 13       		.uleb128 0x13
 13690 02f3 00       		.byte	0
 13691 02f4 00       		.byte	0
 13692 02f5 3B       		.uleb128 0x3b
 13693 02f6 0B       		.uleb128 0xb
 13694 02f7 01       		.byte	0x1
ARM GAS  /var/folders/qd/4mxf5pkd0zdf0b9dd1hp39180000gn/T//ccsf5yWP.s 			page 242


 13695 02f8 31       		.uleb128 0x31
 13696 02f9 13       		.uleb128 0x13
 13697 02fa 11       		.uleb128 0x11
 13698 02fb 01       		.uleb128 0x1
 13699 02fc 12       		.uleb128 0x12
 13700 02fd 06       		.uleb128 0x6
 13701 02fe 00       		.byte	0
 13702 02ff 00       		.byte	0
 13703 0300 3C       		.uleb128 0x3c
 13704 0301 34       		.uleb128 0x34
 13705 0302 00       		.byte	0
 13706 0303 31       		.uleb128 0x31
 13707 0304 13       		.uleb128 0x13
 13708 0305 00       		.byte	0
 13709 0306 00       		.byte	0
 13710 0307 3D       		.uleb128 0x3d
 13711 0308 1D       		.uleb128 0x1d
 13712 0309 01       		.byte	0x1
 13713 030a 31       		.uleb128 0x31
 13714 030b 13       		.uleb128 0x13
 13715 030c 52       		.uleb128 0x52
 13716 030d 01       		.uleb128 0x1
 13717 030e 55       		.uleb128 0x55
 13718 030f 17       		.uleb128 0x17
 13719 0310 58       		.uleb128 0x58
 13720 0311 0B       		.uleb128 0xb
 13721 0312 59       		.uleb128 0x59
 13722 0313 0B       		.uleb128 0xb
 13723 0314 00       		.byte	0
 13724 0315 00       		.byte	0
 13725 0316 3E       		.uleb128 0x3e
 13726 0317 05       		.uleb128 0x5
 13727 0318 00       		.byte	0
 13728 0319 31       		.uleb128 0x31
 13729 031a 13       		.uleb128 0x13
 13730 031b 02       		.uleb128 0x2
 13731 031c 17       		.uleb128 0x17
 13732 031d 00       		.byte	0
 13733 031e 00       		.byte	0
 13734 031f 3F       		.uleb128 0x3f
 13735 0320 898201   		.uleb128 0x4109
 13736 0323 01       		.byte	0x1
 13737 0324 11       		.uleb128 0x11
 13738 0325 01       		.uleb128 0x1
 13739 0326 31       		.uleb128 0x31
 13740 0327 13       		.uleb128 0x13
 13741 0328 01       		.uleb128 0x1
 13742 0329 13       		.uleb128 0x13
 13743 032a 00       		.byte	0
 13744 032b 00       		.byte	0
 13745 032c 40       		.uleb128 0x40
 13746 032d 8A8201   		.uleb128 0x410a
 13747 0330 00       		.byte	0
 13748 0331 02       		.uleb128 0x2
 13749 0332 18       		.uleb128 0x18
 13750 0333 9142     		.uleb128 0x2111
 13751 0335 18       		.uleb128 0x18
ARM GAS  /var/folders/qd/4mxf5pkd0zdf0b9dd1hp39180000gn/T//ccsf5yWP.s 			page 243


 13752 0336 00       		.byte	0
 13753 0337 00       		.byte	0
 13754 0338 41       		.uleb128 0x41
 13755 0339 2E       		.uleb128 0x2e
 13756 033a 01       		.byte	0x1
 13757 033b 3F       		.uleb128 0x3f
 13758 033c 19       		.uleb128 0x19
 13759 033d 03       		.uleb128 0x3
 13760 033e 0E       		.uleb128 0xe
 13761 033f 3A       		.uleb128 0x3a
 13762 0340 0B       		.uleb128 0xb
 13763 0341 3B       		.uleb128 0x3b
 13764 0342 05       		.uleb128 0x5
 13765 0343 27       		.uleb128 0x27
 13766 0344 19       		.uleb128 0x19
 13767 0345 49       		.uleb128 0x49
 13768 0346 13       		.uleb128 0x13
 13769 0347 11       		.uleb128 0x11
 13770 0348 01       		.uleb128 0x1
 13771 0349 12       		.uleb128 0x12
 13772 034a 06       		.uleb128 0x6
 13773 034b 40       		.uleb128 0x40
 13774 034c 18       		.uleb128 0x18
 13775 034d 9642     		.uleb128 0x2116
 13776 034f 19       		.uleb128 0x19
 13777 0350 01       		.uleb128 0x1
 13778 0351 13       		.uleb128 0x13
 13779 0352 00       		.byte	0
 13780 0353 00       		.byte	0
 13781 0354 42       		.uleb128 0x42
 13782 0355 05       		.uleb128 0x5
 13783 0356 00       		.byte	0
 13784 0357 03       		.uleb128 0x3
 13785 0358 0E       		.uleb128 0xe
 13786 0359 3A       		.uleb128 0x3a
 13787 035a 0B       		.uleb128 0xb
 13788 035b 3B       		.uleb128 0x3b
 13789 035c 05       		.uleb128 0x5
 13790 035d 49       		.uleb128 0x49
 13791 035e 13       		.uleb128 0x13
 13792 035f 02       		.uleb128 0x2
 13793 0360 18       		.uleb128 0x18
 13794 0361 00       		.byte	0
 13795 0362 00       		.byte	0
 13796 0363 43       		.uleb128 0x43
 13797 0364 2E       		.uleb128 0x2e
 13798 0365 01       		.byte	0x1
 13799 0366 3F       		.uleb128 0x3f
 13800 0367 19       		.uleb128 0x19
 13801 0368 03       		.uleb128 0x3
 13802 0369 0E       		.uleb128 0xe
 13803 036a 3A       		.uleb128 0x3a
 13804 036b 0B       		.uleb128 0xb
 13805 036c 3B       		.uleb128 0x3b
 13806 036d 05       		.uleb128 0x5
 13807 036e 27       		.uleb128 0x27
 13808 036f 19       		.uleb128 0x19
ARM GAS  /var/folders/qd/4mxf5pkd0zdf0b9dd1hp39180000gn/T//ccsf5yWP.s 			page 244


 13809 0370 11       		.uleb128 0x11
 13810 0371 01       		.uleb128 0x1
 13811 0372 12       		.uleb128 0x12
 13812 0373 06       		.uleb128 0x6
 13813 0374 40       		.uleb128 0x40
 13814 0375 18       		.uleb128 0x18
 13815 0376 9742     		.uleb128 0x2117
 13816 0378 19       		.uleb128 0x19
 13817 0379 01       		.uleb128 0x1
 13818 037a 13       		.uleb128 0x13
 13819 037b 00       		.byte	0
 13820 037c 00       		.byte	0
 13821 037d 44       		.uleb128 0x44
 13822 037e 0B       		.uleb128 0xb
 13823 037f 01       		.byte	0x1
 13824 0380 11       		.uleb128 0x11
 13825 0381 01       		.uleb128 0x1
 13826 0382 12       		.uleb128 0x12
 13827 0383 06       		.uleb128 0x6
 13828 0384 01       		.uleb128 0x1
 13829 0385 13       		.uleb128 0x13
 13830 0386 00       		.byte	0
 13831 0387 00       		.byte	0
 13832 0388 45       		.uleb128 0x45
 13833 0389 34       		.uleb128 0x34
 13834 038a 00       		.byte	0
 13835 038b 03       		.uleb128 0x3
 13836 038c 08       		.uleb128 0x8
 13837 038d 3A       		.uleb128 0x3a
 13838 038e 0B       		.uleb128 0xb
 13839 038f 3B       		.uleb128 0x3b
 13840 0390 05       		.uleb128 0x5
 13841 0391 49       		.uleb128 0x49
 13842 0392 13       		.uleb128 0x13
 13843 0393 02       		.uleb128 0x2
 13844 0394 17       		.uleb128 0x17
 13845 0395 00       		.byte	0
 13846 0396 00       		.byte	0
 13847 0397 46       		.uleb128 0x46
 13848 0398 0B       		.uleb128 0xb
 13849 0399 01       		.byte	0x1
 13850 039a 55       		.uleb128 0x55
 13851 039b 17       		.uleb128 0x17
 13852 039c 01       		.uleb128 0x1
 13853 039d 13       		.uleb128 0x13
 13854 039e 00       		.byte	0
 13855 039f 00       		.byte	0
 13856 03a0 47       		.uleb128 0x47
 13857 03a1 898201   		.uleb128 0x4109
 13858 03a4 00       		.byte	0
 13859 03a5 11       		.uleb128 0x11
 13860 03a6 01       		.uleb128 0x1
 13861 03a7 9542     		.uleb128 0x2115
 13862 03a9 19       		.uleb128 0x19
 13863 03aa 31       		.uleb128 0x31
 13864 03ab 13       		.uleb128 0x13
 13865 03ac 00       		.byte	0
ARM GAS  /var/folders/qd/4mxf5pkd0zdf0b9dd1hp39180000gn/T//ccsf5yWP.s 			page 245


 13866 03ad 00       		.byte	0
 13867 03ae 48       		.uleb128 0x48
 13868 03af 898201   		.uleb128 0x4109
 13869 03b2 01       		.byte	0x1
 13870 03b3 11       		.uleb128 0x11
 13871 03b4 01       		.uleb128 0x1
 13872 03b5 31       		.uleb128 0x31
 13873 03b6 13       		.uleb128 0x13
 13874 03b7 00       		.byte	0
 13875 03b8 00       		.byte	0
 13876 03b9 49       		.uleb128 0x49
 13877 03ba 34       		.uleb128 0x34
 13878 03bb 00       		.byte	0
 13879 03bc 03       		.uleb128 0x3
 13880 03bd 08       		.uleb128 0x8
 13881 03be 3A       		.uleb128 0x3a
 13882 03bf 0B       		.uleb128 0xb
 13883 03c0 3B       		.uleb128 0x3b
 13884 03c1 05       		.uleb128 0x5
 13885 03c2 49       		.uleb128 0x49
 13886 03c3 13       		.uleb128 0x13
 13887 03c4 00       		.byte	0
 13888 03c5 00       		.byte	0
 13889 03c6 4A       		.uleb128 0x4a
 13890 03c7 2E       		.uleb128 0x2e
 13891 03c8 01       		.byte	0x1
 13892 03c9 3F       		.uleb128 0x3f
 13893 03ca 19       		.uleb128 0x19
 13894 03cb 03       		.uleb128 0x3
 13895 03cc 0E       		.uleb128 0xe
 13896 03cd 3A       		.uleb128 0x3a
 13897 03ce 0B       		.uleb128 0xb
 13898 03cf 3B       		.uleb128 0x3b
 13899 03d0 0B       		.uleb128 0xb
 13900 03d1 27       		.uleb128 0x27
 13901 03d2 19       		.uleb128 0x19
 13902 03d3 11       		.uleb128 0x11
 13903 03d4 01       		.uleb128 0x1
 13904 03d5 12       		.uleb128 0x12
 13905 03d6 06       		.uleb128 0x6
 13906 03d7 40       		.uleb128 0x40
 13907 03d8 18       		.uleb128 0x18
 13908 03d9 9642     		.uleb128 0x2116
 13909 03db 19       		.uleb128 0x19
 13910 03dc 01       		.uleb128 0x1
 13911 03dd 13       		.uleb128 0x13
 13912 03de 00       		.byte	0
 13913 03df 00       		.byte	0
 13914 03e0 4B       		.uleb128 0x4b
 13915 03e1 05       		.uleb128 0x5
 13916 03e2 00       		.byte	0
 13917 03e3 03       		.uleb128 0x3
 13918 03e4 0E       		.uleb128 0xe
 13919 03e5 3A       		.uleb128 0x3a
 13920 03e6 0B       		.uleb128 0xb
 13921 03e7 3B       		.uleb128 0x3b
 13922 03e8 0B       		.uleb128 0xb
ARM GAS  /var/folders/qd/4mxf5pkd0zdf0b9dd1hp39180000gn/T//ccsf5yWP.s 			page 246


 13923 03e9 49       		.uleb128 0x49
 13924 03ea 13       		.uleb128 0x13
 13925 03eb 02       		.uleb128 0x2
 13926 03ec 17       		.uleb128 0x17
 13927 03ed 00       		.byte	0
 13928 03ee 00       		.byte	0
 13929 03ef 4C       		.uleb128 0x4c
 13930 03f0 2E       		.uleb128 0x2e
 13931 03f1 00       		.byte	0
 13932 03f2 3F       		.uleb128 0x3f
 13933 03f3 19       		.uleb128 0x19
 13934 03f4 03       		.uleb128 0x3
 13935 03f5 0E       		.uleb128 0xe
 13936 03f6 3A       		.uleb128 0x3a
 13937 03f7 0B       		.uleb128 0xb
 13938 03f8 3B       		.uleb128 0x3b
 13939 03f9 0B       		.uleb128 0xb
 13940 03fa 27       		.uleb128 0x27
 13941 03fb 19       		.uleb128 0x19
 13942 03fc 20       		.uleb128 0x20
 13943 03fd 0B       		.uleb128 0xb
 13944 03fe 00       		.byte	0
 13945 03ff 00       		.byte	0
 13946 0400 4D       		.uleb128 0x4d
 13947 0401 2E       		.uleb128 0x2e
 13948 0402 01       		.byte	0x1
 13949 0403 3F       		.uleb128 0x3f
 13950 0404 19       		.uleb128 0x19
 13951 0405 03       		.uleb128 0x3
 13952 0406 0E       		.uleb128 0xe
 13953 0407 3A       		.uleb128 0x3a
 13954 0408 0B       		.uleb128 0xb
 13955 0409 3B       		.uleb128 0x3b
 13956 040a 0B       		.uleb128 0xb
 13957 040b 27       		.uleb128 0x27
 13958 040c 19       		.uleb128 0x19
 13959 040d 11       		.uleb128 0x11
 13960 040e 01       		.uleb128 0x1
 13961 040f 12       		.uleb128 0x12
 13962 0410 06       		.uleb128 0x6
 13963 0411 40       		.uleb128 0x40
 13964 0412 18       		.uleb128 0x18
 13965 0413 9742     		.uleb128 0x2117
 13966 0415 19       		.uleb128 0x19
 13967 0416 01       		.uleb128 0x1
 13968 0417 13       		.uleb128 0x13
 13969 0418 00       		.byte	0
 13970 0419 00       		.byte	0
 13971 041a 4E       		.uleb128 0x4e
 13972 041b 1D       		.uleb128 0x1d
 13973 041c 00       		.byte	0
 13974 041d 31       		.uleb128 0x31
 13975 041e 13       		.uleb128 0x13
 13976 041f 52       		.uleb128 0x52
 13977 0420 01       		.uleb128 0x1
 13978 0421 55       		.uleb128 0x55
 13979 0422 17       		.uleb128 0x17
ARM GAS  /var/folders/qd/4mxf5pkd0zdf0b9dd1hp39180000gn/T//ccsf5yWP.s 			page 247


 13980 0423 58       		.uleb128 0x58
 13981 0424 0B       		.uleb128 0xb
 13982 0425 59       		.uleb128 0x59
 13983 0426 0B       		.uleb128 0xb
 13984 0427 00       		.byte	0
 13985 0428 00       		.byte	0
 13986 0429 4F       		.uleb128 0x4f
 13987 042a 2E       		.uleb128 0x2e
 13988 042b 01       		.byte	0x1
 13989 042c 3F       		.uleb128 0x3f
 13990 042d 19       		.uleb128 0x19
 13991 042e 03       		.uleb128 0x3
 13992 042f 0E       		.uleb128 0xe
 13993 0430 3A       		.uleb128 0x3a
 13994 0431 0B       		.uleb128 0xb
 13995 0432 3B       		.uleb128 0x3b
 13996 0433 0B       		.uleb128 0xb
 13997 0434 27       		.uleb128 0x27
 13998 0435 19       		.uleb128 0x19
 13999 0436 49       		.uleb128 0x49
 14000 0437 13       		.uleb128 0x13
 14001 0438 11       		.uleb128 0x11
 14002 0439 01       		.uleb128 0x1
 14003 043a 12       		.uleb128 0x12
 14004 043b 06       		.uleb128 0x6
 14005 043c 40       		.uleb128 0x40
 14006 043d 18       		.uleb128 0x18
 14007 043e 9642     		.uleb128 0x2116
 14008 0440 19       		.uleb128 0x19
 14009 0441 01       		.uleb128 0x1
 14010 0442 13       		.uleb128 0x13
 14011 0443 00       		.byte	0
 14012 0444 00       		.byte	0
 14013 0445 50       		.uleb128 0x50
 14014 0446 05       		.uleb128 0x5
 14015 0447 00       		.byte	0
 14016 0448 03       		.uleb128 0x3
 14017 0449 0E       		.uleb128 0xe
 14018 044a 3A       		.uleb128 0x3a
 14019 044b 0B       		.uleb128 0xb
 14020 044c 3B       		.uleb128 0x3b
 14021 044d 0B       		.uleb128 0xb
 14022 044e 49       		.uleb128 0x49
 14023 044f 13       		.uleb128 0x13
 14024 0450 02       		.uleb128 0x2
 14025 0451 18       		.uleb128 0x18
 14026 0452 00       		.byte	0
 14027 0453 00       		.byte	0
 14028 0454 51       		.uleb128 0x51
 14029 0455 1D       		.uleb128 0x1d
 14030 0456 01       		.byte	0x1
 14031 0457 31       		.uleb128 0x31
 14032 0458 13       		.uleb128 0x13
 14033 0459 52       		.uleb128 0x52
 14034 045a 01       		.uleb128 0x1
 14035 045b 55       		.uleb128 0x55
 14036 045c 17       		.uleb128 0x17
ARM GAS  /var/folders/qd/4mxf5pkd0zdf0b9dd1hp39180000gn/T//ccsf5yWP.s 			page 248


 14037 045d 58       		.uleb128 0x58
 14038 045e 0B       		.uleb128 0xb
 14039 045f 59       		.uleb128 0x59
 14040 0460 0B       		.uleb128 0xb
 14041 0461 01       		.uleb128 0x1
 14042 0462 13       		.uleb128 0x13
 14043 0463 00       		.byte	0
 14044 0464 00       		.byte	0
 14045 0465 52       		.uleb128 0x52
 14046 0466 2E       		.uleb128 0x2e
 14047 0467 01       		.byte	0x1
 14048 0468 3F       		.uleb128 0x3f
 14049 0469 19       		.uleb128 0x19
 14050 046a 03       		.uleb128 0x3
 14051 046b 0E       		.uleb128 0xe
 14052 046c 3A       		.uleb128 0x3a
 14053 046d 0B       		.uleb128 0xb
 14054 046e 3B       		.uleb128 0x3b
 14055 046f 0B       		.uleb128 0xb
 14056 0470 27       		.uleb128 0x27
 14057 0471 19       		.uleb128 0x19
 14058 0472 49       		.uleb128 0x49
 14059 0473 13       		.uleb128 0x13
 14060 0474 20       		.uleb128 0x20
 14061 0475 0B       		.uleb128 0xb
 14062 0476 01       		.uleb128 0x1
 14063 0477 13       		.uleb128 0x13
 14064 0478 00       		.byte	0
 14065 0479 00       		.byte	0
 14066 047a 53       		.uleb128 0x53
 14067 047b 05       		.uleb128 0x5
 14068 047c 00       		.byte	0
 14069 047d 03       		.uleb128 0x3
 14070 047e 0E       		.uleb128 0xe
 14071 047f 3A       		.uleb128 0x3a
 14072 0480 0B       		.uleb128 0xb
 14073 0481 3B       		.uleb128 0x3b
 14074 0482 0B       		.uleb128 0xb
 14075 0483 49       		.uleb128 0x49
 14076 0484 13       		.uleb128 0x13
 14077 0485 00       		.byte	0
 14078 0486 00       		.byte	0
 14079 0487 54       		.uleb128 0x54
 14080 0488 0B       		.uleb128 0xb
 14081 0489 01       		.byte	0x1
 14082 048a 00       		.byte	0
 14083 048b 00       		.byte	0
 14084 048c 55       		.uleb128 0x55
 14085 048d 34       		.uleb128 0x34
 14086 048e 00       		.byte	0
 14087 048f 03       		.uleb128 0x3
 14088 0490 08       		.uleb128 0x8
 14089 0491 3A       		.uleb128 0x3a
 14090 0492 0B       		.uleb128 0xb
 14091 0493 3B       		.uleb128 0x3b
 14092 0494 0B       		.uleb128 0xb
 14093 0495 49       		.uleb128 0x49
ARM GAS  /var/folders/qd/4mxf5pkd0zdf0b9dd1hp39180000gn/T//ccsf5yWP.s 			page 249


 14094 0496 13       		.uleb128 0x13
 14095 0497 00       		.byte	0
 14096 0498 00       		.byte	0
 14097 0499 56       		.uleb128 0x56
 14098 049a 05       		.uleb128 0x5
 14099 049b 00       		.byte	0
 14100 049c 03       		.uleb128 0x3
 14101 049d 08       		.uleb128 0x8
 14102 049e 3A       		.uleb128 0x3a
 14103 049f 0B       		.uleb128 0xb
 14104 04a0 3B       		.uleb128 0x3b
 14105 04a1 0B       		.uleb128 0xb
 14106 04a2 49       		.uleb128 0x49
 14107 04a3 13       		.uleb128 0x13
 14108 04a4 02       		.uleb128 0x2
 14109 04a5 17       		.uleb128 0x17
 14110 04a6 00       		.byte	0
 14111 04a7 00       		.byte	0
 14112 04a8 57       		.uleb128 0x57
 14113 04a9 34       		.uleb128 0x34
 14114 04aa 00       		.byte	0
 14115 04ab 03       		.uleb128 0x3
 14116 04ac 08       		.uleb128 0x8
 14117 04ad 3A       		.uleb128 0x3a
 14118 04ae 0B       		.uleb128 0xb
 14119 04af 3B       		.uleb128 0x3b
 14120 04b0 0B       		.uleb128 0xb
 14121 04b1 49       		.uleb128 0x49
 14122 04b2 13       		.uleb128 0x13
 14123 04b3 02       		.uleb128 0x2
 14124 04b4 17       		.uleb128 0x17
 14125 04b5 00       		.byte	0
 14126 04b6 00       		.byte	0
 14127 04b7 58       		.uleb128 0x58
 14128 04b8 34       		.uleb128 0x34
 14129 04b9 00       		.byte	0
 14130 04ba 03       		.uleb128 0x3
 14131 04bb 0E       		.uleb128 0xe
 14132 04bc 3A       		.uleb128 0x3a
 14133 04bd 0B       		.uleb128 0xb
 14134 04be 3B       		.uleb128 0x3b
 14135 04bf 0B       		.uleb128 0xb
 14136 04c0 49       		.uleb128 0x49
 14137 04c1 13       		.uleb128 0x13
 14138 04c2 02       		.uleb128 0x2
 14139 04c3 17       		.uleb128 0x17
 14140 04c4 00       		.byte	0
 14141 04c5 00       		.byte	0
 14142 04c6 59       		.uleb128 0x59
 14143 04c7 2E       		.uleb128 0x2e
 14144 04c8 01       		.byte	0x1
 14145 04c9 3F       		.uleb128 0x3f
 14146 04ca 19       		.uleb128 0x19
 14147 04cb 03       		.uleb128 0x3
 14148 04cc 0E       		.uleb128 0xe
 14149 04cd 3A       		.uleb128 0x3a
 14150 04ce 0B       		.uleb128 0xb
ARM GAS  /var/folders/qd/4mxf5pkd0zdf0b9dd1hp39180000gn/T//ccsf5yWP.s 			page 250


 14151 04cf 3B       		.uleb128 0x3b
 14152 04d0 0B       		.uleb128 0xb
 14153 04d1 27       		.uleb128 0x27
 14154 04d2 19       		.uleb128 0x19
 14155 04d3 20       		.uleb128 0x20
 14156 04d4 0B       		.uleb128 0xb
 14157 04d5 01       		.uleb128 0x1
 14158 04d6 13       		.uleb128 0x13
 14159 04d7 00       		.byte	0
 14160 04d8 00       		.byte	0
 14161 04d9 5A       		.uleb128 0x5a
 14162 04da 2E       		.uleb128 0x2e
 14163 04db 01       		.byte	0x1
 14164 04dc 31       		.uleb128 0x31
 14165 04dd 13       		.uleb128 0x13
 14166 04de 11       		.uleb128 0x11
 14167 04df 01       		.uleb128 0x1
 14168 04e0 12       		.uleb128 0x12
 14169 04e1 06       		.uleb128 0x6
 14170 04e2 40       		.uleb128 0x40
 14171 04e3 18       		.uleb128 0x18
 14172 04e4 9742     		.uleb128 0x2117
 14173 04e6 19       		.uleb128 0x19
 14174 04e7 01       		.uleb128 0x1
 14175 04e8 13       		.uleb128 0x13
 14176 04e9 00       		.byte	0
 14177 04ea 00       		.byte	0
 14178 04eb 5B       		.uleb128 0x5b
 14179 04ec 2E       		.uleb128 0x2e
 14180 04ed 01       		.byte	0x1
 14181 04ee 31       		.uleb128 0x31
 14182 04ef 13       		.uleb128 0x13
 14183 04f0 11       		.uleb128 0x11
 14184 04f1 01       		.uleb128 0x1
 14185 04f2 12       		.uleb128 0x12
 14186 04f3 06       		.uleb128 0x6
 14187 04f4 40       		.uleb128 0x40
 14188 04f5 18       		.uleb128 0x18
 14189 04f6 9642     		.uleb128 0x2116
 14190 04f8 19       		.uleb128 0x19
 14191 04f9 01       		.uleb128 0x1
 14192 04fa 13       		.uleb128 0x13
 14193 04fb 00       		.byte	0
 14194 04fc 00       		.byte	0
 14195 04fd 5C       		.uleb128 0x5c
 14196 04fe 34       		.uleb128 0x34
 14197 04ff 00       		.byte	0
 14198 0500 31       		.uleb128 0x31
 14199 0501 13       		.uleb128 0x13
 14200 0502 02       		.uleb128 0x2
 14201 0503 17       		.uleb128 0x17
 14202 0504 00       		.byte	0
 14203 0505 00       		.byte	0
 14204 0506 5D       		.uleb128 0x5d
 14205 0507 2E       		.uleb128 0x2e
 14206 0508 00       		.byte	0
 14207 0509 3F       		.uleb128 0x3f
ARM GAS  /var/folders/qd/4mxf5pkd0zdf0b9dd1hp39180000gn/T//ccsf5yWP.s 			page 251


 14208 050a 19       		.uleb128 0x19
 14209 050b 3C       		.uleb128 0x3c
 14210 050c 19       		.uleb128 0x19
 14211 050d 6E       		.uleb128 0x6e
 14212 050e 0E       		.uleb128 0xe
 14213 050f 03       		.uleb128 0x3
 14214 0510 0E       		.uleb128 0xe
 14215 0511 00       		.byte	0
 14216 0512 00       		.byte	0
 14217 0513 5E       		.uleb128 0x5e
 14218 0514 2E       		.uleb128 0x2e
 14219 0515 00       		.byte	0
 14220 0516 3F       		.uleb128 0x3f
 14221 0517 19       		.uleb128 0x19
 14222 0518 3C       		.uleb128 0x3c
 14223 0519 19       		.uleb128 0x19
 14224 051a 6E       		.uleb128 0x6e
 14225 051b 0E       		.uleb128 0xe
 14226 051c 03       		.uleb128 0x3
 14227 051d 0E       		.uleb128 0xe
 14228 051e 3A       		.uleb128 0x3a
 14229 051f 0B       		.uleb128 0xb
 14230 0520 3B       		.uleb128 0x3b
 14231 0521 0B       		.uleb128 0xb
 14232 0522 00       		.byte	0
 14233 0523 00       		.byte	0
 14234 0524 5F       		.uleb128 0x5f
 14235 0525 2E       		.uleb128 0x2e
 14236 0526 00       		.byte	0
 14237 0527 3F       		.uleb128 0x3f
 14238 0528 19       		.uleb128 0x19
 14239 0529 3C       		.uleb128 0x3c
 14240 052a 19       		.uleb128 0x19
 14241 052b 6E       		.uleb128 0x6e
 14242 052c 08       		.uleb128 0x8
 14243 052d 03       		.uleb128 0x3
 14244 052e 08       		.uleb128 0x8
 14245 052f 3A       		.uleb128 0x3a
 14246 0530 0B       		.uleb128 0xb
 14247 0531 3B       		.uleb128 0x3b
 14248 0532 0B       		.uleb128 0xb
 14249 0533 00       		.byte	0
 14250 0534 00       		.byte	0
 14251 0535 00       		.byte	0
 14252              		.section	.debug_loc,"",%progbits
 14253              	.Ldebug_loc0:
 14254              	.LLST62:
 14255 0000 00000000 		.4byte	.LVL323
 14256 0004 06000000 		.4byte	.LVL324
 14257 0008 0100     		.2byte	0x1
 14258 000a 50       		.byte	0x50
 14259 000b 06000000 		.4byte	.LVL324
 14260 000f 24000000 		.4byte	.LFE279
 14261 0013 0400     		.2byte	0x4
 14262 0015 F3       		.byte	0xf3
 14263 0016 01       		.uleb128 0x1
 14264 0017 50       		.byte	0x50
ARM GAS  /var/folders/qd/4mxf5pkd0zdf0b9dd1hp39180000gn/T//ccsf5yWP.s 			page 252


 14265 0018 9F       		.byte	0x9f
 14266 0019 00000000 		.4byte	0
 14267 001d 00000000 		.4byte	0
 14268              	.LLST56:
 14269 0021 00000000 		.4byte	.LVL299
 14270 0025 15000000 		.4byte	.LVL301-1
 14271 0029 0100     		.2byte	0x1
 14272 002b 51       		.byte	0x51
 14273 002c 15000000 		.4byte	.LVL301-1
 14274 0030 66000000 		.4byte	.LVL305
 14275 0034 0100     		.2byte	0x1
 14276 0036 57       		.byte	0x57
 14277 0037 66000000 		.4byte	.LVL305
 14278 003b 9C000000 		.4byte	.LVL312
 14279 003f 0400     		.2byte	0x4
 14280 0041 F3       		.byte	0xf3
 14281 0042 01       		.uleb128 0x1
 14282 0043 51       		.byte	0x51
 14283 0044 9F       		.byte	0x9f
 14284 0045 9C000000 		.4byte	.LVL312
 14285 0049 AE000000 		.4byte	.LVL313
 14286 004d 0100     		.2byte	0x1
 14287 004f 57       		.byte	0x57
 14288 0050 AE000000 		.4byte	.LVL313
 14289 0054 04010000 		.4byte	.LFE278
 14290 0058 0400     		.2byte	0x4
 14291 005a F3       		.byte	0xf3
 14292 005b 01       		.uleb128 0x1
 14293 005c 51       		.byte	0x51
 14294 005d 9F       		.byte	0x9f
 14295 005e 00000000 		.4byte	0
 14296 0062 00000000 		.4byte	0
 14297              	.LLST57:
 14298 0066 00000000 		.4byte	.LVL299
 14299 006a 15000000 		.4byte	.LVL301-1
 14300 006e 0100     		.2byte	0x1
 14301 0070 52       		.byte	0x52
 14302 0071 15000000 		.4byte	.LVL301-1
 14303 0075 04010000 		.4byte	.LFE278
 14304 0079 0400     		.2byte	0x4
 14305 007b F3       		.byte	0xf3
 14306 007c 01       		.uleb128 0x1
 14307 007d 52       		.byte	0x52
 14308 007e 9F       		.byte	0x9f
 14309 007f 00000000 		.4byte	0
 14310 0083 00000000 		.4byte	0
 14311              	.LLST58:
 14312 0087 1A000000 		.4byte	.LVL302
 14313 008b B8000000 		.4byte	.LVL315
 14314 008f 0500     		.2byte	0x5
 14315 0091 93       		.byte	0x93
 14316 0092 04       		.uleb128 0x4
 14317 0093 52       		.byte	0x52
 14318 0094 93       		.byte	0x93
 14319 0095 04       		.uleb128 0x4
 14320 0096 BA000000 		.4byte	.LVL316
 14321 009a C2000000 		.4byte	.LVL317
ARM GAS  /var/folders/qd/4mxf5pkd0zdf0b9dd1hp39180000gn/T//ccsf5yWP.s 			page 253


 14322 009e 0500     		.2byte	0x5
 14323 00a0 93       		.byte	0x93
 14324 00a1 04       		.uleb128 0x4
 14325 00a2 52       		.byte	0x52
 14326 00a3 93       		.byte	0x93
 14327 00a4 04       		.uleb128 0x4
 14328 00a5 D0000000 		.4byte	.LVL319
 14329 00a9 DA000000 		.4byte	.LVL320
 14330 00ad 0500     		.2byte	0x5
 14331 00af 93       		.byte	0x93
 14332 00b0 04       		.uleb128 0x4
 14333 00b1 52       		.byte	0x52
 14334 00b2 93       		.byte	0x93
 14335 00b3 04       		.uleb128 0x4
 14336 00b4 DA000000 		.4byte	.LVL320
 14337 00b8 E6000000 		.4byte	.LVL321
 14338 00bc 0600     		.2byte	0x6
 14339 00be 93       		.byte	0x93
 14340 00bf 04       		.uleb128 0x4
 14341 00c0 91       		.byte	0x91
 14342 00c1 60       		.sleb128 -32
 14343 00c2 93       		.byte	0x93
 14344 00c3 04       		.uleb128 0x4
 14345 00c4 00000000 		.4byte	0
 14346 00c8 00000000 		.4byte	0
 14347              	.LLST59:
 14348 00cc 1A000000 		.4byte	.LVL302
 14349 00d0 66000000 		.4byte	.LVL305
 14350 00d4 0600     		.2byte	0x6
 14351 00d6 77       		.byte	0x77
 14352 00d7 0C       		.sleb128 12
 14353 00d8 06       		.byte	0x6
 14354 00d9 23       		.byte	0x23
 14355 00da 21       		.uleb128 0x21
 14356 00db 9F       		.byte	0x9f
 14357 00dc 66000000 		.4byte	.LVL305
 14358 00e0 92000000 		.4byte	.LVL311
 14359 00e4 0900     		.2byte	0x9
 14360 00e6 F3       		.byte	0xf3
 14361 00e7 01       		.uleb128 0x1
 14362 00e8 51       		.byte	0x51
 14363 00e9 23       		.byte	0x23
 14364 00ea 0C       		.uleb128 0xc
 14365 00eb 06       		.byte	0x6
 14366 00ec 23       		.byte	0x23
 14367 00ed 21       		.uleb128 0x21
 14368 00ee 9F       		.byte	0x9f
 14369 00ef 9C000000 		.4byte	.LVL312
 14370 00f3 AE000000 		.4byte	.LVL313
 14371 00f7 0600     		.2byte	0x6
 14372 00f9 77       		.byte	0x77
 14373 00fa 0C       		.sleb128 12
 14374 00fb 06       		.byte	0x6
 14375 00fc 23       		.byte	0x23
 14376 00fd 21       		.uleb128 0x21
 14377 00fe 9F       		.byte	0x9f
 14378 00ff AE000000 		.4byte	.LVL313
ARM GAS  /var/folders/qd/4mxf5pkd0zdf0b9dd1hp39180000gn/T//ccsf5yWP.s 			page 254


 14379 0103 B4000000 		.4byte	.LVL314
 14380 0107 0900     		.2byte	0x9
 14381 0109 F3       		.byte	0xf3
 14382 010a 01       		.uleb128 0x1
 14383 010b 51       		.byte	0x51
 14384 010c 23       		.byte	0x23
 14385 010d 0C       		.uleb128 0xc
 14386 010e 06       		.byte	0x6
 14387 010f 23       		.byte	0x23
 14388 0110 21       		.uleb128 0x21
 14389 0111 9F       		.byte	0x9f
 14390 0112 BA000000 		.4byte	.LVL316
 14391 0116 C2000000 		.4byte	.LVL317
 14392 011a 0900     		.2byte	0x9
 14393 011c F3       		.byte	0xf3
 14394 011d 01       		.uleb128 0x1
 14395 011e 51       		.byte	0x51
 14396 011f 23       		.byte	0x23
 14397 0120 0C       		.uleb128 0xc
 14398 0121 06       		.byte	0x6
 14399 0122 23       		.byte	0x23
 14400 0123 21       		.uleb128 0x21
 14401 0124 9F       		.byte	0x9f
 14402 0125 D0000000 		.4byte	.LVL319
 14403 0129 E6000000 		.4byte	.LVL321
 14404 012d 0900     		.2byte	0x9
 14405 012f F3       		.byte	0xf3
 14406 0130 01       		.uleb128 0x1
 14407 0131 51       		.byte	0x51
 14408 0132 23       		.byte	0x23
 14409 0133 0C       		.uleb128 0xc
 14410 0134 06       		.byte	0x6
 14411 0135 23       		.byte	0x23
 14412 0136 21       		.uleb128 0x21
 14413 0137 9F       		.byte	0x9f
 14414 0138 00000000 		.4byte	0
 14415 013c 00000000 		.4byte	0
 14416              	.LLST60:
 14417 0140 50000000 		.4byte	.LVL304
 14418 0144 68000000 		.4byte	.LVL306
 14419 0148 0800     		.2byte	0x8
 14420 014a 76       		.byte	0x76
 14421 014b 00       		.sleb128 0
 14422 014c 93       		.byte	0x93
 14423 014d 04       		.uleb128 0x4
 14424 014e 76       		.byte	0x76
 14425 014f 04       		.sleb128 4
 14426 0150 93       		.byte	0x93
 14427 0151 04       		.uleb128 0x4
 14428 0152 68000000 		.4byte	.LVL306
 14429 0156 7E000000 		.4byte	.LVL307
 14430 015a 0800     		.2byte	0x8
 14431 015c 76       		.byte	0x76
 14432 015d 08       		.sleb128 8
 14433 015e 93       		.byte	0x93
 14434 015f 04       		.uleb128 0x4
 14435 0160 76       		.byte	0x76
ARM GAS  /var/folders/qd/4mxf5pkd0zdf0b9dd1hp39180000gn/T//ccsf5yWP.s 			page 255


 14436 0161 0C       		.sleb128 12
 14437 0162 93       		.byte	0x93
 14438 0163 04       		.uleb128 0x4
 14439 0164 7E000000 		.4byte	.LVL307
 14440 0168 80000000 		.4byte	.LVL308
 14441 016c 0800     		.2byte	0x8
 14442 016e 76       		.byte	0x76
 14443 016f 00       		.sleb128 0
 14444 0170 93       		.byte	0x93
 14445 0171 04       		.uleb128 0x4
 14446 0172 76       		.byte	0x76
 14447 0173 04       		.sleb128 4
 14448 0174 93       		.byte	0x93
 14449 0175 04       		.uleb128 0x4
 14450 0176 80000000 		.4byte	.LVL308
 14451 017a 86000000 		.4byte	.LVL310
 14452 017e 1200     		.2byte	0x12
 14453 0180 03       		.byte	0x3
 14454 0181 00000000 		.4byte	objectList
 14455 0185 06       		.byte	0x6
 14456 0186 93       		.byte	0x93
 14457 0187 04       		.uleb128 0x4
 14458 0188 03       		.byte	0x3
 14459 0189 00000000 		.4byte	objectList
 14460 018d 06       		.byte	0x6
 14461 018e 23       		.byte	0x23
 14462 018f 04       		.uleb128 0x4
 14463 0190 93       		.byte	0x93
 14464 0191 04       		.uleb128 0x4
 14465 0192 00000000 		.4byte	0
 14466 0196 00000000 		.4byte	0
 14467              	.LLST61:
 14468 019a 50000000 		.4byte	.LVL304
 14469 019e 68000000 		.4byte	.LVL306
 14470 01a2 0600     		.2byte	0x6
 14471 01a4 51       		.byte	0x51
 14472 01a5 93       		.byte	0x93
 14473 01a6 04       		.uleb128 0x4
 14474 01a7 52       		.byte	0x52
 14475 01a8 93       		.byte	0x93
 14476 01a9 04       		.uleb128 0x4
 14477 01aa 68000000 		.4byte	.LVL306
 14478 01ae 80000000 		.4byte	.LVL308
 14479 01b2 0600     		.2byte	0x6
 14480 01b4 51       		.byte	0x51
 14481 01b5 93       		.byte	0x93
 14482 01b6 04       		.uleb128 0x4
 14483 01b7 52       		.byte	0x52
 14484 01b8 93       		.byte	0x93
 14485 01b9 04       		.uleb128 0x4
 14486 01ba 00000000 		.4byte	0
 14487 01be 00000000 		.4byte	0
 14488              	.LLST55:
 14489 01c2 00000000 		.4byte	.LVL287
 14490 01c6 17000000 		.4byte	.LVL288-1
 14491 01ca 0200     		.2byte	0x2
 14492 01cc 70       		.byte	0x70
ARM GAS  /var/folders/qd/4mxf5pkd0zdf0b9dd1hp39180000gn/T//ccsf5yWP.s 			page 256


 14493 01cd 00       		.sleb128 0
 14494 01ce 17000000 		.4byte	.LVL288-1
 14495 01d2 54000000 		.4byte	.LFE276
 14496 01d6 0200     		.2byte	0x2
 14497 01d8 74       		.byte	0x74
 14498 01d9 00       		.sleb128 0
 14499 01da 00000000 		.4byte	0
 14500 01de 00000000 		.4byte	0
 14501              	.LLST48:
 14502 01e2 00000000 		.4byte	.LVL251
 14503 01e6 12000000 		.4byte	.LVL252
 14504 01ea 0100     		.2byte	0x1
 14505 01ec 50       		.byte	0x50
 14506 01ed 12000000 		.4byte	.LVL252
 14507 01f1 4A000000 		.4byte	.LVL261
 14508 01f5 0100     		.2byte	0x1
 14509 01f7 55       		.byte	0x55
 14510 01f8 4A000000 		.4byte	.LVL261
 14511 01fc E0010000 		.4byte	.LFE275
 14512 0200 0400     		.2byte	0x4
 14513 0202 F3       		.byte	0xf3
 14514 0203 01       		.uleb128 0x1
 14515 0204 50       		.byte	0x50
 14516 0205 9F       		.byte	0x9f
 14517 0206 00000000 		.4byte	0
 14518 020a 00000000 		.4byte	0
 14519              	.LLST49:
 14520 020e 00000000 		.4byte	.LVL251
 14521 0212 19000000 		.4byte	.LVL253-1
 14522 0216 0100     		.2byte	0x1
 14523 0218 51       		.byte	0x51
 14524 0219 19000000 		.4byte	.LVL253-1
 14525 021d B6000000 		.4byte	.LVL268
 14526 0221 0100     		.2byte	0x1
 14527 0223 57       		.byte	0x57
 14528 0224 B6000000 		.4byte	.LVL268
 14529 0228 BA000000 		.4byte	.LVL269
 14530 022c 0400     		.2byte	0x4
 14531 022e F3       		.byte	0xf3
 14532 022f 01       		.uleb128 0x1
 14533 0230 51       		.byte	0x51
 14534 0231 9F       		.byte	0x9f
 14535 0232 BA000000 		.4byte	.LVL269
 14536 0236 E0010000 		.4byte	.LFE275
 14537 023a 0100     		.2byte	0x1
 14538 023c 57       		.byte	0x57
 14539 023d 00000000 		.4byte	0
 14540 0241 00000000 		.4byte	0
 14541              	.LLST50:
 14542 0245 1A000000 		.4byte	.LVL253
 14543 0249 1E000000 		.4byte	.LVL254
 14544 024d 0100     		.2byte	0x1
 14545 024f 50       		.byte	0x50
 14546 0250 1E000000 		.4byte	.LVL254
 14547 0254 B6000000 		.4byte	.LVL268
 14548 0258 0100     		.2byte	0x1
 14549 025a 5A       		.byte	0x5a
ARM GAS  /var/folders/qd/4mxf5pkd0zdf0b9dd1hp39180000gn/T//ccsf5yWP.s 			page 257


 14550 025b B6000000 		.4byte	.LVL268
 14551 025f B9000000 		.4byte	.LVL269-1
 14552 0263 0100     		.2byte	0x1
 14553 0265 50       		.byte	0x50
 14554 0266 BA000000 		.4byte	.LVL269
 14555 026a E0010000 		.4byte	.LFE275
 14556 026e 0100     		.2byte	0x1
 14557 0270 5A       		.byte	0x5a
 14558 0271 00000000 		.4byte	0
 14559 0275 00000000 		.4byte	0
 14560              	.LLST54:
 14561 0279 30000000 		.4byte	.LVL256
 14562 027d 34000000 		.4byte	.LVL257
 14563 0281 0200     		.2byte	0x2
 14564 0283 30       		.byte	0x30
 14565 0284 9F       		.byte	0x9f
 14566 0285 34000000 		.4byte	.LVL257
 14567 0289 38000000 		.4byte	.LVL258
 14568 028d 0200     		.2byte	0x2
 14569 028f 31       		.byte	0x31
 14570 0290 9F       		.byte	0x9f
 14571 0291 38000000 		.4byte	.LVL258
 14572 0295 3C000000 		.4byte	.LVL259
 14573 0299 0200     		.2byte	0x2
 14574 029b 32       		.byte	0x32
 14575 029c 9F       		.byte	0x9f
 14576 029d 3C000000 		.4byte	.LVL259
 14577 02a1 40000000 		.4byte	.LVL260
 14578 02a5 0200     		.2byte	0x2
 14579 02a7 33       		.byte	0x33
 14580 02a8 9F       		.byte	0x9f
 14581 02a9 40000000 		.4byte	.LVL260
 14582 02ad E0010000 		.4byte	.LFE275
 14583 02b1 0200     		.2byte	0x2
 14584 02b3 34       		.byte	0x34
 14585 02b4 9F       		.byte	0x9f
 14586 02b5 00000000 		.4byte	0
 14587 02b9 00000000 		.4byte	0
 14588              	.LLST51:
 14589 02bd 40000000 		.4byte	.LVL260
 14590 02c1 4A000000 		.4byte	.LVL261
 14591 02c5 0200     		.2byte	0x2
 14592 02c7 30       		.byte	0x30
 14593 02c8 9F       		.byte	0x9f
 14594 02c9 4A000000 		.4byte	.LVL261
 14595 02cd A2000000 		.4byte	.LVL267
 14596 02d1 0100     		.2byte	0x1
 14597 02d3 56       		.byte	0x56
 14598 02d4 BA000000 		.4byte	.LVL269
 14599 02d8 C4010000 		.4byte	.LVL285
 14600 02dc 0100     		.2byte	0x1
 14601 02de 56       		.byte	0x56
 14602 02df 00000000 		.4byte	0
 14603 02e3 00000000 		.4byte	0
 14604              	.LLST52:
 14605 02e7 F6000000 		.4byte	.LVL271
 14606 02eb 10010000 		.4byte	.LVL272
ARM GAS  /var/folders/qd/4mxf5pkd0zdf0b9dd1hp39180000gn/T//ccsf5yWP.s 			page 258


 14607 02ef 0800     		.2byte	0x8
 14608 02f1 7E       		.byte	0x7e
 14609 02f2 00       		.sleb128 0
 14610 02f3 93       		.byte	0x93
 14611 02f4 04       		.uleb128 0x4
 14612 02f5 7E       		.byte	0x7e
 14613 02f6 04       		.sleb128 4
 14614 02f7 93       		.byte	0x93
 14615 02f8 04       		.uleb128 0x4
 14616 02f9 10010000 		.4byte	.LVL272
 14617 02fd 26010000 		.4byte	.LVL273
 14618 0301 0800     		.2byte	0x8
 14619 0303 7E       		.byte	0x7e
 14620 0304 08       		.sleb128 8
 14621 0305 93       		.byte	0x93
 14622 0306 04       		.uleb128 0x4
 14623 0307 7E       		.byte	0x7e
 14624 0308 0C       		.sleb128 12
 14625 0309 93       		.byte	0x93
 14626 030a 04       		.uleb128 0x4
 14627 030b 26010000 		.4byte	.LVL273
 14628 030f 28010000 		.4byte	.LVL274
 14629 0313 0800     		.2byte	0x8
 14630 0315 7E       		.byte	0x7e
 14631 0316 00       		.sleb128 0
 14632 0317 93       		.byte	0x93
 14633 0318 04       		.uleb128 0x4
 14634 0319 7E       		.byte	0x7e
 14635 031a 04       		.sleb128 4
 14636 031b 93       		.byte	0x93
 14637 031c 04       		.uleb128 0x4
 14638 031d 28010000 		.4byte	.LVL274
 14639 0321 32010000 		.4byte	.LVL276
 14640 0325 1200     		.2byte	0x12
 14641 0327 03       		.byte	0x3
 14642 0328 00000000 		.4byte	objectList
 14643 032c 06       		.byte	0x6
 14644 032d 93       		.byte	0x93
 14645 032e 04       		.uleb128 0x4
 14646 032f 03       		.byte	0x3
 14647 0330 00000000 		.4byte	objectList
 14648 0334 06       		.byte	0x6
 14649 0335 23       		.byte	0x23
 14650 0336 04       		.uleb128 0x4
 14651 0337 93       		.byte	0x93
 14652 0338 04       		.uleb128 0x4
 14653 0339 00000000 		.4byte	0
 14654 033d 00000000 		.4byte	0
 14655              	.LLST53:
 14656 0341 F6000000 		.4byte	.LVL271
 14657 0345 10010000 		.4byte	.LVL272
 14658 0349 0600     		.2byte	0x6
 14659 034b 52       		.byte	0x52
 14660 034c 93       		.byte	0x93
 14661 034d 04       		.uleb128 0x4
 14662 034e 53       		.byte	0x53
 14663 034f 93       		.byte	0x93
ARM GAS  /var/folders/qd/4mxf5pkd0zdf0b9dd1hp39180000gn/T//ccsf5yWP.s 			page 259


 14664 0350 04       		.uleb128 0x4
 14665 0351 10010000 		.4byte	.LVL272
 14666 0355 28010000 		.4byte	.LVL274
 14667 0359 0600     		.2byte	0x6
 14668 035b 52       		.byte	0x52
 14669 035c 93       		.byte	0x93
 14670 035d 04       		.uleb128 0x4
 14671 035e 53       		.byte	0x53
 14672 035f 93       		.byte	0x93
 14673 0360 04       		.uleb128 0x4
 14674 0361 00000000 		.4byte	0
 14675 0365 00000000 		.4byte	0
 14676              	.LLST46:
 14677 0369 00000000 		.4byte	.LVL245
 14678 036d 16000000 		.4byte	.LVL246
 14679 0371 0200     		.2byte	0x2
 14680 0373 90       		.byte	0x90
 14681 0374 40       		.uleb128 0x40
 14682 0375 16000000 		.4byte	.LVL246
 14683 0379 8C000000 		.4byte	.LFE274
 14684 037d 0600     		.2byte	0x6
 14685 037f F3       		.byte	0xf3
 14686 0380 03       		.uleb128 0x3
 14687 0381 F5       		.byte	0xf5
 14688 0382 40       		.uleb128 0x40
 14689 0383 2C       		.uleb128 0x2c
 14690 0384 9F       		.byte	0x9f
 14691 0385 00000000 		.4byte	0
 14692 0389 00000000 		.4byte	0
 14693              	.LLST47:
 14694 038d 1C000000 		.4byte	.LVL247
 14695 0391 71000000 		.4byte	.LVL250-1
 14696 0395 0200     		.2byte	0x2
 14697 0397 90       		.byte	0x90
 14698 0398 40       		.uleb128 0x40
 14699 0399 00000000 		.4byte	0
 14700 039d 00000000 		.4byte	0
 14701              	.LLST42:
 14702 03a1 00000000 		.4byte	.LVL210
 14703 03a5 29000000 		.4byte	.LVL214-1
 14704 03a9 0100     		.2byte	0x1
 14705 03ab 51       		.byte	0x51
 14706 03ac 29000000 		.4byte	.LVL214-1
 14707 03b0 48010000 		.4byte	.LFE272
 14708 03b4 0400     		.2byte	0x4
 14709 03b6 F3       		.byte	0xf3
 14710 03b7 01       		.uleb128 0x1
 14711 03b8 51       		.byte	0x51
 14712 03b9 9F       		.byte	0x9f
 14713 03ba 00000000 		.4byte	0
 14714 03be 00000000 		.4byte	0
 14715              	.LLST43:
 14716 03c2 8C000000 		.4byte	.LVL225
 14717 03c6 90000000 		.4byte	.LVL226
 14718 03ca 0500     		.2byte	0x5
 14719 03cc 93       		.byte	0x93
 14720 03cd 04       		.uleb128 0x4
ARM GAS  /var/folders/qd/4mxf5pkd0zdf0b9dd1hp39180000gn/T//ccsf5yWP.s 			page 260


 14721 03ce 50       		.byte	0x50
 14722 03cf 93       		.byte	0x93
 14723 03d0 04       		.uleb128 0x4
 14724 03d1 90000000 		.4byte	.LVL226
 14725 03d5 B2000000 		.4byte	.LVL230
 14726 03d9 0600     		.2byte	0x6
 14727 03db 93       		.byte	0x93
 14728 03dc 04       		.uleb128 0x4
 14729 03dd 90       		.byte	0x90
 14730 03de 50       		.uleb128 0x50
 14731 03df 93       		.byte	0x93
 14732 03e0 04       		.uleb128 0x4
 14733 03e1 B2000000 		.4byte	.LVL230
 14734 03e5 BC000000 		.4byte	.LVL232
 14735 03e9 0700     		.2byte	0x7
 14736 03eb 50       		.byte	0x50
 14737 03ec 93       		.byte	0x93
 14738 03ed 04       		.uleb128 0x4
 14739 03ee 90       		.byte	0x90
 14740 03ef 50       		.uleb128 0x50
 14741 03f0 93       		.byte	0x93
 14742 03f1 04       		.uleb128 0x4
 14743 03f2 BC000000 		.4byte	.LVL232
 14744 03f6 DC000000 		.4byte	.LVL233
 14745 03fa 0700     		.2byte	0x7
 14746 03fc 50       		.byte	0x50
 14747 03fd 93       		.byte	0x93
 14748 03fe 04       		.uleb128 0x4
 14749 03ff 90       		.byte	0x90
 14750 0400 50       		.uleb128 0x50
 14751 0401 93       		.byte	0x93
 14752 0402 04       		.uleb128 0x4
 14753 0403 DC000000 		.4byte	.LVL233
 14754 0407 EA000000 		.4byte	.LVL234
 14755 040b 0700     		.2byte	0x7
 14756 040d 50       		.byte	0x50
 14757 040e 93       		.byte	0x93
 14758 040f 04       		.uleb128 0x4
 14759 0410 90       		.byte	0x90
 14760 0411 50       		.uleb128 0x50
 14761 0412 93       		.byte	0x93
 14762 0413 04       		.uleb128 0x4
 14763 0414 EA000000 		.4byte	.LVL234
 14764 0418 10010000 		.4byte	.LVL238
 14765 041c 0700     		.2byte	0x7
 14766 041e 54       		.byte	0x54
 14767 041f 93       		.byte	0x93
 14768 0420 04       		.uleb128 0x4
 14769 0421 90       		.byte	0x90
 14770 0422 50       		.uleb128 0x50
 14771 0423 93       		.byte	0x93
 14772 0424 04       		.uleb128 0x4
 14773 0425 00000000 		.4byte	0
 14774 0429 00000000 		.4byte	0
 14775              	.LLST44:
 14776 042d 1C000000 		.4byte	.LVL212
 14777 0431 74000000 		.4byte	.LVL221
ARM GAS  /var/folders/qd/4mxf5pkd0zdf0b9dd1hp39180000gn/T//ccsf5yWP.s 			page 261


 14778 0435 0100     		.2byte	0x1
 14779 0437 54       		.byte	0x54
 14780 0438 00000000 		.4byte	0
 14781 043c 00000000 		.4byte	0
 14782              	.LLST45:
 14783 0440 8C000000 		.4byte	.LVL225
 14784 0444 90000000 		.4byte	.LVL226
 14785 0448 0100     		.2byte	0x1
 14786 044a 50       		.byte	0x50
 14787 044b 90000000 		.4byte	.LVL226
 14788 044f B8000000 		.4byte	.LVL231
 14789 0453 0200     		.2byte	0x2
 14790 0455 90       		.byte	0x90
 14791 0456 50       		.uleb128 0x50
 14792 0457 00000000 		.4byte	0
 14793 045b 00000000 		.4byte	0
 14794              	.LLST31:
 14795 045f 00000000 		.4byte	.LVL139
 14796 0463 16000000 		.4byte	.LVL141
 14797 0467 0100     		.2byte	0x1
 14798 0469 50       		.byte	0x50
 14799 046a 16000000 		.4byte	.LVL141
 14800 046e 42000000 		.4byte	.LVL146
 14801 0472 0100     		.2byte	0x1
 14802 0474 54       		.byte	0x54
 14803 0475 42000000 		.4byte	.LVL146
 14804 0479 10010000 		.4byte	.LVL162
 14805 047d 0400     		.2byte	0x4
 14806 047f 7E       		.byte	0x7e
 14807 0480 807B     		.sleb128 -640
 14808 0482 9F       		.byte	0x9f
 14809 0483 10010000 		.4byte	.LVL162
 14810 0487 60030000 		.4byte	.LFE271
 14811 048b 0400     		.2byte	0x4
 14812 048d F3       		.byte	0xf3
 14813 048e 01       		.uleb128 0x1
 14814 048f 50       		.byte	0x50
 14815 0490 9F       		.byte	0x9f
 14816 0491 00000000 		.4byte	0
 14817 0495 00000000 		.4byte	0
 14818              	.LLST32:
 14819 0499 30000000 		.4byte	.LVL145
 14820 049d 42000000 		.4byte	.LVL146
 14821 04a1 0200     		.2byte	0x2
 14822 04a3 30       		.byte	0x30
 14823 04a4 9F       		.byte	0x9f
 14824 04a5 2E010000 		.4byte	.LVL164
 14825 04a9 72020000 		.4byte	.LVL187
 14826 04ad 0100     		.2byte	0x1
 14827 04af 5A       		.byte	0x5a
 14828 04b0 00000000 		.4byte	0
 14829 04b4 00000000 		.4byte	0
 14830              	.LLST33:
 14831 04b8 10000000 		.4byte	.LVL140
 14832 04bc 42000000 		.4byte	.LVL146
 14833 04c0 0200     		.2byte	0x2
 14834 04c2 30       		.byte	0x30
ARM GAS  /var/folders/qd/4mxf5pkd0zdf0b9dd1hp39180000gn/T//ccsf5yWP.s 			page 262


 14835 04c3 9F       		.byte	0x9f
 14836 04c4 42000000 		.4byte	.LVL146
 14837 04c8 5A000000 		.4byte	.LVL147
 14838 04cc 0100     		.2byte	0x1
 14839 04ce 55       		.byte	0x55
 14840 04cf 5A000000 		.4byte	.LVL147
 14841 04d3 6C000000 		.4byte	.LVL148
 14842 04d7 0200     		.2byte	0x2
 14843 04d9 30       		.byte	0x30
 14844 04da 9F       		.byte	0x9f
 14845 04db 70000000 		.4byte	.LVL149
 14846 04df AC000000 		.4byte	.LVL152
 14847 04e3 0100     		.2byte	0x1
 14848 04e5 55       		.byte	0x55
 14849 04e6 AC000000 		.4byte	.LVL152
 14850 04ea AE000000 		.4byte	.LVL153
 14851 04ee 0300     		.2byte	0x3
 14852 04f0 75       		.byte	0x75
 14853 04f1 7F       		.sleb128 -1
 14854 04f2 9F       		.byte	0x9f
 14855 04f3 AE000000 		.4byte	.LVL153
 14856 04f7 C0000000 		.4byte	.LVL154
 14857 04fb 0100     		.2byte	0x1
 14858 04fd 55       		.byte	0x55
 14859 04fe C0000000 		.4byte	.LVL154
 14860 0502 C2000000 		.4byte	.LVL155
 14861 0506 0300     		.2byte	0x3
 14862 0508 75       		.byte	0x75
 14863 0509 7F       		.sleb128 -1
 14864 050a 9F       		.byte	0x9f
 14865 050b C2000000 		.4byte	.LVL155
 14866 050f D6000000 		.4byte	.LVL156
 14867 0513 0100     		.2byte	0x1
 14868 0515 55       		.byte	0x55
 14869 0516 D6000000 		.4byte	.LVL156
 14870 051a EE000000 		.4byte	.LVL157
 14871 051e 0200     		.2byte	0x2
 14872 0520 30       		.byte	0x30
 14873 0521 9F       		.byte	0x9f
 14874 0522 EE000000 		.4byte	.LVL157
 14875 0526 FA000000 		.4byte	.LVL158
 14876 052a 0100     		.2byte	0x1
 14877 052c 55       		.byte	0x55
 14878 052d FA000000 		.4byte	.LVL158
 14879 0531 FC000000 		.4byte	.LVL159
 14880 0535 0300     		.2byte	0x3
 14881 0537 75       		.byte	0x75
 14882 0538 7F       		.sleb128 -1
 14883 0539 9F       		.byte	0x9f
 14884 053a FC000000 		.4byte	.LVL159
 14885 053e 02010000 		.4byte	.LVL160
 14886 0542 0200     		.2byte	0x2
 14887 0544 30       		.byte	0x30
 14888 0545 9F       		.byte	0x9f
 14889 0546 00000000 		.4byte	0
 14890 054a 00000000 		.4byte	0
 14891              	.LLST34:
ARM GAS  /var/folders/qd/4mxf5pkd0zdf0b9dd1hp39180000gn/T//ccsf5yWP.s 			page 263


 14892 054e 10000000 		.4byte	.LVL140
 14893 0552 42000000 		.4byte	.LVL146
 14894 0556 0200     		.2byte	0x2
 14895 0558 30       		.byte	0x30
 14896 0559 9F       		.byte	0x9f
 14897 055a 42000000 		.4byte	.LVL146
 14898 055e FC000000 		.4byte	.LVL159
 14899 0562 0100     		.2byte	0x1
 14900 0564 57       		.byte	0x57
 14901 0565 00000000 		.4byte	0
 14902 0569 00000000 		.4byte	0
 14903              	.LLST35:
 14904 056d 1A000000 		.4byte	.LVL142
 14905 0571 1E000000 		.4byte	.LVL143
 14906 0575 0100     		.2byte	0x1
 14907 0577 50       		.byte	0x50
 14908 0578 1E000000 		.4byte	.LVL143
 14909 057c 2E010000 		.4byte	.LVL164
 14910 0580 0100     		.2byte	0x1
 14911 0582 56       		.byte	0x56
 14912 0583 2E010000 		.4byte	.LVL164
 14913 0587 B2010000 		.4byte	.LVL173
 14914 058b 0300     		.2byte	0x3
 14915 058d 91       		.byte	0x91
 14916 058e C47E     		.sleb128 -188
 14917 0590 B2010000 		.4byte	.LVL173
 14918 0594 36030000 		.4byte	.LVL208
 14919 0598 0200     		.2byte	0x2
 14920 059a 30       		.byte	0x30
 14921 059b 9F       		.byte	0x9f
 14922 059c 00000000 		.4byte	0
 14923 05a0 00000000 		.4byte	0
 14924              	.LLST36:
 14925 05a4 3A010000 		.4byte	.LVL165
 14926 05a8 9A010000 		.4byte	.LVL171
 14927 05ac 0200     		.2byte	0x2
 14928 05ae 30       		.byte	0x30
 14929 05af 9F       		.byte	0x9f
 14930 05b0 00000000 		.4byte	0
 14931 05b4 00000000 		.4byte	0
 14932              	.LLST37:
 14933 05b8 4A020000 		.4byte	.LVL183
 14934 05bc 84020000 		.4byte	.LVL189
 14935 05c0 0100     		.2byte	0x1
 14936 05c2 56       		.byte	0x56
 14937 05c3 00000000 		.4byte	0
 14938 05c7 00000000 		.4byte	0
 14939              	.LLST38:
 14940 05cb 3A010000 		.4byte	.LVL165
 14941 05cf 42010000 		.4byte	.LVL166
 14942 05d3 0100     		.2byte	0x1
 14943 05d5 53       		.byte	0x53
 14944 05d6 42010000 		.4byte	.LVL166
 14945 05da A0010000 		.4byte	.LVL172
 14946 05de 0500     		.2byte	0x5
 14947 05e0 7A       		.byte	0x7a
 14948 05e1 00       		.sleb128 0
ARM GAS  /var/folders/qd/4mxf5pkd0zdf0b9dd1hp39180000gn/T//ccsf5yWP.s 			page 264


 14949 05e2 31       		.byte	0x31
 14950 05e3 26       		.byte	0x26
 14951 05e4 9F       		.byte	0x9f
 14952 05e5 A0010000 		.4byte	.LVL172
 14953 05e9 72020000 		.4byte	.LVL187
 14954 05ed 0500     		.2byte	0x5
 14955 05ef 7A       		.byte	0x7a
 14956 05f0 7F       		.sleb128 -1
 14957 05f1 31       		.byte	0x31
 14958 05f2 26       		.byte	0x26
 14959 05f3 9F       		.byte	0x9f
 14960 05f4 00000000 		.4byte	0
 14961 05f8 00000000 		.4byte	0
 14962              	.LLST39:
 14963 05fc 0C010000 		.4byte	.LVL161
 14964 0600 10010000 		.4byte	.LVL162
 14965 0604 0200     		.2byte	0x2
 14966 0606 30       		.byte	0x30
 14967 0607 9F       		.byte	0x9f
 14968 0608 00000000 		.4byte	0
 14969 060c 00000000 		.4byte	0
 14970              	.LLST40:
 14971 0610 B2010000 		.4byte	.LVL173
 14972 0614 BC010000 		.4byte	.LVL174
 14973 0618 0200     		.2byte	0x2
 14974 061a 30       		.byte	0x30
 14975 061b 9F       		.byte	0x9f
 14976 061c 00000000 		.4byte	0
 14977 0620 00000000 		.4byte	0
 14978              	.LLST41:
 14979 0624 E4010000 		.4byte	.LVL178
 14980 0628 E6010000 		.4byte	.LVL179
 14981 062c 0200     		.2byte	0x2
 14982 062e 31       		.byte	0x31
 14983 062f 9F       		.byte	0x9f
 14984 0630 00000000 		.4byte	0
 14985 0634 00000000 		.4byte	0
 14986              	.LLST29:
 14987 0638 00000000 		.4byte	.LVL131
 14988 063c 12000000 		.4byte	.LVL132
 14989 0640 0100     		.2byte	0x1
 14990 0642 50       		.byte	0x50
 14991 0643 12000000 		.4byte	.LVL132
 14992 0647 19000000 		.4byte	.LVL134-1
 14993 064b 0100     		.2byte	0x1
 14994 064d 52       		.byte	0x52
 14995 064e 19000000 		.4byte	.LVL134-1
 14996 0652 60000000 		.4byte	.LFE270
 14997 0656 0400     		.2byte	0x4
 14998 0658 F3       		.byte	0xf3
 14999 0659 01       		.uleb128 0x1
 15000 065a 50       		.byte	0x50
 15001 065b 9F       		.byte	0x9f
 15002 065c 00000000 		.4byte	0
 15003 0660 00000000 		.4byte	0
 15004              	.LLST30:
 15005 0664 00000000 		.4byte	.LVL131
ARM GAS  /var/folders/qd/4mxf5pkd0zdf0b9dd1hp39180000gn/T//ccsf5yWP.s 			page 265


 15006 0668 16000000 		.4byte	.LVL133
 15007 066c 0100     		.2byte	0x1
 15008 066e 51       		.byte	0x51
 15009 066f 16000000 		.4byte	.LVL133
 15010 0673 19000000 		.4byte	.LVL134-1
 15011 0677 0100     		.2byte	0x1
 15012 0679 53       		.byte	0x53
 15013 067a 19000000 		.4byte	.LVL134-1
 15014 067e 60000000 		.4byte	.LFE270
 15015 0682 0400     		.2byte	0x4
 15016 0684 F3       		.byte	0xf3
 15017 0685 01       		.uleb128 0x1
 15018 0686 51       		.byte	0x51
 15019 0687 9F       		.byte	0x9f
 15020 0688 00000000 		.4byte	0
 15021 068c 00000000 		.4byte	0
 15022              	.LLST27:
 15023 0690 26000000 		.4byte	.LVL120
 15024 0694 29000000 		.4byte	.LVL121-1
 15025 0698 0600     		.2byte	0x6
 15026 069a 52       		.byte	0x52
 15027 069b 93       		.byte	0x93
 15028 069c 04       		.uleb128 0x4
 15029 069d 51       		.byte	0x51
 15030 069e 93       		.byte	0x93
 15031 069f 04       		.uleb128 0x4
 15032 06a0 00000000 		.4byte	0
 15033 06a4 00000000 		.4byte	0
 15034              	.LLST28:
 15035 06a8 26000000 		.4byte	.LVL120
 15036 06ac 32000000 		.4byte	.LVL122
 15037 06b0 0800     		.2byte	0x8
 15038 06b2 7D       		.byte	0x7d
 15039 06b3 00       		.sleb128 0
 15040 06b4 93       		.byte	0x93
 15041 06b5 04       		.uleb128 0x4
 15042 06b6 91       		.byte	0x91
 15043 06b7 6C       		.sleb128 -20
 15044 06b8 93       		.byte	0x93
 15045 06b9 04       		.uleb128 0x4
 15046 06ba 4C000000 		.4byte	.LVL124
 15047 06be 4E000000 		.4byte	.LVL125
 15048 06c2 0600     		.2byte	0x6
 15049 06c4 91       		.byte	0x91
 15050 06c5 68       		.sleb128 -24
 15051 06c6 93       		.byte	0x93
 15052 06c7 04       		.uleb128 0x4
 15053 06c8 93       		.byte	0x93
 15054 06c9 04       		.uleb128 0x4
 15055 06ca 4E000000 		.4byte	.LVL125
 15056 06ce 5C000000 		.4byte	.LFE267
 15057 06d2 0800     		.2byte	0x8
 15058 06d4 7D       		.byte	0x7d
 15059 06d5 00       		.sleb128 0
 15060 06d6 93       		.byte	0x93
 15061 06d7 04       		.uleb128 0x4
 15062 06d8 91       		.byte	0x91
ARM GAS  /var/folders/qd/4mxf5pkd0zdf0b9dd1hp39180000gn/T//ccsf5yWP.s 			page 266


 15063 06d9 6C       		.sleb128 -20
 15064 06da 93       		.byte	0x93
 15065 06db 04       		.uleb128 0x4
 15066 06dc 00000000 		.4byte	0
 15067 06e0 00000000 		.4byte	0
 15068              	.LLST11:
 15069 06e4 00000000 		.4byte	.LVL80
 15070 06e8 32000000 		.4byte	.LVL82
 15071 06ec 0100     		.2byte	0x1
 15072 06ee 50       		.byte	0x50
 15073 06ef 32000000 		.4byte	.LVL82
 15074 06f3 B4000000 		.4byte	.LVL91
 15075 06f7 0400     		.2byte	0x4
 15076 06f9 F3       		.byte	0xf3
 15077 06fa 01       		.uleb128 0x1
 15078 06fb 50       		.byte	0x50
 15079 06fc 9F       		.byte	0x9f
 15080 06fd B4000000 		.4byte	.LVL91
 15081 0701 C2000000 		.4byte	.LVL92
 15082 0705 0100     		.2byte	0x1
 15083 0707 50       		.byte	0x50
 15084 0708 C2000000 		.4byte	.LVL92
 15085 070c D4000000 		.4byte	.LFE263
 15086 0710 0400     		.2byte	0x4
 15087 0712 F3       		.byte	0xf3
 15088 0713 01       		.uleb128 0x1
 15089 0714 50       		.byte	0x50
 15090 0715 9F       		.byte	0x9f
 15091 0716 00000000 		.4byte	0
 15092 071a 00000000 		.4byte	0
 15093              	.LLST12:
 15094 071e 00000000 		.4byte	.LVL80
 15095 0722 32000000 		.4byte	.LVL82
 15096 0726 0100     		.2byte	0x1
 15097 0728 51       		.byte	0x51
 15098 0729 32000000 		.4byte	.LVL82
 15099 072d 88000000 		.4byte	.LVL89
 15100 0731 0100     		.2byte	0x1
 15101 0733 56       		.byte	0x56
 15102 0734 88000000 		.4byte	.LVL89
 15103 0738 90000000 		.4byte	.LVL90
 15104 073c 0300     		.2byte	0x3
 15105 073e 76       		.byte	0x76
 15106 073f 02       		.sleb128 2
 15107 0740 9F       		.byte	0x9f
 15108 0741 90000000 		.4byte	.LVL90
 15109 0745 B4000000 		.4byte	.LVL91
 15110 0749 0400     		.2byte	0x4
 15111 074b F3       		.byte	0xf3
 15112 074c 01       		.uleb128 0x1
 15113 074d 51       		.byte	0x51
 15114 074e 9F       		.byte	0x9f
 15115 074f B4000000 		.4byte	.LVL91
 15116 0753 C2000000 		.4byte	.LVL92
 15117 0757 0100     		.2byte	0x1
 15118 0759 51       		.byte	0x51
 15119 075a C2000000 		.4byte	.LVL92
ARM GAS  /var/folders/qd/4mxf5pkd0zdf0b9dd1hp39180000gn/T//ccsf5yWP.s 			page 267


 15120 075e D4000000 		.4byte	.LFE263
 15121 0762 0400     		.2byte	0x4
 15122 0764 F3       		.byte	0xf3
 15123 0765 01       		.uleb128 0x1
 15124 0766 51       		.byte	0x51
 15125 0767 9F       		.byte	0x9f
 15126 0768 00000000 		.4byte	0
 15127 076c 00000000 		.4byte	0
 15128              	.LLST13:
 15129 0770 00000000 		.4byte	.LVL80
 15130 0774 32000000 		.4byte	.LVL82
 15131 0778 0100     		.2byte	0x1
 15132 077a 52       		.byte	0x52
 15133 077b 32000000 		.4byte	.LVL82
 15134 077f B4000000 		.4byte	.LVL91
 15135 0783 0100     		.2byte	0x1
 15136 0785 59       		.byte	0x59
 15137 0786 B4000000 		.4byte	.LVL91
 15138 078a C2000000 		.4byte	.LVL92
 15139 078e 0100     		.2byte	0x1
 15140 0790 52       		.byte	0x52
 15141 0791 C2000000 		.4byte	.LVL92
 15142 0795 D4000000 		.4byte	.LFE263
 15143 0799 0100     		.2byte	0x1
 15144 079b 59       		.byte	0x59
 15145 079c 00000000 		.4byte	0
 15146 07a0 00000000 		.4byte	0
 15147              	.LLST14:
 15148 07a4 58000000 		.4byte	.LVL83
 15149 07a8 90000000 		.4byte	.LVL90
 15150 07ac 0200     		.2byte	0x2
 15151 07ae 90       		.byte	0x90
 15152 07af 51       		.uleb128 0x51
 15153 07b0 00000000 		.4byte	0
 15154 07b4 00000000 		.4byte	0
 15155              	.LLST15:
 15156 07b8 6E000000 		.4byte	.LVL84
 15157 07bc 90000000 		.4byte	.LVL90
 15158 07c0 0200     		.2byte	0x2
 15159 07c2 90       		.byte	0x90
 15160 07c3 50       		.uleb128 0x50
 15161 07c4 00000000 		.4byte	0
 15162 07c8 00000000 		.4byte	0
 15163              	.LLST16:
 15164 07cc 14000000 		.4byte	.LVL81
 15165 07d0 32000000 		.4byte	.LVL82
 15166 07d4 0600     		.2byte	0x6
 15167 07d6 9E       		.byte	0x9e
 15168 07d7 04       		.uleb128 0x4
 15169 07d8 00000000 		.4byte	0
 15170 07dc 32000000 		.4byte	.LVL82
 15171 07e0 90000000 		.4byte	.LVL90
 15172 07e4 0200     		.2byte	0x2
 15173 07e6 90       		.byte	0x90
 15174 07e7 53       		.uleb128 0x53
 15175 07e8 B4000000 		.4byte	.LVL91
 15176 07ec C2000000 		.4byte	.LVL92
ARM GAS  /var/folders/qd/4mxf5pkd0zdf0b9dd1hp39180000gn/T//ccsf5yWP.s 			page 268


 15177 07f0 0600     		.2byte	0x6
 15178 07f2 9E       		.byte	0x9e
 15179 07f3 04       		.uleb128 0x4
 15180 07f4 00000000 		.4byte	0
 15181 07f8 00000000 		.4byte	0
 15182 07fc 00000000 		.4byte	0
 15183              	.LLST17:
 15184 0800 14000000 		.4byte	.LVL81
 15185 0804 32000000 		.4byte	.LVL82
 15186 0808 0600     		.2byte	0x6
 15187 080a 9E       		.byte	0x9e
 15188 080b 04       		.uleb128 0x4
 15189 080c 00000000 		.4byte	0
 15190 0810 32000000 		.4byte	.LVL82
 15191 0814 80000000 		.4byte	.LVL87
 15192 0818 0200     		.2byte	0x2
 15193 081a 90       		.byte	0x90
 15194 081b 52       		.uleb128 0x52
 15195 081c 84000000 		.4byte	.LVL88
 15196 0820 90000000 		.4byte	.LVL90
 15197 0824 0200     		.2byte	0x2
 15198 0826 90       		.byte	0x90
 15199 0827 52       		.uleb128 0x52
 15200 0828 B4000000 		.4byte	.LVL91
 15201 082c C2000000 		.4byte	.LVL92
 15202 0830 0600     		.2byte	0x6
 15203 0832 9E       		.byte	0x9e
 15204 0833 04       		.uleb128 0x4
 15205 0834 00000000 		.4byte	0
 15206 0838 00000000 		.4byte	0
 15207 083c 00000000 		.4byte	0
 15208              	.LLST18:
 15209 0840 14000000 		.4byte	.LVL81
 15210 0844 32000000 		.4byte	.LVL82
 15211 0848 0200     		.2byte	0x2
 15212 084a 30       		.byte	0x30
 15213 084b 9F       		.byte	0x9f
 15214 084c B4000000 		.4byte	.LVL91
 15215 0850 C2000000 		.4byte	.LVL92
 15216 0854 0200     		.2byte	0x2
 15217 0856 30       		.byte	0x30
 15218 0857 9F       		.byte	0x9f
 15219 0858 00000000 		.4byte	0
 15220 085c 00000000 		.4byte	0
 15221              	.LLST8:
 15222 0860 16000000 		.4byte	.LVL52
 15223 0864 18000000 		.4byte	.LVL53
 15224 0868 0A00     		.2byte	0xa
 15225 086a 91       		.byte	0x91
 15226 086b 887F     		.sleb128 -120
 15227 086d 93       		.byte	0x93
 15228 086e 04       		.uleb128 0x4
 15229 086f 91       		.byte	0x91
 15230 0870 8C7F     		.sleb128 -116
 15231 0872 93       		.byte	0x93
 15232 0873 04       		.uleb128 0x4
 15233 0874 18000000 		.4byte	.LVL53
ARM GAS  /var/folders/qd/4mxf5pkd0zdf0b9dd1hp39180000gn/T//ccsf5yWP.s 			page 269


 15234 0878 1C000000 		.4byte	.LVL54
 15235 087c 0900     		.2byte	0x9
 15236 087e 73       		.byte	0x73
 15237 087f 00       		.sleb128 0
 15238 0880 93       		.byte	0x93
 15239 0881 04       		.uleb128 0x4
 15240 0882 91       		.byte	0x91
 15241 0883 8C7F     		.sleb128 -116
 15242 0885 93       		.byte	0x93
 15243 0886 04       		.uleb128 0x4
 15244 0887 00000000 		.4byte	0
 15245 088b 00000000 		.4byte	0
 15246              	.LLST9:
 15247 088f 00000000 		.4byte	.LVL51
 15248 0893 23000000 		.4byte	.LVL55-1
 15249 0897 0200     		.2byte	0x2
 15250 0899 90       		.byte	0x90
 15251 089a 40       		.uleb128 0x40
 15252 089b 23000000 		.4byte	.LVL55-1
 15253 089f 62010000 		.4byte	.LVL77
 15254 08a3 0200     		.2byte	0x2
 15255 08a5 90       		.byte	0x90
 15256 08a6 50       		.uleb128 0x50
 15257 08a7 62010000 		.4byte	.LVL77
 15258 08ab 66010000 		.4byte	.LVL78
 15259 08af 0600     		.2byte	0x6
 15260 08b1 F3       		.byte	0xf3
 15261 08b2 03       		.uleb128 0x3
 15262 08b3 F5       		.byte	0xf5
 15263 08b4 40       		.uleb128 0x40
 15264 08b5 2C       		.uleb128 0x2c
 15265 08b6 9F       		.byte	0x9f
 15266 08b7 66010000 		.4byte	.LVL78
 15267 08bb 7C010000 		.4byte	.LFE262
 15268 08bf 0200     		.2byte	0x2
 15269 08c1 90       		.byte	0x90
 15270 08c2 50       		.uleb128 0x50
 15271 08c3 00000000 		.4byte	0
 15272 08c7 00000000 		.4byte	0
 15273              	.LLST10:
 15274 08cb 00010000 		.4byte	.LVL72
 15275 08cf 34010000 		.4byte	.LVL73
 15276 08d3 0600     		.2byte	0x6
 15277 08d5 03       		.byte	0x3
 15278 08d6 08000000 		.4byte	robotActualPosition+8
 15279 08da 9F       		.byte	0x9f
 15280 08db 00000000 		.4byte	0
 15281 08df 00000000 		.4byte	0
 15282              	.LLST6:
 15283 08e3 00000000 		.4byte	.LVL28
 15284 08e7 1D000000 		.4byte	.LVL30-1
 15285 08eb 0100     		.2byte	0x1
 15286 08ed 51       		.byte	0x51
 15287 08ee 1D000000 		.4byte	.LVL30-1
 15288 08f2 A6000000 		.4byte	.LVL44
 15289 08f6 0100     		.2byte	0x1
 15290 08f8 54       		.byte	0x54
ARM GAS  /var/folders/qd/4mxf5pkd0zdf0b9dd1hp39180000gn/T//ccsf5yWP.s 			page 270


 15291 08f9 A6000000 		.4byte	.LVL44
 15292 08fd DC000000 		.4byte	.LFE261
 15293 0901 0400     		.2byte	0x4
 15294 0903 F3       		.byte	0xf3
 15295 0904 01       		.uleb128 0x1
 15296 0905 51       		.byte	0x51
 15297 0906 9F       		.byte	0x9f
 15298 0907 00000000 		.4byte	0
 15299 090b 00000000 		.4byte	0
 15300              	.LLST7:
 15301 090f 6A000000 		.4byte	.LVL37
 15302 0913 6D000000 		.4byte	.LVL38-1
 15303 0917 0500     		.2byte	0x5
 15304 0919 50       		.byte	0x50
 15305 091a 93       		.byte	0x93
 15306 091b 04       		.uleb128 0x4
 15307 091c 93       		.byte	0x93
 15308 091d 04       		.uleb128 0x4
 15309 091e 6D000000 		.4byte	.LVL38-1
 15310 0922 A6000000 		.4byte	.LVL44
 15311 0926 0500     		.2byte	0x5
 15312 0928 56       		.byte	0x56
 15313 0929 93       		.byte	0x93
 15314 092a 04       		.uleb128 0x4
 15315 092b 93       		.byte	0x93
 15316 092c 04       		.uleb128 0x4
 15317 092d A6000000 		.4byte	.LVL44
 15318 0931 AA000000 		.4byte	.LVL45
 15319 0935 0600     		.2byte	0x6
 15320 0937 56       		.byte	0x56
 15321 0938 93       		.byte	0x93
 15322 0939 04       		.uleb128 0x4
 15323 093a 50       		.byte	0x50
 15324 093b 93       		.byte	0x93
 15325 093c 04       		.uleb128 0x4
 15326 093d AA000000 		.4byte	.LVL45
 15327 0941 AD000000 		.4byte	.LVL46-1
 15328 0945 0600     		.2byte	0x6
 15329 0947 56       		.byte	0x56
 15330 0948 93       		.byte	0x93
 15331 0949 04       		.uleb128 0x4
 15332 094a 53       		.byte	0x53
 15333 094b 93       		.byte	0x93
 15334 094c 04       		.uleb128 0x4
 15335 094d AD000000 		.4byte	.LVL46-1
 15336 0951 C0000000 		.4byte	.LVL48
 15337 0955 0600     		.2byte	0x6
 15338 0957 56       		.byte	0x56
 15339 0958 93       		.byte	0x93
 15340 0959 04       		.uleb128 0x4
 15341 095a 54       		.byte	0x54
 15342 095b 93       		.byte	0x93
 15343 095c 04       		.uleb128 0x4
 15344 095d 00000000 		.4byte	0
 15345 0961 00000000 		.4byte	0
 15346              	.LLST1:
 15347 0965 00000000 		.4byte	.LVL2
ARM GAS  /var/folders/qd/4mxf5pkd0zdf0b9dd1hp39180000gn/T//ccsf5yWP.s 			page 271


 15348 0969 33000000 		.4byte	.LVL5-1
 15349 096d 0100     		.2byte	0x1
 15350 096f 51       		.byte	0x51
 15351 0970 33000000 		.4byte	.LVL5-1
 15352 0974 58010000 		.4byte	.LFE260
 15353 0978 0100     		.2byte	0x1
 15354 097a 5A       		.byte	0x5a
 15355 097b 00000000 		.4byte	0
 15356 097f 00000000 		.4byte	0
 15357              	.LLST2:
 15358 0983 00000000 		.4byte	.LVL2
 15359 0987 33000000 		.4byte	.LVL5-1
 15360 098b 0100     		.2byte	0x1
 15361 098d 52       		.byte	0x52
 15362 098e 33000000 		.4byte	.LVL5-1
 15363 0992 58010000 		.4byte	.LFE260
 15364 0996 0400     		.2byte	0x4
 15365 0998 F3       		.byte	0xf3
 15366 0999 01       		.uleb128 0x1
 15367 099a 52       		.byte	0x52
 15368 099b 9F       		.byte	0x9f
 15369 099c 00000000 		.4byte	0
 15370 09a0 00000000 		.4byte	0
 15371              	.LLST3:
 15372 09a4 00000000 		.4byte	.LVL2
 15373 09a8 26000000 		.4byte	.LVL3
 15374 09ac 0100     		.2byte	0x1
 15375 09ae 53       		.byte	0x53
 15376 09af 26000000 		.4byte	.LVL3
 15377 09b3 33000000 		.4byte	.LVL5-1
 15378 09b7 0200     		.2byte	0x2
 15379 09b9 90       		.byte	0x90
 15380 09ba 4E       		.uleb128 0x4e
 15381 09bb 33000000 		.4byte	.LVL5-1
 15382 09bf 58010000 		.4byte	.LFE260
 15383 09c3 0400     		.2byte	0x4
 15384 09c5 F3       		.byte	0xf3
 15385 09c6 01       		.uleb128 0x1
 15386 09c7 53       		.byte	0x53
 15387 09c8 9F       		.byte	0x9f
 15388 09c9 00000000 		.4byte	0
 15389 09cd 00000000 		.4byte	0
 15390              	.LLST4:
 15391 09d1 9A000000 		.4byte	.LVL13
 15392 09d5 9D000000 		.4byte	.LVL14-1
 15393 09d9 0500     		.2byte	0x5
 15394 09db 50       		.byte	0x50
 15395 09dc 93       		.byte	0x93
 15396 09dd 04       		.uleb128 0x4
 15397 09de 93       		.byte	0x93
 15398 09df 08       		.uleb128 0x8
 15399 09e0 9D000000 		.4byte	.LVL14-1
 15400 09e4 DA000000 		.4byte	.LVL19
 15401 09e8 0500     		.2byte	0x5
 15402 09ea 5B       		.byte	0x5b
 15403 09eb 93       		.byte	0x93
 15404 09ec 04       		.uleb128 0x4
ARM GAS  /var/folders/qd/4mxf5pkd0zdf0b9dd1hp39180000gn/T//ccsf5yWP.s 			page 272


 15405 09ed 93       		.byte	0x93
 15406 09ee 08       		.uleb128 0x8
 15407 09ef DA000000 		.4byte	.LVL19
 15408 09f3 EE000000 		.4byte	.LVL20
 15409 09f7 0800     		.2byte	0x8
 15410 09f9 5B       		.byte	0x5b
 15411 09fa 93       		.byte	0x93
 15412 09fb 04       		.uleb128 0x4
 15413 09fc 50       		.byte	0x50
 15414 09fd 93       		.byte	0x93
 15415 09fe 04       		.uleb128 0x4
 15416 09ff 93       		.byte	0x93
 15417 0a00 04       		.uleb128 0x4
 15418 0a01 EE000000 		.4byte	.LVL20
 15419 0a05 FC000000 		.4byte	.LVL21
 15420 0a09 0A00     		.2byte	0xa
 15421 0a0b 5B       		.byte	0x5b
 15422 0a0c 93       		.byte	0x93
 15423 0a0d 04       		.uleb128 0x4
 15424 0a0e 50       		.byte	0x50
 15425 0a0f 93       		.byte	0x93
 15426 0a10 04       		.uleb128 0x4
 15427 0a11 90       		.byte	0x90
 15428 0a12 4F       		.uleb128 0x4f
 15429 0a13 93       		.byte	0x93
 15430 0a14 04       		.uleb128 0x4
 15431 0a15 FC000000 		.4byte	.LVL21
 15432 0a19 18010000 		.4byte	.LVL22
 15433 0a1d 0A00     		.2byte	0xa
 15434 0a1f 5B       		.byte	0x5b
 15435 0a20 93       		.byte	0x93
 15436 0a21 04       		.uleb128 0x4
 15437 0a22 50       		.byte	0x50
 15438 0a23 93       		.byte	0x93
 15439 0a24 04       		.uleb128 0x4
 15440 0a25 90       		.byte	0x90
 15441 0a26 4F       		.uleb128 0x4f
 15442 0a27 93       		.byte	0x93
 15443 0a28 04       		.uleb128 0x4
 15444 0a29 18010000 		.4byte	.LVL22
 15445 0a2d 2A010000 		.4byte	.LVL24
 15446 0a31 0A00     		.2byte	0xa
 15447 0a33 5B       		.byte	0x5b
 15448 0a34 93       		.byte	0x93
 15449 0a35 04       		.uleb128 0x4
 15450 0a36 50       		.byte	0x50
 15451 0a37 93       		.byte	0x93
 15452 0a38 04       		.uleb128 0x4
 15453 0a39 90       		.byte	0x90
 15454 0a3a 4F       		.uleb128 0x4f
 15455 0a3b 93       		.byte	0x93
 15456 0a3c 04       		.uleb128 0x4
 15457 0a3d 00000000 		.4byte	0
 15458 0a41 00000000 		.4byte	0
 15459              	.LLST5:
 15460 0a45 EE000000 		.4byte	.LVL20
 15461 0a49 22010000 		.4byte	.LVL23
ARM GAS  /var/folders/qd/4mxf5pkd0zdf0b9dd1hp39180000gn/T//ccsf5yWP.s 			page 273


 15462 0a4d 0600     		.2byte	0x6
 15463 0a4f F2       		.byte	0xf2
 15464 0a50 984C0000 		.4byte	.Ldebug_info0+19608
 15465 0a54 08       		.sleb128 8
 15466 0a55 00000000 		.4byte	0
 15467 0a59 00000000 		.4byte	0
 15468              	.LLST0:
 15469 0a5d 00000000 		.4byte	.LVL0
 15470 0a61 5F000000 		.4byte	.LVL1-1
 15471 0a65 0100     		.2byte	0x1
 15472 0a67 50       		.byte	0x50
 15473 0a68 5F000000 		.4byte	.LVL1-1
 15474 0a6c 68000000 		.4byte	.LFE259
 15475 0a70 0400     		.2byte	0x4
 15476 0a72 F3       		.byte	0xf3
 15477 0a73 01       		.uleb128 0x1
 15478 0a74 50       		.byte	0x50
 15479 0a75 9F       		.byte	0x9f
 15480 0a76 00000000 		.4byte	0
 15481 0a7a 00000000 		.4byte	0
 15482              	.LLST19:
 15483 0a7e 28000000 		.4byte	.LVL94
 15484 0a82 48000000 		.4byte	.LVL99
 15485 0a86 0800     		.2byte	0x8
 15486 0a88 75       		.byte	0x75
 15487 0a89 00       		.sleb128 0
 15488 0a8a 93       		.byte	0x93
 15489 0a8b 04       		.uleb128 0x4
 15490 0a8c 91       		.byte	0x91
 15491 0a8d 64       		.sleb128 -28
 15492 0a8e 93       		.byte	0x93
 15493 0a8f 04       		.uleb128 0x4
 15494 0a90 48000000 		.4byte	.LVL99
 15495 0a94 50000000 		.4byte	.LFE264
 15496 0a98 0800     		.2byte	0x8
 15497 0a9a 75       		.byte	0x75
 15498 0a9b 00       		.sleb128 0
 15499 0a9c 93       		.byte	0x93
 15500 0a9d 04       		.uleb128 0x4
 15501 0a9e 91       		.byte	0x91
 15502 0a9f 64       		.sleb128 -28
 15503 0aa0 93       		.byte	0x93
 15504 0aa1 04       		.uleb128 0x4
 15505 0aa2 00000000 		.4byte	0
 15506 0aa6 00000000 		.4byte	0
 15507              	.LLST20:
 15508 0aaa 28000000 		.4byte	.LVL94
 15509 0aae 2B000000 		.4byte	.LVL95-1
 15510 0ab2 0700     		.2byte	0x7
 15511 0ab4 52       		.byte	0x52
 15512 0ab5 93       		.byte	0x93
 15513 0ab6 04       		.uleb128 0x4
 15514 0ab7 91       		.byte	0x91
 15515 0ab8 5C       		.sleb128 -36
 15516 0ab9 93       		.byte	0x93
 15517 0aba 04       		.uleb128 0x4
 15518 0abb 2B000000 		.4byte	.LVL95-1
ARM GAS  /var/folders/qd/4mxf5pkd0zdf0b9dd1hp39180000gn/T//ccsf5yWP.s 			page 274


 15519 0abf 46000000 		.4byte	.LVL98
 15520 0ac3 0800     		.2byte	0x8
 15521 0ac5 7D       		.byte	0x7d
 15522 0ac6 00       		.sleb128 0
 15523 0ac7 93       		.byte	0x93
 15524 0ac8 04       		.uleb128 0x4
 15525 0ac9 91       		.byte	0x91
 15526 0aca 5C       		.sleb128 -36
 15527 0acb 93       		.byte	0x93
 15528 0acc 04       		.uleb128 0x4
 15529 0acd 46000000 		.4byte	.LVL98
 15530 0ad1 48000000 		.4byte	.LVL99
 15531 0ad5 0800     		.2byte	0x8
 15532 0ad7 91       		.byte	0x91
 15533 0ad8 58       		.sleb128 -40
 15534 0ad9 93       		.byte	0x93
 15535 0ada 04       		.uleb128 0x4
 15536 0adb 91       		.byte	0x91
 15537 0adc 5C       		.sleb128 -36
 15538 0add 93       		.byte	0x93
 15539 0ade 04       		.uleb128 0x4
 15540 0adf 48000000 		.4byte	.LVL99
 15541 0ae3 50000000 		.4byte	.LFE264
 15542 0ae7 0800     		.2byte	0x8
 15543 0ae9 7D       		.byte	0x7d
 15544 0aea 00       		.sleb128 0
 15545 0aeb 93       		.byte	0x93
 15546 0aec 04       		.uleb128 0x4
 15547 0aed 91       		.byte	0x91
 15548 0aee 5C       		.sleb128 -36
 15549 0aef 93       		.byte	0x93
 15550 0af0 04       		.uleb128 0x4
 15551 0af1 00000000 		.4byte	0
 15552 0af5 00000000 		.4byte	0
 15553              	.LLST21:
 15554 0af9 1C000000 		.4byte	.LVL101
 15555 0afd 1E000000 		.4byte	.LVL102
 15556 0b01 0600     		.2byte	0x6
 15557 0b03 50       		.byte	0x50
 15558 0b04 93       		.byte	0x93
 15559 0b05 04       		.uleb128 0x4
 15560 0b06 53       		.byte	0x53
 15561 0b07 93       		.byte	0x93
 15562 0b08 04       		.uleb128 0x4
 15563 0b09 1E000000 		.4byte	.LVL102
 15564 0b0d 20000000 		.4byte	.LVL103
 15565 0b11 0700     		.2byte	0x7
 15566 0b13 50       		.byte	0x50
 15567 0b14 93       		.byte	0x93
 15568 0b15 04       		.uleb128 0x4
 15569 0b16 91       		.byte	0x91
 15570 0b17 64       		.sleb128 -28
 15571 0b18 93       		.byte	0x93
 15572 0b19 04       		.uleb128 0x4
 15573 0b1a 20000000 		.4byte	.LVL103
 15574 0b1e 3C000000 		.4byte	.LVL106
 15575 0b22 0800     		.2byte	0x8
ARM GAS  /var/folders/qd/4mxf5pkd0zdf0b9dd1hp39180000gn/T//ccsf5yWP.s 			page 275


 15576 0b24 91       		.byte	0x91
 15577 0b25 60       		.sleb128 -32
 15578 0b26 93       		.byte	0x93
 15579 0b27 04       		.uleb128 0x4
 15580 0b28 91       		.byte	0x91
 15581 0b29 64       		.sleb128 -28
 15582 0b2a 93       		.byte	0x93
 15583 0b2b 04       		.uleb128 0x4
 15584 0b2c 3C000000 		.4byte	.LVL106
 15585 0b30 44000000 		.4byte	.LFE265
 15586 0b34 0800     		.2byte	0x8
 15587 0b36 91       		.byte	0x91
 15588 0b37 60       		.sleb128 -32
 15589 0b38 93       		.byte	0x93
 15590 0b39 04       		.uleb128 0x4
 15591 0b3a 91       		.byte	0x91
 15592 0b3b 64       		.sleb128 -28
 15593 0b3c 93       		.byte	0x93
 15594 0b3d 04       		.uleb128 0x4
 15595 0b3e 00000000 		.4byte	0
 15596 0b42 00000000 		.4byte	0
 15597              	.LLST22:
 15598 0b46 1C000000 		.4byte	.LVL101
 15599 0b4a 2A000000 		.4byte	.LVL104
 15600 0b4e 0600     		.2byte	0x6
 15601 0b50 51       		.byte	0x51
 15602 0b51 93       		.byte	0x93
 15603 0b52 04       		.uleb128 0x4
 15604 0b53 54       		.byte	0x54
 15605 0b54 93       		.byte	0x93
 15606 0b55 04       		.uleb128 0x4
 15607 0b56 2A000000 		.4byte	.LVL104
 15608 0b5a 3A000000 		.4byte	.LVL105
 15609 0b5e 0700     		.2byte	0x7
 15610 0b60 7D       		.byte	0x7d
 15611 0b61 00       		.sleb128 0
 15612 0b62 93       		.byte	0x93
 15613 0b63 04       		.uleb128 0x4
 15614 0b64 54       		.byte	0x54
 15615 0b65 93       		.byte	0x93
 15616 0b66 04       		.uleb128 0x4
 15617 0b67 3A000000 		.4byte	.LVL105
 15618 0b6b 3C000000 		.4byte	.LVL106
 15619 0b6f 0700     		.2byte	0x7
 15620 0b71 91       		.byte	0x91
 15621 0b72 58       		.sleb128 -40
 15622 0b73 93       		.byte	0x93
 15623 0b74 04       		.uleb128 0x4
 15624 0b75 54       		.byte	0x54
 15625 0b76 93       		.byte	0x93
 15626 0b77 04       		.uleb128 0x4
 15627 0b78 3C000000 		.4byte	.LVL106
 15628 0b7c 44000000 		.4byte	.LFE265
 15629 0b80 0700     		.2byte	0x7
 15630 0b82 7D       		.byte	0x7d
 15631 0b83 00       		.sleb128 0
 15632 0b84 93       		.byte	0x93
ARM GAS  /var/folders/qd/4mxf5pkd0zdf0b9dd1hp39180000gn/T//ccsf5yWP.s 			page 276


 15633 0b85 04       		.uleb128 0x4
 15634 0b86 54       		.byte	0x54
 15635 0b87 93       		.byte	0x93
 15636 0b88 04       		.uleb128 0x4
 15637 0b89 00000000 		.4byte	0
 15638 0b8d 00000000 		.4byte	0
 15639              	.LLST23:
 15640 0b91 16000000 		.4byte	.LVL108
 15641 0b95 1E000000 		.4byte	.LVL109
 15642 0b99 0600     		.2byte	0x6
 15643 0b9b 50       		.byte	0x50
 15644 0b9c 93       		.byte	0x93
 15645 0b9d 04       		.uleb128 0x4
 15646 0b9e 51       		.byte	0x51
 15647 0b9f 93       		.byte	0x93
 15648 0ba0 04       		.uleb128 0x4
 15649 0ba1 1E000000 		.4byte	.LVL109
 15650 0ba5 36000000 		.4byte	.LVL110
 15651 0ba9 0600     		.2byte	0x6
 15652 0bab 50       		.byte	0x50
 15653 0bac 93       		.byte	0x93
 15654 0bad 04       		.uleb128 0x4
 15655 0bae 55       		.byte	0x55
 15656 0baf 93       		.byte	0x93
 15657 0bb0 04       		.uleb128 0x4
 15658 0bb1 36000000 		.4byte	.LVL110
 15659 0bb5 56000000 		.4byte	.LVL115
 15660 0bb9 0600     		.2byte	0x6
 15661 0bbb 57       		.byte	0x57
 15662 0bbc 93       		.byte	0x93
 15663 0bbd 04       		.uleb128 0x4
 15664 0bbe 55       		.byte	0x55
 15665 0bbf 93       		.byte	0x93
 15666 0bc0 04       		.uleb128 0x4
 15667 0bc1 56000000 		.4byte	.LVL115
 15668 0bc5 62000000 		.4byte	.LVL116
 15669 0bc9 0800     		.2byte	0x8
 15670 0bcb 7D       		.byte	0x7d
 15671 0bcc 00       		.sleb128 0
 15672 0bcd 93       		.byte	0x93
 15673 0bce 04       		.uleb128 0x4
 15674 0bcf 7D       		.byte	0x7d
 15675 0bd0 04       		.sleb128 4
 15676 0bd1 93       		.byte	0x93
 15677 0bd2 04       		.uleb128 0x4
 15678 0bd3 62000000 		.4byte	.LVL116
 15679 0bd7 64000000 		.4byte	.LVL117
 15680 0bdb 0800     		.2byte	0x8
 15681 0bdd 91       		.byte	0x91
 15682 0bde 58       		.sleb128 -40
 15683 0bdf 93       		.byte	0x93
 15684 0be0 04       		.uleb128 0x4
 15685 0be1 91       		.byte	0x91
 15686 0be2 5C       		.sleb128 -36
 15687 0be3 93       		.byte	0x93
 15688 0be4 04       		.uleb128 0x4
 15689 0be5 64000000 		.4byte	.LVL117
ARM GAS  /var/folders/qd/4mxf5pkd0zdf0b9dd1hp39180000gn/T//ccsf5yWP.s 			page 277


 15690 0be9 68000000 		.4byte	.LVL118
 15691 0bed 0600     		.2byte	0x6
 15692 0bef 57       		.byte	0x57
 15693 0bf0 93       		.byte	0x93
 15694 0bf1 04       		.uleb128 0x4
 15695 0bf2 55       		.byte	0x55
 15696 0bf3 93       		.byte	0x93
 15697 0bf4 04       		.uleb128 0x4
 15698 0bf5 68000000 		.4byte	.LVL118
 15699 0bf9 78000000 		.4byte	.LFE266
 15700 0bfd 0800     		.2byte	0x8
 15701 0bff 7D       		.byte	0x7d
 15702 0c00 00       		.sleb128 0
 15703 0c01 93       		.byte	0x93
 15704 0c02 04       		.uleb128 0x4
 15705 0c03 7D       		.byte	0x7d
 15706 0c04 04       		.sleb128 4
 15707 0c05 93       		.byte	0x93
 15708 0c06 04       		.uleb128 0x4
 15709 0c07 00000000 		.4byte	0
 15710 0c0b 00000000 		.4byte	0
 15711              	.LLST24:
 15712 0c0f 16000000 		.4byte	.LVL108
 15713 0c13 38000000 		.4byte	.LVL111
 15714 0c17 0200     		.2byte	0x2
 15715 0c19 30       		.byte	0x30
 15716 0c1a 9F       		.byte	0x9f
 15717 0c1b 38000000 		.4byte	.LVL111
 15718 0c1f 56000000 		.4byte	.LVL115
 15719 0c23 0100     		.2byte	0x1
 15720 0c25 50       		.byte	0x50
 15721 0c26 00000000 		.4byte	0
 15722 0c2a 00000000 		.4byte	0
 15723              	.LLST25:
 15724 0c2e 1E000000 		.4byte	.LVL109
 15725 0c32 38000000 		.4byte	.LVL111
 15726 0c36 0800     		.2byte	0x8
 15727 0c38 71       		.byte	0x71
 15728 0c39 00       		.sleb128 0
 15729 0c3a 93       		.byte	0x93
 15730 0c3b 04       		.uleb128 0x4
 15731 0c3c 71       		.byte	0x71
 15732 0c3d 04       		.sleb128 4
 15733 0c3e 93       		.byte	0x93
 15734 0c3f 04       		.uleb128 0x4
 15735 0c40 38000000 		.4byte	.LVL111
 15736 0c44 4E000000 		.4byte	.LVL112
 15737 0c48 0800     		.2byte	0x8
 15738 0c4a 71       		.byte	0x71
 15739 0c4b 08       		.sleb128 8
 15740 0c4c 93       		.byte	0x93
 15741 0c4d 04       		.uleb128 0x4
 15742 0c4e 71       		.byte	0x71
 15743 0c4f 0C       		.sleb128 12
 15744 0c50 93       		.byte	0x93
 15745 0c51 04       		.uleb128 0x4
 15746 0c52 4E000000 		.4byte	.LVL112
ARM GAS  /var/folders/qd/4mxf5pkd0zdf0b9dd1hp39180000gn/T//ccsf5yWP.s 			page 278


 15747 0c56 50000000 		.4byte	.LVL113
 15748 0c5a 0800     		.2byte	0x8
 15749 0c5c 71       		.byte	0x71
 15750 0c5d 00       		.sleb128 0
 15751 0c5e 93       		.byte	0x93
 15752 0c5f 04       		.uleb128 0x4
 15753 0c60 71       		.byte	0x71
 15754 0c61 04       		.sleb128 4
 15755 0c62 93       		.byte	0x93
 15756 0c63 04       		.uleb128 0x4
 15757 0c64 50000000 		.4byte	.LVL113
 15758 0c68 56000000 		.4byte	.LVL115
 15759 0c6c 1200     		.2byte	0x12
 15760 0c6e 03       		.byte	0x3
 15761 0c6f 00000000 		.4byte	objectList
 15762 0c73 06       		.byte	0x6
 15763 0c74 93       		.byte	0x93
 15764 0c75 04       		.uleb128 0x4
 15765 0c76 03       		.byte	0x3
 15766 0c77 00000000 		.4byte	objectList
 15767 0c7b 06       		.byte	0x6
 15768 0c7c 23       		.byte	0x23
 15769 0c7d 04       		.uleb128 0x4
 15770 0c7e 93       		.byte	0x93
 15771 0c7f 04       		.uleb128 0x4
 15772 0c80 00000000 		.4byte	0
 15773 0c84 00000000 		.4byte	0
 15774              	.LLST26:
 15775 0c88 1E000000 		.4byte	.LVL109
 15776 0c8c 36000000 		.4byte	.LVL110
 15777 0c90 0600     		.2byte	0x6
 15778 0c92 50       		.byte	0x50
 15779 0c93 93       		.byte	0x93
 15780 0c94 04       		.uleb128 0x4
 15781 0c95 55       		.byte	0x55
 15782 0c96 93       		.byte	0x93
 15783 0c97 04       		.uleb128 0x4
 15784 0c98 36000000 		.4byte	.LVL110
 15785 0c9c 38000000 		.4byte	.LVL111
 15786 0ca0 0600     		.2byte	0x6
 15787 0ca2 57       		.byte	0x57
 15788 0ca3 93       		.byte	0x93
 15789 0ca4 04       		.uleb128 0x4
 15790 0ca5 55       		.byte	0x55
 15791 0ca6 93       		.byte	0x93
 15792 0ca7 04       		.uleb128 0x4
 15793 0ca8 38000000 		.4byte	.LVL111
 15794 0cac 50000000 		.4byte	.LVL113
 15795 0cb0 0600     		.2byte	0x6
 15796 0cb2 57       		.byte	0x57
 15797 0cb3 93       		.byte	0x93
 15798 0cb4 04       		.uleb128 0x4
 15799 0cb5 55       		.byte	0x55
 15800 0cb6 93       		.byte	0x93
 15801 0cb7 04       		.uleb128 0x4
 15802 0cb8 64000000 		.4byte	.LVL117
 15803 0cbc 68000000 		.4byte	.LVL118
ARM GAS  /var/folders/qd/4mxf5pkd0zdf0b9dd1hp39180000gn/T//ccsf5yWP.s 			page 279


 15804 0cc0 0600     		.2byte	0x6
 15805 0cc2 57       		.byte	0x57
 15806 0cc3 93       		.byte	0x93
 15807 0cc4 04       		.uleb128 0x4
 15808 0cc5 55       		.byte	0x55
 15809 0cc6 93       		.byte	0x93
 15810 0cc7 04       		.uleb128 0x4
 15811 0cc8 00000000 		.4byte	0
 15812 0ccc 00000000 		.4byte	0
 15813              		.section	.debug_aranges,"",%progbits
 15814 0000 BC000000 		.4byte	0xbc
 15815 0004 0200     		.2byte	0x2
 15816 0006 00000000 		.4byte	.Ldebug_info0
 15817 000a 04       		.byte	0x4
 15818 000b 00       		.byte	0
 15819 000c 0000     		.2byte	0
 15820 000e 0000     		.2byte	0
 15821 0010 00000000 		.4byte	.LFB259
 15822 0014 68000000 		.4byte	.LFE259-.LFB259
 15823 0018 00000000 		.4byte	.LFB260
 15824 001c 58010000 		.4byte	.LFE260-.LFB260
 15825 0020 00000000 		.4byte	.LFB261
 15826 0024 DC000000 		.4byte	.LFE261-.LFB261
 15827 0028 00000000 		.4byte	.LFB262
 15828 002c 7C010000 		.4byte	.LFE262-.LFB262
 15829 0030 00000000 		.4byte	.LFB263
 15830 0034 D4000000 		.4byte	.LFE263-.LFB263
 15831 0038 00000000 		.4byte	.LFB264
 15832 003c 50000000 		.4byte	.LFE264-.LFB264
 15833 0040 00000000 		.4byte	.LFB265
 15834 0044 44000000 		.4byte	.LFE265-.LFB265
 15835 0048 00000000 		.4byte	.LFB266
 15836 004c 78000000 		.4byte	.LFE266-.LFB266
 15837 0050 00000000 		.4byte	.LFB267
 15838 0054 5C000000 		.4byte	.LFE267-.LFB267
 15839 0058 00000000 		.4byte	.LFB268
 15840 005c 48000000 		.4byte	.LFE268-.LFB268
 15841 0060 00000000 		.4byte	.LFB269
 15842 0064 30000000 		.4byte	.LFE269-.LFB269
 15843 0068 00000000 		.4byte	.LFB270
 15844 006c 60000000 		.4byte	.LFE270-.LFB270
 15845 0070 00000000 		.4byte	.LFB271
 15846 0074 60030000 		.4byte	.LFE271-.LFB271
 15847 0078 00000000 		.4byte	.LFB272
 15848 007c 48010000 		.4byte	.LFE272-.LFB272
 15849 0080 00000000 		.4byte	.LFB273
 15850 0084 30000000 		.4byte	.LFE273-.LFB273
 15851 0088 00000000 		.4byte	.LFB274
 15852 008c 8C000000 		.4byte	.LFE274-.LFB274
 15853 0090 00000000 		.4byte	.LFB275
 15854 0094 E0010000 		.4byte	.LFE275-.LFB275
 15855 0098 00000000 		.4byte	.LFB276
 15856 009c 54000000 		.4byte	.LFE276-.LFB276
 15857 00a0 00000000 		.4byte	.LFB277
 15858 00a4 38000000 		.4byte	.LFE277-.LFB277
 15859 00a8 00000000 		.4byte	.LFB278
 15860 00ac 04010000 		.4byte	.LFE278-.LFB278
ARM GAS  /var/folders/qd/4mxf5pkd0zdf0b9dd1hp39180000gn/T//ccsf5yWP.s 			page 280


 15861 00b0 00000000 		.4byte	.LFB279
 15862 00b4 24000000 		.4byte	.LFE279-.LFB279
 15863 00b8 00000000 		.4byte	0
 15864 00bc 00000000 		.4byte	0
 15865              		.section	.debug_ranges,"",%progbits
 15866              	.Ldebug_ranges0:
 15867 0000 E2000000 		.4byte	.LBB26
 15868 0004 E6000000 		.4byte	.LBE26
 15869 0008 EE000000 		.4byte	.LBB29
 15870 000c 22010000 		.4byte	.LBE29
 15871 0010 00000000 		.4byte	0
 15872 0014 00000000 		.4byte	0
 15873 0018 E8000000 		.4byte	.LBB30
 15874 001c EC000000 		.4byte	.LBE30
 15875 0020 F4000000 		.4byte	.LBB34
 15876 0024 FC000000 		.4byte	.LBE34
 15877 0028 00010000 		.4byte	.LBB35
 15878 002c 34010000 		.4byte	.LBE35
 15879 0030 00000000 		.4byte	0
 15880 0034 00000000 		.4byte	0
 15881 0038 1E000000 		.4byte	.LBB36
 15882 003c 2A000000 		.4byte	.LBE36
 15883 0040 32000000 		.4byte	.LBB37
 15884 0044 7A000000 		.4byte	.LBE37
 15885 0048 7C000000 		.4byte	.LBB38
 15886 004c 84000000 		.4byte	.LBE38
 15887 0050 00000000 		.4byte	0
 15888 0054 00000000 		.4byte	0
 15889 0058 02000000 		.4byte	.LBB39
 15890 005c 04000000 		.4byte	.LBE39
 15891 0060 06000000 		.4byte	.LBB44
 15892 0064 08000000 		.4byte	.LBE44
 15893 0068 0E000000 		.4byte	.LBB45
 15894 006c 10000000 		.4byte	.LBE45
 15895 0070 16000000 		.4byte	.LBB46
 15896 0074 56000000 		.4byte	.LBE46
 15897 0078 64000000 		.4byte	.LBB47
 15898 007c 68000000 		.4byte	.LBE47
 15899 0080 00000000 		.4byte	0
 15900 0084 00000000 		.4byte	0
 15901 0088 1E000000 		.4byte	.LBB40
 15902 008c 34000000 		.4byte	.LBE40
 15903 0090 38000000 		.4byte	.LBB43
 15904 0094 50000000 		.4byte	.LBE43
 15905 0098 00000000 		.4byte	0
 15906 009c 00000000 		.4byte	0
 15907 00a0 0E000000 		.4byte	.LBB48
 15908 00a4 22000000 		.4byte	.LBE48
 15909 00a8 26000000 		.4byte	.LBB51
 15910 00ac 3A000000 		.4byte	.LBE51
 15911 00b0 00000000 		.4byte	0
 15912 00b4 00000000 		.4byte	0
 15913 00b8 04000000 		.4byte	.LBB52
 15914 00bc 06000000 		.4byte	.LBE52
 15915 00c0 0A000000 		.4byte	.LBB56
 15916 00c4 0C000000 		.4byte	.LBE56
 15917 00c8 10000000 		.4byte	.LBB57
ARM GAS  /var/folders/qd/4mxf5pkd0zdf0b9dd1hp39180000gn/T//ccsf5yWP.s 			page 281


 15918 00cc 18000000 		.4byte	.LBE57
 15919 00d0 00000000 		.4byte	0
 15920 00d4 00000000 		.4byte	0
 15921 00d8 2A000000 		.4byte	.LBB63
 15922 00dc 2C000000 		.4byte	.LBE63
 15923 00e0 40000000 		.4byte	.LBB72
 15924 00e4 A2000000 		.4byte	.LBE72
 15925 00e8 BA000000 		.4byte	.LBB73
 15926 00ec C4010000 		.4byte	.LBE73
 15927 00f0 00000000 		.4byte	0
 15928 00f4 00000000 		.4byte	0
 15929 00f8 F6000000 		.4byte	.LBB66
 15930 00fc 0A010000 		.4byte	.LBE66
 15931 0100 10010000 		.4byte	.LBB69
 15932 0104 28010000 		.4byte	.LBE69
 15933 0108 00000000 		.4byte	0
 15934 010c 00000000 		.4byte	0
 15935 0110 50000000 		.4byte	.LBB76
 15936 0114 64000000 		.4byte	.LBE76
 15937 0118 68000000 		.4byte	.LBB79
 15938 011c 80000000 		.4byte	.LBE79
 15939 0120 00000000 		.4byte	0
 15940 0124 00000000 		.4byte	0
 15941 0128 00000000 		.4byte	.LFB259
 15942 012c 68000000 		.4byte	.LFE259
 15943 0130 00000000 		.4byte	.LFB260
 15944 0134 58010000 		.4byte	.LFE260
 15945 0138 00000000 		.4byte	.LFB261
 15946 013c DC000000 		.4byte	.LFE261
 15947 0140 00000000 		.4byte	.LFB262
 15948 0144 7C010000 		.4byte	.LFE262
 15949 0148 00000000 		.4byte	.LFB263
 15950 014c D4000000 		.4byte	.LFE263
 15951 0150 00000000 		.4byte	.LFB264
 15952 0154 50000000 		.4byte	.LFE264
 15953 0158 00000000 		.4byte	.LFB265
 15954 015c 44000000 		.4byte	.LFE265
 15955 0160 00000000 		.4byte	.LFB266
 15956 0164 78000000 		.4byte	.LFE266
 15957 0168 00000000 		.4byte	.LFB267
 15958 016c 5C000000 		.4byte	.LFE267
 15959 0170 00000000 		.4byte	.LFB268
 15960 0174 48000000 		.4byte	.LFE268
 15961 0178 00000000 		.4byte	.LFB269
 15962 017c 30000000 		.4byte	.LFE269
 15963 0180 00000000 		.4byte	.LFB270
 15964 0184 60000000 		.4byte	.LFE270
 15965 0188 00000000 		.4byte	.LFB271
 15966 018c 60030000 		.4byte	.LFE271
 15967 0190 00000000 		.4byte	.LFB272
 15968 0194 48010000 		.4byte	.LFE272
 15969 0198 00000000 		.4byte	.LFB273
 15970 019c 30000000 		.4byte	.LFE273
 15971 01a0 00000000 		.4byte	.LFB274
 15972 01a4 8C000000 		.4byte	.LFE274
 15973 01a8 00000000 		.4byte	.LFB275
 15974 01ac E0010000 		.4byte	.LFE275
ARM GAS  /var/folders/qd/4mxf5pkd0zdf0b9dd1hp39180000gn/T//ccsf5yWP.s 			page 282


 15975 01b0 00000000 		.4byte	.LFB276
 15976 01b4 54000000 		.4byte	.LFE276
 15977 01b8 00000000 		.4byte	.LFB277
 15978 01bc 38000000 		.4byte	.LFE277
 15979 01c0 00000000 		.4byte	.LFB278
 15980 01c4 04010000 		.4byte	.LFE278
 15981 01c8 00000000 		.4byte	.LFB279
 15982 01cc 24000000 		.4byte	.LFE279
 15983 01d0 00000000 		.4byte	0
 15984 01d4 00000000 		.4byte	0
 15985              		.section	.debug_line,"",%progbits
 15986              	.Ldebug_line0:
 15987 0000 660D0000 		.section	.debug_str,"MS",%progbits,1
 15987      0200BC08 
 15987      00000201 
 15987      FB0E0D00 
 15987      01010101 
 15988              	.LASF708:
 15989 0000 5553425F 		.ascii	"USB_STOP\000"
 15989      53544F50 
 15989      00
 15990              	.LASF324:
 15991 0009 706F7274 		.ascii	"port_intctx\000"
 15991      5F696E74 
 15991      63747800 
 15992              	.LASF333:
 15993 0015 63685F74 		.ascii	"ch_trace_buffer_t\000"
 15993      72616365 
 15993      5F627566 
 15993      6665725F 
 15993      7400
 15994              	.LASF365:
 15995 0027 63685F70 		.ascii	"ch_ptrsize\000"
 15995      74727369 
 15995      7A6500
 15996              	.LASF644:
 15997 0032 6576656E 		.ascii	"event\000"
 15997      7400
 15998              	.LASF922:
 15999 0038 63686563 		.ascii	"checkAngle\000"
 15999      6B416E67 
 15999      6C6500
 16000              	.LASF495:
 16001 0043 43414E5F 		.ascii	"CAN_STARTING\000"
 16001      53544152 
 16001      54494E47 
 16001      00
 16002              	.LASF168:
 16003 0050 6D73675F 		.ascii	"msg_t\000"
 16003      7400
 16004              	.LASF440:
 16005 0056 61667268 		.ascii	"afrh\000"
 16005      00
 16006              	.LASF587:
 16007 005b 4F504D4F 		.ascii	"OPMODE_SMBUS_DEVICE\000"
 16007      44455F53 
 16007      4D425553 
ARM GAS  /var/folders/qd/4mxf5pkd0zdf0b9dd1hp39180000gn/T//ccsf5yWP.s 			page 283


 16007      5F444556 
 16007      49434500 
 16008              	.LASF344:
 16009 006f 6D5F6372 		.ascii	"m_crit_isr\000"
 16009      69745F69 
 16009      737200
 16010              	.LASF851:
 16011 007a 6D656173 		.ascii	"measurement\000"
 16011      7572656D 
 16011      656E7400 
 16012              	.LASF660:
 16013 0086 73646366 		.ascii	"sdcflags_t\000"
 16013      6C616773 
 16013      5F7400
 16014              	.LASF767:
 16015 0091 44494550 		.ascii	"DIEPTXF0\000"
 16015      54584630 
 16015      00
 16016              	.LASF132:
 16017 009a 5F5F6664 		.ascii	"__fdlibm_xopen\000"
 16017      6C69626D 
 16017      5F786F70 
 16017      656E00
 16018              	.LASF494:
 16019 00a9 43414E5F 		.ascii	"CAN_STOP\000"
 16019      53544F50 
 16019      00
 16020              	.LASF178:
 16021 00b2 705F7072 		.ascii	"p_prio\000"
 16021      696F00
 16022              	.LASF378:
 16023 00b9 63665F6F 		.ascii	"cf_off_time\000"
 16023      66665F74 
 16023      696D6500 
 16024              	.LASF227:
 16025 00c5 63685F73 		.ascii	"ch_system_t\000"
 16025      79737465 
 16025      6D5F7400 
 16026              	.LASF7:
 16027 00d1 5F5F7569 		.ascii	"__uint8_t\000"
 16027      6E74385F 
 16027      7400
 16028              	.LASF350:
 16029 00db 77747365 		.ascii	"wtsemp\000"
 16029      6D7000
 16030              	.LASF866:
 16031 00e2 6D6F645F 		.ascii	"mod_mapping_getRobotDisplacement\000"
 16031      6D617070 
 16031      696E675F 
 16031      67657452 
 16031      6F626F74 
 16032              	.LASF152:
 16033 0103 5F426F6F 		.ascii	"_Bool\000"
 16033      6C00
 16034              	.LASF536:
 16035 0109 64617461 		.ascii	"datamode\000"
 16035      6D6F6465 
ARM GAS  /var/folders/qd/4mxf5pkd0zdf0b9dd1hp39180000gn/T//ccsf5yWP.s 			page 284


 16035      00
 16036              	.LASF603:
 16037 0112 646D6172 		.ascii	"dmarx\000"
 16037      7800
 16038              	.LASF72:
 16039 0118 5F6D6273 		.ascii	"_mbstate\000"
 16039      74617465 
 16039      00
 16040              	.LASF51:
 16041 0121 5F617465 		.ascii	"_atexit\000"
 16041      78697400 
 16042              	.LASF844:
 16043 0129 7375626F 		.ascii	"suboptarg\000"
 16043      70746172 
 16043      6700
 16044              	.LASF484:
 16045 0133 73717231 		.ascii	"sqr1\000"
 16045      00
 16046              	.LASF877:
 16047 0138 4E4F5448 		.ascii	"NOTHING\000"
 16047      494E4700 
 16048              	.LASF412:
 16049 0140 424C4B5F 		.ascii	"BLK_UNINIT\000"
 16049      554E494E 
 16049      495400
 16050              	.LASF615:
 16051 014b 72785F62 		.ascii	"rx_buffer\000"
 16051      75666665 
 16051      7200
 16052              	.LASF599:
 16053 0155 6572726F 		.ascii	"errors\000"
 16053      727300
 16054              	.LASF337:
 16055 015c 776F7273 		.ascii	"worst\000"
 16055      7400
 16056              	.LASF220:
 16057 0162 76745F73 		.ascii	"vt_systime\000"
 16057      79737469 
 16057      6D6500
 16058              	.LASF286:
 16059 016d 444F5231 		.ascii	"DOR1\000"
 16059      00
 16060              	.LASF287:
 16061 0172 444F5232 		.ascii	"DOR2\000"
 16061      00
 16062              	.LASF614:
 16063 0177 74785F62 		.ascii	"tx_buffer\000"
 16063      75666665 
 16063      7200
 16064              	.LASF41:
 16065 0181 5F5F746D 		.ascii	"__tm_mon\000"
 16065      5F6D6F6E 
 16065      00
 16066              	.LASF49:
 16067 018a 5F666E74 		.ascii	"_fntypes\000"
 16067      79706573 
 16067      00
ARM GAS  /var/folders/qd/4mxf5pkd0zdf0b9dd1hp39180000gn/T//ccsf5yWP.s 			page 285


 16068              	.LASF863:
 16069 0193 616E676C 		.ascii	"angle\000"
 16069      6500
 16070              	.LASF359:
 16071 0199 6D5F6E65 		.ascii	"m_next\000"
 16071      787400
 16072              	.LASF444:
 16073 01a0 50434461 		.ascii	"PCData\000"
 16073      746100
 16074              	.LASF79:
 16075 01a7 5F696E63 		.ascii	"_inc\000"
 16075      00
 16076              	.LASF52:
 16077 01ac 5F696E64 		.ascii	"_ind\000"
 16077      00
 16078              	.LASF309:
 16079 01b1 4D41534B 		.ascii	"MASK\000"
 16079      00
 16080              	.LASF469:
 16081 01b6 73616D70 		.ascii	"samples\000"
 16081      6C657300 
 16082              	.LASF771:
 16083 01be 47434346 		.ascii	"GCCFG\000"
 16083      4700
 16084              	.LASF886:
 16085 01c4 73746570 		.ascii	"step\000"
 16085      00
 16086              	.LASF565:
 16087 01c9 42445452 		.ascii	"BDTR\000"
 16087      00
 16088              	.LASF518:
 16089 01ce 7265676D 		.ascii	"regmask\000"
 16089      61736B00 
 16090              	.LASF597:
 16091 01d6 49324343 		.ascii	"I2CConfig\000"
 16091      6F6E6669 
 16091      6700
 16092              	.LASF157:
 16093 01e0 75696E74 		.ascii	"uint16_t\000"
 16093      31365F74 
 16093      00
 16094              	.LASF604:
 16095 01e9 646D6174 		.ascii	"dmatx\000"
 16095      7800
 16096              	.LASF841:
 16097 01ef 736F665F 		.ascii	"sof_cb\000"
 16097      636200
 16098              	.LASF541:
 16099 01f6 4558545F 		.ascii	"EXT_ACTIVE\000"
 16099      41435449 
 16099      564500
 16100              	.LASF58:
 16101 0201 5F666C61 		.ascii	"_flags\000"
 16101      677300
 16102              	.LASF437:
 16103 0208 6F737065 		.ascii	"ospeedr\000"
 16103      65647200 
ARM GAS  /var/folders/qd/4mxf5pkd0zdf0b9dd1hp39180000gn/T//ccsf5yWP.s 			page 286


 16104              	.LASF891:
 16105 0210 6D6F645F 		.ascii	"mod_mapping_init\000"
 16105      6D617070 
 16105      696E675F 
 16105      696E6974 
 16105      00
 16106              	.LASF774:
 16107 0221 44494550 		.ascii	"DIEPTXF\000"
 16107      54584600 
 16108              	.LASF384:
 16109 0229 656C5F6E 		.ascii	"el_next\000"
 16109      65787400 
 16110              	.LASF464:
 16111 0231 4144435F 		.ascii	"ADC_ERR_OVERFLOW\000"
 16111      4552525F 
 16111      4F564552 
 16111      464C4F57 
 16111      00
 16112              	.LASF89:
 16113 0242 5F637674 		.ascii	"_cvtlen\000"
 16113      6C656E00 
 16114              	.LASF225:
 16115 024a 6C6F636B 		.ascii	"lock_cnt\000"
 16115      5F636E74 
 16115      00
 16116              	.LASF201:
 16117 0253 63685F74 		.ascii	"ch_threads_queue\000"
 16117      68726561 
 16117      64735F71 
 16117      75657565 
 16117      00
 16118              	.LASF131:
 16119 0264 5F5F6664 		.ascii	"__fdlibm_svid\000"
 16119      6C69626D 
 16119      5F737669 
 16119      6400
 16120              	.LASF93:
 16121 0272 5F736967 		.ascii	"_sig_func\000"
 16121      5F66756E 
 16121      6300
 16122              	.LASF180:
 16123 027c 705F6E65 		.ascii	"p_newer\000"
 16123      77657200 
 16124              	.LASF784:
 16125 0284 48505254 		.ascii	"HPRT\000"
 16125      00
 16126              	.LASF857:
 16127 0289 6D6F645F 		.ascii	"mod_mapping_getAreaCenter\000"
 16127      6D617070 
 16127      696E675F 
 16127      67657441 
 16127      72656143 
 16128              	.LASF738:
 16129 02a3 4843494E 		.ascii	"HCINT\000"
 16129      5400
 16130              	.LASF146:
 16131 02a9 726F626F 		.ascii	"robotDistance_t\000"
ARM GAS  /var/folders/qd/4mxf5pkd0zdf0b9dd1hp39180000gn/T//ccsf5yWP.s 			page 287


 16131      74446973 
 16131      74616E63 
 16131      655F7400 
 16132              	.LASF236:
 16133 02b9 534D5052 		.ascii	"SMPR1\000"
 16133      3100
 16134              	.LASF237:
 16135 02bf 534D5052 		.ascii	"SMPR2\000"
 16135      3200
 16136              	.LASF375:
 16137 02c5 63665F6F 		.ascii	"cf_off_flags\000"
 16137      66665F66 
 16137      6C616773 
 16137      00
 16138              	.LASF71:
 16139 02d2 5F6C6F63 		.ascii	"_lock\000"
 16139      6B00
 16140              	.LASF67:
 16141 02d8 5F6E6275 		.ascii	"_nbuf\000"
 16141      6600
 16142              	.LASF677:
 16143 02de 5350495F 		.ascii	"SPI_STOP\000"
 16143      53544F50 
 16143      00
 16144              	.LASF125:
 16145 02e7 5F756E75 		.ascii	"_unused\000"
 16145      73656400 
 16146              	.LASF443:
 16147 02ef 50424461 		.ascii	"PBData\000"
 16147      746100
 16148              	.LASF363:
 16149 02f6 63685F73 		.ascii	"ch_size\000"
 16149      697A6500 
 16150              	.LASF780:
 16151 02fe 48505458 		.ascii	"HPTXSTS\000"
 16151      53545300 
 16152              	.LASF436:
 16153 0306 6F747970 		.ascii	"otyper\000"
 16153      657200
 16154              	.LASF427:
 16155 030d 4F545950 		.ascii	"OTYPER\000"
 16155      455200
 16156              	.LASF520:
 16157 0314 64616370 		.ascii	"dacparams_t\000"
 16157      6172616D 
 16157      735F7400 
 16158              	.LASF655:
 16159 0320 5344435F 		.ascii	"SDC_MODE_1BIT\000"
 16159      4D4F4445 
 16159      5F314249 
 16159      5400
 16160              	.LASF736:
 16161 032e 48434348 		.ascii	"HCCHAR\000"
 16161      415200
 16162              	.LASF143:
 16163 0335 6D656173 		.ascii	"measurement_t\000"
 16163      7572656D 
ARM GAS  /var/folders/qd/4mxf5pkd0zdf0b9dd1hp39180000gn/T//ccsf5yWP.s 			page 288


 16163      656E745F 
 16163      7400
 16164              	.LASF174:
 16165 0343 74687265 		.ascii	"thread_t\000"
 16165      61645F74 
 16165      00
 16166              	.LASF386:
 16167 034c 656C5F65 		.ascii	"el_events\000"
 16167      76656E74 
 16167      7300
 16168              	.LASF624:
 16169 0356 70776D73 		.ascii	"pwmstate_t\000"
 16169      74617465 
 16169      5F7400
 16170              	.LASF505:
 16171 0361 736C6565 		.ascii	"sleep_event\000"
 16171      705F6576 
 16171      656E7400 
 16172              	.LASF219:
 16173 036d 63685F76 		.ascii	"ch_virtual_timers_list\000"
 16173      69727475 
 16173      616C5F74 
 16173      696D6572 
 16173      735F6C69 
 16174              	.LASF409:
 16175 0384 76656374 		.ascii	"vector\000"
 16175      6F7200
 16176              	.LASF884:
 16177 038b 696E7465 		.ascii	"intersection\000"
 16177      72736563 
 16177      74696F6E 
 16177      00
 16178              	.LASF762:
 16179 0398 47494E54 		.ascii	"GINTSTS\000"
 16179      53545300 
 16180              	.LASF158:
 16181 03a0 696E7433 		.ascii	"int32_t\000"
 16181      325F7400 
 16182              	.LASF595:
 16183 03a8 636C6F63 		.ascii	"clock_speed\000"
 16183      6B5F7370 
 16183      65656400 
 16184              	.LASF173:
 16185 03b4 73797374 		.ascii	"systime_t\000"
 16185      696D655F 
 16185      7400
 16186              	.LASF538:
 16187 03be 44414344 		.ascii	"DACD2\000"
 16187      3200
 16188              	.LASF507:
 16189 03c4 43414E44 		.ascii	"CANDriver\000"
 16189      72697665 
 16189      7200
 16190              	.LASF103:
 16191 03ce 5F616464 		.ascii	"_add\000"
 16191      00
 16192              	.LASF290:
ARM GAS  /var/folders/qd/4mxf5pkd0zdf0b9dd1hp39180000gn/T//ccsf5yWP.s 			page 289


 16193 03d3 4D304152 		.ascii	"M0AR\000"
 16193      00
 16194              	.LASF743:
 16195 03d8 72657376 		.ascii	"resvd1c\000"
 16195      64316300 
 16196              	.LASF585:
 16197 03e0 69326366 		.ascii	"i2cflags_t\000"
 16197      6C616773 
 16197      5F7400
 16198              	.LASF781:
 16199 03eb 4841494E 		.ascii	"HAINT\000"
 16199      5400
 16200              	.LASF153:
 16201 03f1 61637475 		.ascii	"actualEnvironement_t\000"
 16201      616C456E 
 16201      7669726F 
 16201      6E656D65 
 16201      6E745F74 
 16202              	.LASF639:
 16203 0406 53445F55 		.ascii	"SD_UNINIT\000"
 16203      4E494E49 
 16203      5400
 16204              	.LASF272:
 16205 0410 46413152 		.ascii	"FA1R\000"
 16205      00
 16206              	.LASF874:
 16207 0415 63757272 		.ascii	"currentTable\000"
 16207      656E7454 
 16207      61626C65 
 16207      00
 16208              	.LASF894:
 16209 0422 63686563 		.ascii	"checkIfPointObjectInCircle\000"
 16209      6B496650 
 16209      6F696E74 
 16209      4F626A65 
 16209      6374496E 
 16210              	.LASF892:
 16211 043d 69734E65 		.ascii	"isNear\000"
 16211      617200
 16212              	.LASF895:
 16213 0444 6F626A65 		.ascii	"object\000"
 16213      637400
 16214              	.LASF778:
 16215 044b 48464E55 		.ascii	"HFNUM\000"
 16215      4D00
 16216              	.LASF402:
 16217 0451 716E6F74 		.ascii	"qnotify_t\000"
 16217      6966795F 
 16217      7400
 16218              	.LASF460:
 16219 045b 61646373 		.ascii	"adcstate_t\000"
 16219      74617465 
 16219      5F7400
 16220              	.LASF663:
 16221 0466 63617264 		.ascii	"cardmode\000"
 16221      6D6F6465 
 16221      00
ARM GAS  /var/folders/qd/4mxf5pkd0zdf0b9dd1hp39180000gn/T//ccsf5yWP.s 			page 290


 16222              	.LASF407:
 16223 046f 69736869 		.ascii	"ishift\000"
 16223      667400
 16224              	.LASF555:
 16225 0476 4750545F 		.ascii	"GPT_ONESHOT\000"
 16225      4F4E4553 
 16225      484F5400 
 16226              	.LASF397:
 16227 0482 715F746F 		.ascii	"q_top\000"
 16227      7000
 16228              	.LASF60:
 16229 0488 5F6C6266 		.ascii	"_lbfsize\000"
 16229      73697A65 
 16229      00
 16230              	.LASF729:
 16231 0491 75645F73 		.ascii	"ud_string\000"
 16231      7472696E 
 16231      6700
 16232              	.LASF598:
 16233 049b 49324344 		.ascii	"I2CDriver\000"
 16233      72697665 
 16233      7200
 16234              	.LASF580:
 16235 04a5 4932435F 		.ascii	"I2C_ACTIVE_TX\000"
 16235      41435449 
 16235      56455F54 
 16235      5800
 16236              	.LASF650:
 16237 04b3 72656164 		.ascii	"read\000"
 16237      00
 16238              	.LASF586:
 16239 04b8 4F504D4F 		.ascii	"OPMODE_I2C\000"
 16239      44455F49 
 16239      324300
 16240              	.LASF790:
 16241 04c3 72657376 		.ascii	"resvd80C\000"
 16241      64383043 
 16241      00
 16242              	.LASF838:
 16243 04cc 6576656E 		.ascii	"event_cb\000"
 16243      745F6362 
 16243      00
 16244              	.LASF852:
 16245 04d5 636F6E73 		.ascii	"considerWalls\000"
 16245      69646572 
 16245      57616C6C 
 16245      7300
 16246              	.LASF757:
 16247 04e3 474F5447 		.ascii	"GOTGCTL\000"
 16247      43544C00 
 16248              	.LASF845:
 16249 04eb 77616C6C 		.ascii	"wall_t\000"
 16249      5F7400
 16250              	.LASF887:
 16251 04f2 6D6F645F 		.ascii	"mod_mapping_checkEnvironment\000"
 16251      6D617070 
 16251      696E675F 
ARM GAS  /var/folders/qd/4mxf5pkd0zdf0b9dd1hp39180000gn/T//ccsf5yWP.s 			page 291


 16251      63686563 
 16251      6B456E76 
 16252              	.LASF732:
 16253 050f 75736265 		.ascii	"usbepcallback_t\000"
 16253      7063616C 
 16253      6C626163 
 16253      6B5F7400 
 16254              	.LASF70:
 16255 051f 5F646174 		.ascii	"_data\000"
 16255      6100
 16256              	.LASF230:
 16257 0525 76746C69 		.ascii	"vtlist\000"
 16257      737400
 16258              	.LASF880:
 16259 052c 746F7461 		.ascii	"total\000"
 16259      6C00
 16260              	.LASF914:
 16261 0532 66726565 		.ascii	"free\000"
 16261      00
 16262              	.LASF295:
 16263 0537 54524953 		.ascii	"TRISE\000"
 16263      4500
 16264              	.LASF796:
 16265 053d 72657376 		.ascii	"resvd824\000"
 16265      64383234 
 16265      00
 16266              	.LASF189:
 16267 0546 705F7761 		.ascii	"p_waiting\000"
 16267      6974696E 
 16267      6700
 16268              	.LASF345:
 16269 0550 6B65726E 		.ascii	"kernel_stats_t\000"
 16269      656C5F73 
 16269      74617473 
 16269      5F7400
 16270              	.LASF394:
 16271 055f 715F7761 		.ascii	"q_waiting\000"
 16271      6974696E 
 16271      6700
 16272              	.LASF254:
 16273 0569 43414E5F 		.ascii	"CAN_TxMailBox_TypeDef\000"
 16273      54784D61 
 16273      696C426F 
 16273      785F5479 
 16273      70654465 
 16274              	.LASF229:
 16275 057f 726C6973 		.ascii	"rlist\000"
 16275      7400
 16276              	.LASF198:
 16277 0585 74687265 		.ascii	"threads_list_t\000"
 16277      6164735F 
 16277      6C697374 
 16277      5F7400
 16278              	.LASF335:
 16279 0594 746D5F63 		.ascii	"tm_calibration_t\000"
 16279      616C6962 
 16279      72617469 
ARM GAS  /var/folders/qd/4mxf5pkd0zdf0b9dd1hp39180000gn/T//ccsf5yWP.s 			page 292


 16279      6F6E5F74 
 16279      00
 16280              	.LASF403:
 16281 05a5 696E7075 		.ascii	"input_queue_t\000"
 16281      745F7175 
 16281      6575655F 
 16281      7400
 16282              	.LASF487:
 16283 05b3 41444343 		.ascii	"ADCConversionGroup\000"
 16283      6F6E7665 
 16283      7273696F 
 16283      6E47726F 
 16283      757000
 16284              	.LASF789:
 16285 05c6 44535453 		.ascii	"DSTS\000"
 16285      00
 16286              	.LASF126:
 16287 05cb 5F5F6C6F 		.ascii	"__lock\000"
 16287      636B00
 16288              	.LASF590:
 16289 05d2 5354445F 		.ascii	"STD_DUTY_CYCLE\000"
 16289      44555459 
 16289      5F435943 
 16289      4C4500
 16290              	.LASF74:
 16291 05e1 5F726565 		.ascii	"_reent\000"
 16291      6E7400
 16292              	.LASF371:
 16293 05e8 63665F6F 		.ascii	"cf_off_older\000"
 16293      66665F6F 
 16293      6C646572 
 16293      00
 16294              	.LASF162:
 16295 05f5 72747469 		.ascii	"rttime_t\000"
 16295      6D655F74 
 16295      00
 16296              	.LASF550:
 16297 05fe 45585444 		.ascii	"EXTD1\000"
 16297      3100
 16298              	.LASF823:
 16299 0604 72787175 		.ascii	"rxqueued\000"
 16299      65756564 
 16299      00
 16300              	.LASF498:
 16301 060d 63616E73 		.ascii	"canstate_t\000"
 16301      74617465 
 16301      5F7400
 16302              	.LASF274:
 16303 0618 7346696C 		.ascii	"sFilterRegister\000"
 16303      74657252 
 16303      65676973 
 16303      74657200 
 16304              	.LASF95:
 16305 0628 5F5F7366 		.ascii	"__sf\000"
 16305      00
 16306              	.LASF795:
 16307 062d 72657376 		.ascii	"resvd820\000"
ARM GAS  /var/folders/qd/4mxf5pkd0zdf0b9dd1hp39180000gn/T//ccsf5yWP.s 			page 293


 16307      64383230 
 16307      00
 16308              	.LASF55:
 16309 0636 5F626173 		.ascii	"_base\000"
 16309      6500
 16310              	.LASF923:
 16311 063c 5F5F7374 		.ascii	"__stack_chk_fail\000"
 16311      61636B5F 
 16311      63686B5F 
 16311      6661696C 
 16311      00
 16312              	.LASF301:
 16313 064d 52455350 		.ascii	"RESP1\000"
 16313      3100
 16314              	.LASF302:
 16315 0653 52455350 		.ascii	"RESP2\000"
 16315      3200
 16316              	.LASF303:
 16317 0659 52455350 		.ascii	"RESP3\000"
 16317      3300
 16318              	.LASF304:
 16319 065f 52455350 		.ascii	"RESP4\000"
 16319      3400
 16320              	.LASF112:
 16321 0665 5F6D6274 		.ascii	"_mbtowc_state\000"
 16321      6F77635F 
 16321      73746174 
 16321      6500
 16322              	.LASF577:
 16323 0673 4932435F 		.ascii	"I2C_UNINIT\000"
 16323      554E494E 
 16323      495400
 16324              	.LASF734:
 16325 067e 75736272 		.ascii	"usbreqhandler_t\000"
 16325      65716861 
 16325      6E646C65 
 16325      725F7400 
 16326              	.LASF458:
 16327 068e 4144435F 		.ascii	"ADC_COMPLETE\000"
 16327      434F4D50 
 16327      4C455445 
 16327      00
 16328              	.LASF574:
 16329 069b 47505443 		.ascii	"GPTConfig\000"
 16329      6F6E6669 
 16329      6700
 16330              	.LASF145:
 16331 06a5 726F7461 		.ascii	"rotation\000"
 16331      74696F6E 
 16331      00
 16332              	.LASF167:
 16333 06ae 74707269 		.ascii	"tprio_t\000"
 16333      6F5F7400 
 16334              	.LASF341:
 16335 06b6 6E5F6972 		.ascii	"n_irq\000"
 16335      7100
 16336              	.LASF618:
ARM GAS  /var/folders/qd/4mxf5pkd0zdf0b9dd1hp39180000gn/T//ccsf5yWP.s 			page 294


 16337 06bc 69327370 		.ascii	"i2spr\000"
 16337      7200
 16338              	.LASF799:
 16339 06c2 72657376 		.ascii	"resvd830\000"
 16339      64383330 
 16339      00
 16340              	.LASF36:
 16341 06cb 5F5F746D 		.ascii	"__tm\000"
 16341      00
 16342              	.LASF801:
 16343 06d0 72657376 		.ascii	"resvd838\000"
 16343      64383338 
 16343      00
 16344              	.LASF593:
 16345 06d9 69326364 		.ascii	"i2cdutycycle_t\000"
 16345      75747963 
 16345      79636C65 
 16345      5F7400
 16346              	.LASF802:
 16347 06e8 72657376 		.ascii	"resvd83C\000"
 16347      64383343 
 16347      00
 16348              	.LASF472:
 16349 06f1 74687265 		.ascii	"thread\000"
 16349      616400
 16350              	.LASF517:
 16351 06f8 72656773 		.ascii	"regshift\000"
 16351      68696674 
 16351      00
 16352              	.LASF697:
 16353 0701 73657475 		.ascii	"setup\000"
 16353      7000
 16354              	.LASF676:
 16355 0707 5350495F 		.ascii	"SPI_UNINIT\000"
 16355      554E494E 
 16355      495400
 16356              	.LASF750:
 16357 0712 44545846 		.ascii	"DTXFSTS\000"
 16357      53545300 
 16358              	.LASF422:
 16359 071a 626C6B5F 		.ascii	"blk_size\000"
 16359      73697A65 
 16359      00
 16360              	.LASF579:
 16361 0723 4932435F 		.ascii	"I2C_READY\000"
 16361      52454144 
 16361      5900
 16362              	.LASF44:
 16363 072d 5F5F746D 		.ascii	"__tm_yday\000"
 16363      5F796461 
 16363      7900
 16364              	.LASF691:
 16365 0737 696E5F70 		.ascii	"in_params\000"
 16365      6172616D 
 16365      7300
 16366              	.LASF564:
 16367 0741 43434552 		.ascii	"CCER\000"
ARM GAS  /var/folders/qd/4mxf5pkd0zdf0b9dd1hp39180000gn/T//ccsf5yWP.s 			page 295


 16367      00
 16368              	.LASF317:
 16369 0746 49325350 		.ascii	"I2SPR\000"
 16369      5200
 16370              	.LASF621:
 16371 074c 50574D5F 		.ascii	"PWM_UNINIT\000"
 16371      554E494E 
 16371      495400
 16372              	.LASF336:
 16373 0757 62657374 		.ascii	"best\000"
 16373      00
 16374              	.LASF759:
 16375 075c 47414842 		.ascii	"GAHBCFG\000"
 16375      43464700 
 16376              	.LASF527:
 16377 0764 64616363 		.ascii	"daccallback_t\000"
 16377      616C6C62 
 16377      61636B5F 
 16377      7400
 16378              	.LASF19:
 16379 0772 5F4C4F43 		.ascii	"_LOCK_T\000"
 16379      4B5F5400 
 16380              	.LASF803:
 16381 077a 72657376 		.ascii	"resvd840\000"
 16381      64383430 
 16381      00
 16382              	.LASF313:
 16383 0783 43524350 		.ascii	"CRCPR\000"
 16383      5200
 16384              	.LASF417:
 16385 0789 424C4B5F 		.ascii	"BLK_READY\000"
 16385      52454144 
 16385      5900
 16386              	.LASF9:
 16387 0793 5F5F696E 		.ascii	"__int16_t\000"
 16387      7431365F 
 16387      7400
 16388              	.LASF11:
 16389 079d 5F5F7569 		.ascii	"__uint16_t\000"
 16389      6E743136 
 16389      5F7400
 16390              	.LASF554:
 16391 07a8 4750545F 		.ascii	"GPT_CONTINUOUS\000"
 16391      434F4E54 
 16391      494E554F 
 16391      555300
 16392              	.LASF817:
 16393 07b7 74787175 		.ascii	"txqueued\000"
 16393      65756564 
 16393      00
 16394              	.LASF191:
 16395 07c0 705F6D73 		.ascii	"p_msg\000"
 16395      6700
 16396              	.LASF104:
 16397 07c6 5F756E75 		.ascii	"_unused_rand\000"
 16397      7365645F 
 16397      72616E64 
ARM GAS  /var/folders/qd/4mxf5pkd0zdf0b9dd1hp39180000gn/T//ccsf5yWP.s 			page 296


 16397      00
 16398              	.LASF756:
 16399 07d3 73746D33 		.ascii	"stm32_otg_out_ep_t\000"
 16399      325F6F74 
 16399      675F6F75 
 16399      745F6570 
 16399      5F7400
 16400              	.LASF765:
 16401 07e6 47525853 		.ascii	"GRXSTSP\000"
 16401      54535000 
 16402              	.LASF764:
 16403 07ee 47525853 		.ascii	"GRXSTSR\000"
 16403      54535200 
 16404              	.LASF909:
 16405 07f6 73707269 		.ascii	"sprintf\000"
 16405      6E746600 
 16406              	.LASF347:
 16407 07fe 65786974 		.ascii	"exitcode\000"
 16407      636F6465 
 16407      00
 16408              	.LASF291:
 16409 0807 4D314152 		.ascii	"M1AR\000"
 16409      00
 16410              	.LASF704:
 16411 080c 77616974 		.ascii	"wait\000"
 16411      00
 16412              	.LASF292:
 16413 0811 444D415F 		.ascii	"DMA_Stream_TypeDef\000"
 16413      53747265 
 16413      616D5F54 
 16413      79706544 
 16413      656600
 16414              	.LASF711:
 16415 0824 5553425F 		.ascii	"USB_ACTIVE\000"
 16415      41435449 
 16415      564500
 16416              	.LASF752:
 16417 082f 73746D33 		.ascii	"stm32_otg_in_ep_t\000"
 16417      325F6F74 
 16417      675F696E 
 16417      5F65705F 
 16417      7400
 16418              	.LASF825:
 16419 0841 7278636E 		.ascii	"rxcnt\000"
 16419      7400
 16420              	.LASF454:
 16421 0847 4144435F 		.ascii	"ADC_UNINIT\000"
 16421      554E494E 
 16421      495400
 16422              	.LASF601:
 16423 0852 7278646D 		.ascii	"rxdmamode\000"
 16423      616D6F64 
 16423      6500
 16424              	.LASF86:
 16425 085c 5F726573 		.ascii	"_result_k\000"
 16425      756C745F 
 16425      6B00
ARM GAS  /var/folders/qd/4mxf5pkd0zdf0b9dd1hp39180000gn/T//ccsf5yWP.s 			page 297


 16426              	.LASF546:
 16427 0866 6D6F6465 		.ascii	"mode\000"
 16427      00
 16428              	.LASF78:
 16429 086b 5F737464 		.ascii	"_stderr\000"
 16429      65727200 
 16430              	.LASF85:
 16431 0873 5F726573 		.ascii	"_result\000"
 16431      756C7400 
 16432              	.LASF360:
 16433 087b 6D5F636E 		.ascii	"m_cnt\000"
 16433      7400
 16434              	.LASF543:
 16435 0881 45585444 		.ascii	"EXTDriver\000"
 16435      72697665 
 16435      7200
 16436              	.LASF48:
 16437 088b 5F64736F 		.ascii	"_dso_handle\000"
 16437      5F68616E 
 16437      646C6500 
 16438              	.LASF613:
 16439 0897 69327363 		.ascii	"i2scallback_t\000"
 16439      616C6C62 
 16439      61636B5F 
 16439      7400
 16440              	.LASF685:
 16441 08a5 73737061 		.ascii	"sspad\000"
 16441      6400
 16442              	.LASF602:
 16443 08ab 7478646D 		.ascii	"txdmamode\000"
 16443      616D6F64 
 16443      6500
 16444              	.LASF570:
 16445 08b5 67707466 		.ascii	"gptfreq_t\000"
 16445      7265715F 
 16445      7400
 16446              	.LASF43:
 16447 08bf 5F5F746D 		.ascii	"__tm_wday\000"
 16447      5F776461 
 16447      7900
 16448              	.LASF45:
 16449 08c9 5F5F746D 		.ascii	"__tm_isdst\000"
 16449      5F697364 
 16449      737400
 16450              	.LASF151:
 16451 08d4 6B6E6F77 		.ascii	"knownObjectsLocation\000"
 16451      6E4F626A 
 16451      65637473 
 16451      4C6F6361 
 16451      74696F6E 
 16452              	.LASF810:
 16453 08e9 72785F66 		.ascii	"rx_fifo_size\000"
 16453      69666F5F 
 16453      73697A65 
 16453      00
 16454              	.LASF134:
 16455 08f6 5F5F6664 		.ascii	"__fdlib_version\000"
ARM GAS  /var/folders/qd/4mxf5pkd0zdf0b9dd1hp39180000gn/T//ccsf5yWP.s 			page 298


 16455      6C69625F 
 16455      76657273 
 16455      696F6E00 
 16456              	.LASF525:
 16457 0906 4441435F 		.ascii	"DAC_ERR_UNDERFLOW\000"
 16457      4552525F 
 16457      554E4445 
 16457      52464C4F 
 16457      5700
 16458              	.LASF506:
 16459 0918 77616B65 		.ascii	"wakeup_event\000"
 16459      75705F65 
 16459      76656E74 
 16459      00
 16460              	.LASF879:
 16461 0925 64697265 		.ascii	"direction\000"
 16461      6374696F 
 16461      6E00
 16462              	.LASF214:
 16463 092f 76745F70 		.ascii	"vt_prev\000"
 16463      72657600 
 16464              	.LASF912:
 16465 0937 6D616C6C 		.ascii	"malloc\000"
 16465      6F6300
 16466              	.LASF480:
 16467 093e 656E645F 		.ascii	"end_cb\000"
 16467      636200
 16468              	.LASF828:
 16469 0945 73657475 		.ascii	"setup_cb\000"
 16469      705F6362 
 16469      00
 16470              	.LASF8:
 16471 094e 756E7369 		.ascii	"unsigned char\000"
 16471      676E6564 
 16471      20636861 
 16471      7200
 16472              	.LASF77:
 16473 095c 5F737464 		.ascii	"_stdout\000"
 16473      6F757400 
 16474              	.LASF901:
 16475 0964 6E62506F 		.ascii	"nbPoints\000"
 16475      696E7473 
 16475      00
 16476              	.LASF311:
 16477 096d 4649464F 		.ascii	"FIFO\000"
 16477      00
 16478              	.LASF332:
 16479 0972 74625F62 		.ascii	"tb_buffer\000"
 16479      75666665 
 16479      7200
 16480              	.LASF500:
 16481 097c 74787175 		.ascii	"txqueue\000"
 16481      65756500 
 16482              	.LASF355:
 16483 0984 735F636E 		.ascii	"s_cnt\000"
 16483      7400
 16484              	.LASF202:
ARM GAS  /var/folders/qd/4mxf5pkd0zdf0b9dd1hp39180000gn/T//ccsf5yWP.s 			page 299


 16485 098a 72656164 		.ascii	"ready_list_t\000"
 16485      795F6C69 
 16485      73745F74 
 16485      00
 16486              	.LASF175:
 16487 0997 63685F74 		.ascii	"ch_thread\000"
 16487      68726561 
 16487      6400
 16488              	.LASF588:
 16489 09a1 4F504D4F 		.ascii	"OPMODE_SMBUS_HOST\000"
 16489      44455F53 
 16489      4D425553 
 16489      5F484F53 
 16489      5400
 16490              	.LASF870:
 16491 09b3 64656C74 		.ascii	"deltaY\000"
 16491      615900
 16492              	.LASF889:
 16493 09ba 77686565 		.ascii	"wheelSpeed\000"
 16493      6C537065 
 16493      656400
 16494              	.LASF119:
 16495 09c5 5F6D6273 		.ascii	"_mbsrtowcs_state\000"
 16495      72746F77 
 16495      63735F73 
 16495      74617465 
 16495      00
 16496              	.LASF706:
 16497 09d6 75736265 		.ascii	"usbep_t\000"
 16497      705F7400 
 16498              	.LASF34:
 16499 09de 5F776473 		.ascii	"_wds\000"
 16499      00
 16500              	.LASF1:
 16501 09e3 666C6F61 		.ascii	"float\000"
 16501      7400
 16502              	.LASF539:
 16503 09e9 4558545F 		.ascii	"EXT_UNINIT\000"
 16503      554E494E 
 16503      495400
 16504              	.LASF497:
 16505 09f4 43414E5F 		.ascii	"CAN_SLEEP\000"
 16505      534C4545 
 16505      5000
 16506              	.LASF906:
 16507 09fe 6E657741 		.ascii	"newAbsolutePositionWheelSpeedType\000"
 16507      62736F6C 
 16507      75746550 
 16507      6F736974 
 16507      696F6E57 
 16508              	.LASF328:
 16509 0a20 73655F73 		.ascii	"se_state\000"
 16509      74617465 
 16509      00
 16510              	.LASF56:
 16511 0a29 5F73697A 		.ascii	"_size\000"
 16511      6500
ARM GAS  /var/folders/qd/4mxf5pkd0zdf0b9dd1hp39180000gn/T//ccsf5yWP.s 			page 300


 16512              	.LASF675:
 16513 0a2f 53444344 		.ascii	"SDCD1\000"
 16513      3100
 16514              	.LASF221:
 16515 0a35 73797374 		.ascii	"system_debug_t\000"
 16515      656D5F64 
 16515      65627567 
 16515      5F7400
 16516              	.LASF279:
 16517 0a44 44485238 		.ascii	"DHR8R1\000"
 16517      523100
 16518              	.LASF282:
 16519 0a4b 44485238 		.ascii	"DHR8R2\000"
 16519      523200
 16520              	.LASF561:
 16521 0a52 44494552 		.ascii	"DIER\000"
 16521      00
 16522              	.LASF846:
 16523 0a57 77616C6C 		.ascii	"wall\000"
 16523      00
 16524              	.LASF179:
 16525 0a5c 705F6374 		.ascii	"p_ctx\000"
 16525      7800
 16526              	.LASF217:
 16527 0a62 76745F70 		.ascii	"vt_par\000"
 16527      617200
 16528              	.LASF238:
 16529 0a69 4A4F4652 		.ascii	"JOFR1\000"
 16529      3100
 16530              	.LASF239:
 16531 0a6f 4A4F4652 		.ascii	"JOFR2\000"
 16531      3200
 16532              	.LASF241:
 16533 0a75 4A4F4652 		.ascii	"JOFR4\000"
 16533      3400
 16534              	.LASF137:
 16535 0a7b 77686565 		.ascii	"wheelSpeed_t\000"
 16535      6C537065 
 16535      65645F74 
 16535      00
 16536              	.LASF63:
 16537 0a88 5F777269 		.ascii	"_write\000"
 16537      746500
 16538              	.LASF315:
 16539 0a8f 54584352 		.ascii	"TXCRCR\000"
 16539      435200
 16540              	.LASF532:
 16541 0a96 64616364 		.ascii	"dacdhrmode_t\000"
 16541      68726D6F 
 16541      64655F74 
 16541      00
 16542              	.LASF474:
 16543 0aa3 646D6173 		.ascii	"dmastp\000"
 16543      747000
 16544              	.LASF592:
 16545 0aaa 46415354 		.ascii	"FAST_DUTY_CYCLE_16_9\000"
 16545      5F445554 
ARM GAS  /var/folders/qd/4mxf5pkd0zdf0b9dd1hp39180000gn/T//ccsf5yWP.s 			page 301


 16545      595F4359 
 16545      434C455F 
 16545      31365F39 
 16546              	.LASF160:
 16547 0abf 75696E74 		.ascii	"uint64_t\000"
 16547      36345F74 
 16547      00
 16548              	.LASF342:
 16549 0ac8 6E5F6374 		.ascii	"n_ctxswc\000"
 16549      78737763 
 16549      00
 16550              	.LASF380:
 16551 0ad1 63685F64 		.ascii	"ch_debug\000"
 16551      65627567 
 16551      00
 16552              	.LASF535:
 16553 0ada 696E6974 		.ascii	"init\000"
 16553      00
 16554              	.LASF266:
 16555 0adf 464D3152 		.ascii	"FM1R\000"
 16555      00
 16556              	.LASF451:
 16557 0ae4 50414C43 		.ascii	"PALConfig\000"
 16557      6F6E6669 
 16557      6700
 16558              	.LASF819:
 16559 0aee 7478636E 		.ascii	"txcnt\000"
 16559      7400
 16560              	.LASF733:
 16561 0af4 75736265 		.ascii	"usbeventcb_t\000"
 16561      76656E74 
 16561      63625F74 
 16561      00
 16562              	.LASF414:
 16563 0b01 424C4B5F 		.ascii	"BLK_ACTIVE\000"
 16563      41435449 
 16563      564500
 16564              	.LASF42:
 16565 0b0c 5F5F746D 		.ascii	"__tm_year\000"
 16565      5F796561 
 16565      7200
 16566              	.LASF382:
 16567 0b16 6576656E 		.ascii	"event_listener_t\000"
 16567      745F6C69 
 16567      7374656E 
 16567      65725F74 
 16567      00
 16568              	.LASF811:
 16569 0b27 6F74675F 		.ascii	"otg_ram_size\000"
 16569      72616D5F 
 16569      73697A65 
 16569      00
 16570              	.LASF893:
 16571 0b34 63686563 		.ascii	"checkIfObjectExists\000"
 16571      6B49664F 
 16571      626A6563 
 16571      74457869 
ARM GAS  /var/folders/qd/4mxf5pkd0zdf0b9dd1hp39180000gn/T//ccsf5yWP.s 			page 302


 16571      73747300 
 16572              	.LASF813:
 16573 0b48 73746D33 		.ascii	"stm32_otg_params_t\000"
 16573      325F6F74 
 16573      675F7061 
 16573      72616D73 
 16573      5F7400
 16574              	.LASF806:
 16575 0b5b 72657376 		.ascii	"resvdD00\000"
 16575      64443030 
 16575      00
 16576              	.LASF314:
 16577 0b64 52584352 		.ascii	"RXCRCR\000"
 16577      435200
 16578              	.LASF822:
 16579 0b6b 72786275 		.ascii	"rxbuf\000"
 16579      6600
 16580              	.LASF102:
 16581 0b71 5F6D756C 		.ascii	"_mult\000"
 16581      7400
 16582              	.LASF356:
 16583 0b77 63685F6D 		.ascii	"ch_mutex\000"
 16583      75746578 
 16583      00
 16584              	.LASF921:
 16585 0b80 6D6F645F 		.ascii	"mod_mapping_resetCoordinates\000"
 16585      6D617070 
 16585      696E675F 
 16585      72657365 
 16585      74436F6F 
 16586              	.LASF919:
 16587 0b9d 2F557365 		.ascii	"/Users/nicolas/Library/Mobile Documents/com~apple~C"
 16587      72732F6E 
 16587      69636F6C 
 16587      61732F4C 
 16587      69627261 
 16588 0bd0 6C6F7564 		.ascii	"loudDocs/Projects/Cours/epuck_project/Sources\000"
 16588      446F6373 
 16588      2F50726F 
 16588      6A656374 
 16588      732F436F 
 16589              	.LASF625:
 16590 0bfe 50574D44 		.ascii	"PWMDriver\000"
 16590      72697665 
 16590      7200
 16591              	.LASF448:
 16592 0c08 50474461 		.ascii	"PGData\000"
 16592      746100
 16593              	.LASF634:
 16594 0c0f 50574D43 		.ascii	"PWMConfig\000"
 16594      6F6E6669 
 16594      6700
 16595              	.LASF117:
 16596 0c19 5F6D6272 		.ascii	"_mbrlen_state\000"
 16596      6C656E5F 
 16596      73746174 
 16596      6500
ARM GAS  /var/folders/qd/4mxf5pkd0zdf0b9dd1hp39180000gn/T//ccsf5yWP.s 			page 303


 16597              	.LASF890:
 16598 0c27 74696D65 		.ascii	"time\000"
 16598      00
 16599              	.LASF142:
 16600 0c2c 76616C75 		.ascii	"value\000"
 16600      6500
 16601              	.LASF370:
 16602 0c32 63665F6F 		.ascii	"cf_off_newer\000"
 16602      66665F6E 
 16602      65776572 
 16602      00
 16603              	.LASF791:
 16604 0c3f 44494550 		.ascii	"DIEPMSK\000"
 16604      4D534B00 
 16605              	.LASF758:
 16606 0c47 474F5447 		.ascii	"GOTGINT\000"
 16606      494E5400 
 16607              	.LASF830:
 16608 0c4f 6F75745F 		.ascii	"out_cb\000"
 16608      636200
 16609              	.LASF782:
 16610 0c56 4841494E 		.ascii	"HAINTMSK\000"
 16610      544D534B 
 16610      00
 16611              	.LASF692:
 16612 0c5f 6F75745F 		.ascii	"out_params\000"
 16612      70617261 
 16612      6D7300
 16613              	.LASF327:
 16614 0c6a 73655F77 		.ascii	"se_wtobjp\000"
 16614      746F626A 
 16614      7000
 16615              	.LASF245:
 16616 0c74 4A535152 		.ascii	"JSQR\000"
 16616      00
 16617              	.LASF76:
 16618 0c79 5F737464 		.ascii	"_stdin\000"
 16618      696E00
 16619              	.LASF124:
 16620 0c80 5F6E6D61 		.ascii	"_nmalloc\000"
 16620      6C6C6F63 
 16620      00
 16621              	.LASF573:
 16622 0c89 64696572 		.ascii	"dier\000"
 16622      00
 16623              	.LASF670:
 16624 0c8e 69735F70 		.ascii	"is_protected\000"
 16624      726F7465 
 16624      63746564 
 16624      00
 16625              	.LASF211:
 16626 0c9b 76697274 		.ascii	"virtual_timer_t\000"
 16626      75616C5F 
 16626      74696D65 
 16626      725F7400 
 16627              	.LASF832:
 16628 0cab 6F75745F 		.ascii	"out_maxsize\000"
ARM GAS  /var/folders/qd/4mxf5pkd0zdf0b9dd1hp39180000gn/T//ccsf5yWP.s 			page 304


 16628      6D617873 
 16628      697A6500 
 16629              	.LASF206:
 16630 0cb7 725F6374 		.ascii	"r_ctx\000"
 16630      7800
 16631              	.LASF213:
 16632 0cbd 76745F6E 		.ascii	"vt_next\000"
 16632      65787400 
 16633              	.LASF607:
 16634 0cc5 4932535F 		.ascii	"I2S_STOP\000"
 16634      53544F50 
 16634      00
 16635              	.LASF247:
 16636 0cce 4A445232 		.ascii	"JDR2\000"
 16636      00
 16637              	.LASF622:
 16638 0cd3 50574D5F 		.ascii	"PWM_STOP\000"
 16638      53544F50 
 16638      00
 16639              	.LASF161:
 16640 0cdc 7274636E 		.ascii	"rtcnt_t\000"
 16640      745F7400 
 16641              	.LASF473:
 16642 0ce4 6D757465 		.ascii	"mutex\000"
 16642      7800
 16643              	.LASF616:
 16644 0cea 73697A65 		.ascii	"size\000"
 16644      00
 16645              	.LASF521:
 16646 0cef 44414344 		.ascii	"DACDriver\000"
 16646      72697665 
 16646      7200
 16647              	.LASF903:
 16648 0cf9 70746F74 		.ascii	"ptot\000"
 16648      00
 16649              	.LASF537:
 16650 0cfe 44414343 		.ascii	"DACConfig\000"
 16650      6F6E6669 
 16650      6700
 16651              	.LASF136:
 16652 0d08 72696768 		.ascii	"right\000"
 16652      7400
 16653              	.LASF703:
 16654 0d0e 74787065 		.ascii	"txpending\000"
 16654      6E64696E 
 16654      6700
 16655              	.LASF558:
 16656 0d18 636C6F63 		.ascii	"clock\000"
 16656      6B00
 16657              	.LASF425:
 16658 0d1e 636C6561 		.ascii	"clear\000"
 16658      7200
 16659              	.LASF568:
 16660 0d24 43435852 		.ascii	"CCXR\000"
 16660      00
 16661              	.LASF275:
 16662 0d29 43414E5F 		.ascii	"CAN_TypeDef\000"
ARM GAS  /var/folders/qd/4mxf5pkd0zdf0b9dd1hp39180000gn/T//ccsf5yWP.s 			page 305


 16662      54797065 
 16662      44656600 
 16663              	.LASF20:
 16664 0d35 5F6F6666 		.ascii	"_off_t\000"
 16664      5F7400
 16665              	.LASF322:
 16666 0d3c 73746B61 		.ascii	"stkalign_t\000"
 16666      6C69676E 
 16666      5F7400
 16667              	.LASF329:
 16668 0d47 63685F73 		.ascii	"ch_swc_event_t\000"
 16668      77635F65 
 16668      76656E74 
 16668      5F7400
 16669              	.LASF640:
 16670 0d56 53445F53 		.ascii	"SD_STOP\000"
 16670      544F5000 
 16671              	.LASF881:
 16672 0d5e 6D656173 		.ascii	"measurementsVariations_t\000"
 16672      7572656D 
 16672      656E7473 
 16672      56617269 
 16672      6174696F 
 16673              	.LASF737:
 16674 0d77 72657376 		.ascii	"resvd8\000"
 16674      643800
 16675              	.LASF6:
 16676 0d7e 73697A65 		.ascii	"size_t\000"
 16676      5F7400
 16677              	.LASF107:
 16678 0d85 5F6C6F63 		.ascii	"_localtime_buf\000"
 16678      616C7469 
 16678      6D655F62 
 16678      756600
 16679              	.LASF804:
 16680 0d94 72657376 		.ascii	"resvd880\000"
 16680      64383830 
 16680      00
 16681              	.LASF25:
 16682 0d9d 5F5F636F 		.ascii	"__count\000"
 16682      756E7400 
 16683              	.LASF155:
 16684 0da5 75696E74 		.ascii	"uint8_t\000"
 16684      385F7400 
 16685              	.LASF741:
 16686 0dad 72657376 		.ascii	"resvd14\000"
 16686      64313400 
 16687              	.LASF493:
 16688 0db5 43414E5F 		.ascii	"CAN_UNINIT\000"
 16688      554E494E 
 16688      495400
 16689              	.LASF742:
 16690 0dc0 72657376 		.ascii	"resvd18\000"
 16690      64313800 
 16691              	.LASF208:
 16692 0dc8 725F6F6C 		.ascii	"r_older\000"
 16692      64657200 
ARM GAS  /var/folders/qd/4mxf5pkd0zdf0b9dd1hp39180000gn/T//ccsf5yWP.s 			page 306


 16693              	.LASF177:
 16694 0dd0 705F7072 		.ascii	"p_prev\000"
 16694      657600
 16695              	.LASF372:
 16696 0dd7 63665F6F 		.ascii	"cf_off_name\000"
 16696      66665F6E 
 16696      616D6500 
 16697              	.LASF633:
 16698 0de3 50574D43 		.ascii	"PWMChannelConfig\000"
 16698      68616E6E 
 16698      656C436F 
 16698      6E666967 
 16698      00
 16699              	.LASF632:
 16700 0df4 70776D63 		.ascii	"pwmcnt_t\000"
 16700      6E745F74 
 16700      00
 16701              	.LASF800:
 16702 0dfd 44494550 		.ascii	"DIEPEMPMSK\000"
 16702      454D504D 
 16702      534B00
 16703              	.LASF745:
 16704 0e08 44494550 		.ascii	"DIEPCTL\000"
 16704      43544C00 
 16705              	.LASF388:
 16706 0e10 656C5F77 		.ascii	"el_wflags\000"
 16706      666C6167 
 16706      7300
 16707              	.LASF701:
 16708 0e1a 6F746770 		.ascii	"otgparams\000"
 16708      6172616D 
 16708      7300
 16709              	.LASF330:
 16710 0e24 74625F73 		.ascii	"tb_size\000"
 16710      697A6500 
 16711              	.LASF445:
 16712 0e2c 50444461 		.ascii	"PDData\000"
 16712      746100
 16713              	.LASF665:
 16714 0e33 73637261 		.ascii	"scratchpad\000"
 16714      74636870 
 16714      616400
 16715              	.LASF90:
 16716 0e3e 5F637674 		.ascii	"_cvtbuf\000"
 16716      62756600 
 16717              	.LASF834:
 16718 0e46 6F75745F 		.ascii	"out_state\000"
 16718      73746174 
 16718      6500
 16719              	.LASF392:
 16720 0e50 696F5F71 		.ascii	"io_queue_t\000"
 16720      75657565 
 16720      5F7400
 16721              	.LASF878:
 16722 0e5b 64697265 		.ascii	"direction_t\000"
 16722      6374696F 
 16722      6E5F7400 
ARM GAS  /var/folders/qd/4mxf5pkd0zdf0b9dd1hp39180000gn/T//ccsf5yWP.s 			page 307


 16723              	.LASF681:
 16724 0e67 73706973 		.ascii	"spistate_t\000"
 16724      74617465 
 16724      5F7400
 16725              	.LASF578:
 16726 0e72 4932435F 		.ascii	"I2C_STOP\000"
 16726      53544F50 
 16726      00
 16727              	.LASF600:
 16728 0e7b 61646472 		.ascii	"addr\000"
 16728      00
 16729              	.LASF260:
 16730 0e80 52463052 		.ascii	"RF0R\000"
 16730      00
 16731              	.LASF463:
 16732 0e85 4144435F 		.ascii	"ADC_ERR_DMAFAILURE\000"
 16732      4552525F 
 16732      444D4146 
 16732      41494C55 
 16732      524500
 16733              	.LASF679:
 16734 0e98 5350495F 		.ascii	"SPI_ACTIVE\000"
 16734      41435449 
 16734      564500
 16735              	.LASF319:
 16736 0ea3 47545052 		.ascii	"GTPR\000"
 16736      00
 16737              	.LASF547:
 16738 0ea8 45585443 		.ascii	"EXTChannelConfig\000"
 16738      68616E6E 
 16738      656C436F 
 16738      6E666967 
 16738      00
 16739              	.LASF428:
 16740 0eb9 4F535045 		.ascii	"OSPEEDR\000"
 16740      45445200 
 16741              	.LASF511:
 16742 0ec1 4441435F 		.ascii	"DAC_READY\000"
 16742      52454144 
 16742      5900
 16743              	.LASF769:
 16744 0ecb 72657376 		.ascii	"resvd30\000"
 16744      64333000 
 16745              	.LASF24:
 16746 0ed3 5F5F7763 		.ascii	"__wchb\000"
 16746      686200
 16747              	.LASF118:
 16748 0eda 5F6D6272 		.ascii	"_mbrtowc_state\000"
 16748      746F7763 
 16748      5F737461 
 16748      746500
 16749              	.LASF798:
 16750 0ee9 44564255 		.ascii	"DVBUSPULSE\000"
 16750      5350554C 
 16750      534500
 16751              	.LASF39:
 16752 0ef4 5F5F746D 		.ascii	"__tm_hour\000"
ARM GAS  /var/folders/qd/4mxf5pkd0zdf0b9dd1hp39180000gn/T//ccsf5yWP.s 			page 308


 16752      5F686F75 
 16752      7200
 16753              	.LASF413:
 16754 0efe 424C4B5F 		.ascii	"BLK_STOP\000"
 16754      53544F50 
 16754      00
 16755              	.LASF648:
 16756 0f07 53657269 		.ascii	"SerialDriverVMT\000"
 16756      616C4472 
 16756      69766572 
 16756      564D5400 
 16757              	.LASF719:
 16758 0f17 5553425F 		.ascii	"USB_EP0_ERROR\000"
 16758      4550305F 
 16758      4552524F 
 16758      5200
 16759              	.LASF22:
 16760 0f25 77696E74 		.ascii	"wint_t\000"
 16760      5F7400
 16761              	.LASF671:
 16762 0f2c 636F6E6E 		.ascii	"connect\000"
 16762      65637400 
 16763              	.LASF91:
 16764 0f34 5F6E6577 		.ascii	"_new\000"
 16764      00
 16765              	.LASF466:
 16766 0f39 41444344 		.ascii	"ADCDriver\000"
 16766      72697665 
 16766      7200
 16767              	.LASF812:
 16768 0f43 6E756D5F 		.ascii	"num_endpoints\000"
 16768      656E6470 
 16768      6F696E74 
 16768      7300
 16769              	.LASF489:
 16770 0f51 41444343 		.ascii	"ADCConfig\000"
 16770      6F6E6669 
 16770      6700
 16771              	.LASF820:
 16772 0f5b 746F7473 		.ascii	"totsize\000"
 16772      697A6500 
 16773              	.LASF98:
 16774 0f63 5F6E696F 		.ascii	"_niobs\000"
 16774      627300
 16775              	.LASF373:
 16776 0f6a 63665F6F 		.ascii	"cf_off_stklimit\000"
 16776      66665F73 
 16776      746B6C69 
 16776      6D697400 
 16777              	.LASF641:
 16778 0f7a 53445F52 		.ascii	"SD_READY\000"
 16778      45414459 
 16778      00
 16779              	.LASF735:
 16780 0f83 75736267 		.ascii	"usbgetdescriptor_t\000"
 16780      65746465 
 16780      73637269 
ARM GAS  /var/folders/qd/4mxf5pkd0zdf0b9dd1hp39180000gn/T//ccsf5yWP.s 			page 309


 16780      70746F72 
 16780      5F7400
 16781              	.LASF917:
 16782 0f96 474E5520 		.ascii	"GNU C11 7.2.1 20170904 (release) [ARM/embedded-7-br"
 16782      43313120 
 16782      372E322E 
 16782      31203230 
 16782      31373039 
 16783 0fc9 616E6368 		.ascii	"anch revision 255204] -mcpu=cortex-m4 -mfloat-abi=h"
 16783      20726576 
 16783      6973696F 
 16783      6E203235 
 16783      35323034 
 16784 0ffc 61726420 		.ascii	"ard -mfpu=fpv4-sp-d16 -mno-thumb-interwork -mthumb "
 16784      2D6D6670 
 16784      753D6670 
 16784      76342D73 
 16784      702D6431 
 16785 102f 2D676764 		.ascii	"-ggdb -O2 -fomit-frame-pointer -falign-functions=16"
 16785      62202D4F 
 16785      32202D66 
 16785      6F6D6974 
 16785      2D667261 
 16786 1062 202D666E 		.ascii	" -fno-strict-aliasing -fstack-protector-all -ffunct"
 16786      6F2D7374 
 16786      72696374 
 16786      2D616C69 
 16786      6173696E 
 16787 1095 696F6E2D 		.ascii	"ion-sections -fdata-sections -fno-common -fsingle-p"
 16787      73656374 
 16787      696F6E73 
 16787      202D6664 
 16787      6174612D 
 16788 10c8 72656369 		.ascii	"recision-constant\000"
 16788      73696F6E 
 16788      2D636F6E 
 16788      7374616E 
 16788      7400
 16789              	.LASF848:
 16790 10da 6F626A65 		.ascii	"objectListSize\000"
 16790      63744C69 
 16790      73745369 
 16790      7A6500
 16791              	.LASF514:
 16792 10e9 4441435F 		.ascii	"DAC_ERROR\000"
 16792      4552524F 
 16792      5200
 16793              	.LASF209:
 16794 10f3 725F6375 		.ascii	"r_current\000"
 16794      7272656E 
 16794      7400
 16795              	.LASF75:
 16796 10fd 5F657272 		.ascii	"_errno\000"
 16796      6E6F00
 16797              	.LASF714:
 16798 1104 5553425F 		.ascii	"USB_EP0_TX\000"
 16798      4550305F 
ARM GAS  /var/folders/qd/4mxf5pkd0zdf0b9dd1hp39180000gn/T//ccsf5yWP.s 			page 310


 16798      545800
 16799              	.LASF693:
 16800 110f 65703073 		.ascii	"ep0state\000"
 16800      74617465 
 16800      00
 16801              	.LASF40:
 16802 1118 5F5F746D 		.ascii	"__tm_mday\000"
 16802      5F6D6461 
 16802      7900
 16803              	.LASF406:
 16804 1122 69666372 		.ascii	"ifcr\000"
 16804      00
 16805              	.LASF606:
 16806 1127 4932535F 		.ascii	"I2S_UNINIT\000"
 16806      554E494E 
 16806      495400
 16807              	.LASF434:
 16808 1132 73746D33 		.ascii	"stm32_gpio_t\000"
 16808      325F6770 
 16808      696F5F74 
 16808      00
 16809              	.LASF346:
 16810 113f 7264796D 		.ascii	"rdymsg\000"
 16810      736700
 16811              	.LASF47:
 16812 1146 5F666E61 		.ascii	"_fnargs\000"
 16812      72677300 
 16813              	.LASF623:
 16814 114e 50574D5F 		.ascii	"PWM_READY\000"
 16814      52454144 
 16814      5900
 16815              	.LASF251:
 16816 1158 54445452 		.ascii	"TDTR\000"
 16816      00
 16817              	.LASF259:
 16818 115d 43414E5F 		.ascii	"CAN_FilterRegister_TypeDef\000"
 16818      46696C74 
 16818      65725265 
 16818      67697374 
 16818      65725F54 
 16819              	.LASF504:
 16820 1178 6572726F 		.ascii	"error_event\000"
 16820      725F6576 
 16820      656E7400 
 16821              	.LASF479:
 16822 1184 6E756D5F 		.ascii	"num_channels\000"
 16822      6368616E 
 16822      6E656C73 
 16822      00
 16823              	.LASF240:
 16824 1191 4A4F4652 		.ascii	"JOFR3\000"
 16824      3300
 16825              	.LASF772:
 16826 1197 72657376 		.ascii	"resvd58\000"
 16826      64353800 
 16827              	.LASF821:
 16828 119f 55534249 		.ascii	"USBInEndpointState\000"
ARM GAS  /var/folders/qd/4mxf5pkd0zdf0b9dd1hp39180000gn/T//ccsf5yWP.s 			page 311


 16828      6E456E64 
 16828      706F696E 
 16828      74537461 
 16828      746500
 16829              	.LASF140:
 16830 11b2 706F696E 		.ascii	"point_t\000"
 16830      745F7400 
 16831              	.LASF393:
 16832 11ba 696F5F71 		.ascii	"io_queue\000"
 16832      75657565 
 16832      00
 16833              	.LASF442:
 16834 11c3 50414461 		.ascii	"PAData\000"
 16834      746100
 16835              	.LASF17:
 16836 11ca 5F5F7569 		.ascii	"__uint64_t\000"
 16836      6E743634 
 16836      5F7400
 16837              	.LASF31:
 16838 11d5 5F6E6578 		.ascii	"_next\000"
 16838      7400
 16839              	.LASF628:
 16840 11db 70776D63 		.ascii	"pwmcallback_t\000"
 16840      616C6C62 
 16840      61636B5F 
 16840      7400
 16841              	.LASF522:
 16842 11e9 70617261 		.ascii	"params\000"
 16842      6D7300
 16843              	.LASF718:
 16844 11f0 5553425F 		.ascii	"USB_EP0_SENDING_STS\000"
 16844      4550305F 
 16844      53454E44 
 16844      494E475F 
 16844      53545300 
 16845              	.LASF115:
 16846 1204 5F736967 		.ascii	"_signal_buf\000"
 16846      6E616C5F 
 16846      62756600 
 16847              	.LASF875:
 16848 1210 494E4352 		.ascii	"INCREASING\000"
 16848      45415349 
 16848      4E4700
 16849              	.LASF583:
 16850 121b 69326373 		.ascii	"i2cstate_t\000"
 16850      74617465 
 16850      5F7400
 16851              	.LASF61:
 16852 1226 5F636F6F 		.ascii	"_cookie\000"
 16852      6B696500 
 16853              	.LASF720:
 16854 122e 75736265 		.ascii	"usbep0state_t\000"
 16854      70307374 
 16854      6174655F 
 16854      7400
 16855              	.LASF526:
 16856 123c 64616365 		.ascii	"dacerror_t\000"
ARM GAS  /var/folders/qd/4mxf5pkd0zdf0b9dd1hp39180000gn/T//ccsf5yWP.s 			page 312


 16856      72726F72 
 16856      5F7400
 16857              	.LASF263:
 16858 1247 7354784D 		.ascii	"sTxMailBox\000"
 16858      61696C42 
 16858      6F7800
 16859              	.LASF461:
 16860 1252 61646373 		.ascii	"adcsample_t\000"
 16860      616D706C 
 16860      655F7400 
 16861              	.LASF559:
 16862 125e 67707463 		.ascii	"gptcallback_t\000"
 16862      616C6C62 
 16862      61636B5F 
 16862      7400
 16863              	.LASF396:
 16864 126c 715F6275 		.ascii	"q_buffer\000"
 16864      66666572 
 16864      00
 16865              	.LASF176:
 16866 1275 705F6E65 		.ascii	"p_next\000"
 16866      787400
 16867              	.LASF605:
 16868 127c 49324344 		.ascii	"I2CD1\000"
 16868      3100
 16869              	.LASF746:
 16870 1282 72657376 		.ascii	"resvd4\000"
 16870      643400
 16871              	.LASF688:
 16872 1289 55534244 		.ascii	"USBDriver\000"
 16872      72697665 
 16872      7200
 16873              	.LASF805:
 16874 1293 72657376 		.ascii	"resvd8C0\000"
 16874      64384330 
 16874      00
 16875              	.LASF842:
 16876 129c 55534243 		.ascii	"USBConfig\000"
 16876      6F6E6669 
 16876      6700
 16877              	.LASF748:
 16878 12a6 72657376 		.ascii	"resvdC\000"
 16878      644300
 16879              	.LASF635:
 16880 12ad 50574D44 		.ascii	"PWMD2\000"
 16880      3200
 16881              	.LASF636:
 16882 12b3 50574D44 		.ascii	"PWMD3\000"
 16882      3300
 16883              	.LASF637:
 16884 12b9 50574D44 		.ascii	"PWMD4\000"
 16884      3400
 16885              	.LASF638:
 16886 12bf 50574D44 		.ascii	"PWMD5\000"
 16886      3500
 16887              	.LASF150:
 16888 12c5 6E65774F 		.ascii	"newObjectsLocation\000"
ARM GAS  /var/folders/qd/4mxf5pkd0zdf0b9dd1hp39180000gn/T//ccsf5yWP.s 			page 313


 16888      626A6563 
 16888      74734C6F 
 16888      63617469 
 16888      6F6E00
 16889              	.LASF646:
 16890 12d8 6F717565 		.ascii	"oqueue\000"
 16890      756500
 16891              	.LASF165:
 16892 12df 74726566 		.ascii	"trefs_t\000"
 16892      735F7400 
 16893              	.LASF195:
 16894 12e7 705F6D70 		.ascii	"p_mpool\000"
 16894      6F6F6C00 
 16895              	.LASF297:
 16896 12ef 4932435F 		.ascii	"I2C_TypeDef\000"
 16896      54797065 
 16896      44656600 
 16897              	.LASF855:
 16898 12fb 706F696E 		.ascii	"point\000"
 16898      7400
 16899              	.LASF534:
 16900 1301 44414343 		.ascii	"DACConversionGroup\000"
 16900      6F6E7665 
 16900      7273696F 
 16900      6E47726F 
 16900      757000
 16901              	.LASF37:
 16902 1314 5F5F746D 		.ascii	"__tm_sec\000"
 16902      5F736563 
 16902      00
 16903              	.LASF835:
 16904 131d 696E5F6D 		.ascii	"in_multiplier\000"
 16904      756C7469 
 16904      706C6965 
 16904      7200
 16905              	.LASF459:
 16906 132b 4144435F 		.ascii	"ADC_ERROR\000"
 16906      4552524F 
 16906      5200
 16907              	.LASF850:
 16908 1335 6D6F645F 		.ascii	"mod_mapping_checkEnvironmentRobotReferencial\000"
 16908      6D617070 
 16908      696E675F 
 16908      63686563 
 16908      6B456E76 
 16909              	.LASF46:
 16910 1362 5F6F6E5F 		.ascii	"_on_exit_args\000"
 16910      65786974 
 16910      5F617267 
 16910      7300
 16911              	.LASF323:
 16912 1370 636F6E74 		.ascii	"context\000"
 16912      65787400 
 16913              	.LASF163:
 16914 1378 746D6F64 		.ascii	"tmode_t\000"
 16914      655F7400 
 16915              	.LASF457:
ARM GAS  /var/folders/qd/4mxf5pkd0zdf0b9dd1hp39180000gn/T//ccsf5yWP.s 			page 314


 16916 1380 4144435F 		.ascii	"ADC_ACTIVE\000"
 16916      41435449 
 16916      564500
 16917              	.LASF242:
 16918 138b 53515231 		.ascii	"SQR1\000"
 16918      00
 16919              	.LASF243:
 16920 1390 53515232 		.ascii	"SQR2\000"
 16920      00
 16921              	.LASF244:
 16922 1395 53515233 		.ascii	"SQR3\000"
 16922      00
 16923              	.LASF868:
 16924 139a 64697370 		.ascii	"displacement\000"
 16924      6C616365 
 16924      6D656E74 
 16924      00
 16925              	.LASF430:
 16926 13a7 42535252 		.ascii	"BSRR\000"
 16926      00
 16927              	.LASF410:
 16928 13ac 73746D33 		.ascii	"stm32_dma_stream_t\000"
 16928      325F646D 
 16928      615F7374 
 16928      7265616D 
 16928      5F7400
 16929              	.LASF867:
 16930 13bf 6E657741 		.ascii	"newAbsolutePosition\000"
 16930      62736F6C 
 16930      75746550 
 16930      6F736974 
 16930      696F6E00 
 16931              	.LASF840:
 16932 13d3 72657175 		.ascii	"requests_hook_cb\000"
 16932      65737473 
 16932      5F686F6F 
 16932      6B5F6362 
 16932      00
 16933              	.LASF120:
 16934 13e4 5F776372 		.ascii	"_wcrtomb_state\000"
 16934      746F6D62 
 16934      5F737461 
 16934      746500
 16935              	.LASF657:
 16936 13f3 5344435F 		.ascii	"SDC_MODE_8BIT\000"
 16936      4D4F4445 
 16936      5F384249 
 16936      5400
 16937              	.LASF138:
 16938 1401 74686574 		.ascii	"theta\000"
 16938      6100
 16939              	.LASF818:
 16940 1407 74787369 		.ascii	"txsize\000"
 16940      7A6500
 16941              	.LASF872:
 16942 140e 6D6F645F 		.ascii	"mod_mapping_computeWallLocation\000"
 16942      6D617070 
ARM GAS  /var/folders/qd/4mxf5pkd0zdf0b9dd1hp39180000gn/T//ccsf5yWP.s 			page 315


 16942      696E675F 
 16942      636F6D70 
 16942      75746557 
 16943              	.LASF139:
 16944 142e 726F626F 		.ascii	"robotPosition_t\000"
 16944      74506F73 
 16944      6974696F 
 16944      6E5F7400 
 16945              	.LASF530:
 16946 143e 4441435F 		.ascii	"DAC_DHRM_12BIT_LEFT\000"
 16946      4448524D 
 16946      5F313242 
 16946      49545F4C 
 16946      45465400 
 16947              	.LASF626:
 16948 1452 70657269 		.ascii	"period\000"
 16948      6F6400
 16949              	.LASF357:
 16950 1459 6D5F7175 		.ascii	"m_queue\000"
 16950      65756500 
 16951              	.LASF582:
 16952 1461 4932435F 		.ascii	"I2C_LOCKED\000"
 16952      4C4F434B 
 16952      454400
 16953              	.LASF224:
 16954 146c 6973725F 		.ascii	"isr_cnt\000"
 16954      636E7400 
 16955              	.LASF709:
 16956 1474 5553425F 		.ascii	"USB_READY\000"
 16956      52454144 
 16956      5900
 16957              	.LASF654:
 16958 147e 72656164 		.ascii	"readt\000"
 16958      7400
 16959              	.LASF761:
 16960 1484 47525354 		.ascii	"GRSTCTL\000"
 16960      43544C00 
 16961              	.LASF556:
 16962 148c 67707473 		.ascii	"gptstate_t\000"
 16962      74617465 
 16962      5F7400
 16963              	.LASF30:
 16964 1497 5F5F554C 		.ascii	"__ULong\000"
 16964      6F6E6700 
 16965              	.LASF223:
 16966 149f 70616E69 		.ascii	"panic_msg\000"
 16966      635F6D73 
 16966      6700
 16967              	.LASF680:
 16968 14a9 5350495F 		.ascii	"SPI_COMPLETE\000"
 16968      434F4D50 
 16968      4C455445 
 16968      00
 16969              	.LASF305:
 16970 14b6 4454494D 		.ascii	"DTIMER\000"
 16970      455200
 16971              	.LASF873:
ARM GAS  /var/folders/qd/4mxf5pkd0zdf0b9dd1hp39180000gn/T//ccsf5yWP.s 			page 316


 16972 14bd 6D656173 		.ascii	"measureNumber\000"
 16972      7572654E 
 16972      756D6265 
 16972      7200
 16973              	.LASF207:
 16974 14cb 725F6E65 		.ascii	"r_newer\000"
 16974      77657200 
 16975              	.LASF726:
 16976 14d3 5553425F 		.ascii	"USB_EVENT_STALLED\000"
 16976      4556454E 
 16976      545F5354 
 16976      414C4C45 
 16976      4400
 16977              	.LASF379:
 16978 14e5 63686465 		.ascii	"chdebug_t\000"
 16978      6275675F 
 16978      7400
 16979              	.LASF824:
 16980 14ef 72787369 		.ascii	"rxsize\000"
 16980      7A6500
 16981              	.LASF740:
 16982 14f6 48435453 		.ascii	"HCTSIZ\000"
 16982      495A00
 16983              	.LASF723:
 16984 14fd 5553425F 		.ascii	"USB_EVENT_CONFIGURED\000"
 16984      4556454E 
 16984      545F434F 
 16984      4E464947 
 16984      55524544 
 16985              	.LASF672:
 16986 1512 64697363 		.ascii	"disconnect\000"
 16986      6F6E6E65 
 16986      637400
 16987              	.LASF859:
 16988 151d 746F446F 		.ascii	"toDo\000"
 16988      00
 16989              	.LASF651:
 16990 1522 70757474 		.ascii	"putt\000"
 16990      00
 16991              	.LASF166:
 16992 1527 74736C69 		.ascii	"tslices_t\000"
 16992      6365735F 
 16992      7400
 16993              	.LASF105:
 16994 1531 5F737472 		.ascii	"_strtok_last\000"
 16994      746F6B5F 
 16994      6C617374 
 16994      00
 16995              	.LASF366:
 16996 153e 63685F74 		.ascii	"ch_timesize\000"
 16996      696D6573 
 16996      697A6500 
 16997              	.LASF581:
 16998 154a 4932435F 		.ascii	"I2C_ACTIVE_RX\000"
 16998      41435449 
 16998      56455F52 
 16998      5800
ARM GAS  /var/folders/qd/4mxf5pkd0zdf0b9dd1hp39180000gn/T//ccsf5yWP.s 			page 317


 16999              	.LASF705:
 17000 1558 77615F70 		.ascii	"wa_pump\000"
 17000      756D7000 
 17001              	.LASF310:
 17002 1560 4649464F 		.ascii	"FIFOCNT\000"
 17002      434E5400 
 17003              	.LASF391:
 17004 1568 6576656E 		.ascii	"event_source_t\000"
 17004      745F736F 
 17004      75726365 
 17004      5F7400
 17005              	.LASF775:
 17006 1577 72657376 		.ascii	"resvd140\000"
 17006      64313430 
 17006      00
 17007              	.LASF215:
 17008 1580 76745F64 		.ascii	"vt_delta\000"
 17008      656C7461 
 17008      00
 17009              	.LASF101:
 17010 1589 5F736565 		.ascii	"_seed\000"
 17010      6400
 17011              	.LASF331:
 17012 158f 74625F70 		.ascii	"tb_ptr\000"
 17012      747200
 17013              	.LASF533:
 17014 1596 74726967 		.ascii	"trigger\000"
 17014      67657200 
 17015              	.LASF64:
 17016 159e 5F736565 		.ascii	"_seek\000"
 17016      6B00
 17017              	.LASF724:
 17018 15a4 5553425F 		.ascii	"USB_EVENT_SUSPEND\000"
 17018      4556454E 
 17018      545F5355 
 17018      5350454E 
 17018      4400
 17019              	.LASF154:
 17020 15b6 656E7669 		.ascii	"environment\000"
 17020      726F6E6D 
 17020      656E7400 
 17021              	.LASF156:
 17022 15c2 696E7431 		.ascii	"int16_t\000"
 17022      365F7400 
 17023              	.LASF552:
 17024 15ca 4750545F 		.ascii	"GPT_STOP\000"
 17024      53544F50 
 17024      00
 17025              	.LASF250:
 17026 15d3 4144435F 		.ascii	"ADC_TypeDef\000"
 17026      54797065 
 17026      44656600 
 17027              	.LASF753:
 17028 15df 444F4550 		.ascii	"DOEPCTL\000"
 17028      43544C00 
 17029              	.LASF12:
 17030 15e7 73686F72 		.ascii	"short unsigned int\000"
ARM GAS  /var/folders/qd/4mxf5pkd0zdf0b9dd1hp39180000gn/T//ccsf5yWP.s 			page 318


 17030      7420756E 
 17030      7369676E 
 17030      65642069 
 17030      6E7400
 17031              	.LASF594:
 17032 15fa 6F705F6D 		.ascii	"op_mode\000"
 17032      6F646500 
 17033              	.LASF5:
 17034 1602 7369676E 		.ascii	"signed char\000"
 17034      65642063 
 17034      68617200 
 17035              	.LASF631:
 17036 160e 70776D63 		.ascii	"pwmchnmsk_t\000"
 17036      686E6D73 
 17036      6B5F7400 
 17037              	.LASF187:
 17038 161a 705F7072 		.ascii	"p_preempt\000"
 17038      65656D70 
 17038      7400
 17039              	.LASF608:
 17040 1624 4932535F 		.ascii	"I2S_READY\000"
 17040      52454144 
 17040      5900
 17041              	.LASF172:
 17042 162e 75636E74 		.ascii	"ucnt_t\000"
 17042      5F7400
 17043              	.LASF253:
 17044 1635 54444852 		.ascii	"TDHR\000"
 17044      00
 17045              	.LASF455:
 17046 163a 4144435F 		.ascii	"ADC_STOP\000"
 17046      53544F50 
 17046      00
 17047              	.LASF717:
 17048 1643 5553425F 		.ascii	"USB_EP0_RX\000"
 17048      4550305F 
 17048      525800
 17049              	.LASF130:
 17050 164e 5F5F6664 		.ascii	"__fdlibm_ieee\000"
 17050      6C69626D 
 17050      5F696565 
 17050      6500
 17051              	.LASF913:
 17052 165c 61737365 		.ascii	"assert\000"
 17052      727400
 17053              	.LASF629:
 17054 1663 70776D6D 		.ascii	"pwmmode_t\000"
 17054      6F64655F 
 17054      7400
 17055              	.LASF698:
 17056 166d 73746174 		.ascii	"status\000"
 17056      757300
 17057              	.LASF306:
 17058 1674 444C454E 		.ascii	"DLEN\000"
 17058      00
 17059              	.LASF656:
 17060 1679 5344435F 		.ascii	"SDC_MODE_4BIT\000"
ARM GAS  /var/folders/qd/4mxf5pkd0zdf0b9dd1hp39180000gn/T//ccsf5yWP.s 			page 319


 17060      4D4F4445 
 17060      5F344249 
 17060      5400
 17061              	.LASF896:
 17062 1687 63697263 		.ascii	"circle\000"
 17062      6C6500
 17063              	.LASF730:
 17064 168e 55534244 		.ascii	"USBDescriptor\000"
 17064      65736372 
 17064      6970746F 
 17064      7200
 17065              	.LASF843:
 17066 169c 55534244 		.ascii	"USBD1\000"
 17066      3100
 17067              	.LASF683:
 17068 16a2 73706963 		.ascii	"spicallback_t\000"
 17068      616C6C62 
 17068      61636B5F 
 17068      7400
 17069              	.LASF88:
 17070 16b0 5F667265 		.ascii	"_freelist\000"
 17070      656C6973 
 17070      7400
 17071              	.LASF699:
 17072 16ba 61646472 		.ascii	"address\000"
 17072      65737300 
 17073              	.LASF190:
 17074 16c2 705F6D73 		.ascii	"p_msgqueue\000"
 17074      67717565 
 17074      756500
 17075              	.LASF376:
 17076 16cd 63665F6F 		.ascii	"cf_off_refs\000"
 17076      66665F72 
 17076      65667300 
 17077              	.LASF374:
 17078 16d9 63665F6F 		.ascii	"cf_off_state\000"
 17078      66665F73 
 17078      74617465 
 17078      00
 17079              	.LASF358:
 17080 16e6 6D5F6F77 		.ascii	"m_owner\000"
 17080      6E657200 
 17081              	.LASF69:
 17082 16ee 5F6F6666 		.ascii	"_offset\000"
 17082      73657400 
 17083              	.LASF235:
 17084 16f6 53797374 		.ascii	"SystemCoreClock\000"
 17084      656D436F 
 17084      7265436C 
 17084      6F636B00 
 17085              	.LASF477:
 17086 1706 61646365 		.ascii	"adcerrorcallback_t\000"
 17086      72726F72 
 17086      63616C6C 
 17086      6261636B 
 17086      5F7400
 17087              	.LASF512:
ARM GAS  /var/folders/qd/4mxf5pkd0zdf0b9dd1hp39180000gn/T//ccsf5yWP.s 			page 320


 17088 1719 4441435F 		.ascii	"DAC_ACTIVE\000"
 17088      41435449 
 17088      564500
 17089              	.LASF149:
 17090 1724 6E756D62 		.ascii	"numberOfknownObjects\000"
 17090      65724F66 
 17090      6B6E6F77 
 17090      6E4F626A 
 17090      65637473 
 17091              	.LASF467:
 17092 1739 73746174 		.ascii	"state\000"
 17092      6500
 17093              	.LASF364:
 17094 173f 63685F76 		.ascii	"ch_version\000"
 17094      65727369 
 17094      6F6E00
 17095              	.LASF54:
 17096 174a 5F5F7362 		.ascii	"__sbuf\000"
 17096      756600
 17097              	.LASF664:
 17098 1751 7364696F 		.ascii	"sdio\000"
 17098      00
 17099              	.LASF276:
 17100 1756 53575452 		.ascii	"SWTRIGR\000"
 17100      49475200 
 17101              	.LASF716:
 17102 175e 5553425F 		.ascii	"USB_EP0_WAITING_STS\000"
 17102      4550305F 
 17102      57414954 
 17102      494E475F 
 17102      53545300 
 17103              	.LASF114:
 17104 1772 5F6C3634 		.ascii	"_l64a_buf\000"
 17104      615F6275 
 17104      6600
 17105              	.LASF257:
 17106 177c 52444852 		.ascii	"RDHR\000"
 17106      00
 17107              	.LASF888:
 17108 1781 6D6F645F 		.ascii	"mod_mapping_updatePositionWheelSpeedType\000"
 17108      6D617070 
 17108      696E675F 
 17108      75706461 
 17108      7465506F 
 17109              	.LASF566:
 17110 17aa 444D4152 		.ascii	"DMAR\000"
 17110      00
 17111              	.LASF910:
 17112 17af 6D6F645F 		.ascii	"mod_com_writeMessage\000"
 17112      636F6D5F 
 17112      77726974 
 17112      654D6573 
 17112      73616765 
 17113              	.LASF572:
 17114 17c4 63616C6C 		.ascii	"callback\000"
 17114      6261636B 
 17114      00
ARM GAS  /var/folders/qd/4mxf5pkd0zdf0b9dd1hp39180000gn/T//ccsf5yWP.s 			page 321


 17115              	.LASF228:
 17116 17cd 63685F73 		.ascii	"ch_system\000"
 17116      79737465 
 17116      6D00
 17117              	.LASF298:
 17118 17d7 504F5745 		.ascii	"POWER\000"
 17118      5200
 17119              	.LASF226:
 17120 17dd 74726163 		.ascii	"trace_buffer\000"
 17120      655F6275 
 17120      66666572 
 17120      00
 17121              	.LASF885:
 17122 17ea 74686574 		.ascii	"thetaWall\000"
 17122      6157616C 
 17122      6C00
 17123              	.LASF106:
 17124 17f4 5F617363 		.ascii	"_asctime_buf\000"
 17124      74696D65 
 17124      5F627566 
 17124      00
 17125              	.LASF531:
 17126 1801 4441435F 		.ascii	"DAC_DHRM_8BIT_RIGHT\000"
 17126      4448524D 
 17126      5F384249 
 17126      545F5249 
 17126      47485400 
 17127              	.LASF551:
 17128 1815 4750545F 		.ascii	"GPT_UNINIT\000"
 17128      554E494E 
 17128      495400
 17129              	.LASF23:
 17130 1820 5F5F7763 		.ascii	"__wch\000"
 17130      6800
 17131              	.LASF353:
 17132 1826 63685F73 		.ascii	"ch_semaphore\000"
 17132      656D6170 
 17132      686F7265 
 17132      00
 17133              	.LASF121:
 17134 1833 5F776373 		.ascii	"_wcsrtombs_state\000"
 17134      72746F6D 
 17134      62735F73 
 17134      74617465 
 17134      00
 17135              	.LASF904:
 17136 1844 6D6F7665 		.ascii	"moveOrigin\000"
 17136      4F726967 
 17136      696E00
 17137              	.LASF749:
 17138 184f 44494550 		.ascii	"DIEPTSIZ\000"
 17138      5453495A 
 17138      00
 17139              	.LASF482:
 17140 1858 736D7072 		.ascii	"smpr1\000"
 17140      3100
 17141              	.LASF483:
ARM GAS  /var/folders/qd/4mxf5pkd0zdf0b9dd1hp39180000gn/T//ccsf5yWP.s 			page 322


 17142 185e 736D7072 		.ascii	"smpr2\000"
 17142      3200
 17143              	.LASF200:
 17144 1864 74687265 		.ascii	"threads_queue_t\000"
 17144      6164735F 
 17144      71756575 
 17144      655F7400 
 17145              	.LASF421:
 17146 1874 626C6B73 		.ascii	"blkstate_t\000"
 17146      74617465 
 17146      5F7400
 17147              	.LASF920:
 17148 187f 5F5F6664 		.ascii	"__fdlibm_version\000"
 17148      6C69626D 
 17148      5F766572 
 17148      73696F6E 
 17148      00
 17149              	.LASF188:
 17150 1890 705F7469 		.ascii	"p_time\000"
 17150      6D6500
 17151              	.LASF186:
 17152 1897 705F7265 		.ascii	"p_refs\000"
 17152      667300
 17153              	.LASF827:
 17154 189e 65705F6D 		.ascii	"ep_mode\000"
 17154      6F646500 
 17155              	.LASF630:
 17156 18a6 70776D63 		.ascii	"pwmchannel_t\000"
 17156      68616E6E 
 17156      656C5F74 
 17156      00
 17157              	.LASF252:
 17158 18b3 54444C52 		.ascii	"TDLR\000"
 17158      00
 17159              	.LASF14:
 17160 18b8 6C6F6E67 		.ascii	"long int\000"
 17160      20696E74 
 17160      00
 17161              	.LASF231:
 17162 18c1 6D61696E 		.ascii	"mainthread\000"
 17162      74687265 
 17162      616400
 17163              	.LASF695:
 17164 18cc 6570306E 		.ascii	"ep0n\000"
 17164      00
 17165              	.LASF808:
 17166 18d1 72657376 		.ascii	"resvdE04\000"
 17166      64453034 
 17166      00
 17167              	.LASF584:
 17168 18da 69326361 		.ascii	"i2caddr_t\000"
 17168      6464725F 
 17168      7400
 17169              	.LASF113:
 17170 18e4 5F776374 		.ascii	"_wctomb_state\000"
 17170      6F6D625F 
 17170      73746174 
ARM GAS  /var/folders/qd/4mxf5pkd0zdf0b9dd1hp39180000gn/T//ccsf5yWP.s 			page 323


 17170      6500
 17171              	.LASF519:
 17172 18f2 646D6169 		.ascii	"dmairqprio\000"
 17172      72717072 
 17172      696F00
 17173              	.LASF557:
 17174 18fd 47505444 		.ascii	"GPTDriver\000"
 17174      72697665 
 17174      7200
 17175              	.LASF395:
 17176 1907 715F636F 		.ascii	"q_counter\000"
 17176      756E7465 
 17176      7200
 17177              	.LASF449:
 17178 1911 50484461 		.ascii	"PHData\000"
 17178      746100
 17179              	.LASF452:
 17180 1918 696F706F 		.ascii	"ioportid_t\000"
 17180      72746964 
 17180      5F7400
 17181              	.LASF490:
 17182 1923 41444344 		.ascii	"ADCD1\000"
 17182      3100
 17183              	.LASF491:
 17184 1929 41444344 		.ascii	"ADCD2\000"
 17184      3200
 17185              	.LASF492:
 17186 192f 41444344 		.ascii	"ADCD3\000"
 17186      3300
 17187              	.LASF776:
 17188 1935 48434647 		.ascii	"HCFG\000"
 17188      00
 17189              	.LASF475:
 17190 193a 646D616D 		.ascii	"dmamode\000"
 17190      6F646500 
 17191              	.LASF339:
 17192 1942 63756D75 		.ascii	"cumulative\000"
 17192      6C617469 
 17192      766500
 17193              	.LASF99:
 17194 194d 5F696F62 		.ascii	"_iobs\000"
 17194      7300
 17195              	.LASF80:
 17196 1953 5F656D65 		.ascii	"_emergency\000"
 17196      7267656E 
 17196      637900
 17197              	.LASF652:
 17198 195e 67657474 		.ascii	"gett\000"
 17198      00
 17199              	.LASF349:
 17200 1963 77747472 		.ascii	"wttrp\000"
 17200      7000
 17201              	.LASF399:
 17202 1969 715F7264 		.ascii	"q_rdptr\000"
 17202      70747200 
 17203              	.LASF123:
 17204 1971 5F6E6578 		.ascii	"_nextf\000"
ARM GAS  /var/folders/qd/4mxf5pkd0zdf0b9dd1hp39180000gn/T//ccsf5yWP.s 			page 324


 17204      746600
 17205              	.LASF649:
 17206 1978 77726974 		.ascii	"write\000"
 17206      6500
 17207              	.LASF109:
 17208 197e 5F72616E 		.ascii	"_rand_next\000"
 17208      645F6E65 
 17208      787400
 17209              	.LASF645:
 17210 1989 69717565 		.ascii	"iqueue\000"
 17210      756500
 17211              	.LASF829:
 17212 1990 696E5F63 		.ascii	"in_cb\000"
 17212      6200
 17213              	.LASF754:
 17214 1996 444F4550 		.ascii	"DOEPINT\000"
 17214      494E5400 
 17215              	.LASF338:
 17216 199e 6C617374 		.ascii	"last\000"
 17216      00
 17217              	.LASF431:
 17218 19a3 4C434B52 		.ascii	"LCKR\000"
 17218      00
 17219              	.LASF642:
 17220 19a8 73647374 		.ascii	"sdstate_t\000"
 17220      6174655F 
 17220      7400
 17221              	.LASF159:
 17222 19b2 75696E74 		.ascii	"uint32_t\000"
 17222      33325F74 
 17222      00
 17223              	.LASF902:
 17224 19bb 6D746F74 		.ascii	"mtot\000"
 17224      00
 17225              	.LASF516:
 17226 19c0 64617461 		.ascii	"dataoffset\000"
 17226      6F666673 
 17226      657400
 17227              	.LASF32:
 17228 19cb 5F6D6178 		.ascii	"_maxwds\000"
 17228      77647300 
 17229              	.LASF419:
 17230 19d3 424C4B5F 		.ascii	"BLK_WRITING\000"
 17230      57524954 
 17230      494E4700 
 17231              	.LASF256:
 17232 19df 52444C52 		.ascii	"RDLR\000"
 17232      00
 17233              	.LASF144:
 17234 19e4 7472616E 		.ascii	"translation\000"
 17234      736C6174 
 17234      696F6E00 
 17235              	.LASF860:
 17236 19f0 746F5365 		.ascii	"toSend\000"
 17236      6E6400
 17237              	.LASF4:
 17238 19f7 6C6F6E67 		.ascii	"long double\000"
ARM GAS  /var/folders/qd/4mxf5pkd0zdf0b9dd1hp39180000gn/T//ccsf5yWP.s 			page 325


 17238      20646F75 
 17238      626C6500 
 17239              	.LASF321:
 17240 1a03 72656761 		.ascii	"regarm_t\000"
 17240      726D5F74 
 17240      00
 17241              	.LASF169:
 17242 1a0c 6576656E 		.ascii	"eventmask_t\000"
 17242      746D6173 
 17242      6B5F7400 
 17243              	.LASF470:
 17244 1a18 64657074 		.ascii	"depth\000"
 17244      6800
 17245              	.LASF141:
 17246 1a1e 706F7369 		.ascii	"position\000"
 17246      74696F6E 
 17246      00
 17247              	.LASF270:
 17248 1a27 46464131 		.ascii	"FFA1R\000"
 17248      5200
 17249              	.LASF261:
 17250 1a2d 52463152 		.ascii	"RF1R\000"
 17250      00
 17251              	.LASF710:
 17252 1a32 5553425F 		.ascii	"USB_SELECTED\000"
 17252      53454C45 
 17252      43544544 
 17252      00
 17253              	.LASF496:
 17254 1a3f 43414E5F 		.ascii	"CAN_READY\000"
 17254      52454144 
 17254      5900
 17255              	.LASF16:
 17256 1a49 6C6F6E67 		.ascii	"long unsigned int\000"
 17256      20756E73 
 17256      69676E65 
 17256      6420696E 
 17256      7400
 17257              	.LASF609:
 17258 1a5b 4932535F 		.ascii	"I2S_ACTIVE\000"
 17258      41435449 
 17258      564500
 17259              	.LASF553:
 17260 1a66 4750545F 		.ascii	"GPT_READY\000"
 17260      52454144 
 17260      5900
 17261              	.LASF515:
 17262 1a70 64616373 		.ascii	"dacstate_t\000"
 17262      74617465 
 17262      5F7400
 17263              	.LASF326:
 17264 1a7b 73655F74 		.ascii	"se_tp\000"
 17264      7000
 17265              	.LASF398:
 17266 1a81 715F7772 		.ascii	"q_wrptr\000"
 17266      70747200 
 17267              	.LASF523:
ARM GAS  /var/folders/qd/4mxf5pkd0zdf0b9dd1hp39180000gn/T//ccsf5yWP.s 			page 326


 17268 1a89 64616373 		.ascii	"dacsample_t\000"
 17268      616D706C 
 17268      655F7400 
 17269              	.LASF722:
 17270 1a95 5553425F 		.ascii	"USB_EVENT_ADDRESS\000"
 17270      4556454E 
 17270      545F4144 
 17270      44524553 
 17270      5300
 17271              	.LASF617:
 17272 1aa7 69327363 		.ascii	"i2scfgr\000"
 17272      66677200 
 17273              	.LASF300:
 17274 1aaf 52455350 		.ascii	"RESPCMD\000"
 17274      434D4400 
 17275              	.LASF502:
 17276 1ab7 72786675 		.ascii	"rxfull_event\000"
 17276      6C6C5F65 
 17276      76656E74 
 17276      00
 17277              	.LASF503:
 17278 1ac4 7478656D 		.ascii	"txempty_event\000"
 17278      7074795F 
 17278      6576656E 
 17278      7400
 17279              	.LASF727:
 17280 1ad2 75736265 		.ascii	"usbevent_t\000"
 17280      76656E74 
 17280      5F7400
 17281              	.LASF65:
 17282 1add 5F636C6F 		.ascii	"_close\000"
 17282      736500
 17283              	.LASF29:
 17284 1ae4 63686172 		.ascii	"char\000"
 17284      00
 17285              	.LASF499:
 17286 1ae9 43414E43 		.ascii	"CANConfig\000"
 17286      6F6E6669 
 17286      6700
 17287              	.LASF446:
 17288 1af3 50454461 		.ascii	"PEData\000"
 17288      746100
 17289              	.LASF204:
 17290 1afa 725F7175 		.ascii	"r_queue\000"
 17290      65756500 
 17291              	.LASF97:
 17292 1b02 5F676C75 		.ascii	"_glue\000"
 17292      6500
 17293              	.LASF667:
 17294 1b08 53444343 		.ascii	"SDCConfig\000"
 17294      6F6E6669 
 17294      6700
 17295              	.LASF627:
 17296 1b12 656E6162 		.ascii	"enabled\000"
 17296      6C656400 
 17297              	.LASF524:
 17298 1b1a 4441435F 		.ascii	"DAC_ERR_DMAFAILURE\000"
ARM GAS  /var/folders/qd/4mxf5pkd0zdf0b9dd1hp39180000gn/T//ccsf5yWP.s 			page 327


 17298      4552525F 
 17298      444D4146 
 17298      41494C55 
 17298      524500
 17299              	.LASF766:
 17300 1b2d 47525846 		.ascii	"GRXFSIZ\000"
 17300      53495A00 
 17301              	.LASF673:
 17302 1b35 73796E63 		.ascii	"sync\000"
 17302      00
 17303              	.LASF647:
 17304 1b3a 75736172 		.ascii	"usart\000"
 17304      7400
 17305              	.LASF882:
 17306 1b40 7461626C 		.ascii	"table\000"
 17306      6500
 17307              	.LASF659:
 17308 1b46 7364636D 		.ascii	"sdcmode_t\000"
 17308      6F64655F 
 17308      7400
 17309              	.LASF401:
 17310 1b50 715F6C69 		.ascii	"q_link\000"
 17310      6E6B00
 17311              	.LASF147:
 17312 1b57 6E656172 		.ascii	"nearWall\000"
 17312      57616C6C 
 17312      00
 17313              	.LASF911:
 17314 1b60 7265616C 		.ascii	"realloc\000"
 17314      6C6F6300 
 17315              	.LASF787:
 17316 1b68 44434647 		.ascii	"DCFG\000"
 17316      00
 17317              	.LASF35:
 17318 1b6d 5F426967 		.ascii	"_Bigint\000"
 17318      696E7400 
 17319              	.LASF797:
 17320 1b75 44564255 		.ascii	"DVBUSDIS\000"
 17320      53444953 
 17320      00
 17321              	.LASF763:
 17322 1b7e 47494E54 		.ascii	"GINTMSK\000"
 17322      4D534B00 
 17323              	.LASF768:
 17324 1b86 484E5054 		.ascii	"HNPTXSTS\000"
 17324      58535453 
 17324      00
 17325              	.LASF700:
 17326 1b8f 636F6E66 		.ascii	"configuration\000"
 17326      69677572 
 17326      6174696F 
 17326      6E00
 17327              	.LASF92:
 17328 1b9d 5F617465 		.ascii	"_atexit0\000"
 17328      78697430 
 17328      00
 17329              	.LASF441:
ARM GAS  /var/folders/qd/4mxf5pkd0zdf0b9dd1hp39180000gn/T//ccsf5yWP.s 			page 328


 17330 1ba6 73746D33 		.ascii	"stm32_gpio_setup_t\000"
 17330      325F6770 
 17330      696F5F73 
 17330      65747570 
 17330      5F7400
 17331              	.LASF905:
 17332 1bb9 6D656173 		.ascii	"measurementToPoint\000"
 17332      7572656D 
 17332      656E7454 
 17332      6F506F69 
 17332      6E7400
 17333              	.LASF411:
 17334 1bcc 5F73746D 		.ascii	"_stm32_dma_streams\000"
 17334      33325F64 
 17334      6D615F73 
 17334      74726561 
 17334      6D7300
 17335              	.LASF278:
 17336 1bdf 44485231 		.ascii	"DHR12L1\000"
 17336      324C3100 
 17337              	.LASF281:
 17338 1be7 44485231 		.ascii	"DHR12L2\000"
 17338      324C3200 
 17339              	.LASF858:
 17340 1bef 6D6F645F 		.ascii	"mod_mapping_computeDistanceForPicture\000"
 17340      6D617070 
 17340      696E675F 
 17340      636F6D70 
 17340      75746544 
 17341              	.LASF908:
 17342 1c15 6E657750 		.ascii	"newPosition\000"
 17342      6F736974 
 17342      696F6E00 
 17343              	.LASF116:
 17344 1c21 5F676574 		.ascii	"_getdate_err\000"
 17344      64617465 
 17344      5F657272 
 17344      00
 17345              	.LASF658:
 17346 1c2e 73646362 		.ascii	"sdcbusmode_t\000"
 17346      75736D6F 
 17346      64655F74 
 17346      00
 17347              	.LASF284:
 17348 1c3b 44485231 		.ascii	"DHR12LD\000"
 17348      324C4400 
 17349              	.LASF232:
 17350 1c43 6B65726E 		.ascii	"kernel_stats\000"
 17350      656C5F73 
 17350      74617473 
 17350      00
 17351              	.LASF476:
 17352 1c50 61646363 		.ascii	"adccallback_t\000"
 17352      616C6C62 
 17352      61636B5F 
 17352      7400
 17353              	.LASF183:
ARM GAS  /var/folders/qd/4mxf5pkd0zdf0b9dd1hp39180000gn/T//ccsf5yWP.s 			page 329


 17354 1c5e 705F7374 		.ascii	"p_stklimit\000"
 17354      6B6C696D 
 17354      697400
 17355              	.LASF171:
 17356 1c69 636E745F 		.ascii	"cnt_t\000"
 17356      7400
 17357              	.LASF542:
 17358 1c6f 65787473 		.ascii	"extstate_t\000"
 17358      74617465 
 17358      5F7400
 17359              	.LASF715:
 17360 1c7a 5553425F 		.ascii	"USB_EP0_WAITING_TX0\000"
 17360      4550305F 
 17360      57414954 
 17360      494E475F 
 17360      54583000 
 17361              	.LASF694:
 17362 1c8e 6570306E 		.ascii	"ep0next\000"
 17362      65787400 
 17363              	.LASF744:
 17364 1c96 73746D33 		.ascii	"stm32_otg_host_chn_t\000"
 17364      325F6F74 
 17364      675F686F 
 17364      73745F63 
 17364      686E5F74 
 17365              	.LASF433:
 17366 1cab 41465248 		.ascii	"AFRH\000"
 17366      00
 17367              	.LASF432:
 17368 1cb0 4146524C 		.ascii	"AFRL\000"
 17368      00
 17369              	.LASF918:
 17370 1cb5 2E2F6D6F 		.ascii	"./modules/mod_mapping.c\000"
 17370      64756C65 
 17370      732F6D6F 
 17370      645F6D61 
 17370      7070696E 
 17371              	.LASF128:
 17372 1ccd 5F696D70 		.ascii	"_impure_ptr\000"
 17372      7572655F 
 17372      70747200 
 17373              	.LASF377:
 17374 1cd9 63665F6F 		.ascii	"cf_off_preempt\000"
 17374      66665F70 
 17374      7265656D 
 17374      707400
 17375              	.LASF513:
 17376 1ce8 4441435F 		.ascii	"DAC_COMPLETE\000"
 17376      434F4D50 
 17376      4C455445 
 17376      00
 17377              	.LASF68:
 17378 1cf5 5F626C6B 		.ascii	"_blksize\000"
 17378      73697A65 
 17378      00
 17379              	.LASF739:
 17380 1cfe 4843494E 		.ascii	"HCINTMSK\000"
ARM GAS  /var/folders/qd/4mxf5pkd0zdf0b9dd1hp39180000gn/T//ccsf5yWP.s 			page 330


 17380      544D534B 
 17380      00
 17381              	.LASF66:
 17382 1d07 5F756275 		.ascii	"_ubuf\000"
 17382      6600
 17383              	.LASF468:
 17384 1d0d 636F6E66 		.ascii	"config\000"
 17384      696700
 17385              	.LASF576:
 17386 1d14 47505444 		.ascii	"GPTD11\000"
 17386      313100
 17387              	.LASF111:
 17388 1d1b 5F6D626C 		.ascii	"_mblen_state\000"
 17388      656E5F73 
 17388      74617465 
 17388      00
 17389              	.LASF94:
 17390 1d28 5F5F7367 		.ascii	"__sglue\000"
 17390      6C756500 
 17391              	.LASF127:
 17392 1d30 5F5F6C6F 		.ascii	"__locale_t\000"
 17392      63616C65 
 17392      5F7400
 17393              	.LASF415:
 17394 1d3b 424C4B5F 		.ascii	"BLK_CONNECTING\000"
 17394      434F4E4E 
 17394      45435449 
 17394      4E4700
 17395              	.LASF84:
 17396 1d4a 5F5F636C 		.ascii	"__cleanup\000"
 17396      65616E75 
 17396      7000
 17397              	.LASF509:
 17398 1d54 4441435F 		.ascii	"DAC_UNINIT\000"
 17398      554E494E 
 17398      495400
 17399              	.LASF864:
 17400 1d5f 6E657741 		.ascii	"newAngle\000"
 17400      6E676C65 
 17400      00
 17401              	.LASF462:
 17402 1d68 6164635F 		.ascii	"adc_channels_num_t\000"
 17402      6368616E 
 17402      6E656C73 
 17402      5F6E756D 
 17402      5F7400
 17403              	.LASF210:
 17404 1d7b 76746675 		.ascii	"vtfunc_t\000"
 17404      6E635F74 
 17404      00
 17405              	.LASF258:
 17406 1d84 43414E5F 		.ascii	"CAN_FIFOMailBox_TypeDef\000"
 17406      4649464F 
 17406      4D61696C 
 17406      426F785F 
 17406      54797065 
 17407              	.LASF288:
ARM GAS  /var/folders/qd/4mxf5pkd0zdf0b9dd1hp39180000gn/T//ccsf5yWP.s 			page 331


 17408 1d9c 4441435F 		.ascii	"DAC_TypeDef\000"
 17408      54797065 
 17408      44656600 
 17409              	.LASF348:
 17410 1da8 77746F62 		.ascii	"wtobjp\000"
 17410      6A7000
 17411              	.LASF21:
 17412 1daf 5F66706F 		.ascii	"_fpos_t\000"
 17412      735F7400 
 17413              	.LASF529:
 17414 1db7 4441435F 		.ascii	"DAC_DHRM_12BIT_RIGHT\000"
 17414      4448524D 
 17414      5F313242 
 17414      49545F52 
 17414      49474854 
 17415              	.LASF59:
 17416 1dcc 5F66696C 		.ascii	"_file\000"
 17416      6500
 17417              	.LASF194:
 17418 1dd2 705F7265 		.ascii	"p_realprio\000"
 17418      616C7072 
 17418      696F00
 17419              	.LASF662:
 17420 1ddd 63617061 		.ascii	"capacity\000"
 17420      63697479 
 17420      00
 17421              	.LASF400:
 17422 1de6 715F6E6F 		.ascii	"q_notify\000"
 17422      74696679 
 17422      00
 17423              	.LASF351:
 17424 1def 77746D74 		.ascii	"wtmtxp\000"
 17424      787000
 17425              	.LASF57:
 17426 1df6 5F5F7346 		.ascii	"__sFILE\000"
 17426      494C4500 
 17427              	.LASF0:
 17428 1dfe 646F7562 		.ascii	"double\000"
 17428      6C6500
 17429              	.LASF53:
 17430 1e05 5F666E73 		.ascii	"_fns\000"
 17430      00
 17431              	.LASF826:
 17432 1e0a 5553424F 		.ascii	"USBOutEndpointState\000"
 17432      7574456E 
 17432      64706F69 
 17432      6E745374 
 17432      61746500 
 17433              	.LASF783:
 17434 1e1e 72657376 		.ascii	"resvd41C\000"
 17434      64343143 
 17434      00
 17435              	.LASF27:
 17436 1e27 5F6D6273 		.ascii	"_mbstate_t\000"
 17436      74617465 
 17436      5F7400
 17437              	.LASF122:
ARM GAS  /var/folders/qd/4mxf5pkd0zdf0b9dd1hp39180000gn/T//ccsf5yWP.s 			page 332


 17438 1e32 5F685F65 		.ascii	"_h_errno\000"
 17438      72726E6F 
 17438      00
 17439              	.LASF255:
 17440 1e3b 52445452 		.ascii	"RDTR\000"
 17440      00
 17441              	.LASF423:
 17442 1e40 626C6B5F 		.ascii	"blk_num\000"
 17442      6E756D00 
 17443              	.LASF721:
 17444 1e48 5553425F 		.ascii	"USB_EVENT_RESET\000"
 17444      4556454E 
 17444      545F5245 
 17444      53455400 
 17445              	.LASF203:
 17446 1e58 63685F72 		.ascii	"ch_ready_list\000"
 17446      65616479 
 17446      5F6C6973 
 17446      7400
 17447              	.LASF429:
 17448 1e66 50555044 		.ascii	"PUPDR\000"
 17448      5200
 17449              	.LASF13:
 17450 1e6c 5F5F696E 		.ascii	"__int32_t\000"
 17450      7433325F 
 17450      7400
 17451              	.LASF15:
 17452 1e76 5F5F7569 		.ascii	"__uint32_t\000"
 17452      6E743332 
 17452      5F7400
 17453              	.LASF222:
 17454 1e81 63685F73 		.ascii	"ch_system_debug\000"
 17454      79737465 
 17454      6D5F6465 
 17454      62756700 
 17455              	.LASF883:
 17456 1e91 636F6566 		.ascii	"coefsWall\000"
 17456      7357616C 
 17456      6C00
 17457              	.LASF794:
 17458 1e9b 4441494E 		.ascii	"DAINTMSK\000"
 17458      544D534B 
 17458      00
 17459              	.LASF549:
 17460 1ea4 45585443 		.ascii	"EXTConfig\000"
 17460      6F6E6669 
 17460      6700
 17461              	.LASF26:
 17462 1eae 5F5F7661 		.ascii	"__value\000"
 17462      6C756500 
 17463              	.LASF713:
 17464 1eb6 5553425F 		.ascii	"USB_EP0_WAITING_SETUP\000"
 17464      4550305F 
 17464      57414954 
 17464      494E475F 
 17464      53455455 
 17465              	.LASF50:
ARM GAS  /var/folders/qd/4mxf5pkd0zdf0b9dd1hp39180000gn/T//ccsf5yWP.s 			page 333


 17466 1ecc 5F69735F 		.ascii	"_is_cxa\000"
 17466      63786100 
 17467              	.LASF418:
 17468 1ed4 424C4B5F 		.ascii	"BLK_READING\000"
 17468      52454144 
 17468      494E4700 
 17469              	.LASF439:
 17470 1ee0 6166726C 		.ascii	"afrl\000"
 17470      00
 17471              	.LASF816:
 17472 1ee5 71756575 		.ascii	"queue\000"
 17472      6500
 17473              	.LASF696:
 17474 1eeb 65703065 		.ascii	"ep0endcb\000"
 17474      6E646362 
 17474      00
 17475              	.LASF856:
 17476 1ef4 64697374 		.ascii	"distance\000"
 17476      616E6365 
 17476      00
 17477              	.LASF408:
 17478 1efd 73656C66 		.ascii	"selfindex\000"
 17478      696E6465 
 17478      7800
 17479              	.LASF381:
 17480 1f07 6D757465 		.ascii	"mutex_t\000"
 17480      785F7400 
 17481              	.LASF87:
 17482 1f0f 5F703573 		.ascii	"_p5s\000"
 17482      00
 17483              	.LASF862:
 17484 1f14 6D6F645F 		.ascii	"mod_mapping_getRelativeAngle\000"
 17484      6D617070 
 17484      696E675F 
 17484      67657452 
 17484      656C6174 
 17485              	.LASF192:
 17486 1f31 705F6570 		.ascii	"p_epending\000"
 17486      656E6469 
 17486      6E6700
 17487              	.LASF426:
 17488 1f3c 4D4F4445 		.ascii	"MODER\000"
 17488      5200
 17489              	.LASF853:
 17490 1f42 726F626F 		.ascii	"robotActualPosition\000"
 17490      74416374 
 17490      75616C50 
 17490      6F736974 
 17490      696F6E00 
 17491              	.LASF610:
 17492 1f56 4932535F 		.ascii	"I2S_COMPLETE\000"
 17492      434F4D50 
 17492      4C455445 
 17492      00
 17493              	.LASF135:
 17494 1f63 6C656674 		.ascii	"left\000"
 17494      00
ARM GAS  /var/folders/qd/4mxf5pkd0zdf0b9dd1hp39180000gn/T//ccsf5yWP.s 			page 334


 17495              	.LASF262:
 17496 1f68 52455345 		.ascii	"RESERVED0\000"
 17496      52564544 
 17496      3000
 17497              	.LASF265:
 17498 1f72 52455345 		.ascii	"RESERVED1\000"
 17498      52564544 
 17498      3100
 17499              	.LASF267:
 17500 1f7c 52455345 		.ascii	"RESERVED2\000"
 17500      52564544 
 17500      3200
 17501              	.LASF269:
 17502 1f86 52455345 		.ascii	"RESERVED3\000"
 17502      52564544 
 17502      3300
 17503              	.LASF271:
 17504 1f90 52455345 		.ascii	"RESERVED4\000"
 17504      52564544 
 17504      3400
 17505              	.LASF273:
 17506 1f9a 52455345 		.ascii	"RESERVED5\000"
 17506      52564544 
 17506      3500
 17507              	.LASF837:
 17508 1fa4 55534245 		.ascii	"USBEndpointConfig\000"
 17508      6E64706F 
 17508      696E7443 
 17508      6F6E6669 
 17508      6700
 17509              	.LASF277:
 17510 1fb6 44485231 		.ascii	"DHR12R1\000"
 17510      32523100 
 17511              	.LASF280:
 17512 1fbe 44485231 		.ascii	"DHR12R2\000"
 17512      32523200 
 17513              	.LASF545:
 17514 1fc6 65787463 		.ascii	"extcallback_t\000"
 17514      616C6C62 
 17514      61636B5F 
 17514      7400
 17515              	.LASF501:
 17516 1fd4 72787175 		.ascii	"rxqueue\000"
 17516      65756500 
 17517              	.LASF325:
 17518 1fdc 73655F74 		.ascii	"se_time\000"
 17518      696D6500 
 17519              	.LASF785:
 17520 1fe4 72657376 		.ascii	"resvd444\000"
 17520      64343434 
 17520      00
 17521              	.LASF453:
 17522 1fed 70616C5F 		.ascii	"pal_default_config\000"
 17522      64656661 
 17522      756C745F 
 17522      636F6E66 
 17522      696700
ARM GAS  /var/folders/qd/4mxf5pkd0zdf0b9dd1hp39180000gn/T//ccsf5yWP.s 			page 335


 17523              	.LASF847:
 17524 2000 6F626A65 		.ascii	"objectList\000"
 17524      63744C69 
 17524      737400
 17525              	.LASF471:
 17526 200b 67727070 		.ascii	"grpp\000"
 17526      00
 17527              	.LASF283:
 17528 2010 44485231 		.ascii	"DHR12RD\000"
 17528      32524400 
 17529              	.LASF385:
 17530 2018 656C5F6C 		.ascii	"el_listener\000"
 17530      69737465 
 17530      6E657200 
 17531              	.LASF815:
 17532 2024 6C696E65 		.ascii	"linear\000"
 17532      617200
 17533              	.LASF569:
 17534 202b 73746D33 		.ascii	"stm32_tim_t\000"
 17534      325F7469 
 17534      6D5F7400 
 17535              	.LASF205:
 17536 2037 725F7072 		.ascii	"r_prio\000"
 17536      696F00
 17537              	.LASF702:
 17538 203e 706D6E65 		.ascii	"pmnext\000"
 17538      787400
 17539              	.LASF234:
 17540 2045 49544D5F 		.ascii	"ITM_RxBuffer\000"
 17540      52784275 
 17540      66666572 
 17540      00
 17541              	.LASF898:
 17542 2052 706F696E 		.ascii	"point1\000"
 17542      743100
 17543              	.LASF899:
 17544 2059 706F696E 		.ascii	"point2\000"
 17544      743200
 17545              	.LASF424:
 17546 2060 426C6F63 		.ascii	"BlockDeviceInfo\000"
 17546      6B446576 
 17546      69636549 
 17546      6E666F00 
 17547              	.LASF18:
 17548 2070 6C6F6E67 		.ascii	"long long unsigned int\000"
 17548      206C6F6E 
 17548      6720756E 
 17548      7369676E 
 17548      65642069 
 17549              	.LASF312:
 17550 2087 5344494F 		.ascii	"SDIO_TypeDef\000"
 17550      5F547970 
 17550      65446566 
 17550      00
 17551              	.LASF334:
 17552 2094 6F666673 		.ascii	"offset\000"
 17552      657400
ARM GAS  /var/folders/qd/4mxf5pkd0zdf0b9dd1hp39180000gn/T//ccsf5yWP.s 			page 336


 17553              	.LASF687:
 17554 209b 53504944 		.ascii	"SPID1\000"
 17554      3100
 17555              	.LASF289:
 17556 20a1 4E445452 		.ascii	"NDTR\000"
 17556      00
 17557              	.LASF390:
 17558 20a6 65735F6E 		.ascii	"es_next\000"
 17558      65787400 
 17559              	.LASF108:
 17560 20ae 5F67616D 		.ascii	"_gamma_signgam\000"
 17560      6D615F73 
 17560      69676E67 
 17560      616D00
 17561              	.LASF751:
 17562 20bd 72657376 		.ascii	"resvd1C\000"
 17562      64314300 
 17563              	.LASF233:
 17564 20c5 69646C65 		.ascii	"idle_thread_wa\000"
 17564      5F746872 
 17564      6561645F 
 17564      776100
 17565              	.LASF747:
 17566 20d4 44494550 		.ascii	"DIEPINT\000"
 17566      494E5400 
 17567              	.LASF871:
 17568 20dc 6D6F7665 		.ascii	"movementAngle\000"
 17568      6D656E74 
 17568      416E676C 
 17568      6500
 17569              	.LASF318:
 17570 20ea 5350495F 		.ascii	"SPI_TypeDef\000"
 17570      54797065 
 17570      44656600 
 17571              	.LASF216:
 17572 20f6 76745F66 		.ascii	"vt_func\000"
 17572      756E6300 
 17573              	.LASF560:
 17574 20fe 534D4352 		.ascii	"SMCR\000"
 17574      00
 17575              	.LASF869:
 17576 2103 64656C74 		.ascii	"deltaX\000"
 17576      615800
 17577              	.LASF792:
 17578 210a 444F4550 		.ascii	"DOEPMSK\000"
 17578      4D534B00 
 17579              	.LASF212:
 17580 2112 63685F76 		.ascii	"ch_virtual_timer\000"
 17580      69727475 
 17580      616C5F74 
 17580      696D6572 
 17580      00
 17581              	.LASF185:
 17582 2123 705F666C 		.ascii	"p_flags\000"
 17582      61677300 
 17583              	.LASF352:
 17584 212b 65776D61 		.ascii	"ewmask\000"
ARM GAS  /var/folders/qd/4mxf5pkd0zdf0b9dd1hp39180000gn/T//ccsf5yWP.s 			page 337


 17584      736B00
 17585              	.LASF387:
 17586 2132 656C5F66 		.ascii	"el_flags\000"
 17586      6C616773 
 17586      00
 17587              	.LASF389:
 17588 213b 6576656E 		.ascii	"event_source\000"
 17588      745F736F 
 17588      75726365 
 17588      00
 17589              	.LASF193:
 17590 2148 705F6D74 		.ascii	"p_mtxlist\000"
 17590      786C6973 
 17590      7400
 17591              	.LASF148:
 17592 2152 6E756D62 		.ascii	"numberOfnewObjects\000"
 17592      65724F66 
 17592      6E65774F 
 17592      626A6563 
 17592      747300
 17593              	.LASF508:
 17594 2165 43414E44 		.ascii	"CAND1\000"
 17594      3100
 17595              	.LASF268:
 17596 216b 46533152 		.ascii	"FS1R\000"
 17596      00
 17597              	.LASF907:
 17598 2170 6C617374 		.ascii	"lastPosition\000"
 17598      506F7369 
 17598      74696F6E 
 17598      00
 17599              	.LASF164:
 17600 217d 74737461 		.ascii	"tstate_t\000"
 17600      74655F74 
 17600      00
 17601              	.LASF129:
 17602 2186 5F676C6F 		.ascii	"_global_impure_ptr\000"
 17602      62616C5F 
 17602      696D7075 
 17602      72655F70 
 17602      747200
 17603              	.LASF793:
 17604 2199 4441494E 		.ascii	"DAINT\000"
 17604      5400
 17605              	.LASF686:
 17606 219f 53504943 		.ascii	"SPIConfig\000"
 17606      6F6E6669 
 17606      6700
 17607              	.LASF81:
 17608 21a9 5F756E73 		.ascii	"_unspecified_locale_info\000"
 17608      70656369 
 17608      66696564 
 17608      5F6C6F63 
 17608      616C655F 
 17609              	.LASF438:
 17610 21c2 70757064 		.ascii	"pupdr\000"
 17610      7200
ARM GAS  /var/folders/qd/4mxf5pkd0zdf0b9dd1hp39180000gn/T//ccsf5yWP.s 			page 338


 17611              	.LASF528:
 17612 21c8 64616365 		.ascii	"dacerrorcallback_t\000"
 17612      72726F72 
 17612      63616C6C 
 17612      6261636B 
 17612      5F7400
 17613              	.LASF689:
 17614 21db 7472616E 		.ascii	"transmitting\000"
 17614      736D6974 
 17614      74696E67 
 17614      00
 17615              	.LASF548:
 17616 21e8 6368616E 		.ascii	"channels\000"
 17616      6E656C73 
 17616      00
 17617              	.LASF299:
 17618 21f1 434C4B43 		.ascii	"CLKCR\000"
 17618      5200
 17619              	.LASF915:
 17620 21f7 6174616E 		.ascii	"atan\000"
 17620      00
 17621              	.LASF661:
 17622 21fc 53444344 		.ascii	"SDCDriver\000"
 17622      72697665 
 17622      7200
 17623              	.LASF854:
 17624 2206 6C617374 		.ascii	"lastStepObjectDistance\000"
 17624      53746570 
 17624      4F626A65 
 17624      63744469 
 17624      7374616E 
 17625              	.LASF182:
 17626 221d 705F6E61 		.ascii	"p_name\000"
 17626      6D6500
 17627              	.LASF83:
 17628 2224 5F5F7364 		.ascii	"__sdidinit\000"
 17628      6964696E 
 17628      697400
 17629              	.LASF643:
 17630 222f 53657269 		.ascii	"SerialDriver\000"
 17630      616C4472 
 17630      69766572 
 17630      00
 17631              	.LASF246:
 17632 223c 4A445231 		.ascii	"JDR1\000"
 17632      00
 17633              	.LASF133:
 17634 2241 5F5F6664 		.ascii	"__fdlibm_posix\000"
 17634      6C69626D 
 17634      5F706F73 
 17634      697800
 17635              	.LASF248:
 17636 2250 4A445233 		.ascii	"JDR3\000"
 17636      00
 17637              	.LASF249:
 17638 2255 4A445234 		.ascii	"JDR4\000"
 17638      00
ARM GAS  /var/folders/qd/4mxf5pkd0zdf0b9dd1hp39180000gn/T//ccsf5yWP.s 			page 339


 17639              	.LASF755:
 17640 225a 444F4550 		.ascii	"DOEPTSIZ\000"
 17640      5453495A 
 17640      00
 17641              	.LASF849:
 17642 2263 6D6F645F 		.ascii	"mod_mapping_computeDistanceForPictureRobotReferenci"
 17642      6D617070 
 17642      696E675F 
 17642      636F6D70 
 17642      75746544 
 17643 2296 616C00   		.ascii	"al\000"
 17644              	.LASF456:
 17645 2299 4144435F 		.ascii	"ADC_READY\000"
 17645      52454144 
 17645      5900
 17646              	.LASF369:
 17647 22a3 63665F6F 		.ascii	"cf_off_ctx\000"
 17647      66665F63 
 17647      747800
 17648              	.LASF28:
 17649 22ae 5F666C6F 		.ascii	"_flock_t\000"
 17649      636B5F74 
 17649      00
 17650              	.LASF218:
 17651 22b7 76697274 		.ascii	"virtual_timers_list_t\000"
 17651      75616C5F 
 17651      74696D65 
 17651      72735F6C 
 17651      6973745F 
 17652              	.LASF779:
 17653 22cd 72657376 		.ascii	"resvd40C\000"
 17653      64343043 
 17653      00
 17654              	.LASF478:
 17655 22d6 63697263 		.ascii	"circular\000"
 17655      756C6172 
 17655      00
 17656              	.LASF611:
 17657 22df 69327373 		.ascii	"i2sstate_t\000"
 17657      74617465 
 17657      5F7400
 17658              	.LASF435:
 17659 22ea 6D6F6465 		.ascii	"moder\000"
 17659      7200
 17660              	.LASF861:
 17661 22f0 6E756D62 		.ascii	"numberOfMeasurements\000"
 17661      65724F66 
 17661      4D656173 
 17661      7572656D 
 17661      656E7473 
 17662              	.LASF682:
 17663 2305 53504944 		.ascii	"SPIDriver\000"
 17663      72697665 
 17663      7200
 17664              	.LASF354:
 17665 230f 735F7175 		.ascii	"s_queue\000"
 17665      65756500 
ARM GAS  /var/folders/qd/4mxf5pkd0zdf0b9dd1hp39180000gn/T//ccsf5yWP.s 			page 340


 17666              	.LASF343:
 17667 2317 6D5F6372 		.ascii	"m_crit_thd\000"
 17667      69745F74 
 17667      686400
 17668              	.LASF510:
 17669 2322 4441435F 		.ascii	"DAC_STOP\000"
 17669      53544F50 
 17669      00
 17670              	.LASF786:
 17671 232b 72657376 		.ascii	"resvd700\000"
 17671      64373030 
 17671      00
 17672              	.LASF316:
 17673 2334 49325343 		.ascii	"I2SCFGR\000"
 17673      46475200 
 17674              	.LASF361:
 17675 233c 63685F69 		.ascii	"ch_identifier\000"
 17675      64656E74 
 17675      69666965 
 17675      7200
 17676              	.LASF653:
 17677 234a 77726974 		.ascii	"writet\000"
 17677      657400
 17678              	.LASF3:
 17679 2351 6C6F6E67 		.ascii	"long long int\000"
 17679      206C6F6E 
 17679      6720696E 
 17679      7400
 17680              	.LASF773:
 17681 235f 48505458 		.ascii	"HPTXFSIZ\000"
 17681      4653495A 
 17681      00
 17682              	.LASF368:
 17683 2368 63665F6F 		.ascii	"cf_off_prio\000"
 17683      66665F70 
 17683      72696F00 
 17684              	.LASF73:
 17685 2374 5F666C61 		.ascii	"_flags2\000"
 17685      67733200 
 17686              	.LASF340:
 17687 237c 74696D65 		.ascii	"time_measurement_t\000"
 17687      5F6D6561 
 17687      73757265 
 17687      6D656E74 
 17687      5F7400
 17688              	.LASF674:
 17689 238f 6765745F 		.ascii	"get_info\000"
 17689      696E666F 
 17689      00
 17690              	.LASF465:
 17691 2398 61646365 		.ascii	"adcerror_t\000"
 17691      72726F72 
 17691      5F7400
 17692              	.LASF839:
 17693 23a3 6765745F 		.ascii	"get_descriptor_cb\000"
 17693      64657363 
 17693      72697074 
ARM GAS  /var/folders/qd/4mxf5pkd0zdf0b9dd1hp39180000gn/T//ccsf5yWP.s 			page 341


 17693      6F725F63 
 17693      6200
 17694              	.LASF82:
 17695 23b5 5F6C6F63 		.ascii	"_locale\000"
 17695      616C6500 
 17696              	.LASF170:
 17697 23bd 6576656E 		.ascii	"eventflags_t\000"
 17697      74666C61 
 17697      67735F74 
 17697      00
 17698              	.LASF678:
 17699 23ca 5350495F 		.ascii	"SPI_READY\000"
 17699      52454144 
 17699      5900
 17700              	.LASF264:
 17701 23d4 73464946 		.ascii	"sFIFOMailBox\000"
 17701      4F4D6169 
 17701      6C426F78 
 17701      00
 17702              	.LASF666:
 17703 23e1 6275735F 		.ascii	"bus_width\000"
 17703      77696474 
 17703      6800
 17704              	.LASF285:
 17705 23eb 44485238 		.ascii	"DHR8RD\000"
 17705      524400
 17706              	.LASF788:
 17707 23f2 4443544C 		.ascii	"DCTL\000"
 17707      00
 17708              	.LASF668:
 17709 23f7 53444344 		.ascii	"SDCDriverVMT\000"
 17709      72697665 
 17709      72564D54 
 17709      00
 17710              	.LASF814:
 17711 2404 74786275 		.ascii	"txbuf\000"
 17711      6600
 17712              	.LASF807:
 17713 240a 50434743 		.ascii	"PCGCCTL\000"
 17713      43544C00 
 17714              	.LASF725:
 17715 2412 5553425F 		.ascii	"USB_EVENT_WAKEUP\000"
 17715      4556454E 
 17715      545F5741 
 17715      4B455550 
 17715      00
 17716              	.LASF181:
 17717 2423 705F6F6C 		.ascii	"p_older\000"
 17717      64657200 
 17718              	.LASF420:
 17719 242b 424C4B5F 		.ascii	"BLK_SYNCING\000"
 17719      53594E43 
 17719      494E4700 
 17720              	.LASF450:
 17721 2437 50494461 		.ascii	"PIData\000"
 17721      746100
 17722              	.LASF836:
ARM GAS  /var/folders/qd/4mxf5pkd0zdf0b9dd1hp39180000gn/T//ccsf5yWP.s 			page 342


 17723 243e 73657475 		.ascii	"setup_buf\000"
 17723      705F6275 
 17723      6600
 17724              	.LASF770:
 17725 2448 72657376 		.ascii	"resvd34\000"
 17725      64333400 
 17726              	.LASF575:
 17727 2450 47505444 		.ascii	"GPTD6\000"
 17727      3600
 17728              	.LASF481:
 17729 2456 6572726F 		.ascii	"error_cb\000"
 17729      725F6362 
 17729      00
 17730              	.LASF416:
 17731 245f 424C4B5F 		.ascii	"BLK_DISCONNECTING\000"
 17731      44495343 
 17731      4F4E4E45 
 17731      4354494E 
 17731      4700
 17732              	.LASF897:
 17733 2471 636F6D70 		.ascii	"computeObjectDistance\000"
 17733      7574654F 
 17733      626A6563 
 17733      74446973 
 17733      74616E63 
 17734              	.LASF684:
 17735 2487 7373706F 		.ascii	"ssport\000"
 17735      727400
 17736              	.LASF197:
 17737 248e 74687265 		.ascii	"thread_reference_t\000"
 17737      61645F72 
 17737      65666572 
 17737      656E6365 
 17737      5F7400
 17738              	.LASF544:
 17739 24a1 65787063 		.ascii	"expchannel_t\000"
 17739      68616E6E 
 17739      656C5F74 
 17739      00
 17740              	.LASF690:
 17741 24ae 72656365 		.ascii	"receiving\000"
 17741      6976696E 
 17741      6700
 17742              	.LASF96:
 17743 24b8 5F5F4649 		.ascii	"__FILE\000"
 17743      4C4500
 17744              	.LASF571:
 17745 24bf 66726571 		.ascii	"frequency\000"
 17745      75656E63 
 17745      7900
 17746              	.LASF876:
 17747 24c9 44454352 		.ascii	"DECREASING\000"
 17747      45415349 
 17747      4E4700
 17748              	.LASF33:
 17749 24d4 5F736967 		.ascii	"_sign\000"
 17749      6E00
ARM GAS  /var/folders/qd/4mxf5pkd0zdf0b9dd1hp39180000gn/T//ccsf5yWP.s 			page 343


 17750              	.LASF833:
 17751 24da 696E5F73 		.ascii	"in_state\000"
 17751      74617465 
 17751      00
 17752              	.LASF38:
 17753 24e3 5F5F746D 		.ascii	"__tm_min\000"
 17753      5F6D696E 
 17753      00
 17754              	.LASF362:
 17755 24ec 63685F7A 		.ascii	"ch_zero\000"
 17755      65726F00 
 17756              	.LASF591:
 17757 24f4 46415354 		.ascii	"FAST_DUTY_CYCLE_2\000"
 17757      5F445554 
 17757      595F4359 
 17757      434C455F 
 17757      3200
 17758              	.LASF307:
 17759 2506 44435452 		.ascii	"DCTRL\000"
 17759      4C00
 17760              	.LASF367:
 17761 250c 63685F74 		.ascii	"ch_threadsize\000"
 17761      68726561 
 17761      6473697A 
 17761      6500
 17762              	.LASF296:
 17763 251a 464C5452 		.ascii	"FLTR\000"
 17763      00
 17764              	.LASF562:
 17765 251f 43434D52 		.ascii	"CCMR1\000"
 17765      3100
 17766              	.LASF563:
 17767 2525 43434D52 		.ascii	"CCMR2\000"
 17767      3200
 17768              	.LASF567:
 17769 252b 43434D52 		.ascii	"CCMR3\000"
 17769      3300
 17770              	.LASF2:
 17771 2531 756E7369 		.ascii	"unsigned int\000"
 17771      676E6564 
 17771      20696E74 
 17771      00
 17772              	.LASF485:
 17773 253e 73717232 		.ascii	"sqr2\000"
 17773      00
 17774              	.LASF486:
 17775 2543 73717233 		.ascii	"sqr3\000"
 17775      00
 17776              	.LASF110:
 17777 2548 5F723438 		.ascii	"_r48\000"
 17777      00
 17778              	.LASF777:
 17779 254d 48464952 		.ascii	"HFIR\000"
 17779      00
 17780              	.LASF707:
 17781 2552 5553425F 		.ascii	"USB_UNINIT\000"
 17781      554E494E 
ARM GAS  /var/folders/qd/4mxf5pkd0zdf0b9dd1hp39180000gn/T//ccsf5yWP.s 			page 344


 17781      495400
 17782              	.LASF405:
 17783 255d 73747265 		.ascii	"stream\000"
 17783      616D00
 17784              	.LASF488:
 17785 2564 64756D6D 		.ascii	"dummy\000"
 17785      7900
 17786              	.LASF589:
 17787 256a 6932636F 		.ascii	"i2copmode_t\000"
 17787      706D6F64 
 17787      655F7400 
 17788              	.LASF865:
 17789 2576 6D6F645F 		.ascii	"mod_mapping_getActualPosition\000"
 17789      6D617070 
 17789      696E675F 
 17789      67657441 
 17789      63747561 
 17790              	.LASF383:
 17791 2594 6576656E 		.ascii	"event_listener\000"
 17791      745F6C69 
 17791      7374656E 
 17791      657200
 17792              	.LASF10:
 17793 25a3 73686F72 		.ascii	"short int\000"
 17793      7420696E 
 17793      7400
 17794              	.LASF900:
 17795 25ad 636F6D70 		.ascii	"computeCoefDirecteur\000"
 17795      75746543 
 17795      6F656644 
 17795      69726563 
 17795      74657572 
 17796              	.LASF731:
 17797 25c2 75736263 		.ascii	"usbcallback_t\000"
 17797      616C6C62 
 17797      61636B5F 
 17797      7400
 17798              	.LASF62:
 17799 25d0 5F726561 		.ascii	"_read\000"
 17799      6400
 17800              	.LASF916:
 17801 25d6 73717274 		.ascii	"sqrt\000"
 17801      00
 17802              	.LASF760:
 17803 25db 47555342 		.ascii	"GUSBCFG\000"
 17803      43464700 
 17804              	.LASF320:
 17805 25e3 55534152 		.ascii	"USART_TypeDef\000"
 17805      545F5479 
 17805      70654465 
 17805      6600
 17806              	.LASF404:
 17807 25f1 6F757470 		.ascii	"output_queue_t\000"
 17807      75745F71 
 17807      75657565 
 17807      5F7400
 17808              	.LASF100:
ARM GAS  /var/folders/qd/4mxf5pkd0zdf0b9dd1hp39180000gn/T//ccsf5yWP.s 			page 345


 17809 2600 5F72616E 		.ascii	"_rand48\000"
 17809      64343800 
 17810              	.LASF809:
 17811 2608 73746D33 		.ascii	"stm32_otg_t\000"
 17811      325F6F74 
 17811      675F7400 
 17812              	.LASF612:
 17813 2614 49325344 		.ascii	"I2SDriver\000"
 17813      72697665 
 17813      7200
 17814              	.LASF596:
 17815 261e 64757479 		.ascii	"duty_cycle\000"
 17815      5F637963 
 17815      6C6500
 17816              	.LASF619:
 17817 2629 49325343 		.ascii	"I2SConfig\000"
 17817      6F6E6669 
 17817      6700
 17818              	.LASF728:
 17819 2633 75645F73 		.ascii	"ud_size\000"
 17819      697A6500 
 17820              	.LASF831:
 17821 263b 696E5F6D 		.ascii	"in_maxsize\000"
 17821      61787369 
 17821      7A6500
 17822              	.LASF447:
 17823 2646 50464461 		.ascii	"PFData\000"
 17823      746100
 17824              	.LASF540:
 17825 264d 4558545F 		.ascii	"EXT_STOP\000"
 17825      53544F50 
 17825      00
 17826              	.LASF184:
 17827 2656 705F7374 		.ascii	"p_state\000"
 17827      61746500 
 17828              	.LASF620:
 17829 265e 49325344 		.ascii	"I2SD2\000"
 17829      3200
 17830              	.LASF669:
 17831 2664 69735F69 		.ascii	"is_inserted\000"
 17831      6E736572 
 17831      74656400 
 17832              	.LASF199:
 17833 2670 63685F74 		.ascii	"ch_threads_list\000"
 17833      68726561 
 17833      64735F6C 
 17833      69737400 
 17834              	.LASF308:
 17835 2680 44434F55 		.ascii	"DCOUNT\000"
 17835      4E5400
 17836              	.LASF293:
 17837 2687 4F415231 		.ascii	"OAR1\000"
 17837      00
 17838              	.LASF294:
 17839 268c 4F415232 		.ascii	"OAR2\000"
 17839      00
 17840              	.LASF196:
ARM GAS  /var/folders/qd/4mxf5pkd0zdf0b9dd1hp39180000gn/T//ccsf5yWP.s 			page 346


 17841 2691 705F7374 		.ascii	"p_stats\000"
 17841      61747300 
 17842              	.LASF712:
 17843 2699 75736273 		.ascii	"usbstate_t\000"
 17843      74617465 
 17843      5F7400
 17844              		.ident	"GCC: (GNU Tools for Arm Embedded Processors 7-2017-q4-major) 7.2.1 20170904 (release) [ARM
ARM GAS  /var/folders/qd/4mxf5pkd0zdf0b9dd1hp39180000gn/T//ccsf5yWP.s 			page 347


DEFINED SYMBOLS
                            *ABS*:0000000000000000 mod_mapping.c
/var/folders/qd/4mxf5pkd0zdf0b9dd1hp39180000gn/T//ccsf5yWP.s:18     .text.checkAngle:0000000000000000 $t
/var/folders/qd/4mxf5pkd0zdf0b9dd1hp39180000gn/T//ccsf5yWP.s:26     .text.checkAngle:0000000000000000 checkAngle
/var/folders/qd/4mxf5pkd0zdf0b9dd1hp39180000gn/T//ccsf5yWP.s:90     .text.checkAngle:0000000000000060 $d
/var/folders/qd/4mxf5pkd0zdf0b9dd1hp39180000gn/T//ccsf5yWP.s:102    .text.newAbsolutePositionWheelSpeedType:0000000000000000 $t
/var/folders/qd/4mxf5pkd0zdf0b9dd1hp39180000gn/T//ccsf5yWP.s:110    .text.newAbsolutePositionWheelSpeedType:0000000000000000 newAbsolutePositionWheelSpeedType
/var/folders/qd/4mxf5pkd0zdf0b9dd1hp39180000gn/T//ccsf5yWP.s:309    .text.newAbsolutePositionWheelSpeedType:0000000000000144 $d
/var/folders/qd/4mxf5pkd0zdf0b9dd1hp39180000gn/T//ccsf5yWP.s:318    .text.measurementToPoint:0000000000000000 $t
/var/folders/qd/4mxf5pkd0zdf0b9dd1hp39180000gn/T//ccsf5yWP.s:326    .text.measurementToPoint:0000000000000000 measurementToPoint
/var/folders/qd/4mxf5pkd0zdf0b9dd1hp39180000gn/T//ccsf5yWP.s:465    .text.measurementToPoint:00000000000000d4 $d
/var/folders/qd/4mxf5pkd0zdf0b9dd1hp39180000gn/T//ccsf5yWP.s:472    .text.moveOrigin:0000000000000000 $t
/var/folders/qd/4mxf5pkd0zdf0b9dd1hp39180000gn/T//ccsf5yWP.s:480    .text.moveOrigin:0000000000000000 moveOrigin
/var/folders/qd/4mxf5pkd0zdf0b9dd1hp39180000gn/T//ccsf5yWP.s:698    .text.moveOrigin:000000000000016c $d
/var/folders/qd/4mxf5pkd0zdf0b9dd1hp39180000gn/T//ccsf5yWP.s:706    .text.computeCoefDirecteur:0000000000000000 $t
/var/folders/qd/4mxf5pkd0zdf0b9dd1hp39180000gn/T//ccsf5yWP.s:714    .text.computeCoefDirecteur:0000000000000000 computeCoefDirecteur
/var/folders/qd/4mxf5pkd0zdf0b9dd1hp39180000gn/T//ccsf5yWP.s:864    .text.computeCoefDirecteur:00000000000000c8 $d
/var/folders/qd/4mxf5pkd0zdf0b9dd1hp39180000gn/T//ccsf5yWP.s:871    .text.computeObjectDistance:0000000000000000 $t
/var/folders/qd/4mxf5pkd0zdf0b9dd1hp39180000gn/T//ccsf5yWP.s:879    .text.computeObjectDistance:0000000000000000 computeObjectDistance
/var/folders/qd/4mxf5pkd0zdf0b9dd1hp39180000gn/T//ccsf5yWP.s:942    .text.computeObjectDistance:000000000000004c $d
/var/folders/qd/4mxf5pkd0zdf0b9dd1hp39180000gn/T//ccsf5yWP.s:947    .text.checkIfPointObjectInCircle:0000000000000000 $t
/var/folders/qd/4mxf5pkd0zdf0b9dd1hp39180000gn/T//ccsf5yWP.s:955    .text.checkIfPointObjectInCircle:0000000000000000 checkIfPointObjectInCircle
/var/folders/qd/4mxf5pkd0zdf0b9dd1hp39180000gn/T//ccsf5yWP.s:1014   .text.checkIfPointObjectInCircle:0000000000000040 $d
/var/folders/qd/4mxf5pkd0zdf0b9dd1hp39180000gn/T//ccsf5yWP.s:1019   .text.checkIfObjectExists:0000000000000000 $t
/var/folders/qd/4mxf5pkd0zdf0b9dd1hp39180000gn/T//ccsf5yWP.s:1027   .text.checkIfObjectExists:0000000000000000 checkIfObjectExists
/var/folders/qd/4mxf5pkd0zdf0b9dd1hp39180000gn/T//ccsf5yWP.s:1145   .text.checkIfObjectExists:000000000000006c $d
/var/folders/qd/4mxf5pkd0zdf0b9dd1hp39180000gn/T//ccsf5yWP.s:1152   .text.isNear:0000000000000000 $t
/var/folders/qd/4mxf5pkd0zdf0b9dd1hp39180000gn/T//ccsf5yWP.s:1160   .text.isNear:0000000000000000 isNear
/var/folders/qd/4mxf5pkd0zdf0b9dd1hp39180000gn/T//ccsf5yWP.s:1231   .text.isNear:0000000000000054 $d
/var/folders/qd/4mxf5pkd0zdf0b9dd1hp39180000gn/T//ccsf5yWP.s:1237   .text.mod_mapping_init:0000000000000000 $t
/var/folders/qd/4mxf5pkd0zdf0b9dd1hp39180000gn/T//ccsf5yWP.s:1245   .text.mod_mapping_init:0000000000000000 mod_mapping_init
/var/folders/qd/4mxf5pkd0zdf0b9dd1hp39180000gn/T//ccsf5yWP.s:1320   .text.mod_mapping_init:000000000000003c $d
/var/folders/qd/4mxf5pkd0zdf0b9dd1hp39180000gn/T//ccsf5yWP.s:1327   .text.mod_mapping_resetCoordinates:0000000000000000 $t
/var/folders/qd/4mxf5pkd0zdf0b9dd1hp39180000gn/T//ccsf5yWP.s:1335   .text.mod_mapping_resetCoordinates:0000000000000000 mod_mapping_resetCoordinates
/var/folders/qd/4mxf5pkd0zdf0b9dd1hp39180000gn/T//ccsf5yWP.s:1380   .text.mod_mapping_resetCoordinates:0000000000000028 $d
/var/folders/qd/4mxf5pkd0zdf0b9dd1hp39180000gn/T//ccsf5yWP.s:1386   .text.mod_mapping_updatePositionWheelSpeedType:0000000000000000 $t
/var/folders/qd/4mxf5pkd0zdf0b9dd1hp39180000gn/T//ccsf5yWP.s:1394   .text.mod_mapping_updatePositionWheelSpeedType:0000000000000000 mod_mapping_updatePositionWheelSpeedType
/var/folders/qd/4mxf5pkd0zdf0b9dd1hp39180000gn/T//ccsf5yWP.s:1464   .text.mod_mapping_updatePositionWheelSpeedType:0000000000000054 $d
/var/folders/qd/4mxf5pkd0zdf0b9dd1hp39180000gn/T//ccsf5yWP.s:1472   .text.mod_mapping_computeWallLocation:0000000000000000 $t
/var/folders/qd/4mxf5pkd0zdf0b9dd1hp39180000gn/T//ccsf5yWP.s:1480   .text.mod_mapping_computeWallLocation:0000000000000000 mod_mapping_computeWallLocation
/var/folders/qd/4mxf5pkd0zdf0b9dd1hp39180000gn/T//ccsf5yWP.s:2015   .text.mod_mapping_computeWallLocation:000000000000034c $d
/var/folders/qd/4mxf5pkd0zdf0b9dd1hp39180000gn/T//ccsf5yWP.s:2021   .text.mod_mapping_computeWallLocation:000000000000035c $t
/var/folders/qd/4mxf5pkd0zdf0b9dd1hp39180000gn/T//ccsf5yWP.s:2027   .text.mod_mapping_getRobotDisplacement:0000000000000000 $t
/var/folders/qd/4mxf5pkd0zdf0b9dd1hp39180000gn/T//ccsf5yWP.s:2035   .text.mod_mapping_getRobotDisplacement:0000000000000000 mod_mapping_getRobotDisplacement
/var/folders/qd/4mxf5pkd0zdf0b9dd1hp39180000gn/T//ccsf5yWP.s:2222   .text.mod_mapping_getRobotDisplacement:0000000000000124 $d
/var/folders/qd/4mxf5pkd0zdf0b9dd1hp39180000gn/T//ccsf5yWP.s:2235   .text.mod_mapping_getActualPosition:0000000000000000 $t
/var/folders/qd/4mxf5pkd0zdf0b9dd1hp39180000gn/T//ccsf5yWP.s:2243   .text.mod_mapping_getActualPosition:0000000000000000 mod_mapping_getActualPosition
/var/folders/qd/4mxf5pkd0zdf0b9dd1hp39180000gn/T//ccsf5yWP.s:2289   .text.mod_mapping_getActualPosition:0000000000000028 $d
/var/folders/qd/4mxf5pkd0zdf0b9dd1hp39180000gn/T//ccsf5yWP.s:2295   .text.mod_mapping_getRelativeAngle:0000000000000000 $t
/var/folders/qd/4mxf5pkd0zdf0b9dd1hp39180000gn/T//ccsf5yWP.s:2303   .text.mod_mapping_getRelativeAngle:0000000000000000 mod_mapping_getRelativeAngle
/var/folders/qd/4mxf5pkd0zdf0b9dd1hp39180000gn/T//ccsf5yWP.s:2378   .text.mod_mapping_getRelativeAngle:0000000000000074 $d
/var/folders/qd/4mxf5pkd0zdf0b9dd1hp39180000gn/T//ccsf5yWP.s:2388   .text.mod_mapping_checkEnvironment:0000000000000000 $t
/var/folders/qd/4mxf5pkd0zdf0b9dd1hp39180000gn/T//ccsf5yWP.s:2396   .text.mod_mapping_checkEnvironment:0000000000000000 mod_mapping_checkEnvironment
/var/folders/qd/4mxf5pkd0zdf0b9dd1hp39180000gn/T//ccsf5yWP.s:2722   .text.mod_mapping_checkEnvironment:00000000000001c8 $d
/var/folders/qd/4mxf5pkd0zdf0b9dd1hp39180000gn/T//ccsf5yWP.s:2732   .text.mod_mapping_computeDistanceForPicture:0000000000000000 $t
/var/folders/qd/4mxf5pkd0zdf0b9dd1hp39180000gn/T//ccsf5yWP.s:2740   .text.mod_mapping_computeDistanceForPicture:0000000000000000 mod_mapping_computeDistanceForPicture
/var/folders/qd/4mxf5pkd0zdf0b9dd1hp39180000gn/T//ccsf5yWP.s:2812   .text.mod_mapping_computeDistanceForPicture:000000000000004c $d
ARM GAS  /var/folders/qd/4mxf5pkd0zdf0b9dd1hp39180000gn/T//ccsf5yWP.s 			page 348


/var/folders/qd/4mxf5pkd0zdf0b9dd1hp39180000gn/T//ccsf5yWP.s:2818   .text.mod_mapping_getAreaCenter:0000000000000000 $t
/var/folders/qd/4mxf5pkd0zdf0b9dd1hp39180000gn/T//ccsf5yWP.s:2826   .text.mod_mapping_getAreaCenter:0000000000000000 mod_mapping_getAreaCenter
/var/folders/qd/4mxf5pkd0zdf0b9dd1hp39180000gn/T//ccsf5yWP.s:2878   .text.mod_mapping_getAreaCenter:0000000000000030 $d
/var/folders/qd/4mxf5pkd0zdf0b9dd1hp39180000gn/T//ccsf5yWP.s:2884   .text.mod_mapping_checkEnvironmentRobotReferencial:0000000000000000 $t
/var/folders/qd/4mxf5pkd0zdf0b9dd1hp39180000gn/T//ccsf5yWP.s:2892   .text.mod_mapping_checkEnvironmentRobotReferencial:0000000000000000 mod_mapping_checkEnvironmentRobotReferencial
/var/folders/qd/4mxf5pkd0zdf0b9dd1hp39180000gn/T//ccsf5yWP.s:3087   .text.mod_mapping_checkEnvironmentRobotReferencial:00000000000000ec $d
/var/folders/qd/4mxf5pkd0zdf0b9dd1hp39180000gn/T//ccsf5yWP.s:3097   .text.mod_mapping_computeDistanceForPictureRobotReferencial:0000000000000000 $t
/var/folders/qd/4mxf5pkd0zdf0b9dd1hp39180000gn/T//ccsf5yWP.s:3105   .text.mod_mapping_computeDistanceForPictureRobotReferencial:0000000000000000 mod_mapping_computeDistanceForPictureRobotReferencial
/var/folders/qd/4mxf5pkd0zdf0b9dd1hp39180000gn/T//ccsf5yWP.s:3143   .text.mod_mapping_computeDistanceForPictureRobotReferencial:0000000000000020 $d
/var/folders/qd/4mxf5pkd0zdf0b9dd1hp39180000gn/T//ccsf5yWP.s:3170   .bss.objectListSize:0000000000000000 objectListSize
/var/folders/qd/4mxf5pkd0zdf0b9dd1hp39180000gn/T//ccsf5yWP.s:3163   .bss.objectList:0000000000000000 objectList
/var/folders/qd/4mxf5pkd0zdf0b9dd1hp39180000gn/T//ccsf5yWP.s:3156   .bss.environment:0000000000000000 environment
/var/folders/qd/4mxf5pkd0zdf0b9dd1hp39180000gn/T//ccsf5yWP.s:3184   .bss.wall:0000000000000000 wall
/var/folders/qd/4mxf5pkd0zdf0b9dd1hp39180000gn/T//ccsf5yWP.s:3152   .bss.environment:0000000000000000 $d
/var/folders/qd/4mxf5pkd0zdf0b9dd1hp39180000gn/T//ccsf5yWP.s:3159   .bss.objectList:0000000000000000 $d
/var/folders/qd/4mxf5pkd0zdf0b9dd1hp39180000gn/T//ccsf5yWP.s:3166   .bss.objectListSize:0000000000000000 $d
/var/folders/qd/4mxf5pkd0zdf0b9dd1hp39180000gn/T//ccsf5yWP.s:3173   .bss.robotActualPosition:0000000000000000 $d
/var/folders/qd/4mxf5pkd0zdf0b9dd1hp39180000gn/T//ccsf5yWP.s:3177   .bss.robotActualPosition:0000000000000000 robotActualPosition
/var/folders/qd/4mxf5pkd0zdf0b9dd1hp39180000gn/T//ccsf5yWP.s:3180   .bss.wall:0000000000000000 $d
/var/folders/qd/4mxf5pkd0zdf0b9dd1hp39180000gn/T//ccsf5yWP.s:3187   .data.lastStepObjectDistance.12068:0000000000000000 $d
/var/folders/qd/4mxf5pkd0zdf0b9dd1hp39180000gn/T//ccsf5yWP.s:3191   .data.lastStepObjectDistance.12068:0000000000000000 lastStepObjectDistance.12068
/var/folders/qd/4mxf5pkd0zdf0b9dd1hp39180000gn/T//ccsf5yWP.s:3194   .rodata.computeCoefDirecteur.str1.4:0000000000000000 $d
/var/folders/qd/4mxf5pkd0zdf0b9dd1hp39180000gn/T//ccsf5yWP.s:3198   .rodata.measurementToPoint.str1.4:0000000000000000 $d
/var/folders/qd/4mxf5pkd0zdf0b9dd1hp39180000gn/T//ccsf5yWP.s:3202   .rodata.mod_mapping_checkEnvironment.str1.4:0000000000000000 $d
/var/folders/qd/4mxf5pkd0zdf0b9dd1hp39180000gn/T//ccsf5yWP.s:3206   .rodata.mod_mapping_computeDistanceForPicture.str1.4:0000000000000000 $d
/var/folders/qd/4mxf5pkd0zdf0b9dd1hp39180000gn/T//ccsf5yWP.s:3210   .rodata.mod_mapping_computeWallLocation.str1.4:0000000000000000 $d
/var/folders/qd/4mxf5pkd0zdf0b9dd1hp39180000gn/T//ccsf5yWP.s:3214   .rodata.mod_mapping_getRobotDisplacement.str1.4:0000000000000000 $d
/var/folders/qd/4mxf5pkd0zdf0b9dd1hp39180000gn/T//ccsf5yWP.s:3221   .rodata.mod_mapping_updatePositionWheelSpeedType.str1.4:0000000000000000 $d
/var/folders/qd/4mxf5pkd0zdf0b9dd1hp39180000gn/T//ccsf5yWP.s:3225   .rodata.moveOrigin.str1.4:0000000000000000 $d

UNDEFINED SYMBOLS
__stack_chk_fail
__stack_chk_guard
__aeabi_f2d
__aeabi_i2d
__aeabi_dmul
__aeabi_ddiv
__aeabi_dadd
__aeabi_d2iz
cos
sin
sprintf
mod_com_writeMessage
__aeabi_dsub
sqrt
malloc
assert
__aeabi_d2f
realloc
free
atan
