ARM GAS  /var/folders/qd/4mxf5pkd0zdf0b9dd1hp39180000gn/T//ccMoop15.s 			page 1


   1              		.cpu cortex-m4
   2              		.eabi_attribute 27, 1
   3              		.eabi_attribute 28, 1
   4              		.eabi_attribute 20, 1
   5              		.eabi_attribute 21, 1
   6              		.eabi_attribute 23, 3
   7              		.eabi_attribute 24, 1
   8              		.eabi_attribute 25, 1
   9              		.eabi_attribute 26, 1
  10              		.eabi_attribute 30, 2
  11              		.eabi_attribute 34, 1
  12              		.eabi_attribute 18, 4
  13              		.file	"mod_audio.c"
  14              		.text
  15              	.Ltext0:
  16              		.cfi_sections	.debug_frame
  17              		.section	.text.mod_audio_emitSound,"ax",%progbits
  18              		.align	1
  19              		.p2align 4,,15
  20              		.global	mod_audio_emitSound
  21              		.syntax unified
  22              		.thumb
  23              		.thumb_func
  24              		.fpu fpv4-sp-d16
  25              		.type	mod_audio_emitSound, %function
  26              	mod_audio_emitSound:
  27              	.LFB256:
  28              		.file 1 "./modules/mod_audio.c"
  29              		.loc 1 14 0
  30              		.cfi_startproc
  31              		@ args = 0, pretend = 0, frame = 8
  32              		@ frame_needed = 0, uses_anonymous_args = 0
  33 0000 10B5     		push	{r4, lr}
  34              		.cfi_def_cfa_offset 8
  35              		.cfi_offset 4, -8
  36              		.cfi_offset 14, -4
  37 0002 0C4C     		ldr	r4, .L7
  38 0004 82B0     		sub	sp, sp, #8
  39              		.cfi_def_cfa_offset 16
  40              		.loc 1 14 0
  41 0006 2368     		ldr	r3, [r4]
  42 0008 0193     		str	r3, [sp, #4]
  43              		.loc 1 15 0
  44 000a FFF7FEFF 		bl	play_melody_start
  45              	.LVL0:
  46              		.loc 1 16 0
  47 000e 4FF4FA70 		mov	r0, #500
  48 0012 FFF7FEFF 		bl	chThdSleep
  49              	.LVL1:
  50              		.loc 1 17 0
  51 0016 019A     		ldr	r2, [sp, #4]
  52 0018 2368     		ldr	r3, [r4]
  53 001a 9A42     		cmp	r2, r3
  54 001c 07D1     		bne	.L6
  55 001e 4FF47A71 		mov	r1, #1000
  56 0022 1F20     		movs	r0, #31
  57              		.loc 1 18 0
ARM GAS  /var/folders/qd/4mxf5pkd0zdf0b9dd1hp39180000gn/T//ccMoop15.s 			page 2


  58 0024 02B0     		add	sp, sp, #8
  59              		.cfi_remember_state
  60              		.cfi_def_cfa_offset 8
  61              		@ sp needed
  62 0026 BDE81040 		pop	{r4, lr}
  63              		.cfi_restore 14
  64              		.cfi_restore 4
  65              		.cfi_def_cfa_offset 0
  66              		.loc 1 17 0
  67 002a FFF7FEBF 		b	play_note
  68              	.LVL2:
  69              	.L6:
  70              		.cfi_restore_state
  71 002e FFF7FEFF 		bl	__stack_chk_fail
  72              	.LVL3:
  73              	.L8:
  74 0032 00BF     		.align	2
  75              	.L7:
  76 0034 00000000 		.word	__stack_chk_guard
  77              		.cfi_endproc
  78              	.LFE256:
  79              		.size	mod_audio_emitSound, .-mod_audio_emitSound
  80              		.text
  81              	.Letext0:
  82              		.file 2 "/Applications/Eclipse_e-puck2.app/Contents/Eclipse_e-puck2/Tools/gcc-arm-none-eabi-7-2017
  83              		.file 3 "/Applications/Eclipse_e-puck2.app/Contents/Eclipse_e-puck2/Tools/gcc-arm-none-eabi-7-2017
  84              		.file 4 "/Applications/Eclipse_e-puck2.app/Contents/Eclipse_e-puck2/Tools/gcc-arm-none-eabi-7-2017
  85              		.file 5 "lib/e-puck2_main-processor/ChibiOS//os/rt/ports/ARMCMx/compilers/GCC/chtypes.h"
  86              		.file 6 "lib/e-puck2_main-processor/ChibiOS//os/rt/include/chsystypes.h"
  87              		.file 7 "lib/e-puck2_main-processor/ChibiOS//os/rt/include/chschd.h"
  88              		.file 8 "lib/e-puck2_main-processor/ChibiOS//os/ext/CMSIS/include/core_cm4.h"
  89              		.file 9 "lib/e-puck2_main-processor/ChibiOS//os/ext/CMSIS/ST/system_stm32f4xx.h"
  90              		.file 10 "lib/e-puck2_main-processor/ChibiOS//os/ext/CMSIS/ST/stm32f407xx.h"
  91              		.file 11 "lib/e-puck2_main-processor/ChibiOS//os/rt/ports/ARMCMx/chcore.h"
  92              		.file 12 "lib/e-puck2_main-processor/ChibiOS//os/rt/ports/ARMCMx/chcore_v7m.h"
  93              		.file 13 "lib/e-puck2_main-processor/ChibiOS//os/rt/include/chdebug.h"
  94              		.file 14 "lib/e-puck2_main-processor/ChibiOS//os/rt/include/chtm.h"
  95              		.file 15 "lib/e-puck2_main-processor/ChibiOS//os/rt/include/chstats.h"
  96              		.file 16 "lib/e-puck2_main-processor/ChibiOS//os/rt/include/chsem.h"
  97              		.file 17 "lib/e-puck2_main-processor/ChibiOS//os/rt/include/chmtx.h"
  98              		.file 18 "lib/e-puck2_main-processor/ChibiOS//os/rt/include/chregistry.h"
  99              		.file 19 "lib/e-puck2_main-processor/ChibiOS//os/rt/include/chevents.h"
 100              		.file 20 "lib/e-puck2_main-processor/ChibiOS//os/rt/include/chqueues.h"
 101              		.file 21 "lib/e-puck2_main-processor/ChibiOS//os/hal/ports/STM32/STM32F4xx/stm32_dma.h"
 102              		.file 22 "lib/e-puck2_main-processor/ChibiOS//os/hal/include/hal_ioblock.h"
 103              		.file 23 "lib/e-puck2_main-processor/ChibiOS//os/hal/ports/STM32/LLD/GPIOv2/pal_lld.h"
 104              		.file 24 "lib/e-puck2_main-processor/ChibiOS//os/hal/include/adc.h"
 105              		.file 25 "lib/e-puck2_main-processor/ChibiOS//os/hal/ports/STM32/STM32F4xx/adc_lld.h"
 106              		.file 26 "lib/e-puck2_main-processor/ChibiOS//os/hal/include/can.h"
 107              		.file 27 "lib/e-puck2_main-processor/ChibiOS//os/hal/ports/STM32/LLD/can_lld.h"
 108              		.file 28 "lib/e-puck2_main-processor/ChibiOS//os/hal/include/dac.h"
 109              		.file 29 "lib/e-puck2_main-processor/ChibiOS//os/hal/ports/STM32/LLD/DACv1/dac_lld.h"
 110              		.file 30 "lib/e-puck2_main-processor/ChibiOS//os/hal/include/ext.h"
 111              		.file 31 "lib/e-puck2_main-processor/ChibiOS//os/hal/ports/STM32/LLD/ext_lld.h"
 112              		.file 32 "lib/e-puck2_main-processor/ChibiOS//os/hal/include/gpt.h"
 113              		.file 33 "lib/e-puck2_main-processor/ChibiOS//os/hal/ports/STM32/LLD/TIMv1/gpt_lld.h"
 114              		.file 34 "lib/e-puck2_main-processor/ChibiOS//os/hal/ports/STM32/LLD/TIMv1/stm32_tim.h"
ARM GAS  /var/folders/qd/4mxf5pkd0zdf0b9dd1hp39180000gn/T//ccMoop15.s 			page 3


 115              		.file 35 "lib/e-puck2_main-processor/ChibiOS//os/hal/include/i2c.h"
 116              		.file 36 "lib/e-puck2_main-processor/ChibiOS//os/hal/ports/STM32/LLD/I2Cv1/i2c_lld.h"
 117              		.file 37 "lib/e-puck2_main-processor/ChibiOS//os/hal/include/i2s.h"
 118              		.file 38 "lib/e-puck2_main-processor/ChibiOS//os/hal/ports/STM32/LLD/SPIv1/i2s_lld.h"
 119              		.file 39 "lib/e-puck2_main-processor/ChibiOS//os/hal/include/pwm.h"
 120              		.file 40 "lib/e-puck2_main-processor/ChibiOS//os/hal/ports/STM32/LLD/TIMv1/pwm_lld.h"
 121              		.file 41 "lib/e-puck2_main-processor/ChibiOS//os/hal/include/serial.h"
 122              		.file 42 "lib/e-puck2_main-processor/ChibiOS//os/hal/ports/STM32/LLD/USARTv1/serial_lld.h"
 123              		.file 43 "lib/e-puck2_main-processor/ChibiOS//os/hal/include/sdc.h"
 124              		.file 44 "lib/e-puck2_main-processor/ChibiOS//os/hal/ports/STM32/LLD/sdc_lld.h"
 125              		.file 45 "lib/e-puck2_main-processor/ChibiOS//os/hal/include/spi.h"
 126              		.file 46 "lib/e-puck2_main-processor/ChibiOS//os/hal/ports/STM32/LLD/SPIv1/spi_lld.h"
 127              		.file 47 "lib/e-puck2_main-processor/ChibiOS//os/hal/include/usb.h"
 128              		.file 48 "lib/e-puck2_main-processor/ChibiOS//os/hal/ports/STM32/LLD/OTGv1/usb_lld.h"
 129              		.file 49 "lib/e-puck2_main-processor/ChibiOS//os/hal/ports/STM32/LLD/OTGv1/stm32_otg.h"
 130              		.file 50 "lib/e-puck2_main-processor/src/audio/play_melody.h"
 131              		.file 51 "lib/e-puck2_main-processor/ChibiOS//os/rt/include/chthreads.h"