ARM GAS  /var/folders/qd/4mxf5pkd0zdf0b9dd1hp39180000gn/T//ccnjdtku.s 			page 1


   1              		.cpu cortex-m4
   2              		.eabi_attribute 27, 1
   3              		.eabi_attribute 28, 1
   4              		.eabi_attribute 20, 1
   5              		.eabi_attribute 21, 1
   6              		.eabi_attribute 23, 3
   7              		.eabi_attribute 24, 1
   8              		.eabi_attribute 25, 1
   9              		.eabi_attribute 26, 1
  10              		.eabi_attribute 30, 2
  11              		.eabi_attribute 34, 1
  12              		.eabi_attribute 18, 4
  13              		.file	"mod_exploration.c"
  14              		.text
  15              	.Ltext0:
  16              		.cfi_sections	.debug_frame
  17              		.section	.text.mod_explo_discoverArea,"ax",%progbits
  18              		.align	1
  19              		.p2align 4,,15
  20              		.global	mod_explo_discoverArea
  21              		.syntax unified
  22              		.thumb
  23              		.thumb_func
  24              		.fpu fpv4-sp-d16
  25              		.type	mod_explo_discoverArea, %function
  26              	mod_explo_discoverArea:
  27              	.LFB0:
  28              		.file 1 "./modules/mod_exploration.c"
  29              		.loc 1 18 0
  30              		.cfi_startproc
  31              		@ args = 0, pretend = 0, frame = 8
  32              		@ frame_needed = 0, uses_anonymous_args = 0
  33 0000 00B5     		push	{lr}
  34              		.cfi_def_cfa_offset 4
  35              		.cfi_offset 14, -4
  36 0002 064B     		ldr	r3, .L6
  37 0004 83B0     		sub	sp, sp, #12
  38              		.cfi_def_cfa_offset 16
  39              		.loc 1 18 0
  40 0006 1A68     		ldr	r2, [r3]
  41 0008 0192     		str	r2, [sp, #4]
  42              		.loc 1 21 0
  43 000a 019A     		ldr	r2, [sp, #4]
  44 000c 1B68     		ldr	r3, [r3]
  45 000e 9A42     		cmp	r2, r3
  46 0010 02D1     		bne	.L5
  47 0012 03B0     		add	sp, sp, #12
  48              		.cfi_remember_state
  49              		.cfi_def_cfa_offset 4
  50              		@ sp needed
  51 0014 5DF804FB 		ldr	pc, [sp], #4
  52              	.L5:
  53              		.cfi_restore_state
  54 0018 FFF7FEFF 		bl	__stack_chk_fail
  55              	.LVL0:
  56              	.L7:
  57              		.align	2
ARM GAS  /var/folders/qd/4mxf5pkd0zdf0b9dd1hp39180000gn/T//ccnjdtku.s 			page 2


  58              	.L6:
  59 001c 00000000 		.word	__stack_chk_guard
  60              		.cfi_endproc
  61              	.LFE0:
  62              		.size	mod_explo_discoverArea, .-mod_explo_discoverArea
  63              		.section	.text.mod_explo_exploreArea,"ax",%progbits
  64              		.align	1
  65              		.p2align 4,,15
  66              		.global	mod_explo_exploreArea
  67              		.syntax unified
  68              		.thumb
  69              		.thumb_func
  70              		.fpu fpv4-sp-d16
  71              		.type	mod_explo_exploreArea, %function
  72              	mod_explo_exploreArea:
  73              	.LFB4:
  74              		.cfi_startproc
  75              		@ args = 0, pretend = 0, frame = 8
  76              		@ frame_needed = 0, uses_anonymous_args = 0
  77 0000 00B5     		push	{lr}
  78              		.cfi_def_cfa_offset 4
  79              		.cfi_offset 14, -4
  80 0002 064B     		ldr	r3, .L12
  81 0004 83B0     		sub	sp, sp, #12
  82              		.cfi_def_cfa_offset 16
  83 0006 1A68     		ldr	r2, [r3]
  84 0008 0192     		str	r2, [sp, #4]
  85 000a 019A     		ldr	r2, [sp, #4]
  86 000c 1B68     		ldr	r3, [r3]
  87 000e 9A42     		cmp	r2, r3
  88 0010 02D1     		bne	.L11
  89 0012 03B0     		add	sp, sp, #12
  90              		.cfi_remember_state
  91              		.cfi_def_cfa_offset 4
  92              		@ sp needed
  93 0014 5DF804FB 		ldr	pc, [sp], #4
  94              	.L11:
  95              		.cfi_restore_state
  96 0018 FFF7FEFF 		bl	__stack_chk_fail
  97              	.L13:
  98              		.align	2
  99              	.L12:
 100 001c 00000000 		.word	__stack_chk_guard
 101              		.cfi_endproc
 102              	.LFE4:
 103              		.size	mod_explo_exploreArea, .-mod_explo_exploreArea
 104              		.section	.text.mod_explo_sortArea,"ax",%progbits
 105              		.align	1
 106              		.p2align 4,,15
 107              		.global	mod_explo_sortArea
 108              		.syntax unified
 109              		.thumb
 110              		.thumb_func
 111              		.fpu fpv4-sp-d16
 112              		.type	mod_explo_sortArea, %function
 113              	mod_explo_sortArea:
 114              	.LFB6:
ARM GAS  /var/folders/qd/4mxf5pkd0zdf0b9dd1hp39180000gn/T//ccnjdtku.s 			page 3


 115              		.cfi_startproc
 116              		@ args = 0, pretend = 0, frame = 8
 117              		@ frame_needed = 0, uses_anonymous_args = 0
 118 0000 00B5     		push	{lr}
 119              		.cfi_def_cfa_offset 4
 120              		.cfi_offset 14, -4
 121 0002 064B     		ldr	r3, .L18
 122 0004 83B0     		sub	sp, sp, #12
 123              		.cfi_def_cfa_offset 16
 124 0006 1A68     		ldr	r2, [r3]
 125 0008 0192     		str	r2, [sp, #4]
 126 000a 019A     		ldr	r2, [sp, #4]
 127 000c 1B68     		ldr	r3, [r3]
 128 000e 9A42     		cmp	r2, r3
 129 0010 02D1     		bne	.L17
 130 0012 03B0     		add	sp, sp, #12
 131              		.cfi_remember_state
 132              		.cfi_def_cfa_offset 4
 133              		@ sp needed
 134 0014 5DF804FB 		ldr	pc, [sp], #4
 135              	.L17:
 136              		.cfi_restore_state
 137 0018 FFF7FEFF 		bl	__stack_chk_fail
 138              	.L19:
 139              		.align	2
 140              	.L18:
 141 001c 00000000 		.word	__stack_chk_guard
 142              		.cfi_endproc
 143              	.LFE6:
 144              		.size	mod_explo_sortArea, .-mod_explo_sortArea
 145              		.text
 146              	.Letext0:
 147              		.section	.debug_info,"",%progbits
 148              	.Ldebug_info0:
 149 0000 65000000 		.4byte	0x65
 150 0004 0400     		.2byte	0x4
 151 0006 00000000 		.4byte	.Ldebug_abbrev0
 152 000a 04       		.byte	0x4
 153 000b 01       		.uleb128 0x1
 154 000c 13000000 		.4byte	.LASF2
 155 0010 0C       		.byte	0xc
 156 0011 CF010000 		.4byte	.LASF3
 157 0015 57010000 		.4byte	.LASF4
 158 0019 00000000 		.4byte	.Ldebug_ranges0+0
 159 001d 00000000 		.4byte	0
 160 0021 00000000 		.4byte	.Ldebug_line0
 161 0025 02       		.uleb128 0x2
 162 0026 01       		.byte	0x1
 163 0027 08       		.byte	0x8
 164 0028 01020000 		.4byte	.LASF5
 165 002c 03       		.uleb128 0x3
 166 002d 00000000 		.4byte	.LASF0
 167 0031 01       		.byte	0x1
 168 0032 1C       		.byte	0x1c
 169 0033 03       		.uleb128 0x3
 170 0034 EB010000 		.4byte	.LASF1
 171 0038 01       		.byte	0x1
ARM GAS  /var/folders/qd/4mxf5pkd0zdf0b9dd1hp39180000gn/T//ccnjdtku.s 			page 4


 172 0039 17       		.byte	0x17
 173 003a 04       		.uleb128 0x4
 174 003b B8010000 		.4byte	.LASF6
 175 003f 01       		.byte	0x1
 176 0040 12       		.byte	0x12
 177 0041 01       		.byte	0x1
 178 0042 05       		.uleb128 0x5
 179 0043 3A000000 		.4byte	0x3a
 180 0047 00000000 		.4byte	.LFB0
 181 004b 20000000 		.4byte	.LFE0-.LFB0
 182 004f 01       		.uleb128 0x1
 183 0050 9C       		.byte	0x9c
 184 0051 5F000000 		.4byte	0x5f
 185 0055 06       		.uleb128 0x6
 186 0056 1C000000 		.4byte	.LVL0
 187 005a 5F000000 		.4byte	0x5f
 188 005e 00       		.byte	0
 189 005f 07       		.uleb128 0x7
 190 0060 0F020000 		.4byte	.LASF7
 191 0064 0F020000 		.4byte	.LASF7
 192 0068 00       		.byte	0
 193              		.section	.debug_abbrev,"",%progbits
 194              	.Ldebug_abbrev0:
 195 0000 01       		.uleb128 0x1
 196 0001 11       		.uleb128 0x11
 197 0002 01       		.byte	0x1
 198 0003 25       		.uleb128 0x25
 199 0004 0E       		.uleb128 0xe
 200 0005 13       		.uleb128 0x13
 201 0006 0B       		.uleb128 0xb
 202 0007 03       		.uleb128 0x3
 203 0008 0E       		.uleb128 0xe
 204 0009 1B       		.uleb128 0x1b
 205 000a 0E       		.uleb128 0xe
 206 000b 55       		.uleb128 0x55
 207 000c 17       		.uleb128 0x17
 208 000d 11       		.uleb128 0x11
 209 000e 01       		.uleb128 0x1
 210 000f 10       		.uleb128 0x10
 211 0010 17       		.uleb128 0x17
 212 0011 00       		.byte	0
 213 0012 00       		.byte	0
 214 0013 02       		.uleb128 0x2
 215 0014 24       		.uleb128 0x24
 216 0015 00       		.byte	0
 217 0016 0B       		.uleb128 0xb
 218 0017 0B       		.uleb128 0xb
 219 0018 3E       		.uleb128 0x3e
 220 0019 0B       		.uleb128 0xb
 221 001a 03       		.uleb128 0x3
 222 001b 0E       		.uleb128 0xe
 223 001c 00       		.byte	0
 224 001d 00       		.byte	0
 225 001e 03       		.uleb128 0x3
 226 001f 2E       		.uleb128 0x2e
 227 0020 00       		.byte	0
 228 0021 3F       		.uleb128 0x3f
ARM GAS  /var/folders/qd/4mxf5pkd0zdf0b9dd1hp39180000gn/T//ccnjdtku.s 			page 5


 229 0022 19       		.uleb128 0x19
 230 0023 03       		.uleb128 0x3
 231 0024 0E       		.uleb128 0xe
 232 0025 3A       		.uleb128 0x3a
 233 0026 0B       		.uleb128 0xb
 234 0027 3B       		.uleb128 0x3b
 235 0028 0B       		.uleb128 0xb
 236 0029 27       		.uleb128 0x27
 237 002a 19       		.uleb128 0x19
 238 002b 00       		.byte	0
 239 002c 00       		.byte	0
 240 002d 04       		.uleb128 0x4
 241 002e 2E       		.uleb128 0x2e
 242 002f 00       		.byte	0
 243 0030 3F       		.uleb128 0x3f
 244 0031 19       		.uleb128 0x19
 245 0032 03       		.uleb128 0x3
 246 0033 0E       		.uleb128 0xe
 247 0034 3A       		.uleb128 0x3a
 248 0035 0B       		.uleb128 0xb
 249 0036 3B       		.uleb128 0x3b
 250 0037 0B       		.uleb128 0xb
 251 0038 27       		.uleb128 0x27
 252 0039 19       		.uleb128 0x19
 253 003a 20       		.uleb128 0x20
 254 003b 0B       		.uleb128 0xb
 255 003c 00       		.byte	0
 256 003d 00       		.byte	0
 257 003e 05       		.uleb128 0x5
 258 003f 2E       		.uleb128 0x2e
 259 0040 01       		.byte	0x1
 260 0041 31       		.uleb128 0x31
 261 0042 13       		.uleb128 0x13
 262 0043 11       		.uleb128 0x11
 263 0044 01       		.uleb128 0x1
 264 0045 12       		.uleb128 0x12
 265 0046 06       		.uleb128 0x6
 266 0047 40       		.uleb128 0x40
 267 0048 18       		.uleb128 0x18
 268 0049 9742     		.uleb128 0x2117
 269 004b 19       		.uleb128 0x19
 270 004c 01       		.uleb128 0x1
 271 004d 13       		.uleb128 0x13
 272 004e 00       		.byte	0
 273 004f 00       		.byte	0
 274 0050 06       		.uleb128 0x6
 275 0051 898201   		.uleb128 0x4109
 276 0054 00       		.byte	0
 277 0055 11       		.uleb128 0x11
 278 0056 01       		.uleb128 0x1
 279 0057 31       		.uleb128 0x31
 280 0058 13       		.uleb128 0x13
 281 0059 00       		.byte	0
 282 005a 00       		.byte	0
 283 005b 07       		.uleb128 0x7
 284 005c 2E       		.uleb128 0x2e
 285 005d 00       		.byte	0
ARM GAS  /var/folders/qd/4mxf5pkd0zdf0b9dd1hp39180000gn/T//ccnjdtku.s 			page 6


 286 005e 3F       		.uleb128 0x3f
 287 005f 19       		.uleb128 0x19
 288 0060 3C       		.uleb128 0x3c
 289 0061 19       		.uleb128 0x19
 290 0062 6E       		.uleb128 0x6e
 291 0063 0E       		.uleb128 0xe
 292 0064 03       		.uleb128 0x3
 293 0065 0E       		.uleb128 0xe
 294 0066 00       		.byte	0
 295 0067 00       		.byte	0
 296 0068 00       		.byte	0
 297              		.section	.debug_aranges,"",%progbits
 298 0000 1C000000 		.4byte	0x1c
 299 0004 0200     		.2byte	0x2
 300 0006 00000000 		.4byte	.Ldebug_info0
 301 000a 04       		.byte	0x4
 302 000b 00       		.byte	0
 303 000c 0000     		.2byte	0
 304 000e 0000     		.2byte	0
 305 0010 00000000 		.4byte	.LFB0
 306 0014 20000000 		.4byte	.LFE0-.LFB0
 307 0018 00000000 		.4byte	0
 308 001c 00000000 		.4byte	0
 309              		.section	.debug_ranges,"",%progbits
 310              	.Ldebug_ranges0:
 311 0000 00000000 		.4byte	.LFB0
 312 0004 20000000 		.4byte	.LFE0
 313 0008 00000000 		.4byte	0
 314 000c 00000000 		.4byte	0
 315              		.section	.debug_line,"",%progbits
 316              	.Ldebug_line0:
 317 0000 49000000 		.section	.debug_str,"MS",%progbits,1
 317      02003200 
 317      00000201 
 317      FB0E0D00 
 317      01010101 
 318              	.LASF0:
 319 0000 6D6F645F 		.ascii	"mod_explo_sortArea\000"
 319      6578706C 
 319      6F5F736F 
 319      72744172 
 319      656100
 320              	.LASF2:
 321 0013 474E5520 		.ascii	"GNU C11 7.2.1 20170904 (release) [ARM/embedded-7-br"
 321      43313120 
 321      372E322E 
 321      31203230 
 321      31373039 
 322 0046 616E6368 		.ascii	"anch revision 255204] -mcpu=cortex-m4 -mfloat-abi=h"
 322      20726576 
 322      6973696F 
 322      6E203235 
 322      35323034 
 323 0079 61726420 		.ascii	"ard -mfpu=fpv4-sp-d16 -mno-thumb-interwork -mthumb "
 323      2D6D6670 
 323      753D6670 
 323      76342D73 
ARM GAS  /var/folders/qd/4mxf5pkd0zdf0b9dd1hp39180000gn/T//ccnjdtku.s 			page 7


 323      702D6431 
 324 00ac 2D676764 		.ascii	"-ggdb -O2 -fomit-frame-pointer -falign-functions=16"
 324      62202D4F 
 324      32202D66 
 324      6F6D6974 
 324      2D667261 
 325 00df 202D666E 		.ascii	" -fno-strict-aliasing -fstack-protector-all -ffunct"
 325      6F2D7374 
 325      72696374 
 325      2D616C69 
 325      6173696E 
 326 0112 696F6E2D 		.ascii	"ion-sections -fdata-sections -fno-common -fsingle-p"
 326      73656374 
 326      696F6E73 
 326      202D6664 
 326      6174612D 
 327 0145 72656369 		.ascii	"recision-constant\000"
 327      73696F6E 
 327      2D636F6E 
 327      7374616E 
 327      7400
 328              	.LASF4:
 329 0157 2F557365 		.ascii	"/Users/nicolas/Library/Mobile Documents/com~apple~C"
 329      72732F6E 
 329      69636F6C 
 329      61732F4C 
 329      69627261 
 330 018a 6C6F7564 		.ascii	"loudDocs/Projects/Cours/epuck_project/Sources\000"
 330      446F6373 
 330      2F50726F 
 330      6A656374 
 330      732F436F 
 331              	.LASF6:
 332 01b8 6D6F645F 		.ascii	"mod_explo_discoverArea\000"
 332      6578706C 
 332      6F5F6469 
 332      73636F76 
 332      65724172 
 333              	.LASF3:
 334 01cf 2E2F6D6F 		.ascii	"./modules/mod_exploration.c\000"
 334      64756C65 
 334      732F6D6F 
 334      645F6578 
 334      706C6F72 
 335              	.LASF1:
 336 01eb 6D6F645F 		.ascii	"mod_explo_exploreArea\000"
 336      6578706C 
 336      6F5F6578 
 336      706C6F72 
 336      65417265 
 337              	.LASF5:
 338 0201 756E7369 		.ascii	"unsigned char\000"
 338      676E6564 
 338      20636861 
 338      7200
 339              	.LASF7:
 340 020f 5F5F7374 		.ascii	"__stack_chk_fail\000"
ARM GAS  /var/folders/qd/4mxf5pkd0zdf0b9dd1hp39180000gn/T//ccnjdtku.s 			page 8


 340      61636B5F 
 340      63686B5F 
 340      6661696C 
 340      00
 341              		.ident	"GCC: (GNU Tools for Arm Embedded Processors 7-2017-q4-major) 7.2.1 20170904 (release) [ARM
ARM GAS  /var/folders/qd/4mxf5pkd0zdf0b9dd1hp39180000gn/T//ccnjdtku.s 			page 9


DEFINED SYMBOLS
                            *ABS*:0000000000000000 mod_exploration.c
/var/folders/qd/4mxf5pkd0zdf0b9dd1hp39180000gn/T//ccnjdtku.s:18     .text.mod_explo_discoverArea:0000000000000000 $t
/var/folders/qd/4mxf5pkd0zdf0b9dd1hp39180000gn/T//ccnjdtku.s:26     .text.mod_explo_discoverArea:0000000000000000 mod_explo_discoverArea
/var/folders/qd/4mxf5pkd0zdf0b9dd1hp39180000gn/T//ccnjdtku.s:59     .text.mod_explo_discoverArea:000000000000001c $d
/var/folders/qd/4mxf5pkd0zdf0b9dd1hp39180000gn/T//ccnjdtku.s:64     .text.mod_explo_exploreArea:0000000000000000 $t
/var/folders/qd/4mxf5pkd0zdf0b9dd1hp39180000gn/T//ccnjdtku.s:72     .text.mod_explo_exploreArea:0000000000000000 mod_explo_exploreArea
/var/folders/qd/4mxf5pkd0zdf0b9dd1hp39180000gn/T//ccnjdtku.s:100    .text.mod_explo_exploreArea:000000000000001c $d
/var/folders/qd/4mxf5pkd0zdf0b9dd1hp39180000gn/T//ccnjdtku.s:105    .text.mod_explo_sortArea:0000000000000000 $t
/var/folders/qd/4mxf5pkd0zdf0b9dd1hp39180000gn/T//ccnjdtku.s:113    .text.mod_explo_sortArea:0000000000000000 mod_explo_sortArea
/var/folders/qd/4mxf5pkd0zdf0b9dd1hp39180000gn/T//ccnjdtku.s:141    .text.mod_explo_sortArea:000000000000001c $d

UNDEFINED SYMBOLS
__stack_chk_fail
__stack_chk_guard
