ARM GAS  /var/folders/qd/4mxf5pkd0zdf0b9dd1hp39180000gn/T//cc2VGNxh.s 			page 1


   1              		.cpu cortex-m4
   2              		.eabi_attribute 27, 1
   3              		.eabi_attribute 28, 1
   4              		.eabi_attribute 20, 1
   5              		.eabi_attribute 21, 1
   6              		.eabi_attribute 23, 3
   7              		.eabi_attribute 24, 1
   8              		.eabi_attribute 25, 1
   9              		.eabi_attribute 26, 1
  10              		.eabi_attribute 30, 2
  11              		.eabi_attribute 34, 1
  12              		.eabi_attribute 18, 4
  13              		.file	"mod_image.c"
  14              		.text
  15              	.Ltext0:
  16              		.cfi_sections	.debug_frame
  17              		.section	.text.mod_img_init,"ax",%progbits
  18              		.align	1
  19              		.p2align 4,,15
  20              		.global	mod_img_init
  21              		.syntax unified
  22              		.thumb
  23              		.thumb_func
  24              		.fpu fpv4-sp-d16
  25              		.type	mod_img_init, %function
  26              	mod_img_init:
  27              	.LFB259:
  28              		.file 1 "./modules/mod_image.c"
  29              		.loc 1 22 0
  30              		.cfi_startproc
  31              		@ args = 0, pretend = 0, frame = 8
  32              		@ frame_needed = 0, uses_anonymous_args = 0
  33 0000 10B5     		push	{r4, lr}
  34              		.cfi_def_cfa_offset 8
  35              		.cfi_offset 4, -8
  36              		.cfi_offset 14, -4
  37 0002 154C     		ldr	r4, .L11
  38 0004 86B0     		sub	sp, sp, #24
  39              		.cfi_def_cfa_offset 32
  40              		.loc 1 22 0
  41 0006 2368     		ldr	r3, [r4]
  42 0008 0593     		str	r3, [sp, #20]
  43              		.loc 1 23 0
  44 000a FFF7FEFF 		bl	dcmi_start
  45              	.LVL0:
  46 000e 10B1     		cbz	r0, .L2
  47              		.loc 1 23 0 is_stmt 0 discriminator 1
  48 0010 0320     		movs	r0, #3
  49 0012 FFF7FEFF 		bl	error
  50              	.LVL1:
  51              	.L2:
  52              		.loc 1 24 0 is_stmt 1
  53 0016 FFF7FEFF 		bl	po8030_start
  54              	.LVL2:
  55              		.loc 1 25 0
  56 001a 4FF49640 		mov	r0, #19200
  57 001e FFF7FEFF 		bl	malloc
ARM GAS  /var/folders/qd/4mxf5pkd0zdf0b9dd1hp39180000gn/T//cc2VGNxh.s 			page 2


  58              	.LVL3:
  59 0022 0E49     		ldr	r1, .L11+4
  60              		.loc 1 26 0
  61 0024 A023     		movs	r3, #160
  62 0026 8022     		movs	r2, #128
  63              		.loc 1 25 0
  64 0028 0860     		str	r0, [r1]
  65              		.loc 1 26 0
  66 002a 0093     		str	r3, [sp]
  67 002c CDE90122 		strd	r2, r2, [sp, #4]
  68 0030 F021     		movs	r1, #240
  69 0032 1A46     		mov	r2, r3
  70 0034 3020     		movs	r0, #48
  71 0036 FFF7FEFF 		bl	po8030_advanced_config
  72              	.LVL4:
  73              		.loc 1 27 0
  74 003a FFF7FEFF 		bl	dcmi_enable_double_buffering
  75              	.LVL5:
  76              		.loc 1 28 0
  77 003e 059A     		ldr	r2, [sp, #20]
  78 0040 2368     		ldr	r3, [r4]
  79 0042 9A42     		cmp	r2, r3
  80 0044 05D1     		bne	.L10
  81 0046 0020     		movs	r0, #0
  82              		.loc 1 30 0
  83 0048 06B0     		add	sp, sp, #24
  84              		.cfi_remember_state
  85              		.cfi_def_cfa_offset 8
  86              		@ sp needed
  87 004a BDE81040 		pop	{r4, lr}
  88              		.cfi_restore 14
  89              		.cfi_restore 4
  90              		.cfi_def_cfa_offset 0
  91              		.loc 1 28 0
  92 004e FFF7FEBF 		b	dcmi_set_capture_mode
  93              	.LVL6:
  94              	.L10:
  95              		.cfi_restore_state
  96 0052 FFF7FEFF 		bl	__stack_chk_fail
  97              	.LVL7:
  98              	.L12:
  99 0056 00BF     		.align	2
 100              	.L11:
 101 0058 00000000 		.word	__stack_chk_guard
 102 005c 00000000 		.word	.LANCHOR0
 103              		.cfi_endproc
 104              	.LFE259:
 105              		.size	mod_img_init, .-mod_img_init
 106              		.section	.text.mod_image_capture,"ax",%progbits
 107              		.align	1
 108              		.p2align 4,,15
 109              		.global	mod_image_capture
 110              		.syntax unified
 111              		.thumb
 112              		.thumb_func
 113              		.fpu fpv4-sp-d16
 114              		.type	mod_image_capture, %function
ARM GAS  /var/folders/qd/4mxf5pkd0zdf0b9dd1hp39180000gn/T//cc2VGNxh.s 			page 3


 115              	mod_image_capture:
 116              	.LFB260:
 117              		.loc 1 33 0
 118              		.cfi_startproc
 119              		@ args = 0, pretend = 0, frame = 8
 120              		@ frame_needed = 0, uses_anonymous_args = 0
 121 0000 30B5     		push	{r4, r5, lr}
 122              		.cfi_def_cfa_offset 12
 123              		.cfi_offset 4, -12
 124              		.cfi_offset 5, -8
 125              		.cfi_offset 14, -4
 126 0002 104D     		ldr	r5, .L21
 127 0004 83B0     		sub	sp, sp, #12
 128              		.cfi_def_cfa_offset 24
 129              		.loc 1 33 0
 130 0006 2B68     		ldr	r3, [r5]
 131 0008 0193     		str	r3, [sp, #4]
 132              		.loc 1 34 0
 133 000a FFF7FEFF 		bl	dcmi_prepare
 134              	.LVL8:
 135 000e 10B1     		cbz	r0, .L14
 136              		.loc 1 34 0 is_stmt 0 discriminator 1
 137 0010 0420     		movs	r0, #4
 138 0012 FFF7FEFF 		bl	error
 139              	.LVL9:
 140              	.L14:
 141              		.loc 1 41 0 is_stmt 1
 142 0016 0C4C     		ldr	r4, .L21+4
 143              		.loc 1 36 0
 144 0018 FFF7FEFF 		bl	dcmi_capture_start
 145              	.LVL10:
 146              		.loc 1 38 0
 147 001c FFF7FEFF 		bl	wait_image_ready
 148              	.LVL11:
 149              		.loc 1 41 0
 150 0020 2068     		ldr	r0, [r4]
 151 0022 0030     		adds	r0, r0, #0
 152 0024 18BF     		it	ne
 153 0026 0120     		movne	r0, #1
 154 0028 FFF7FEFF 		bl	assert
 155              	.LVL12:
 156              		.loc 1 44 0
 157 002c FFF7FEFF 		bl	dcmi_get_last_image_ptr
 158              	.LVL13:
 159              		.loc 1 48 0
 160 0030 019A     		ldr	r2, [sp, #4]
 161 0032 2B68     		ldr	r3, [r5]
 162              		.loc 1 44 0
 163 0034 2060     		str	r0, [r4]
 164              		.loc 1 48 0
 165 0036 9A42     		cmp	r2, r3
 166 0038 01D1     		bne	.L20
 167 003a 03B0     		add	sp, sp, #12
 168              		.cfi_remember_state
 169              		.cfi_def_cfa_offset 12
 170              		@ sp needed
 171 003c 30BD     		pop	{r4, r5, pc}
ARM GAS  /var/folders/qd/4mxf5pkd0zdf0b9dd1hp39180000gn/T//cc2VGNxh.s 			page 4


 172              	.L20:
 173              		.cfi_restore_state
 174 003e FFF7FEFF 		bl	__stack_chk_fail
 175              	.LVL14:
 176              	.L22:
 177 0042 00BF     		.align	2
 178              	.L21:
 179 0044 00000000 		.word	__stack_chk_guard
 180 0048 00000000 		.word	.LANCHOR0
 181              		.cfi_endproc
 182              	.LFE260:
 183              		.size	mod_image_capture, .-mod_image_capture
 184              		.section	.text.mod_image_sendPicture,"ax",%progbits
 185              		.align	1
 186              		.p2align 4,,15
 187              		.global	mod_image_sendPicture
 188              		.syntax unified
 189              		.thumb
 190              		.thumb_func
 191              		.fpu fpv4-sp-d16
 192              		.type	mod_image_sendPicture, %function
 193              	mod_image_sendPicture:
 194              	.LFB261:
 195              		.loc 1 50 0
 196              		.cfi_startproc
 197              		@ args = 0, pretend = 0, frame = 80
 198              		@ frame_needed = 0, uses_anonymous_args = 0
 199              	.LVL15:
 200 0000 70B5     		push	{r4, r5, r6, lr}
 201              		.cfi_def_cfa_offset 16
 202              		.cfi_offset 4, -16
 203              		.cfi_offset 5, -12
 204              		.cfi_offset 6, -8
 205              		.cfi_offset 14, -4
 206 0002 0E4C     		ldr	r4, .L27
 207 0004 94B0     		sub	sp, sp, #80
 208              		.cfi_def_cfa_offset 96
 209              		.loc 1 50 0
 210 0006 0546     		mov	r5, r0
 211 0008 0E46     		mov	r6, r1
 212 000a 2368     		ldr	r3, [r4]
 213 000c 1393     		str	r3, [sp, #76]
 214              		.loc 1 51 0
 215 000e FFF7FEFF 		bl	mod_image_capture
 216              	.LVL16:
 217              		.loc 1 53 0
 218 0012 3346     		mov	r3, r6
 219 0014 2A46     		mov	r2, r5
 220 0016 0A49     		ldr	r1, .L27+4
 221 0018 01A8     		add	r0, sp, #4
 222 001a FFF7FEFF 		bl	sprintf
 223              	.LVL17:
 224              		.loc 1 54 0
 225 001e 094B     		ldr	r3, .L27+8
 226 0020 4FF49642 		mov	r2, #19200
 227 0024 1968     		ldr	r1, [r3]
 228 0026 01A8     		add	r0, sp, #4
ARM GAS  /var/folders/qd/4mxf5pkd0zdf0b9dd1hp39180000gn/T//cc2VGNxh.s 			page 5


 229 0028 FFF7FEFF 		bl	mod_com_writeDatas
 230              	.LVL18:
 231              		.loc 1 55 0
 232 002c 139A     		ldr	r2, [sp, #76]
 233 002e 2368     		ldr	r3, [r4]
 234 0030 9A42     		cmp	r2, r3
 235 0032 01D1     		bne	.L26
 236 0034 14B0     		add	sp, sp, #80
 237              		.cfi_remember_state
 238              		.cfi_def_cfa_offset 16
 239              		@ sp needed
 240 0036 70BD     		pop	{r4, r5, r6, pc}
 241              	.LVL19:
 242              	.L26:
 243              		.cfi_restore_state
 244 0038 FFF7FEFF 		bl	__stack_chk_fail
 245              	.LVL20:
 246              	.L28:
 247              		.align	2
 248              	.L27:
 249 003c 00000000 		.word	__stack_chk_guard
 250 0040 00000000 		.word	.LC0
 251 0044 00000000 		.word	.LANCHOR0
 252              		.cfi_endproc
 253              	.LFE261:
 254              		.size	mod_image_sendPicture, .-mod_image_sendPicture
 255              		.section	.bss.imagePtr,"aw",%nobits
 256              		.align	2
 257              		.set	.LANCHOR0,. + 0
 258              		.type	imagePtr, %object
 259              		.size	imagePtr, 4
 260              	imagePtr:
 261 0000 00000000 		.space	4
 262              		.section	.rodata.mod_image_sendPicture.str1.4,"aMS",%progbits,1
 263              		.align	2
 264              	.LC0:
 265 0000 496D6167 		.ascii	"Image*%d,%d\000"
 265      652A2564 
 265      2C256400 
 266              		.text
 267              	.Letext0:
 268              		.file 2 "/Applications/Eclipse_e-puck2.app/Contents/Eclipse_e-puck2/Tools/gcc-arm-none-eabi-7-2017
 269              		.file 3 "/Applications/Eclipse_e-puck2.app/Contents/Eclipse_e-puck2/Tools/gcc-arm-none-eabi-7-2017
 270              		.file 4 "/Applications/Eclipse_e-puck2.app/Contents/Eclipse_e-puck2/Tools/gcc-arm-none-eabi-7-2017
 271              		.file 5 "lib/e-puck2_main-processor/ChibiOS//os/rt/ports/ARMCMx/compilers/GCC/chtypes.h"
 272              		.file 6 "lib/e-puck2_main-processor/ChibiOS//os/rt/include/chsystypes.h"
 273              		.file 7 "lib/e-puck2_main-processor/ChibiOS//os/rt/include/chschd.h"
 274              		.file 8 "lib/e-puck2_main-processor/ChibiOS//os/ext/CMSIS/include/core_cm4.h"
 275              		.file 9 "lib/e-puck2_main-processor/ChibiOS//os/ext/CMSIS/ST/system_stm32f4xx.h"
 276              		.file 10 "lib/e-puck2_main-processor/ChibiOS//os/ext/CMSIS/ST/stm32f407xx.h"
 277              		.file 11 "lib/e-puck2_main-processor/ChibiOS//os/rt/ports/ARMCMx/chcore.h"
 278              		.file 12 "lib/e-puck2_main-processor/ChibiOS//os/rt/ports/ARMCMx/chcore_v7m.h"
 279              		.file 13 "lib/e-puck2_main-processor/ChibiOS//os/rt/include/chdebug.h"
 280              		.file 14 "lib/e-puck2_main-processor/ChibiOS//os/rt/include/chtm.h"
 281              		.file 15 "lib/e-puck2_main-processor/ChibiOS//os/rt/include/chstats.h"
 282              		.file 16 "lib/e-puck2_main-processor/ChibiOS//os/rt/include/chsem.h"
 283              		.file 17 "lib/e-puck2_main-processor/ChibiOS//os/rt/include/chmtx.h"
ARM GAS  /var/folders/qd/4mxf5pkd0zdf0b9dd1hp39180000gn/T//cc2VGNxh.s 			page 6


 284              		.file 18 "lib/e-puck2_main-processor/ChibiOS//os/rt/include/chregistry.h"
 285              		.file 19 "lib/e-puck2_main-processor/ChibiOS//os/rt/include/chevents.h"
 286              		.file 20 "lib/e-puck2_main-processor/ChibiOS//os/rt/include/chqueues.h"
 287              		.file 21 "lib/e-puck2_main-processor/ChibiOS//os/hal/ports/STM32/STM32F4xx/stm32_dma.h"
 288              		.file 22 "./modules/headers/mod_errors.h"
 289              		.file 23 "lib/e-puck2_main-processor/ChibiOS//os/hal/include/hal_ioblock.h"
 290              		.file 24 "lib/e-puck2_main-processor/ChibiOS//os/hal/ports/STM32/LLD/GPIOv2/pal_lld.h"
 291              		.file 25 "lib/e-puck2_main-processor/ChibiOS//os/hal/include/adc.h"
 292              		.file 26 "lib/e-puck2_main-processor/ChibiOS//os/hal/ports/STM32/STM32F4xx/adc_lld.h"
 293              		.file 27 "lib/e-puck2_main-processor/ChibiOS//os/hal/include/can.h"
 294              		.file 28 "lib/e-puck2_main-processor/ChibiOS//os/hal/ports/STM32/LLD/can_lld.h"
 295              		.file 29 "lib/e-puck2_main-processor/ChibiOS//os/hal/include/dac.h"
 296              		.file 30 "lib/e-puck2_main-processor/ChibiOS//os/hal/ports/STM32/LLD/DACv1/dac_lld.h"
 297              		.file 31 "lib/e-puck2_main-processor/ChibiOS//os/hal/include/ext.h"
 298              		.file 32 "lib/e-puck2_main-processor/ChibiOS//os/hal/ports/STM32/LLD/ext_lld.h"
 299              		.file 33 "lib/e-puck2_main-processor/ChibiOS//os/hal/include/gpt.h"
 300              		.file 34 "lib/e-puck2_main-processor/ChibiOS//os/hal/ports/STM32/LLD/TIMv1/gpt_lld.h"
 301              		.file 35 "lib/e-puck2_main-processor/ChibiOS//os/hal/ports/STM32/LLD/TIMv1/stm32_tim.h"
 302              		.file 36 "lib/e-puck2_main-processor/ChibiOS//os/hal/include/i2c.h"
 303              		.file 37 "lib/e-puck2_main-processor/ChibiOS//os/hal/ports/STM32/LLD/I2Cv1/i2c_lld.h"
 304              		.file 38 "lib/e-puck2_main-processor/ChibiOS//os/hal/include/i2s.h"
 305              		.file 39 "lib/e-puck2_main-processor/ChibiOS//os/hal/ports/STM32/LLD/SPIv1/i2s_lld.h"
 306              		.file 40 "lib/e-puck2_main-processor/ChibiOS//os/hal/include/pwm.h"
 307              		.file 41 "lib/e-puck2_main-processor/ChibiOS//os/hal/ports/STM32/LLD/TIMv1/pwm_lld.h"
 308              		.file 42 "lib/e-puck2_main-processor/ChibiOS//os/hal/include/serial.h"
 309              		.file 43 "lib/e-puck2_main-processor/ChibiOS//os/hal/ports/STM32/LLD/USARTv1/serial_lld.h"
 310              		.file 44 "lib/e-puck2_main-processor/ChibiOS//os/hal/include/sdc.h"
 311              		.file 45 "lib/e-puck2_main-processor/ChibiOS//os/hal/ports/STM32/LLD/sdc_lld.h"
 312              		.file 46 "lib/e-puck2_main-processor/ChibiOS//os/hal/include/spi.h"
 313              		.file 47 "lib/e-puck2_main-processor/ChibiOS//os/hal/ports/STM32/LLD/SPIv1/spi_lld.h"
 314              		.file 48 "lib/e-puck2_main-processor/ChibiOS//os/hal/include/usb.h"
 315              		.file 49 "lib/e-puck2_main-processor/ChibiOS//os/hal/ports/STM32/LLD/OTGv1/usb_lld.h"
 316              		.file 50 "lib/e-puck2_main-processor/ChibiOS//os/hal/ports/STM32/LLD/OTGv1/stm32_otg.h"
 317              		.file 51 "lib/e-puck2_main-processor/ChibiOS_ext/os/hal/include/../ports/STM32/STM32F4xx/dcmi_lld.
 318              		.file 52 "lib/e-puck2_main-processor/src/camera/po8030.h"
 319              		.file 53 "lib/e-puck2_main-processor/src/camera/dcmi_camera.h"
 320              		.file 54 "/Applications/Eclipse_e-puck2.app/Contents/Eclipse_e-puck2/Tools/gcc-arm-none-eabi-7-201
 321              		.file 55 "/Applications/Eclipse_e-puck2.app/Contents/Eclipse_e-puck2/Tools/gcc-arm-none-eabi-7-201
 322              		.file 56 "/Applications/Eclipse_e-puck2.app/Contents/Eclipse_e-puck2/Tools/gcc-arm-none-eabi-7-201
 323              		.file 57 "/Applications/Eclipse_e-puck2.app/Contents/Eclipse_e-puck2/Tools/gcc-arm-none-eabi-7-201
 324              		.file 58 "/Applications/Eclipse_e-puck2.app/Contents/Eclipse_e-puck2/Tools/gcc-arm-none-eabi-7-201
 325              		.file 59 "modules/headers/mod_communication.h"
 326              		.file 60 "modules/headers/mod_check.h"