ARM GAS  /var/folders/qd/4mxf5pkd0zdf0b9dd1hp39180000gn/T//ccsf5yWP.s 			page 1


   1              		.cpu cortex-m4
   2              		.eabi_attribute 27, 1
   3              		.eabi_attribute 28, 1
   4              		.eabi_attribute 20, 1
   5              		.eabi_attribute 21, 1
   6              		.eabi_attribute 23, 3
   7              		.eabi_attribute 24, 1
   8              		.eabi_attribute 25, 1
   9              		.eabi_attribute 26, 1
  10              		.eabi_attribute 30, 2
  11              		.eabi_attribute 34, 1
  12              		.eabi_attribute 18, 4
  13              		.file	"mod_mapping.c"
  14              		.text
  15              	.Ltext0:
  16              		.cfi_sections	.debug_frame
  17              		.section	.text.checkAngle,"ax",%progbits
  18              		.align	1
  19              		.p2align 4,,15
  20              		.global	checkAngle
  21              		.syntax unified
  22              		.thumb
  23              		.thumb_func
  24              		.fpu fpv4-sp-d16
  25              		.type	checkAngle, %function
  26              	checkAngle:
  27              	.LFB259:
  28              		.file 1 "./modules/mod_mapping.c"
  29              		.loc 1 150 0
  30              		.cfi_startproc
  31              		@ args = 0, pretend = 0, frame = 8
  32              		@ frame_needed = 0, uses_anonymous_args = 0
  33              	.LVL0:
  34 0000 00B5     		push	{lr}
  35              		.cfi_def_cfa_offset 4
  36              		.cfi_offset 14, -4
  37              		.loc 1 151 0
  38 0002 D0ED007A 		vldr.32	s15, [r0]
  39 0006 9FED167A 		vldr.32	s14, .L14
  40              		.loc 1 150 0
  41 000a 164B     		ldr	r3, .L14+4
  42 000c 83B0     		sub	sp, sp, #12
  43              		.cfi_def_cfa_offset 16
  44              		.loc 1 151 0
  45 000e F4EEC77A 		vcmpe.f32	s15, s14
  46              		.loc 1 150 0
  47 0012 1A68     		ldr	r2, [r3]
  48 0014 0192     		str	r2, [sp, #4]
  49              		.loc 1 151 0
  50 0016 F1EE10FA 		vmrs	APSR_nzcv, FPSCR
  51 001a 08DB     		blt	.L2
  52              	.L4:
  53              		.loc 1 151 0 is_stmt 0 discriminator 2
  54 001c 77EEC77A 		vsub.f32	s15, s15, s14
  55 0020 F4EEC77A 		vcmpe.f32	s15, s14
  56 0024 F1EE10FA 		vmrs	APSR_nzcv, FPSCR
  57 0028 F8DA     		bge	.L4
ARM GAS  /var/folders/qd/4mxf5pkd0zdf0b9dd1hp39180000gn/T//ccsf5yWP.s 			page 2


  58 002a C0ED007A 		vstr.32	s15, [r0]
  59              	.L2:
  60              		.loc 1 152 0 is_stmt 1
  61 002e F5EEC07A 		vcmpe.f32	s15, #0
  62 0032 F1EE10FA 		vmrs	APSR_nzcv, FPSCR
  63 0036 0AD5     		bpl	.L1
  64 0038 9FED097A 		vldr.32	s14, .L14
  65              	.L7:
  66              		.loc 1 152 0 is_stmt 0 discriminator 2
  67 003c 77EE877A 		vadd.f32	s15, s15, s14
  68 0040 F5EEC07A 		vcmpe.f32	s15, #0
  69 0044 F1EE10FA 		vmrs	APSR_nzcv, FPSCR
  70 0048 F8D4     		bmi	.L7
  71 004a C0ED007A 		vstr.32	s15, [r0]
  72              	.L1:
  73              		.loc 1 153 0 is_stmt 1
  74 004e 019A     		ldr	r2, [sp, #4]
  75 0050 1B68     		ldr	r3, [r3]
  76 0052 9A42     		cmp	r2, r3
  77 0054 02D1     		bne	.L13
  78 0056 03B0     		add	sp, sp, #12
  79              		.cfi_remember_state
  80              		.cfi_def_cfa_offset 4
  81              		@ sp needed
  82 0058 5DF804FB 		ldr	pc, [sp], #4
  83              	.L13:
  84              		.cfi_restore_state
  85 005c FFF7FEFF 		bl	__stack_chk_fail
  86              	.LVL1:
  87              	.L15:
  88              		.align	2
  89              	.L14:
  90 0060 DB0FC940 		.word	1086918619
  91 0064 00000000 		.word	__stack_chk_guard
  92              		.cfi_endproc
  93              	.LFE259:
  94              		.size	checkAngle, .-checkAngle
  95              		.global	__aeabi_f2d
  96              		.global	__aeabi_i2d
  97              		.global	__aeabi_dmul
  98              		.global	__aeabi_ddiv
  99              		.global	__aeabi_dadd
 100              		.global	__aeabi_d2iz
 101              		.section	.text.newAbsolutePositionWheelSpeedType,"ax",%progbits
 102              		.align	1
 103              		.p2align 4,,15
 104              		.global	newAbsolutePositionWheelSpeedType
 105              		.syntax unified
 106              		.thumb
 107              		.thumb_func
 108              		.fpu fpv4-sp-d16
 109              		.type	newAbsolutePositionWheelSpeedType, %function
 110              	newAbsolutePositionWheelSpeedType:
 111              	.LFB260:
 112              		.loc 1 157 0
 113              		.cfi_startproc
 114              		@ args = 0, pretend = 0, frame = 16
ARM GAS  /var/folders/qd/4mxf5pkd0zdf0b9dd1hp39180000gn/T//ccsf5yWP.s 			page 3


 115              		@ frame_needed = 0, uses_anonymous_args = 0
 116              	.LVL2:
 117 0000 2DE9F04F 		push	{r4, r5, r6, r7, r8, r9, r10, fp, lr}
 118              		.cfi_def_cfa_offset 36
 119              		.cfi_offset 4, -36
 120              		.cfi_offset 5, -32
 121              		.cfi_offset 6, -28
 122              		.cfi_offset 7, -24
 123              		.cfi_offset 8, -20
 124              		.cfi_offset 9, -16
 125              		.cfi_offset 10, -12
 126              		.cfi_offset 11, -8
 127              		.cfi_offset 14, -4
 128 0004 2DED068B 		vpush.64	{d8, d9, d10}
 129              		.cfi_def_cfa_offset 60
 130              		.cfi_offset 80, -60
 131              		.cfi_offset 81, -56
 132              		.cfi_offset 82, -52
 133              		.cfi_offset 83, -48
 134              		.cfi_offset 84, -44
 135              		.cfi_offset 85, -40
 136              		.loc 1 159 0
 137 0008 07EE103A 		vmov	s14, r3	@ int
 138 000c 92ED018A 		vldr.32	s16, [r2, #4]
 139 0010 D2ED009A 		vldr.32	s19, [r2]
 140              		.loc 1 157 0
 141 0014 4B4D     		ldr	r5, .L28
 142              		.loc 1 159 0
 143 0016 B8EEC79A 		vcvt.f32.s32	s18, s14
 144 001a 78EE297A 		vadd.f32	s15, s16, s19
 145              		.loc 1 157 0
 146 001e 85B0     		sub	sp, sp, #20
 147              		.cfi_def_cfa_offset 80
 148              		.loc 1 159 0
 149 0020 67EE897A 		vmul.f32	s15, s15, s18
 150              		.loc 1 157 0
 151 0024 2B68     		ldr	r3, [r5]
 152              	.LVL3:
 153 0026 0393     		str	r3, [sp, #12]
 154 0028 8A46     		mov	r10, r1
 155 002a 0446     		mov	r4, r0
 156              		.loc 1 159 0
 157 002c 17EE900A 		vmov	r0, s15
 158              	.LVL4:
 159 0030 FFF7FEFF 		bl	__aeabi_f2d
 160              	.LVL5:
 161 0034 DAED028A 		vldr.32	s17, [r10, #8]
 162 0038 DFED437A 		vldr.32	s15, .L28+4
 163 003c 78EEA77A 		vadd.f32	s15, s17, s15
 164 0040 0646     		mov	r6, r0
 165 0042 17EE900A 		vmov	r0, s15
 166 0046 0F46     		mov	r7, r1
 167 0048 FFF7FEFF 		bl	__aeabi_f2d
 168              	.LVL6:
 169 004c 41EC100B 		vmov	d0, r0, r1
 170 0050 41EC1A0B 		vmov	d10, r0, r1
 171 0054 FFF7FEFF 		bl	cos
ARM GAS  /var/folders/qd/4mxf5pkd0zdf0b9dd1hp39180000gn/T//ccsf5yWP.s 			page 4


 172              	.LVL7:
 173 0058 53EC102B 		vmov	r2, r3, d0
 174 005c DAF80000 		ldr	r0, [r10]
 175 0060 CDE90023 		strd	r2, [sp]
 176 0064 FFF7FEFF 		bl	__aeabi_i2d
 177              	.LVL8:
 178 0068 DDE90023 		ldrd	r2, [sp]
 179 006c 8046     		mov	r8, r0
 180 006e 8946     		mov	r9, r1
 181 0070 3046     		mov	r0, r6
 182 0072 3946     		mov	r1, r7
 183 0074 FFF7FEFF 		bl	__aeabi_dmul
 184              	.LVL9:
 185 0078 0022     		movs	r2, #0
 186 007a 344B     		ldr	r3, .L28+8
 187 007c FFF7FEFF 		bl	__aeabi_ddiv
 188              	.LVL10:
 189 0080 0246     		mov	r2, r0
 190 0082 0B46     		mov	r3, r1
 191 0084 4046     		mov	r0, r8
 192 0086 4946     		mov	r1, r9
 193 0088 FFF7FEFF 		bl	__aeabi_dadd
 194              	.LVL11:
 195 008c FFF7FEFF 		bl	__aeabi_d2iz
 196              	.LVL12:
 197              		.loc 1 160 0
 198 0090 B0EE4A0A 		vmov.f32	s0, s20
 199 0094 F0EE6A0A 		vmov.f32	s1, s21
 200              		.loc 1 159 0
 201 0098 8346     		mov	fp, r0
 202              	.LVL13:
 203              		.loc 1 160 0
 204 009a FFF7FEFF 		bl	sin
 205              	.LVL14:
 206 009e 53EC102B 		vmov	r2, r3, d0
 207 00a2 DAF80400 		ldr	r0, [r10, #4]
 208 00a6 CDE90023 		strd	r2, [sp]
 209 00aa FFF7FEFF 		bl	__aeabi_i2d
 210              	.LVL15:
 211 00ae DDE90023 		ldrd	r2, [sp]
 212 00b2 8046     		mov	r8, r0
 213 00b4 8946     		mov	r9, r1
 214 00b6 3046     		mov	r0, r6
 215 00b8 3946     		mov	r1, r7
 216 00ba FFF7FEFF 		bl	__aeabi_dmul
 217              	.LVL16:
 218 00be 0022     		movs	r2, #0
 219 00c0 224B     		ldr	r3, .L28+8
 220 00c2 FFF7FEFF 		bl	__aeabi_ddiv
 221              	.LVL17:
 222              		.loc 1 161 0
 223 00c6 38EE698A 		vsub.f32	s16, s16, s19
 224              		.loc 1 160 0
 225 00ca 0246     		mov	r2, r0
 226 00cc 0B46     		mov	r3, r1
 227 00ce 4046     		mov	r0, r8
 228 00d0 4946     		mov	r1, r9
ARM GAS  /var/folders/qd/4mxf5pkd0zdf0b9dd1hp39180000gn/T//ccsf5yWP.s 			page 5


 229 00d2 FFF7FEFF 		bl	__aeabi_dadd
 230              	.LVL18:
 231 00d6 FFF7FEFF 		bl	__aeabi_d2iz
 232              	.LVL19:
 233              		.loc 1 161 0
 234 00da 28EE098A 		vmul.f32	s16, s16, s18
 235 00de DFED1C6A 		vldr.32	s13, .L28+12
 236              	.LBB26:
 237              	.LBB27:
 238              		.loc 1 151 0
 239 00e2 9FED1C7A 		vldr.32	s14, .L28+16
 240              	.LBE27:
 241              	.LBE26:
 242              		.loc 1 161 0
 243 00e6 C8EE267A 		vdiv.f32	s15, s16, s13
 244 00ea 77EEA87A 		vadd.f32	s15, s15, s17
 245              	.LVL20:
 246              	.LBB29:
 247              	.LBB28:
 248              		.loc 1 151 0
 249 00ee F4EEC77A 		vcmpe.f32	s15, s14
 250 00f2 F1EE10FA 		vmrs	APSR_nzcv, FPSCR
 251 00f6 06DB     		blt	.L17
 252              	.L19:
 253 00f8 77EEC77A 		vsub.f32	s15, s15, s14
 254              	.LVL21:
 255 00fc F4EEC77A 		vcmpe.f32	s15, s14
 256 0100 F1EE10FA 		vmrs	APSR_nzcv, FPSCR
 257 0104 F8DA     		bge	.L19
 258              	.L17:
 259              		.loc 1 152 0
 260 0106 F5EEC07A 		vcmpe.f32	s15, #0
 261 010a F1EE10FA 		vmrs	APSR_nzcv, FPSCR
 262 010e 08D5     		bpl	.L20
 263 0110 9FED107A 		vldr.32	s14, .L28+16
 264              	.L22:
 265 0114 77EE877A 		vadd.f32	s15, s15, s14
 266              	.LVL22:
 267 0118 F5EEC07A 		vcmpe.f32	s15, #0
 268 011c F1EE10FA 		vmrs	APSR_nzcv, FPSCR
 269 0120 F8D4     		bmi	.L22
 270              	.L20:
 271              	.LVL23:
 272              	.LBE28:
 273              	.LBE29:
 274              		.loc 1 167 0
 275 0122 039A     		ldr	r2, [sp, #12]
 276 0124 2B68     		ldr	r3, [r5]
 277              		.loc 1 166 0
 278 0126 C4ED027A 		vstr.32	s15, [r4, #8]
 279              	.LVL24:
 280              		.loc 1 167 0
 281 012a 9A42     		cmp	r2, r3
 282              		.loc 1 166 0
 283 012c C4E900B0 		strd	fp, r0, [r4]
 284              		.loc 1 167 0
 285 0130 2046     		mov	r0, r4
ARM GAS  /var/folders/qd/4mxf5pkd0zdf0b9dd1hp39180000gn/T//ccsf5yWP.s 			page 6


 286 0132 04D1     		bne	.L27
 287              	.LVL25:
 288 0134 05B0     		add	sp, sp, #20
 289              		.cfi_remember_state
 290              		.cfi_def_cfa_offset 60
 291              		@ sp needed
 292 0136 BDEC068B 		vldm	sp!, {d8-d10}
 293              		.cfi_restore 84
 294              		.cfi_restore 85
 295              		.cfi_restore 82
 296              		.cfi_restore 83
 297              		.cfi_restore 80
 298              		.cfi_restore 81
 299              		.cfi_def_cfa_offset 36
 300 013a BDE8F08F 		pop	{r4, r5, r6, r7, r8, r9, r10, fp, pc}
 301              	.LVL26:
 302              	.L27:
 303              		.cfi_restore_state
 304 013e FFF7FEFF 		bl	__stack_chk_fail
 305              	.LVL27:
 306              	.L29:
 307 0142 00BF     		.align	2
 308              	.L28:
 309 0144 00000000 		.word	__stack_chk_guard
 310 0148 DB0FC93F 		.word	1070141403
 311 014c 00409F40 		.word	1084178432
 312 0150 000C5547 		.word	1196755968
 313 0154 DB0FC940 		.word	1086918619
 314              		.cfi_endproc
 315              	.LFE260:
 316              		.size	newAbsolutePositionWheelSpeedType, .-newAbsolutePositionWheelSpeedType
 317              		.section	.text.measurementToPoint,"ax",%progbits
 318              		.align	1
 319              		.p2align 4,,15
 320              		.global	measurementToPoint
 321              		.syntax unified
 322              		.thumb
 323              		.thumb_func
 324              		.fpu fpv4-sp-d16
 325              		.type	measurementToPoint, %function
 326              	measurementToPoint:
 327              	.LFB261:
 328              		.loc 1 169 0
 329              		.cfi_startproc
 330              		@ args = 0, pretend = 0, frame = 64
 331              		@ frame_needed = 0, uses_anonymous_args = 0
 332              	.LVL28:
 333 0000 2DE9F047 		push	{r4, r5, r6, r7, r8, r9, r10, lr}
 334              		.cfi_def_cfa_offset 32
 335              		.cfi_offset 4, -32
 336              		.cfi_offset 5, -28
 337              		.cfi_offset 6, -24
 338              		.cfi_offset 7, -20
 339              		.cfi_offset 8, -16
 340              		.cfi_offset 9, -12
 341              		.cfi_offset 10, -8
 342              		.cfi_offset 14, -4
ARM GAS  /var/folders/qd/4mxf5pkd0zdf0b9dd1hp39180000gn/T//ccsf5yWP.s 			page 7


 343 0004 2DED028B 		vpush.64	{d8}
 344              		.cfi_def_cfa_offset 40
 345              		.cfi_offset 80, -40
 346              		.cfi_offset 81, -36
 347 0008 324F     		ldr	r7, .L34
 348              		.loc 1 171 0
 349 000a D1F80CA0 		ldr	r10, [r1, #12]
 350              		.loc 1 169 0
 351 000e 3B68     		ldr	r3, [r7]
 352 0010 90B0     		sub	sp, sp, #64
 353              		.cfi_def_cfa_offset 104
 354              		.loc 1 169 0
 355 0012 0546     		mov	r5, r0
 356              		.loc 1 171 0
 357 0014 8868     		ldr	r0, [r1, #8]	@ float
 358              	.LVL29:
 359              		.loc 1 169 0
 360 0016 0F93     		str	r3, [sp, #60]
 361 0018 0C46     		mov	r4, r1
 362              		.loc 1 171 0
 363 001a FFF7FEFF 		bl	__aeabi_f2d
 364              	.LVL30:
 365 001e 41EC100B 		vmov	d0, r0, r1
 366 0022 41EC180B 		vmov	d8, r0, r1
 367 0026 FFF7FEFF 		bl	sin
 368              	.LVL31:
 369 002a 6FF02000 		mvn	r0, #32
 370 002e 53EC102B 		vmov	r2, r3, d0
 371 0032 A0EB0A00 		sub	r0, r0, r10
 372 0036 CDE90023 		strd	r2, [sp]
 373 003a FFF7FEFF 		bl	__aeabi_i2d
 374              	.LVL32:
 375 003e DDE90023 		ldrd	r2, [sp]
 376 0042 FFF7FEFF 		bl	__aeabi_dmul
 377              	.LVL33:
 378 0046 8046     		mov	r8, r0
 379 0048 2068     		ldr	r0, [r4]
 380 004a 8946     		mov	r9, r1
 381 004c FFF7FEFF 		bl	__aeabi_i2d
 382              	.LVL34:
 383 0050 0246     		mov	r2, r0
 384 0052 0B46     		mov	r3, r1
 385 0054 4046     		mov	r0, r8
 386 0056 4946     		mov	r1, r9
 387 0058 FFF7FEFF 		bl	__aeabi_dadd
 388              	.LVL35:
 389 005c FFF7FEFF 		bl	__aeabi_d2iz
 390              	.LVL36:
 391              		.loc 1 172 0
 392 0060 B0EE480A 		vmov.f32	s0, s16
 393 0064 F0EE680A 		vmov.f32	s1, s17
 394              		.loc 1 171 0
 395 0068 0646     		mov	r6, r0
 396              	.LVL37:
 397              		.loc 1 172 0
 398 006a FFF7FEFF 		bl	cos
 399              	.LVL38:
ARM GAS  /var/folders/qd/4mxf5pkd0zdf0b9dd1hp39180000gn/T//ccsf5yWP.s 			page 8


 400 006e 53EC102B 		vmov	r2, r3, d0
 401 0072 0AF12100 		add	r0, r10, #33
 402 0076 CDE90023 		strd	r2, [sp]
 403 007a FFF7FEFF 		bl	__aeabi_i2d
 404              	.LVL39:
 405 007e DDE90023 		ldrd	r2, [sp]
 406 0082 FFF7FEFF 		bl	__aeabi_dmul
 407              	.LVL40:
 408 0086 8046     		mov	r8, r0
 409 0088 6068     		ldr	r0, [r4, #4]
 410 008a 8946     		mov	r9, r1
 411 008c FFF7FEFF 		bl	__aeabi_i2d
 412              	.LVL41:
 413 0090 0246     		mov	r2, r0
 414 0092 0B46     		mov	r3, r1
 415 0094 4046     		mov	r0, r8
 416 0096 4946     		mov	r1, r9
 417 0098 FFF7FEFF 		bl	__aeabi_dadd
 418              	.LVL42:
 419 009c FFF7FEFF 		bl	__aeabi_d2iz
 420              	.LVL43:
 421              		.loc 1 174 0
 422 00a0 3246     		mov	r2, r6
 423 00a2 0346     		mov	r3, r0
 424              		.loc 1 172 0
 425 00a4 0446     		mov	r4, r0
 426              	.LVL44:
 427              		.loc 1 174 0
 428 00a6 0C49     		ldr	r1, .L34+4
 429 00a8 02A8     		add	r0, sp, #8
 430              	.LVL45:
 431 00aa FFF7FEFF 		bl	sprintf
 432              	.LVL46:
 433              		.loc 1 175 0
 434 00ae 02A8     		add	r0, sp, #8
 435 00b0 0321     		movs	r1, #3
 436 00b2 FFF7FEFF 		bl	mod_com_writeMessage
 437              	.LVL47:
 438              		.loc 1 177 0
 439 00b6 0F9A     		ldr	r2, [sp, #60]
 440 00b8 3B68     		ldr	r3, [r7]
 441 00ba 9A42     		cmp	r2, r3
 442              		.loc 1 176 0
 443 00bc C5E90064 		strd	r6, r4, [r5]
 444              	.LVL48:
 445              		.loc 1 177 0
 446 00c0 05D1     		bne	.L33
 447 00c2 2846     		mov	r0, r5
 448 00c4 10B0     		add	sp, sp, #64
 449              		.cfi_remember_state
 450              		.cfi_def_cfa_offset 40
 451              		@ sp needed
 452 00c6 BDEC028B 		vldm	sp!, {d8}
 453              		.cfi_restore 80
 454              		.cfi_restore 81
 455              		.cfi_def_cfa_offset 32
 456 00ca BDE8F087 		pop	{r4, r5, r6, r7, r8, r9, r10, pc}
ARM GAS  /var/folders/qd/4mxf5pkd0zdf0b9dd1hp39180000gn/T//ccsf5yWP.s 			page 9


 457              	.LVL49:
 458              	.L33:
 459              		.cfi_restore_state
 460 00ce FFF7FEFF 		bl	__stack_chk_fail
 461              	.LVL50:
 462              	.L35:
 463 00d2 00BF     		.align	2
 464              	.L34:
 465 00d4 00000000 		.word	__stack_chk_guard
 466 00d8 00000000 		.word	.LC1
 467              		.cfi_endproc
 468              	.LFE261:
 469              		.size	measurementToPoint, .-measurementToPoint
 470              		.global	__aeabi_dsub
 471              		.section	.text.moveOrigin,"ax",%progbits
 472              		.align	1
 473              		.p2align 4,,15
 474              		.global	moveOrigin
 475              		.syntax unified
 476              		.thumb
 477              		.thumb_func
 478              		.fpu fpv4-sp-d16
 479              		.type	moveOrigin, %function
 480              	moveOrigin:
 481              	.LFB262:
 482              		.loc 1 180 0
 483              		.cfi_startproc
 484              		@ args = 0, pretend = 0, frame = 88
 485              		@ frame_needed = 0, uses_anonymous_args = 0
 486              	.LVL51:
 487 0000 2DE9F04F 		push	{r4, r5, r6, r7, r8, r9, r10, fp, lr}
 488              		.cfi_def_cfa_offset 36
 489              		.cfi_offset 4, -36
 490              		.cfi_offset 5, -32
 491              		.cfi_offset 6, -28
 492              		.cfi_offset 7, -24
 493              		.cfi_offset 8, -20
 494              		.cfi_offset 9, -16
 495              		.cfi_offset 10, -12
 496              		.cfi_offset 11, -8
 497              		.cfi_offset 14, -4
 498 0004 2DED048B 		vpush.64	{d8, d9}
 499              		.cfi_def_cfa_offset 52
 500              		.cfi_offset 80, -52
 501              		.cfi_offset 81, -48
 502              		.cfi_offset 82, -44
 503              		.cfi_offset 83, -40
 504 0008 584D     		ldr	r5, .L48
 505              		.loc 1 181 0
 506 000a 594C     		ldr	r4, .L48+4
 507              		.loc 1 180 0
 508 000c 2B68     		ldr	r3, [r5]
 509 000e 99B0     		sub	sp, sp, #100
 510              		.cfi_def_cfa_offset 152
 511              		.loc 1 180 0
 512 0010 B0EE408A 		vmov.f32	s16, s0
 513 0014 1793     		str	r3, [sp, #92]
ARM GAS  /var/folders/qd/4mxf5pkd0zdf0b9dd1hp39180000gn/T//ccsf5yWP.s 			page 10


 514              	.LVL52:
 515 0016 08AB     		add	r3, sp, #32
 516              	.LVL53:
 517 0018 83E80300 		stm	r3, {r0, r1}
 518              	.LVL54:
 519              		.loc 1 181 0
 520 001c 10EE100A 		vmov	r0, s0
 521 0020 FFF7FEFF 		bl	__aeabi_f2d
 522              	.LVL55:
 523 0024 41EC100B 		vmov	d0, r0, r1
 524 0028 41EC190B 		vmov	d9, r0, r1
 525 002c FFF7FEFF 		bl	cos
 526              	.LVL56:
 527 0030 0898     		ldr	r0, [sp, #32]
 528 0032 57EC106B 		vmov	r6, r7, d0
 529 0036 FFF7FEFF 		bl	__aeabi_i2d
 530              	.LVL57:
 531 003a B0EE490A 		vmov.f32	s0, s18
 532 003e F0EE690A 		vmov.f32	s1, s19
 533 0042 8046     		mov	r8, r0
 534 0044 8946     		mov	r9, r1
 535 0046 FFF7FEFF 		bl	sin
 536              	.LVL58:
 537 004a 0998     		ldr	r0, [sp, #36]
 538 004c 8DED020B 		vstr.64	d0, [sp, #8]
 539 0050 FFF7FEFF 		bl	__aeabi_i2d
 540              	.LVL59:
 541 0054 CDE90401 		strd	r0, [sp, #16]
 542 0058 2068     		ldr	r0, [r4]
 543 005a FFF7FEFF 		bl	__aeabi_i2d
 544              	.LVL60:
 545 005e 4246     		mov	r2, r8
 546 0060 8246     		mov	r10, r0
 547 0062 4B46     		mov	r3, r9
 548 0064 8B46     		mov	fp, r1
 549 0066 3046     		mov	r0, r6
 550 0068 3946     		mov	r1, r7
 551 006a CDE90667 		strd	r6, [sp, #24]
 552 006e FFF7FEFF 		bl	__aeabi_dmul
 553              	.LVL61:
 554 0072 DDE90423 		ldrd	r2, [sp, #16]
 555 0076 0646     		mov	r6, r0
 556 0078 0F46     		mov	r7, r1
 557 007a DDE90201 		ldrd	r0, [sp, #8]
 558 007e FFF7FEFF 		bl	__aeabi_dmul
 559              	.LVL62:
 560 0082 0246     		mov	r2, r0
 561 0084 0B46     		mov	r3, r1
 562 0086 3046     		mov	r0, r6
 563 0088 3946     		mov	r1, r7
 564 008a FFF7FEFF 		bl	__aeabi_dsub
 565              	.LVL63:
 566 008e 0246     		mov	r2, r0
 567 0090 0B46     		mov	r3, r1
 568 0092 5046     		mov	r0, r10
 569 0094 5946     		mov	r1, fp
 570 0096 FFF7FEFF 		bl	__aeabi_dsub
ARM GAS  /var/folders/qd/4mxf5pkd0zdf0b9dd1hp39180000gn/T//ccsf5yWP.s 			page 11


 571              	.LVL64:
 572 009a FFF7FEFF 		bl	__aeabi_d2iz
 573              	.LVL65:
 574 009e 2060     		str	r0, [r4]
 575 00a0 8246     		mov	r10, r0
 576              		.loc 1 182 0
 577 00a2 6068     		ldr	r0, [r4, #4]
 578 00a4 FFF7FEFF 		bl	__aeabi_i2d
 579              	.LVL66:
 580 00a8 DDE90223 		ldrd	r2, [sp, #8]
 581 00ac 0646     		mov	r6, r0
 582 00ae 0F46     		mov	r7, r1
 583 00b0 4046     		mov	r0, r8
 584 00b2 4946     		mov	r1, r9
 585 00b4 FFF7FEFF 		bl	__aeabi_dmul
 586              	.LVL67:
 587 00b8 DDE90423 		ldrd	r2, [sp, #16]
 588 00bc 8046     		mov	r8, r0
 589 00be 8946     		mov	r9, r1
 590 00c0 DDE90601 		ldrd	r0, [sp, #24]
 591 00c4 FFF7FEFF 		bl	__aeabi_dmul
 592              	.LVL68:
 593 00c8 0246     		mov	r2, r0
 594 00ca 0B46     		mov	r3, r1
 595 00cc 4046     		mov	r0, r8
 596 00ce 4946     		mov	r1, r9
 597 00d0 FFF7FEFF 		bl	__aeabi_dadd
 598              	.LVL69:
 599 00d4 0246     		mov	r2, r0
 600 00d6 0B46     		mov	r3, r1
 601 00d8 3046     		mov	r0, r6
 602 00da 3946     		mov	r1, r7
 603 00dc FFF7FEFF 		bl	__aeabi_dsub
 604              	.LVL70:
 605 00e0 FFF7FEFF 		bl	__aeabi_d2iz
 606              	.LVL71:
 607              		.loc 1 183 0
 608 00e4 94ED020A 		vldr.32	s0, [r4, #8]
 609              	.LBB30:
 610              	.LBB31:
 611              		.loc 1 151 0
 612 00e8 DFED227A 		vldr.32	s15, .L48+8
 613              	.LBE31:
 614              	.LBE30:
 615              		.loc 1 182 0
 616 00ec 6060     		str	r0, [r4, #4]
 617              		.loc 1 183 0
 618 00ee 38EE000A 		vadd.f32	s0, s16, s0
 619              		.loc 1 182 0
 620 00f2 0646     		mov	r6, r0
 621              	.LBB34:
 622              	.LBB32:
 623              		.loc 1 151 0
 624 00f4 B4EEE70A 		vcmpe.f32	s0, s15
 625 00f8 F1EE10FA 		vmrs	APSR_nzcv, FPSCR
 626              	.LBE32:
 627              	.LBE34:
ARM GAS  /var/folders/qd/4mxf5pkd0zdf0b9dd1hp39180000gn/T//ccsf5yWP.s 			page 12


 628              		.loc 1 183 0
 629 00fc 84ED020A 		vstr.32	s0, [r4, #8]
 630              	.LVL72:
 631              	.LBB35:
 632              	.LBB33:
 633              		.loc 1 151 0
 634 0100 08DB     		blt	.L37
 635              	.L39:
 636 0102 30EE670A 		vsub.f32	s0, s0, s15
 637 0106 B4EEE70A 		vcmpe.f32	s0, s15
 638 010a F1EE10FA 		vmrs	APSR_nzcv, FPSCR
 639 010e F8DA     		bge	.L39
 640 0110 84ED020A 		vstr.32	s0, [r4, #8]
 641              	.L37:
 642              		.loc 1 152 0
 643 0114 B5EEC00A 		vcmpe.f32	s0, #0
 644 0118 F1EE10FA 		vmrs	APSR_nzcv, FPSCR
 645 011c 0AD5     		bpl	.L40
 646 011e DFED157A 		vldr.32	s15, .L48+8
 647              	.L42:
 648 0122 30EE270A 		vadd.f32	s0, s0, s15
 649 0126 B5EEC00A 		vcmpe.f32	s0, #0
 650 012a F1EE10FA 		vmrs	APSR_nzcv, FPSCR
 651 012e F8D4     		bmi	.L42
 652 0130 84ED020A 		vstr.32	s0, [r4, #8]
 653              	.L40:
 654              	.LVL73:
 655              	.LBE33:
 656              	.LBE35:
 657              		.loc 1 186 0
 658 0134 10EE100A 		vmov	r0, s0
 659 0138 FFF7FEFF 		bl	__aeabi_f2d
 660              	.LVL74:
 661 013c 3346     		mov	r3, r6
 662 013e CDE90001 		strd	r0, [sp]
 663 0142 5246     		mov	r2, r10
 664 0144 0C49     		ldr	r1, .L48+12
 665 0146 0AA8     		add	r0, sp, #40
 666 0148 FFF7FEFF 		bl	sprintf
 667              	.LVL75:
 668              		.loc 1 187 0
 669 014c 0AA8     		add	r0, sp, #40
 670 014e 0321     		movs	r1, #3
 671 0150 FFF7FEFF 		bl	mod_com_writeMessage
 672              	.LVL76:
 673              		.loc 1 188 0
 674 0154 179A     		ldr	r2, [sp, #92]
 675 0156 2B68     		ldr	r3, [r5]
 676 0158 9A42     		cmp	r2, r3
 677 015a 04D1     		bne	.L47
 678 015c 19B0     		add	sp, sp, #100
 679              		.cfi_remember_state
 680              		.cfi_def_cfa_offset 52
 681              		@ sp needed
 682 015e BDEC048B 		vldm	sp!, {d8-d9}
 683              		.cfi_restore 82
 684              		.cfi_restore 83
ARM GAS  /var/folders/qd/4mxf5pkd0zdf0b9dd1hp39180000gn/T//ccsf5yWP.s 			page 13


 685              		.cfi_restore 80
 686              		.cfi_restore 81
 687              		.cfi_def_cfa_offset 36
 688              	.LVL77:
 689 0162 BDE8F08F 		pop	{r4, r5, r6, r7, r8, r9, r10, fp, pc}
 690              	.LVL78:
 691              	.L47:
 692              		.cfi_restore_state
 693 0166 FFF7FEFF 		bl	__stack_chk_fail
 694              	.LVL79:
 695              	.L49:
 696 016a 00BF     		.align	2
 697              	.L48:
 698 016c 00000000 		.word	__stack_chk_guard
 699 0170 00000000 		.word	.LANCHOR0
 700 0174 DB0FC940 		.word	1086918619
 701 0178 00000000 		.word	.LC2
 702              		.cfi_endproc
 703              	.LFE262:
 704              		.size	moveOrigin, .-moveOrigin
 705              		.section	.text.computeCoefDirecteur,"ax",%progbits
 706              		.align	1
 707              		.p2align 4,,15
 708              		.global	computeCoefDirecteur
 709              		.syntax unified
 710              		.thumb
 711              		.thumb_func
 712              		.fpu fpv4-sp-d16
 713              		.type	computeCoefDirecteur, %function
 714              	computeCoefDirecteur:
 715              	.LFB263:
 716              		.loc 1 191 0
 717              		.cfi_startproc
 718              		@ args = 0, pretend = 0, frame = 56
 719              		@ frame_needed = 0, uses_anonymous_args = 0
 720              	.LVL80:
 721 0000 2DE9F047 		push	{r4, r5, r6, r7, r8, r9, r10, lr}
 722              		.cfi_def_cfa_offset 32
 723              		.cfi_offset 4, -32
 724              		.cfi_offset 5, -28
 725              		.cfi_offset 6, -24
 726              		.cfi_offset 7, -20
 727              		.cfi_offset 8, -16
 728              		.cfi_offset 9, -12
 729              		.cfi_offset 10, -8
 730              		.cfi_offset 14, -4
 731 0004 2DED048B 		vpush.64	{d8, d9}
 732              		.cfi_def_cfa_offset 48
 733              		.cfi_offset 80, -48
 734              		.cfi_offset 81, -44
 735              		.cfi_offset 82, -40
 736              		.cfi_offset 83, -36
 737 0008 DFF8C0A0 		ldr	r10, .L58+4
 738 000c 90B0     		sub	sp, sp, #64
 739              		.cfi_def_cfa_offset 112
 740              		.loc 1 191 0
 741 000e DAF80030 		ldr	r3, [r10]
ARM GAS  /var/folders/qd/4mxf5pkd0zdf0b9dd1hp39180000gn/T//ccsf5yWP.s 			page 14


 742 0012 0F93     		str	r3, [sp, #60]
 743              	.LVL81:
 744              		.loc 1 194 0
 745 0014 0229     		cmp	r1, #2
 746              		.loc 1 191 0
 747 0016 9146     		mov	r9, r2
 748              		.loc 1 194 0
 749 0018 4CDD     		ble	.L54
 750              		.loc 1 192 0
 751 001a 9FED2B9A 		vldr.32	s18, .L58
 752              	.LBB36:
 753              		.loc 1 199 0
 754 001e DFF8B080 		ldr	r8, .L58+8
 755 0022 A0F11007 		sub	r7, r0, #16
 756 0026 0E46     		mov	r6, r1
 757 0028 0446     		mov	r4, r0
 758              	.LBE36:
 759              		.loc 1 192 0
 760 002a F0EE499A 		vmov.f32	s19, s18
 761 002e 07EBC107 		add	r7, r7, r1, lsl #3
 762              	.LVL82:
 763              	.L52:
 764              	.LBB37:
 765              		.loc 1 195 0 discriminator 3
 766 0032 6568     		ldr	r5, [r4, #4]
 767 0034 6269     		ldr	r2, [r4, #20]
 768 0036 2168     		ldr	r1, [r4]
 769 0038 2369     		ldr	r3, [r4, #16]
 770              		.loc 1 199 0 discriminator 3
 771 003a 0096     		str	r6, [sp]
 772              		.loc 1 195 0 discriminator 3
 773 003c AA1A     		subs	r2, r5, r2
 774 003e 07EE902A 		vmov	s15, r2	@ int
 775 0042 CB1A     		subs	r3, r1, r3
 776 0044 F8EEE76A 		vcvt.f32.s32	s13, s15
 777 0048 07EE903A 		vmov	s15, r3	@ int
 778 004c B8EEE77A 		vcvt.f32.s32	s14, s15
 779              		.loc 1 196 0 discriminator 3
 780 0050 07EE901A 		vmov	s15, r1	@ int
 781              		.loc 1 195 0 discriminator 3
 782 0054 C6EE878A 		vdiv.f32	s17, s13, s14
 783              	.LVL83:
 784              		.loc 1 199 0 discriminator 3
 785 0058 4146     		mov	r1, r8
 786 005a 02A8     		add	r0, sp, #8
 787 005c 0834     		adds	r4, r4, #8
 788              		.loc 1 196 0 discriminator 3
 789 005e 07EE105A 		vmov	s14, r5	@ int
 790 0062 F8EEE77A 		vcvt.f32.s32	s15, s15
 791 0066 B8EEC78A 		vcvt.f32.s32	s16, s14
 792 006a A7EEE88A 		vfms.f32	s16, s15, s17
 793              	.LVL84:
 794              		.loc 1 199 0 discriminator 3
 795 006e FFF7FEFF 		bl	sprintf
 796              	.LVL85:
 797              		.loc 1 200 0 discriminator 3
 798 0072 0321     		movs	r1, #3
ARM GAS  /var/folders/qd/4mxf5pkd0zdf0b9dd1hp39180000gn/T//ccsf5yWP.s 			page 15


 799 0074 02A8     		add	r0, sp, #8
 800 0076 FFF7FEFF 		bl	mod_com_writeMessage
 801              	.LVL86:
 802              	.LBE37:
 803              		.loc 1 194 0 discriminator 3
 804 007a A742     		cmp	r7, r4
 805              	.LBB38:
 806              		.loc 1 203 0 discriminator 3
 807 007c 39EE089A 		vadd.f32	s18, s18, s16
 808              	.LVL87:
 809              		.loc 1 202 0 discriminator 3
 810 0080 79EEA89A 		vadd.f32	s19, s19, s17
 811              	.LVL88:
 812              	.LBE38:
 813              		.loc 1 194 0 discriminator 3
 814 0084 D5D1     		bne	.L52
 815 0086 023E     		subs	r6, r6, #2
 816              	.LVL89:
 817 0088 07EE906A 		vmov	s15, r6	@ int
 818 008c F8EEE77A 		vcvt.f32.s32	s15, s15
 819              	.LVL90:
 820              	.L51:
 821              		.loc 1 205 0
 822 0090 C9EEA76A 		vdiv.f32	s13, s19, s15
 823              		.loc 1 207 0
 824 0094 0F9A     		ldr	r2, [sp, #60]
 825              		.loc 1 206 0
 826 0096 89EE277A 		vdiv.f32	s14, s18, s15
 827              		.loc 1 205 0
 828 009a C9ED006A 		vstr.32	s13, [r9]
 829              		.loc 1 207 0
 830 009e DAF80030 		ldr	r3, [r10]
 831              		.loc 1 206 0
 832 00a2 89ED017A 		vstr.32	s14, [r9, #4]
 833              		.loc 1 207 0
 834 00a6 9A42     		cmp	r2, r3
 835 00a8 0BD1     		bne	.L57
 836 00aa 10B0     		add	sp, sp, #64
 837              		.cfi_remember_state
 838              		.cfi_def_cfa_offset 48
 839              		@ sp needed
 840 00ac BDEC048B 		vldm	sp!, {d8-d9}
 841              		.cfi_restore 82
 842              		.cfi_restore 83
 843              		.cfi_restore 80
 844              		.cfi_restore 81
 845              		.cfi_def_cfa_offset 32
 846 00b0 BDE8F087 		pop	{r4, r5, r6, r7, r8, r9, r10, pc}
 847              	.LVL91:
 848              	.L54:
 849              		.cfi_restore_state
 850              		.loc 1 194 0
 851 00b4 DFED047A 		vldr.32	s15, .L58
 852              		.loc 1 192 0
 853 00b8 B0EE679A 		vmov.f32	s18, s15
 854 00bc F0EE679A 		vmov.f32	s19, s15
 855 00c0 E6E7     		b	.L51
ARM GAS  /var/folders/qd/4mxf5pkd0zdf0b9dd1hp39180000gn/T//ccsf5yWP.s 			page 16


 856              	.LVL92:
 857              	.L57:
 858              		.loc 1 207 0
 859 00c2 FFF7FEFF 		bl	__stack_chk_fail
 860              	.LVL93:
 861              	.L59:
 862 00c6 00BF     		.align	2
 863              	.L58:
 864 00c8 00000000 		.word	0
 865 00cc 00000000 		.word	__stack_chk_guard
 866 00d0 00000000 		.word	.LC3
 867              		.cfi_endproc
 868              	.LFE263:
 869              		.size	computeCoefDirecteur, .-computeCoefDirecteur
 870              		.section	.text.computeObjectDistance,"ax",%progbits
 871              		.align	1
 872              		.p2align 4,,15
 873              		.global	computeObjectDistance
 874              		.syntax unified
 875              		.thumb
 876              		.thumb_func
 877              		.fpu fpv4-sp-d16
 878              		.type	computeObjectDistance, %function
 879              	computeObjectDistance:
 880              	.LFB264:
 881              		.loc 1 209 0
 882              		.cfi_startproc
 883              		@ args = 0, pretend = 0, frame = 24
 884              		@ frame_needed = 0, uses_anonymous_args = 0
 885 0000 30B5     		push	{r4, r5, lr}
 886              		.cfi_def_cfa_offset 12
 887              		.cfi_offset 4, -12
 888              		.cfi_offset 5, -8
 889              		.cfi_offset 14, -4
 890 0002 87B0     		sub	sp, sp, #28
 891              		.cfi_def_cfa_offset 40
 892              		.loc 1 209 0
 893 0004 02AD     		add	r5, sp, #8
 894 0006 85E80300 		stm	r5, {r0, r1}
 895 000a 6C46     		mov	r4, sp
 896              		.loc 1 210 0
 897 000c 0398     		ldr	r0, [sp, #12]
 898              		.loc 1 209 0
 899 000e 84E80C00 		stm	r4, {r2, r3}
 900              		.loc 1 210 0
 901 0012 1946     		mov	r1, r3
 902 0014 029B     		ldr	r3, [sp, #8]
 903              		.loc 1 209 0
 904 0016 0D4C     		ldr	r4, .L64
 905              		.loc 1 210 0
 906 0018 401A     		subs	r0, r0, r1
 907 001a 9B1A     		subs	r3, r3, r2
 908 001c 00FB00F0 		mul	r0, r0, r0
 909 0020 03FB0300 		mla	r0, r3, r3, r0
 910              		.loc 1 209 0
 911 0024 2368     		ldr	r3, [r4]
 912 0026 0593     		str	r3, [sp, #20]
ARM GAS  /var/folders/qd/4mxf5pkd0zdf0b9dd1hp39180000gn/T//ccsf5yWP.s 			page 17


 913              	.LVL94:
 914              		.loc 1 210 0
 915 0028 FFF7FEFF 		bl	__aeabi_i2d
 916              	.LVL95:
 917 002c 41EC100B 		vmov	d0, r0, r1
 918 0030 FFF7FEFF 		bl	sqrt
 919              	.LVL96:
 920 0034 51EC100B 		vmov	r0, r1, d0
 921 0038 FFF7FEFF 		bl	__aeabi_d2iz
 922              	.LVL97:
 923              		.loc 1 211 0
 924 003c 059A     		ldr	r2, [sp, #20]
 925 003e 2368     		ldr	r3, [r4]
 926 0040 9A42     		cmp	r2, r3
 927 0042 01D1     		bne	.L63
 928 0044 07B0     		add	sp, sp, #28
 929              		.cfi_remember_state
 930              		.cfi_def_cfa_offset 12
 931              	.LVL98:
 932              		@ sp needed
 933 0046 30BD     		pop	{r4, r5, pc}
 934              	.LVL99:
 935              	.L63:
 936              		.cfi_restore_state
 937 0048 FFF7FEFF 		bl	__stack_chk_fail
 938              	.LVL100:
 939              	.L65:
 940              		.align	2
 941              	.L64:
 942 004c 00000000 		.word	__stack_chk_guard
 943              		.cfi_endproc
 944              	.LFE264:
 945              		.size	computeObjectDistance, .-computeObjectDistance
 946              		.section	.text.checkIfPointObjectInCircle,"ax",%progbits
 947              		.align	1
 948              		.p2align 4,,15
 949              		.global	checkIfPointObjectInCircle
 950              		.syntax unified
 951              		.thumb
 952              		.thumb_func
 953              		.fpu fpv4-sp-d16
 954              		.type	checkIfPointObjectInCircle, %function
 955              	checkIfPointObjectInCircle:
 956              	.LFB265:
 957              		.loc 1 213 0
 958              		.cfi_startproc
 959              		@ args = 0, pretend = 0, frame = 24
 960              		@ frame_needed = 0, uses_anonymous_args = 0
 961 0000 30B5     		push	{r4, r5, lr}
 962              		.cfi_def_cfa_offset 12
 963              		.cfi_offset 4, -12
 964              		.cfi_offset 5, -8
 965              		.cfi_offset 14, -4
 966 0002 87B0     		sub	sp, sp, #28
 967              		.cfi_def_cfa_offset 40
 968              		.loc 1 213 0
 969 0004 6C46     		mov	r4, sp
ARM GAS  /var/folders/qd/4mxf5pkd0zdf0b9dd1hp39180000gn/T//ccsf5yWP.s 			page 18


 970 0006 84E80C00 		stm	r4, {r2, r3}
 971 000a 02AD     		add	r5, sp, #8
 972 000c 85E80300 		stm	r5, {r0, r1}
 973              		.loc 1 214 0
 974 0010 DDE90014 		ldrd	r1, r4, [sp]
 975              		.loc 1 213 0
 976 0014 0A4A     		ldr	r2, .L70
 977              		.loc 1 214 0
 978 0016 039B     		ldr	r3, [sp, #12]
 979              		.loc 1 213 0
 980 0018 1568     		ldr	r5, [r2]
 981 001a 0595     		str	r5, [sp, #20]
 982              	.LVL101:
 983              		.loc 1 214 0
 984 001c 1B1B     		subs	r3, r3, r4
 985              	.LVL102:
 986 001e 401A     		subs	r0, r0, r1
 987              	.LVL103:
 988 0020 03FB03F3 		mul	r3, r3, r3
 989 0024 00FB0030 		mla	r0, r0, r0, r3
 990              		.loc 1 217 0
 991 0028 0599     		ldr	r1, [sp, #20]
 992              	.LVL104:
 993 002a 1268     		ldr	r2, [r2]
 994 002c 3B28     		cmp	r0, #59
 995 002e CCBF     		ite	gt
 996 0030 0020     		movgt	r0, #0
 997 0032 0120     		movle	r0, #1
 998 0034 9142     		cmp	r1, r2
 999 0036 01D1     		bne	.L69
 1000 0038 07B0     		add	sp, sp, #28
 1001              		.cfi_remember_state
 1002              		.cfi_def_cfa_offset 12
 1003              	.LVL105:
 1004              		@ sp needed
 1005 003a 30BD     		pop	{r4, r5, pc}
 1006              	.LVL106:
 1007              	.L69:
 1008              		.cfi_restore_state
 1009 003c FFF7FEFF 		bl	__stack_chk_fail
 1010              	.LVL107:
 1011              	.L71:
 1012              		.align	2
 1013              	.L70:
 1014 0040 00000000 		.word	__stack_chk_guard
 1015              		.cfi_endproc
 1016              	.LFE265:
 1017              		.size	checkIfPointObjectInCircle, .-checkIfPointObjectInCircle
 1018              		.section	.text.checkIfObjectExists,"ax",%progbits
 1019              		.align	1
 1020              		.p2align 4,,15
 1021              		.global	checkIfObjectExists
 1022              		.syntax unified
 1023              		.thumb
 1024              		.thumb_func
 1025              		.fpu fpv4-sp-d16
 1026              		.type	checkIfObjectExists, %function
ARM GAS  /var/folders/qd/4mxf5pkd0zdf0b9dd1hp39180000gn/T//ccsf5yWP.s 			page 19


 1027              	checkIfObjectExists:
 1028              	.LFB266:
 1029              		.loc 1 219 0
 1030              		.cfi_startproc
 1031              		@ args = 0, pretend = 0, frame = 16
 1032              		@ frame_needed = 0, uses_anonymous_args = 0
 1033 0000 F0B5     		push	{r4, r5, r6, r7, lr}
 1034              		.cfi_def_cfa_offset 20
 1035              		.cfi_offset 4, -20
 1036              		.cfi_offset 5, -16
 1037              		.cfi_offset 6, -12
 1038              		.cfi_offset 7, -8
 1039              		.cfi_offset 14, -4
 1040              	.LBB39:
 1041              		.loc 1 220 0
 1042 0002 1A4A     		ldr	r2, .L82
 1043              	.LBE39:
 1044              		.loc 1 219 0
 1045 0004 1A4E     		ldr	r6, .L82+4
 1046              	.LBB44:
 1047              		.loc 1 220 0
 1048 0006 1468     		ldr	r4, [r2]
 1049              	.LBE44:
 1050              		.loc 1 219 0
 1051 0008 3268     		ldr	r2, [r6]
 1052 000a 85B0     		sub	sp, sp, #20
 1053              		.cfi_def_cfa_offset 40
 1054              		.loc 1 219 0
 1055 000c 6B46     		mov	r3, sp
 1056              	.LBB45:
 1057              		.loc 1 220 0
 1058 000e 002C     		cmp	r4, #0
 1059              	.LBE45:
 1060              		.loc 1 219 0
 1061 0010 0392     		str	r2, [sp, #12]
 1062 0012 83E80300 		stm	r3, {r0, r1}
 1063              	.LVL108:
 1064              	.LBB46:
 1065              		.loc 1 220 0
 1066 0016 1EDD     		ble	.L77
 1067              		.loc 1 221 0
 1068 0018 164B     		ldr	r3, .L82+8
 1069 001a 0D46     		mov	r5, r1
 1070 001c 1968     		ldr	r1, [r3]
 1071              	.LVL109:
 1072              	.LBB40:
 1073              	.LBB41:
 1074              		.loc 1 214 0
 1075 001e D1E90032 		ldrd	r3, r2, [r1]
 1076 0022 AA1A     		subs	r2, r5, r2
 1077 0024 02FB02F2 		mul	r2, r2, r2
 1078 0028 C31A     		subs	r3, r0, r3
 1079 002a 03FB0323 		mla	r3, r3, r3, r2
 1080 002e 3B2B     		cmp	r3, #59
 1081 0030 0746     		mov	r7, r0
 1082 0032 17DD     		ble	.L79
 1083              	.LBE41:
ARM GAS  /var/folders/qd/4mxf5pkd0zdf0b9dd1hp39180000gn/T//ccsf5yWP.s 			page 20


 1084              	.LBE40:
 1085              		.loc 1 220 0
 1086 0034 0020     		movs	r0, #0
 1087              	.LVL110:
 1088 0036 0BE0     		b	.L74
 1089              	.LVL111:
 1090              	.L75:
 1091              	.LBB43:
 1092              	.LBB42:
 1093              		.loc 1 214 0
 1094 0038 D1E90232 		ldrd	r3, r2, [r1, #8]
 1095 003c AA1A     		subs	r2, r5, r2
 1096 003e 02FB02F2 		mul	r2, r2, r2
 1097 0042 FB1A     		subs	r3, r7, r3
 1098 0044 03FB0323 		mla	r3, r3, r3, r2
 1099 0048 3B2B     		cmp	r3, #59
 1100 004a 01F10801 		add	r1, r1, #8
 1101              	.LVL112:
 1102 004e 09DD     		ble	.L79
 1103              	.LVL113:
 1104              	.L74:
 1105              	.LBE42:
 1106              	.LBE43:
 1107              		.loc 1 220 0
 1108 0050 0130     		adds	r0, r0, #1
 1109              	.LVL114:
 1110 0052 A042     		cmp	r0, r4
 1111 0054 F0D1     		bne	.L75
 1112              	.LVL115:
 1113              	.L77:
 1114              	.LBE46:
 1115              		.loc 1 223 0
 1116 0056 0020     		movs	r0, #0
 1117              	.L73:
 1118              		.loc 1 224 0
 1119 0058 039A     		ldr	r2, [sp, #12]
 1120 005a 3368     		ldr	r3, [r6]
 1121 005c 9A42     		cmp	r2, r3
 1122 005e 03D1     		bne	.L81
 1123 0060 05B0     		add	sp, sp, #20
 1124              		.cfi_remember_state
 1125              		.cfi_def_cfa_offset 20
 1126              	.LVL116:
 1127              		@ sp needed
 1128 0062 F0BD     		pop	{r4, r5, r6, r7, pc}
 1129              	.LVL117:
 1130              	.L79:
 1131              		.cfi_restore_state
 1132              	.LBB47:
 1133              		.loc 1 222 0
 1134 0064 0120     		movs	r0, #1
 1135 0066 F7E7     		b	.L73
 1136              	.LVL118:
 1137              	.L81:
 1138              	.LBE47:
 1139              		.loc 1 224 0
 1140 0068 FFF7FEFF 		bl	__stack_chk_fail
ARM GAS  /var/folders/qd/4mxf5pkd0zdf0b9dd1hp39180000gn/T//ccsf5yWP.s 			page 21


 1141              	.LVL119:
 1142              	.L83:
 1143              		.align	2
 1144              	.L82:
 1145 006c 00000000 		.word	.LANCHOR1
 1146 0070 00000000 		.word	__stack_chk_guard
 1147 0074 00000000 		.word	.LANCHOR2
 1148              		.cfi_endproc
 1149              	.LFE266:
 1150              		.size	checkIfObjectExists, .-checkIfObjectExists
 1151              		.section	.text.isNear,"ax",%progbits
 1152              		.align	1
 1153              		.p2align 4,,15
 1154              		.global	isNear
 1155              		.syntax unified
 1156              		.thumb
 1157              		.thumb_func
 1158              		.fpu fpv4-sp-d16
 1159              		.type	isNear, %function
 1160              	isNear:
 1161              	.LFB267:
 1162              		.loc 1 226 0
 1163              		.cfi_startproc
 1164              		@ args = 0, pretend = 0, frame = 16
 1165              		@ frame_needed = 0, uses_anonymous_args = 0
 1166 0000 10B5     		push	{r4, lr}
 1167              		.cfi_def_cfa_offset 8
 1168              		.cfi_offset 4, -8
 1169              		.cfi_offset 14, -4
 1170 0002 84B0     		sub	sp, sp, #16
 1171              		.cfi_def_cfa_offset 24
 1172              		.loc 1 226 0
 1173 0004 6B46     		mov	r3, sp
 1174 0006 83E80300 		stm	r3, {r0, r1}
 1175              		.loc 1 227 0
 1176 000a 124B     		ldr	r3, .L88
 1177              		.loc 1 226 0
 1178 000c 124C     		ldr	r4, .L88+4
 1179              	.LBB48:
 1180              	.LBB49:
 1181              		.loc 1 210 0
 1182 000e 0846     		mov	r0, r1
 1183 0010 D3E90021 		ldrd	r2, r1, [r3]
 1184 0014 009B     		ldr	r3, [sp]
 1185 0016 401A     		subs	r0, r0, r1
 1186 0018 9B1A     		subs	r3, r3, r2
 1187 001a 00FB00F0 		mul	r0, r0, r0
 1188 001e 03FB0300 		mla	r0, r3, r3, r0
 1189              	.LBE49:
 1190              	.LBE48:
 1191              		.loc 1 226 0
 1192 0022 2368     		ldr	r3, [r4]
 1193 0024 0393     		str	r3, [sp, #12]
 1194              	.LVL120:
 1195              	.LBB51:
 1196              	.LBB50:
 1197              		.loc 1 210 0
ARM GAS  /var/folders/qd/4mxf5pkd0zdf0b9dd1hp39180000gn/T//ccsf5yWP.s 			page 22


 1198 0026 FFF7FEFF 		bl	__aeabi_i2d
 1199              	.LVL121:
 1200 002a 41EC100B 		vmov	d0, r0, r1
 1201 002e FFF7FEFF 		bl	sqrt
 1202              	.LVL122:
 1203 0032 51EC100B 		vmov	r0, r1, d0
 1204 0036 FFF7FEFF 		bl	__aeabi_d2iz
 1205              	.LVL123:
 1206              	.LBE50:
 1207              	.LBE51:
 1208              		.loc 1 231 0
 1209 003a 039A     		ldr	r2, [sp, #12]
 1210 003c 2368     		ldr	r3, [r4]
 1211 003e B628     		cmp	r0, #182
 1212 0040 CCBF     		ite	gt
 1213 0042 0020     		movgt	r0, #0
 1214 0044 0120     		movle	r0, #1
 1215 0046 9A42     		cmp	r2, r3
 1216 0048 01D1     		bne	.L87
 1217 004a 04B0     		add	sp, sp, #16
 1218              		.cfi_remember_state
 1219              		.cfi_def_cfa_offset 8
 1220              	.LVL124:
 1221              		@ sp needed
 1222 004c 10BD     		pop	{r4, pc}
 1223              	.LVL125:
 1224              	.L87:
 1225              		.cfi_restore_state
 1226 004e FFF7FEFF 		bl	__stack_chk_fail
 1227              	.LVL126:
 1228              	.L89:
 1229 0052 00BF     		.align	2
 1230              	.L88:
 1231 0054 00000000 		.word	.LANCHOR0
 1232 0058 00000000 		.word	__stack_chk_guard
 1233              		.cfi_endproc
 1234              	.LFE267:
 1235              		.size	isNear, .-isNear
 1236              		.section	.text.mod_mapping_init,"ax",%progbits
 1237              		.align	1
 1238              		.p2align 4,,15
 1239              		.global	mod_mapping_init
 1240              		.syntax unified
 1241              		.thumb
 1242              		.thumb_func
 1243              		.fpu fpv4-sp-d16
 1244              		.type	mod_mapping_init, %function
 1245              	mod_mapping_init:
 1246              	.LFB268:
 1247              		.loc 1 239 0
 1248              		.cfi_startproc
 1249              		@ args = 0, pretend = 0, frame = 8
 1250              		@ frame_needed = 0, uses_anonymous_args = 0
 1251 0000 10B5     		push	{r4, lr}
 1252              		.cfi_def_cfa_offset 8
 1253              		.cfi_offset 4, -8
 1254              		.cfi_offset 14, -4
ARM GAS  /var/folders/qd/4mxf5pkd0zdf0b9dd1hp39180000gn/T//ccsf5yWP.s 			page 23


 1255 0002 0E4C     		ldr	r4, .L95
 1256              	.LBB52:
 1257              	.LBB53:
 1258              		.loc 1 249 0
 1259 0004 0E4B     		ldr	r3, .L95+4
 1260              	.LBE53:
 1261              	.LBE52:
 1262              		.loc 1 239 0
 1263 0006 2268     		ldr	r2, [r4]
 1264 0008 82B0     		sub	sp, sp, #8
 1265              		.cfi_def_cfa_offset 16
 1266              	.LBB56:
 1267              	.LBB54:
 1268              		.loc 1 249 0
 1269 000a 0021     		movs	r1, #0
 1270              	.LBE54:
 1271              	.LBE56:
 1272              		.loc 1 239 0
 1273 000c 0192     		str	r2, [sp, #4]
 1274              		.loc 1 243 0
 1275 000e 0820     		movs	r0, #8
 1276              	.LBB57:
 1277              	.LBB55:
 1278              		.loc 1 249 0
 1279 0010 0022     		movs	r2, #0
 1280 0012 9960     		str	r1, [r3, #8]	@ float
 1281 0014 C3E90022 		strd	r2, r2, [r3]
 1282              	.LBE55:
 1283              	.LBE57:
 1284              		.loc 1 243 0
 1285 0018 FFF7FEFF 		bl	malloc
 1286              	.LVL127:
 1287              		.loc 1 244 0
 1288 001c 019A     		ldr	r2, [sp, #4]
 1289 001e 2368     		ldr	r3, [r4]
 1290              		.loc 1 243 0
 1291 0020 0849     		ldr	r1, .L95+8
 1292              		.loc 1 244 0
 1293 0022 9A42     		cmp	r2, r3
 1294              		.loc 1 243 0
 1295 0024 0860     		str	r0, [r1]
 1296              		.loc 1 244 0
 1297 0026 07D1     		bne	.L94
 1298 0028 0030     		adds	r0, r0, #0
 1299 002a 18BF     		it	ne
 1300 002c 0120     		movne	r0, #1
 1301              		.loc 1 245 0
 1302 002e 02B0     		add	sp, sp, #8
 1303              		.cfi_remember_state
 1304              		.cfi_def_cfa_offset 8
 1305              		@ sp needed
 1306 0030 BDE81040 		pop	{r4, lr}
 1307              		.cfi_restore 14
 1308              		.cfi_restore 4
 1309              		.cfi_def_cfa_offset 0
 1310              		.loc 1 244 0
 1311 0034 FFF7FEBF 		b	assert
ARM GAS  /var/folders/qd/4mxf5pkd0zdf0b9dd1hp39180000gn/T//ccsf5yWP.s 			page 24


 1312              	.LVL128:
 1313              	.L94:
 1314              		.cfi_restore_state
 1315 0038 FFF7FEFF 		bl	__stack_chk_fail
 1316              	.LVL129:
 1317              	.L96:
 1318              		.align	2
 1319              	.L95:
 1320 003c 00000000 		.word	__stack_chk_guard
 1321 0040 00000000 		.word	.LANCHOR0
 1322 0044 00000000 		.word	.LANCHOR2
 1323              		.cfi_endproc
 1324              	.LFE268:
 1325              		.size	mod_mapping_init, .-mod_mapping_init
 1326              		.section	.text.mod_mapping_resetCoordinates,"ax",%progbits
 1327              		.align	1
 1328              		.p2align 4,,15
 1329              		.global	mod_mapping_resetCoordinates
 1330              		.syntax unified
 1331              		.thumb
 1332              		.thumb_func
 1333              		.fpu fpv4-sp-d16
 1334              		.type	mod_mapping_resetCoordinates, %function
 1335              	mod_mapping_resetCoordinates:
 1336              	.LFB269:
 1337              		.loc 1 248 0
 1338              		.cfi_startproc
 1339              		@ args = 0, pretend = 0, frame = 8
 1340              		@ frame_needed = 0, uses_anonymous_args = 0
 1341 0000 10B5     		push	{r4, lr}
 1342              		.cfi_def_cfa_offset 8
 1343              		.cfi_offset 4, -8
 1344              		.cfi_offset 14, -4
 1345 0002 094A     		ldr	r2, .L101
 1346              		.loc 1 249 0
 1347 0004 094B     		ldr	r3, .L101+4
 1348              		.loc 1 248 0
 1349 0006 1168     		ldr	r1, [r2]
 1350 0008 82B0     		sub	sp, sp, #8
 1351              		.cfi_def_cfa_offset 16
 1352              		.loc 1 249 0
 1353 000a 0024     		movs	r4, #0
 1354              		.loc 1 248 0
 1355 000c 0191     		str	r1, [sp, #4]
 1356              		.loc 1 250 0
 1357 000e 0198     		ldr	r0, [sp, #4]
 1358 0010 1168     		ldr	r1, [r2]
 1359              		.loc 1 249 0
 1360 0012 9C60     		str	r4, [r3, #8]	@ float
 1361 0014 0022     		movs	r2, #0
 1362              		.loc 1 250 0
 1363 0016 8842     		cmp	r0, r1
 1364              		.loc 1 249 0
 1365 0018 C3E90022 		strd	r2, r2, [r3]
 1366              		.loc 1 250 0
 1367 001c 01D1     		bne	.L100
 1368 001e 02B0     		add	sp, sp, #8
ARM GAS  /var/folders/qd/4mxf5pkd0zdf0b9dd1hp39180000gn/T//ccsf5yWP.s 			page 25


 1369              		.cfi_remember_state
 1370              		.cfi_def_cfa_offset 8
 1371              		@ sp needed
 1372 0020 10BD     		pop	{r4, pc}
 1373              	.L100:
 1374              		.cfi_restore_state
 1375 0022 FFF7FEFF 		bl	__stack_chk_fail
 1376              	.LVL130:
 1377              	.L102:
 1378 0026 00BF     		.align	2
 1379              	.L101:
 1380 0028 00000000 		.word	__stack_chk_guard
 1381 002c 00000000 		.word	.LANCHOR0
 1382              		.cfi_endproc
 1383              	.LFE269:
 1384              		.size	mod_mapping_resetCoordinates, .-mod_mapping_resetCoordinates
 1385              		.section	.text.mod_mapping_updatePositionWheelSpeedType,"ax",%progbits
 1386              		.align	1
 1387              		.p2align 4,,15
 1388              		.global	mod_mapping_updatePositionWheelSpeedType
 1389              		.syntax unified
 1390              		.thumb
 1391              		.thumb_func
 1392              		.fpu fpv4-sp-d16
 1393              		.type	mod_mapping_updatePositionWheelSpeedType, %function
 1394              	mod_mapping_updatePositionWheelSpeedType:
 1395              	.LFB270:
 1396              		.loc 1 253 0
 1397              		.cfi_startproc
 1398              		@ args = 0, pretend = 0, frame = 72
 1399              		@ frame_needed = 0, uses_anonymous_args = 0
 1400              	.LVL131:
 1401 0000 70B5     		push	{r4, r5, r6, lr}
 1402              		.cfi_def_cfa_offset 16
 1403              		.cfi_offset 4, -16
 1404              		.cfi_offset 5, -12
 1405              		.cfi_offset 6, -8
 1406              		.cfi_offset 14, -4
 1407 0002 144E     		ldr	r6, .L107
 1408              		.loc 1 254 0
 1409 0004 144C     		ldr	r4, .L107+4
 1410              		.loc 1 253 0
 1411 0006 3368     		ldr	r3, [r6]
 1412 0008 94B0     		sub	sp, sp, #80
 1413              		.cfi_def_cfa_offset 96
 1414              		.loc 1 254 0
 1415 000a 02AD     		add	r5, sp, #8
 1416 000c 0246     		mov	r2, r0
 1417              		.loc 1 253 0
 1418 000e 1393     		str	r3, [sp, #76]
 1419              		.loc 1 254 0
 1420 0010 2846     		mov	r0, r5
 1421              	.LVL132:
 1422 0012 0B46     		mov	r3, r1
 1423 0014 2146     		mov	r1, r4
 1424              	.LVL133:
 1425 0016 FFF7FEFF 		bl	newAbsolutePositionWheelSpeedType
ARM GAS  /var/folders/qd/4mxf5pkd0zdf0b9dd1hp39180000gn/T//ccsf5yWP.s 			page 26


 1426              	.LVL134:
 1427 001a 95E80700 		ldm	r5, {r0, r1, r2}
 1428 001e 84E80700 		stm	r4, {r0, r1, r2}
 1429              		.loc 1 256 0
 1430 0022 0546     		mov	r5, r0
 1431 0024 A068     		ldr	r0, [r4, #8]	@ float
 1432 0026 0C46     		mov	r4, r1
 1433 0028 FFF7FEFF 		bl	__aeabi_f2d
 1434              	.LVL135:
 1435 002c 2346     		mov	r3, r4
 1436 002e CDE90001 		strd	r0, [sp]
 1437 0032 2A46     		mov	r2, r5
 1438 0034 0949     		ldr	r1, .L107+8
 1439 0036 06A8     		add	r0, sp, #24
 1440 0038 FFF7FEFF 		bl	sprintf
 1441              	.LVL136:
 1442              		.loc 1 257 0
 1443 003c 06A8     		add	r0, sp, #24
 1444 003e 0321     		movs	r1, #3
 1445 0040 FFF7FEFF 		bl	mod_com_writeMessage
 1446              	.LVL137:
 1447              		.loc 1 258 0
 1448 0044 139A     		ldr	r2, [sp, #76]
 1449 0046 3368     		ldr	r3, [r6]
 1450 0048 9A42     		cmp	r2, r3
 1451 004a 01D1     		bne	.L106
 1452 004c 14B0     		add	sp, sp, #80
 1453              		.cfi_remember_state
 1454              		.cfi_def_cfa_offset 16
 1455              		@ sp needed
 1456 004e 70BD     		pop	{r4, r5, r6, pc}
 1457              	.L106:
 1458              		.cfi_restore_state
 1459 0050 FFF7FEFF 		bl	__stack_chk_fail
 1460              	.LVL138:
 1461              	.L108:
 1462              		.align	2
 1463              	.L107:
 1464 0054 00000000 		.word	__stack_chk_guard
 1465 0058 00000000 		.word	.LANCHOR0
 1466 005c 00000000 		.word	.LC4
 1467              		.cfi_endproc
 1468              	.LFE270:
 1469              		.size	mod_mapping_updatePositionWheelSpeedType, .-mod_mapping_updatePositionWheelSpeedType
 1470              		.global	__aeabi_d2f
 1471              		.section	.text.mod_mapping_computeWallLocation,"ax",%progbits
 1472              		.align	1
 1473              		.p2align 4,,15
 1474              		.global	mod_mapping_computeWallLocation
 1475              		.syntax unified
 1476              		.thumb
 1477              		.thumb_func
 1478              		.fpu fpv4-sp-d16
 1479              		.type	mod_mapping_computeWallLocation, %function
 1480              	mod_mapping_computeWallLocation:
 1481              	.LFB271:
 1482              		.loc 1 261 0
ARM GAS  /var/folders/qd/4mxf5pkd0zdf0b9dd1hp39180000gn/T//ccsf5yWP.s 			page 27


 1483              		.cfi_startproc
 1484              		@ args = 0, pretend = 0, frame = 152
 1485              		@ frame_needed = 0, uses_anonymous_args = 0
 1486              	.LVL139:
 1487 0000 2DE9F04F 		push	{r4, r5, r6, r7, r8, r9, r10, fp, lr}
 1488              		.cfi_def_cfa_offset 36
 1489              		.cfi_offset 4, -36
 1490              		.cfi_offset 5, -32
 1491              		.cfi_offset 6, -28
 1492              		.cfi_offset 7, -24
 1493              		.cfi_offset 8, -20
 1494              		.cfi_offset 9, -16
 1495              		.cfi_offset 10, -12
 1496              		.cfi_offset 11, -8
 1497              		.cfi_offset 14, -4
 1498 0004 2DED028B 		vpush.64	{d8}
 1499              		.cfi_def_cfa_offset 44
 1500              		.cfi_offset 80, -44
 1501              		.cfi_offset 81, -40
 1502 0008 D04B     		ldr	r3, .L148
 1503 000a A9B0     		sub	sp, sp, #164
 1504              		.cfi_def_cfa_offset 208
 1505              		.loc 1 261 0
 1506 000c 1B68     		ldr	r3, [r3]
 1507 000e 2793     		str	r3, [sp, #156]
 1508              	.LVL140:
 1509 0010 0446     		mov	r4, r0
 1510              		.loc 1 278 0
 1511 0012 4FF4A860 		mov	r0, #1344
 1512              	.LVL141:
 1513 0016 FFF7FEFF 		bl	malloc
 1514              	.LVL142:
 1515              		.loc 1 279 0
 1516 001a 0646     		mov	r6, r0
 1517 001c 0030     		adds	r0, r0, #0
 1518              	.LVL143:
 1519 001e 18BF     		it	ne
 1520 0020 0120     		movne	r0, #1
 1521 0022 FFF7FEFF 		bl	assert
 1522              	.LVL144:
 1523              		.loc 1 264 0
 1524 0026 0027     		movs	r7, #0
 1525              		.loc 1 280 0
 1526 0028 0223     		movs	r3, #2
 1527 002a 2046     		mov	r0, r4
 1528 002c 86F8A030 		strb	r3, [r6, #160]
 1529              	.LVL145:
 1530 0030 04F5207E 		add	lr, r4, #640
 1531              		.loc 1 263 0
 1532 0034 3D46     		mov	r5, r7
 1533              		.loc 1 315 0
 1534 0036 B946     		mov	r9, r7
 1535 0038 4FF0A80C 		mov	ip, #168
 1536              		.loc 1 331 0
 1537 003c 4FF00108 		mov	r8, #1
 1538 0040 19E0     		b	.L120
 1539              	.LVL146:
ARM GAS  /var/folders/qd/4mxf5pkd0zdf0b9dd1hp39180000gn/T//ccsf5yWP.s 			page 28


 1540              	.L111:
 1541              		.loc 1 302 0
 1542 0042 012C     		cmp	r4, #1
 1543 0044 3DD0     		beq	.L144
 1544              		.loc 1 318 0
 1545 0046 84BB     		cbnz	r4, .L142
 1546 0048 03EB8504 		add	r4, r3, r5, lsl #2
 1547              		.loc 1 319 0
 1548 004c 54F8044C 		ldr	r4, [r4, #-4]
 1549 0050 E468     		ldr	r4, [r4, #12]
 1550 0052 A142     		cmp	r1, r4
 1551 0054 27DC     		bgt	.L143
 1552              		.loc 1 322 0
 1553 0056 0BD0     		beq	.L110
 1554              		.loc 1 327 0
 1555 0058 0137     		adds	r7, r7, #1
 1556              	.LVL147:
 1557 005a A832     		adds	r2, r2, #168
 1558              		.loc 1 329 0
 1559 005c 072F     		cmp	r7, #7
 1560              		.loc 1 326 0
 1561 005e C3F8A450 		str	r5, [r3, #164]
 1562 0062 06EB0203 		add	r3, r6, r2
 1563              		.loc 1 329 0
 1564 0066 49DC     		bgt	.L117
 1565              		.loc 1 330 0
 1566 0068 B050     		str	r0, [r6, r2]
 1567              		.loc 1 331 0
 1568 006a 0125     		movs	r5, #1
 1569              	.LVL148:
 1570 006c 83F8A080 		strb	r8, [r3, #160]
 1571              	.L110:
 1572              	.LVL149:
 1573 0070 1030     		adds	r0, r0, #16
 1574              		.loc 1 281 0 discriminator 2
 1575 0072 7045     		cmp	r0, lr
 1576 0074 11D0     		beq	.L145
 1577              	.LVL150:
 1578              	.L120:
 1579              		.loc 1 282 0
 1580 0076 C168     		ldr	r1, [r0, #12]
 1581 0078 0CFB07F2 		mul	r2, ip, r7
 1582 007c 3129     		cmp	r1, #49
 1583 007e 06EB0203 		add	r3, r6, r2
 1584 0082 F5DD     		ble	.L110
 1585              		.loc 1 285 0
 1586 0084 93F8A040 		ldrb	r4, [r3, #160]	@ zero_extendqisi2
 1587 0088 022C     		cmp	r4, #2
 1588 008a DAD1     		bne	.L111
 1589              		.loc 1 285 0 is_stmt 0 discriminator 1
 1590 008c 7DB9     		cbnz	r5, .L112
 1591              		.loc 1 286 0 is_stmt 1
 1592 008e B050     		str	r0, [r6, r2]
 1593 0090 1030     		adds	r0, r0, #16
 1594              		.loc 1 281 0
 1595 0092 7045     		cmp	r0, lr
 1596              		.loc 1 286 0
ARM GAS  /var/folders/qd/4mxf5pkd0zdf0b9dd1hp39180000gn/T//ccsf5yWP.s 			page 29


 1597 0094 4FF00105 		mov	r5, #1
 1598              	.LVL151:
 1599              		.loc 1 281 0
 1600 0098 EDD1     		bne	.L120
 1601              	.L145:
 1602              		.loc 1 339 0
 1603 009a 022F     		cmp	r7, #2
 1604              		.loc 1 336 0
 1605 009c C3F8A450 		str	r5, [r3, #164]
 1606              		.loc 1 339 0
 1607 00a0 2FDC     		bgt	.L129
 1608 00a2 0020     		movs	r0, #0
 1609 00a4 47E1     		b	.L121
 1610              	.L143:
 1611              		.loc 1 320 0
 1612 00a6 43F82500 		str	r0, [r3, r5, lsl #2]
 1613              	.L142:
 1614 00aa 0135     		adds	r5, r5, #1
 1615              	.LVL152:
 1616 00ac E0E7     		b	.L110
 1617              	.LVL153:
 1618              	.L112:
 1619              		.loc 1 290 0
 1620 00ae B258     		ldr	r2, [r6, r2]
 1621 00b0 D268     		ldr	r2, [r2, #12]
 1622 00b2 9142     		cmp	r1, r2
 1623 00b4 1BDA     		bge	.L114
 1624              		.loc 1 291 0
 1625 00b6 83F8A080 		strb	r8, [r3, #160]
 1626              		.loc 1 292 0
 1627 00ba 43F82500 		str	r0, [r3, r5, lsl #2]
 1628 00be 0135     		adds	r5, r5, #1
 1629              	.LVL154:
 1630 00c0 D6E7     		b	.L110
 1631              	.LVL155:
 1632              	.L144:
 1633 00c2 03EB850A 		add	r10, r3, r5, lsl #2
 1634              		.loc 1 303 0
 1635 00c6 5AF804AC 		ldr	r10, [r10, #-4]
 1636 00ca DAF80CA0 		ldr	r10, [r10, #12]
 1637 00ce 5145     		cmp	r1, r10
 1638 00d0 E9DB     		blt	.L143
 1639              		.loc 1 306 0
 1640 00d2 CDD0     		beq	.L110
 1641              		.loc 1 311 0
 1642 00d4 0137     		adds	r7, r7, #1
 1643              	.LVL156:
 1644 00d6 A832     		adds	r2, r2, #168
 1645              		.loc 1 313 0
 1646 00d8 072F     		cmp	r7, #7
 1647              		.loc 1 310 0
 1648 00da C3F8A450 		str	r5, [r3, #164]
 1649 00de 06EB0203 		add	r3, r6, r2
 1650              		.loc 1 313 0
 1651 00e2 0BDC     		bgt	.L117
 1652              		.loc 1 314 0
 1653 00e4 B050     		str	r0, [r6, r2]
ARM GAS  /var/folders/qd/4mxf5pkd0zdf0b9dd1hp39180000gn/T//ccsf5yWP.s 			page 30


 1654              		.loc 1 315 0
 1655 00e6 2546     		mov	r5, r4
 1656 00e8 83F8A090 		strb	r9, [r3, #160]
 1657 00ec C0E7     		b	.L110
 1658              	.LVL157:
 1659              	.L114:
 1660              		.loc 1 294 0
 1661 00ee BFD0     		beq	.L110
 1662              		.loc 1 298 0
 1663 00f0 83F8A090 		strb	r9, [r3, #160]
 1664              		.loc 1 299 0
 1665 00f4 43F82500 		str	r0, [r3, r5, lsl #2]
 1666 00f8 0135     		adds	r5, r5, #1
 1667              	.LVL158:
 1668 00fa B9E7     		b	.L110
 1669              	.LVL159:
 1670              	.L117:
 1671              		.loc 1 336 0
 1672 00fc 0022     		movs	r2, #0
 1673 00fe C3F8A420 		str	r2, [r3, #164]
 1674              	.LVL160:
 1675              	.L129:
 1676              	.LBB58:
 1677              		.loc 1 346 0
 1678 0102 0023     		movs	r3, #0
 1679 0104 CDE90C33 		strd	r3, r3, [sp, #48]
 1680 0108 CDE90E33 		strd	r3, r3, [sp, #56]
 1681              	.LVL161:
 1682 010c 08AC     		add	r4, sp, #32
 1683 010e 0394     		str	r4, [sp, #12]
 1684              	.LVL162:
 1685              	.L122:
 1686              	.LBB59:
 1687              		.loc 1 348 0 discriminator 3
 1688 0110 0820     		movs	r0, #8
 1689 0112 FFF7FEFF 		bl	malloc
 1690              	.LVL163:
 1691 0116 44F8040B 		str	r0, [r4], #4
 1692 011a 0CAB     		add	r3, sp, #48
 1693 011c A342     		cmp	r3, r4
 1694 011e F7D1     		bne	.L122
 1695 0120 331F     		subs	r3, r6, #4
 1696 0122 0293     		str	r3, [sp, #8]
 1697              	.LBE59:
 1698              		.loc 1 350 0
 1699 0124 0023     		movs	r3, #0
 1700 0126 0494     		str	r4, [sp, #16]
 1701 0128 06AD     		add	r5, sp, #24
 1702 012a 0596     		str	r6, [sp, #20]
 1703 012c 9A46     		mov	r10, r3
 1704              	.LVL164:
 1705              	.L125:
 1706              		.loc 1 352 0
 1707 012e 029F     		ldr	r7, [sp, #8]
 1708 0130 D7F8A810 		ldr	r1, [r7, #168]
 1709 0134 0029     		cmp	r1, #0
 1710              		.loc 1 351 0
ARM GAS  /var/folders/qd/4mxf5pkd0zdf0b9dd1hp39180000gn/T//ccsf5yWP.s 			page 31


 1711 0136 4FEA6A03 		asr	r3, r10, #1
 1712              	.LVL165:
 1713              		.loc 1 352 0
 1714 013a 2EDD     		ble	.L123
 1715 013c 28AA     		add	r2, sp, #160
 1716 013e 02EB8303 		add	r3, r2, r3, lsl #2
 1717              	.LVL166:
 1718              		.loc 1 353 0
 1719 0142 9846     		mov	r8, r3
 1720 0144 53F8700C 		ldr	r0, [r3, #-112]
 1721 0148 53F8804C 		ldr	r4, [r3, #-128]
 1722 014c 00F1010B 		add	fp, r0, #1
 1723              		.loc 1 352 0
 1724 0150 5B46     		mov	r3, fp
 1725 0152 4FEACB06 		lsl	r6, fp, #3
 1726 0156 00EB0109 		add	r9, r0, r1
 1727 015a BB46     		mov	fp, r7
 1728 015c 1F46     		mov	r7, r3
 1729 015e 00E0     		b	.L124
 1730              	.L146:
 1731 0160 0137     		adds	r7, r7, #1
 1732              	.LVL167:
 1733              	.L124:
 1734              		.loc 1 353 0 discriminator 3
 1735 0162 3146     		mov	r1, r6
 1736 0164 2046     		mov	r0, r4
 1737 0166 FFF7FEFF 		bl	realloc
 1738              	.LVL168:
 1739 016a 0446     		mov	r4, r0
 1740              		.loc 1 354 0 discriminator 3
 1741 016c 0030     		adds	r0, r0, #0
 1742 016e 18BF     		it	ne
 1743 0170 0120     		movne	r0, #1
 1744              		.loc 1 353 0 discriminator 3
 1745 0172 48F8804C 		str	r4, [r8, #-128]
 1746              		.loc 1 354 0 discriminator 3
 1747 0176 FFF7FEFF 		bl	assert
 1748              	.LVL169:
 1749              		.loc 1 355 0 discriminator 3
 1750 017a 5BF8041F 		ldr	r1, [fp, #4]!
 1751 017e 2846     		mov	r0, r5
 1752 0180 FFF7FEFF 		bl	measurementToPoint
 1753              	.LVL170:
 1754 0184 95E80300 		ldm	r5, {r0, r1}
 1755 0188 A319     		adds	r3, r4, r6
 1756              		.loc 1 352 0 discriminator 3
 1757 018a 4F45     		cmp	r7, r9
 1758              		.loc 1 355 0 discriminator 3
 1759 018c 03E90300 		stmdb	r3, {r0, r1}
 1760 0190 06F10806 		add	r6, r6, #8
 1761              		.loc 1 356 0 discriminator 3
 1762 0194 48F8707C 		str	r7, [r8, #-112]
 1763              		.loc 1 352 0 discriminator 3
 1764 0198 E2D1     		bne	.L146
 1765              	.LVL171:
 1766              	.L123:
 1767 019a 029B     		ldr	r3, [sp, #8]
ARM GAS  /var/folders/qd/4mxf5pkd0zdf0b9dd1hp39180000gn/T//ccsf5yWP.s 			page 32


 1768              		.loc 1 350 0
 1769 019c 0AF1010A 		add	r10, r10, #1
 1770              	.LVL172:
 1771 01a0 A833     		adds	r3, r3, #168
 1772 01a2 BAF1080F 		cmp	r10, #8
 1773 01a6 0293     		str	r3, [sp, #8]
 1774 01a8 C1D1     		bne	.L125
 1775 01aa 059E     		ldr	r6, [sp, #20]
 1776              		.loc 1 359 0
 1777 01ac 3046     		mov	r0, r6
 1778 01ae FFF7FEFF 		bl	free
 1779              	.LVL173:
 1780 01b2 DDE90348 		ldrd	r4, r8, [sp, #12]
 1781 01b6 12AD     		add	r5, sp, #72
 1782 01b8 2E46     		mov	r6, r5
 1783 01ba 0CAF     		add	r7, sp, #48
 1784              	.LVL174:
 1785              	.L126:
 1786              	.LBB60:
 1787              		.loc 1 364 0 discriminator 3
 1788 01bc 54F8040B 		ldr	r0, [r4], #4
 1789 01c0 57F8041B 		ldr	r1, [r7], #4
 1790 01c4 3246     		mov	r2, r6
 1791 01c6 FFF7FEFF 		bl	computeCoefDirecteur
 1792              	.LVL175:
 1793              		.loc 1 363 0 discriminator 3
 1794 01ca 4445     		cmp	r4, r8
 1795 01cc 06F10806 		add	r6, r6, #8
 1796 01d0 F4D1     		bne	.L126
 1797              	.LBE60:
 1798              	.LBB61:
 1799              		.loc 1 368 0
 1800 01d2 039F     		ldr	r7, [sp, #12]
 1801 01d4 0026     		movs	r6, #0
 1802              	.L127:
 1803              		.loc 1 367 0 discriminator 3
 1804 01d6 3868     		ldr	r0, [r7]
 1805 01d8 FFF7FEFF 		bl	free
 1806              	.LVL176:
 1807              		.loc 1 368 0 discriminator 3
 1808 01dc 47F8046B 		str	r6, [r7], #4
 1809              	.LVL177:
 1810              		.loc 1 366 0 discriminator 3
 1811 01e0 BC42     		cmp	r4, r7
 1812 01e2 F8D1     		bne	.L127
 1813              	.LVL178:
 1814              	.LBE61:
 1815 01e4 0023     		movs	r3, #0
 1816              	.LVL179:
 1817              	.L128:
 1818              	.LBE58:
 1819              	.LBB62:
 1820              		.loc 1 373 0 discriminator 3
 1821 01e6 2A46     		mov	r2, r5
 1822 01e8 D5ED037A 		vldr.32	s15, [r5, #12]
 1823 01ec D5ED025A 		vldr.32	s11, [r5, #8]
 1824 01f0 95ED016A 		vldr.32	s12, [r5, #4]
ARM GAS  /var/folders/qd/4mxf5pkd0zdf0b9dd1hp39180000gn/T//ccsf5yWP.s 			page 33


 1825 01f4 D2ED006A 		vldr.32	s13, [r2]
 1826 01f8 37EEC66A 		vsub.f32	s12, s15, s12
 1827 01fc 76EEE56A 		vsub.f32	s13, s13, s11
 1828 0200 0CA8     		add	r0, sp, #48
 1829 0202 86EE267A 		vdiv.f32	s14, s12, s13
 1830              		.loc 1 374 0 discriminator 3
 1831 0206 0CAA     		add	r2, sp, #48
 1832 0208 1A44     		add	r2, r2, r3
 1833              		.loc 1 373 0 discriminator 3
 1834 020a 0835     		adds	r5, r5, #8
 1835 020c BDEEC77A 		vcvt.s32.f32	s14, s14
 1836              		.loc 1 374 0 discriminator 3
 1837 0210 F8EEC76A 		vcvt.f32.s32	s13, s14
 1838              		.loc 1 373 0 discriminator 3
 1839 0214 17EE101A 		vmov	r1, s14	@ int
 1840              		.loc 1 374 0 discriminator 3
 1841 0218 E5EEA67A 		vfma.f32	s15, s11, s13
 1842              		.loc 1 373 0 discriminator 3
 1843 021c C150     		str	r1, [r0, r3]
 1844 021e 0833     		adds	r3, r3, #8
 1845              		.loc 1 374 0 discriminator 3
 1846 0220 FDEEE77A 		vcvt.s32.f32	s15, s15
 1847              		.loc 1 372 0 discriminator 3
 1848 0224 182B     		cmp	r3, #24
 1849              		.loc 1 374 0 discriminator 3
 1850 0226 C2ED017A 		vstr.32	s15, [r2, #4]	@ int
 1851              		.loc 1 372 0 discriminator 3
 1852 022a DCD1     		bne	.L128
 1853              	.LBE62:
 1854              		.loc 1 376 0
 1855 022c 1498     		ldr	r0, [sp, #80]	@ float
 1856              		.loc 1 380 0
 1857 022e 484C     		ldr	r4, .L148+4
 1858              		.loc 1 376 0
 1859 0230 FFF7FEFF 		bl	__aeabi_f2d
 1860              	.LVL180:
 1861 0234 41EC100B 		vmov	d0, r0, r1
 1862 0238 FFF7FEFF 		bl	atan
 1863              	.LVL181:
 1864 023c 51EC100B 		vmov	r0, r1, d0
 1865 0240 FFF7FEFF 		bl	__aeabi_d2f
 1866              	.LVL182:
 1867              		.loc 1 378 0
 1868 0244 0CAB     		add	r3, sp, #48
 1869              		.loc 1 376 0
 1870 0246 80F00046 		eor	r6, r0, #-2147483648
 1871              	.LVL183:
 1872              		.loc 1 378 0
 1873 024a 00EE106A 		vmov	s0, r6
 1874 024e 93E80300 		ldm	r3, {r0, r1}
 1875              		.loc 1 380 0
 1876 0252 0025     		movs	r5, #0
 1877              		.loc 1 378 0
 1878 0254 FFF7FEFF 		bl	moveOrigin
 1879              	.LVL184:
 1880              		.loc 1 382 0
 1881 0258 3046     		mov	r0, r6	@ float
ARM GAS  /var/folders/qd/4mxf5pkd0zdf0b9dd1hp39180000gn/T//ccsf5yWP.s 			page 34


 1882              		.loc 1 380 0
 1883 025a 2560     		str	r5, [r4]
 1884              		.loc 1 381 0
 1885 025c A560     		str	r5, [r4, #8]
 1886              		.loc 1 382 0
 1887 025e FFF7FEFF 		bl	__aeabi_f2d
 1888              	.LVL185:
 1889 0262 41EC100B 		vmov	d0, r0, r1
 1890 0266 41EC180B 		vmov	d8, r0, r1
 1891 026a FFF7FEFF 		bl	cos
 1892              	.LVL186:
 1893 026e 5BEC10AB 		vmov	r10, fp, d0
 1894              	.LVL187:
 1895 0272 B0EE480A 		vmov.f32	s0, s16
 1896 0276 F0EE680A 		vmov.f32	s1, s17
 1897 027a FFF7FEFF 		bl	sin
 1898              	.LVL188:
 1899 027e 0E98     		ldr	r0, [sp, #56]
 1900 0280 57EC106B 		vmov	r6, r7, d0
 1901              	.LVL189:
 1902 0284 FFF7FEFF 		bl	__aeabi_i2d
 1903              	.LVL190:
 1904 0288 5246     		mov	r2, r10
 1905 028a 5B46     		mov	r3, fp
 1906 028c FFF7FEFF 		bl	__aeabi_dmul
 1907              	.LVL191:
 1908 0290 304B     		ldr	r3, .L148+8
 1909 0292 8046     		mov	r8, r0
 1910 0294 1868     		ldr	r0, [r3]
 1911 0296 8946     		mov	r9, r1
 1912 0298 FFF7FEFF 		bl	__aeabi_i2d
 1913              	.LVL192:
 1914 029c 0246     		mov	r2, r0
 1915 029e 0B46     		mov	r3, r1
 1916 02a0 4046     		mov	r0, r8
 1917 02a2 4946     		mov	r1, r9
 1918 02a4 FFF7FEFF 		bl	__aeabi_dadd
 1919              	.LVL193:
 1920 02a8 8046     		mov	r8, r0
 1921 02aa 0F98     		ldr	r0, [sp, #60]
 1922 02ac 8946     		mov	r9, r1
 1923 02ae FFF7FEFF 		bl	__aeabi_i2d
 1924              	.LVL194:
 1925 02b2 3246     		mov	r2, r6
 1926 02b4 3B46     		mov	r3, r7
 1927 02b6 FFF7FEFF 		bl	__aeabi_dmul
 1928              	.LVL195:
 1929 02ba 0246     		mov	r2, r0
 1930 02bc 0B46     		mov	r3, r1
 1931 02be 4046     		mov	r0, r8
 1932 02c0 4946     		mov	r1, r9
 1933 02c2 FFF7FEFF 		bl	__aeabi_dsub
 1934              	.LVL196:
 1935 02c6 FFF7FEFF 		bl	__aeabi_d2iz
 1936              	.LVL197:
 1937 02ca 8046     		mov	r8, r0
 1938 02cc C4F80480 		str	r8, [r4, #4]
ARM GAS  /var/folders/qd/4mxf5pkd0zdf0b9dd1hp39180000gn/T//ccsf5yWP.s 			page 35


 1939              		.loc 1 383 0
 1940 02d0 1098     		ldr	r0, [sp, #64]
 1941 02d2 FFF7FEFF 		bl	__aeabi_i2d
 1942              	.LVL198:
 1943 02d6 3246     		mov	r2, r6
 1944 02d8 3B46     		mov	r3, r7
 1945 02da FFF7FEFF 		bl	__aeabi_dmul
 1946              	.LVL199:
 1947 02de 1D4B     		ldr	r3, .L148+8
 1948 02e0 0646     		mov	r6, r0
 1949 02e2 5868     		ldr	r0, [r3, #4]
 1950 02e4 0F46     		mov	r7, r1
 1951 02e6 FFF7FEFF 		bl	__aeabi_i2d
 1952              	.LVL200:
 1953 02ea 0246     		mov	r2, r0
 1954 02ec 0B46     		mov	r3, r1
 1955 02ee 3046     		mov	r0, r6
 1956 02f0 3946     		mov	r1, r7
 1957 02f2 FFF7FEFF 		bl	__aeabi_dadd
 1958              	.LVL201:
 1959 02f6 0646     		mov	r6, r0
 1960 02f8 1198     		ldr	r0, [sp, #68]
 1961 02fa 0F46     		mov	r7, r1
 1962 02fc FFF7FEFF 		bl	__aeabi_i2d
 1963              	.LVL202:
 1964 0300 5246     		mov	r2, r10
 1965 0302 5B46     		mov	r3, fp
 1966 0304 FFF7FEFF 		bl	__aeabi_dmul
 1967              	.LVL203:
 1968 0308 0246     		mov	r2, r0
 1969 030a 0B46     		mov	r3, r1
 1970 030c 3046     		mov	r0, r6
 1971 030e 3946     		mov	r1, r7
 1972 0310 FFF7FEFF 		bl	__aeabi_dadd
 1973              	.LVL204:
 1974 0314 FFF7FEFF 		bl	__aeabi_d2iz
 1975              	.LVL205:
 1976 0318 0646     		mov	r6, r0
 1977              		.loc 1 386 0
 1978 031a CDE90080 		strd	r8, r0, [sp]
 1979 031e 2B46     		mov	r3, r5
 1980 0320 2A46     		mov	r2, r5
 1981 0322 0D49     		ldr	r1, .L148+12
 1982              		.loc 1 383 0
 1983 0324 E660     		str	r6, [r4, #12]
 1984              		.loc 1 386 0
 1985 0326 1AA8     		add	r0, sp, #104
 1986 0328 FFF7FEFF 		bl	sprintf
 1987              	.LVL206:
 1988              		.loc 1 387 0
 1989 032c 1AA8     		add	r0, sp, #104
 1990 032e 0321     		movs	r1, #3
 1991 0330 FFF7FEFF 		bl	mod_com_writeMessage
 1992              	.LVL207:
 1993              		.loc 1 390 0
 1994 0334 0120     		movs	r0, #1
 1995              	.LVL208:
ARM GAS  /var/folders/qd/4mxf5pkd0zdf0b9dd1hp39180000gn/T//ccsf5yWP.s 			page 36


 1996              	.L121:
 1997              		.loc 1 392 0
 1998 0336 054B     		ldr	r3, .L148
 1999 0338 279A     		ldr	r2, [sp, #156]
 2000 033a 1B68     		ldr	r3, [r3]
 2001 033c 9A42     		cmp	r2, r3
 2002 033e 0DD1     		bne	.L147
 2003 0340 29B0     		add	sp, sp, #164
 2004              		.cfi_remember_state
 2005              		.cfi_def_cfa_offset 44
 2006              		@ sp needed
 2007 0342 BDEC028B 		vldm	sp!, {d8}
 2008              		.cfi_restore 80
 2009              		.cfi_restore 81
 2010              		.cfi_def_cfa_offset 36
 2011 0346 BDE8F08F 		pop	{r4, r5, r6, r7, r8, r9, r10, fp, pc}
 2012              	.L149:
 2013 034a 00BF     		.align	2
 2014              	.L148:
 2015 034c 00000000 		.word	__stack_chk_guard
 2016 0350 00000000 		.word	.LANCHOR3
 2017 0354 00000000 		.word	.LANCHOR0
 2018 0358 00000000 		.word	.LC5
 2019              	.L147:
 2020              		.cfi_restore_state
 2021 035c FFF7FEFF 		bl	__stack_chk_fail
 2022              	.LVL209:
 2023              		.cfi_endproc
 2024              	.LFE271:
 2025              		.size	mod_mapping_computeWallLocation, .-mod_mapping_computeWallLocation
 2026              		.section	.text.mod_mapping_getRobotDisplacement,"ax",%progbits
 2027              		.align	1
 2028              		.p2align 4,,15
 2029              		.global	mod_mapping_getRobotDisplacement
 2030              		.syntax unified
 2031              		.thumb
 2032              		.thumb_func
 2033              		.fpu fpv4-sp-d16
 2034              		.type	mod_mapping_getRobotDisplacement, %function
 2035              	mod_mapping_getRobotDisplacement:
 2036              	.LFB272:
 2037              		.loc 1 395 0
 2038              		.cfi_startproc
 2039              		@ args = 0, pretend = 0, frame = 56
 2040              		@ frame_needed = 0, uses_anonymous_args = 0
 2041              	.LVL210:
 2042 0000 2DE9F047 		push	{r4, r5, r6, r7, r8, r9, r10, lr}
 2043              		.cfi_def_cfa_offset 32
 2044              		.cfi_offset 4, -32
 2045              		.cfi_offset 5, -28
 2046              		.cfi_offset 6, -24
 2047              		.cfi_offset 7, -20
 2048              		.cfi_offset 8, -16
 2049              		.cfi_offset 9, -12
 2050              		.cfi_offset 10, -8
 2051              		.cfi_offset 14, -4
 2052 0004 2DED028B 		vpush.64	{d8}
ARM GAS  /var/folders/qd/4mxf5pkd0zdf0b9dd1hp39180000gn/T//ccsf5yWP.s 			page 37


 2053              		.cfi_def_cfa_offset 40
 2054              		.cfi_offset 80, -40
 2055              		.cfi_offset 81, -36
 2056              		.loc 1 398 0
 2057 0008 DFF838A1 		ldr	r10, .L165+32
 2058              		.loc 1 395 0
 2059 000c 454F     		ldr	r7, .L165
 2060              		.loc 1 399 0
 2061 000e DAE90023 		ldrd	r2, r3, [r10]
 2062 0012 D1E90054 		ldrd	r5, r4, [r1]
 2063              		.loc 1 395 0
 2064 0016 90B0     		sub	sp, sp, #64
 2065              		.cfi_def_cfa_offset 104
 2066              		.loc 1 398 0
 2067 0018 AD1A     		subs	r5, r5, r2
 2068              	.LVL211:
 2069              		.loc 1 399 0
 2070 001a E41A     		subs	r4, r4, r3
 2071              	.LVL212:
 2072              		.loc 1 395 0
 2073 001c 0646     		mov	r6, r0
 2074 001e 3B68     		ldr	r3, [r7]
 2075              		.loc 1 400 0
 2076 0020 94FBF5F0 		sdiv	r0, r4, r5
 2077              	.LVL213:
 2078              		.loc 1 395 0
 2079 0024 0F93     		str	r3, [sp, #60]
 2080              		.loc 1 400 0
 2081 0026 FFF7FEFF 		bl	__aeabi_i2d
 2082              	.LVL214:
 2083 002a 41EC100B 		vmov	d0, r0, r1
 2084 002e FFF7FEFF 		bl	atan
 2085              	.LVL215:
 2086 0032 59EC108B 		vmov	r8, r9, d0
 2087              	.LVL216:
 2088 0036 10EE100A 		vmov	r0, s0	@ int
 2089 003a 4946     		mov	r1, r9
 2090 003c FFF7FEFF 		bl	__aeabi_d2f
 2091              	.LVL217:
 2092              		.loc 1 403 0
 2093 0040 FFF7FEFF 		bl	__aeabi_f2d
 2094              	.LVL218:
 2095 0044 2346     		mov	r3, r4
 2096 0046 2A46     		mov	r2, r5
 2097 0048 CDE90001 		strd	r0, [sp]
 2098 004c 3649     		ldr	r1, .L165+4
 2099 004e 02A8     		add	r0, sp, #8
 2100 0050 FFF7FEFF 		bl	sprintf
 2101              	.LVL219:
 2102              		.loc 1 404 0
 2103 0054 02A8     		add	r0, sp, #8
 2104 0056 0321     		movs	r1, #3
 2105 0058 FFF7FEFF 		bl	mod_com_writeMessage
 2106              	.LVL220:
 2107              		.loc 1 412 0
 2108 005c 002D     		cmp	r5, #0
 2109              		.loc 1 413 0
ARM GAS  /var/folders/qd/4mxf5pkd0zdf0b9dd1hp39180000gn/T//ccsf5yWP.s 			page 38


 2110 005e ACBF     		ite	ge
 2111 0060 9FED327A 		vldrge.32	s14, .L165+8
 2112              		.loc 1 416 0
 2113 0064 9FED327A 		vldrlt.32	s14, .L165+12
 2114 0068 DAED027A 		vldr.32	s15, [r10, #8]
 2115 006c 77EE677A 		vsub.f32	s15, s14, s15
 2116              		.loc 1 421 0
 2117 0070 04FB04F4 		mul	r4, r4, r4
 2118              	.LVL221:
 2119              		.loc 1 416 0
 2120 0074 17EE900A 		vmov	r0, s15
 2121 0078 FFF7FEFF 		bl	__aeabi_f2d
 2122              	.LVL222:
 2123 007c 4246     		mov	r2, r8
 2124 007e 4B46     		mov	r3, r9
 2125 0080 FFF7FEFF 		bl	__aeabi_dadd
 2126              	.LVL223:
 2127 0084 FFF7FEFF 		bl	__aeabi_d2f
 2128              	.LVL224:
 2129 0088 08EE100A 		vmov	s16, r0
 2130              	.LVL225:
 2131              		.loc 1 421 0
 2132 008c 05FB0540 		mla	r0, r5, r5, r4
 2133              	.LVL226:
 2134 0090 FFF7FEFF 		bl	__aeabi_i2d
 2135              	.LVL227:
 2136 0094 41EC100B 		vmov	d0, r0, r1
 2137 0098 FFF7FEFF 		bl	sqrt
 2138              	.LVL228:
 2139 009c 51EC100B 		vmov	r0, r1, d0
 2140 00a0 FFF7FEFF 		bl	__aeabi_d2iz
 2141              	.LVL229:
 2142              		.loc 1 423 0
 2143 00a4 DFED237A 		vldr.32	s15, .L165+16
 2144 00a8 B4EEE78A 		vcmpe.f32	s16, s15
 2145 00ac F1EE10FA 		vmrs	APSR_nzcv, FPSCR
 2146              		.loc 1 421 0
 2147 00b0 0446     		mov	r4, r0
 2148              	.LVL230:
 2149              		.loc 1 423 0
 2150 00b2 08DD     		ble	.L153
 2151 00b4 9FED207A 		vldr.32	s14, .L165+20
 2152              	.LVL231:
 2153              	.L155:
 2154              		.loc 1 423 0 is_stmt 0 discriminator 2
 2155 00b8 38EE478A 		vsub.f32	s16, s16, s14
 2156              	.LVL232:
 2157 00bc B4EEE78A 		vcmpe.f32	s16, s15
 2158 00c0 F1EE10FA 		vmrs	APSR_nzcv, FPSCR
 2159 00c4 F8DC     		bgt	.L155
 2160              	.L153:
 2161              		.loc 1 424 0 is_stmt 1
 2162 00c6 DFED1D7A 		vldr.32	s15, .L165+24
 2163 00ca B4EEE78A 		vcmpe.f32	s16, s15
 2164 00ce F1EE10FA 		vmrs	APSR_nzcv, FPSCR
 2165 00d2 08D5     		bpl	.L156
 2166 00d4 9FED187A 		vldr.32	s14, .L165+20
ARM GAS  /var/folders/qd/4mxf5pkd0zdf0b9dd1hp39180000gn/T//ccsf5yWP.s 			page 39


 2167              	.L158:
 2168              		.loc 1 424 0 is_stmt 0 discriminator 2
 2169 00d8 38EE078A 		vadd.f32	s16, s16, s14
 2170              	.LVL233:
 2171 00dc B4EEE78A 		vcmpe.f32	s16, s15
 2172 00e0 F1EE10FA 		vmrs	APSR_nzcv, FPSCR
 2173 00e4 F8D4     		bmi	.L158
 2174              	.L156:
 2175              		.loc 1 426 0 is_stmt 1
 2176 00e6 18EE100A 		vmov	r0, s16
 2177              	.LVL234:
 2178 00ea FFF7FEFF 		bl	__aeabi_f2d
 2179              	.LVL235:
 2180 00ee 2246     		mov	r2, r4
 2181 00f0 CDE90001 		strd	r0, [sp]
 2182 00f4 1249     		ldr	r1, .L165+28
 2183 00f6 02A8     		add	r0, sp, #8
 2184 00f8 FFF7FEFF 		bl	sprintf
 2185              	.LVL236:
 2186              		.loc 1 427 0
 2187 00fc 02A8     		add	r0, sp, #8
 2188 00fe 0321     		movs	r1, #3
 2189 0100 FFF7FEFF 		bl	mod_com_writeMessage
 2190              	.LVL237:
 2191              		.loc 1 430 0
 2192 0104 0F9A     		ldr	r2, [sp, #60]
 2193 0106 3B68     		ldr	r3, [r7]
 2194              		.loc 1 429 0
 2195 0108 3460     		str	r4, [r6]
 2196              		.loc 1 430 0
 2197 010a 9A42     		cmp	r2, r3
 2198              		.loc 1 429 0
 2199 010c 86ED018A 		vstr.32	s16, [r6, #4]
 2200              	.LVL238:
 2201              		.loc 1 430 0
 2202 0110 3046     		mov	r0, r6
 2203 0112 04D1     		bne	.L164
 2204              	.LVL239:
 2205 0114 10B0     		add	sp, sp, #64
 2206              		.cfi_remember_state
 2207              		.cfi_def_cfa_offset 40
 2208              		@ sp needed
 2209 0116 BDEC028B 		vldm	sp!, {d8}
 2210              		.cfi_restore 80
 2211              		.cfi_restore 81
 2212              		.cfi_def_cfa_offset 32
 2213 011a BDE8F087 		pop	{r4, r5, r6, r7, r8, r9, r10, pc}
 2214              	.LVL240:
 2215              	.L164:
 2216              		.cfi_restore_state
 2217 011e FFF7FEFF 		bl	__stack_chk_fail
 2218              	.LVL241:
 2219              	.L166:
 2220 0122 00BF     		.align	2
 2221              	.L165:
 2222 0124 00000000 		.word	__stack_chk_guard
 2223 0128 00000000 		.word	.LC6
ARM GAS  /var/folders/qd/4mxf5pkd0zdf0b9dd1hp39180000gn/T//ccsf5yWP.s 			page 40


 2224 012c E4CB9640 		.word	1083624420
 2225 0130 DB0FC93F 		.word	1070141403
 2226 0134 DB0F4940 		.word	1078530011
 2227 0138 DB0FC940 		.word	1086918619
 2228 013c DB0F49C0 		.word	3226013659
 2229 0140 24000000 		.word	.LC7
 2230 0144 00000000 		.word	.LANCHOR0
 2231              		.cfi_endproc
 2232              	.LFE272:
 2233              		.size	mod_mapping_getRobotDisplacement, .-mod_mapping_getRobotDisplacement
 2234              		.section	.text.mod_mapping_getActualPosition,"ax",%progbits
 2235              		.align	1
 2236              		.p2align 4,,15
 2237              		.global	mod_mapping_getActualPosition
 2238              		.syntax unified
 2239              		.thumb
 2240              		.thumb_func
 2241              		.fpu fpv4-sp-d16
 2242              		.type	mod_mapping_getActualPosition, %function
 2243              	mod_mapping_getActualPosition:
 2244              	.LFB273:
 2245              		.loc 1 433 0
 2246              		.cfi_startproc
 2247              		@ args = 0, pretend = 0, frame = 8
 2248              		@ frame_needed = 0, uses_anonymous_args = 0
 2249              	.LVL242:
 2250 0000 30B5     		push	{r4, r5, lr}
 2251              		.cfi_def_cfa_offset 12
 2252              		.cfi_offset 4, -12
 2253              		.cfi_offset 5, -8
 2254              		.cfi_offset 14, -4
 2255 0002 094C     		ldr	r4, .L171
 2256              		.loc 1 434 0
 2257 0004 094A     		ldr	r2, .L171+4
 2258              		.loc 1 433 0
 2259 0006 2568     		ldr	r5, [r4]
 2260 0008 83B0     		sub	sp, sp, #12
 2261              		.cfi_def_cfa_offset 24
 2262              		.loc 1 433 0
 2263 000a 0346     		mov	r3, r0
 2264 000c 0195     		str	r5, [sp, #4]
 2265              		.loc 1 434 0
 2266 000e 07CA     		ldm	r2, {r0, r1, r2}
 2267              	.LVL243:
 2268              		.loc 1 435 0
 2269 0010 019D     		ldr	r5, [sp, #4]
 2270 0012 2468     		ldr	r4, [r4]
 2271 0014 A542     		cmp	r5, r4
 2272              		.loc 1 434 0
 2273 0016 83E80700 		stm	r3, {r0, r1, r2}
 2274              		.loc 1 435 0
 2275 001a 02D1     		bne	.L170
 2276 001c 1846     		mov	r0, r3
 2277 001e 03B0     		add	sp, sp, #12
 2278              		.cfi_remember_state
 2279              		.cfi_def_cfa_offset 12
 2280              		@ sp needed
ARM GAS  /var/folders/qd/4mxf5pkd0zdf0b9dd1hp39180000gn/T//ccsf5yWP.s 			page 41


 2281 0020 30BD     		pop	{r4, r5, pc}
 2282              	.L170:
 2283              		.cfi_restore_state
 2284 0022 FFF7FEFF 		bl	__stack_chk_fail
 2285              	.LVL244:
 2286              	.L172:
 2287 0026 00BF     		.align	2
 2288              	.L171:
 2289 0028 00000000 		.word	__stack_chk_guard
 2290 002c 00000000 		.word	.LANCHOR0
 2291              		.cfi_endproc
 2292              	.LFE273:
 2293              		.size	mod_mapping_getActualPosition, .-mod_mapping_getActualPosition
 2294              		.section	.text.mod_mapping_getRelativeAngle,"ax",%progbits
 2295              		.align	1
 2296              		.p2align 4,,15
 2297              		.global	mod_mapping_getRelativeAngle
 2298              		.syntax unified
 2299              		.thumb
 2300              		.thumb_func
 2301              		.fpu fpv4-sp-d16
 2302              		.type	mod_mapping_getRelativeAngle, %function
 2303              	mod_mapping_getRelativeAngle:
 2304              	.LFB274:
 2305              		.loc 1 438 0
 2306              		.cfi_startproc
 2307              		@ args = 0, pretend = 0, frame = 8
 2308              		@ frame_needed = 0, uses_anonymous_args = 0
 2309              	.LVL245:
 2310 0000 00B5     		push	{lr}
 2311              		.cfi_def_cfa_offset 4
 2312              		.cfi_offset 14, -4
 2313              		.loc 1 439 0
 2314 0002 1C4B     		ldr	r3, .L185
 2315 0004 DFED1C6A 		vldr.32	s13, .L185+4
 2316 0008 D3ED027A 		vldr.32	s15, [r3, #8]
 2317              		.loc 1 441 0
 2318 000c 9FED1B7A 		vldr.32	s14, .L185+8
 2319              		.loc 1 438 0
 2320 0010 1B4B     		ldr	r3, .L185+12
 2321              		.loc 1 439 0
 2322 0012 30EE670A 		vsub.f32	s0, s0, s15
 2323              	.LVL246:
 2324              		.loc 1 438 0
 2325 0016 83B0     		sub	sp, sp, #12
 2326              		.cfi_def_cfa_offset 16
 2327              		.loc 1 439 0
 2328 0018 30EE660A 		vsub.f32	s0, s0, s13
 2329              	.LVL247:
 2330              		.loc 1 438 0
 2331 001c 1A68     		ldr	r2, [r3]
 2332 001e 0192     		str	r2, [sp, #4]
 2333              		.loc 1 441 0
 2334 0020 B4EEC70A 		vcmpe.f32	s0, s14
 2335 0024 F1EE10FA 		vmrs	APSR_nzcv, FPSCR
 2336 0028 0ADD     		ble	.L174
 2337 002a F0EE477A 		vmov.f32	s15, s14
ARM GAS  /var/folders/qd/4mxf5pkd0zdf0b9dd1hp39180000gn/T//ccsf5yWP.s 			page 42


 2338 002e 9FED157A 		vldr.32	s14, .L185+16
 2339              	.L176:
 2340              		.loc 1 441 0 is_stmt 0 discriminator 2
 2341 0032 30EE470A 		vsub.f32	s0, s0, s14
 2342              	.LVL248:
 2343 0036 B4EEE70A 		vcmpe.f32	s0, s15
 2344 003a F1EE10FA 		vmrs	APSR_nzcv, FPSCR
 2345 003e F8DC     		bgt	.L176
 2346              	.L174:
 2347              		.loc 1 442 0 is_stmt 1
 2348 0040 DFED117A 		vldr.32	s15, .L185+20
 2349 0044 B4EEE70A 		vcmpe.f32	s0, s15
 2350 0048 F1EE10FA 		vmrs	APSR_nzcv, FPSCR
 2351 004c 08D5     		bpl	.L173
 2352 004e 9FED0D7A 		vldr.32	s14, .L185+16
 2353              	.L179:
 2354              		.loc 1 442 0 is_stmt 0 discriminator 2
 2355 0052 30EE070A 		vadd.f32	s0, s0, s14
 2356              	.LVL249:
 2357 0056 B4EEE70A 		vcmpe.f32	s0, s15
 2358 005a F1EE10FA 		vmrs	APSR_nzcv, FPSCR
 2359 005e F8D4     		bmi	.L179
 2360              	.L173:
 2361              		.loc 1 445 0 is_stmt 1
 2362 0060 019A     		ldr	r2, [sp, #4]
 2363 0062 1B68     		ldr	r3, [r3]
 2364 0064 9A42     		cmp	r2, r3
 2365 0066 02D1     		bne	.L184
 2366 0068 03B0     		add	sp, sp, #12
 2367              		.cfi_remember_state
 2368              		.cfi_def_cfa_offset 4
 2369              		@ sp needed
 2370 006a 5DF804FB 		ldr	pc, [sp], #4
 2371              	.L184:
 2372              		.cfi_restore_state
 2373 006e FFF7FEFF 		bl	__stack_chk_fail
 2374              	.LVL250:
 2375              	.L186:
 2376 0072 00BF     		.align	2
 2377              	.L185:
 2378 0074 00000000 		.word	.LANCHOR0
 2379 0078 DB0FC93F 		.word	1070141403
 2380 007c DB0F4940 		.word	1078530011
 2381 0080 00000000 		.word	__stack_chk_guard
 2382 0084 DB0FC940 		.word	1086918619
 2383 0088 DB0F49C0 		.word	3226013659
 2384              		.cfi_endproc
 2385              	.LFE274:
 2386              		.size	mod_mapping_getRelativeAngle, .-mod_mapping_getRelativeAngle
 2387              		.section	.text.mod_mapping_checkEnvironment,"ax",%progbits
 2388              		.align	1
 2389              		.p2align 4,,15
 2390              		.global	mod_mapping_checkEnvironment
 2391              		.syntax unified
 2392              		.thumb
 2393              		.thumb_func
 2394              		.fpu fpv4-sp-d16
ARM GAS  /var/folders/qd/4mxf5pkd0zdf0b9dd1hp39180000gn/T//ccsf5yWP.s 			page 43


 2395              		.type	mod_mapping_checkEnvironment, %function
 2396              	mod_mapping_checkEnvironment:
 2397              	.LFB275:
 2398              		.loc 1 448 0
 2399              		.cfi_startproc
 2400              		@ args = 0, pretend = 0, frame = 64
 2401              		@ frame_needed = 0, uses_anonymous_args = 0
 2402              	.LVL251:
 2403 0000 2DE9F04F 		push	{r4, r5, r6, r7, r8, r9, r10, fp, lr}
 2404              		.cfi_def_cfa_offset 36
 2405              		.cfi_offset 4, -36
 2406              		.cfi_offset 5, -32
 2407              		.cfi_offset 6, -28
 2408              		.cfi_offset 7, -24
 2409              		.cfi_offset 8, -20
 2410              		.cfi_offset 9, -16
 2411              		.cfi_offset 10, -12
 2412              		.cfi_offset 11, -8
 2413              		.cfi_offset 14, -4
 2414 0004 704B     		ldr	r3, .L224
 2415              		.loc 1 451 0
 2416 0006 DFF8D081 		ldr	r8, .L224+16
 2417              		.loc 1 448 0
 2418 000a 1B68     		ldr	r3, [r3]
 2419 000c 91B0     		sub	sp, sp, #68
 2420              		.cfi_def_cfa_offset 104
 2421              		.loc 1 448 0
 2422 000e 0546     		mov	r5, r0
 2423              		.loc 1 449 0
 2424 0010 C800     		lsls	r0, r1, #3
 2425              	.LVL252:
 2426              		.loc 1 448 0
 2427 0012 0F46     		mov	r7, r1
 2428 0014 0F93     		str	r3, [sp, #60]
 2429              		.loc 1 449 0
 2430 0016 FFF7FEFF 		bl	malloc
 2431              	.LVL253:
 2432              		.loc 1 450 0
 2433 001a 8246     		mov	r10, r0
 2434 001c 0030     		adds	r0, r0, #0
 2435              	.LVL254:
 2436              		.loc 1 451 0
 2437 001e 4FF00006 		mov	r6, #0
 2438              		.loc 1 450 0
 2439 0022 18BF     		it	ne
 2440 0024 0120     		movne	r0, #1
 2441 0026 FFF7FEFF 		bl	assert
 2442              	.LVL255:
 2443              	.LBB63:
 2444              		.loc 1 458 0
 2445 002a B742     		cmp	r7, r6
 2446              	.LBE63:
 2447              		.loc 1 452 0
 2448 002c C8E90166 		strd	r6, r6, [r8, #4]
 2449              	.LVL256:
 2450              	.LBB71:
 2451              		.loc 1 455 0
ARM GAS  /var/folders/qd/4mxf5pkd0zdf0b9dd1hp39180000gn/T//ccsf5yWP.s 			page 44


 2452 0030 88F80060 		strb	r6, [r8]
 2453              	.LVL257:
 2454 0034 88F80160 		strb	r6, [r8, #1]
 2455              	.LVL258:
 2456 0038 88F80260 		strb	r6, [r8, #2]
 2457              	.LVL259:
 2458 003c 88F80360 		strb	r6, [r8, #3]
 2459              	.LVL260:
 2460              	.LBE71:
 2461              	.LBB72:
 2462              		.loc 1 458 0
 2463 0040 2FDD     		ble	.L188
 2464              		.loc 1 464 0
 2465 0042 DFF89891 		ldr	r9, .L224+20
 2466 0046 5446     		mov	r4, r10
 2467 0048 09E0     		b	.L200
 2468              	.LVL261:
 2469              	.L220:
 2470              		.loc 1 464 0 is_stmt 0 discriminator 1
 2471 004a 0123     		movs	r3, #1
 2472 004c 88F80030 		strb	r3, [r8]
 2473              	.L190:
 2474              		.loc 1 458 0 is_stmt 1 discriminator 2
 2475 0050 0136     		adds	r6, r6, #1
 2476              	.LVL262:
 2477 0052 B742     		cmp	r7, r6
 2478 0054 05F11005 		add	r5, r5, #16
 2479 0058 04F10804 		add	r4, r4, #8
 2480 005c 21D0     		beq	.L188
 2481              	.LVL263:
 2482              	.L200:
 2483              		.loc 1 459 0
 2484 005e EB68     		ldr	r3, [r5, #12]
 2485 0060 002B     		cmp	r3, #0
 2486 0062 F5DD     		ble	.L190
 2487              		.loc 1 460 0
 2488 0064 2946     		mov	r1, r5
 2489 0066 2046     		mov	r0, r4
 2490 0068 FFF7FEFF 		bl	measurementToPoint
 2491              	.LVL264:
 2492              		.loc 1 462 0
 2493 006c 94E80300 		ldm	r4, {r0, r1}
 2494 0070 FFF7FEFF 		bl	isNear
 2495              	.LVL265:
 2496 0074 0028     		cmp	r0, #0
 2497 0076 EBD0     		beq	.L190
 2498              		.loc 1 464 0
 2499 0078 D9F80030 		ldr	r3, [r9]
 2500 007c 2268     		ldr	r2, [r4]
 2501 007e 2733     		adds	r3, r3, #39
 2502 0080 9342     		cmp	r3, r2
 2503 0082 E2DA     		bge	.L220
 2504              		.loc 1 465 0
 2505 0084 D9F80430 		ldr	r3, [r9, #4]
 2506 0088 273B     		subs	r3, r3, #39
 2507 008a 9A42     		cmp	r2, r3
 2508 008c 15DB     		blt	.L193
ARM GAS  /var/folders/qd/4mxf5pkd0zdf0b9dd1hp39180000gn/T//ccsf5yWP.s 			page 45


 2509              		.loc 1 458 0 discriminator 1
 2510 008e 0136     		adds	r6, r6, #1
 2511              	.LVL266:
 2512              		.loc 1 465 0 discriminator 1
 2513 0090 0123     		movs	r3, #1
 2514              		.loc 1 458 0 discriminator 1
 2515 0092 B742     		cmp	r7, r6
 2516              		.loc 1 465 0 discriminator 1
 2517 0094 88F80130 		strb	r3, [r8, #1]
 2518 0098 05F11005 		add	r5, r5, #16
 2519 009c 04F10804 		add	r4, r4, #8
 2520              		.loc 1 458 0 discriminator 1
 2521 00a0 DDD1     		bne	.L200
 2522              	.LVL267:
 2523              	.L188:
 2524              	.LBE72:
 2525              		.loc 1 492 0
 2526 00a2 494B     		ldr	r3, .L224
 2527 00a4 0F9A     		ldr	r2, [sp, #60]
 2528 00a6 1B68     		ldr	r3, [r3]
 2529 00a8 9A42     		cmp	r2, r3
 2530 00aa 40F08B80 		bne	.L221
 2531 00ae 5046     		mov	r0, r10
 2532              		.loc 1 495 0
 2533 00b0 11B0     		add	sp, sp, #68
 2534              		.cfi_remember_state
 2535              		.cfi_def_cfa_offset 36
 2536              		@ sp needed
 2537 00b2 BDE8F04F 		pop	{r4, r5, r6, r7, r8, r9, r10, fp, lr}
 2538              		.cfi_restore 14
 2539              		.cfi_restore 11
 2540              		.cfi_restore 10
 2541              		.cfi_restore 9
 2542              		.cfi_restore 8
 2543              		.cfi_restore 7
 2544              		.cfi_restore 6
 2545              		.cfi_restore 5
 2546              		.cfi_restore 4
 2547              		.cfi_def_cfa_offset 0
 2548              	.LVL268:
 2549              		.loc 1 492 0
 2550 00b6 FFF7FEBF 		b	free
 2551              	.LVL269:
 2552              	.L193:
 2553              		.cfi_restore_state
 2554              	.LBB73:
 2555              		.loc 1 466 0
 2556 00ba D9F80810 		ldr	r1, [r9, #8]
 2557 00be 6368     		ldr	r3, [r4, #4]
 2558 00c0 2731     		adds	r1, r1, #39
 2559 00c2 9942     		cmp	r1, r3
 2560 00c4 9B46     		mov	fp, r3
 2561 00c6 03DB     		blt	.L194
 2562              		.loc 1 466 0 is_stmt 0 discriminator 1
 2563 00c8 0123     		movs	r3, #1
 2564 00ca 88F80230 		strb	r3, [r8, #2]
 2565 00ce BFE7     		b	.L190
ARM GAS  /var/folders/qd/4mxf5pkd0zdf0b9dd1hp39180000gn/T//ccsf5yWP.s 			page 46


 2566              	.L194:
 2567              		.loc 1 467 0 is_stmt 1
 2568 00d0 D9F80C10 		ldr	r1, [r9, #12]
 2569 00d4 2739     		subs	r1, r1, #39
 2570 00d6 8B42     		cmp	r3, r1
 2571 00d8 03DB     		blt	.L222
 2572              		.loc 1 467 0 is_stmt 0 discriminator 1
 2573 00da 0123     		movs	r3, #1
 2574 00dc 88F80330 		strb	r3, [r8, #3]
 2575 00e0 B6E7     		b	.L190
 2576              	.L222:
 2577              	.LVL270:
 2578              	.LBB64:
 2579              	.LBB65:
 2580              		.loc 1 220 0 is_stmt 1
 2581 00e2 3A49     		ldr	r1, .L224+4
 2582 00e4 D1F800C0 		ldr	ip, [r1]
 2583 00e8 BCF1000F 		cmp	ip, #0
 2584 00ec 67DD     		ble	.L223
 2585              		.loc 1 221 0
 2586 00ee 3849     		ldr	r1, .L224+8
 2587 00f0 0191     		str	r1, [sp, #4]
 2588 00f2 D1F800E0 		ldr	lr, [r1]
 2589              	.LVL271:
 2590              	.LBB66:
 2591              	.LBB67:
 2592              		.loc 1 214 0
 2593 00f6 DEE90001 		ldrd	r0, r1, [lr]
 2594 00fa 101A     		subs	r0, r2, r0
 2595 00fc 00FB00F0 		mul	r0, r0, r0
 2596 0100 591A     		subs	r1, r3, r1
 2597 0102 01FB0101 		mla	r1, r1, r1, r0
 2598 0106 3B29     		cmp	r1, #59
 2599 0108 42DD     		ble	.L197
 2600              	.LBE67:
 2601              	.LBE66:
 2602              		.loc 1 220 0
 2603 010a 4FF0000B 		mov	fp, #0
 2604 010e 0BE0     		b	.L198
 2605              	.LVL272:
 2606              	.L199:
 2607              	.LBB69:
 2608              	.LBB68:
 2609              		.loc 1 214 0
 2610 0110 DEE90210 		ldrd	r1, r0, [lr, #8]
 2611 0114 181A     		subs	r0, r3, r0
 2612 0116 00FB00F0 		mul	r0, r0, r0
 2613 011a 511A     		subs	r1, r2, r1
 2614 011c 01FB0101 		mla	r1, r1, r1, r0
 2615 0120 3B29     		cmp	r1, #59
 2616 0122 0EF1080E 		add	lr, lr, #8
 2617              	.LVL273:
 2618 0126 33DD     		ble	.L197
 2619              	.LVL274:
 2620              	.L198:
 2621              	.LBE68:
 2622              	.LBE69:
ARM GAS  /var/folders/qd/4mxf5pkd0zdf0b9dd1hp39180000gn/T//ccsf5yWP.s 			page 47


 2623              		.loc 1 220 0
 2624 0128 0BF1010B 		add	fp, fp, #1
 2625              	.LVL275:
 2626 012c E345     		cmp	fp, ip
 2627 012e EFD1     		bne	.L199
 2628 0130 9B46     		mov	fp, r3
 2629              	.LVL276:
 2630              	.L196:
 2631              	.LBE65:
 2632              	.LBE64:
 2633              	.LBB70:
 2634              		.loc 1 475 0
 2635 0132 D8F80430 		ldr	r3, [r8, #4]
 2636 0136 94E80300 		ldm	r4, {r0, r1}
 2637 013a 03F1010E 		add	lr, r3, #1
 2638 013e 08EBCE0C 		add	ip, r8, lr, lsl #3
 2639 0142 0CF1040C 		add	ip, ip, #4
 2640 0146 8CE80300 		stm	ip, {r0, r1}
 2641              		.loc 1 478 0
 2642 014a 5B46     		mov	r3, fp
 2643 014c 2149     		ldr	r1, .L224+12
 2644              		.loc 1 476 0
 2645 014e C8F804E0 		str	lr, [r8, #4]
 2646              		.loc 1 478 0
 2647 0152 02A8     		add	r0, sp, #8
 2648 0154 FFF7FEFF 		bl	sprintf
 2649              	.LVL277:
 2650              		.loc 1 479 0
 2651 0158 02A8     		add	r0, sp, #8
 2652 015a 0321     		movs	r1, #3
 2653 015c FFF7FEFF 		bl	mod_com_writeMessage
 2654              	.LVL278:
 2655              		.loc 1 481 0
 2656 0160 1A4A     		ldr	r2, .L224+4
 2657 0162 0199     		ldr	r1, [sp, #4]
 2658 0164 1368     		ldr	r3, [r2]
 2659 0166 0868     		ldr	r0, [r1]
 2660 0168 0133     		adds	r3, r3, #1
 2661 016a D900     		lsls	r1, r3, #3
 2662 016c FFF7FEFF 		bl	realloc
 2663              	.LVL279:
 2664 0170 0199     		ldr	r1, [sp, #4]
 2665              		.loc 1 482 0
 2666 0172 164A     		ldr	r2, .L224+4
 2667              		.loc 1 481 0
 2668 0174 0860     		str	r0, [r1]
 2669              		.loc 1 482 0
 2670 0176 1268     		ldr	r2, [r2]
 2671              		.loc 1 481 0
 2672 0178 0346     		mov	r3, r0
 2673              		.loc 1 482 0
 2674 017a 94E80300 		ldm	r4, {r0, r1}
 2675 017e 03EBC203 		add	r3, r3, r2, lsl #3
 2676 0182 83E80300 		stm	r3, {r0, r1}
 2677              		.loc 1 483 0
 2678 0186 114A     		ldr	r2, .L224+4
 2679 0188 1368     		ldr	r3, [r2]
ARM GAS  /var/folders/qd/4mxf5pkd0zdf0b9dd1hp39180000gn/T//ccsf5yWP.s 			page 48


 2680 018a 0133     		adds	r3, r3, #1
 2681 018c 1360     		str	r3, [r2]
 2682 018e 0BE0     		b	.L202
 2683              	.LVL280:
 2684              	.L197:
 2685              	.LBE70:
 2686              		.loc 1 471 0
 2687 0190 D8F80820 		ldr	r2, [r8, #8]
 2688              	.LVL281:
 2689 0194 94E80300 		ldm	r4, {r0, r1}
 2690 0198 08EBC203 		add	r3, r8, r2, lsl #3
 2691              	.LVL282:
 2692 019c 2433     		adds	r3, r3, #36
 2693 019e 83E80300 		stm	r3, {r0, r1}
 2694              		.loc 1 472 0
 2695 01a2 0132     		adds	r2, r2, #1
 2696 01a4 C8F80820 		str	r2, [r8, #8]
 2697              	.LVL283:
 2698              	.L202:
 2699              		.loc 1 485 0
 2700 01a8 D8F80430 		ldr	r3, [r8, #4]
 2701 01ac 032B     		cmp	r3, #3
 2702 01ae 3FF478AF 		beq	.L188
 2703              		.loc 1 485 0 is_stmt 0 discriminator 1
 2704 01b2 D8F80830 		ldr	r3, [r8, #8]
 2705 01b6 032B     		cmp	r3, #3
 2706 01b8 7FF44AAF 		bne	.L190
 2707 01bc 71E7     		b	.L188
 2708              	.LVL284:
 2709              	.L223:
 2710 01be 044B     		ldr	r3, .L224+8
 2711 01c0 0193     		str	r3, [sp, #4]
 2712 01c2 B6E7     		b	.L196
 2713              	.LVL285:
 2714              	.L221:
 2715              	.LBE73:
 2716              		.loc 1 492 0 is_stmt 1
 2717 01c4 FFF7FEFF 		bl	__stack_chk_fail
 2718              	.LVL286:
 2719              	.L225:
 2720              		.align	2
 2721              	.L224:
 2722 01c8 00000000 		.word	__stack_chk_guard
 2723 01cc 00000000 		.word	.LANCHOR1
 2724 01d0 00000000 		.word	.LANCHOR2
 2725 01d4 00000000 		.word	.LC8
 2726 01d8 00000000 		.word	.LANCHOR4
 2727 01dc 00000000 		.word	.LANCHOR3
 2728              		.cfi_endproc
 2729              	.LFE275:
 2730              		.size	mod_mapping_checkEnvironment, .-mod_mapping_checkEnvironment
 2731              		.section	.text.mod_mapping_computeDistanceForPicture,"ax",%progbits
 2732              		.align	1
 2733              		.p2align 4,,15
 2734              		.global	mod_mapping_computeDistanceForPicture
 2735              		.syntax unified
 2736              		.thumb
ARM GAS  /var/folders/qd/4mxf5pkd0zdf0b9dd1hp39180000gn/T//ccsf5yWP.s 			page 49


 2737              		.thumb_func
 2738              		.fpu fpv4-sp-d16
 2739              		.type	mod_mapping_computeDistanceForPicture, %function
 2740              	mod_mapping_computeDistanceForPicture:
 2741              	.LFB276:
 2742              		.loc 1 498 0
 2743              		.cfi_startproc
 2744              		@ args = 0, pretend = 0, frame = 64
 2745              		@ frame_needed = 0, uses_anonymous_args = 0
 2746              	.LVL287:
 2747 0000 70B5     		push	{r4, r5, r6, lr}
 2748              		.cfi_def_cfa_offset 16
 2749              		.cfi_offset 4, -16
 2750              		.cfi_offset 5, -12
 2751              		.cfi_offset 6, -8
 2752              		.cfi_offset 14, -4
 2753 0002 124E     		ldr	r6, .L230
 2754 0004 92B0     		sub	sp, sp, #72
 2755              		.cfi_def_cfa_offset 88
 2756              		.loc 1 498 0
 2757 0006 02AB     		add	r3, sp, #8
 2758 0008 0446     		mov	r4, r0
 2759 000a 83E80600 		stm	r3, {r1, r2}
 2760 000e 3568     		ldr	r5, [r6]
 2761 0010 1195     		str	r5, [sp, #68]
 2762              		.loc 1 499 0
 2763 0012 1946     		mov	r1, r3
 2764 0014 FFF7FEFF 		bl	mod_mapping_getRobotDisplacement
 2765              	.LVL288:
 2766              		.loc 1 503 0
 2767 0018 6068     		ldr	r0, [r4, #4]	@ float
 2768              		.loc 1 500 0
 2769 001a 2568     		ldr	r5, [r4]
 2770              		.loc 1 503 0
 2771 001c FFF7FEFF 		bl	__aeabi_f2d
 2772              	.LVL289:
 2773              		.loc 1 500 0
 2774 0020 853D     		subs	r5, r5, #133
 2775              	.LVL290:
 2776              		.loc 1 503 0
 2777 0022 CDE90001 		strd	r0, [sp]
 2778              	.LVL291:
 2779 0026 2A46     		mov	r2, r5
 2780 0028 0949     		ldr	r1, .L230+4
 2781 002a 04A8     		add	r0, sp, #16
 2782 002c FFF7FEFF 		bl	sprintf
 2783              	.LVL292:
 2784              		.loc 1 504 0
 2785 0030 04A8     		add	r0, sp, #16
 2786 0032 0321     		movs	r1, #3
 2787 0034 FFF7FEFF 		bl	mod_com_writeMessage
 2788              	.LVL293:
 2789              		.loc 1 507 0
 2790 0038 119A     		ldr	r2, [sp, #68]
 2791 003a 3368     		ldr	r3, [r6]
 2792              		.loc 1 506 0
 2793 003c 2560     		str	r5, [r4]
ARM GAS  /var/folders/qd/4mxf5pkd0zdf0b9dd1hp39180000gn/T//ccsf5yWP.s 			page 50


 2794              	.LVL294:
 2795              		.loc 1 507 0
 2796 003e 9A42     		cmp	r2, r3
 2797 0040 02D1     		bne	.L229
 2798 0042 2046     		mov	r0, r4
 2799 0044 12B0     		add	sp, sp, #72
 2800              		.cfi_remember_state
 2801              		.cfi_def_cfa_offset 16
 2802              		@ sp needed
 2803 0046 70BD     		pop	{r4, r5, r6, pc}
 2804              	.LVL295:
 2805              	.L229:
 2806              		.cfi_restore_state
 2807 0048 FFF7FEFF 		bl	__stack_chk_fail
 2808              	.LVL296:
 2809              	.L231:
 2810              		.align	2
 2811              	.L230:
 2812 004c 00000000 		.word	__stack_chk_guard
 2813 0050 00000000 		.word	.LC9
 2814              		.cfi_endproc
 2815              	.LFE276:
 2816              		.size	mod_mapping_computeDistanceForPicture, .-mod_mapping_computeDistanceForPicture
 2817              		.section	.text.mod_mapping_getAreaCenter,"ax",%progbits
 2818              		.align	1
 2819              		.p2align 4,,15
 2820              		.global	mod_mapping_getAreaCenter
 2821              		.syntax unified
 2822              		.thumb
 2823              		.thumb_func
 2824              		.fpu fpv4-sp-d16
 2825              		.type	mod_mapping_getAreaCenter, %function
 2826              	mod_mapping_getAreaCenter:
 2827              	.LFB277:
 2828              		.loc 1 510 0
 2829              		.cfi_startproc
 2830              		@ args = 0, pretend = 0, frame = 8
 2831              		@ frame_needed = 0, uses_anonymous_args = 0
 2832              	.LVL297:
 2833 0000 30B5     		push	{r4, r5, lr}
 2834              		.cfi_def_cfa_offset 12
 2835              		.cfi_offset 4, -12
 2836              		.cfi_offset 5, -8
 2837              		.cfi_offset 14, -4
 2838 0002 0B49     		ldr	r1, .L236
 2839              		.loc 1 511 0
 2840 0004 0B4A     		ldr	r2, .L236+4
 2841              		.loc 1 510 0
 2842 0006 0C68     		ldr	r4, [r1]
 2843              		.loc 1 511 0
 2844 0008 D368     		ldr	r3, [r2, #12]
 2845 000a 5268     		ldr	r2, [r2, #4]
 2846              		.loc 1 510 0
 2847 000c 83B0     		sub	sp, sp, #12
 2848              		.cfi_def_cfa_offset 24
 2849              		.loc 1 511 0
 2850 000e 03EBD373 		add	r3, r3, r3, lsr #31
ARM GAS  /var/folders/qd/4mxf5pkd0zdf0b9dd1hp39180000gn/T//ccsf5yWP.s 			page 51


 2851              		.loc 1 510 0
 2852 0012 0194     		str	r4, [sp, #4]
 2853              		.loc 1 512 0
 2854 0014 019D     		ldr	r5, [sp, #4]
 2855 0016 0C68     		ldr	r4, [r1]
 2856              		.loc 1 511 0
 2857 0018 02EBD272 		add	r2, r2, r2, lsr #31
 2858 001c 5B10     		asrs	r3, r3, #1
 2859 001e 5210     		asrs	r2, r2, #1
 2860              		.loc 1 512 0
 2861 0020 A542     		cmp	r5, r4
 2862              		.loc 1 511 0
 2863 0022 C0E90023 		strd	r2, r3, [r0]
 2864              		.loc 1 512 0
 2865 0026 01D1     		bne	.L235
 2866 0028 03B0     		add	sp, sp, #12
 2867              		.cfi_remember_state
 2868              		.cfi_def_cfa_offset 12
 2869              		@ sp needed
 2870 002a 30BD     		pop	{r4, r5, pc}
 2871              	.L235:
 2872              		.cfi_restore_state
 2873 002c FFF7FEFF 		bl	__stack_chk_fail
 2874              	.LVL298:
 2875              	.L237:
 2876              		.align	2
 2877              	.L236:
 2878 0030 00000000 		.word	__stack_chk_guard
 2879 0034 00000000 		.word	.LANCHOR3
 2880              		.cfi_endproc
 2881              	.LFE277:
 2882              		.size	mod_mapping_getAreaCenter, .-mod_mapping_getAreaCenter
 2883              		.section	.text.mod_mapping_checkEnvironmentRobotReferencial,"ax",%progbits
 2884              		.align	1
 2885              		.p2align 4,,15
 2886              		.global	mod_mapping_checkEnvironmentRobotReferencial
 2887              		.syntax unified
 2888              		.thumb
 2889              		.thumb_func
 2890              		.fpu fpv4-sp-d16
 2891              		.type	mod_mapping_checkEnvironmentRobotReferencial, %function
 2892              	mod_mapping_checkEnvironmentRobotReferencial:
 2893              	.LFB278:
 2894              		.loc 1 515 0
 2895              		.cfi_startproc
 2896              		@ args = 0, pretend = 0, frame = 16
 2897              		@ frame_needed = 0, uses_anonymous_args = 0
 2898              	.LVL299:
 2899 0000 F0B5     		push	{r4, r5, r6, r7, lr}
 2900              		.cfi_def_cfa_offset 20
 2901              		.cfi_offset 4, -20
 2902              		.cfi_offset 5, -16
 2903              		.cfi_offset 6, -12
 2904              		.cfi_offset 7, -8
 2905              		.cfi_offset 14, -4
 2906 0002 3A4D     		ldr	r5, .L254
 2907 0004 85B0     		sub	sp, sp, #20
ARM GAS  /var/folders/qd/4mxf5pkd0zdf0b9dd1hp39180000gn/T//ccsf5yWP.s 			page 52


 2908              		.cfi_def_cfa_offset 40
 2909              		.loc 1 515 0
 2910 0006 1646     		mov	r6, r2
 2911 0008 2B68     		ldr	r3, [r5]
 2912 000a 0393     		str	r3, [sp, #12]
 2913 000c 0446     		mov	r4, r0
 2914              		.loc 1 517 0
 2915 000e 01A8     		add	r0, sp, #4
 2916              	.LVL300:
 2917              		.loc 1 515 0
 2918 0010 0F46     		mov	r7, r1
 2919              		.loc 1 517 0
 2920 0012 FFF7FEFF 		bl	measurementToPoint
 2921              	.LVL301:
 2922 0016 DDE90112 		ldrd	r1, r2, [sp, #4]
 2923              	.LVL302:
 2924              		.loc 1 519 0
 2925 001a 002E     		cmp	r6, #0
 2926 001c 3ED0     		beq	.L239
 2927              		.loc 1 520 0
 2928 001e 3448     		ldr	r0, .L254+4
 2929 0020 0368     		ldr	r3, [r0]
 2930 0022 2733     		adds	r3, r3, #39
 2931 0024 8B42     		cmp	r3, r1
 2932 0026 48DA     		bge	.L240
 2933              		.loc 1 520 0 is_stmt 0 discriminator 1
 2934 0028 4368     		ldr	r3, [r0, #4]
 2935 002a 273B     		subs	r3, r3, #39
 2936 002c 8B42     		cmp	r3, r1
 2937 002e 44DD     		ble	.L240
 2938              		.loc 1 521 0 is_stmt 1 discriminator 2
 2939 0030 8368     		ldr	r3, [r0, #8]
 2940 0032 2733     		adds	r3, r3, #39
 2941              		.loc 1 520 0 discriminator 2
 2942 0034 9342     		cmp	r3, r2
 2943 0036 40DA     		bge	.L240
 2944              		.loc 1 521 0
 2945 0038 C368     		ldr	r3, [r0, #12]
 2946 003a 273B     		subs	r3, r3, #39
 2947 003c 9342     		cmp	r3, r2
 2948 003e 3CDD     		ble	.L240
 2949              	.LVL303:
 2950              	.LBB74:
 2951              	.LBB75:
 2952              		.loc 1 220 0
 2953 0040 2C4B     		ldr	r3, .L254+8
 2954 0042 D3F800C0 		ldr	ip, [r3]
 2955 0046 BCF1000F 		cmp	ip, #0
 2956 004a 1CDD     		ble	.L241
 2957              		.loc 1 221 0
 2958 004c 2A4B     		ldr	r3, .L254+12
 2959 004e 1E68     		ldr	r6, [r3]
 2960              	.LVL304:
 2961              	.LBB76:
 2962              	.LBB77:
 2963              		.loc 1 214 0
 2964 0050 D6E90030 		ldrd	r3, r0, [r6]
ARM GAS  /var/folders/qd/4mxf5pkd0zdf0b9dd1hp39180000gn/T//ccsf5yWP.s 			page 53


 2965 0054 101A     		subs	r0, r2, r0
 2966 0056 00FB00F0 		mul	r0, r0, r0
 2967 005a CB1A     		subs	r3, r1, r3
 2968 005c 03FB0303 		mla	r3, r3, r3, r0
 2969 0060 3B2B     		cmp	r3, #59
 2970 0062 2ADD     		ble	.L240
 2971              	.LBE77:
 2972              	.LBE76:
 2973              		.loc 1 220 0
 2974 0064 0027     		movs	r7, #0
 2975              	.LVL305:
 2976 0066 0BE0     		b	.L242
 2977              	.LVL306:
 2978              	.L244:
 2979              	.LBB79:
 2980              	.LBB78:
 2981              		.loc 1 214 0
 2982 0068 D6E90230 		ldrd	r3, r0, [r6, #8]
 2983 006c 101A     		subs	r0, r2, r0
 2984 006e 00FB00F0 		mul	r0, r0, r0
 2985 0072 CB1A     		subs	r3, r1, r3
 2986 0074 03FB0303 		mla	r3, r3, r3, r0
 2987 0078 3B2B     		cmp	r3, #59
 2988 007a 06F10806 		add	r6, r6, #8
 2989              	.LVL307:
 2990 007e 1CDD     		ble	.L240
 2991              	.LVL308:
 2992              	.L242:
 2993              	.LBE78:
 2994              	.LBE79:
 2995              		.loc 1 220 0
 2996 0080 0137     		adds	r7, r7, #1
 2997              	.LVL309:
 2998 0082 6745     		cmp	r7, ip
 2999 0084 F0D1     		bne	.L244
 3000              	.LVL310:
 3001              	.L241:
 3002              	.LBE75:
 3003              	.LBE74:
 3004              		.loc 1 528 0
 3005 0086 1D48     		ldr	r0, .L254+16
 3006 0088 4368     		ldr	r3, [r0, #4]
 3007 008a DB00     		lsls	r3, r3, #3
 3008 008c 0C33     		adds	r3, r3, #12
 3009 008e C618     		adds	r6, r0, r3
 3010 0090 C150     		str	r1, [r0, r3]
 3011              	.LVL311:
 3012 0092 7260     		str	r2, [r6, #4]
 3013              		.loc 1 529 0
 3014 0094 4368     		ldr	r3, [r0, #4]
 3015 0096 0133     		adds	r3, r3, #1
 3016 0098 4360     		str	r3, [r0, #4]
 3017 009a 0BE0     		b	.L247
 3018              	.LVL312:
 3019              	.L239:
 3020              		.loc 1 518 0
 3021 009c FB68     		ldr	r3, [r7, #12]
ARM GAS  /var/folders/qd/4mxf5pkd0zdf0b9dd1hp39180000gn/T//ccsf5yWP.s 			page 54


 3022 009e 1848     		ldr	r0, .L254+20
 3023 00a0 2133     		adds	r3, r3, #33
 3024              		.loc 1 533 0
 3025 00a2 B3F5967F 		cmp	r3, #300
 3026 00a6 16DC     		bgt	.L245
 3027              		.loc 1 533 0 is_stmt 0 discriminator 1
 3028 00a8 0668     		ldr	r6, [r0]
 3029 00aa 06F11307 		add	r7, r6, #19
 3030              	.LVL313:
 3031 00ae 9F42     		cmp	r7, r3
 3032 00b0 0EDA     		bge	.L252
 3033              	.L246:
 3034              		.loc 1 537 0 is_stmt 1
 3035 00b2 0360     		str	r3, [r0]
 3036              	.LVL314:
 3037              	.L247:
 3038              		.loc 1 539 0
 3039 00b4 C4E90012 		strd	r1, r2, [r4]
 3040              	.LVL315:
 3041 00b8 03E0     		b	.L238
 3042              	.LVL316:
 3043              	.L240:
 3044              		.loc 1 522 0
 3045 00ba 4FF0FF33 		mov	r3, #-1
 3046 00be C4E90033 		strd	r3, r3, [r4]
 3047              	.LVL317:
 3048              	.L238:
 3049              		.loc 1 540 0
 3050 00c2 039A     		ldr	r2, [sp, #12]
 3051 00c4 2B68     		ldr	r3, [r5]
 3052 00c6 9A42     		cmp	r2, r3
 3053 00c8 2046     		mov	r0, r4
 3054 00ca 0CD1     		bne	.L253
 3055              	.LVL318:
 3056 00cc 05B0     		add	sp, sp, #20
 3057              		.cfi_remember_state
 3058              		.cfi_def_cfa_offset 20
 3059              		@ sp needed
 3060 00ce F0BD     		pop	{r4, r5, r6, r7, pc}
 3061              	.LVL319:
 3062              	.L252:
 3063              		.cfi_restore_state
 3064              		.loc 1 533 0 discriminator 2
 3065 00d0 133E     		subs	r6, r6, #19
 3066 00d2 9E42     		cmp	r6, r3
 3067 00d4 EDDC     		bgt	.L246
 3068              	.L245:
 3069              		.loc 1 534 0
 3070 00d6 4FF47A72 		mov	r2, #1000
 3071              	.LVL320:
 3072              		.loc 1 535 0
 3073 00da 4FF0FF33 		mov	r3, #-1
 3074              		.loc 1 534 0
 3075 00de 0260     		str	r2, [r0]
 3076              		.loc 1 535 0
 3077 00e0 C4E90033 		strd	r3, r3, [r4]
 3078 00e4 EDE7     		b	.L238
ARM GAS  /var/folders/qd/4mxf5pkd0zdf0b9dd1hp39180000gn/T//ccsf5yWP.s 			page 55


 3079              	.LVL321:
 3080              	.L253:
 3081              		.loc 1 540 0
 3082 00e6 FFF7FEFF 		bl	__stack_chk_fail
 3083              	.LVL322:
 3084              	.L255:
 3085 00ea 00BF     		.align	2
 3086              	.L254:
 3087 00ec 00000000 		.word	__stack_chk_guard
 3088 00f0 00000000 		.word	.LANCHOR3
 3089 00f4 00000000 		.word	.LANCHOR1
 3090 00f8 00000000 		.word	.LANCHOR2
 3091 00fc 00000000 		.word	.LANCHOR4
 3092 0100 00000000 		.word	.LANCHOR5
 3093              		.cfi_endproc
 3094              	.LFE278:
 3095              		.size	mod_mapping_checkEnvironmentRobotReferencial, .-mod_mapping_checkEnvironmentRobotReferencial
 3096              		.section	.text.mod_mapping_computeDistanceForPictureRobotReferencial,"ax",%progbits
 3097              		.align	1
 3098              		.p2align 4,,15
 3099              		.global	mod_mapping_computeDistanceForPictureRobotReferencial
 3100              		.syntax unified
 3101              		.thumb
 3102              		.thumb_func
 3103              		.fpu fpv4-sp-d16
 3104              		.type	mod_mapping_computeDistanceForPictureRobotReferencial, %function
 3105              	mod_mapping_computeDistanceForPictureRobotReferencial:
 3106              	.LFB279:
 3107              		.loc 1 542 0
 3108              		.cfi_startproc
 3109              		@ args = 0, pretend = 0, frame = 8
 3110              		@ frame_needed = 0, uses_anonymous_args = 0
 3111              	.LVL323:
 3112 0000 00B5     		push	{lr}
 3113              		.cfi_def_cfa_offset 4
 3114              		.cfi_offset 14, -4
 3115 0002 074B     		ldr	r3, .L260
 3116              		.loc 1 543 0
 3117 0004 C068     		ldr	r0, [r0, #12]
 3118              	.LVL324:
 3119              		.loc 1 542 0
 3120 0006 1A68     		ldr	r2, [r3]
 3121 0008 83B0     		sub	sp, sp, #12
 3122              		.cfi_def_cfa_offset 16
 3123              		.loc 1 542 0
 3124 000a 0192     		str	r2, [sp, #4]
 3125              		.loc 1 545 0
 3126 000c 019A     		ldr	r2, [sp, #4]
 3127 000e 1B68     		ldr	r3, [r3]
 3128 0010 9A42     		cmp	r2, r3
 3129 0012 03D1     		bne	.L259
 3130 0014 6438     		subs	r0, r0, #100
 3131 0016 03B0     		add	sp, sp, #12
 3132              		.cfi_remember_state
 3133              		.cfi_def_cfa_offset 4
 3134              		@ sp needed
 3135 0018 5DF804FB 		ldr	pc, [sp], #4
ARM GAS  /var/folders/qd/4mxf5pkd0zdf0b9dd1hp39180000gn/T//ccsf5yWP.s 			page 56


 3136              	.L259:
 3137              		.cfi_restore_state
 3138 001c FFF7FEFF 		bl	__stack_chk_fail
 3139              	.LVL325:
 3140              	.L261:
 3141              		.align	2
 3142              	.L260:
 3143 0020 00000000 		.word	__stack_chk_guard
 3144              		.cfi_endproc
 3145              	.LFE279:
 3146              		.size	mod_mapping_computeDistanceForPictureRobotReferencial, .-mod_mapping_computeDistanceForPictu
 3147              		.global	objectListSize
 3148              		.global	objectList
 3149              		.global	environment
 3150              		.global	wall
 3151              		.section	.bss.environment,"aw",%nobits
 3152              		.align	2
 3153              		.set	.LANCHOR4,. + 0
 3154              		.type	environment, %object
 3155              		.size	environment, 60
 3156              	environment:
 3157 0000 00000000 		.space	60
 3157      00000000 
 3157      00000000 
 3157      00000000 
 3157      00000000 
 3158              		.section	.bss.objectList,"aw",%nobits
 3159              		.align	2
 3160              		.set	.LANCHOR2,. + 0
 3161              		.type	objectList, %object
 3162              		.size	objectList, 4
 3163              	objectList:
 3164 0000 00000000 		.space	4
 3165              		.section	.bss.objectListSize,"aw",%nobits
 3166              		.align	2
 3167              		.set	.LANCHOR1,. + 0
 3168              		.type	objectListSize, %object
 3169              		.size	objectListSize, 4
 3170              	objectListSize:
 3171 0000 00000000 		.space	4
 3172              		.section	.bss.robotActualPosition,"aw",%nobits
 3173              		.align	2
 3174              		.set	.LANCHOR0,. + 0
 3175              		.type	robotActualPosition, %object
 3176              		.size	robotActualPosition, 12
 3177              	robotActualPosition:
 3178 0000 00000000 		.space	12
 3178      00000000 
 3178      00000000 
 3179              		.section	.bss.wall,"aw",%nobits
 3180              		.align	2
 3181              		.set	.LANCHOR3,. + 0
 3182              		.type	wall, %object
 3183              		.size	wall, 16
 3184              	wall:
 3185 0000 00000000 		.space	16
 3185      00000000 
ARM GAS  /var/folders/qd/4mxf5pkd0zdf0b9dd1hp39180000gn/T//ccsf5yWP.s 			page 57


 3185      00000000 
 3185      00000000 
 3186              		.section	.data.lastStepObjectDistance.12068,"aw",%progbits
 3187              		.align	2
 3188              		.set	.LANCHOR5,. + 0
 3189              		.type	lastStepObjectDistance.12068, %object
 3190              		.size	lastStepObjectDistance.12068, 4
 3191              	lastStepObjectDistance.12068:
 3192 0000 E8030000 		.word	1000
 3193              		.section	.rodata.computeCoefDirecteur.str1.4,"aMS",%progbits,1
 3194              		.align	2
 3195              	.LC3:
 3196 0000 6D3A2025 		.ascii	"m: %d / %d nb %d\000"
 3196      64202F20 
 3196      2564206E 
 3196      62202564 
 3196      00
 3197              		.section	.rodata.measurementToPoint.str1.4,"aMS",%progbits,1
 3198              		.align	2
 3199              	.LC1:
 3200 0000 4E657720 		.ascii	"New point computed : %d, %d\000"
 3200      706F696E 
 3200      7420636F 
 3200      6D707574 
 3200      6564203A 
 3201              		.section	.rodata.mod_mapping_checkEnvironment.str1.4,"aMS",%progbits,1
 3202              		.align	2
 3203              	.LC8:
 3204 0000 4E657720 		.ascii	"New object found: %d, %d\000"
 3204      6F626A65 
 3204      63742066 
 3204      6F756E64 
 3204      3A202564 
 3205              		.section	.rodata.mod_mapping_computeDistanceForPicture.str1.4,"aMS",%progbits,1
 3206              		.align	2
 3207              	.LC9:
 3208 0000 546F2064 		.ascii	"To do2: %d, %f\000"
 3208      6F323A20 
 3208      25642C20 
 3208      256600
 3209              		.section	.rodata.mod_mapping_computeWallLocation.str1.4,"aMS",%progbits,1
 3210              		.align	2
 3211              	.LC5:
 3212 0000 57616C6C 		.ascii	"Wall location: %d, %d, %d, %d\000"
 3212      206C6F63 
 3212      6174696F 
 3212      6E3A2025 
 3212      642C2025 
 3213              		.section	.rodata.mod_mapping_getRobotDisplacement.str1.4,"aMS",%progbits,1
 3214              		.align	2
 3215              	.LC6:
 3216 0000 64656C74 		.ascii	"deltaX: %d, deltaY; %d angle: %f\000"
 3216      61583A20 
 3216      25642C20 
 3216      64656C74 
 3216      61593B20 
 3217 0021 000000   		.space	3
ARM GAS  /var/folders/qd/4mxf5pkd0zdf0b9dd1hp39180000gn/T//ccsf5yWP.s 			page 58


 3218              	.LC7:
 3219 0024 546F2064 		.ascii	"To do: %d, %f\000"
 3219      6F3A2025 
 3219      642C2025 
 3219      6600
 3220              		.section	.rodata.mod_mapping_updatePositionWheelSpeedType.str1.4,"aMS",%progbits,1
 3221              		.align	2
 3222              	.LC4:
 3223 0000 4E657720 		.ascii	"New position: %d, %d, %f\000"
 3223      706F7369 
 3223      74696F6E 
 3223      3A202564 
 3223      2C202564 
 3224              		.section	.rodata.moveOrigin.str1.4,"aMS",%progbits,1
 3225              		.align	2
 3226              	.LC2:
 3227 0000 4E657720 		.ascii	"New origin: %d, %d, %f\000"
 3227      6F726967 
 3227      696E3A20 
 3227      25642C20 
 3227      25642C20 
 3228              		.text
 3229              	.Letext0:
 3230              		.file 2 "/Applications/Eclipse_e-puck2.app/Contents/Eclipse_e-puck2/Tools/gcc-arm-none-eabi-7-2017
 3231              		.file 3 "/Applications/Eclipse_e-puck2.app/Contents/Eclipse_e-puck2/Tools/gcc-arm-none-eabi-7-2017
 3232              		.file 4 "/Applications/Eclipse_e-puck2.app/Contents/Eclipse_e-puck2/Tools/gcc-arm-none-eabi-7-2017
 3233              		.file 5 "/Applications/Eclipse_e-puck2.app/Contents/Eclipse_e-puck2/Tools/gcc-arm-none-eabi-7-2017
 3234              		.file 6 "/Applications/Eclipse_e-puck2.app/Contents/Eclipse_e-puck2/Tools/gcc-arm-none-eabi-7-2017
 3235              		.file 7 "/Applications/Eclipse_e-puck2.app/Contents/Eclipse_e-puck2/Tools/gcc-arm-none-eabi-7-2017
 3236              		.file 8 "modules/headers/structs.h"
 3237              		.file 9 "modules/headers/mod_mapping.h"
 3238              		.file 10 "/Applications/Eclipse_e-puck2.app/Contents/Eclipse_e-puck2/Tools/gcc-arm-none-eabi-7-201
 3239              		.file 11 "lib/e-puck2_main-processor/ChibiOS//os/rt/ports/ARMCMx/compilers/GCC/chtypes.h"
 3240              		.file 12 "lib/e-puck2_main-processor/ChibiOS//os/rt/include/chsystypes.h"
 3241              		.file 13 "lib/e-puck2_main-processor/ChibiOS//os/rt/include/chschd.h"
 3242              		.file 14 "lib/e-puck2_main-processor/ChibiOS//os/ext/CMSIS/include/core_cm4.h"
 3243              		.file 15 "lib/e-puck2_main-processor/ChibiOS//os/ext/CMSIS/ST/system_stm32f4xx.h"
 3244              		.file 16 "lib/e-puck2_main-processor/ChibiOS//os/ext/CMSIS/ST/stm32f407xx.h"
 3245              		.file 17 "lib/e-puck2_main-processor/ChibiOS//os/rt/ports/ARMCMx/chcore.h"
 3246              		.file 18 "lib/e-puck2_main-processor/ChibiOS//os/rt/ports/ARMCMx/chcore_v7m.h"
 3247              		.file 19 "lib/e-puck2_main-processor/ChibiOS//os/rt/include/chdebug.h"
 3248              		.file 20 "lib/e-puck2_main-processor/ChibiOS//os/rt/include/chtm.h"
 3249              		.file 21 "lib/e-puck2_main-processor/ChibiOS//os/rt/include/chstats.h"
 3250              		.file 22 "lib/e-puck2_main-processor/ChibiOS//os/rt/include/chsem.h"
 3251              		.file 23 "lib/e-puck2_main-processor/ChibiOS//os/rt/include/chmtx.h"
 3252              		.file 24 "lib/e-puck2_main-processor/ChibiOS//os/rt/include/chregistry.h"
 3253              		.file 25 "lib/e-puck2_main-processor/ChibiOS//os/rt/include/chevents.h"
 3254              		.file 26 "lib/e-puck2_main-processor/ChibiOS//os/rt/include/chqueues.h"
 3255              		.file 27 "lib/e-puck2_main-processor/ChibiOS//os/hal/ports/STM32/STM32F4xx/stm32_dma.h"
 3256              		.file 28 "lib/e-puck2_main-processor/ChibiOS//os/hal/include/hal_ioblock.h"
 3257              		.file 29 "lib/e-puck2_main-processor/ChibiOS//os/hal/ports/STM32/LLD/GPIOv2/pal_lld.h"
 3258              		.file 30 "lib/e-puck2_main-processor/ChibiOS//os/hal/include/adc.h"
 3259              		.file 31 "lib/e-puck2_main-processor/ChibiOS//os/hal/ports/STM32/STM32F4xx/adc_lld.h"
 3260              		.file 32 "lib/e-puck2_main-processor/ChibiOS//os/hal/include/can.h"
 3261              		.file 33 "lib/e-puck2_main-processor/ChibiOS//os/hal/ports/STM32/LLD/can_lld.h"
 3262              		.file 34 "lib/e-puck2_main-processor/ChibiOS//os/hal/include/dac.h"
 3263              		.file 35 "lib/e-puck2_main-processor/ChibiOS//os/hal/ports/STM32/LLD/DACv1/dac_lld.h"
ARM GAS  /var/folders/qd/4mxf5pkd0zdf0b9dd1hp39180000gn/T//ccsf5yWP.s 			page 59


 3264              		.file 36 "lib/e-puck2_main-processor/ChibiOS//os/hal/include/ext.h"
 3265              		.file 37 "lib/e-puck2_main-processor/ChibiOS//os/hal/ports/STM32/LLD/ext_lld.h"
 3266              		.file 38 "lib/e-puck2_main-processor/ChibiOS//os/hal/include/gpt.h"
 3267              		.file 39 "lib/e-puck2_main-processor/ChibiOS//os/hal/ports/STM32/LLD/TIMv1/gpt_lld.h"
 3268              		.file 40 "lib/e-puck2_main-processor/ChibiOS//os/hal/ports/STM32/LLD/TIMv1/stm32_tim.h"
 3269              		.file 41 "lib/e-puck2_main-processor/ChibiOS//os/hal/include/i2c.h"
 3270              		.file 42 "lib/e-puck2_main-processor/ChibiOS//os/hal/ports/STM32/LLD/I2Cv1/i2c_lld.h"
 3271              		.file 43 "lib/e-puck2_main-processor/ChibiOS//os/hal/include/i2s.h"
 3272              		.file 44 "lib/e-puck2_main-processor/ChibiOS//os/hal/ports/STM32/LLD/SPIv1/i2s_lld.h"
 3273              		.file 45 "lib/e-puck2_main-processor/ChibiOS//os/hal/include/pwm.h"
 3274              		.file 46 "lib/e-puck2_main-processor/ChibiOS//os/hal/ports/STM32/LLD/TIMv1/pwm_lld.h"
 3275              		.file 47 "lib/e-puck2_main-processor/ChibiOS//os/hal/include/serial.h"
 3276              		.file 48 "lib/e-puck2_main-processor/ChibiOS//os/hal/ports/STM32/LLD/USARTv1/serial_lld.h"
 3277              		.file 49 "lib/e-puck2_main-processor/ChibiOS//os/hal/include/sdc.h"
 3278              		.file 50 "lib/e-puck2_main-processor/ChibiOS//os/hal/ports/STM32/LLD/sdc_lld.h"
 3279              		.file 51 "lib/e-puck2_main-processor/ChibiOS//os/hal/include/spi.h"
 3280              		.file 52 "lib/e-puck2_main-processor/ChibiOS//os/hal/ports/STM32/LLD/SPIv1/spi_lld.h"
 3281              		.file 53 "lib/e-puck2_main-processor/ChibiOS//os/hal/include/usb.h"
 3282              		.file 54 "lib/e-puck2_main-processor/ChibiOS//os/hal/ports/STM32/LLD/OTGv1/usb_lld.h"
 3283              		.file 55 "lib/e-puck2_main-processor/ChibiOS//os/hal/ports/STM32/LLD/OTGv1/stm32_otg.h"
 3284              		.file 56 "/Applications/Eclipse_e-puck2.app/Contents/Eclipse_e-puck2/Tools/gcc-arm-none-eabi-7-201
 3285              		.file 57 "/Applications/Eclipse_e-puck2.app/Contents/Eclipse_e-puck2/Tools/gcc-arm-none-eabi-7-201
 3286              		.file 58 "modules/headers/mod_communication.h"
 3287              		.file 59 "modules/headers/mod_check.h"