ARM GAS  /var/folders/qd/4mxf5pkd0zdf0b9dd1hp39180000gn/T//ccswW7ZO.s 			page 1


   1              		.cpu cortex-m4
   2              		.eabi_attribute 27, 1
   3              		.eabi_attribute 28, 1
   4              		.eabi_attribute 20, 1
   5              		.eabi_attribute 21, 1
   6              		.eabi_attribute 23, 3
   7              		.eabi_attribute 24, 1
   8              		.eabi_attribute 25, 1
   9              		.eabi_attribute 26, 1
  10              		.eabi_attribute 30, 2
  11              		.eabi_attribute 34, 1
  12              		.eabi_attribute 18, 4
  13              		.file	"mod_errors.c"
  14              		.text
  15              	.Ltext0:
  16              		.cfi_sections	.debug_frame
  17              		.section	.text.error,"ax",%progbits
  18              		.align	1
  19              		.p2align 4,,15
  20              		.global	error
  21              		.syntax unified
  22              		.thumb
  23              		.thumb_func
  24              		.fpu fpv4-sp-d16
  25              		.type	error, %function
  26              	error:
  27              	.LFB219:
  28              		.file 1 "./modules/mod_errors.c"
  29              		.loc 1 19 0
  30              		.cfi_startproc
  31              		@ Volatile: function does not return.
  32              		@ args = 0, pretend = 0, frame = 8
  33              		@ frame_needed = 0, uses_anonymous_args = 0
  34              	.LVL0:
  35 0000 00B5     		push	{lr}
  36              		.cfi_def_cfa_offset 4
  37              		.cfi_offset 14, -4
  38 0002 064B     		ldr	r3, .L6
  39 0004 83B0     		sub	sp, sp, #12
  40              		.cfi_def_cfa_offset 16
  41              		.loc 1 19 0
  42 0006 1B68     		ldr	r3, [r3]
  43 0008 0193     		str	r3, [sp, #4]
  44 000a 0446     		mov	r4, r0
  45              	.LVL1:
  46              	.L2:
  47              		.loc 1 21 0 discriminator 1
  48 000c 2046     		mov	r0, r4
  49 000e FFF7FEFF 		bl	mod_basicIO_alert_leds
  50              	.LVL2:
  51              		.loc 1 22 0 discriminator 1
  52 0012 4FF4FA60 		mov	r0, #2000
  53 0016 FFF7FEFF 		bl	chThdSleep
  54              	.LVL3:
  55 001a F7E7     		b	.L2
  56              	.L7:
  57              		.align	2
ARM GAS  /var/folders/qd/4mxf5pkd0zdf0b9dd1hp39180000gn/T//ccswW7ZO.s 			page 2


  58              	.L6:
  59 001c 00000000 		.word	__stack_chk_guard
  60              		.cfi_endproc
  61              	.LFE219:
  62              		.size	error, .-error
  63              		.text
  64              	.Letext0:
  65              		.file 2 "/Applications/Eclipse_e-puck2.app/Contents/Eclipse_e-puck2/Tools/gcc-arm-none-eabi-7-2017
  66              		.file 3 "/Applications/Eclipse_e-puck2.app/Contents/Eclipse_e-puck2/Tools/gcc-arm-none-eabi-7-2017
  67              		.file 4 "lib/e-puck2_main-processor/ChibiOS//os/rt/ports/ARMCMx/compilers/GCC/chtypes.h"
  68              		.file 5 "lib/e-puck2_main-processor/ChibiOS//os/rt/include/chsystypes.h"
  69              		.file 6 "lib/e-puck2_main-processor/ChibiOS//os/rt/include/chschd.h"
  70              		.file 7 "lib/e-puck2_main-processor/ChibiOS//os/ext/CMSIS/include/core_cm4.h"
  71              		.file 8 "lib/e-puck2_main-processor/ChibiOS//os/ext/CMSIS/ST/system_stm32f4xx.h"
  72              		.file 9 "lib/e-puck2_main-processor/ChibiOS//os/rt/ports/ARMCMx/chcore.h"
  73              		.file 10 "lib/e-puck2_main-processor/ChibiOS//os/rt/ports/ARMCMx/chcore_v7m.h"
  74              		.file 11 "lib/e-puck2_main-processor/ChibiOS//os/rt/include/chdebug.h"
  75              		.file 12 "lib/e-puck2_main-processor/ChibiOS//os/rt/include/chtm.h"
  76              		.file 13 "lib/e-puck2_main-processor/ChibiOS//os/rt/include/chstats.h"
  77              		.file 14 "lib/e-puck2_main-processor/ChibiOS//os/rt/include/chsem.h"
  78              		.file 15 "lib/e-puck2_main-processor/ChibiOS//os/rt/include/chmtx.h"
  79              		.file 16 "lib/e-puck2_main-processor/ChibiOS//os/rt/include/chregistry.h"
  80              		.file 17 "./modules/headers/mod_errors.h"
  81              		.file 18 "./modules/headers/mod_basicIO.h"
  82              		.file 19 "lib/e-puck2_main-processor/ChibiOS//os/rt/include/chthreads.h"
  83              		.section	.debug_info,"",%progbits
  84              	.Ldebug_info0:
  85 0000 800A0000 		.4byte	0xa80
  86 0004 0400     		.2byte	0x4
  87 0006 00000000 		.4byte	.Ldebug_abbrev0
  88 000a 04       		.byte	0x4
  89 000b 01       		.uleb128 0x1
  90 000c 69020000 		.4byte	.LASF164
  91 0010 0C       		.byte	0xc
  92 0011 D9040000 		.4byte	.LASF165
  93 0015 1E080000 		.4byte	.LASF166
  94 0019 00000000 		.4byte	.Ldebug_ranges0+0
  95 001d 00000000 		.4byte	0
  96 0021 00000000 		.4byte	.Ldebug_line0
  97 0025 02       		.uleb128 0x2
  98 0026 04       		.byte	0x4
  99 0027 05       		.byte	0x5
 100 0028 696E7400 		.ascii	"int\000"
 101 002c 03       		.uleb128 0x3
 102 002d 04       		.byte	0x4
 103 002e 07       		.byte	0x7
 104 002f 5C020000 		.4byte	.LASF0
 105 0033 03       		.uleb128 0x3
 106 0034 08       		.byte	0x8
 107 0035 05       		.byte	0x5
 108 0036 3A010000 		.4byte	.LASF1
 109 003a 03       		.uleb128 0x3
 110 003b 08       		.byte	0x8
 111 003c 04       		.byte	0x4
 112 003d F0040000 		.4byte	.LASF2
 113 0041 03       		.uleb128 0x3
 114 0042 01       		.byte	0x1
ARM GAS  /var/folders/qd/4mxf5pkd0zdf0b9dd1hp39180000gn/T//ccswW7ZO.s 			page 3


 115 0043 06       		.byte	0x6
 116 0044 48010000 		.4byte	.LASF3
 117 0048 04       		.uleb128 0x4
 118 0049 53000000 		.4byte	.LASF6
 119 004d 02       		.byte	0x2
 120 004e 2B       		.byte	0x2b
 121 004f 53000000 		.4byte	0x53
 122 0053 03       		.uleb128 0x3
 123 0054 01       		.byte	0x1
 124 0055 08       		.byte	0x8
 125 0056 CA050000 		.4byte	.LASF4
 126 005a 03       		.uleb128 0x3
 127 005b 02       		.byte	0x2
 128 005c 05       		.byte	0x5
 129 005d F0050000 		.4byte	.LASF5
 130 0061 04       		.uleb128 0x4
 131 0062 10070000 		.4byte	.LASF7
 132 0066 02       		.byte	0x2
 133 0067 39       		.byte	0x39
 134 0068 6C000000 		.4byte	0x6c
 135 006c 03       		.uleb128 0x3
 136 006d 02       		.byte	0x2
 137 006e 07       		.byte	0x7
 138 006f FD030000 		.4byte	.LASF8
 139 0073 04       		.uleb128 0x4
 140 0074 78040000 		.4byte	.LASF9
 141 0078 02       		.byte	0x2
 142 0079 4D       		.byte	0x4d
 143 007a 7E000000 		.4byte	0x7e
 144 007e 03       		.uleb128 0x3
 145 007f 04       		.byte	0x4
 146 0080 05       		.byte	0x5
 147 0081 9C010000 		.4byte	.LASF10
 148 0085 04       		.uleb128 0x4
 149 0086 59070000 		.4byte	.LASF11
 150 008a 02       		.byte	0x2
 151 008b 4F       		.byte	0x4f
 152 008c 90000000 		.4byte	0x90
 153 0090 03       		.uleb128 0x3
 154 0091 04       		.byte	0x4
 155 0092 07       		.byte	0x7
 156 0093 F2060000 		.4byte	.LASF12
 157 0097 04       		.uleb128 0x4
 158 0098 61050000 		.4byte	.LASF13
 159 009c 02       		.byte	0x2
 160 009d 69       		.byte	0x69
 161 009e A2000000 		.4byte	0xa2
 162 00a2 03       		.uleb128 0x3
 163 00a3 08       		.byte	0x8
 164 00a4 07       		.byte	0x7
 165 00a5 A7000000 		.4byte	.LASF14
 166 00a9 04       		.uleb128 0x4
 167 00aa CC070000 		.4byte	.LASF15
 168 00ae 03       		.byte	0x3
 169 00af 18       		.byte	0x18
 170 00b0 48000000 		.4byte	0x48
 171 00b4 04       		.uleb128 0x4
ARM GAS  /var/folders/qd/4mxf5pkd0zdf0b9dd1hp39180000gn/T//ccswW7ZO.s 			page 4


 172 00b5 AD030000 		.4byte	.LASF16
 173 00b9 03       		.byte	0x3
 174 00ba 24       		.byte	0x24
 175 00bb 61000000 		.4byte	0x61
 176 00bf 04       		.uleb128 0x4
 177 00c0 C2050000 		.4byte	.LASF17
 178 00c4 03       		.byte	0x3
 179 00c5 2C       		.byte	0x2c
 180 00c6 73000000 		.4byte	0x73
 181 00ca 05       		.uleb128 0x5
 182 00cb BF000000 		.4byte	0xbf
 183 00cf 04       		.uleb128 0x4
 184 00d0 B0060000 		.4byte	.LASF18
 185 00d4 03       		.byte	0x3
 186 00d5 30       		.byte	0x30
 187 00d6 85000000 		.4byte	0x85
 188 00da 04       		.uleb128 0x4
 189 00db 3D000000 		.4byte	.LASF19
 190 00df 03       		.byte	0x3
 191 00e0 3C       		.byte	0x3c
 192 00e1 97000000 		.4byte	0x97
 193 00e5 04       		.uleb128 0x4
 194 00e6 BA040000 		.4byte	.LASF20
 195 00ea 04       		.byte	0x4
 196 00eb 45       		.byte	0x45
 197 00ec CF000000 		.4byte	0xcf
 198 00f0 04       		.uleb128 0x4
 199 00f1 15010000 		.4byte	.LASF21
 200 00f5 04       		.byte	0x4
 201 00f6 46       		.byte	0x46
 202 00f7 DA000000 		.4byte	0xda
 203 00fb 04       		.uleb128 0x4
 204 00fc 38060000 		.4byte	.LASF22
 205 0100 04       		.byte	0x4
 206 0101 48       		.byte	0x48
 207 0102 A9000000 		.4byte	0xa9
 208 0106 04       		.uleb128 0x4
 209 0107 A5010000 		.4byte	.LASF23
 210 010b 04       		.byte	0x4
 211 010c 49       		.byte	0x49
 212 010d A9000000 		.4byte	0xa9
 213 0111 04       		.uleb128 0x4
 214 0112 7D050000 		.4byte	.LASF24
 215 0116 04       		.byte	0x4
 216 0117 4A       		.byte	0x4a
 217 0118 A9000000 		.4byte	0xa9
 218 011c 04       		.uleb128 0x4
 219 011d 88010000 		.4byte	.LASF25
 220 0121 04       		.byte	0x4
 221 0122 4B       		.byte	0x4b
 222 0123 A9000000 		.4byte	0xa9
 223 0127 04       		.uleb128 0x4
 224 0128 B1050000 		.4byte	.LASF26
 225 012c 04       		.byte	0x4
 226 012d 4C       		.byte	0x4c
 227 012e CF000000 		.4byte	0xcf
 228 0132 04       		.uleb128 0x4
ARM GAS  /var/folders/qd/4mxf5pkd0zdf0b9dd1hp39180000gn/T//ccswW7ZO.s 			page 5


 229 0133 29040000 		.4byte	.LASF27
 230 0137 04       		.byte	0x4
 231 0138 4D       		.byte	0x4d
 232 0139 BF000000 		.4byte	0xbf
 233 013d 04       		.uleb128 0x4
 234 013e 6C040000 		.4byte	.LASF28
 235 0142 04       		.byte	0x4
 236 0143 4F       		.byte	0x4f
 237 0144 CF000000 		.4byte	0xcf
 238 0148 04       		.uleb128 0x4
 239 0149 4B020000 		.4byte	.LASF29
 240 014d 04       		.byte	0x4
 241 014e 51       		.byte	0x51
 242 014f BF000000 		.4byte	0xbf
 243 0153 04       		.uleb128 0x4
 244 0154 34040000 		.4byte	.LASF30
 245 0158 04       		.byte	0x4
 246 0159 52       		.byte	0x52
 247 015a CF000000 		.4byte	0xcf
 248 015e 04       		.uleb128 0x4
 249 015f 3B070000 		.4byte	.LASF31
 250 0163 05       		.byte	0x5
 251 0164 33       		.byte	0x33
 252 0165 CF000000 		.4byte	0xcf
 253 0169 05       		.uleb128 0x5
 254 016a 5E010000 		.4byte	0x15e
 255 016e 04       		.uleb128 0x4
 256 016f 1B070000 		.4byte	.LASF32
 257 0173 05       		.byte	0x5
 258 0174 3F       		.byte	0x3f
 259 0175 79010000 		.4byte	0x179
 260 0179 06       		.uleb128 0x6
 261 017a 1F040000 		.4byte	.LASF56
 262 017e 68       		.byte	0x68
 263 017f 06       		.byte	0x6
 264 0180 C2       		.byte	0xc2
 265 0181 97020000 		.4byte	0x297
 266 0185 07       		.uleb128 0x7
 267 0186 31060000 		.4byte	.LASF33
 268 018a 06       		.byte	0x6
 269 018b C3       		.byte	0xc3
 270 018c A2020000 		.4byte	0x2a2
 271 0190 00       		.byte	0
 272 0191 07       		.uleb128 0x7
 273 0192 AA050000 		.4byte	.LASF34
 274 0196 06       		.byte	0x6
 275 0197 C5       		.byte	0xc5
 276 0198 A2020000 		.4byte	0x2a2
 277 019c 04       		.byte	0x4
 278 019d 07       		.uleb128 0x7
 279 019e 1E010000 		.4byte	.LASF35
 280 01a2 06       		.byte	0x6
 281 01a3 C7       		.byte	0xc7
 282 01a4 27010000 		.4byte	0x127
 283 01a8 08       		.byte	0x8
 284 01a9 07       		.uleb128 0x7
 285 01aa 38050000 		.4byte	.LASF36
ARM GAS  /var/folders/qd/4mxf5pkd0zdf0b9dd1hp39180000gn/T//ccswW7ZO.s 			page 6


 286 01ae 06       		.byte	0x6
 287 01af C8       		.byte	0xc8
 288 01b0 1B050000 		.4byte	0x51b
 289 01b4 0C       		.byte	0xc
 290 01b5 07       		.uleb128 0x7
 291 01b6 E4010000 		.4byte	.LASF37
 292 01ba 06       		.byte	0x6
 293 01bb CA       		.byte	0xca
 294 01bc A2020000 		.4byte	0x2a2
 295 01c0 10       		.byte	0x10
 296 01c1 07       		.uleb128 0x7
 297 01c2 2A050000 		.4byte	.LASF38
 298 01c6 06       		.byte	0x6
 299 01c7 CB       		.byte	0xcb
 300 01c8 A2020000 		.4byte	0x2a2
 301 01cc 14       		.byte	0x14
 302 01cd 07       		.uleb128 0x7
 303 01ce EE070000 		.4byte	.LASF39
 304 01d2 06       		.byte	0x6
 305 01d3 D2       		.byte	0xd2
 306 01d4 91080000 		.4byte	0x891
 307 01d8 18       		.byte	0x18
 308 01d9 07       		.uleb128 0x7
 309 01da 51020000 		.4byte	.LASF40
 310 01de 06       		.byte	0x6
 311 01df D8       		.byte	0xd8
 312 01e0 A8080000 		.4byte	0x8a8
 313 01e4 1C       		.byte	0x1c
 314 01e5 07       		.uleb128 0x7
 315 01e6 FA050000 		.4byte	.LASF41
 316 01ea 06       		.byte	0x6
 317 01eb DD       		.byte	0xdd
 318 01ec 06010000 		.4byte	0x106
 319 01f0 20       		.byte	0x20
 320 01f1 07       		.uleb128 0x7
 321 01f2 4F060000 		.4byte	.LASF42
 322 01f6 06       		.byte	0x6
 323 01f7 E1       		.byte	0xe1
 324 01f8 FB000000 		.4byte	0xfb
 325 01fc 21       		.byte	0x21
 326 01fd 07       		.uleb128 0x7
 327 01fe A6070000 		.4byte	.LASF43
 328 0202 06       		.byte	0x6
 329 0203 E6       		.byte	0xe6
 330 0204 11010000 		.4byte	0x111
 331 0208 22       		.byte	0x22
 332 0209 07       		.uleb128 0x7
 333 020a 02060000 		.4byte	.LASF44
 334 020e 06       		.byte	0x6
 335 020f EC       		.byte	0xec
 336 0210 1C010000 		.4byte	0x11c
 337 0214 23       		.byte	0x23
 338 0215 07       		.uleb128 0x7
 339 0216 C6030000 		.4byte	.LASF45
 340 021a 06       		.byte	0x6
 341 021b F3       		.byte	0xf3
 342 021c 69010000 		.4byte	0x169
ARM GAS  /var/folders/qd/4mxf5pkd0zdf0b9dd1hp39180000gn/T//ccswW7ZO.s 			page 7


 343 0220 24       		.byte	0x24
 344 0221 08       		.uleb128 0x8
 345 0222 705F7500 		.ascii	"p_u\000"
 346 0226 06       		.byte	0x6
 347 0227 3101     		.2byte	0x131
 348 0229 C0070000 		.4byte	0x7c0
 349 022d 28       		.byte	0x28
 350 022e 09       		.uleb128 0x9
 351 022f B0040000 		.4byte	.LASF46
 352 0233 06       		.byte	0x6
 353 0234 3601     		.2byte	0x136
 354 0236 A8020000 		.4byte	0x2a8
 355 023a 2C       		.byte	0x2c
 356 023b 09       		.uleb128 0x9
 357 023c DD030000 		.4byte	.LASF47
 358 0240 06       		.byte	0x6
 359 0241 3C01     		.2byte	0x13c
 360 0243 CC020000 		.4byte	0x2cc
 361 0247 30       		.byte	0x30
 362 0248 09       		.uleb128 0x9
 363 0249 7D070000 		.4byte	.LASF48
 364 024d 06       		.byte	0x6
 365 024e 4001     		.2byte	0x140
 366 0250 32010000 		.4byte	0x132
 367 0254 38       		.byte	0x38
 368 0255 09       		.uleb128 0x9
 369 0256 9A060000 		.4byte	.LASF49
 370 025a 06       		.byte	0x6
 371 025b 4601     		.2byte	0x146
 372 025d 3D010000 		.4byte	0x13d
 373 0261 3C       		.byte	0x3c
 374 0262 09       		.uleb128 0x9
 375 0263 E6050000 		.4byte	.LASF50
 376 0267 06       		.byte	0x6
 377 0268 4D01     		.2byte	0x14d
 378 026a 8B080000 		.4byte	0x88b
 379 026e 40       		.byte	0x40
 380 026f 09       		.uleb128 0x9
 381 0270 45070000 		.4byte	.LASF51
 382 0274 06       		.byte	0x6
 383 0275 5101     		.2byte	0x151
 384 0277 27010000 		.4byte	0x127
 385 027b 44       		.byte	0x44
 386 027c 09       		.uleb128 0x9
 387 027d 71010000 		.4byte	.LASF52
 388 0281 06       		.byte	0x6
 389 0282 5801     		.2byte	0x158
 390 0284 7F030000 		.4byte	0x37f
 391 0288 48       		.byte	0x48
 392 0289 09       		.uleb128 0x9
 393 028a 57060000 		.4byte	.LASF53
 394 028e 06       		.byte	0x6
 395 028f 5E01     		.2byte	0x15e
 396 0291 71070000 		.4byte	0x771
 397 0295 50       		.byte	0x50
 398 0296 00       		.byte	0
 399 0297 04       		.uleb128 0x4
ARM GAS  /var/folders/qd/4mxf5pkd0zdf0b9dd1hp39180000gn/T//ccswW7ZO.s 			page 8


 400 0298 D4070000 		.4byte	.LASF54
 401 029c 05       		.byte	0x5
 402 029d 44       		.byte	0x44
 403 029e A2020000 		.4byte	0x2a2
 404 02a2 0A       		.uleb128 0xa
 405 02a3 04       		.byte	0x4
 406 02a4 6E010000 		.4byte	0x16e
 407 02a8 04       		.uleb128 0x4
 408 02a9 8D040000 		.4byte	.LASF55
 409 02ad 05       		.byte	0x5
 410 02ae 49       		.byte	0x49
 411 02af B3020000 		.4byte	0x2b3
 412 02b3 06       		.uleb128 0x6
 413 02b4 CD060000 		.4byte	.LASF57
 414 02b8 04       		.byte	0x4
 415 02b9 06       		.byte	0x6
 416 02ba B0       		.byte	0xb0
 417 02bb CC020000 		.4byte	0x2cc
 418 02bf 07       		.uleb128 0x7
 419 02c0 31060000 		.4byte	.LASF33
 420 02c4 06       		.byte	0x6
 421 02c5 B1       		.byte	0xb1
 422 02c6 A2020000 		.4byte	0x2a2
 423 02ca 00       		.byte	0
 424 02cb 00       		.byte	0
 425 02cc 04       		.uleb128 0x4
 426 02cd 5F060000 		.4byte	.LASF58
 427 02d1 05       		.byte	0x5
 428 02d2 50       		.byte	0x50
 429 02d3 D7020000 		.4byte	0x2d7
 430 02d7 06       		.uleb128 0x6
 431 02d8 69000000 		.4byte	.LASF59
 432 02dc 08       		.byte	0x8
 433 02dd 06       		.byte	0x6
 434 02de B7       		.byte	0xb7
 435 02df FC020000 		.4byte	0x2fc
 436 02e3 07       		.uleb128 0x7
 437 02e4 31060000 		.4byte	.LASF33
 438 02e8 06       		.byte	0x6
 439 02e9 B8       		.byte	0xb8
 440 02ea A2020000 		.4byte	0x2a2
 441 02ee 00       		.byte	0
 442 02ef 07       		.uleb128 0x7
 443 02f0 AA050000 		.4byte	.LASF34
 444 02f4 06       		.byte	0x6
 445 02f5 B9       		.byte	0xb9
 446 02f6 A2020000 		.4byte	0x2a2
 447 02fa 04       		.byte	0x4
 448 02fb 00       		.byte	0
 449 02fc 04       		.uleb128 0x4
 450 02fd 0D000000 		.4byte	.LASF60
 451 0301 05       		.byte	0x5
 452 0302 57       		.byte	0x57
 453 0303 07030000 		.4byte	0x307
 454 0307 0B       		.uleb128 0xb
 455 0308 5E040000 		.4byte	.LASF61
 456 030c 1C       		.byte	0x1c
ARM GAS  /var/folders/qd/4mxf5pkd0zdf0b9dd1hp39180000gn/T//ccswW7ZO.s 			page 9


 457 030d 06       		.byte	0x6
 458 030e 9001     		.2byte	0x190
 459 0310 63030000 		.4byte	0x363
 460 0314 09       		.uleb128 0x9
 461 0315 C5060000 		.4byte	.LASF62
 462 0319 06       		.byte	0x6
 463 031a 9101     		.2byte	0x191
 464 031c CC020000 		.4byte	0x2cc
 465 0320 00       		.byte	0
 466 0321 09       		.uleb128 0x9
 467 0322 0C060000 		.4byte	.LASF63
 468 0326 06       		.byte	0x6
 469 0327 9201     		.2byte	0x192
 470 0329 27010000 		.4byte	0x127
 471 032d 08       		.byte	0x8
 472 032e 09       		.uleb128 0x9
 473 032f 32050000 		.4byte	.LASF64
 474 0333 06       		.byte	0x6
 475 0334 9401     		.2byte	0x194
 476 0336 1B050000 		.4byte	0x51b
 477 033a 0C       		.byte	0xc
 478 033b 09       		.uleb128 0x9
 479 033c FC010000 		.4byte	.LASF65
 480 0340 06       		.byte	0x6
 481 0341 9701     		.2byte	0x197
 482 0343 A2020000 		.4byte	0x2a2
 483 0347 10       		.byte	0x10
 484 0348 09       		.uleb128 0x9
 485 0349 59050000 		.4byte	.LASF66
 486 034d 06       		.byte	0x6
 487 034e 9801     		.2byte	0x198
 488 0350 A2020000 		.4byte	0x2a2
 489 0354 14       		.byte	0x14
 490 0355 09       		.uleb128 0x9
 491 0356 4F050000 		.4byte	.LASF67
 492 035a 06       		.byte	0x6
 493 035b 9B01     		.2byte	0x19b
 494 035d A2020000 		.4byte	0x2a2
 495 0361 18       		.byte	0x18
 496 0362 00       		.byte	0
 497 0363 04       		.uleb128 0x4
 498 0364 50070000 		.4byte	.LASF68
 499 0368 05       		.byte	0x5
 500 0369 5C       		.byte	0x5c
 501 036a 6E030000 		.4byte	0x36e
 502 036e 0A       		.uleb128 0xa
 503 036f 04       		.byte	0x4
 504 0370 74030000 		.4byte	0x374
 505 0374 0C       		.uleb128 0xc
 506 0375 7F030000 		.4byte	0x37f
 507 0379 0D       		.uleb128 0xd
 508 037a 7F030000 		.4byte	0x37f
 509 037e 00       		.byte	0
 510 037f 0E       		.uleb128 0xe
 511 0380 04       		.byte	0x4
 512 0381 04       		.uleb128 0x4
 513 0382 9A050000 		.4byte	.LASF69
ARM GAS  /var/folders/qd/4mxf5pkd0zdf0b9dd1hp39180000gn/T//ccswW7ZO.s 			page 10


 514 0386 05       		.byte	0x5
 515 0387 61       		.byte	0x61
 516 0388 8C030000 		.4byte	0x38c
 517 038c 0B       		.uleb128 0xb
 518 038d 6F060000 		.4byte	.LASF70
 519 0391 14       		.byte	0x14
 520 0392 06       		.byte	0x6
 521 0393 6B01     		.2byte	0x16b
 522 0395 DB030000 		.4byte	0x3db
 523 0399 09       		.uleb128 0x9
 524 039a 2B020000 		.4byte	.LASF71
 525 039e 06       		.byte	0x6
 526 039f 6C01     		.2byte	0x16c
 527 03a1 AE080000 		.4byte	0x8ae
 528 03a5 00       		.byte	0
 529 03a6 09       		.uleb128 0x9
 530 03a7 0D020000 		.4byte	.LASF72
 531 03ab 06       		.byte	0x6
 532 03ac 6D01     		.2byte	0x16d
 533 03ae AE080000 		.4byte	0x8ae
 534 03b2 04       		.byte	0x4
 535 03b3 09       		.uleb128 0x9
 536 03b4 D4030000 		.4byte	.LASF73
 537 03b8 06       		.byte	0x6
 538 03b9 6E01     		.2byte	0x16e
 539 03bb 5E010000 		.4byte	0x15e
 540 03bf 08       		.byte	0x8
 541 03c0 09       		.uleb128 0x9
 542 03c1 97080000 		.4byte	.LASF74
 543 03c5 06       		.byte	0x6
 544 03c6 6F01     		.2byte	0x16f
 545 03c8 63030000 		.4byte	0x363
 546 03cc 0C       		.byte	0xc
 547 03cd 09       		.uleb128 0x9
 548 03ce 83070000 		.4byte	.LASF75
 549 03d2 06       		.byte	0x6
 550 03d3 7101     		.2byte	0x171
 551 03d5 7F030000 		.4byte	0x37f
 552 03d9 10       		.byte	0x10
 553 03da 00       		.byte	0
 554 03db 04       		.uleb128 0x4
 555 03dc F2000000 		.4byte	.LASF76
 556 03e0 05       		.byte	0x5
 557 03e1 66       		.byte	0x66
 558 03e2 E6030000 		.4byte	0x3e6
 559 03e6 0B       		.uleb128 0xb
 560 03e7 C2040000 		.4byte	.LASF77
 561 03eb 10       		.byte	0x10
 562 03ec 06       		.byte	0x6
 563 03ed 7B01     		.2byte	0x17b
 564 03ef 28040000 		.4byte	0x428
 565 03f3 09       		.uleb128 0x9
 566 03f4 2B020000 		.4byte	.LASF71
 567 03f8 06       		.byte	0x6
 568 03f9 7C01     		.2byte	0x17c
 569 03fb AE080000 		.4byte	0x8ae
 570 03ff 00       		.byte	0
ARM GAS  /var/folders/qd/4mxf5pkd0zdf0b9dd1hp39180000gn/T//ccswW7ZO.s 			page 11


 571 0400 09       		.uleb128 0x9
 572 0401 0D020000 		.4byte	.LASF72
 573 0405 06       		.byte	0x6
 574 0406 7E01     		.2byte	0x17e
 575 0408 AE080000 		.4byte	0x8ae
 576 040c 04       		.byte	0x4
 577 040d 09       		.uleb128 0x9
 578 040e D4030000 		.4byte	.LASF73
 579 0412 06       		.byte	0x6
 580 0413 8001     		.2byte	0x180
 581 0415 5E010000 		.4byte	0x15e
 582 0419 08       		.byte	0x8
 583 041a 09       		.uleb128 0x9
 584 041b F5070000 		.4byte	.LASF78
 585 041f 06       		.byte	0x6
 586 0420 8201     		.2byte	0x182
 587 0422 69010000 		.4byte	0x169
 588 0426 0C       		.byte	0xc
 589 0427 00       		.byte	0
 590 0428 04       		.uleb128 0x4
 591 0429 7A000000 		.4byte	.LASF79
 592 042d 05       		.byte	0x5
 593 042e 6B       		.byte	0x6b
 594 042f 33040000 		.4byte	0x433
 595 0433 0F       		.uleb128 0xf
 596 0434 15020000 		.4byte	.LASF80
 597 0438 1404     		.2byte	0x414
 598 043a 06       		.byte	0x6
 599 043b A201     		.2byte	0x1a2
 600 043d 76040000 		.4byte	0x476
 601 0441 09       		.uleb128 0x9
 602 0442 64070000 		.4byte	.LASF81
 603 0446 06       		.byte	0x6
 604 0447 AA01     		.2byte	0x1aa
 605 0449 97080000 		.4byte	0x897
 606 044d 00       		.byte	0
 607 044e 09       		.uleb128 0x9
 608 044f AD070000 		.4byte	.LASF82
 609 0453 06       		.byte	0x6
 610 0454 AF01     		.2byte	0x1af
 611 0456 48010000 		.4byte	0x148
 612 045a 04       		.byte	0x4
 613 045b 09       		.uleb128 0x9
 614 045c 33020000 		.4byte	.LASF83
 615 0460 06       		.byte	0x6
 616 0461 B301     		.2byte	0x1b3
 617 0463 48010000 		.4byte	0x148
 618 0467 08       		.byte	0x8
 619 0468 09       		.uleb128 0x9
 620 0469 AE010000 		.4byte	.LASF84
 621 046d 06       		.byte	0x6
 622 046e B901     		.2byte	0x1b9
 623 0470 03070000 		.4byte	0x703
 624 0474 0C       		.byte	0xc
 625 0475 00       		.byte	0
 626 0476 04       		.uleb128 0x4
 627 0477 3B040000 		.4byte	.LASF85
ARM GAS  /var/folders/qd/4mxf5pkd0zdf0b9dd1hp39180000gn/T//ccswW7ZO.s 			page 12


 628 047b 05       		.byte	0x5
 629 047c 70       		.byte	0x70
 630 047d 81040000 		.4byte	0x481
 631 0481 0F       		.uleb128 0xf
 632 0482 92010000 		.4byte	.LASF86
 633 0486 7006     		.2byte	0x670
 634 0488 06       		.byte	0x6
 635 0489 C201     		.2byte	0x1c2
 636 048b EE040000 		.4byte	0x4ee
 637 048f 09       		.uleb128 0x9
 638 0490 BE070000 		.4byte	.LASF87
 639 0494 06       		.byte	0x6
 640 0495 C601     		.2byte	0x1c6
 641 0497 FC020000 		.4byte	0x2fc
 642 049b 00       		.byte	0
 643 049c 09       		.uleb128 0x9
 644 049d 81010000 		.4byte	.LASF88
 645 04a1 06       		.byte	0x6
 646 04a2 CA01     		.2byte	0x1ca
 647 04a4 DB030000 		.4byte	0x3db
 648 04a8 1C       		.byte	0x1c
 649 04a9 08       		.uleb128 0x8
 650 04aa 64626700 		.ascii	"dbg\000"
 651 04ae 06       		.byte	0x6
 652 04af CE01     		.2byte	0x1ce
 653 04b1 28040000 		.4byte	0x428
 654 04b5 2C       		.byte	0x2c
 655 04b6 10       		.uleb128 0x10
 656 04b7 E7000000 		.4byte	.LASF89
 657 04bb 06       		.byte	0x6
 658 04bc D201     		.2byte	0x1d2
 659 04be 6E010000 		.4byte	0x16e
 660 04c2 4004     		.2byte	0x440
 661 04c4 11       		.uleb128 0x11
 662 04c5 746D00   		.ascii	"tm\000"
 663 04c8 06       		.byte	0x6
 664 04c9 D701     		.2byte	0x1d7
 665 04cb 23070000 		.4byte	0x723
 666 04cf A804     		.2byte	0x4a8
 667 04d1 10       		.uleb128 0x10
 668 04d2 46000000 		.4byte	.LASF90
 669 04d6 06       		.byte	0x6
 670 04d7 DD01     		.2byte	0x1dd
 671 04d9 B5070000 		.4byte	0x7b5
 672 04dd B004     		.2byte	0x4b0
 673 04df 10       		.uleb128 0x10
 674 04e0 3C020000 		.4byte	.LASF91
 675 04e4 06       		.byte	0x6
 676 04e5 E301     		.2byte	0x1e3
 677 04e7 B4080000 		.4byte	0x8b4
 678 04eb E804     		.2byte	0x4e8
 679 04ed 00       		.byte	0
 680 04ee 12       		.uleb128 0x12
 681 04ef 08010000 		.4byte	.LASF92
 682 04f3 07       		.byte	0x7
 683 04f4 A706     		.2byte	0x6a7
 684 04f6 CA000000 		.4byte	0xca
ARM GAS  /var/folders/qd/4mxf5pkd0zdf0b9dd1hp39180000gn/T//ccswW7ZO.s 			page 13


 685 04fa 13       		.uleb128 0x13
 686 04fb B6030000 		.4byte	.LASF93
 687 04ff 08       		.byte	0x8
 688 0500 4C       		.byte	0x4c
 689 0501 CF000000 		.4byte	0xcf
 690 0505 04       		.uleb128 0x4
 691 0506 04020000 		.4byte	.LASF94
 692 050a 09       		.byte	0x9
 693 050b 65       		.byte	0x65
 694 050c 7F030000 		.4byte	0x37f
 695 0510 04       		.uleb128 0x4
 696 0511 82040000 		.4byte	.LASF95
 697 0515 09       		.byte	0x9
 698 0516 6D       		.byte	0x6d
 699 0517 DA000000 		.4byte	0xda
 700 051b 06       		.uleb128 0x6
 701 051c 75070000 		.4byte	.LASF96
 702 0520 04       		.byte	0x4
 703 0521 09       		.byte	0x9
 704 0522 89       		.byte	0x89
 705 0523 34050000 		.4byte	0x534
 706 0527 14       		.uleb128 0x14
 707 0528 72313300 		.ascii	"r13\000"
 708 052c 09       		.byte	0x9
 709 052d 8A       		.byte	0x8a
 710 052e 75060000 		.4byte	0x675
 711 0532 00       		.byte	0
 712 0533 00       		.byte	0
 713 0534 06       		.uleb128 0x6
 714 0535 5D000000 		.4byte	.LASF97
 715 0539 64       		.byte	0x64
 716 053a 0A       		.byte	0xa
 717 053b F4       		.byte	0xf4
 718 053c 75060000 		.4byte	0x675
 719 0540 14       		.uleb128 0x14
 720 0541 73313600 		.ascii	"s16\000"
 721 0545 0A       		.byte	0xa
 722 0546 F6       		.byte	0xf6
 723 0547 05050000 		.4byte	0x505
 724 054b 00       		.byte	0
 725 054c 14       		.uleb128 0x14
 726 054d 73313700 		.ascii	"s17\000"
 727 0551 0A       		.byte	0xa
 728 0552 F7       		.byte	0xf7
 729 0553 05050000 		.4byte	0x505
 730 0557 04       		.byte	0x4
 731 0558 14       		.uleb128 0x14
 732 0559 73313800 		.ascii	"s18\000"
 733 055d 0A       		.byte	0xa
 734 055e F8       		.byte	0xf8
 735 055f 05050000 		.4byte	0x505
 736 0563 08       		.byte	0x8
 737 0564 14       		.uleb128 0x14
 738 0565 73313900 		.ascii	"s19\000"
 739 0569 0A       		.byte	0xa
 740 056a F9       		.byte	0xf9
 741 056b 05050000 		.4byte	0x505
ARM GAS  /var/folders/qd/4mxf5pkd0zdf0b9dd1hp39180000gn/T//ccswW7ZO.s 			page 14


 742 056f 0C       		.byte	0xc
 743 0570 14       		.uleb128 0x14
 744 0571 73323000 		.ascii	"s20\000"
 745 0575 0A       		.byte	0xa
 746 0576 FA       		.byte	0xfa
 747 0577 05050000 		.4byte	0x505
 748 057b 10       		.byte	0x10
 749 057c 14       		.uleb128 0x14
 750 057d 73323100 		.ascii	"s21\000"
 751 0581 0A       		.byte	0xa
 752 0582 FB       		.byte	0xfb
 753 0583 05050000 		.4byte	0x505
 754 0587 14       		.byte	0x14
 755 0588 14       		.uleb128 0x14
 756 0589 73323200 		.ascii	"s22\000"
 757 058d 0A       		.byte	0xa
 758 058e FC       		.byte	0xfc
 759 058f 05050000 		.4byte	0x505
 760 0593 18       		.byte	0x18
 761 0594 14       		.uleb128 0x14
 762 0595 73323300 		.ascii	"s23\000"
 763 0599 0A       		.byte	0xa
 764 059a FD       		.byte	0xfd
 765 059b 05050000 		.4byte	0x505
 766 059f 1C       		.byte	0x1c
 767 05a0 14       		.uleb128 0x14
 768 05a1 73323400 		.ascii	"s24\000"
 769 05a5 0A       		.byte	0xa
 770 05a6 FE       		.byte	0xfe
 771 05a7 05050000 		.4byte	0x505
 772 05ab 20       		.byte	0x20
 773 05ac 14       		.uleb128 0x14
 774 05ad 73323500 		.ascii	"s25\000"
 775 05b1 0A       		.byte	0xa
 776 05b2 FF       		.byte	0xff
 777 05b3 05050000 		.4byte	0x505
 778 05b7 24       		.byte	0x24
 779 05b8 08       		.uleb128 0x8
 780 05b9 73323600 		.ascii	"s26\000"
 781 05bd 0A       		.byte	0xa
 782 05be 0001     		.2byte	0x100
 783 05c0 05050000 		.4byte	0x505
 784 05c4 28       		.byte	0x28
 785 05c5 08       		.uleb128 0x8
 786 05c6 73323700 		.ascii	"s27\000"
 787 05ca 0A       		.byte	0xa
 788 05cb 0101     		.2byte	0x101
 789 05cd 05050000 		.4byte	0x505
 790 05d1 2C       		.byte	0x2c
 791 05d2 08       		.uleb128 0x8
 792 05d3 73323800 		.ascii	"s28\000"
 793 05d7 0A       		.byte	0xa
 794 05d8 0201     		.2byte	0x102
 795 05da 05050000 		.4byte	0x505
 796 05de 30       		.byte	0x30
 797 05df 08       		.uleb128 0x8
 798 05e0 73323900 		.ascii	"s29\000"
ARM GAS  /var/folders/qd/4mxf5pkd0zdf0b9dd1hp39180000gn/T//ccswW7ZO.s 			page 15


 799 05e4 0A       		.byte	0xa
 800 05e5 0301     		.2byte	0x103
 801 05e7 05050000 		.4byte	0x505
 802 05eb 34       		.byte	0x34
 803 05ec 08       		.uleb128 0x8
 804 05ed 73333000 		.ascii	"s30\000"
 805 05f1 0A       		.byte	0xa
 806 05f2 0401     		.2byte	0x104
 807 05f4 05050000 		.4byte	0x505
 808 05f8 38       		.byte	0x38
 809 05f9 08       		.uleb128 0x8
 810 05fa 73333100 		.ascii	"s31\000"
 811 05fe 0A       		.byte	0xa
 812 05ff 0501     		.2byte	0x105
 813 0601 05050000 		.4byte	0x505
 814 0605 3C       		.byte	0x3c
 815 0606 08       		.uleb128 0x8
 816 0607 723400   		.ascii	"r4\000"
 817 060a 0A       		.byte	0xa
 818 060b 0701     		.2byte	0x107
 819 060d 05050000 		.4byte	0x505
 820 0611 40       		.byte	0x40
 821 0612 08       		.uleb128 0x8
 822 0613 723500   		.ascii	"r5\000"
 823 0616 0A       		.byte	0xa
 824 0617 0801     		.2byte	0x108
 825 0619 05050000 		.4byte	0x505
 826 061d 44       		.byte	0x44
 827 061e 08       		.uleb128 0x8
 828 061f 723600   		.ascii	"r6\000"
 829 0622 0A       		.byte	0xa
 830 0623 0901     		.2byte	0x109
 831 0625 05050000 		.4byte	0x505
 832 0629 48       		.byte	0x48
 833 062a 08       		.uleb128 0x8
 834 062b 723700   		.ascii	"r7\000"
 835 062e 0A       		.byte	0xa
 836 062f 0A01     		.2byte	0x10a
 837 0631 05050000 		.4byte	0x505
 838 0635 4C       		.byte	0x4c
 839 0636 08       		.uleb128 0x8
 840 0637 723800   		.ascii	"r8\000"
 841 063a 0A       		.byte	0xa
 842 063b 0B01     		.2byte	0x10b
 843 063d 05050000 		.4byte	0x505
 844 0641 50       		.byte	0x50
 845 0642 08       		.uleb128 0x8
 846 0643 723900   		.ascii	"r9\000"
 847 0646 0A       		.byte	0xa
 848 0647 0C01     		.2byte	0x10c
 849 0649 05050000 		.4byte	0x505
 850 064d 54       		.byte	0x54
 851 064e 08       		.uleb128 0x8
 852 064f 72313000 		.ascii	"r10\000"
 853 0653 0A       		.byte	0xa
 854 0654 0D01     		.2byte	0x10d
 855 0656 05050000 		.4byte	0x505
ARM GAS  /var/folders/qd/4mxf5pkd0zdf0b9dd1hp39180000gn/T//ccswW7ZO.s 			page 16


 856 065a 58       		.byte	0x58
 857 065b 08       		.uleb128 0x8
 858 065c 72313100 		.ascii	"r11\000"
 859 0660 0A       		.byte	0xa
 860 0661 0E01     		.2byte	0x10e
 861 0663 05050000 		.4byte	0x505
 862 0667 5C       		.byte	0x5c
 863 0668 08       		.uleb128 0x8
 864 0669 6C7200   		.ascii	"lr\000"
 865 066c 0A       		.byte	0xa
 866 066d 0F01     		.2byte	0x10f
 867 066f 05050000 		.4byte	0x505
 868 0673 60       		.byte	0x60
 869 0674 00       		.byte	0
 870 0675 0A       		.uleb128 0xa
 871 0676 04       		.byte	0x4
 872 0677 34050000 		.4byte	0x534
 873 067b 15       		.uleb128 0x15
 874 067c 10       		.byte	0x10
 875 067d 0B       		.byte	0xb
 876 067e 51       		.byte	0x51
 877 067f B4060000 		.4byte	0x6b4
 878 0683 07       		.uleb128 0x7
 879 0684 8A070000 		.4byte	.LASF98
 880 0688 0B       		.byte	0xb
 881 0689 55       		.byte	0x55
 882 068a 5E010000 		.4byte	0x15e
 883 068e 00       		.byte	0
 884 068f 07       		.uleb128 0x7
 885 0690 BB010000 		.4byte	.LASF99
 886 0694 0B       		.byte	0xb
 887 0695 59       		.byte	0x59
 888 0696 A2020000 		.4byte	0x2a2
 889 069a 04       		.byte	0x4
 890 069b 07       		.uleb128 0x7
 891 069c 7F080000 		.4byte	.LASF100
 892 06a0 0B       		.byte	0xb
 893 06a1 5D       		.byte	0x5d
 894 06a2 7F030000 		.4byte	0x37f
 895 06a6 08       		.byte	0x8
 896 06a7 07       		.uleb128 0x7
 897 06a8 B5070000 		.4byte	.LASF101
 898 06ac 0B       		.byte	0xb
 899 06ad 61       		.byte	0x61
 900 06ae A9000000 		.4byte	0xa9
 901 06b2 0C       		.byte	0xc
 902 06b3 00       		.byte	0
 903 06b4 04       		.uleb128 0x4
 904 06b5 0F050000 		.4byte	.LASF102
 905 06b9 0B       		.byte	0xb
 906 06ba 62       		.byte	0x62
 907 06bb 7B060000 		.4byte	0x67b
 908 06bf 16       		.uleb128 0x16
 909 06c0 0804     		.2byte	0x408
 910 06c2 0B       		.byte	0xb
 911 06c3 67       		.byte	0x67
 912 06c4 ED060000 		.4byte	0x6ed
ARM GAS  /var/folders/qd/4mxf5pkd0zdf0b9dd1hp39180000gn/T//ccswW7ZO.s 			page 17


 913 06c8 07       		.uleb128 0x7
 914 06c9 F4010000 		.4byte	.LASF103
 915 06cd 0B       		.byte	0xb
 916 06ce 6B       		.byte	0x6b
 917 06cf 2C000000 		.4byte	0x2c
 918 06d3 00       		.byte	0
 919 06d4 07       		.uleb128 0x7
 920 06d5 08050000 		.4byte	.LASF104
 921 06d9 0B       		.byte	0xb
 922 06da 6F       		.byte	0x6f
 923 06db ED060000 		.4byte	0x6ed
 924 06df 04       		.byte	0x4
 925 06e0 07       		.uleb128 0x7
 926 06e1 85050000 		.4byte	.LASF105
 927 06e5 0B       		.byte	0xb
 928 06e6 73       		.byte	0x73
 929 06e7 F3060000 		.4byte	0x6f3
 930 06eb 08       		.byte	0x8
 931 06ec 00       		.byte	0
 932 06ed 0A       		.uleb128 0xa
 933 06ee 04       		.byte	0x4
 934 06ef B4060000 		.4byte	0x6b4
 935 06f3 17       		.uleb128 0x17
 936 06f4 B4060000 		.4byte	0x6b4
 937 06f8 03070000 		.4byte	0x703
 938 06fc 18       		.uleb128 0x18
 939 06fd 2C000000 		.4byte	0x2c
 940 0701 3F       		.byte	0x3f
 941 0702 00       		.byte	0
 942 0703 04       		.uleb128 0x4
 943 0704 BE000000 		.4byte	.LASF106
 944 0708 0B       		.byte	0xb
 945 0709 74       		.byte	0x74
 946 070a BF060000 		.4byte	0x6bf
 947 070e 15       		.uleb128 0x15
 948 070f 04       		.byte	0x4
 949 0710 0C       		.byte	0xc
 950 0711 38       		.byte	0x38
 951 0712 23070000 		.4byte	0x723
 952 0716 07       		.uleb128 0x7
 953 0717 6E070000 		.4byte	.LASF107
 954 071b 0C       		.byte	0xc
 955 071c 3C       		.byte	0x3c
 956 071d E5000000 		.4byte	0xe5
 957 0721 00       		.byte	0
 958 0722 00       		.byte	0
 959 0723 04       		.uleb128 0x4
 960 0724 3E050000 		.4byte	.LASF108
 961 0728 0C       		.byte	0xc
 962 0729 3D       		.byte	0x3d
 963 072a 0E070000 		.4byte	0x70e
 964 072e 15       		.uleb128 0x15
 965 072f 18       		.byte	0x18
 966 0730 0C       		.byte	0xc
 967 0731 48       		.byte	0x48
 968 0732 71070000 		.4byte	0x771
 969 0736 07       		.uleb128 0x7
ARM GAS  /var/folders/qd/4mxf5pkd0zdf0b9dd1hp39180000gn/T//ccswW7ZO.s 			page 18


 970 0737 24070000 		.4byte	.LASF109
 971 073b 0C       		.byte	0xc
 972 073c 49       		.byte	0x49
 973 073d E5000000 		.4byte	0xe5
 974 0741 00       		.byte	0
 975 0742 07       		.uleb128 0x7
 976 0743 8E000000 		.4byte	.LASF110
 977 0747 0C       		.byte	0xc
 978 0748 4A       		.byte	0x4a
 979 0749 E5000000 		.4byte	0xe5
 980 074d 04       		.byte	0x4
 981 074e 07       		.uleb128 0x7
 982 074f 2F040000 		.4byte	.LASF111
 983 0753 0C       		.byte	0xc
 984 0754 4B       		.byte	0x4b
 985 0755 E5000000 		.4byte	0xe5
 986 0759 08       		.byte	0x8
 987 075a 14       		.uleb128 0x14
 988 075b 6E00     		.ascii	"n\000"
 989 075d 0C       		.byte	0xc
 990 075e 4C       		.byte	0x4c
 991 075f 53010000 		.4byte	0x153
 992 0763 0C       		.byte	0xc
 993 0764 07       		.uleb128 0x7
 994 0765 6C050000 		.4byte	.LASF112
 995 0769 0C       		.byte	0xc
 996 076a 4D       		.byte	0x4d
 997 076b F0000000 		.4byte	0xf0
 998 076f 10       		.byte	0x10
 999 0770 00       		.byte	0
 1000 0771 04       		.uleb128 0x4
 1001 0772 94000000 		.4byte	.LASF113
 1002 0776 0C       		.byte	0xc
 1003 0777 4E       		.byte	0x4e
 1004 0778 2E070000 		.4byte	0x72e
 1005 077c 15       		.uleb128 0x15
 1006 077d 38       		.byte	0x38
 1007 077e 0D       		.byte	0xd
 1008 077f 38       		.byte	0x38
 1009 0780 B5070000 		.4byte	0x7b5
 1010 0784 07       		.uleb128 0x7
 1011 0785 F1030000 		.4byte	.LASF114
 1012 0789 0D       		.byte	0xd
 1013 078a 39       		.byte	0x39
 1014 078b 53010000 		.4byte	0x153
 1015 078f 00       		.byte	0
 1016 0790 07       		.uleb128 0x7
 1017 0791 B9050000 		.4byte	.LASF115
 1018 0795 0D       		.byte	0xd
 1019 0796 3A       		.byte	0x3a
 1020 0797 53010000 		.4byte	0x153
 1021 079b 04       		.byte	0x4
 1022 079c 07       		.uleb128 0x7
 1023 079d 13080000 		.4byte	.LASF116
 1024 07a1 0D       		.byte	0xd
 1025 07a2 3B       		.byte	0x3b
 1026 07a3 71070000 		.4byte	0x771
ARM GAS  /var/folders/qd/4mxf5pkd0zdf0b9dd1hp39180000gn/T//ccswW7ZO.s 			page 19


 1027 07a7 08       		.byte	0x8
 1028 07a8 07       		.uleb128 0x7
 1029 07a9 53040000 		.4byte	.LASF117
 1030 07ad 0D       		.byte	0xd
 1031 07ae 3D       		.byte	0x3d
 1032 07af 71070000 		.4byte	0x771
 1033 07b3 20       		.byte	0x20
 1034 07b4 00       		.byte	0
 1035 07b5 04       		.uleb128 0x4
 1036 07b6 10040000 		.4byte	.LASF118
 1037 07ba 0D       		.byte	0xd
 1038 07bb 3F       		.byte	0x3f
 1039 07bc 7C070000 		.4byte	0x77c
 1040 07c0 19       		.uleb128 0x19
 1041 07c1 04       		.byte	0x4
 1042 07c2 06       		.byte	0x6
 1043 07c3 FA       		.byte	0xfa
 1044 07c4 1D080000 		.4byte	0x81d
 1045 07c8 1A       		.uleb128 0x1a
 1046 07c9 36000000 		.4byte	.LASF119
 1047 07cd 06       		.byte	0x6
 1048 07ce 0101     		.2byte	0x101
 1049 07d0 32010000 		.4byte	0x132
 1050 07d4 1A       		.uleb128 0x1a
 1051 07d5 DE000000 		.4byte	.LASF120
 1052 07d9 06       		.byte	0x6
 1053 07da 0801     		.2byte	0x108
 1054 07dc 32010000 		.4byte	0x132
 1055 07e0 1A       		.uleb128 0x1a
 1056 07e1 E7070000 		.4byte	.LASF121
 1057 07e5 06       		.byte	0x6
 1058 07e6 0F01     		.2byte	0x10f
 1059 07e8 7F030000 		.4byte	0x37f
 1060 07ec 1A       		.uleb128 0x1a
 1061 07ed 30000000 		.4byte	.LASF122
 1062 07f1 06       		.byte	0x6
 1063 07f2 1601     		.2byte	0x116
 1064 07f4 1D080000 		.4byte	0x81d
 1065 07f8 1A       		.uleb128 0x1a
 1066 07f9 CD030000 		.4byte	.LASF123
 1067 07fd 06       		.byte	0x6
 1068 07fe 1E01     		.2byte	0x11e
 1069 0800 48080000 		.4byte	0x848
 1070 0804 1A       		.uleb128 0x1a
 1071 0805 09070000 		.4byte	.LASF124
 1072 0809 06       		.byte	0x6
 1073 080a 2701     		.2byte	0x127
 1074 080c 8B080000 		.4byte	0x88b
 1075 0810 1A       		.uleb128 0x1a
 1076 0811 2A060000 		.4byte	.LASF125
 1077 0815 06       		.byte	0x6
 1078 0816 2F01     		.2byte	0x12f
 1079 0818 3D010000 		.4byte	0x13d
 1080 081c 00       		.byte	0
 1081 081d 0A       		.uleb128 0xa
 1082 081e 04       		.byte	0x4
 1083 081f 97020000 		.4byte	0x297
ARM GAS  /var/folders/qd/4mxf5pkd0zdf0b9dd1hp39180000gn/T//ccswW7ZO.s 			page 20


 1084 0823 06       		.uleb128 0x6
 1085 0824 8D060000 		.4byte	.LASF126
 1086 0828 0C       		.byte	0xc
 1087 0829 0E       		.byte	0xe
 1088 082a 34       		.byte	0x34
 1089 082b 48080000 		.4byte	0x848
 1090 082f 07       		.uleb128 0x7
 1091 0830 EC010000 		.4byte	.LASF127
 1092 0834 0E       		.byte	0xe
 1093 0835 35       		.byte	0x35
 1094 0836 CC020000 		.4byte	0x2cc
 1095 083a 00       		.byte	0
 1096 083b 07       		.uleb128 0x7
 1097 083c F7030000 		.4byte	.LASF128
 1098 0840 0E       		.byte	0xe
 1099 0841 37       		.byte	0x37
 1100 0842 48010000 		.4byte	0x148
 1101 0846 08       		.byte	0x8
 1102 0847 00       		.byte	0
 1103 0848 0A       		.uleb128 0xa
 1104 0849 04       		.byte	0x4
 1105 084a 23080000 		.4byte	0x823
 1106 084e 06       		.uleb128 0x6
 1107 084f 9D070000 		.4byte	.LASF129
 1108 0853 14       		.byte	0x14
 1109 0854 0F       		.byte	0xf
 1110 0855 39       		.byte	0x39
 1111 0856 8B080000 		.4byte	0x88b
 1112 085a 07       		.uleb128 0x7
 1113 085b 79010000 		.4byte	.LASF130
 1114 085f 0F       		.byte	0xf
 1115 0860 3A       		.byte	0x3a
 1116 0861 CC020000 		.4byte	0x2cc
 1117 0865 00       		.byte	0
 1118 0866 07       		.uleb128 0x7
 1119 0867 C4070000 		.4byte	.LASF131
 1120 086b 0F       		.byte	0xf
 1121 086c 3C       		.byte	0x3c
 1122 086d A2020000 		.4byte	0x2a2
 1123 0871 08       		.byte	0x8
 1124 0872 07       		.uleb128 0x7
 1125 0873 34070000 		.4byte	.LASF132
 1126 0877 0F       		.byte	0xf
 1127 0878 3E       		.byte	0x3e
 1128 0879 E6090000 		.4byte	0x9e6
 1129 087d 0C       		.byte	0xc
 1130 087e 07       		.uleb128 0x7
 1131 087f 25020000 		.4byte	.LASF133
 1132 0883 0F       		.byte	0xf
 1133 0884 41       		.byte	0x41
 1134 0885 48010000 		.4byte	0x148
 1135 0889 10       		.byte	0x10
 1136 088a 00       		.byte	0
 1137 088b 0A       		.uleb128 0xa
 1138 088c 04       		.byte	0x4
 1139 088d 4E080000 		.4byte	0x84e
 1140 0891 0A       		.uleb128 0xa
ARM GAS  /var/folders/qd/4mxf5pkd0zdf0b9dd1hp39180000gn/T//ccswW7ZO.s 			page 21


 1141 0892 04       		.byte	0x4
 1142 0893 A3080000 		.4byte	0x8a3
 1143 0897 05       		.uleb128 0x5
 1144 0898 91080000 		.4byte	0x891
 1145 089c 03       		.uleb128 0x3
 1146 089d 01       		.byte	0x1
 1147 089e 08       		.byte	0x8
 1148 089f 04070000 		.4byte	.LASF134
 1149 08a3 1B       		.uleb128 0x1b
 1150 08a4 9C080000 		.4byte	0x89c
 1151 08a8 0A       		.uleb128 0xa
 1152 08a9 04       		.byte	0x4
 1153 08aa 10050000 		.4byte	0x510
 1154 08ae 0A       		.uleb128 0xa
 1155 08af 04       		.byte	0x4
 1156 08b0 81030000 		.4byte	0x381
 1157 08b4 17       		.uleb128 0x17
 1158 08b5 10050000 		.4byte	0x510
 1159 08b9 C4080000 		.4byte	0x8c4
 1160 08bd 18       		.uleb128 0x18
 1161 08be 2C000000 		.4byte	0x2c
 1162 08c2 30       		.byte	0x30
 1163 08c3 00       		.byte	0
 1164 08c4 1C       		.uleb128 0x1c
 1165 08c5 636800   		.ascii	"ch\000"
 1166 08c8 06       		.byte	0x6
 1167 08c9 0902     		.2byte	0x209
 1168 08cb 76040000 		.4byte	0x476
 1169 08cf 15       		.uleb128 0x15
 1170 08d0 16       		.byte	0x16
 1171 08d1 10       		.byte	0x10
 1172 08d2 34       		.byte	0x34
 1173 08d3 B0090000 		.4byte	0x9b0
 1174 08d7 07       		.uleb128 0x7
 1175 08d8 89080000 		.4byte	.LASF135
 1176 08dc 10       		.byte	0x10
 1177 08dd 35       		.byte	0x35
 1178 08de B0090000 		.4byte	0x9b0
 1179 08e2 00       		.byte	0
 1180 08e3 07       		.uleb128 0x7
 1181 08e4 9C040000 		.4byte	.LASF136
 1182 08e8 10       		.byte	0x10
 1183 08e9 36       		.byte	0x36
 1184 08ea A9000000 		.4byte	0xa9
 1185 08ee 04       		.byte	0x4
 1186 08ef 07       		.uleb128 0x7
 1187 08f0 EA060000 		.4byte	.LASF137
 1188 08f4 10       		.byte	0x10
 1189 08f5 37       		.byte	0x37
 1190 08f6 A9000000 		.4byte	0xa9
 1191 08fa 05       		.byte	0x5
 1192 08fb 07       		.uleb128 0x7
 1193 08fc 08080000 		.4byte	.LASF138
 1194 0900 10       		.byte	0x10
 1195 0901 38       		.byte	0x38
 1196 0902 B4000000 		.4byte	0xb4
 1197 0906 06       		.byte	0x6
ARM GAS  /var/folders/qd/4mxf5pkd0zdf0b9dd1hp39180000gn/T//ccswW7ZO.s 			page 22


 1198 0907 07       		.uleb128 0x7
 1199 0908 8F050000 		.4byte	.LASF139
 1200 090c 10       		.byte	0x10
 1201 090d 39       		.byte	0x39
 1202 090e A9000000 		.4byte	0xa9
 1203 0912 08       		.byte	0x8
 1204 0913 07       		.uleb128 0x7
 1205 0914 FC040000 		.4byte	.LASF140
 1206 0918 10       		.byte	0x10
 1207 0919 3A       		.byte	0x3a
 1208 091a A9000000 		.4byte	0xa9
 1209 091e 09       		.byte	0x9
 1210 091f 07       		.uleb128 0x7
 1211 0920 D0000000 		.4byte	.LASF141
 1212 0924 10       		.byte	0x10
 1213 0925 3B       		.byte	0x3b
 1214 0926 A9000000 		.4byte	0xa9
 1215 092a 0A       		.byte	0xa
 1216 092b 07       		.uleb128 0x7
 1217 092c B9060000 		.4byte	.LASF142
 1218 0930 10       		.byte	0x10
 1219 0931 3C       		.byte	0x3c
 1220 0932 A9000000 		.4byte	0xa9
 1221 0936 0B       		.byte	0xb
 1222 0937 07       		.uleb128 0x7
 1223 0938 92070000 		.4byte	.LASF143
 1224 093c 10       		.byte	0x10
 1225 093d 3D       		.byte	0x3d
 1226 093e A9000000 		.4byte	0xa9
 1227 0942 0C       		.byte	0xc
 1228 0943 07       		.uleb128 0x7
 1229 0944 80060000 		.4byte	.LASF144
 1230 0948 10       		.byte	0x10
 1231 0949 3E       		.byte	0x3e
 1232 094a A9000000 		.4byte	0xa9
 1233 094e 0D       		.byte	0xd
 1234 094f 07       		.uleb128 0x7
 1235 0950 00000000 		.4byte	.LASF145
 1236 0954 10       		.byte	0x10
 1237 0955 3F       		.byte	0x3f
 1238 0956 A9000000 		.4byte	0xa9
 1239 095a 0E       		.byte	0xe
 1240 095b 07       		.uleb128 0x7
 1241 095c 1E050000 		.4byte	.LASF146
 1242 0960 10       		.byte	0x10
 1243 0961 40       		.byte	0x40
 1244 0962 A9000000 		.4byte	0xa9
 1245 0966 0F       		.byte	0xf
 1246 0967 07       		.uleb128 0x7
 1247 0968 54010000 		.4byte	.LASF147
 1248 096c 10       		.byte	0x10
 1249 096d 41       		.byte	0x41
 1250 096e A9000000 		.4byte	0xa9
 1251 0972 10       		.byte	0x10
 1252 0973 07       		.uleb128 0x7
 1253 0974 25010000 		.4byte	.LASF148
 1254 0978 10       		.byte	0x10
ARM GAS  /var/folders/qd/4mxf5pkd0zdf0b9dd1hp39180000gn/T//ccswW7ZO.s 			page 23


 1255 0979 43       		.byte	0x43
 1256 097a A9000000 		.4byte	0xa9
 1257 097e 11       		.byte	0x11
 1258 097f 07       		.uleb128 0x7
 1259 0980 64010000 		.4byte	.LASF149
 1260 0984 10       		.byte	0x10
 1261 0985 44       		.byte	0x44
 1262 0986 A9000000 		.4byte	0xa9
 1263 098a 12       		.byte	0x12
 1264 098b 07       		.uleb128 0x7
 1265 098c A4040000 		.4byte	.LASF150
 1266 0990 10       		.byte	0x10
 1267 0991 45       		.byte	0x45
 1268 0992 A9000000 		.4byte	0xa9
 1269 0996 13       		.byte	0x13
 1270 0997 07       		.uleb128 0x7
 1271 0998 40060000 		.4byte	.LASF151
 1272 099c 10       		.byte	0x10
 1273 099d 46       		.byte	0x46
 1274 099e A9000000 		.4byte	0xa9
 1275 09a2 14       		.byte	0x14
 1276 09a3 07       		.uleb128 0x7
 1277 09a4 47040000 		.4byte	.LASF152
 1278 09a8 10       		.byte	0x10
 1279 09a9 48       		.byte	0x48
 1280 09aa A9000000 		.4byte	0xa9
 1281 09ae 15       		.byte	0x15
 1282 09af 00       		.byte	0
 1283 09b0 17       		.uleb128 0x17
 1284 09b1 9C080000 		.4byte	0x89c
 1285 09b5 C0090000 		.4byte	0x9c0
 1286 09b9 18       		.uleb128 0x18
 1287 09ba 2C000000 		.4byte	0x2c
 1288 09be 03       		.byte	0x3
 1289 09bf 00       		.byte	0
 1290 09c0 04       		.uleb128 0x4
 1291 09c1 C1010000 		.4byte	.LASF153
 1292 09c5 10       		.byte	0x10
 1293 09c6 49       		.byte	0x49
 1294 09c7 CF080000 		.4byte	0x8cf
 1295 09cb 1B       		.uleb128 0x1b
 1296 09cc C0090000 		.4byte	0x9c0
 1297 09d0 13       		.uleb128 0x13
 1298 09d1 E8030000 		.4byte	.LASF154
 1299 09d5 10       		.byte	0x10
 1300 09d6 6E       		.byte	0x6e
 1301 09d7 CB090000 		.4byte	0x9cb
 1302 09db 04       		.uleb128 0x4
 1303 09dc 32010000 		.4byte	.LASF155
 1304 09e0 0F       		.byte	0xf
 1305 09e1 34       		.byte	0x34
 1306 09e2 4E080000 		.4byte	0x84e
 1307 09e6 0A       		.uleb128 0xa
 1308 09e7 04       		.byte	0x4
 1309 09e8 DB090000 		.4byte	0x9db
 1310 09ec 1D       		.uleb128 0x1d
 1311 09ed 07       		.byte	0x7
ARM GAS  /var/folders/qd/4mxf5pkd0zdf0b9dd1hp39180000gn/T//ccswW7ZO.s 			page 24


 1312 09ee 01       		.byte	0x1
 1313 09ef 53000000 		.4byte	0x53
 1314 09f3 11       		.byte	0x11
 1315 09f4 11       		.byte	0x11
 1316 09f5 180A0000 		.4byte	0xa18
 1317 09f9 1E       		.uleb128 0x1e
 1318 09fa DD060000 		.4byte	.LASF156
 1319 09fe 01       		.byte	0x1
 1320 09ff 1E       		.uleb128 0x1e
 1321 0a00 D8050000 		.4byte	.LASF157
 1322 0a04 02       		.byte	0x2
 1323 0a05 1E       		.uleb128 0x1e
 1324 0a06 1A000000 		.4byte	.LASF158
 1325 0a0a 03       		.byte	0x3
 1326 0a0b 1E       		.uleb128 0x1e
 1327 0a0c CB010000 		.4byte	.LASF159
 1328 0a10 04       		.byte	0x4
 1329 0a11 1E       		.uleb128 0x1e
 1330 0a12 29070000 		.4byte	.LASF160
 1331 0a16 05       		.byte	0x5
 1332 0a17 00       		.byte	0
 1333 0a18 04       		.uleb128 0x4
 1334 0a19 00080000 		.4byte	.LASF161
 1335 0a1d 11       		.byte	0x11
 1336 0a1e 17       		.byte	0x17
 1337 0a1f EC090000 		.4byte	0x9ec
 1338 0a23 1F       		.uleb128 0x1f
 1339 0a24 77050000 		.4byte	.LASF167
 1340 0a28 01       		.byte	0x1
 1341 0a29 13       		.byte	0x13
 1342 0a2a 00000000 		.4byte	.LFB219
 1343 0a2e 20000000 		.4byte	.LFE219-.LFB219
 1344 0a32 01       		.uleb128 0x1
 1345 0a33 9C       		.byte	0x9c
 1346 0a34 6D0A0000 		.4byte	0xa6d
 1347 0a38 20       		.uleb128 0x20
 1348 0a39 89000000 		.4byte	.LASF168
 1349 0a3d 01       		.byte	0x1
 1350 0a3e 13       		.byte	0x13
 1351 0a3f 180A0000 		.4byte	0xa18
 1352 0a43 00000000 		.4byte	.LLST0
 1353 0a47 21       		.uleb128 0x21
 1354 0a48 12000000 		.4byte	.LVL2
 1355 0a4c 6D0A0000 		.4byte	0xa6d
 1356 0a50 5B0A0000 		.4byte	0xa5b
 1357 0a54 22       		.uleb128 0x22
 1358 0a55 01       		.uleb128 0x1
 1359 0a56 50       		.byte	0x50
 1360 0a57 02       		.uleb128 0x2
 1361 0a58 74       		.byte	0x74
 1362 0a59 00       		.sleb128 0
 1363 0a5a 00       		.byte	0
 1364 0a5b 23       		.uleb128 0x23
 1365 0a5c 1A000000 		.4byte	.LVL3
 1366 0a60 780A0000 		.4byte	0xa78
 1367 0a64 22       		.uleb128 0x22
 1368 0a65 01       		.uleb128 0x1
ARM GAS  /var/folders/qd/4mxf5pkd0zdf0b9dd1hp39180000gn/T//ccswW7ZO.s 			page 25


 1369 0a66 50       		.byte	0x50
 1370 0a67 03       		.uleb128 0x3
 1371 0a68 0A       		.byte	0xa
 1372 0a69 D007     		.2byte	0x7d0
 1373 0a6b 00       		.byte	0
 1374 0a6c 00       		.byte	0
 1375 0a6d 24       		.uleb128 0x24
 1376 0a6e 13060000 		.4byte	.LASF162
 1377 0a72 13060000 		.4byte	.LASF162
 1378 0a76 12       		.byte	0x12
 1379 0a77 22       		.byte	0x22
 1380 0a78 24       		.uleb128 0x24
 1381 0a79 A5060000 		.4byte	.LASF163
 1382 0a7d A5060000 		.4byte	.LASF163
 1383 0a81 13       		.byte	0x13
 1384 0a82 96       		.byte	0x96
 1385 0a83 00       		.byte	0
 1386              		.section	.debug_abbrev,"",%progbits
 1387              	.Ldebug_abbrev0:
 1388 0000 01       		.uleb128 0x1
 1389 0001 11       		.uleb128 0x11
 1390 0002 01       		.byte	0x1
 1391 0003 25       		.uleb128 0x25
 1392 0004 0E       		.uleb128 0xe
 1393 0005 13       		.uleb128 0x13
 1394 0006 0B       		.uleb128 0xb
 1395 0007 03       		.uleb128 0x3
 1396 0008 0E       		.uleb128 0xe
 1397 0009 1B       		.uleb128 0x1b
 1398 000a 0E       		.uleb128 0xe
 1399 000b 55       		.uleb128 0x55
 1400 000c 17       		.uleb128 0x17
 1401 000d 11       		.uleb128 0x11
 1402 000e 01       		.uleb128 0x1
 1403 000f 10       		.uleb128 0x10
 1404 0010 17       		.uleb128 0x17
 1405 0011 00       		.byte	0
 1406 0012 00       		.byte	0
 1407 0013 02       		.uleb128 0x2
 1408 0014 24       		.uleb128 0x24
 1409 0015 00       		.byte	0
 1410 0016 0B       		.uleb128 0xb
 1411 0017 0B       		.uleb128 0xb
 1412 0018 3E       		.uleb128 0x3e
 1413 0019 0B       		.uleb128 0xb
 1414 001a 03       		.uleb128 0x3
 1415 001b 08       		.uleb128 0x8
 1416 001c 00       		.byte	0
 1417 001d 00       		.byte	0
 1418 001e 03       		.uleb128 0x3
 1419 001f 24       		.uleb128 0x24
 1420 0020 00       		.byte	0
 1421 0021 0B       		.uleb128 0xb
 1422 0022 0B       		.uleb128 0xb
 1423 0023 3E       		.uleb128 0x3e
 1424 0024 0B       		.uleb128 0xb
 1425 0025 03       		.uleb128 0x3
ARM GAS  /var/folders/qd/4mxf5pkd0zdf0b9dd1hp39180000gn/T//ccswW7ZO.s 			page 26


 1426 0026 0E       		.uleb128 0xe
 1427 0027 00       		.byte	0
 1428 0028 00       		.byte	0
 1429 0029 04       		.uleb128 0x4
 1430 002a 16       		.uleb128 0x16
 1431 002b 00       		.byte	0
 1432 002c 03       		.uleb128 0x3
 1433 002d 0E       		.uleb128 0xe
 1434 002e 3A       		.uleb128 0x3a
 1435 002f 0B       		.uleb128 0xb
 1436 0030 3B       		.uleb128 0x3b
 1437 0031 0B       		.uleb128 0xb
 1438 0032 49       		.uleb128 0x49
 1439 0033 13       		.uleb128 0x13
 1440 0034 00       		.byte	0
 1441 0035 00       		.byte	0
 1442 0036 05       		.uleb128 0x5
 1443 0037 35       		.uleb128 0x35
 1444 0038 00       		.byte	0
 1445 0039 49       		.uleb128 0x49
 1446 003a 13       		.uleb128 0x13
 1447 003b 00       		.byte	0
 1448 003c 00       		.byte	0
 1449 003d 06       		.uleb128 0x6
 1450 003e 13       		.uleb128 0x13
 1451 003f 01       		.byte	0x1
 1452 0040 03       		.uleb128 0x3
 1453 0041 0E       		.uleb128 0xe
 1454 0042 0B       		.uleb128 0xb
 1455 0043 0B       		.uleb128 0xb
 1456 0044 3A       		.uleb128 0x3a
 1457 0045 0B       		.uleb128 0xb
 1458 0046 3B       		.uleb128 0x3b
 1459 0047 0B       		.uleb128 0xb
 1460 0048 01       		.uleb128 0x1
 1461 0049 13       		.uleb128 0x13
 1462 004a 00       		.byte	0
 1463 004b 00       		.byte	0
 1464 004c 07       		.uleb128 0x7
 1465 004d 0D       		.uleb128 0xd
 1466 004e 00       		.byte	0
 1467 004f 03       		.uleb128 0x3
 1468 0050 0E       		.uleb128 0xe
 1469 0051 3A       		.uleb128 0x3a
 1470 0052 0B       		.uleb128 0xb
 1471 0053 3B       		.uleb128 0x3b
 1472 0054 0B       		.uleb128 0xb
 1473 0055 49       		.uleb128 0x49
 1474 0056 13       		.uleb128 0x13
 1475 0057 38       		.uleb128 0x38
 1476 0058 0B       		.uleb128 0xb
 1477 0059 00       		.byte	0
 1478 005a 00       		.byte	0
 1479 005b 08       		.uleb128 0x8
 1480 005c 0D       		.uleb128 0xd
 1481 005d 00       		.byte	0
 1482 005e 03       		.uleb128 0x3
ARM GAS  /var/folders/qd/4mxf5pkd0zdf0b9dd1hp39180000gn/T//ccswW7ZO.s 			page 27


 1483 005f 08       		.uleb128 0x8
 1484 0060 3A       		.uleb128 0x3a
 1485 0061 0B       		.uleb128 0xb
 1486 0062 3B       		.uleb128 0x3b
 1487 0063 05       		.uleb128 0x5
 1488 0064 49       		.uleb128 0x49
 1489 0065 13       		.uleb128 0x13
 1490 0066 38       		.uleb128 0x38
 1491 0067 0B       		.uleb128 0xb
 1492 0068 00       		.byte	0
 1493 0069 00       		.byte	0
 1494 006a 09       		.uleb128 0x9
 1495 006b 0D       		.uleb128 0xd
 1496 006c 00       		.byte	0
 1497 006d 03       		.uleb128 0x3
 1498 006e 0E       		.uleb128 0xe
 1499 006f 3A       		.uleb128 0x3a
 1500 0070 0B       		.uleb128 0xb
 1501 0071 3B       		.uleb128 0x3b
 1502 0072 05       		.uleb128 0x5
 1503 0073 49       		.uleb128 0x49
 1504 0074 13       		.uleb128 0x13
 1505 0075 38       		.uleb128 0x38
 1506 0076 0B       		.uleb128 0xb
 1507 0077 00       		.byte	0
 1508 0078 00       		.byte	0
 1509 0079 0A       		.uleb128 0xa
 1510 007a 0F       		.uleb128 0xf
 1511 007b 00       		.byte	0
 1512 007c 0B       		.uleb128 0xb
 1513 007d 0B       		.uleb128 0xb
 1514 007e 49       		.uleb128 0x49
 1515 007f 13       		.uleb128 0x13
 1516 0080 00       		.byte	0
 1517 0081 00       		.byte	0
 1518 0082 0B       		.uleb128 0xb
 1519 0083 13       		.uleb128 0x13
 1520 0084 01       		.byte	0x1
 1521 0085 03       		.uleb128 0x3
 1522 0086 0E       		.uleb128 0xe
 1523 0087 0B       		.uleb128 0xb
 1524 0088 0B       		.uleb128 0xb
 1525 0089 3A       		.uleb128 0x3a
 1526 008a 0B       		.uleb128 0xb
 1527 008b 3B       		.uleb128 0x3b
 1528 008c 05       		.uleb128 0x5
 1529 008d 01       		.uleb128 0x1
 1530 008e 13       		.uleb128 0x13
 1531 008f 00       		.byte	0
 1532 0090 00       		.byte	0
 1533 0091 0C       		.uleb128 0xc
 1534 0092 15       		.uleb128 0x15
 1535 0093 01       		.byte	0x1
 1536 0094 27       		.uleb128 0x27
 1537 0095 19       		.uleb128 0x19
 1538 0096 01       		.uleb128 0x1
 1539 0097 13       		.uleb128 0x13
ARM GAS  /var/folders/qd/4mxf5pkd0zdf0b9dd1hp39180000gn/T//ccswW7ZO.s 			page 28


 1540 0098 00       		.byte	0
 1541 0099 00       		.byte	0
 1542 009a 0D       		.uleb128 0xd
 1543 009b 05       		.uleb128 0x5
 1544 009c 00       		.byte	0
 1545 009d 49       		.uleb128 0x49
 1546 009e 13       		.uleb128 0x13
 1547 009f 00       		.byte	0
 1548 00a0 00       		.byte	0
 1549 00a1 0E       		.uleb128 0xe
 1550 00a2 0F       		.uleb128 0xf
 1551 00a3 00       		.byte	0
 1552 00a4 0B       		.uleb128 0xb
 1553 00a5 0B       		.uleb128 0xb
 1554 00a6 00       		.byte	0
 1555 00a7 00       		.byte	0
 1556 00a8 0F       		.uleb128 0xf
 1557 00a9 13       		.uleb128 0x13
 1558 00aa 01       		.byte	0x1
 1559 00ab 03       		.uleb128 0x3
 1560 00ac 0E       		.uleb128 0xe
 1561 00ad 0B       		.uleb128 0xb
 1562 00ae 05       		.uleb128 0x5
 1563 00af 3A       		.uleb128 0x3a
 1564 00b0 0B       		.uleb128 0xb
 1565 00b1 3B       		.uleb128 0x3b
 1566 00b2 05       		.uleb128 0x5
 1567 00b3 01       		.uleb128 0x1
 1568 00b4 13       		.uleb128 0x13
 1569 00b5 00       		.byte	0
 1570 00b6 00       		.byte	0
 1571 00b7 10       		.uleb128 0x10
 1572 00b8 0D       		.uleb128 0xd
 1573 00b9 00       		.byte	0
 1574 00ba 03       		.uleb128 0x3
 1575 00bb 0E       		.uleb128 0xe
 1576 00bc 3A       		.uleb128 0x3a
 1577 00bd 0B       		.uleb128 0xb
 1578 00be 3B       		.uleb128 0x3b
 1579 00bf 05       		.uleb128 0x5
 1580 00c0 49       		.uleb128 0x49
 1581 00c1 13       		.uleb128 0x13
 1582 00c2 38       		.uleb128 0x38
 1583 00c3 05       		.uleb128 0x5
 1584 00c4 00       		.byte	0
 1585 00c5 00       		.byte	0
 1586 00c6 11       		.uleb128 0x11
 1587 00c7 0D       		.uleb128 0xd
 1588 00c8 00       		.byte	0
 1589 00c9 03       		.uleb128 0x3
 1590 00ca 08       		.uleb128 0x8
 1591 00cb 3A       		.uleb128 0x3a
 1592 00cc 0B       		.uleb128 0xb
 1593 00cd 3B       		.uleb128 0x3b
 1594 00ce 05       		.uleb128 0x5
 1595 00cf 49       		.uleb128 0x49
 1596 00d0 13       		.uleb128 0x13
ARM GAS  /var/folders/qd/4mxf5pkd0zdf0b9dd1hp39180000gn/T//ccswW7ZO.s 			page 29


 1597 00d1 38       		.uleb128 0x38
 1598 00d2 05       		.uleb128 0x5
 1599 00d3 00       		.byte	0
 1600 00d4 00       		.byte	0
 1601 00d5 12       		.uleb128 0x12
 1602 00d6 34       		.uleb128 0x34
 1603 00d7 00       		.byte	0
 1604 00d8 03       		.uleb128 0x3
 1605 00d9 0E       		.uleb128 0xe
 1606 00da 3A       		.uleb128 0x3a
 1607 00db 0B       		.uleb128 0xb
 1608 00dc 3B       		.uleb128 0x3b
 1609 00dd 05       		.uleb128 0x5
 1610 00de 49       		.uleb128 0x49
 1611 00df 13       		.uleb128 0x13
 1612 00e0 3F       		.uleb128 0x3f
 1613 00e1 19       		.uleb128 0x19
 1614 00e2 3C       		.uleb128 0x3c
 1615 00e3 19       		.uleb128 0x19
 1616 00e4 00       		.byte	0
 1617 00e5 00       		.byte	0
 1618 00e6 13       		.uleb128 0x13
 1619 00e7 34       		.uleb128 0x34
 1620 00e8 00       		.byte	0
 1621 00e9 03       		.uleb128 0x3
 1622 00ea 0E       		.uleb128 0xe
 1623 00eb 3A       		.uleb128 0x3a
 1624 00ec 0B       		.uleb128 0xb
 1625 00ed 3B       		.uleb128 0x3b
 1626 00ee 0B       		.uleb128 0xb
 1627 00ef 49       		.uleb128 0x49
 1628 00f0 13       		.uleb128 0x13
 1629 00f1 3F       		.uleb128 0x3f
 1630 00f2 19       		.uleb128 0x19
 1631 00f3 3C       		.uleb128 0x3c
 1632 00f4 19       		.uleb128 0x19
 1633 00f5 00       		.byte	0
 1634 00f6 00       		.byte	0
 1635 00f7 14       		.uleb128 0x14
 1636 00f8 0D       		.uleb128 0xd
 1637 00f9 00       		.byte	0
 1638 00fa 03       		.uleb128 0x3
 1639 00fb 08       		.uleb128 0x8
 1640 00fc 3A       		.uleb128 0x3a
 1641 00fd 0B       		.uleb128 0xb
 1642 00fe 3B       		.uleb128 0x3b
 1643 00ff 0B       		.uleb128 0xb
 1644 0100 49       		.uleb128 0x49
 1645 0101 13       		.uleb128 0x13
 1646 0102 38       		.uleb128 0x38
 1647 0103 0B       		.uleb128 0xb
 1648 0104 00       		.byte	0
 1649 0105 00       		.byte	0
 1650 0106 15       		.uleb128 0x15
 1651 0107 13       		.uleb128 0x13
 1652 0108 01       		.byte	0x1
 1653 0109 0B       		.uleb128 0xb
ARM GAS  /var/folders/qd/4mxf5pkd0zdf0b9dd1hp39180000gn/T//ccswW7ZO.s 			page 30


 1654 010a 0B       		.uleb128 0xb
 1655 010b 3A       		.uleb128 0x3a
 1656 010c 0B       		.uleb128 0xb
 1657 010d 3B       		.uleb128 0x3b
 1658 010e 0B       		.uleb128 0xb
 1659 010f 01       		.uleb128 0x1
 1660 0110 13       		.uleb128 0x13
 1661 0111 00       		.byte	0
 1662 0112 00       		.byte	0
 1663 0113 16       		.uleb128 0x16
 1664 0114 13       		.uleb128 0x13
 1665 0115 01       		.byte	0x1
 1666 0116 0B       		.uleb128 0xb
 1667 0117 05       		.uleb128 0x5
 1668 0118 3A       		.uleb128 0x3a
 1669 0119 0B       		.uleb128 0xb
 1670 011a 3B       		.uleb128 0x3b
 1671 011b 0B       		.uleb128 0xb
 1672 011c 01       		.uleb128 0x1
 1673 011d 13       		.uleb128 0x13
 1674 011e 00       		.byte	0
 1675 011f 00       		.byte	0
 1676 0120 17       		.uleb128 0x17
 1677 0121 01       		.uleb128 0x1
 1678 0122 01       		.byte	0x1
 1679 0123 49       		.uleb128 0x49
 1680 0124 13       		.uleb128 0x13
 1681 0125 01       		.uleb128 0x1
 1682 0126 13       		.uleb128 0x13
 1683 0127 00       		.byte	0
 1684 0128 00       		.byte	0
 1685 0129 18       		.uleb128 0x18
 1686 012a 21       		.uleb128 0x21
 1687 012b 00       		.byte	0
 1688 012c 49       		.uleb128 0x49
 1689 012d 13       		.uleb128 0x13
 1690 012e 2F       		.uleb128 0x2f
 1691 012f 0B       		.uleb128 0xb
 1692 0130 00       		.byte	0
 1693 0131 00       		.byte	0
 1694 0132 19       		.uleb128 0x19
 1695 0133 17       		.uleb128 0x17
 1696 0134 01       		.byte	0x1
 1697 0135 0B       		.uleb128 0xb
 1698 0136 0B       		.uleb128 0xb
 1699 0137 3A       		.uleb128 0x3a
 1700 0138 0B       		.uleb128 0xb
 1701 0139 3B       		.uleb128 0x3b
 1702 013a 0B       		.uleb128 0xb
 1703 013b 01       		.uleb128 0x1
 1704 013c 13       		.uleb128 0x13
 1705 013d 00       		.byte	0
 1706 013e 00       		.byte	0
 1707 013f 1A       		.uleb128 0x1a
 1708 0140 0D       		.uleb128 0xd
 1709 0141 00       		.byte	0
 1710 0142 03       		.uleb128 0x3
ARM GAS  /var/folders/qd/4mxf5pkd0zdf0b9dd1hp39180000gn/T//ccswW7ZO.s 			page 31


 1711 0143 0E       		.uleb128 0xe
 1712 0144 3A       		.uleb128 0x3a
 1713 0145 0B       		.uleb128 0xb
 1714 0146 3B       		.uleb128 0x3b
 1715 0147 05       		.uleb128 0x5
 1716 0148 49       		.uleb128 0x49
 1717 0149 13       		.uleb128 0x13
 1718 014a 00       		.byte	0
 1719 014b 00       		.byte	0
 1720 014c 1B       		.uleb128 0x1b
 1721 014d 26       		.uleb128 0x26
 1722 014e 00       		.byte	0
 1723 014f 49       		.uleb128 0x49
 1724 0150 13       		.uleb128 0x13
 1725 0151 00       		.byte	0
 1726 0152 00       		.byte	0
 1727 0153 1C       		.uleb128 0x1c
 1728 0154 34       		.uleb128 0x34
 1729 0155 00       		.byte	0
 1730 0156 03       		.uleb128 0x3
 1731 0157 08       		.uleb128 0x8
 1732 0158 3A       		.uleb128 0x3a
 1733 0159 0B       		.uleb128 0xb
 1734 015a 3B       		.uleb128 0x3b
 1735 015b 05       		.uleb128 0x5
 1736 015c 49       		.uleb128 0x49
 1737 015d 13       		.uleb128 0x13
 1738 015e 3F       		.uleb128 0x3f
 1739 015f 19       		.uleb128 0x19
 1740 0160 3C       		.uleb128 0x3c
 1741 0161 19       		.uleb128 0x19
 1742 0162 00       		.byte	0
 1743 0163 00       		.byte	0
 1744 0164 1D       		.uleb128 0x1d
 1745 0165 04       		.uleb128 0x4
 1746 0166 01       		.byte	0x1
 1747 0167 3E       		.uleb128 0x3e
 1748 0168 0B       		.uleb128 0xb
 1749 0169 0B       		.uleb128 0xb
 1750 016a 0B       		.uleb128 0xb
 1751 016b 49       		.uleb128 0x49
 1752 016c 13       		.uleb128 0x13
 1753 016d 3A       		.uleb128 0x3a
 1754 016e 0B       		.uleb128 0xb
 1755 016f 3B       		.uleb128 0x3b
 1756 0170 0B       		.uleb128 0xb
 1757 0171 01       		.uleb128 0x1
 1758 0172 13       		.uleb128 0x13
 1759 0173 00       		.byte	0
 1760 0174 00       		.byte	0
 1761 0175 1E       		.uleb128 0x1e
 1762 0176 28       		.uleb128 0x28
 1763 0177 00       		.byte	0
 1764 0178 03       		.uleb128 0x3
 1765 0179 0E       		.uleb128 0xe
 1766 017a 1C       		.uleb128 0x1c
 1767 017b 0B       		.uleb128 0xb
ARM GAS  /var/folders/qd/4mxf5pkd0zdf0b9dd1hp39180000gn/T//ccswW7ZO.s 			page 32


 1768 017c 00       		.byte	0
 1769 017d 00       		.byte	0
 1770 017e 1F       		.uleb128 0x1f
 1771 017f 2E       		.uleb128 0x2e
 1772 0180 01       		.byte	0x1
 1773 0181 3F       		.uleb128 0x3f
 1774 0182 19       		.uleb128 0x19
 1775 0183 03       		.uleb128 0x3
 1776 0184 0E       		.uleb128 0xe
 1777 0185 3A       		.uleb128 0x3a
 1778 0186 0B       		.uleb128 0xb
 1779 0187 3B       		.uleb128 0x3b
 1780 0188 0B       		.uleb128 0xb
 1781 0189 27       		.uleb128 0x27
 1782 018a 19       		.uleb128 0x19
 1783 018b 11       		.uleb128 0x11
 1784 018c 01       		.uleb128 0x1
 1785 018d 12       		.uleb128 0x12
 1786 018e 06       		.uleb128 0x6
 1787 018f 40       		.uleb128 0x40
 1788 0190 18       		.uleb128 0x18
 1789 0191 9742     		.uleb128 0x2117
 1790 0193 19       		.uleb128 0x19
 1791 0194 01       		.uleb128 0x1
 1792 0195 13       		.uleb128 0x13
 1793 0196 00       		.byte	0
 1794 0197 00       		.byte	0
 1795 0198 20       		.uleb128 0x20
 1796 0199 05       		.uleb128 0x5
 1797 019a 00       		.byte	0
 1798 019b 03       		.uleb128 0x3
 1799 019c 0E       		.uleb128 0xe
 1800 019d 3A       		.uleb128 0x3a
 1801 019e 0B       		.uleb128 0xb
 1802 019f 3B       		.uleb128 0x3b
 1803 01a0 0B       		.uleb128 0xb
 1804 01a1 49       		.uleb128 0x49
 1805 01a2 13       		.uleb128 0x13
 1806 01a3 02       		.uleb128 0x2
 1807 01a4 17       		.uleb128 0x17
 1808 01a5 00       		.byte	0
 1809 01a6 00       		.byte	0
 1810 01a7 21       		.uleb128 0x21
 1811 01a8 898201   		.uleb128 0x4109
 1812 01ab 01       		.byte	0x1
 1813 01ac 11       		.uleb128 0x11
 1814 01ad 01       		.uleb128 0x1
 1815 01ae 31       		.uleb128 0x31
 1816 01af 13       		.uleb128 0x13
 1817 01b0 01       		.uleb128 0x1
 1818 01b1 13       		.uleb128 0x13
 1819 01b2 00       		.byte	0
 1820 01b3 00       		.byte	0
 1821 01b4 22       		.uleb128 0x22
 1822 01b5 8A8201   		.uleb128 0x410a
 1823 01b8 00       		.byte	0
 1824 01b9 02       		.uleb128 0x2
ARM GAS  /var/folders/qd/4mxf5pkd0zdf0b9dd1hp39180000gn/T//ccswW7ZO.s 			page 33


 1825 01ba 18       		.uleb128 0x18
 1826 01bb 9142     		.uleb128 0x2111
 1827 01bd 18       		.uleb128 0x18
 1828 01be 00       		.byte	0
 1829 01bf 00       		.byte	0
 1830 01c0 23       		.uleb128 0x23
 1831 01c1 898201   		.uleb128 0x4109
 1832 01c4 01       		.byte	0x1
 1833 01c5 11       		.uleb128 0x11
 1834 01c6 01       		.uleb128 0x1
 1835 01c7 31       		.uleb128 0x31
 1836 01c8 13       		.uleb128 0x13
 1837 01c9 00       		.byte	0
 1838 01ca 00       		.byte	0
 1839 01cb 24       		.uleb128 0x24
 1840 01cc 2E       		.uleb128 0x2e
 1841 01cd 00       		.byte	0
 1842 01ce 3F       		.uleb128 0x3f
 1843 01cf 19       		.uleb128 0x19
 1844 01d0 3C       		.uleb128 0x3c
 1845 01d1 19       		.uleb128 0x19
 1846 01d2 6E       		.uleb128 0x6e
 1847 01d3 0E       		.uleb128 0xe
 1848 01d4 03       		.uleb128 0x3
 1849 01d5 0E       		.uleb128 0xe
 1850 01d6 3A       		.uleb128 0x3a
 1851 01d7 0B       		.uleb128 0xb
 1852 01d8 3B       		.uleb128 0x3b
 1853 01d9 0B       		.uleb128 0xb
 1854 01da 00       		.byte	0
 1855 01db 00       		.byte	0
 1856 01dc 00       		.byte	0
 1857              		.section	.debug_loc,"",%progbits
 1858              	.Ldebug_loc0:
 1859              	.LLST0:
 1860 0000 00000000 		.4byte	.LVL0
 1861 0004 0C000000 		.4byte	.LVL1
 1862 0008 0100     		.2byte	0x1
 1863 000a 50       		.byte	0x50
 1864 000b 0C000000 		.4byte	.LVL1
 1865 000f 20000000 		.4byte	.LFE219
 1866 0013 0400     		.2byte	0x4
 1867 0015 F3       		.byte	0xf3
 1868 0016 01       		.uleb128 0x1
 1869 0017 50       		.byte	0x50
 1870 0018 9F       		.byte	0x9f
 1871 0019 00000000 		.4byte	0
 1872 001d 00000000 		.4byte	0
 1873              		.section	.debug_aranges,"",%progbits
 1874 0000 1C000000 		.4byte	0x1c
 1875 0004 0200     		.2byte	0x2
 1876 0006 00000000 		.4byte	.Ldebug_info0
 1877 000a 04       		.byte	0x4
 1878 000b 00       		.byte	0
 1879 000c 0000     		.2byte	0
 1880 000e 0000     		.2byte	0
 1881 0010 00000000 		.4byte	.LFB219
ARM GAS  /var/folders/qd/4mxf5pkd0zdf0b9dd1hp39180000gn/T//ccswW7ZO.s 			page 34


 1882 0014 20000000 		.4byte	.LFE219-.LFB219
 1883 0018 00000000 		.4byte	0
 1884 001c 00000000 		.4byte	0
 1885              		.section	.debug_ranges,"",%progbits
 1886              	.Ldebug_ranges0:
 1887 0000 00000000 		.4byte	.LFB219
 1888 0004 20000000 		.4byte	.LFE219
 1889 0008 00000000 		.4byte	0
 1890 000c 00000000 		.4byte	0
 1891              		.section	.debug_line,"",%progbits
 1892              	.Ldebug_line0:
 1893 0000 7C030000 		.section	.debug_str,"MS",%progbits,1
 1893      02005C03 
 1893      00000201 
 1893      FB0E0D00 
 1893      01010101 
 1894              	.LASF145:
 1895 0000 63665F6F 		.ascii	"cf_off_older\000"
 1895      66665F6F 
 1895      6C646572 
 1895      00
 1896              	.LASF60:
 1897 000d 72656164 		.ascii	"ready_list_t\000"
 1897      795F6C69 
 1897      73745F74 
 1897      00
 1898              	.LASF158:
 1899 001a 44434D49 		.ascii	"DCMI_CAMERA_MEM_ALLOC\000"
 1899      5F43414D 
 1899      4552415F 
 1899      4D454D5F 
 1899      414C4C4F 
 1900              	.LASF122:
 1901 0030 77747472 		.ascii	"wttrp\000"
 1901      7000
 1902              	.LASF119:
 1903 0036 7264796D 		.ascii	"rdymsg\000"
 1903      736700
 1904              	.LASF19:
 1905 003d 75696E74 		.ascii	"uint64_t\000"
 1905      36345F74 
 1905      00
 1906              	.LASF90:
 1907 0046 6B65726E 		.ascii	"kernel_stats\000"
 1907      656C5F73 
 1907      74617473 
 1907      00
 1908              	.LASF6:
 1909 0053 5F5F7569 		.ascii	"__uint8_t\000"
 1909      6E74385F 
 1909      7400
 1910              	.LASF97:
 1911 005d 706F7274 		.ascii	"port_intctx\000"
 1911      5F696E74 
 1911      63747800 
 1912              	.LASF59:
 1913 0069 63685F74 		.ascii	"ch_threads_queue\000"
ARM GAS  /var/folders/qd/4mxf5pkd0zdf0b9dd1hp39180000gn/T//ccswW7ZO.s 			page 35


 1913      68726561 
 1913      64735F71 
 1913      75657565 
 1913      00
 1914              	.LASF79:
 1915 007a 73797374 		.ascii	"system_debug_t\000"
 1915      656D5F64 
 1915      65627567 
 1915      5F7400
 1916              	.LASF168:
 1917 0089 74797065 		.ascii	"type\000"
 1917      00
 1918              	.LASF110:
 1919 008e 776F7273 		.ascii	"worst\000"
 1919      7400
 1920              	.LASF113:
 1921 0094 74696D65 		.ascii	"time_measurement_t\000"
 1921      5F6D6561 
 1921      73757265 
 1921      6D656E74 
 1921      5F7400
 1922              	.LASF14:
 1923 00a7 6C6F6E67 		.ascii	"long long unsigned int\000"
 1923      206C6F6E 
 1923      6720756E 
 1923      7369676E 
 1923      65642069 
 1924              	.LASF106:
 1925 00be 63685F74 		.ascii	"ch_trace_buffer_t\000"
 1925      72616365 
 1925      5F627566 
 1925      6665725F 
 1925      7400
 1926              	.LASF141:
 1927 00d0 63685F74 		.ascii	"ch_threadsize\000"
 1927      68726561 
 1927      6473697A 
 1927      6500
 1928              	.LASF120:
 1929 00de 65786974 		.ascii	"exitcode\000"
 1929      636F6465 
 1929      00
 1930              	.LASF89:
 1931 00e7 6D61696E 		.ascii	"mainthread\000"
 1931      74687265 
 1931      616400
 1932              	.LASF76:
 1933 00f2 76697274 		.ascii	"virtual_timers_list_t\000"
 1933      75616C5F 
 1933      74696D65 
 1933      72735F6C 
 1933      6973745F 
 1934              	.LASF92:
 1935 0108 49544D5F 		.ascii	"ITM_RxBuffer\000"
 1935      52784275 
 1935      66666572 
 1935      00
ARM GAS  /var/folders/qd/4mxf5pkd0zdf0b9dd1hp39180000gn/T//ccswW7ZO.s 			page 36


 1936              	.LASF21:
 1937 0115 72747469 		.ascii	"rttime_t\000"
 1937      6D655F74 
 1937      00
 1938              	.LASF35:
 1939 011e 705F7072 		.ascii	"p_prio\000"
 1939      696F00
 1940              	.LASF148:
 1941 0125 63665F6F 		.ascii	"cf_off_state\000"
 1941      66665F73 
 1941      74617465 
 1941      00
 1942              	.LASF155:
 1943 0132 6D757465 		.ascii	"mutex_t\000"
 1943      785F7400 
 1944              	.LASF1:
 1945 013a 6C6F6E67 		.ascii	"long long int\000"
 1945      206C6F6E 
 1945      6720696E 
 1945      7400
 1946              	.LASF3:
 1947 0148 7369676E 		.ascii	"signed char\000"
 1947      65642063 
 1947      68617200 
 1948              	.LASF147:
 1949 0154 63665F6F 		.ascii	"cf_off_stklimit\000"
 1949      66665F73 
 1949      746B6C69 
 1949      6D697400 
 1950              	.LASF149:
 1951 0164 63665F6F 		.ascii	"cf_off_flags\000"
 1951      66665F66 
 1951      6C616773 
 1951      00
 1952              	.LASF52:
 1953 0171 705F6D70 		.ascii	"p_mpool\000"
 1953      6F6F6C00 
 1954              	.LASF130:
 1955 0179 6D5F7175 		.ascii	"m_queue\000"
 1955      65756500 
 1956              	.LASF88:
 1957 0181 76746C69 		.ascii	"vtlist\000"
 1957      737400
 1958              	.LASF25:
 1959 0188 74736C69 		.ascii	"tslices_t\000"
 1959      6365735F 
 1959      7400
 1960              	.LASF86:
 1961 0192 63685F73 		.ascii	"ch_system\000"
 1961      79737465 
 1961      6D00
 1962              	.LASF10:
 1963 019c 6C6F6E67 		.ascii	"long int\000"
 1963      20696E74 
 1963      00
 1964              	.LASF23:
 1965 01a5 74737461 		.ascii	"tstate_t\000"
ARM GAS  /var/folders/qd/4mxf5pkd0zdf0b9dd1hp39180000gn/T//ccswW7ZO.s 			page 37


 1965      74655F74 
 1965      00
 1966              	.LASF84:
 1967 01ae 74726163 		.ascii	"trace_buffer\000"
 1967      655F6275 
 1967      66666572 
 1967      00
 1968              	.LASF99:
 1969 01bb 73655F74 		.ascii	"se_tp\000"
 1969      7000
 1970              	.LASF153:
 1971 01c1 63686465 		.ascii	"chdebug_t\000"
 1971      6275675F 
 1971      7400
 1972              	.LASF159:
 1973 01cb 44434D49 		.ascii	"DCMI_CAMERA_SIZE_NOT_FIT\000"
 1973      5F43414D 
 1973      4552415F 
 1973      53495A45 
 1973      5F4E4F54 
 1974              	.LASF37:
 1975 01e4 705F6E65 		.ascii	"p_newer\000"
 1975      77657200 
 1976              	.LASF127:
 1977 01ec 735F7175 		.ascii	"s_queue\000"
 1977      65756500 
 1978              	.LASF103:
 1979 01f4 74625F73 		.ascii	"tb_size\000"
 1979      697A6500 
 1980              	.LASF65:
 1981 01fc 725F6E65 		.ascii	"r_newer\000"
 1981      77657200 
 1982              	.LASF94:
 1983 0204 72656761 		.ascii	"regarm_t\000"
 1983      726D5F74 
 1983      00
 1984              	.LASF72:
 1985 020d 76745F70 		.ascii	"vt_prev\000"
 1985      72657600 
 1986              	.LASF80:
 1987 0215 63685F73 		.ascii	"ch_system_debug\000"
 1987      79737465 
 1987      6D5F6465 
 1987      62756700 
 1988              	.LASF133:
 1989 0225 6D5F636E 		.ascii	"m_cnt\000"
 1989      7400
 1990              	.LASF71:
 1991 022b 76745F6E 		.ascii	"vt_next\000"
 1991      65787400 
 1992              	.LASF83:
 1993 0233 6C6F636B 		.ascii	"lock_cnt\000"
 1993      5F636E74 
 1993      00
 1994              	.LASF91:
 1995 023c 69646C65 		.ascii	"idle_thread_wa\000"
 1995      5F746872 
ARM GAS  /var/folders/qd/4mxf5pkd0zdf0b9dd1hp39180000gn/T//ccswW7ZO.s 			page 38


 1995      6561645F 
 1995      776100
 1996              	.LASF29:
 1997 024b 636E745F 		.ascii	"cnt_t\000"
 1997      7400
 1998              	.LASF40:
 1999 0251 705F7374 		.ascii	"p_stklimit\000"
 1999      6B6C696D 
 1999      697400
 2000              	.LASF0:
 2001 025c 756E7369 		.ascii	"unsigned int\000"
 2001      676E6564 
 2001      20696E74 
 2001      00
 2002              	.LASF164:
 2003 0269 474E5520 		.ascii	"GNU C11 7.2.1 20170904 (release) [ARM/embedded-7-br"
 2003      43313120 
 2003      372E322E 
 2003      31203230 
 2003      31373039 
 2004 029c 616E6368 		.ascii	"anch revision 255204] -mcpu=cortex-m4 -mfloat-abi=h"
 2004      20726576 
 2004      6973696F 
 2004      6E203235 
 2004      35323034 
 2005 02cf 61726420 		.ascii	"ard -mfpu=fpv4-sp-d16 -mno-thumb-interwork -mthumb "
 2005      2D6D6670 
 2005      753D6670 
 2005      76342D73 
 2005      702D6431 
 2006 0302 2D676764 		.ascii	"-ggdb -O2 -fomit-frame-pointer -falign-functions=16"
 2006      62202D4F 
 2006      32202D66 
 2006      6F6D6974 
 2006      2D667261 
 2007 0335 202D666E 		.ascii	" -fno-strict-aliasing -fstack-protector-all -ffunct"
 2007      6F2D7374 
 2007      72696374 
 2007      2D616C69 
 2007      6173696E 
 2008 0368 696F6E2D 		.ascii	"ion-sections -fdata-sections -fno-common -fsingle-p"
 2008      73656374 
 2008      696F6E73 
 2008      202D6664 
 2008      6174612D 
 2009 039b 72656369 		.ascii	"recision-constant\000"
 2009      73696F6E 
 2009      2D636F6E 
 2009      7374616E 
 2009      7400
 2010              	.LASF16:
 2011 03ad 75696E74 		.ascii	"uint16_t\000"
 2011      31365F74 
 2011      00
 2012              	.LASF93:
 2013 03b6 53797374 		.ascii	"SystemCoreClock\000"
 2013      656D436F 
ARM GAS  /var/folders/qd/4mxf5pkd0zdf0b9dd1hp39180000gn/T//ccswW7ZO.s 			page 39


 2013      7265436C 
 2013      6F636B00 
 2014              	.LASF45:
 2015 03c6 705F7469 		.ascii	"p_time\000"
 2015      6D6500
 2016              	.LASF123:
 2017 03cd 77747365 		.ascii	"wtsemp\000"
 2017      6D7000
 2018              	.LASF73:
 2019 03d4 76745F64 		.ascii	"vt_delta\000"
 2019      656C7461 
 2019      00
 2020              	.LASF47:
 2021 03dd 705F6D73 		.ascii	"p_msgqueue\000"
 2021      67717565 
 2021      756500
 2022              	.LASF154:
 2023 03e8 63685F64 		.ascii	"ch_debug\000"
 2023      65627567 
 2023      00
 2024              	.LASF114:
 2025 03f1 6E5F6972 		.ascii	"n_irq\000"
 2025      7100
 2026              	.LASF128:
 2027 03f7 735F636E 		.ascii	"s_cnt\000"
 2027      7400
 2028              	.LASF8:
 2029 03fd 73686F72 		.ascii	"short unsigned int\000"
 2029      7420756E 
 2029      7369676E 
 2029      65642069 
 2029      6E7400
 2030              	.LASF118:
 2031 0410 6B65726E 		.ascii	"kernel_stats_t\000"
 2031      656C5F73 
 2031      74617473 
 2031      5F7400
 2032              	.LASF56:
 2033 041f 63685F74 		.ascii	"ch_thread\000"
 2033      68726561 
 2033      6400
 2034              	.LASF27:
 2035 0429 6D73675F 		.ascii	"msg_t\000"
 2035      7400
 2036              	.LASF111:
 2037 042f 6C617374 		.ascii	"last\000"
 2037      00
 2038              	.LASF30:
 2039 0434 75636E74 		.ascii	"ucnt_t\000"
 2039      5F7400
 2040              	.LASF85:
 2041 043b 63685F73 		.ascii	"ch_system_t\000"
 2041      79737465 
 2041      6D5F7400 
 2042              	.LASF152:
 2043 0447 63665F6F 		.ascii	"cf_off_time\000"
 2043      66665F74 
ARM GAS  /var/folders/qd/4mxf5pkd0zdf0b9dd1hp39180000gn/T//ccswW7ZO.s 			page 40


 2043      696D6500 
 2044              	.LASF117:
 2045 0453 6D5F6372 		.ascii	"m_crit_isr\000"
 2045      69745F69 
 2045      737200
 2046              	.LASF61:
 2047 045e 63685F72 		.ascii	"ch_ready_list\000"
 2047      65616479 
 2047      5F6C6973 
 2047      7400
 2048              	.LASF28:
 2049 046c 6576656E 		.ascii	"eventmask_t\000"
 2049      746D6173 
 2049      6B5F7400 
 2050              	.LASF9:
 2051 0478 5F5F696E 		.ascii	"__int32_t\000"
 2051      7433325F 
 2051      7400
 2052              	.LASF95:
 2053 0482 73746B61 		.ascii	"stkalign_t\000"
 2053      6C69676E 
 2053      5F7400
 2054              	.LASF55:
 2055 048d 74687265 		.ascii	"threads_list_t\000"
 2055      6164735F 
 2055      6C697374 
 2055      5F7400
 2056              	.LASF136:
 2057 049c 63685F7A 		.ascii	"ch_zero\000"
 2057      65726F00 
 2058              	.LASF150:
 2059 04a4 63665F6F 		.ascii	"cf_off_refs\000"
 2059      66665F72 
 2059      65667300 
 2060              	.LASF46:
 2061 04b0 705F7761 		.ascii	"p_waiting\000"
 2061      6974696E 
 2061      6700
 2062              	.LASF20:
 2063 04ba 7274636E 		.ascii	"rtcnt_t\000"
 2063      745F7400 
 2064              	.LASF77:
 2065 04c2 63685F76 		.ascii	"ch_virtual_timers_list\000"
 2065      69727475 
 2065      616C5F74 
 2065      696D6572 
 2065      735F6C69 
 2066              	.LASF165:
 2067 04d9 2E2F6D6F 		.ascii	"./modules/mod_errors.c\000"
 2067      64756C65 
 2067      732F6D6F 
 2067      645F6572 
 2067      726F7273 
 2068              	.LASF2:
 2069 04f0 6C6F6E67 		.ascii	"long double\000"
 2069      20646F75 
 2069      626C6500 
ARM GAS  /var/folders/qd/4mxf5pkd0zdf0b9dd1hp39180000gn/T//ccswW7ZO.s 			page 41


 2070              	.LASF140:
 2071 04fc 63685F74 		.ascii	"ch_timesize\000"
 2071      696D6573 
 2071      697A6500 
 2072              	.LASF104:
 2073 0508 74625F70 		.ascii	"tb_ptr\000"
 2073      747200
 2074              	.LASF102:
 2075 050f 63685F73 		.ascii	"ch_swc_event_t\000"
 2075      77635F65 
 2075      76656E74 
 2075      5F7400
 2076              	.LASF146:
 2077 051e 63665F6F 		.ascii	"cf_off_name\000"
 2077      66665F6E 
 2077      616D6500 
 2078              	.LASF38:
 2079 052a 705F6F6C 		.ascii	"p_older\000"
 2079      64657200 
 2080              	.LASF64:
 2081 0532 725F6374 		.ascii	"r_ctx\000"
 2081      7800
 2082              	.LASF36:
 2083 0538 705F6374 		.ascii	"p_ctx\000"
 2083      7800
 2084              	.LASF108:
 2085 053e 746D5F63 		.ascii	"tm_calibration_t\000"
 2085      616C6962 
 2085      72617469 
 2085      6F6E5F74 
 2085      00
 2086              	.LASF67:
 2087 054f 725F6375 		.ascii	"r_current\000"
 2087      7272656E 
 2087      7400
 2088              	.LASF66:
 2089 0559 725F6F6C 		.ascii	"r_older\000"
 2089      64657200 
 2090              	.LASF13:
 2091 0561 5F5F7569 		.ascii	"__uint64_t\000"
 2091      6E743634 
 2091      5F7400
 2092              	.LASF112:
 2093 056c 63756D75 		.ascii	"cumulative\000"
 2093      6C617469 
 2093      766500
 2094              	.LASF167:
 2095 0577 6572726F 		.ascii	"error\000"
 2095      7200
 2096              	.LASF24:
 2097 057d 74726566 		.ascii	"trefs_t\000"
 2097      735F7400 
 2098              	.LASF105:
 2099 0585 74625F62 		.ascii	"tb_buffer\000"
 2099      75666665 
 2099      7200
 2100              	.LASF139:
ARM GAS  /var/folders/qd/4mxf5pkd0zdf0b9dd1hp39180000gn/T//ccswW7ZO.s 			page 42


 2101 058f 63685F70 		.ascii	"ch_ptrsize\000"
 2101      74727369 
 2101      7A6500
 2102              	.LASF69:
 2103 059a 76697274 		.ascii	"virtual_timer_t\000"
 2103      75616C5F 
 2103      74696D65 
 2103      725F7400 
 2104              	.LASF34:
 2105 05aa 705F7072 		.ascii	"p_prev\000"
 2105      657600
 2106              	.LASF26:
 2107 05b1 74707269 		.ascii	"tprio_t\000"
 2107      6F5F7400 
 2108              	.LASF115:
 2109 05b9 6E5F6374 		.ascii	"n_ctxswc\000"
 2109      78737763 
 2109      00
 2110              	.LASF17:
 2111 05c2 696E7433 		.ascii	"int32_t\000"
 2111      325F7400 
 2112              	.LASF4:
 2113 05ca 756E7369 		.ascii	"unsigned char\000"
 2113      676E6564 
 2113      20636861 
 2113      7200
 2114              	.LASF157:
 2115 05d8 434F4E56 		.ascii	"CONV_OVERFLOW\000"
 2115      5F4F5645 
 2115      52464C4F 
 2115      5700
 2116              	.LASF50:
 2117 05e6 705F6D74 		.ascii	"p_mtxlist\000"
 2117      786C6973 
 2117      7400
 2118              	.LASF5:
 2119 05f0 73686F72 		.ascii	"short int\000"
 2119      7420696E 
 2119      7400
 2120              	.LASF41:
 2121 05fa 705F7374 		.ascii	"p_state\000"
 2121      61746500 
 2122              	.LASF44:
 2123 0602 705F7072 		.ascii	"p_preempt\000"
 2123      65656D70 
 2123      7400
 2124              	.LASF63:
 2125 060c 725F7072 		.ascii	"r_prio\000"
 2125      696F00
 2126              	.LASF162:
 2127 0613 6D6F645F 		.ascii	"mod_basicIO_alert_leds\000"
 2127      62617369 
 2127      63494F5F 
 2127      616C6572 
 2127      745F6C65 
 2128              	.LASF125:
 2129 062a 65776D61 		.ascii	"ewmask\000"
ARM GAS  /var/folders/qd/4mxf5pkd0zdf0b9dd1hp39180000gn/T//ccswW7ZO.s 			page 43


 2129      736B00
 2130              	.LASF33:
 2131 0631 705F6E65 		.ascii	"p_next\000"
 2131      787400
 2132              	.LASF22:
 2133 0638 746D6F64 		.ascii	"tmode_t\000"
 2133      655F7400 
 2134              	.LASF151:
 2135 0640 63665F6F 		.ascii	"cf_off_preempt\000"
 2135      66665F70 
 2135      7265656D 
 2135      707400
 2136              	.LASF42:
 2137 064f 705F666C 		.ascii	"p_flags\000"
 2137      61677300 
 2138              	.LASF53:
 2139 0657 705F7374 		.ascii	"p_stats\000"
 2139      61747300 
 2140              	.LASF58:
 2141 065f 74687265 		.ascii	"threads_queue_t\000"
 2141      6164735F 
 2141      71756575 
 2141      655F7400 
 2142              	.LASF70:
 2143 066f 63685F76 		.ascii	"ch_virtual_timer\000"
 2143      69727475 
 2143      616C5F74 
 2143      696D6572 
 2143      00
 2144              	.LASF144:
 2145 0680 63665F6F 		.ascii	"cf_off_newer\000"
 2145      66665F6E 
 2145      65776572 
 2145      00
 2146              	.LASF126:
 2147 068d 63685F73 		.ascii	"ch_semaphore\000"
 2147      656D6170 
 2147      686F7265 
 2147      00
 2148              	.LASF49:
 2149 069a 705F6570 		.ascii	"p_epending\000"
 2149      656E6469 
 2149      6E6700
 2150              	.LASF163:
 2151 06a5 63685468 		.ascii	"chThdSleep\000"
 2151      64536C65 
 2151      657000
 2152              	.LASF18:
 2153 06b0 75696E74 		.ascii	"uint32_t\000"
 2153      33325F74 
 2153      00
 2154              	.LASF142:
 2155 06b9 63665F6F 		.ascii	"cf_off_prio\000"
 2155      66665F70 
 2155      72696F00 
 2156              	.LASF62:
 2157 06c5 725F7175 		.ascii	"r_queue\000"
ARM GAS  /var/folders/qd/4mxf5pkd0zdf0b9dd1hp39180000gn/T//ccswW7ZO.s 			page 44


 2157      65756500 
 2158              	.LASF57:
 2159 06cd 63685F74 		.ascii	"ch_threads_list\000"
 2159      68726561 
 2159      64735F6C 
 2159      69737400 
 2160              	.LASF156:
 2161 06dd 41535345 		.ascii	"ASSERT_ERROR\000"
 2161      52545F45 
 2161      52524F52 
 2161      00
 2162              	.LASF137:
 2163 06ea 63685F73 		.ascii	"ch_size\000"
 2163      697A6500 
 2164              	.LASF12:
 2165 06f2 6C6F6E67 		.ascii	"long unsigned int\000"
 2165      20756E73 
 2165      69676E65 
 2165      6420696E 
 2165      7400
 2166              	.LASF134:
 2167 0704 63686172 		.ascii	"char\000"
 2167      00
 2168              	.LASF124:
 2169 0709 77746D74 		.ascii	"wtmtxp\000"
 2169      787000
 2170              	.LASF7:
 2171 0710 5F5F7569 		.ascii	"__uint16_t\000"
 2171      6E743136 
 2171      5F7400
 2172              	.LASF32:
 2173 071b 74687265 		.ascii	"thread_t\000"
 2173      61645F74 
 2173      00
 2174              	.LASF109:
 2175 0724 62657374 		.ascii	"best\000"
 2175      00
 2176              	.LASF160:
 2177 0729 4E4F5F43 		.ascii	"NO_COMMAND\000"
 2177      4F4D4D41 
 2177      4E4400
 2178              	.LASF132:
 2179 0734 6D5F6E65 		.ascii	"m_next\000"
 2179      787400
 2180              	.LASF31:
 2181 073b 73797374 		.ascii	"systime_t\000"
 2181      696D655F 
 2181      7400
 2182              	.LASF51:
 2183 0745 705F7265 		.ascii	"p_realprio\000"
 2183      616C7072 
 2183      696F00
 2184              	.LASF68:
 2185 0750 76746675 		.ascii	"vtfunc_t\000"
 2185      6E635F74 
 2185      00
 2186              	.LASF11:
ARM GAS  /var/folders/qd/4mxf5pkd0zdf0b9dd1hp39180000gn/T//ccswW7ZO.s 			page 45


 2187 0759 5F5F7569 		.ascii	"__uint32_t\000"
 2187      6E743332 
 2187      5F7400
 2188              	.LASF81:
 2189 0764 70616E69 		.ascii	"panic_msg\000"
 2189      635F6D73 
 2189      6700
 2190              	.LASF107:
 2191 076e 6F666673 		.ascii	"offset\000"
 2191      657400
 2192              	.LASF96:
 2193 0775 636F6E74 		.ascii	"context\000"
 2193      65787400 
 2194              	.LASF48:
 2195 077d 705F6D73 		.ascii	"p_msg\000"
 2195      6700
 2196              	.LASF75:
 2197 0783 76745F70 		.ascii	"vt_par\000"
 2197      617200
 2198              	.LASF98:
 2199 078a 73655F74 		.ascii	"se_time\000"
 2199      696D6500 
 2200              	.LASF143:
 2201 0792 63665F6F 		.ascii	"cf_off_ctx\000"
 2201      66665F63 
 2201      747800
 2202              	.LASF129:
 2203 079d 63685F6D 		.ascii	"ch_mutex\000"
 2203      75746578 
 2203      00
 2204              	.LASF43:
 2205 07a6 705F7265 		.ascii	"p_refs\000"
 2205      667300
 2206              	.LASF82:
 2207 07ad 6973725F 		.ascii	"isr_cnt\000"
 2207      636E7400 
 2208              	.LASF101:
 2209 07b5 73655F73 		.ascii	"se_state\000"
 2209      74617465 
 2209      00
 2210              	.LASF87:
 2211 07be 726C6973 		.ascii	"rlist\000"
 2211      7400
 2212              	.LASF131:
 2213 07c4 6D5F6F77 		.ascii	"m_owner\000"
 2213      6E657200 
 2214              	.LASF15:
 2215 07cc 75696E74 		.ascii	"uint8_t\000"
 2215      385F7400 
 2216              	.LASF54:
 2217 07d4 74687265 		.ascii	"thread_reference_t\000"
 2217      61645F72 
 2217      65666572 
 2217      656E6365 
 2217      5F7400
 2218              	.LASF121:
 2219 07e7 77746F62 		.ascii	"wtobjp\000"
ARM GAS  /var/folders/qd/4mxf5pkd0zdf0b9dd1hp39180000gn/T//ccswW7ZO.s 			page 46


 2219      6A7000
 2220              	.LASF39:
 2221 07ee 705F6E61 		.ascii	"p_name\000"
 2221      6D6500
 2222              	.LASF78:
 2223 07f5 76745F73 		.ascii	"vt_systime\000"
 2223      79737469 
 2223      6D6500
 2224              	.LASF161:
 2225 0800 6572726F 		.ascii	"error_t\000"
 2225      725F7400 
 2226              	.LASF138:
 2227 0808 63685F76 		.ascii	"ch_version\000"
 2227      65727369 
 2227      6F6E00
 2228              	.LASF116:
 2229 0813 6D5F6372 		.ascii	"m_crit_thd\000"
 2229      69745F74 
 2229      686400
 2230              	.LASF166:
 2231 081e 2F557365 		.ascii	"/Users/nicolas/Library/Mobile Documents/com~apple~C"
 2231      72732F6E 
 2231      69636F6C 
 2231      61732F4C 
 2231      69627261 
 2232 0851 6C6F7564 		.ascii	"loudDocs/Projects/Cours/epuck_project/Sources\000"
 2232      446F6373 
 2232      2F50726F 
 2232      6A656374 
 2232      732F436F 
 2233              	.LASF100:
 2234 087f 73655F77 		.ascii	"se_wtobjp\000"
 2234      746F626A 
 2234      7000
 2235              	.LASF135:
 2236 0889 63685F69 		.ascii	"ch_identifier\000"
 2236      64656E74 
 2236      69666965 
 2236      7200
 2237              	.LASF74:
 2238 0897 76745F66 		.ascii	"vt_func\000"
 2238      756E6300 
 2239              		.ident	"GCC: (GNU Tools for Arm Embedded Processors 7-2017-q4-major) 7.2.1 20170904 (release) [ARM
ARM GAS  /var/folders/qd/4mxf5pkd0zdf0b9dd1hp39180000gn/T//ccswW7ZO.s 			page 47


DEFINED SYMBOLS
                            *ABS*:0000000000000000 mod_errors.c
/var/folders/qd/4mxf5pkd0zdf0b9dd1hp39180000gn/T//ccswW7ZO.s:18     .text.error:0000000000000000 $t
/var/folders/qd/4mxf5pkd0zdf0b9dd1hp39180000gn/T//ccswW7ZO.s:26     .text.error:0000000000000000 error
/var/folders/qd/4mxf5pkd0zdf0b9dd1hp39180000gn/T//ccswW7ZO.s:59     .text.error:000000000000001c $d

UNDEFINED SYMBOLS
mod_basicIO_alert_leds
chThdSleep
__stack_chk_guard
