ARM GAS  /var/folders/qd/4mxf5pkd0zdf0b9dd1hp39180000gn/T//ccmJvynR.s 			page 1


   1              		.cpu cortex-m4
   2              		.eabi_attribute 27, 1
   3              		.eabi_attribute 28, 1
   4              		.eabi_attribute 20, 1
   5              		.eabi_attribute 21, 1
   6              		.eabi_attribute 23, 3
   7              		.eabi_attribute 24, 1
   8              		.eabi_attribute 25, 1
   9              		.eabi_attribute 26, 1
  10              		.eabi_attribute 30, 2
  11              		.eabi_attribute 34, 1
  12              		.eabi_attribute 18, 4
  13              		.file	"mod_sensors.c"
  14              		.text
  15              	.Ltext0:
  16              		.cfi_sections	.debug_frame
  17              		.section	.text.initSensors,"ax",%progbits
  18              		.align	1
  19              		.p2align 4,,15
  20              		.global	initSensors
  21              		.syntax unified
  22              		.thumb
  23              		.thumb_func
  24              		.fpu fpv4-sp-d16
  25              		.type	initSensors, %function
  26              	initSensors:
  27              	.LFB222:
  28              		.file 1 "./modules/mod_sensors.c"
  29              		.loc 1 19 0
  30              		.cfi_startproc
  31              		@ args = 0, pretend = 0, frame = 8
  32              		@ frame_needed = 0, uses_anonymous_args = 0
  33 0000 10B5     		push	{r4, lr}
  34              		.cfi_def_cfa_offset 8
  35              		.cfi_offset 4, -8
  36              		.cfi_offset 14, -4
  37 0002 0B4C     		ldr	r4, .L7
  38 0004 82B0     		sub	sp, sp, #8
  39              		.cfi_def_cfa_offset 16
  40              		.loc 1 19 0
  41 0006 2368     		ldr	r3, [r4]
  42 0008 0193     		str	r3, [sp, #4]
  43              		.loc 1 20 0
  44 000a FFF7FEFF 		bl	VL53L0X_start
  45              	.LVL0:
  46              		.loc 1 21 0
  47 000e 094A     		ldr	r2, .L7+4
  48 0010 0949     		ldr	r1, .L7+8
  49 0012 0A48     		ldr	r0, .L7+12
  50 0014 FFF7FEFF 		bl	messagebus_init
  51              	.LVL1:
  52              		.loc 1 22 0
  53 0018 019A     		ldr	r2, [sp, #4]
  54 001a 2368     		ldr	r3, [r4]
  55 001c 9A42     		cmp	r2, r3
  56 001e 04D1     		bne	.L6
  57              		.loc 1 23 0
ARM GAS  /var/folders/qd/4mxf5pkd0zdf0b9dd1hp39180000gn/T//ccmJvynR.s 			page 2


  58 0020 02B0     		add	sp, sp, #8
  59              		.cfi_remember_state
  60              		.cfi_def_cfa_offset 8
  61              		@ sp needed
  62 0022 BDE81040 		pop	{r4, lr}
  63              		.cfi_restore 14
  64              		.cfi_restore 4
  65              		.cfi_def_cfa_offset 0
  66              		.loc 1 22 0
  67 0026 FFF7FEBF 		b	proximity_start
  68              	.LVL2:
  69              	.L6:
  70              		.cfi_restore_state
  71 002a FFF7FEFF 		bl	__stack_chk_fail
  72              	.LVL3:
  73              	.L8:
  74 002e 00BF     		.align	2
  75              	.L7:
  76 0030 00000000 		.word	__stack_chk_guard
  77 0034 00000000 		.word	.LANCHOR0
  78 0038 00000000 		.word	.LANCHOR1
  79 003c 00000000 		.word	bus
  80              		.cfi_endproc
  81              	.LFE222:
  82              		.size	initSensors, .-initSensors
  83              		.section	.text.testSensor,"ax",%progbits
  84              		.align	1
  85              		.p2align 4,,15
  86              		.global	testSensor
  87              		.syntax unified
  88              		.thumb
  89              		.thumb_func
  90              		.fpu fpv4-sp-d16
  91              		.type	testSensor, %function
  92              	testSensor:
  93              	.LFB223:
  94              		.loc 1 25 0
  95              		.cfi_startproc
  96              		@ args = 0, pretend = 0, frame = 8
  97              		@ frame_needed = 0, uses_anonymous_args = 0
  98 0000 00B5     		push	{lr}
  99              		.cfi_def_cfa_offset 4
 100              		.cfi_offset 14, -4
 101 0002 074B     		ldr	r3, .L14
 102 0004 83B0     		sub	sp, sp, #12
 103              		.cfi_def_cfa_offset 16
 104              		.loc 1 25 0
 105 0006 1A68     		ldr	r2, [r3]
 106 0008 0192     		str	r2, [sp, #4]
 107              		.loc 1 26 0
 108 000a 019A     		ldr	r2, [sp, #4]
 109 000c 1B68     		ldr	r3, [r3]
 110 000e 9A42     		cmp	r2, r3
 111 0010 04D1     		bne	.L13
 112              		.loc 1 28 0
 113 0012 03B0     		add	sp, sp, #12
 114              		.cfi_remember_state
ARM GAS  /var/folders/qd/4mxf5pkd0zdf0b9dd1hp39180000gn/T//ccmJvynR.s 			page 3


 115              		.cfi_def_cfa_offset 4
 116              		@ sp needed
 117 0014 5DF804EB 		ldr	lr, [sp], #4
 118              		.cfi_restore 14
 119              		.cfi_def_cfa_offset 0
 120              		.loc 1 26 0
 121 0018 FFF7FEBF 		b	VL53L0X_get_dist_mm
 122              	.LVL4:
 123              	.L13:
 124              		.cfi_restore_state
 125 001c FFF7FEFF 		bl	__stack_chk_fail
 126              	.LVL5:
 127              	.L15:
 128              		.align	2
 129              	.L14:
 130 0020 00000000 		.word	__stack_chk_guard
 131              		.cfi_endproc
 132              	.LFE223:
 133              		.size	testSensor, .-testSensor
 134              		.section	.text.getAllProximityValues,"ax",%progbits
 135              		.align	1
 136              		.p2align 4,,15
 137              		.global	getAllProximityValues
 138              		.syntax unified
 139              		.thumb
 140              		.thumb_func
 141              		.fpu fpv4-sp-d16
 142              		.type	getAllProximityValues, %function
 143              	getAllProximityValues:
 144              	.LFB224:
 145              		.loc 1 30 0
 146              		.cfi_startproc
 147              		@ args = 0, pretend = 0, frame = 136
 148              		@ frame_needed = 0, uses_anonymous_args = 0
 149              	.LVL6:
 150 0000 30B5     		push	{r4, r5, lr}
 151              		.cfi_def_cfa_offset 12
 152              		.cfi_offset 4, -12
 153              		.cfi_offset 5, -8
 154              		.cfi_offset 14, -4
 155 0002 0F4D     		ldr	r5, .L22
 156              		.loc 1 32 0
 157 0004 0F49     		ldr	r1, .L22+4
 158              		.loc 1 30 0
 159 0006 2B68     		ldr	r3, [r5]
 160 0008 A3B0     		sub	sp, sp, #140
 161              		.cfi_def_cfa_offset 152
 162              		.loc 1 30 0
 163 000a 0446     		mov	r4, r0
 164              		.loc 1 32 0
 165 000c 0E48     		ldr	r0, .L22+8
 166              	.LVL7:
 167              		.loc 1 30 0
 168 000e 2193     		str	r3, [sp, #132]
 169              		.loc 1 32 0
 170 0010 FFF7FEFF 		bl	messagebus_find_topic_blocking
 171              	.LVL8:
ARM GAS  /var/folders/qd/4mxf5pkd0zdf0b9dd1hp39180000gn/T//ccmJvynR.s 			page 4


 172              		.loc 1 33 0
 173 0014 8022     		movs	r2, #128
 174 0016 01A9     		add	r1, sp, #4
 175 0018 FFF7FEFF 		bl	messagebus_topic_wait
 176              	.LVL9:
 177 001c 231F     		subs	r3, r4, #4
 178 001e 04F11C00 		add	r0, r4, #28
 179 0022 11AA     		add	r2, sp, #68
 180              	.LVL10:
 181              	.L17:
 182              		.loc 1 36 0 discriminator 3
 183 0024 52F8041B 		ldr	r1, [r2], #4
 184 0028 43F8041F 		str	r1, [r3, #4]!
 185              		.loc 1 35 0 discriminator 3
 186 002c 8342     		cmp	r3, r0
 187 002e F9D1     		bne	.L17
 188              		.loc 1 38 0
 189 0030 219A     		ldr	r2, [sp, #132]
 190 0032 2B68     		ldr	r3, [r5]
 191 0034 9A42     		cmp	r2, r3
 192 0036 01D1     		bne	.L21
 193 0038 23B0     		add	sp, sp, #140
 194              		.cfi_remember_state
 195              		.cfi_def_cfa_offset 12
 196              		@ sp needed
 197 003a 30BD     		pop	{r4, r5, pc}
 198              	.LVL11:
 199              	.L21:
 200              		.cfi_restore_state
 201 003c FFF7FEFF 		bl	__stack_chk_fail
 202              	.LVL12:
 203              	.L23:
 204              		.align	2
 205              	.L22:
 206 0040 00000000 		.word	__stack_chk_guard
 207 0044 00000000 		.word	.LC0
 208 0048 00000000 		.word	bus
 209              		.cfi_endproc
 210              	.LFE224:
 211              		.size	getAllProximityValues, .-getAllProximityValues
 212              		.global	bus_condvar
 213              		.global	bus_lock
 214              		.section	.data.bus_condvar,"aw",%progbits
 215              		.align	2
 216              		.set	.LANCHOR0,. + 0
 217              		.type	bus_condvar, %object
 218              		.size	bus_condvar, 8
 219              	bus_condvar:
 220 0000 00000000 		.word	bus_condvar
 221 0004 00000000 		.word	bus_condvar
 222              		.section	.data.bus_lock,"aw",%progbits
 223              		.align	2
 224              		.set	.LANCHOR1,. + 0
 225              		.type	bus_lock, %object
 226              		.size	bus_lock, 20
 227              	bus_lock:
 228 0000 00000000 		.word	bus_lock
ARM GAS  /var/folders/qd/4mxf5pkd0zdf0b9dd1hp39180000gn/T//ccmJvynR.s 			page 5


 229 0004 00000000 		.word	bus_lock
 230 0008 00000000 		.word	0
 231 000c 00000000 		.word	0
 232 0010 00000000 		.word	0
 233              		.section	.rodata.getAllProximityValues.str1.4,"aMS",%progbits,1
 234              		.align	2
 235              	.LC0:
 236 0000 2F70726F 		.ascii	"/proximity\000"
 236      78696D69 
 236      747900
 237              		.text
 238              	.Letext0:
 239              		.file 2 "/Applications/Eclipse_e-puck2.app/Contents/Eclipse_e-puck2/Tools/gcc-arm-none-eabi-7-2017
 240              		.file 3 "/Applications/Eclipse_e-puck2.app/Contents/Eclipse_e-puck2/Tools/gcc-arm-none-eabi-7-2017
 241              		.file 4 "/Applications/Eclipse_e-puck2.app/Contents/Eclipse_e-puck2/Tools/gcc-arm-none-eabi-7-2017
 242              		.file 5 "/Applications/Eclipse_e-puck2.app/Contents/Eclipse_e-puck2/Tools/gcc-arm-none-eabi-7-2017
 243              		.file 6 "/Applications/Eclipse_e-puck2.app/Contents/Eclipse_e-puck2/Tools/gcc-arm-none-eabi-7-2017
 244              		.file 7 "/Applications/Eclipse_e-puck2.app/Contents/Eclipse_e-puck2/Tools/gcc-arm-none-eabi-7-2017
 245              		.file 8 "lib/e-puck2_main-processor/src/msgbus/messagebus.h"
 246              		.file 9 "lib/e-puck2_main-processor/src/sensors/proximity.h"
 247              		.file 10 "/Applications/Eclipse_e-puck2.app/Contents/Eclipse_e-puck2/Tools/gcc-arm-none-eabi-7-201
 248              		.file 11 "lib/e-puck2_main-processor/ChibiOS//os/rt/ports/ARMCMx/compilers/GCC/chtypes.h"
 249              		.file 12 "lib/e-puck2_main-processor/ChibiOS//os/rt/include/chsystypes.h"
 250              		.file 13 "lib/e-puck2_main-processor/ChibiOS//os/rt/include/chschd.h"
 251              		.file 14 "lib/e-puck2_main-processor/ChibiOS//os/ext/CMSIS/include/core_cm4.h"
 252              		.file 15 "lib/e-puck2_main-processor/ChibiOS//os/ext/CMSIS/ST/system_stm32f4xx.h"
 253              		.file 16 "lib/e-puck2_main-processor/ChibiOS//os/rt/ports/ARMCMx/chcore.h"
 254              		.file 17 "lib/e-puck2_main-processor/ChibiOS//os/rt/ports/ARMCMx/chcore_v7m.h"
 255              		.file 18 "lib/e-puck2_main-processor/ChibiOS//os/rt/include/chdebug.h"
 256              		.file 19 "lib/e-puck2_main-processor/ChibiOS//os/rt/include/chtm.h"
 257              		.file 20 "lib/e-puck2_main-processor/ChibiOS//os/rt/include/chstats.h"
 258              		.file 21 "lib/e-puck2_main-processor/ChibiOS//os/rt/include/chsem.h"
 259              		.file 22 "lib/e-puck2_main-processor/ChibiOS//os/rt/include/chmtx.h"
 260              		.file 23 "lib/e-puck2_main-processor/ChibiOS//os/rt/include/chregistry.h"
 261              		.file 24 "lib/e-puck2_main-processor/ChibiOS//os/rt/include/chcond.h"
 262              		.file 25 "lib/e-puck2_main-processor/src/sensors/VL53L0X/VL53L0X.h"
 263              		.section	.debug_info,"",%progbits
 264              	.Ldebug_info0:
 265 0000 9D150000 		.4byte	0x159d
 266 0004 0400     		.2byte	0x4
 267 0006 00000000 		.4byte	.Ldebug_abbrev0
 268 000a 04       		.byte	0x4
 269 000b 01       		.uleb128 0x1
 270 000c 5F000000 		.4byte	.LASF312
 271 0010 0C       		.byte	0xc
 272 0011 C30B0000 		.4byte	.LASF313
 273 0015 43020000 		.4byte	.LASF314
 274 0019 00000000 		.4byte	.Ldebug_ranges0+0
 275 001d 00000000 		.4byte	0
 276 0021 00000000 		.4byte	.Ldebug_line0
 277 0025 02       		.uleb128 0x2
 278 0026 01       		.byte	0x1
 279 0027 06       		.byte	0x6
 280 0028 0B040000 		.4byte	.LASF0
 281 002c 03       		.uleb128 0x3
 282 002d 18030000 		.4byte	.LASF3
 283 0031 02       		.byte	0x2
ARM GAS  /var/folders/qd/4mxf5pkd0zdf0b9dd1hp39180000gn/T//ccmJvynR.s 			page 6


 284 0032 2B       		.byte	0x2b
 285 0033 37000000 		.4byte	0x37
 286 0037 02       		.uleb128 0x2
 287 0038 01       		.byte	0x1
 288 0039 08       		.byte	0x8
 289 003a 5E040000 		.4byte	.LASF1
 290 003e 02       		.uleb128 0x2
 291 003f 02       		.byte	0x2
 292 0040 05       		.byte	0x5
 293 0041 4C0C0000 		.4byte	.LASF2
 294 0045 03       		.uleb128 0x3
 295 0046 00050000 		.4byte	.LASF4
 296 004a 02       		.byte	0x2
 297 004b 39       		.byte	0x39
 298 004c 50000000 		.4byte	0x50
 299 0050 02       		.uleb128 0x2
 300 0051 02       		.byte	0x2
 301 0052 07       		.byte	0x7
 302 0053 6B0D0000 		.4byte	.LASF5
 303 0057 03       		.uleb128 0x3
 304 0058 C20D0000 		.4byte	.LASF6
 305 005c 02       		.byte	0x2
 306 005d 4D       		.byte	0x4d
 307 005e 62000000 		.4byte	0x62
 308 0062 02       		.uleb128 0x2
 309 0063 04       		.byte	0x4
 310 0064 05       		.byte	0x5
 311 0065 61030000 		.4byte	.LASF7
 312 0069 03       		.uleb128 0x3
 313 006a E3070000 		.4byte	.LASF8
 314 006e 02       		.byte	0x2
 315 006f 4F       		.byte	0x4f
 316 0070 74000000 		.4byte	0x74
 317 0074 02       		.uleb128 0x2
 318 0075 04       		.byte	0x4
 319 0076 07       		.byte	0x7
 320 0077 6F060000 		.4byte	.LASF9
 321 007b 02       		.uleb128 0x2
 322 007c 08       		.byte	0x8
 323 007d 05       		.byte	0x5
 324 007e 0A080000 		.4byte	.LASF10
 325 0082 03       		.uleb128 0x3
 326 0083 5F060000 		.4byte	.LASF11
 327 0087 02       		.byte	0x2
 328 0088 69       		.byte	0x69
 329 0089 8D000000 		.4byte	0x8d
 330 008d 02       		.uleb128 0x2
 331 008e 08       		.byte	0x8
 332 008f 07       		.byte	0x7
 333 0090 B20A0000 		.4byte	.LASF12
 334 0094 04       		.uleb128 0x4
 335 0095 04       		.byte	0x4
 336 0096 05       		.byte	0x5
 337 0097 696E7400 		.ascii	"int\000"
 338 009b 02       		.uleb128 0x2
 339 009c 04       		.byte	0x4
 340 009d 07       		.byte	0x7
ARM GAS  /var/folders/qd/4mxf5pkd0zdf0b9dd1hp39180000gn/T//ccmJvynR.s 			page 7


 341 009e EE080000 		.4byte	.LASF13
 342 00a2 03       		.uleb128 0x3
 343 00a3 21040000 		.4byte	.LASF14
 344 00a7 03       		.byte	0x3
 345 00a8 18       		.byte	0x18
 346 00a9 2C000000 		.4byte	0x2c
 347 00ad 03       		.uleb128 0x3
 348 00ae D10A0000 		.4byte	.LASF15
 349 00b2 03       		.byte	0x3
 350 00b3 24       		.byte	0x24
 351 00b4 45000000 		.4byte	0x45
 352 00b8 03       		.uleb128 0x3
 353 00b9 C4010000 		.4byte	.LASF16
 354 00bd 03       		.byte	0x3
 355 00be 2C       		.byte	0x2c
 356 00bf 57000000 		.4byte	0x57
 357 00c3 05       		.uleb128 0x5
 358 00c4 B8000000 		.4byte	0xb8
 359 00c8 03       		.uleb128 0x3
 360 00c9 400D0000 		.4byte	.LASF17
 361 00cd 03       		.byte	0x3
 362 00ce 30       		.byte	0x30
 363 00cf 69000000 		.4byte	0x69
 364 00d3 03       		.uleb128 0x3
 365 00d4 560C0000 		.4byte	.LASF18
 366 00d8 03       		.byte	0x3
 367 00d9 3C       		.byte	0x3c
 368 00da 82000000 		.4byte	0x82
 369 00de 06       		.uleb128 0x6
 370 00df 04       		.byte	0x4
 371 00e0 E4000000 		.4byte	0xe4
 372 00e4 07       		.uleb128 0x7
 373 00e5 0F000000 		.4byte	.LASF22
 374 00e9 03       		.uleb128 0x3
 375 00ea 08000000 		.4byte	.LASF19
 376 00ee 04       		.byte	0x4
 377 00ef D8       		.byte	0xd8
 378 00f0 9B000000 		.4byte	0x9b
 379 00f4 02       		.uleb128 0x2
 380 00f5 08       		.byte	0x8
 381 00f6 04       		.byte	0x4
 382 00f7 140A0000 		.4byte	.LASF20
 383 00fb 03       		.uleb128 0x3
 384 00fc C80C0000 		.4byte	.LASF21
 385 0100 05       		.byte	0x5
 386 0101 22       		.byte	0x22
 387 0102 06010000 		.4byte	0x106
 388 0106 06       		.uleb128 0x6
 389 0107 04       		.byte	0x4
 390 0108 0C010000 		.4byte	0x10c
 391 010c 07       		.uleb128 0x7
 392 010d EE050000 		.4byte	.LASF23
 393 0111 03       		.uleb128 0x3
 394 0112 580D0000 		.4byte	.LASF24
 395 0116 06       		.byte	0x6
 396 0117 2C       		.byte	0x2c
 397 0118 62000000 		.4byte	0x62
ARM GAS  /var/folders/qd/4mxf5pkd0zdf0b9dd1hp39180000gn/T//ccmJvynR.s 			page 8


 398 011c 03       		.uleb128 0x3
 399 011d 6A0A0000 		.4byte	.LASF25
 400 0121 06       		.byte	0x6
 401 0122 72       		.byte	0x72
 402 0123 62000000 		.4byte	0x62
 403 0127 08       		.uleb128 0x8
 404 0128 940B0000 		.4byte	.LASF26
 405 012c 04       		.byte	0x4
 406 012d 6501     		.2byte	0x165
 407 012f 9B000000 		.4byte	0x9b
 408 0133 09       		.uleb128 0x9
 409 0134 04       		.byte	0x4
 410 0135 06       		.byte	0x6
 411 0136 A6       		.byte	0xa6
 412 0137 52010000 		.4byte	0x152
 413 013b 0A       		.uleb128 0xa
 414 013c 09030000 		.4byte	.LASF27
 415 0140 06       		.byte	0x6
 416 0141 A8       		.byte	0xa8
 417 0142 27010000 		.4byte	0x127
 418 0146 0A       		.uleb128 0xa
 419 0147 720A0000 		.4byte	.LASF28
 420 014b 06       		.byte	0x6
 421 014c A9       		.byte	0xa9
 422 014d 52010000 		.4byte	0x152
 423 0151 00       		.byte	0
 424 0152 0B       		.uleb128 0xb
 425 0153 37000000 		.4byte	0x37
 426 0157 62010000 		.4byte	0x162
 427 015b 0C       		.uleb128 0xc
 428 015c 9B000000 		.4byte	0x9b
 429 0160 03       		.byte	0x3
 430 0161 00       		.byte	0
 431 0162 0D       		.uleb128 0xd
 432 0163 08       		.byte	0x8
 433 0164 06       		.byte	0x6
 434 0165 A3       		.byte	0xa3
 435 0166 83010000 		.4byte	0x183
 436 016a 0E       		.uleb128 0xe
 437 016b F0090000 		.4byte	.LASF29
 438 016f 06       		.byte	0x6
 439 0170 A5       		.byte	0xa5
 440 0171 94000000 		.4byte	0x94
 441 0175 00       		.byte	0
 442 0176 0E       		.uleb128 0xe
 443 0177 1A000000 		.4byte	.LASF30
 444 017b 06       		.byte	0x6
 445 017c AA       		.byte	0xaa
 446 017d 33010000 		.4byte	0x133
 447 0181 04       		.byte	0x4
 448 0182 00       		.byte	0
 449 0183 03       		.uleb128 0x3
 450 0184 7C0B0000 		.4byte	.LASF31
 451 0188 06       		.byte	0x6
 452 0189 AB       		.byte	0xab
 453 018a 62010000 		.4byte	0x162
 454 018e 03       		.uleb128 0x3
ARM GAS  /var/folders/qd/4mxf5pkd0zdf0b9dd1hp39180000gn/T//ccmJvynR.s 			page 9


 455 018f 670B0000 		.4byte	.LASF32
 456 0193 06       		.byte	0x6
 457 0194 AF       		.byte	0xaf
 458 0195 FB000000 		.4byte	0xfb
 459 0199 0F       		.uleb128 0xf
 460 019a 04       		.byte	0x4
 461 019b 06       		.uleb128 0x6
 462 019c 04       		.byte	0x4
 463 019d A1010000 		.4byte	0x1a1
 464 01a1 02       		.uleb128 0x2
 465 01a2 01       		.byte	0x1
 466 01a3 08       		.byte	0x8
 467 01a4 CC040000 		.4byte	.LASF33
 468 01a8 10       		.uleb128 0x10
 469 01a9 A1010000 		.4byte	0x1a1
 470 01ad 11       		.uleb128 0x11
 471 01ae 56040000 		.4byte	.LASF34
 472 01b2 07       		.byte	0x7
 473 01b3 10       		.byte	0x10
 474 01b4 B8010000 		.4byte	0x1b8
 475 01b8 06       		.uleb128 0x6
 476 01b9 04       		.byte	0x4
 477 01ba 9B010000 		.4byte	0x19b
 478 01be 11       		.uleb128 0x11
 479 01bf 510D0000 		.4byte	.LASF35
 480 01c3 07       		.byte	0x7
 481 01c4 E8       		.byte	0xe8
 482 01c5 9B010000 		.4byte	0x19b
 483 01c9 11       		.uleb128 0x11
 484 01ca 38060000 		.4byte	.LASF36
 485 01ce 07       		.byte	0x7
 486 01cf E9       		.byte	0xe9
 487 01d0 94000000 		.4byte	0x94
 488 01d4 11       		.uleb128 0x11
 489 01d5 390B0000 		.4byte	.LASF37
 490 01d9 07       		.byte	0x7
 491 01da E9       		.byte	0xe9
 492 01db 94000000 		.4byte	0x94
 493 01df 11       		.uleb128 0x11
 494 01e0 9E0A0000 		.4byte	.LASF38
 495 01e4 07       		.byte	0x7
 496 01e5 E9       		.byte	0xe9
 497 01e6 94000000 		.4byte	0x94
 498 01ea 11       		.uleb128 0x11
 499 01eb 72050000 		.4byte	.LASF39
 500 01ef 07       		.byte	0x7
 501 01f0 EB       		.byte	0xeb
 502 01f1 94000000 		.4byte	0x94
 503 01f5 12       		.uleb128 0x12
 504 01f6 2E050000 		.4byte	.LASF49
 505 01fa 5C       		.byte	0x5c
 506 01fb 08       		.byte	0x8
 507 01fc 0C       		.byte	0xc
 508 01fd 62020000 		.4byte	0x262
 509 0201 0E       		.uleb128 0xe
 510 0202 A8050000 		.4byte	.LASF40
 511 0206 08       		.byte	0x8
ARM GAS  /var/folders/qd/4mxf5pkd0zdf0b9dd1hp39180000gn/T//ccmJvynR.s 			page 10


 512 0207 0D       		.byte	0xd
 513 0208 99010000 		.4byte	0x199
 514 020c 00       		.byte	0
 515 020d 0E       		.uleb128 0xe
 516 020e 07060000 		.4byte	.LASF41
 517 0212 08       		.byte	0x8
 518 0213 0E       		.byte	0xe
 519 0214 E9000000 		.4byte	0xe9
 520 0218 04       		.byte	0x4
 521 0219 0E       		.uleb128 0xe
 522 021a 210E0000 		.4byte	.LASF42
 523 021e 08       		.byte	0x8
 524 021f 0F       		.byte	0xf
 525 0220 99010000 		.4byte	0x199
 526 0224 08       		.byte	0x8
 527 0225 0E       		.uleb128 0xe
 528 0226 210C0000 		.4byte	.LASF43
 529 022a 08       		.byte	0x8
 530 022b 10       		.byte	0x10
 531 022c 99010000 		.4byte	0x199
 532 0230 0C       		.byte	0xc
 533 0231 0E       		.uleb128 0xe
 534 0232 140C0000 		.4byte	.LASF44
 535 0236 08       		.byte	0x8
 536 0237 11       		.byte	0x11
 537 0238 62020000 		.4byte	0x262
 538 023c 10       		.byte	0x10
 539 023d 0E       		.uleb128 0xe
 540 023e FB080000 		.4byte	.LASF45
 541 0242 08       		.byte	0x8
 542 0243 12       		.byte	0x12
 543 0244 72020000 		.4byte	0x272
 544 0248 51       		.byte	0x51
 545 0249 0E       		.uleb128 0xe
 546 024a DD020000 		.4byte	.LASF46
 547 024e 08       		.byte	0x8
 548 024f 13       		.byte	0x13
 549 0250 9E020000 		.4byte	0x29e
 550 0254 54       		.byte	0x54
 551 0255 0E       		.uleb128 0xe
 552 0256 F80D0000 		.4byte	.LASF47
 553 025a 08       		.byte	0x8
 554 025b 14       		.byte	0x14
 555 025c A4020000 		.4byte	0x2a4
 556 0260 58       		.byte	0x58
 557 0261 00       		.byte	0
 558 0262 0B       		.uleb128 0xb
 559 0263 A1010000 		.4byte	0x1a1
 560 0267 72020000 		.4byte	0x272
 561 026b 0C       		.uleb128 0xc
 562 026c 9B000000 		.4byte	0x9b
 563 0270 40       		.byte	0x40
 564 0271 00       		.byte	0
 565 0272 02       		.uleb128 0x2
 566 0273 01       		.byte	0x1
 567 0274 02       		.byte	0x2
 568 0275 C0040000 		.4byte	.LASF48
ARM GAS  /var/folders/qd/4mxf5pkd0zdf0b9dd1hp39180000gn/T//ccmJvynR.s 			page 11


 569 0279 12       		.uleb128 0x12
 570 027a E60B0000 		.4byte	.LASF50
 571 027e 08       		.byte	0x8
 572 027f 08       		.byte	0x8
 573 0280 25       		.byte	0x25
 574 0281 9E020000 		.4byte	0x29e
 575 0285 0E       		.uleb128 0xe
 576 0286 3A070000 		.4byte	.LASF51
 577 028a 08       		.byte	0x8
 578 028b 26       		.byte	0x26
 579 028c 44030000 		.4byte	0x344
 580 0290 00       		.byte	0
 581 0291 0E       		.uleb128 0xe
 582 0292 F80D0000 		.4byte	.LASF47
 583 0296 08       		.byte	0x8
 584 0297 27       		.byte	0x27
 585 0298 9E020000 		.4byte	0x29e
 586 029c 04       		.byte	0x4
 587 029d 00       		.byte	0
 588 029e 06       		.uleb128 0x6
 589 029f 04       		.byte	0x4
 590 02a0 79020000 		.4byte	0x279
 591 02a4 06       		.uleb128 0x6
 592 02a5 04       		.byte	0x4
 593 02a6 F5010000 		.4byte	0x1f5
 594 02aa 03       		.uleb128 0x3
 595 02ab 3D040000 		.4byte	.LASF52
 596 02af 08       		.byte	0x8
 597 02b0 15       		.byte	0x15
 598 02b1 F5010000 		.4byte	0x1f5
 599 02b5 0D       		.uleb128 0xd
 600 02b6 04       		.byte	0x4
 601 02b7 08       		.byte	0x8
 602 02b8 18       		.byte	0x18
 603 02b9 CA020000 		.4byte	0x2ca
 604 02bd 0E       		.uleb128 0xe
 605 02be EE030000 		.4byte	.LASF53
 606 02c2 08       		.byte	0x8
 607 02c3 19       		.byte	0x19
 608 02c4 CA020000 		.4byte	0x2ca
 609 02c8 00       		.byte	0
 610 02c9 00       		.byte	0
 611 02ca 06       		.uleb128 0x6
 612 02cb 04       		.byte	0x4
 613 02cc AA020000 		.4byte	0x2aa
 614 02d0 0D       		.uleb128 0xd
 615 02d1 0C       		.byte	0xc
 616 02d2 08       		.byte	0x8
 617 02d3 17       		.byte	0x17
 618 02d4 FD020000 		.4byte	0x2fd
 619 02d8 0E       		.uleb128 0xe
 620 02d9 40090000 		.4byte	.LASF54
 621 02dd 08       		.byte	0x8
 622 02de 1A       		.byte	0x1a
 623 02df B5020000 		.4byte	0x2b5
 624 02e3 00       		.byte	0
 625 02e4 0E       		.uleb128 0xe
ARM GAS  /var/folders/qd/4mxf5pkd0zdf0b9dd1hp39180000gn/T//ccmJvynR.s 			page 12


 626 02e5 210E0000 		.4byte	.LASF42
 627 02e9 08       		.byte	0x8
 628 02ea 1B       		.byte	0x1b
 629 02eb 99010000 		.4byte	0x199
 630 02ef 04       		.byte	0x4
 631 02f0 0E       		.uleb128 0xe
 632 02f1 210C0000 		.4byte	.LASF43
 633 02f5 08       		.byte	0x8
 634 02f6 1C       		.byte	0x1c
 635 02f7 99010000 		.4byte	0x199
 636 02fb 08       		.byte	0x8
 637 02fc 00       		.byte	0
 638 02fd 03       		.uleb128 0x3
 639 02fe 26070000 		.4byte	.LASF55
 640 0302 08       		.byte	0x8
 641 0303 1D       		.byte	0x1d
 642 0304 D0020000 		.4byte	0x2d0
 643 0308 12       		.uleb128 0x12
 644 0309 7F070000 		.4byte	.LASF56
 645 030d 0C       		.byte	0xc
 646 030e 08       		.byte	0x8
 647 030f 1F       		.byte	0x1f
 648 0310 39030000 		.4byte	0x339
 649 0314 0E       		.uleb128 0xe
 650 0315 210E0000 		.4byte	.LASF42
 651 0319 08       		.byte	0x8
 652 031a 20       		.byte	0x20
 653 031b 99010000 		.4byte	0x199
 654 031f 00       		.byte	0
 655 0320 0E       		.uleb128 0xe
 656 0321 210C0000 		.4byte	.LASF43
 657 0325 08       		.byte	0x8
 658 0326 21       		.byte	0x21
 659 0327 99010000 		.4byte	0x199
 660 032b 04       		.byte	0x4
 661 032c 0E       		.uleb128 0xe
 662 032d 58070000 		.4byte	.LASF57
 663 0331 08       		.byte	0x8
 664 0332 22       		.byte	0x22
 665 0333 CA020000 		.4byte	0x2ca
 666 0337 08       		.byte	0x8
 667 0338 00       		.byte	0
 668 0339 03       		.uleb128 0x3
 669 033a 97070000 		.4byte	.LASF58
 670 033e 08       		.byte	0x8
 671 033f 23       		.byte	0x23
 672 0340 08030000 		.4byte	0x308
 673 0344 06       		.uleb128 0x6
 674 0345 04       		.byte	0x4
 675 0346 39030000 		.4byte	0x339
 676 034a 13       		.uleb128 0x13
 677 034b 62757300 		.ascii	"bus\000"
 678 034f 09       		.byte	0x9
 679 0350 0C       		.byte	0xc
 680 0351 FD020000 		.4byte	0x2fd
 681 0355 0D       		.uleb128 0xd
 682 0356 80       		.byte	0x80
ARM GAS  /var/folders/qd/4mxf5pkd0zdf0b9dd1hp39180000gn/T//ccmJvynR.s 			page 13


 683 0357 09       		.byte	0x9
 684 0358 0F       		.byte	0xf
 685 0359 8E030000 		.4byte	0x38e
 686 035d 0E       		.uleb128 0xe
 687 035e BB080000 		.4byte	.LASF59
 688 0362 09       		.byte	0x9
 689 0363 11       		.byte	0x11
 690 0364 8E030000 		.4byte	0x38e
 691 0368 00       		.byte	0
 692 0369 0E       		.uleb128 0xe
 693 036a 410A0000 		.4byte	.LASF60
 694 036e 09       		.byte	0x9
 695 036f 14       		.byte	0x14
 696 0370 8E030000 		.4byte	0x38e
 697 0374 20       		.byte	0x20
 698 0375 0E       		.uleb128 0xe
 699 0376 240B0000 		.4byte	.LASF61
 700 037a 09       		.byte	0x9
 701 037b 17       		.byte	0x17
 702 037c 8E030000 		.4byte	0x38e
 703 0380 40       		.byte	0x40
 704 0381 0E       		.uleb128 0xe
 705 0382 600A0000 		.4byte	.LASF62
 706 0386 09       		.byte	0x9
 707 0387 1A       		.byte	0x1a
 708 0388 8E030000 		.4byte	0x38e
 709 038c 60       		.byte	0x60
 710 038d 00       		.byte	0
 711 038e 0B       		.uleb128 0xb
 712 038f 9B000000 		.4byte	0x9b
 713 0393 9E030000 		.4byte	0x39e
 714 0397 0C       		.uleb128 0xc
 715 0398 9B000000 		.4byte	0x9b
 716 039c 07       		.byte	0x7
 717 039d 00       		.byte	0
 718 039e 03       		.uleb128 0x3
 719 039f 300D0000 		.4byte	.LASF63
 720 03a3 09       		.byte	0x9
 721 03a4 1B       		.byte	0x1b
 722 03a5 55030000 		.4byte	0x355
 723 03a9 03       		.uleb128 0x3
 724 03aa 280D0000 		.4byte	.LASF64
 725 03ae 0A       		.byte	0xa
 726 03af 16       		.byte	0x16
 727 03b0 74000000 		.4byte	0x74
 728 03b4 12       		.uleb128 0x12
 729 03b5 40070000 		.4byte	.LASF65
 730 03b9 18       		.byte	0x18
 731 03ba 0A       		.byte	0xa
 732 03bb 2F       		.byte	0x2f
 733 03bc 07040000 		.4byte	0x407
 734 03c0 0E       		.uleb128 0xe
 735 03c1 9B0B0000 		.4byte	.LASF66
 736 03c5 0A       		.byte	0xa
 737 03c6 31       		.byte	0x31
 738 03c7 07040000 		.4byte	0x407
 739 03cb 00       		.byte	0
ARM GAS  /var/folders/qd/4mxf5pkd0zdf0b9dd1hp39180000gn/T//ccmJvynR.s 			page 14


 740 03cc 14       		.uleb128 0x14
 741 03cd 5F6B00   		.ascii	"_k\000"
 742 03d0 0A       		.byte	0xa
 743 03d1 32       		.byte	0x32
 744 03d2 94000000 		.4byte	0x94
 745 03d6 04       		.byte	0x4
 746 03d7 0E       		.uleb128 0xe
 747 03d8 77070000 		.4byte	.LASF67
 748 03dc 0A       		.byte	0xa
 749 03dd 32       		.byte	0x32
 750 03de 94000000 		.4byte	0x94
 751 03e2 08       		.byte	0x8
 752 03e3 0E       		.uleb128 0xe
 753 03e4 B5080000 		.4byte	.LASF68
 754 03e8 0A       		.byte	0xa
 755 03e9 32       		.byte	0x32
 756 03ea 94000000 		.4byte	0x94
 757 03ee 0C       		.byte	0xc
 758 03ef 0E       		.uleb128 0xe
 759 03f0 DB050000 		.4byte	.LASF69
 760 03f4 0A       		.byte	0xa
 761 03f5 32       		.byte	0x32
 762 03f6 94000000 		.4byte	0x94
 763 03fa 10       		.byte	0x10
 764 03fb 14       		.uleb128 0x14
 765 03fc 5F7800   		.ascii	"_x\000"
 766 03ff 0A       		.byte	0xa
 767 0400 33       		.byte	0x33
 768 0401 0D040000 		.4byte	0x40d
 769 0405 14       		.byte	0x14
 770 0406 00       		.byte	0
 771 0407 06       		.uleb128 0x6
 772 0408 04       		.byte	0x4
 773 0409 B4030000 		.4byte	0x3b4
 774 040d 0B       		.uleb128 0xb
 775 040e A9030000 		.4byte	0x3a9
 776 0412 1D040000 		.4byte	0x41d
 777 0416 0C       		.uleb128 0xc
 778 0417 9B000000 		.4byte	0x9b
 779 041b 00       		.byte	0
 780 041c 00       		.byte	0
 781 041d 12       		.uleb128 0x12
 782 041e 14020000 		.4byte	.LASF70
 783 0422 24       		.byte	0x24
 784 0423 0A       		.byte	0xa
 785 0424 37       		.byte	0x37
 786 0425 96040000 		.4byte	0x496
 787 0429 0E       		.uleb128 0xe
 788 042a 30020000 		.4byte	.LASF71
 789 042e 0A       		.byte	0xa
 790 042f 39       		.byte	0x39
 791 0430 94000000 		.4byte	0x94
 792 0434 00       		.byte	0
 793 0435 0E       		.uleb128 0xe
 794 0436 0B0E0000 		.4byte	.LASF72
 795 043a 0A       		.byte	0xa
 796 043b 3A       		.byte	0x3a
ARM GAS  /var/folders/qd/4mxf5pkd0zdf0b9dd1hp39180000gn/T//ccmJvynR.s 			page 15


 797 043c 94000000 		.4byte	0x94
 798 0440 04       		.byte	0x4
 799 0441 0E       		.uleb128 0xe
 800 0442 7E0D0000 		.4byte	.LASF73
 801 0446 0A       		.byte	0xa
 802 0447 3B       		.byte	0x3b
 803 0448 94000000 		.4byte	0x94
 804 044c 08       		.byte	0x8
 805 044d 0E       		.uleb128 0xe
 806 044e 47090000 		.4byte	.LASF74
 807 0452 0A       		.byte	0xa
 808 0453 3C       		.byte	0x3c
 809 0454 94000000 		.4byte	0x94
 810 0458 0C       		.byte	0xc
 811 0459 0E       		.uleb128 0xe
 812 045a E5030000 		.4byte	.LASF75
 813 045e 0A       		.byte	0xa
 814 045f 3D       		.byte	0x3d
 815 0460 94000000 		.4byte	0x94
 816 0464 10       		.byte	0x10
 817 0465 0E       		.uleb128 0xe
 818 0466 880C0000 		.4byte	.LASF76
 819 046a 0A       		.byte	0xa
 820 046b 3E       		.byte	0x3e
 821 046c 94000000 		.4byte	0x94
 822 0470 14       		.byte	0x14
 823 0471 0E       		.uleb128 0xe
 824 0472 F8090000 		.4byte	.LASF77
 825 0476 0A       		.byte	0xa
 826 0477 3F       		.byte	0x3f
 827 0478 94000000 		.4byte	0x94
 828 047c 18       		.byte	0x18
 829 047d 0E       		.uleb128 0xe
 830 047e 200A0000 		.4byte	.LASF78
 831 0482 0A       		.byte	0xa
 832 0483 40       		.byte	0x40
 833 0484 94000000 		.4byte	0x94
 834 0488 1C       		.byte	0x1c
 835 0489 0E       		.uleb128 0xe
 836 048a DE0D0000 		.4byte	.LASF79
 837 048e 0A       		.byte	0xa
 838 048f 41       		.byte	0x41
 839 0490 94000000 		.4byte	0x94
 840 0494 20       		.byte	0x20
 841 0495 00       		.byte	0
 842 0496 15       		.uleb128 0x15
 843 0497 3D030000 		.4byte	.LASF80
 844 049b 0801     		.2byte	0x108
 845 049d 0A       		.byte	0xa
 846 049e 4A       		.byte	0x4a
 847 049f D6040000 		.4byte	0x4d6
 848 04a3 0E       		.uleb128 0xe
 849 04a4 D60D0000 		.4byte	.LASF81
 850 04a8 0A       		.byte	0xa
 851 04a9 4B       		.byte	0x4b
 852 04aa D6040000 		.4byte	0x4d6
 853 04ae 00       		.byte	0
ARM GAS  /var/folders/qd/4mxf5pkd0zdf0b9dd1hp39180000gn/T//ccmJvynR.s 			page 16


 854 04af 0E       		.uleb128 0xe
 855 04b0 DA0A0000 		.4byte	.LASF82
 856 04b4 0A       		.byte	0xa
 857 04b5 4C       		.byte	0x4c
 858 04b6 D6040000 		.4byte	0x4d6
 859 04ba 80       		.byte	0x80
 860 04bb 16       		.uleb128 0x16
 861 04bc 680C0000 		.4byte	.LASF83
 862 04c0 0A       		.byte	0xa
 863 04c1 4E       		.byte	0x4e
 864 04c2 A9030000 		.4byte	0x3a9
 865 04c6 0001     		.2byte	0x100
 866 04c8 16       		.uleb128 0x16
 867 04c9 C00C0000 		.4byte	.LASF84
 868 04cd 0A       		.byte	0xa
 869 04ce 51       		.byte	0x51
 870 04cf A9030000 		.4byte	0x3a9
 871 04d3 0401     		.2byte	0x104
 872 04d5 00       		.byte	0
 873 04d6 0B       		.uleb128 0xb
 874 04d7 99010000 		.4byte	0x199
 875 04db E6040000 		.4byte	0x4e6
 876 04df 0C       		.uleb128 0xc
 877 04e0 9B000000 		.4byte	0x9b
 878 04e4 1F       		.byte	0x1f
 879 04e5 00       		.byte	0
 880 04e6 15       		.uleb128 0x15
 881 04e7 D5090000 		.4byte	.LASF85
 882 04eb 9001     		.2byte	0x190
 883 04ed 0A       		.byte	0xa
 884 04ee 5D       		.byte	0x5d
 885 04ef 24050000 		.4byte	0x524
 886 04f3 0E       		.uleb128 0xe
 887 04f4 9B0B0000 		.4byte	.LASF66
 888 04f8 0A       		.byte	0xa
 889 04f9 5E       		.byte	0x5e
 890 04fa 24050000 		.4byte	0x524
 891 04fe 00       		.byte	0
 892 04ff 0E       		.uleb128 0xe
 893 0500 B40C0000 		.4byte	.LASF86
 894 0504 0A       		.byte	0xa
 895 0505 5F       		.byte	0x5f
 896 0506 94000000 		.4byte	0x94
 897 050a 04       		.byte	0x4
 898 050b 0E       		.uleb128 0xe
 899 050c D7040000 		.4byte	.LASF87
 900 0510 0A       		.byte	0xa
 901 0511 61       		.byte	0x61
 902 0512 2A050000 		.4byte	0x52a
 903 0516 08       		.byte	0x8
 904 0517 0E       		.uleb128 0xe
 905 0518 3D030000 		.4byte	.LASF80
 906 051c 0A       		.byte	0xa
 907 051d 62       		.byte	0x62
 908 051e 96040000 		.4byte	0x496
 909 0522 88       		.byte	0x88
 910 0523 00       		.byte	0
ARM GAS  /var/folders/qd/4mxf5pkd0zdf0b9dd1hp39180000gn/T//ccmJvynR.s 			page 17


 911 0524 06       		.uleb128 0x6
 912 0525 04       		.byte	0x4
 913 0526 E6040000 		.4byte	0x4e6
 914 052a 0B       		.uleb128 0xb
 915 052b 3A050000 		.4byte	0x53a
 916 052f 3A050000 		.4byte	0x53a
 917 0533 0C       		.uleb128 0xc
 918 0534 9B000000 		.4byte	0x9b
 919 0538 1F       		.byte	0x1f
 920 0539 00       		.byte	0
 921 053a 06       		.uleb128 0x6
 922 053b 04       		.byte	0x4
 923 053c 40050000 		.4byte	0x540
 924 0540 17       		.uleb128 0x17
 925 0541 12       		.uleb128 0x12
 926 0542 B90C0000 		.4byte	.LASF88
 927 0546 08       		.byte	0x8
 928 0547 0A       		.byte	0xa
 929 0548 75       		.byte	0x75
 930 0549 66050000 		.4byte	0x566
 931 054d 0E       		.uleb128 0xe
 932 054e 330B0000 		.4byte	.LASF89
 933 0552 0A       		.byte	0xa
 934 0553 76       		.byte	0x76
 935 0554 66050000 		.4byte	0x566
 936 0558 00       		.byte	0
 937 0559 0E       		.uleb128 0xe
 938 055a 94030000 		.4byte	.LASF90
 939 055e 0A       		.byte	0xa
 940 055f 77       		.byte	0x77
 941 0560 94000000 		.4byte	0x94
 942 0564 04       		.byte	0x4
 943 0565 00       		.byte	0
 944 0566 06       		.uleb128 0x6
 945 0567 04       		.byte	0x4
 946 0568 37000000 		.4byte	0x37
 947 056c 12       		.uleb128 0x12
 948 056d 9E060000 		.4byte	.LASF91
 949 0571 68       		.byte	0x68
 950 0572 0A       		.byte	0xa
 951 0573 B5       		.byte	0xb5
 952 0574 96060000 		.4byte	0x696
 953 0578 14       		.uleb128 0x14
 954 0579 5F7000   		.ascii	"_p\000"
 955 057c 0A       		.byte	0xa
 956 057d B6       		.byte	0xb6
 957 057e 66050000 		.4byte	0x566
 958 0582 00       		.byte	0
 959 0583 14       		.uleb128 0x14
 960 0584 5F7200   		.ascii	"_r\000"
 961 0587 0A       		.byte	0xa
 962 0588 B7       		.byte	0xb7
 963 0589 94000000 		.4byte	0x94
 964 058d 04       		.byte	0x4
 965 058e 14       		.uleb128 0x14
 966 058f 5F7700   		.ascii	"_w\000"
 967 0592 0A       		.byte	0xa
ARM GAS  /var/folders/qd/4mxf5pkd0zdf0b9dd1hp39180000gn/T//ccmJvynR.s 			page 18


 968 0593 B8       		.byte	0xb8
 969 0594 94000000 		.4byte	0x94
 970 0598 08       		.byte	0x8
 971 0599 0E       		.uleb128 0xe
 972 059a B4090000 		.4byte	.LASF92
 973 059e 0A       		.byte	0xa
 974 059f B9       		.byte	0xb9
 975 05a0 3E000000 		.4byte	0x3e
 976 05a4 0C       		.byte	0xc
 977 05a5 0E       		.uleb128 0xe
 978 05a6 29030000 		.4byte	.LASF93
 979 05aa 0A       		.byte	0xa
 980 05ab BA       		.byte	0xba
 981 05ac 3E000000 		.4byte	0x3e
 982 05b0 0E       		.byte	0xe
 983 05b1 14       		.uleb128 0x14
 984 05b2 5F626600 		.ascii	"_bf\000"
 985 05b6 0A       		.byte	0xa
 986 05b7 BB       		.byte	0xbb
 987 05b8 41050000 		.4byte	0x541
 988 05bc 10       		.byte	0x10
 989 05bd 0E       		.uleb128 0xe
 990 05be 9F0C0000 		.4byte	.LASF94
 991 05c2 0A       		.byte	0xa
 992 05c3 BC       		.byte	0xbc
 993 05c4 94000000 		.4byte	0x94
 994 05c8 18       		.byte	0x18
 995 05c9 0E       		.uleb128 0xe
 996 05ca AF050000 		.4byte	.LASF95
 997 05ce 0A       		.byte	0xa
 998 05cf C3       		.byte	0xc3
 999 05d0 99010000 		.4byte	0x199
 1000 05d4 1C       		.byte	0x1c
 1001 05d5 0E       		.uleb128 0xe
 1002 05d6 51000000 		.4byte	.LASF96
 1003 05da 0A       		.byte	0xa
 1004 05db C5       		.byte	0xc5
 1005 05dc F1070000 		.4byte	0x7f1
 1006 05e0 20       		.byte	0x20
 1007 05e1 0E       		.uleb128 0xe
 1008 05e2 B7010000 		.4byte	.LASF97
 1009 05e6 0A       		.byte	0xa
 1010 05e7 C7       		.byte	0xc7
 1011 05e8 20080000 		.4byte	0x820
 1012 05ec 24       		.byte	0x24
 1013 05ed 0E       		.uleb128 0xe
 1014 05ee 510A0000 		.4byte	.LASF98
 1015 05f2 0A       		.byte	0xa
 1016 05f3 CA       		.byte	0xca
 1017 05f4 44080000 		.4byte	0x844
 1018 05f8 28       		.byte	0x28
 1019 05f9 0E       		.uleb128 0xe
 1020 05fa DC040000 		.4byte	.LASF99
 1021 05fe 0A       		.byte	0xa
 1022 05ff CB       		.byte	0xcb
 1023 0600 5E080000 		.4byte	0x85e
 1024 0604 2C       		.byte	0x2c
ARM GAS  /var/folders/qd/4mxf5pkd0zdf0b9dd1hp39180000gn/T//ccmJvynR.s 			page 19


 1025 0605 14       		.uleb128 0x14
 1026 0606 5F756200 		.ascii	"_ub\000"
 1027 060a 0A       		.byte	0xa
 1028 060b CE       		.byte	0xce
 1029 060c 41050000 		.4byte	0x541
 1030 0610 30       		.byte	0x30
 1031 0611 14       		.uleb128 0x14
 1032 0612 5F757000 		.ascii	"_up\000"
 1033 0616 0A       		.byte	0xa
 1034 0617 CF       		.byte	0xcf
 1035 0618 66050000 		.4byte	0x566
 1036 061c 38       		.byte	0x38
 1037 061d 14       		.uleb128 0x14
 1038 061e 5F757200 		.ascii	"_ur\000"
 1039 0622 0A       		.byte	0xa
 1040 0623 D0       		.byte	0xd0
 1041 0624 94000000 		.4byte	0x94
 1042 0628 3C       		.byte	0x3c
 1043 0629 0E       		.uleb128 0xe
 1044 062a 84090000 		.4byte	.LASF100
 1045 062e 0A       		.byte	0xa
 1046 062f D3       		.byte	0xd3
 1047 0630 64080000 		.4byte	0x864
 1048 0634 40       		.byte	0x40
 1049 0635 0E       		.uleb128 0xe
 1050 0636 2A020000 		.4byte	.LASF101
 1051 063a 0A       		.byte	0xa
 1052 063b D4       		.byte	0xd4
 1053 063c 74080000 		.4byte	0x874
 1054 0640 43       		.byte	0x43
 1055 0641 14       		.uleb128 0x14
 1056 0642 5F6C6200 		.ascii	"_lb\000"
 1057 0646 0A       		.byte	0xa
 1058 0647 D7       		.byte	0xd7
 1059 0648 41050000 		.4byte	0x541
 1060 064c 44       		.byte	0x44
 1061 064d 0E       		.uleb128 0xe
 1062 064e 2A0B0000 		.4byte	.LASF102
 1063 0652 0A       		.byte	0xa
 1064 0653 DA       		.byte	0xda
 1065 0654 94000000 		.4byte	0x94
 1066 0658 4C       		.byte	0x4c
 1067 0659 0E       		.uleb128 0xe
 1068 065a FF050000 		.4byte	.LASF103
 1069 065e 0A       		.byte	0xa
 1070 065f DB       		.byte	0xdb
 1071 0660 11010000 		.4byte	0x111
 1072 0664 50       		.byte	0x50
 1073 0665 0E       		.uleb128 0xe
 1074 0666 A10B0000 		.4byte	.LASF104
 1075 066a 0A       		.byte	0xa
 1076 066b DE       		.byte	0xde
 1077 066c B4060000 		.4byte	0x6b4
 1078 0670 54       		.byte	0x54
 1079 0671 0E       		.uleb128 0xe
 1080 0672 A4020000 		.4byte	.LASF105
 1081 0676 0A       		.byte	0xa
ARM GAS  /var/folders/qd/4mxf5pkd0zdf0b9dd1hp39180000gn/T//ccmJvynR.s 			page 20


 1082 0677 E2       		.byte	0xe2
 1083 0678 8E010000 		.4byte	0x18e
 1084 067c 58       		.byte	0x58
 1085 067d 0E       		.uleb128 0xe
 1086 067e A0090000 		.4byte	.LASF106
 1087 0682 0A       		.byte	0xa
 1088 0683 E4       		.byte	0xe4
 1089 0684 83010000 		.4byte	0x183
 1090 0688 5C       		.byte	0x5c
 1091 0689 0E       		.uleb128 0xe
 1092 068a B1060000 		.4byte	.LASF107
 1093 068e 0A       		.byte	0xa
 1094 068f E5       		.byte	0xe5
 1095 0690 94000000 		.4byte	0x94
 1096 0694 64       		.byte	0x64
 1097 0695 00       		.byte	0
 1098 0696 18       		.uleb128 0x18
 1099 0697 94000000 		.4byte	0x94
 1100 069b B4060000 		.4byte	0x6b4
 1101 069f 19       		.uleb128 0x19
 1102 06a0 B4060000 		.4byte	0x6b4
 1103 06a4 19       		.uleb128 0x19
 1104 06a5 99010000 		.4byte	0x199
 1105 06a9 19       		.uleb128 0x19
 1106 06aa 9B010000 		.4byte	0x19b
 1107 06ae 19       		.uleb128 0x19
 1108 06af 94000000 		.4byte	0x94
 1109 06b3 00       		.byte	0
 1110 06b4 06       		.uleb128 0x6
 1111 06b5 04       		.byte	0x4
 1112 06b6 BF060000 		.4byte	0x6bf
 1113 06ba 10       		.uleb128 0x10
 1114 06bb B4060000 		.4byte	0x6b4
 1115 06bf 1A       		.uleb128 0x1a
 1116 06c0 8F040000 		.4byte	.LASF108
 1117 06c4 2804     		.2byte	0x428
 1118 06c6 0A       		.byte	0xa
 1119 06c7 3902     		.2byte	0x239
 1120 06c9 F1070000 		.4byte	0x7f1
 1121 06cd 1B       		.uleb128 0x1b
 1122 06ce F6060000 		.4byte	.LASF109
 1123 06d2 0A       		.byte	0xa
 1124 06d3 3B02     		.2byte	0x23b
 1125 06d5 94000000 		.4byte	0x94
 1126 06d9 00       		.byte	0
 1127 06da 1B       		.uleb128 0x1b
 1128 06db 27050000 		.4byte	.LASF110
 1129 06df 0A       		.byte	0xa
 1130 06e0 4002     		.2byte	0x240
 1131 06e2 CB080000 		.4byte	0x8cb
 1132 06e6 04       		.byte	0x4
 1133 06e7 1B       		.uleb128 0x1b
 1134 06e8 120B0000 		.4byte	.LASF111
 1135 06ec 0A       		.byte	0xa
 1136 06ed 4002     		.2byte	0x240
 1137 06ef CB080000 		.4byte	0x8cb
 1138 06f3 08       		.byte	0x8
ARM GAS  /var/folders/qd/4mxf5pkd0zdf0b9dd1hp39180000gn/T//ccmJvynR.s 			page 21


 1139 06f4 1B       		.uleb128 0x1b
 1140 06f5 8A090000 		.4byte	.LASF112
 1141 06f9 0A       		.byte	0xa
 1142 06fa 4002     		.2byte	0x240
 1143 06fc CB080000 		.4byte	0x8cb
 1144 0700 0C       		.byte	0xc
 1145 0701 1B       		.uleb128 0x1b
 1146 0702 AF0C0000 		.4byte	.LASF113
 1147 0706 0A       		.byte	0xa
 1148 0707 4202     		.2byte	0x242
 1149 0709 94000000 		.4byte	0x94
 1150 070d 10       		.byte	0x10
 1151 070e 1B       		.uleb128 0x1b
 1152 070f EE070000 		.4byte	.LASF114
 1153 0713 0A       		.byte	0xa
 1154 0714 4302     		.2byte	0x243
 1155 0716 AD0A0000 		.4byte	0xaad
 1156 071a 14       		.byte	0x14
 1157 071b 1B       		.uleb128 0x1b
 1158 071c 76040000 		.4byte	.LASF115
 1159 0720 0A       		.byte	0xa
 1160 0721 4602     		.2byte	0x246
 1161 0723 94000000 		.4byte	0x94
 1162 0727 30       		.byte	0x30
 1163 0728 1B       		.uleb128 0x1b
 1164 0729 200D0000 		.4byte	.LASF116
 1165 072d 0A       		.byte	0xa
 1166 072e 4702     		.2byte	0x247
 1167 0730 DE000000 		.4byte	0xde
 1168 0734 34       		.byte	0x34
 1169 0735 1B       		.uleb128 0x1b
 1170 0736 A6060000 		.4byte	.LASF117
 1171 073a 0A       		.byte	0xa
 1172 073b 4902     		.2byte	0x249
 1173 073d 94000000 		.4byte	0x94
 1174 0741 38       		.byte	0x38
 1175 0742 1B       		.uleb128 0x1b
 1176 0743 B5070000 		.4byte	.LASF118
 1177 0747 0A       		.byte	0xa
 1178 0748 4B02     		.2byte	0x24b
 1179 074a C80A0000 		.4byte	0xac8
 1180 074e 3C       		.byte	0x3c
 1181 074f 1B       		.uleb128 0x1b
 1182 0750 490D0000 		.4byte	.LASF119
 1183 0754 0A       		.byte	0xa
 1184 0755 4E02     		.2byte	0x24e
 1185 0757 07040000 		.4byte	0x407
 1186 075b 40       		.byte	0x40
 1187 075c 1B       		.uleb128 0x1b
 1188 075d 7D030000 		.4byte	.LASF120
 1189 0761 0A       		.byte	0xa
 1190 0762 4F02     		.2byte	0x24f
 1191 0764 94000000 		.4byte	0x94
 1192 0768 44       		.byte	0x44
 1193 0769 1B       		.uleb128 0x1b
 1194 076a 6A060000 		.4byte	.LASF121
 1195 076e 0A       		.byte	0xa
ARM GAS  /var/folders/qd/4mxf5pkd0zdf0b9dd1hp39180000gn/T//ccmJvynR.s 			page 22


 1196 076f 5002     		.2byte	0x250
 1197 0771 07040000 		.4byte	0x407
 1198 0775 48       		.byte	0x48
 1199 0776 1B       		.uleb128 0x1b
 1200 0777 92080000 		.4byte	.LASF122
 1201 077b 0A       		.byte	0xa
 1202 077c 5102     		.2byte	0x251
 1203 077e CE0A0000 		.4byte	0xace
 1204 0782 4C       		.byte	0x4c
 1205 0783 1B       		.uleb128 0x1b
 1206 0784 D9010000 		.4byte	.LASF123
 1207 0788 0A       		.byte	0xa
 1208 0789 5402     		.2byte	0x254
 1209 078b 94000000 		.4byte	0x94
 1210 078f 50       		.byte	0x50
 1211 0790 1B       		.uleb128 0x1b
 1212 0791 12060000 		.4byte	.LASF124
 1213 0795 0A       		.byte	0xa
 1214 0796 5502     		.2byte	0x255
 1215 0798 9B010000 		.4byte	0x19b
 1216 079c 54       		.byte	0x54
 1217 079d 1B       		.uleb128 0x1b
 1218 079e 60090000 		.4byte	.LASF125
 1219 07a2 0A       		.byte	0xa
 1220 07a3 7802     		.2byte	0x278
 1221 07a5 8B0A0000 		.4byte	0xa8b
 1222 07a9 58       		.byte	0x58
 1223 07aa 1C       		.uleb128 0x1c
 1224 07ab D5090000 		.4byte	.LASF85
 1225 07af 0A       		.byte	0xa
 1226 07b0 7C02     		.2byte	0x27c
 1227 07b2 24050000 		.4byte	0x524
 1228 07b6 4801     		.2byte	0x148
 1229 07b8 1C       		.uleb128 0x1c
 1230 07b9 CB070000 		.4byte	.LASF126
 1231 07bd 0A       		.byte	0xa
 1232 07be 7D02     		.2byte	0x27d
 1233 07c0 E6040000 		.4byte	0x4e6
 1234 07c4 4C01     		.2byte	0x14c
 1235 07c6 1C       		.uleb128 0x1c
 1236 07c7 F5050000 		.4byte	.LASF127
 1237 07cb 0A       		.byte	0xa
 1238 07cc 8102     		.2byte	0x281
 1239 07ce DF0A0000 		.4byte	0xadf
 1240 07d2 DC02     		.2byte	0x2dc
 1241 07d4 1C       		.uleb128 0x1c
 1242 07d5 62080000 		.4byte	.LASF128
 1243 07d9 0A       		.byte	0xa
 1244 07da 8602     		.2byte	0x286
 1245 07dc 90080000 		.4byte	0x890
 1246 07e0 E002     		.2byte	0x2e0
 1247 07e2 1C       		.uleb128 0x1c
 1248 07e3 38000000 		.4byte	.LASF129
 1249 07e7 0A       		.byte	0xa
 1250 07e8 8802     		.2byte	0x288
 1251 07ea EB0A0000 		.4byte	0xaeb
 1252 07ee EC02     		.2byte	0x2ec
ARM GAS  /var/folders/qd/4mxf5pkd0zdf0b9dd1hp39180000gn/T//ccmJvynR.s 			page 23


 1253 07f0 00       		.byte	0
 1254 07f1 06       		.uleb128 0x6
 1255 07f2 04       		.byte	0x4
 1256 07f3 96060000 		.4byte	0x696
 1257 07f7 18       		.uleb128 0x18
 1258 07f8 94000000 		.4byte	0x94
 1259 07fc 15080000 		.4byte	0x815
 1260 0800 19       		.uleb128 0x19
 1261 0801 B4060000 		.4byte	0x6b4
 1262 0805 19       		.uleb128 0x19
 1263 0806 99010000 		.4byte	0x199
 1264 080a 19       		.uleb128 0x19
 1265 080b 15080000 		.4byte	0x815
 1266 080f 19       		.uleb128 0x19
 1267 0810 94000000 		.4byte	0x94
 1268 0814 00       		.byte	0
 1269 0815 06       		.uleb128 0x6
 1270 0816 04       		.byte	0x4
 1271 0817 A8010000 		.4byte	0x1a8
 1272 081b 05       		.uleb128 0x5
 1273 081c 15080000 		.4byte	0x815
 1274 0820 06       		.uleb128 0x6
 1275 0821 04       		.byte	0x4
 1276 0822 F7070000 		.4byte	0x7f7
 1277 0826 18       		.uleb128 0x18
 1278 0827 1C010000 		.4byte	0x11c
 1279 082b 44080000 		.4byte	0x844
 1280 082f 19       		.uleb128 0x19
 1281 0830 B4060000 		.4byte	0x6b4
 1282 0834 19       		.uleb128 0x19
 1283 0835 99010000 		.4byte	0x199
 1284 0839 19       		.uleb128 0x19
 1285 083a 1C010000 		.4byte	0x11c
 1286 083e 19       		.uleb128 0x19
 1287 083f 94000000 		.4byte	0x94
 1288 0843 00       		.byte	0
 1289 0844 06       		.uleb128 0x6
 1290 0845 04       		.byte	0x4
 1291 0846 26080000 		.4byte	0x826
 1292 084a 18       		.uleb128 0x18
 1293 084b 94000000 		.4byte	0x94
 1294 084f 5E080000 		.4byte	0x85e
 1295 0853 19       		.uleb128 0x19
 1296 0854 B4060000 		.4byte	0x6b4
 1297 0858 19       		.uleb128 0x19
 1298 0859 99010000 		.4byte	0x199
 1299 085d 00       		.byte	0
 1300 085e 06       		.uleb128 0x6
 1301 085f 04       		.byte	0x4
 1302 0860 4A080000 		.4byte	0x84a
 1303 0864 0B       		.uleb128 0xb
 1304 0865 37000000 		.4byte	0x37
 1305 0869 74080000 		.4byte	0x874
 1306 086d 0C       		.uleb128 0xc
 1307 086e 9B000000 		.4byte	0x9b
 1308 0872 02       		.byte	0x2
 1309 0873 00       		.byte	0
ARM GAS  /var/folders/qd/4mxf5pkd0zdf0b9dd1hp39180000gn/T//ccmJvynR.s 			page 24


 1310 0874 0B       		.uleb128 0xb
 1311 0875 37000000 		.4byte	0x37
 1312 0879 84080000 		.4byte	0x884
 1313 087d 0C       		.uleb128 0xc
 1314 087e 9B000000 		.4byte	0x9b
 1315 0882 00       		.byte	0
 1316 0883 00       		.byte	0
 1317 0884 08       		.uleb128 0x8
 1318 0885 700B0000 		.4byte	.LASF130
 1319 0889 0A       		.byte	0xa
 1320 088a 1F01     		.2byte	0x11f
 1321 088c 6C050000 		.4byte	0x56c
 1322 0890 1D       		.uleb128 0x1d
 1323 0891 A2080000 		.4byte	.LASF131
 1324 0895 0C       		.byte	0xc
 1325 0896 0A       		.byte	0xa
 1326 0897 2301     		.2byte	0x123
 1327 0899 C5080000 		.4byte	0x8c5
 1328 089d 1B       		.uleb128 0x1b
 1329 089e 9B0B0000 		.4byte	.LASF66
 1330 08a2 0A       		.byte	0xa
 1331 08a3 2501     		.2byte	0x125
 1332 08a5 C5080000 		.4byte	0x8c5
 1333 08a9 00       		.byte	0
 1334 08aa 1B       		.uleb128 0x1b
 1335 08ab 3E080000 		.4byte	.LASF132
 1336 08af 0A       		.byte	0xa
 1337 08b0 2601     		.2byte	0x126
 1338 08b2 94000000 		.4byte	0x94
 1339 08b6 04       		.byte	0x4
 1340 08b7 1B       		.uleb128 0x1b
 1341 08b8 9C080000 		.4byte	.LASF133
 1342 08bc 0A       		.byte	0xa
 1343 08bd 2701     		.2byte	0x127
 1344 08bf CB080000 		.4byte	0x8cb
 1345 08c3 08       		.byte	0x8
 1346 08c4 00       		.byte	0
 1347 08c5 06       		.uleb128 0x6
 1348 08c6 04       		.byte	0x4
 1349 08c7 90080000 		.4byte	0x890
 1350 08cb 06       		.uleb128 0x6
 1351 08cc 04       		.byte	0x4
 1352 08cd 84080000 		.4byte	0x884
 1353 08d1 1D       		.uleb128 0x1d
 1354 08d2 FD0A0000 		.4byte	.LASF134
 1355 08d6 0E       		.byte	0xe
 1356 08d7 0A       		.byte	0xa
 1357 08d8 3F01     		.2byte	0x13f
 1358 08da 06090000 		.4byte	0x906
 1359 08de 1B       		.uleb128 0x1b
 1360 08df 4B0A0000 		.4byte	.LASF135
 1361 08e3 0A       		.byte	0xa
 1362 08e4 4001     		.2byte	0x140
 1363 08e6 06090000 		.4byte	0x906
 1364 08ea 00       		.byte	0
 1365 08eb 1B       		.uleb128 0x1b
 1366 08ec BE020000 		.4byte	.LASF136
ARM GAS  /var/folders/qd/4mxf5pkd0zdf0b9dd1hp39180000gn/T//ccmJvynR.s 			page 25


 1367 08f0 0A       		.byte	0xa
 1368 08f1 4101     		.2byte	0x141
 1369 08f3 06090000 		.4byte	0x906
 1370 08f7 06       		.byte	0x6
 1371 08f8 1B       		.uleb128 0x1b
 1372 08f9 660D0000 		.4byte	.LASF137
 1373 08fd 0A       		.byte	0xa
 1374 08fe 4201     		.2byte	0x142
 1375 0900 50000000 		.4byte	0x50
 1376 0904 0C       		.byte	0xc
 1377 0905 00       		.byte	0
 1378 0906 0B       		.uleb128 0xb
 1379 0907 50000000 		.4byte	0x50
 1380 090b 16090000 		.4byte	0x916
 1381 090f 0C       		.uleb128 0xc
 1382 0910 9B000000 		.4byte	0x9b
 1383 0914 02       		.byte	0x2
 1384 0915 00       		.byte	0
 1385 0916 1E       		.uleb128 0x1e
 1386 0917 D0       		.byte	0xd0
 1387 0918 0A       		.byte	0xa
 1388 0919 5902     		.2byte	0x259
 1389 091b 170A0000 		.4byte	0xa17
 1390 091f 1B       		.uleb128 0x1b
 1391 0920 F3030000 		.4byte	.LASF138
 1392 0924 0A       		.byte	0xa
 1393 0925 5B02     		.2byte	0x25b
 1394 0927 9B000000 		.4byte	0x9b
 1395 092b 00       		.byte	0
 1396 092c 1B       		.uleb128 0x1b
 1397 092d 400B0000 		.4byte	.LASF139
 1398 0931 0A       		.byte	0xa
 1399 0932 5C02     		.2byte	0x25c
 1400 0934 9B010000 		.4byte	0x19b
 1401 0938 04       		.byte	0x4
 1402 0939 1B       		.uleb128 0x1b
 1403 093a CC010000 		.4byte	.LASF140
 1404 093e 0A       		.byte	0xa
 1405 093f 5D02     		.2byte	0x25d
 1406 0941 170A0000 		.4byte	0xa17
 1407 0945 08       		.byte	0x8
 1408 0946 1B       		.uleb128 0x1b
 1409 0947 A1030000 		.4byte	.LASF141
 1410 094b 0A       		.byte	0xa
 1411 094c 5E02     		.2byte	0x25e
 1412 094e 1D040000 		.4byte	0x41d
 1413 0952 24       		.byte	0x24
 1414 0953 1B       		.uleb128 0x1b
 1415 0954 7B080000 		.4byte	.LASF142
 1416 0958 0A       		.byte	0xa
 1417 0959 5F02     		.2byte	0x25f
 1418 095b 94000000 		.4byte	0x94
 1419 095f 48       		.byte	0x48
 1420 0960 1B       		.uleb128 0x1b
 1421 0961 A9090000 		.4byte	.LASF143
 1422 0965 0A       		.byte	0xa
 1423 0966 6002     		.2byte	0x260
ARM GAS  /var/folders/qd/4mxf5pkd0zdf0b9dd1hp39180000gn/T//ccmJvynR.s 			page 26


 1424 0968 8D000000 		.4byte	0x8d
 1425 096c 50       		.byte	0x50
 1426 096d 1B       		.uleb128 0x1b
 1427 096e 8F0B0000 		.4byte	.LASF144
 1428 0972 0A       		.byte	0xa
 1429 0973 6102     		.2byte	0x261
 1430 0975 D1080000 		.4byte	0x8d1
 1431 0979 58       		.byte	0x58
 1432 097a 1B       		.uleb128 0x1b
 1433 097b 3F0C0000 		.4byte	.LASF145
 1434 097f 0A       		.byte	0xa
 1435 0980 6202     		.2byte	0x262
 1436 0982 83010000 		.4byte	0x183
 1437 0986 68       		.byte	0x68
 1438 0987 1B       		.uleb128 0x1b
 1439 0988 900A0000 		.4byte	.LASF146
 1440 098c 0A       		.byte	0xa
 1441 098d 6302     		.2byte	0x263
 1442 098f 83010000 		.4byte	0x183
 1443 0993 70       		.byte	0x70
 1444 0994 1B       		.uleb128 0x1b
 1445 0995 92090000 		.4byte	.LASF147
 1446 0999 0A       		.byte	0xa
 1447 099a 6402     		.2byte	0x264
 1448 099c 83010000 		.4byte	0x183
 1449 09a0 78       		.byte	0x78
 1450 09a1 1B       		.uleb128 0x1b
 1451 09a2 39020000 		.4byte	.LASF148
 1452 09a6 0A       		.byte	0xa
 1453 09a7 6502     		.2byte	0x265
 1454 09a9 270A0000 		.4byte	0xa27
 1455 09ad 80       		.byte	0x80
 1456 09ae 1B       		.uleb128 0x1b
 1457 09af 1A070000 		.4byte	.LASF149
 1458 09b3 0A       		.byte	0xa
 1459 09b4 6602     		.2byte	0x266
 1460 09b6 370A0000 		.4byte	0xa37
 1461 09ba 88       		.byte	0x88
 1462 09bb 1B       		.uleb128 0x1b
 1463 09bc 140E0000 		.4byte	.LASF150
 1464 09c0 0A       		.byte	0xa
 1465 09c1 6702     		.2byte	0x267
 1466 09c3 94000000 		.4byte	0x94
 1467 09c7 A0       		.byte	0xa0
 1468 09c8 1B       		.uleb128 0x1b
 1469 09c9 53030000 		.4byte	.LASF151
 1470 09cd 0A       		.byte	0xa
 1471 09ce 6802     		.2byte	0x268
 1472 09d0 83010000 		.4byte	0x183
 1473 09d4 A4       		.byte	0xa4
 1474 09d5 1B       		.uleb128 0x1b
 1475 09d6 4D0B0000 		.4byte	.LASF152
 1476 09da 0A       		.byte	0xa
 1477 09db 6902     		.2byte	0x269
 1478 09dd 83010000 		.4byte	0x183
 1479 09e1 AC       		.byte	0xac
 1480 09e2 1B       		.uleb128 0x1b
ARM GAS  /var/folders/qd/4mxf5pkd0zdf0b9dd1hp39180000gn/T//ccmJvynR.s 			page 27


 1481 09e3 A60D0000 		.4byte	.LASF153
 1482 09e7 0A       		.byte	0xa
 1483 09e8 6A02     		.2byte	0x26a
 1484 09ea 83010000 		.4byte	0x183
 1485 09ee B4       		.byte	0xb4
 1486 09ef 1B       		.uleb128 0x1b
 1487 09f0 31090000 		.4byte	.LASF154
 1488 09f4 0A       		.byte	0xa
 1489 09f5 6B02     		.2byte	0x26b
 1490 09f7 83010000 		.4byte	0x183
 1491 09fb BC       		.byte	0xbc
 1492 09fc 1B       		.uleb128 0x1b
 1493 09fd 19020000 		.4byte	.LASF155
 1494 0a01 0A       		.byte	0xa
 1495 0a02 6C02     		.2byte	0x26c
 1496 0a04 83010000 		.4byte	0x183
 1497 0a08 C4       		.byte	0xc4
 1498 0a09 1B       		.uleb128 0x1b
 1499 0a0a 15090000 		.4byte	.LASF156
 1500 0a0e 0A       		.byte	0xa
 1501 0a0f 6D02     		.2byte	0x26d
 1502 0a11 94000000 		.4byte	0x94
 1503 0a15 CC       		.byte	0xcc
 1504 0a16 00       		.byte	0
 1505 0a17 0B       		.uleb128 0xb
 1506 0a18 A1010000 		.4byte	0x1a1
 1507 0a1c 270A0000 		.4byte	0xa27
 1508 0a20 0C       		.uleb128 0xc
 1509 0a21 9B000000 		.4byte	0x9b
 1510 0a25 19       		.byte	0x19
 1511 0a26 00       		.byte	0
 1512 0a27 0B       		.uleb128 0xb
 1513 0a28 A1010000 		.4byte	0x1a1
 1514 0a2c 370A0000 		.4byte	0xa37
 1515 0a30 0C       		.uleb128 0xc
 1516 0a31 9B000000 		.4byte	0x9b
 1517 0a35 07       		.byte	0x7
 1518 0a36 00       		.byte	0
 1519 0a37 0B       		.uleb128 0xb
 1520 0a38 A1010000 		.4byte	0x1a1
 1521 0a3c 470A0000 		.4byte	0xa47
 1522 0a40 0C       		.uleb128 0xc
 1523 0a41 9B000000 		.4byte	0x9b
 1524 0a45 17       		.byte	0x17
 1525 0a46 00       		.byte	0
 1526 0a47 1E       		.uleb128 0x1e
 1527 0a48 F0       		.byte	0xf0
 1528 0a49 0A       		.byte	0xa
 1529 0a4a 7202     		.2byte	0x272
 1530 0a4c 6B0A0000 		.4byte	0xa6b
 1531 0a50 1B       		.uleb128 0x1b
 1532 0a51 E00C0000 		.4byte	.LASF157
 1533 0a55 0A       		.byte	0xa
 1534 0a56 7502     		.2byte	0x275
 1535 0a58 6B0A0000 		.4byte	0xa6b
 1536 0a5c 00       		.byte	0
 1537 0a5d 1B       		.uleb128 0x1b
ARM GAS  /var/folders/qd/4mxf5pkd0zdf0b9dd1hp39180000gn/T//ccmJvynR.s 			page 28


 1538 0a5e 6A080000 		.4byte	.LASF158
 1539 0a62 0A       		.byte	0xa
 1540 0a63 7602     		.2byte	0x276
 1541 0a65 7B0A0000 		.4byte	0xa7b
 1542 0a69 78       		.byte	0x78
 1543 0a6a 00       		.byte	0
 1544 0a6b 0B       		.uleb128 0xb
 1545 0a6c 66050000 		.4byte	0x566
 1546 0a70 7B0A0000 		.4byte	0xa7b
 1547 0a74 0C       		.uleb128 0xc
 1548 0a75 9B000000 		.4byte	0x9b
 1549 0a79 1D       		.byte	0x1d
 1550 0a7a 00       		.byte	0
 1551 0a7b 0B       		.uleb128 0xb
 1552 0a7c 9B000000 		.4byte	0x9b
 1553 0a80 8B0A0000 		.4byte	0xa8b
 1554 0a84 0C       		.uleb128 0xc
 1555 0a85 9B000000 		.4byte	0x9b
 1556 0a89 1D       		.byte	0x1d
 1557 0a8a 00       		.byte	0
 1558 0a8b 1F       		.uleb128 0x1f
 1559 0a8c F0       		.byte	0xf0
 1560 0a8d 0A       		.byte	0xa
 1561 0a8e 5702     		.2byte	0x257
 1562 0a90 AD0A0000 		.4byte	0xaad
 1563 0a94 20       		.uleb128 0x20
 1564 0a95 8F040000 		.4byte	.LASF108
 1565 0a99 0A       		.byte	0xa
 1566 0a9a 6E02     		.2byte	0x26e
 1567 0a9c 16090000 		.4byte	0x916
 1568 0aa0 20       		.uleb128 0x20
 1569 0aa1 0C020000 		.4byte	.LASF159
 1570 0aa5 0A       		.byte	0xa
 1571 0aa6 7702     		.2byte	0x277
 1572 0aa8 470A0000 		.4byte	0xa47
 1573 0aac 00       		.byte	0
 1574 0aad 0B       		.uleb128 0xb
 1575 0aae A1010000 		.4byte	0x1a1
 1576 0ab2 BD0A0000 		.4byte	0xabd
 1577 0ab6 0C       		.uleb128 0xc
 1578 0ab7 9B000000 		.4byte	0x9b
 1579 0abb 18       		.byte	0x18
 1580 0abc 00       		.byte	0
 1581 0abd 21       		.uleb128 0x21
 1582 0abe C80A0000 		.4byte	0xac8
 1583 0ac2 19       		.uleb128 0x19
 1584 0ac3 B4060000 		.4byte	0x6b4
 1585 0ac7 00       		.byte	0
 1586 0ac8 06       		.uleb128 0x6
 1587 0ac9 04       		.byte	0x4
 1588 0aca BD0A0000 		.4byte	0xabd
 1589 0ace 06       		.uleb128 0x6
 1590 0acf 04       		.byte	0x4
 1591 0ad0 07040000 		.4byte	0x407
 1592 0ad4 21       		.uleb128 0x21
 1593 0ad5 DF0A0000 		.4byte	0xadf
 1594 0ad9 19       		.uleb128 0x19
ARM GAS  /var/folders/qd/4mxf5pkd0zdf0b9dd1hp39180000gn/T//ccmJvynR.s 			page 29


 1595 0ada 94000000 		.4byte	0x94
 1596 0ade 00       		.byte	0
 1597 0adf 06       		.uleb128 0x6
 1598 0ae0 04       		.byte	0x4
 1599 0ae1 E50A0000 		.4byte	0xae5
 1600 0ae5 06       		.uleb128 0x6
 1601 0ae6 04       		.byte	0x4
 1602 0ae7 D40A0000 		.4byte	0xad4
 1603 0aeb 0B       		.uleb128 0xb
 1604 0aec 84080000 		.4byte	0x884
 1605 0af0 FB0A0000 		.4byte	0xafb
 1606 0af4 0C       		.uleb128 0xc
 1607 0af5 9B000000 		.4byte	0x9b
 1608 0af9 02       		.byte	0x2
 1609 0afa 00       		.byte	0
 1610 0afb 22       		.uleb128 0x22
 1611 0afc 71030000 		.4byte	.LASF160
 1612 0b00 0A       		.byte	0xa
 1613 0b01 0703     		.2byte	0x307
 1614 0b03 B4060000 		.4byte	0x6b4
 1615 0b07 22       		.uleb128 0x22
 1616 0b08 9E040000 		.4byte	.LASF161
 1617 0b0c 0A       		.byte	0xa
 1618 0b0d 0803     		.2byte	0x308
 1619 0b0f BA060000 		.4byte	0x6ba
 1620 0b13 03       		.uleb128 0x3
 1621 0b14 05090000 		.4byte	.LASF162
 1622 0b18 0B       		.byte	0xb
 1623 0b19 45       		.byte	0x45
 1624 0b1a C8000000 		.4byte	0xc8
 1625 0b1e 03       		.uleb128 0x3
 1626 0b1f B9030000 		.4byte	.LASF163
 1627 0b23 0B       		.byte	0xb
 1628 0b24 46       		.byte	0x46
 1629 0b25 D3000000 		.4byte	0xd3
 1630 0b29 03       		.uleb128 0x3
 1631 0b2a BB0B0000 		.4byte	.LASF164
 1632 0b2e 0B       		.byte	0xb
 1633 0b2f 48       		.byte	0x48
 1634 0b30 A2000000 		.4byte	0xa2
 1635 0b34 03       		.uleb128 0x3
 1636 0b35 B0030000 		.4byte	.LASF165
 1637 0b39 0B       		.byte	0xb
 1638 0b3a 49       		.byte	0x49
 1639 0b3b A2000000 		.4byte	0xa2
 1640 0b3f 03       		.uleb128 0x3
 1641 0b40 D80C0000 		.4byte	.LASF166
 1642 0b44 0B       		.byte	0xb
 1643 0b45 4A       		.byte	0x4a
 1644 0b46 A2000000 		.4byte	0xa2
 1645 0b4a 03       		.uleb128 0x3
 1646 0b4b 1A0B0000 		.4byte	.LASF167
 1647 0b4f 0B       		.byte	0xb
 1648 0b50 4B       		.byte	0x4b
 1649 0b51 A2000000 		.4byte	0xa2
 1650 0b55 03       		.uleb128 0x3
 1651 0b56 57000000 		.4byte	.LASF168
ARM GAS  /var/folders/qd/4mxf5pkd0zdf0b9dd1hp39180000gn/T//ccmJvynR.s 			page 30


 1652 0b5a 0B       		.byte	0xb
 1653 0b5b 4C       		.byte	0x4c
 1654 0b5c C8000000 		.4byte	0xc8
 1655 0b60 03       		.uleb128 0x3
 1656 0b61 E60A0000 		.4byte	.LASF169
 1657 0b65 0B       		.byte	0xb
 1658 0b66 4D       		.byte	0x4d
 1659 0b67 B8000000 		.4byte	0xb8
 1660 0b6b 03       		.uleb128 0x3
 1661 0b6c 29040000 		.4byte	.LASF170
 1662 0b70 0B       		.byte	0xb
 1663 0b71 4F       		.byte	0x4f
 1664 0b72 C8000000 		.4byte	0xc8
 1665 0b76 03       		.uleb128 0x3
 1666 0b77 8D050000 		.4byte	.LASF171
 1667 0b7b 0B       		.byte	0xb
 1668 0b7c 51       		.byte	0x51
 1669 0b7d B8000000 		.4byte	0xb8
 1670 0b81 03       		.uleb128 0x3
 1671 0b82 33070000 		.4byte	.LASF172
 1672 0b86 0B       		.byte	0xb
 1673 0b87 52       		.byte	0x52
 1674 0b88 C8000000 		.4byte	0xc8
 1675 0b8c 03       		.uleb128 0x3
 1676 0b8d 2E000000 		.4byte	.LASF173
 1677 0b91 0C       		.byte	0xc
 1678 0b92 33       		.byte	0x33
 1679 0b93 C8000000 		.4byte	0xc8
 1680 0b97 05       		.uleb128 0x5
 1681 0b98 8C0B0000 		.4byte	0xb8c
 1682 0b9c 03       		.uleb128 0x3
 1683 0b9d 0B0A0000 		.4byte	.LASF174
 1684 0ba1 0C       		.byte	0xc
 1685 0ba2 3F       		.byte	0x3f
 1686 0ba3 A70B0000 		.4byte	0xba7
 1687 0ba7 12       		.uleb128 0x12
 1688 0ba8 D6060000 		.4byte	.LASF175
 1689 0bac 68       		.byte	0x68
 1690 0bad 0D       		.byte	0xd
 1691 0bae C2       		.byte	0xc2
 1692 0baf C50C0000 		.4byte	0xcc5
 1693 0bb3 0E       		.uleb128 0xe
 1694 0bb4 6A030000 		.4byte	.LASF176
 1695 0bb8 0D       		.byte	0xd
 1696 0bb9 C3       		.byte	0xc3
 1697 0bba D00C0000 		.4byte	0xcd0
 1698 0bbe 00       		.byte	0
 1699 0bbf 0E       		.uleb128 0xe
 1700 0bc0 9A030000 		.4byte	.LASF177
 1701 0bc4 0D       		.byte	0xd
 1702 0bc5 C5       		.byte	0xc5
 1703 0bc6 D00C0000 		.4byte	0xcd0
 1704 0bca 04       		.byte	0x4
 1705 0bcb 0E       		.uleb128 0xe
 1706 0bcc F9040000 		.4byte	.LASF178
 1707 0bd0 0D       		.byte	0xd
 1708 0bd1 C7       		.byte	0xc7
ARM GAS  /var/folders/qd/4mxf5pkd0zdf0b9dd1hp39180000gn/T//ccmJvynR.s 			page 31


 1709 0bd2 550B0000 		.4byte	0xb55
 1710 0bd6 08       		.byte	0x8
 1711 0bd7 0E       		.uleb128 0xe
 1712 0bd8 4B000000 		.4byte	.LASF179
 1713 0bdc 0D       		.byte	0xd
 1714 0bdd C8       		.byte	0xc8
 1715 0bde 470F0000 		.4byte	0xf47
 1716 0be2 0C       		.byte	0xc
 1717 0be3 0E       		.uleb128 0xe
 1718 0be4 4B030000 		.4byte	.LASF180
 1719 0be8 0D       		.byte	0xd
 1720 0be9 CA       		.byte	0xca
 1721 0bea D00C0000 		.4byte	0xcd0
 1722 0bee 10       		.byte	0x10
 1723 0bef 0E       		.uleb128 0xe
 1724 0bf0 C90A0000 		.4byte	.LASF181
 1725 0bf4 0D       		.byte	0xd
 1726 0bf5 CB       		.byte	0xcb
 1727 0bf6 D00C0000 		.4byte	0xcd0
 1728 0bfa 14       		.byte	0x14
 1729 0bfb 0E       		.uleb128 0xe
 1730 0bfc F10D0000 		.4byte	.LASF182
 1731 0c00 0D       		.byte	0xd
 1732 0c01 D2       		.byte	0xd2
 1733 0c02 15080000 		.4byte	0x815
 1734 0c06 18       		.byte	0x18
 1735 0c07 0E       		.uleb128 0xe
 1736 0c08 B70D0000 		.4byte	.LASF183
 1737 0c0c 0D       		.byte	0xd
 1738 0c0d D8       		.byte	0xd8
 1739 0c0e BD120000 		.4byte	0x12bd
 1740 0c12 1C       		.byte	0x1c
 1741 0c13 0E       		.uleb128 0xe
 1742 0c14 380E0000 		.4byte	.LASF184
 1743 0c18 0D       		.byte	0xd
 1744 0c19 DD       		.byte	0xdd
 1745 0c1a 340B0000 		.4byte	0xb34
 1746 0c1e 20       		.byte	0x20
 1747 0c1f 0E       		.uleb128 0xe
 1748 0c20 01030000 		.4byte	.LASF185
 1749 0c24 0D       		.byte	0xd
 1750 0c25 E1       		.byte	0xe1
 1751 0c26 290B0000 		.4byte	0xb29
 1752 0c2a 21       		.byte	0x21
 1753 0c2b 0E       		.uleb128 0xe
 1754 0c2c 1E090000 		.4byte	.LASF186
 1755 0c30 0D       		.byte	0xd
 1756 0c31 E6       		.byte	0xe6
 1757 0c32 3F0B0000 		.4byte	0xb3f
 1758 0c36 22       		.byte	0x22
 1759 0c37 0E       		.uleb128 0xe
 1760 0c38 17040000 		.4byte	.LASF187
 1761 0c3c 0D       		.byte	0xd
 1762 0c3d EC       		.byte	0xec
 1763 0c3e 4A0B0000 		.4byte	0xb4a
 1764 0c42 23       		.byte	0x23
 1765 0c43 0E       		.uleb128 0xe
ARM GAS  /var/folders/qd/4mxf5pkd0zdf0b9dd1hp39180000gn/T//ccmJvynR.s 			page 32


 1766 0c44 DD090000 		.4byte	.LASF188
 1767 0c48 0D       		.byte	0xd
 1768 0c49 F3       		.byte	0xf3
 1769 0c4a 970B0000 		.4byte	0xb97
 1770 0c4e 24       		.byte	0x24
 1771 0c4f 23       		.uleb128 0x23
 1772 0c50 705F7500 		.ascii	"p_u\000"
 1773 0c54 0D       		.byte	0xd
 1774 0c55 3101     		.2byte	0x131
 1775 0c57 EC110000 		.4byte	0x11ec
 1776 0c5b 28       		.byte	0x28
 1777 0c5c 1B       		.uleb128 0x1b
 1778 0c5d CB080000 		.4byte	.LASF189
 1779 0c61 0D       		.byte	0xd
 1780 0c62 3601     		.2byte	0x136
 1781 0c64 D60C0000 		.4byte	0xcd6
 1782 0c68 2C       		.byte	0x2c
 1783 0c69 1B       		.uleb128 0x1b
 1784 0c6a AC010000 		.4byte	.LASF190
 1785 0c6e 0D       		.byte	0xd
 1786 0c6f 3C01     		.2byte	0x13c
 1787 0c71 FA0C0000 		.4byte	0xcfa
 1788 0c75 30       		.byte	0x30
 1789 0c76 1B       		.uleb128 0x1b
 1790 0c77 320E0000 		.4byte	.LASF191
 1791 0c7b 0D       		.byte	0xd
 1792 0c7c 4001     		.2byte	0x140
 1793 0c7e 600B0000 		.4byte	0xb60
 1794 0c82 38       		.byte	0x38
 1795 0c83 1B       		.uleb128 0x1b
 1796 0c84 C9050000 		.4byte	.LASF192
 1797 0c88 0D       		.byte	0xd
 1798 0c89 4601     		.2byte	0x146
 1799 0c8b 6B0B0000 		.4byte	0xb6b
 1800 0c8f 3C       		.byte	0x3c
 1801 0c90 1B       		.uleb128 0x1b
 1802 0c91 D2030000 		.4byte	.LASF193
 1803 0c95 0D       		.byte	0xd
 1804 0c96 4D01     		.2byte	0x14d
 1805 0c98 B7120000 		.4byte	0x12b7
 1806 0c9c 40       		.byte	0x40
 1807 0c9d 1B       		.uleb128 0x1b
 1808 0c9e 2A0A0000 		.4byte	.LASF194
 1809 0ca2 0D       		.byte	0xd
 1810 0ca3 5101     		.2byte	0x151
 1811 0ca5 550B0000 		.4byte	0xb55
 1812 0ca9 44       		.byte	0x44
 1813 0caa 1B       		.uleb128 0x1b
 1814 0cab 0D090000 		.4byte	.LASF195
 1815 0caf 0D       		.byte	0xd
 1816 0cb0 5801     		.2byte	0x158
 1817 0cb2 99010000 		.4byte	0x199
 1818 0cb6 48       		.byte	0x48
 1819 0cb7 1B       		.uleb128 0x1b
 1820 0cb8 00000000 		.4byte	.LASF196
 1821 0cbc 0D       		.byte	0xd
 1822 0cbd 5E01     		.2byte	0x15e
ARM GAS  /var/folders/qd/4mxf5pkd0zdf0b9dd1hp39180000gn/T//ccmJvynR.s 			page 33


 1823 0cbf 9D110000 		.4byte	0x119d
 1824 0cc3 50       		.byte	0x50
 1825 0cc4 00       		.byte	0
 1826 0cc5 03       		.uleb128 0x3
 1827 0cc6 C2090000 		.4byte	.LASF197
 1828 0cca 0C       		.byte	0xc
 1829 0ccb 44       		.byte	0x44
 1830 0ccc D00C0000 		.4byte	0xcd0
 1831 0cd0 06       		.uleb128 0x6
 1832 0cd1 04       		.byte	0x4
 1833 0cd2 9C0B0000 		.4byte	0xb9c
 1834 0cd6 03       		.uleb128 0x3
 1835 0cd7 F70C0000 		.4byte	.LASF198
 1836 0cdb 0C       		.byte	0xc
 1837 0cdc 49       		.byte	0x49
 1838 0cdd E10C0000 		.4byte	0xce1
 1839 0ce1 12       		.uleb128 0x12
 1840 0ce2 48070000 		.4byte	.LASF199
 1841 0ce6 04       		.byte	0x4
 1842 0ce7 0D       		.byte	0xd
 1843 0ce8 B0       		.byte	0xb0
 1844 0ce9 FA0C0000 		.4byte	0xcfa
 1845 0ced 0E       		.uleb128 0xe
 1846 0cee 6A030000 		.4byte	.LASF176
 1847 0cf2 0D       		.byte	0xd
 1848 0cf3 B1       		.byte	0xb1
 1849 0cf4 D00C0000 		.4byte	0xcd0
 1850 0cf8 00       		.byte	0
 1851 0cf9 00       		.byte	0
 1852 0cfa 03       		.uleb128 0x3
 1853 0cfb C2030000 		.4byte	.LASF200
 1854 0cff 0C       		.byte	0xc
 1855 0d00 50       		.byte	0x50
 1856 0d01 050D0000 		.4byte	0xd05
 1857 0d05 12       		.uleb128 0x12
 1858 0d06 EC0A0000 		.4byte	.LASF201
 1859 0d0a 08       		.byte	0x8
 1860 0d0b 0D       		.byte	0xd
 1861 0d0c B7       		.byte	0xb7
 1862 0d0d 2A0D0000 		.4byte	0xd2a
 1863 0d11 0E       		.uleb128 0xe
 1864 0d12 6A030000 		.4byte	.LASF176
 1865 0d16 0D       		.byte	0xd
 1866 0d17 B8       		.byte	0xb8
 1867 0d18 D00C0000 		.4byte	0xcd0
 1868 0d1c 00       		.byte	0
 1869 0d1d 0E       		.uleb128 0xe
 1870 0d1e 9A030000 		.4byte	.LASF177
 1871 0d22 0D       		.byte	0xd
 1872 0d23 B9       		.byte	0xb9
 1873 0d24 D00C0000 		.4byte	0xcd0
 1874 0d28 04       		.byte	0x4
 1875 0d29 00       		.byte	0
 1876 0d2a 03       		.uleb128 0x3
 1877 0d2b 0D070000 		.4byte	.LASF202
 1878 0d2f 0C       		.byte	0xc
 1879 0d30 57       		.byte	0x57
ARM GAS  /var/folders/qd/4mxf5pkd0zdf0b9dd1hp39180000gn/T//ccmJvynR.s 			page 34


 1880 0d31 350D0000 		.4byte	0xd35
 1881 0d35 1D       		.uleb128 0x1d
 1882 0d36 E0050000 		.4byte	.LASF203
 1883 0d3a 1C       		.byte	0x1c
 1884 0d3b 0D       		.byte	0xd
 1885 0d3c 9001     		.2byte	0x190
 1886 0d3e 910D0000 		.4byte	0xd91
 1887 0d42 1B       		.uleb128 0x1b
 1888 0d43 870B0000 		.4byte	.LASF204
 1889 0d47 0D       		.byte	0xd
 1890 0d48 9101     		.2byte	0x191
 1891 0d4a FA0C0000 		.4byte	0xcfa
 1892 0d4e 00       		.byte	0
 1893 0d4f 1B       		.uleb128 0x1b
 1894 0d50 710C0000 		.4byte	.LASF205
 1895 0d54 0D       		.byte	0xd
 1896 0d55 9201     		.2byte	0x192
 1897 0d57 550B0000 		.4byte	0xb55
 1898 0d5b 08       		.byte	0x8
 1899 0d5c 1B       		.uleb128 0x1b
 1900 0d5d BE010000 		.4byte	.LASF206
 1901 0d61 0D       		.byte	0xd
 1902 0d62 9401     		.2byte	0x194
 1903 0d64 470F0000 		.4byte	0xf47
 1904 0d68 0C       		.byte	0xc
 1905 0d69 1B       		.uleb128 0x1b
 1906 0d6a 96040000 		.4byte	.LASF207
 1907 0d6e 0D       		.byte	0xd
 1908 0d6f 9701     		.2byte	0x197
 1909 0d71 D00C0000 		.4byte	0xcd0
 1910 0d75 10       		.byte	0x10
 1911 0d76 1B       		.uleb128 0x1b
 1912 0d77 FB0B0000 		.4byte	.LASF208
 1913 0d7b 0D       		.byte	0xd
 1914 0d7c 9801     		.2byte	0x198
 1915 0d7e D00C0000 		.4byte	0xcd0
 1916 0d82 14       		.byte	0x14
 1917 0d83 1B       		.uleb128 0x1b
 1918 0d84 CC0D0000 		.4byte	.LASF209
 1919 0d88 0D       		.byte	0xd
 1920 0d89 9B01     		.2byte	0x19b
 1921 0d8b D00C0000 		.4byte	0xcd0
 1922 0d8f 18       		.byte	0x18
 1923 0d90 00       		.byte	0
 1924 0d91 03       		.uleb128 0x3
 1925 0d92 EC010000 		.4byte	.LASF210
 1926 0d96 0C       		.byte	0xc
 1927 0d97 5C       		.byte	0x5c
 1928 0d98 9C0D0000 		.4byte	0xd9c
 1929 0d9c 06       		.uleb128 0x6
 1930 0d9d 04       		.byte	0x4
 1931 0d9e A20D0000 		.4byte	0xda2
 1932 0da2 21       		.uleb128 0x21
 1933 0da3 AD0D0000 		.4byte	0xdad
 1934 0da7 19       		.uleb128 0x19
 1935 0da8 99010000 		.4byte	0x199
 1936 0dac 00       		.byte	0
ARM GAS  /var/folders/qd/4mxf5pkd0zdf0b9dd1hp39180000gn/T//ccmJvynR.s 			page 35


 1937 0dad 03       		.uleb128 0x3
 1938 0dae FD060000 		.4byte	.LASF211
 1939 0db2 0C       		.byte	0xc
 1940 0db3 61       		.byte	0x61
 1941 0db4 B80D0000 		.4byte	0xdb8
 1942 0db8 1D       		.uleb128 0x1d
 1943 0db9 790A0000 		.4byte	.LASF212
 1944 0dbd 14       		.byte	0x14
 1945 0dbe 0D       		.byte	0xd
 1946 0dbf 6B01     		.2byte	0x16b
 1947 0dc1 070E0000 		.4byte	0xe07
 1948 0dc5 1B       		.uleb128 0x1b
 1949 0dc6 4F080000 		.4byte	.LASF213
 1950 0dca 0D       		.byte	0xd
 1951 0dcb 6C01     		.2byte	0x16c
 1952 0dcd C3120000 		.4byte	0x12c3
 1953 0dd1 00       		.byte	0
 1954 0dd2 1B       		.uleb128 0x1b
 1955 0dd3 73080000 		.4byte	.LASF214
 1956 0dd7 0D       		.byte	0xd
 1957 0dd8 6D01     		.2byte	0x16d
 1958 0dda C3120000 		.4byte	0x12c3
 1959 0dde 04       		.byte	0x4
 1960 0ddf 1B       		.uleb128 0x1b
 1961 0de0 570A0000 		.4byte	.LASF215
 1962 0de4 0D       		.byte	0xd
 1963 0de5 6E01     		.2byte	0x16e
 1964 0de7 8C0B0000 		.4byte	0xb8c
 1965 0deb 08       		.byte	0x8
 1966 0dec 1B       		.uleb128 0x1b
 1967 0ded A0050000 		.4byte	.LASF216
 1968 0df1 0D       		.byte	0xd
 1969 0df2 6F01     		.2byte	0x16f
 1970 0df4 910D0000 		.4byte	0xd91
 1971 0df8 0C       		.byte	0xc
 1972 0df9 1B       		.uleb128 0x1b
 1973 0dfa FA020000 		.4byte	.LASF217
 1974 0dfe 0D       		.byte	0xd
 1975 0dff 7101     		.2byte	0x171
 1976 0e01 99010000 		.4byte	0x199
 1977 0e05 10       		.byte	0x10
 1978 0e06 00       		.byte	0
 1979 0e07 03       		.uleb128 0x3
 1980 0e08 E0060000 		.4byte	.LASF218
 1981 0e0c 0C       		.byte	0xc
 1982 0e0d 66       		.byte	0x66
 1983 0e0e 120E0000 		.4byte	0xe12
 1984 0e12 1D       		.uleb128 0x1d
 1985 0e13 F5010000 		.4byte	.LASF219
 1986 0e17 10       		.byte	0x10
 1987 0e18 0D       		.byte	0xd
 1988 0e19 7B01     		.2byte	0x17b
 1989 0e1b 540E0000 		.4byte	0xe54
 1990 0e1f 1B       		.uleb128 0x1b
 1991 0e20 4F080000 		.4byte	.LASF213
 1992 0e24 0D       		.byte	0xd
 1993 0e25 7C01     		.2byte	0x17c
ARM GAS  /var/folders/qd/4mxf5pkd0zdf0b9dd1hp39180000gn/T//ccmJvynR.s 			page 36


 1994 0e27 C3120000 		.4byte	0x12c3
 1995 0e2b 00       		.byte	0
 1996 0e2c 1B       		.uleb128 0x1b
 1997 0e2d 73080000 		.4byte	.LASF214
 1998 0e31 0D       		.byte	0xd
 1999 0e32 7E01     		.2byte	0x17e
 2000 0e34 C3120000 		.4byte	0x12c3
 2001 0e38 04       		.byte	0x4
 2002 0e39 1B       		.uleb128 0x1b
 2003 0e3a 570A0000 		.4byte	.LASF215
 2004 0e3e 0D       		.byte	0xd
 2005 0e3f 8001     		.2byte	0x180
 2006 0e41 8C0B0000 		.4byte	0xb8c
 2007 0e45 08       		.byte	0x8
 2008 0e46 1B       		.uleb128 0x1b
 2009 0e47 DB0B0000 		.4byte	.LASF220
 2010 0e4b 0D       		.byte	0xd
 2011 0e4c 8201     		.2byte	0x182
 2012 0e4e 970B0000 		.4byte	0xb97
 2013 0e52 0C       		.byte	0xc
 2014 0e53 00       		.byte	0
 2015 0e54 03       		.uleb128 0x3
 2016 0e55 B1040000 		.4byte	.LASF221
 2017 0e59 0C       		.byte	0xc
 2018 0e5a 6B       		.byte	0x6b
 2019 0e5b 5F0E0000 		.4byte	0xe5f
 2020 0e5f 1A       		.uleb128 0x1a
 2021 0e60 780C0000 		.4byte	.LASF222
 2022 0e64 1404     		.2byte	0x414
 2023 0e66 0D       		.byte	0xd
 2024 0e67 A201     		.2byte	0x1a2
 2025 0e69 A20E0000 		.4byte	0xea2
 2026 0e6d 1B       		.uleb128 0x1b
 2027 0e6e 6C040000 		.4byte	.LASF223
 2028 0e72 0D       		.byte	0xd
 2029 0e73 AA01     		.2byte	0x1aa
 2030 0e75 1B080000 		.4byte	0x81b
 2031 0e79 00       		.byte	0
 2032 0e7a 1B       		.uleb128 0x1b
 2033 0e7b 1A060000 		.4byte	.LASF224
 2034 0e7f 0D       		.byte	0xd
 2035 0e80 AF01     		.2byte	0x1af
 2036 0e82 760B0000 		.4byte	0xb76
 2037 0e86 04       		.byte	0x4
 2038 0e87 1B       		.uleb128 0x1b
 2039 0e88 AA020000 		.4byte	.LASF225
 2040 0e8c 0D       		.byte	0xd
 2041 0e8d B301     		.2byte	0x1b3
 2042 0e8f 760B0000 		.4byte	0xb76
 2043 0e93 08       		.byte	0x8
 2044 0e94 1B       		.uleb128 0x1b
 2045 0e95 93050000 		.4byte	.LASF226
 2046 0e99 0D       		.byte	0xd
 2047 0e9a B901     		.2byte	0x1b9
 2048 0e9c 2F110000 		.4byte	0x112f
 2049 0ea0 0C       		.byte	0xc
 2050 0ea1 00       		.byte	0
ARM GAS  /var/folders/qd/4mxf5pkd0zdf0b9dd1hp39180000gn/T//ccmJvynR.s 			page 37


 2051 0ea2 03       		.uleb128 0x3
 2052 0ea3 880D0000 		.4byte	.LASF227
 2053 0ea7 0C       		.byte	0xc
 2054 0ea8 70       		.byte	0x70
 2055 0ea9 AD0E0000 		.4byte	0xead
 2056 0ead 1A       		.uleb128 0x1a
 2057 0eae 160D0000 		.4byte	.LASF228
 2058 0eb2 7006     		.2byte	0x670
 2059 0eb4 0D       		.byte	0xd
 2060 0eb5 C201     		.2byte	0x1c2
 2061 0eb7 1A0F0000 		.4byte	0xf1a
 2062 0ebb 1B       		.uleb128 0x1b
 2063 0ebc A70B0000 		.4byte	.LASF229
 2064 0ec0 0D       		.byte	0xd
 2065 0ec1 C601     		.2byte	0x1c6
 2066 0ec3 2A0D0000 		.4byte	0xd2a
 2067 0ec7 00       		.byte	0
 2068 0ec8 1B       		.uleb128 0x1b
 2069 0ec9 A80C0000 		.4byte	.LASF230
 2070 0ecd 0D       		.byte	0xd
 2071 0ece CA01     		.2byte	0x1ca
 2072 0ed0 070E0000 		.4byte	0xe07
 2073 0ed4 1C       		.byte	0x1c
 2074 0ed5 23       		.uleb128 0x23
 2075 0ed6 64626700 		.ascii	"dbg\000"
 2076 0eda 0D       		.byte	0xd
 2077 0edb CE01     		.2byte	0x1ce
 2078 0edd 540E0000 		.4byte	0xe54
 2079 0ee1 2C       		.byte	0x2c
 2080 0ee2 1C       		.uleb128 0x1c
 2081 0ee3 5C0B0000 		.4byte	.LASF231
 2082 0ee7 0D       		.byte	0xd
 2083 0ee8 D201     		.2byte	0x1d2
 2084 0eea 9C0B0000 		.4byte	0xb9c
 2085 0eee 4004     		.2byte	0x440
 2086 0ef0 24       		.uleb128 0x24
 2087 0ef1 746D00   		.ascii	"tm\000"
 2088 0ef4 0D       		.byte	0xd
 2089 0ef5 D701     		.2byte	0x1d7
 2090 0ef7 4F110000 		.4byte	0x114f
 2091 0efb A804     		.2byte	0x4a8
 2092 0efd 1C       		.uleb128 0x1c
 2093 0efe A50A0000 		.4byte	.LASF232
 2094 0f02 0D       		.byte	0xd
 2095 0f03 DD01     		.2byte	0x1dd
 2096 0f05 E1110000 		.4byte	0x11e1
 2097 0f09 B004     		.2byte	0x4b0
 2098 0f0b 1C       		.uleb128 0x1c
 2099 0f0c DF080000 		.4byte	.LASF233
 2100 0f10 0D       		.byte	0xd
 2101 0f11 E301     		.2byte	0x1e3
 2102 0f13 C9120000 		.4byte	0x12c9
 2103 0f17 E804     		.2byte	0x4e8
 2104 0f19 00       		.byte	0
 2105 0f1a 22       		.uleb128 0x22
 2106 0f1b A8080000 		.4byte	.LASF234
 2107 0f1f 0E       		.byte	0xe
ARM GAS  /var/folders/qd/4mxf5pkd0zdf0b9dd1hp39180000gn/T//ccmJvynR.s 			page 38


 2108 0f20 A706     		.2byte	0x6a7
 2109 0f22 C3000000 		.4byte	0xc3
 2110 0f26 11       		.uleb128 0x11
 2111 0f27 B9060000 		.4byte	.LASF235
 2112 0f2b 0F       		.byte	0xf
 2113 0f2c 4C       		.byte	0x4c
 2114 0f2d C8000000 		.4byte	0xc8
 2115 0f31 03       		.uleb128 0x3
 2116 0f32 DC030000 		.4byte	.LASF236
 2117 0f36 10       		.byte	0x10
 2118 0f37 65       		.byte	0x65
 2119 0f38 99010000 		.4byte	0x199
 2120 0f3c 03       		.uleb128 0x3
 2121 0f3d 53050000 		.4byte	.LASF237
 2122 0f41 10       		.byte	0x10
 2123 0f42 6D       		.byte	0x6d
 2124 0f43 D3000000 		.4byte	0xd3
 2125 0f47 12       		.uleb128 0x12
 2126 0f48 35040000 		.4byte	.LASF238
 2127 0f4c 04       		.byte	0x4
 2128 0f4d 10       		.byte	0x10
 2129 0f4e 89       		.byte	0x89
 2130 0f4f 600F0000 		.4byte	0xf60
 2131 0f53 14       		.uleb128 0x14
 2132 0f54 72313300 		.ascii	"r13\000"
 2133 0f58 10       		.byte	0x10
 2134 0f59 8A       		.byte	0x8a
 2135 0f5a A1100000 		.4byte	0x10a1
 2136 0f5e 00       		.byte	0
 2137 0f5f 00       		.byte	0
 2138 0f60 12       		.uleb128 0x12
 2139 0f61 350A0000 		.4byte	.LASF239
 2140 0f65 64       		.byte	0x64
 2141 0f66 11       		.byte	0x11
 2142 0f67 F4       		.byte	0xf4
 2143 0f68 A1100000 		.4byte	0x10a1
 2144 0f6c 14       		.uleb128 0x14
 2145 0f6d 73313600 		.ascii	"s16\000"
 2146 0f71 11       		.byte	0x11
 2147 0f72 F6       		.byte	0xf6
 2148 0f73 310F0000 		.4byte	0xf31
 2149 0f77 00       		.byte	0
 2150 0f78 14       		.uleb128 0x14
 2151 0f79 73313700 		.ascii	"s17\000"
 2152 0f7d 11       		.byte	0x11
 2153 0f7e F7       		.byte	0xf7
 2154 0f7f 310F0000 		.4byte	0xf31
 2155 0f83 04       		.byte	0x4
 2156 0f84 14       		.uleb128 0x14
 2157 0f85 73313800 		.ascii	"s18\000"
 2158 0f89 11       		.byte	0x11
 2159 0f8a F8       		.byte	0xf8
 2160 0f8b 310F0000 		.4byte	0xf31
 2161 0f8f 08       		.byte	0x8
 2162 0f90 14       		.uleb128 0x14
 2163 0f91 73313900 		.ascii	"s19\000"
 2164 0f95 11       		.byte	0x11
ARM GAS  /var/folders/qd/4mxf5pkd0zdf0b9dd1hp39180000gn/T//ccmJvynR.s 			page 39


 2165 0f96 F9       		.byte	0xf9
 2166 0f97 310F0000 		.4byte	0xf31
 2167 0f9b 0C       		.byte	0xc
 2168 0f9c 14       		.uleb128 0x14
 2169 0f9d 73323000 		.ascii	"s20\000"
 2170 0fa1 11       		.byte	0x11
 2171 0fa2 FA       		.byte	0xfa
 2172 0fa3 310F0000 		.4byte	0xf31
 2173 0fa7 10       		.byte	0x10
 2174 0fa8 14       		.uleb128 0x14
 2175 0fa9 73323100 		.ascii	"s21\000"
 2176 0fad 11       		.byte	0x11
 2177 0fae FB       		.byte	0xfb
 2178 0faf 310F0000 		.4byte	0xf31
 2179 0fb3 14       		.byte	0x14
 2180 0fb4 14       		.uleb128 0x14
 2181 0fb5 73323200 		.ascii	"s22\000"
 2182 0fb9 11       		.byte	0x11
 2183 0fba FC       		.byte	0xfc
 2184 0fbb 310F0000 		.4byte	0xf31
 2185 0fbf 18       		.byte	0x18
 2186 0fc0 14       		.uleb128 0x14
 2187 0fc1 73323300 		.ascii	"s23\000"
 2188 0fc5 11       		.byte	0x11
 2189 0fc6 FD       		.byte	0xfd
 2190 0fc7 310F0000 		.4byte	0xf31
 2191 0fcb 1C       		.byte	0x1c
 2192 0fcc 14       		.uleb128 0x14
 2193 0fcd 73323400 		.ascii	"s24\000"
 2194 0fd1 11       		.byte	0x11
 2195 0fd2 FE       		.byte	0xfe
 2196 0fd3 310F0000 		.4byte	0xf31
 2197 0fd7 20       		.byte	0x20
 2198 0fd8 14       		.uleb128 0x14
 2199 0fd9 73323500 		.ascii	"s25\000"
 2200 0fdd 11       		.byte	0x11
 2201 0fde FF       		.byte	0xff
 2202 0fdf 310F0000 		.4byte	0xf31
 2203 0fe3 24       		.byte	0x24
 2204 0fe4 23       		.uleb128 0x23
 2205 0fe5 73323600 		.ascii	"s26\000"
 2206 0fe9 11       		.byte	0x11
 2207 0fea 0001     		.2byte	0x100
 2208 0fec 310F0000 		.4byte	0xf31
 2209 0ff0 28       		.byte	0x28
 2210 0ff1 23       		.uleb128 0x23
 2211 0ff2 73323700 		.ascii	"s27\000"
 2212 0ff6 11       		.byte	0x11
 2213 0ff7 0101     		.2byte	0x101
 2214 0ff9 310F0000 		.4byte	0xf31
 2215 0ffd 2C       		.byte	0x2c
 2216 0ffe 23       		.uleb128 0x23
 2217 0fff 73323800 		.ascii	"s28\000"
 2218 1003 11       		.byte	0x11
 2219 1004 0201     		.2byte	0x102
 2220 1006 310F0000 		.4byte	0xf31
 2221 100a 30       		.byte	0x30
ARM GAS  /var/folders/qd/4mxf5pkd0zdf0b9dd1hp39180000gn/T//ccmJvynR.s 			page 40


 2222 100b 23       		.uleb128 0x23
 2223 100c 73323900 		.ascii	"s29\000"
 2224 1010 11       		.byte	0x11
 2225 1011 0301     		.2byte	0x103
 2226 1013 310F0000 		.4byte	0xf31
 2227 1017 34       		.byte	0x34
 2228 1018 23       		.uleb128 0x23
 2229 1019 73333000 		.ascii	"s30\000"
 2230 101d 11       		.byte	0x11
 2231 101e 0401     		.2byte	0x104
 2232 1020 310F0000 		.4byte	0xf31
 2233 1024 38       		.byte	0x38
 2234 1025 23       		.uleb128 0x23
 2235 1026 73333100 		.ascii	"s31\000"
 2236 102a 11       		.byte	0x11
 2237 102b 0501     		.2byte	0x105
 2238 102d 310F0000 		.4byte	0xf31
 2239 1031 3C       		.byte	0x3c
 2240 1032 23       		.uleb128 0x23
 2241 1033 723400   		.ascii	"r4\000"
 2242 1036 11       		.byte	0x11
 2243 1037 0701     		.2byte	0x107
 2244 1039 310F0000 		.4byte	0xf31
 2245 103d 40       		.byte	0x40
 2246 103e 23       		.uleb128 0x23
 2247 103f 723500   		.ascii	"r5\000"
 2248 1042 11       		.byte	0x11
 2249 1043 0801     		.2byte	0x108
 2250 1045 310F0000 		.4byte	0xf31
 2251 1049 44       		.byte	0x44
 2252 104a 23       		.uleb128 0x23
 2253 104b 723600   		.ascii	"r6\000"
 2254 104e 11       		.byte	0x11
 2255 104f 0901     		.2byte	0x109
 2256 1051 310F0000 		.4byte	0xf31
 2257 1055 48       		.byte	0x48
 2258 1056 23       		.uleb128 0x23
 2259 1057 723700   		.ascii	"r7\000"
 2260 105a 11       		.byte	0x11
 2261 105b 0A01     		.2byte	0x10a
 2262 105d 310F0000 		.4byte	0xf31
 2263 1061 4C       		.byte	0x4c
 2264 1062 23       		.uleb128 0x23
 2265 1063 723800   		.ascii	"r8\000"
 2266 1066 11       		.byte	0x11
 2267 1067 0B01     		.2byte	0x10b
 2268 1069 310F0000 		.4byte	0xf31
 2269 106d 50       		.byte	0x50
 2270 106e 23       		.uleb128 0x23
 2271 106f 723900   		.ascii	"r9\000"
 2272 1072 11       		.byte	0x11
 2273 1073 0C01     		.2byte	0x10c
 2274 1075 310F0000 		.4byte	0xf31
 2275 1079 54       		.byte	0x54
 2276 107a 23       		.uleb128 0x23
 2277 107b 72313000 		.ascii	"r10\000"
 2278 107f 11       		.byte	0x11
ARM GAS  /var/folders/qd/4mxf5pkd0zdf0b9dd1hp39180000gn/T//ccmJvynR.s 			page 41


 2279 1080 0D01     		.2byte	0x10d
 2280 1082 310F0000 		.4byte	0xf31
 2281 1086 58       		.byte	0x58
 2282 1087 23       		.uleb128 0x23
 2283 1088 72313100 		.ascii	"r11\000"
 2284 108c 11       		.byte	0x11
 2285 108d 0E01     		.2byte	0x10e
 2286 108f 310F0000 		.4byte	0xf31
 2287 1093 5C       		.byte	0x5c
 2288 1094 23       		.uleb128 0x23
 2289 1095 6C7200   		.ascii	"lr\000"
 2290 1098 11       		.byte	0x11
 2291 1099 0F01     		.2byte	0x10f
 2292 109b 310F0000 		.4byte	0xf31
 2293 109f 60       		.byte	0x60
 2294 10a0 00       		.byte	0
 2295 10a1 06       		.uleb128 0x6
 2296 10a2 04       		.byte	0x4
 2297 10a3 600F0000 		.4byte	0xf60
 2298 10a7 0D       		.uleb128 0xd
 2299 10a8 10       		.byte	0x10
 2300 10a9 12       		.byte	0x12
 2301 10aa 51       		.byte	0x51
 2302 10ab E0100000 		.4byte	0x10e0
 2303 10af 0E       		.uleb128 0xe
 2304 10b0 E90D0000 		.4byte	.LASF240
 2305 10b4 12       		.byte	0x12
 2306 10b5 55       		.byte	0x55
 2307 10b6 8C0B0000 		.4byte	0xb8c
 2308 10ba 00       		.byte	0
 2309 10bb 0E       		.uleb128 0xe
 2310 10bc C4020000 		.4byte	.LASF241
 2311 10c0 12       		.byte	0x12
 2312 10c1 59       		.byte	0x59
 2313 10c2 D00C0000 		.4byte	0xcd0
 2314 10c6 04       		.byte	0x4
 2315 10c7 0E       		.uleb128 0xe
 2316 10c8 D5080000 		.4byte	.LASF242
 2317 10cc 12       		.byte	0x12
 2318 10cd 5D       		.byte	0x5d
 2319 10ce 99010000 		.4byte	0x199
 2320 10d2 08       		.byte	0x8
 2321 10d3 0E       		.uleb128 0xe
 2322 10d4 3F060000 		.4byte	.LASF243
 2323 10d8 12       		.byte	0x12
 2324 10d9 61       		.byte	0x61
 2325 10da A2000000 		.4byte	0xa2
 2326 10de 0C       		.byte	0xc
 2327 10df 00       		.byte	0
 2328 10e0 03       		.uleb128 0x3
 2329 10e1 68070000 		.4byte	.LASF244
 2330 10e5 12       		.byte	0x12
 2331 10e6 62       		.byte	0x62
 2332 10e7 A7100000 		.4byte	0x10a7
 2333 10eb 25       		.uleb128 0x25
 2334 10ec 0804     		.2byte	0x408
 2335 10ee 12       		.byte	0x12
ARM GAS  /var/folders/qd/4mxf5pkd0zdf0b9dd1hp39180000gn/T//ccmJvynR.s 			page 42


 2336 10ef 67       		.byte	0x67
 2337 10f0 19110000 		.4byte	0x1119
 2338 10f4 0E       		.uleb128 0xe
 2339 10f5 8A080000 		.4byte	.LASF245
 2340 10f9 12       		.byte	0x12
 2341 10fa 6B       		.byte	0x6b
 2342 10fb 9B000000 		.4byte	0x9b
 2343 10ff 00       		.byte	0
 2344 1100 0E       		.uleb128 0xe
 2345 1101 040E0000 		.4byte	.LASF246
 2346 1105 12       		.byte	0x12
 2347 1106 6F       		.byte	0x6f
 2348 1107 19110000 		.4byte	0x1119
 2349 110b 04       		.byte	0x4
 2350 110c 0E       		.uleb128 0xe
 2351 110d 45080000 		.4byte	.LASF247
 2352 1111 12       		.byte	0x12
 2353 1112 73       		.byte	0x73
 2354 1113 1F110000 		.4byte	0x111f
 2355 1117 08       		.byte	0x8
 2356 1118 00       		.byte	0
 2357 1119 06       		.uleb128 0x6
 2358 111a 04       		.byte	0x4
 2359 111b E0100000 		.4byte	0x10e0
 2360 111f 0B       		.uleb128 0xb
 2361 1120 E0100000 		.4byte	0x10e0
 2362 1124 2F110000 		.4byte	0x112f
 2363 1128 0C       		.uleb128 0xc
 2364 1129 9B000000 		.4byte	0x9b
 2365 112d 3F       		.byte	0x3f
 2366 112e 00       		.byte	0
 2367 112f 03       		.uleb128 0x3
 2368 1130 B7050000 		.4byte	.LASF248
 2369 1134 12       		.byte	0x12
 2370 1135 74       		.byte	0x74
 2371 1136 EB100000 		.4byte	0x10eb
 2372 113a 0D       		.uleb128 0xd
 2373 113b 04       		.byte	0x4
 2374 113c 13       		.byte	0x13
 2375 113d 38       		.byte	0x38
 2376 113e 4F110000 		.4byte	0x114f
 2377 1142 0E       		.uleb128 0xe
 2378 1143 BB090000 		.4byte	.LASF249
 2379 1147 13       		.byte	0x13
 2380 1148 3C       		.byte	0x3c
 2381 1149 130B0000 		.4byte	0xb13
 2382 114d 00       		.byte	0
 2383 114e 00       		.byte	0
 2384 114f 03       		.uleb128 0x3
 2385 1150 030C0000 		.4byte	.LASF250
 2386 1154 13       		.byte	0x13
 2387 1155 3D       		.byte	0x3d
 2388 1156 3A110000 		.4byte	0x113a
 2389 115a 0D       		.uleb128 0xd
 2390 115b 18       		.byte	0x18
 2391 115c 13       		.byte	0x13
 2392 115d 48       		.byte	0x48
ARM GAS  /var/folders/qd/4mxf5pkd0zdf0b9dd1hp39180000gn/T//ccmJvynR.s 			page 43


 2393 115e 9D110000 		.4byte	0x119d
 2394 1162 0E       		.uleb128 0xe
 2395 1163 770B0000 		.4byte	.LASF251
 2396 1167 13       		.byte	0x13
 2397 1168 49       		.byte	0x49
 2398 1169 130B0000 		.4byte	0xb13
 2399 116d 00       		.byte	0
 2400 116e 0E       		.uleb128 0xe
 2401 116f 87050000 		.4byte	.LASF252
 2402 1173 13       		.byte	0x13
 2403 1174 4A       		.byte	0x4a
 2404 1175 130B0000 		.4byte	0xb13
 2405 1179 04       		.byte	0x4
 2406 117a 0E       		.uleb128 0xe
 2407 117b 2D0E0000 		.4byte	.LASF253
 2408 117f 13       		.byte	0x13
 2409 1180 4B       		.byte	0x4b
 2410 1181 130B0000 		.4byte	0xb13
 2411 1185 08       		.byte	0x8
 2412 1186 14       		.uleb128 0x14
 2413 1187 6E00     		.ascii	"n\000"
 2414 1189 13       		.byte	0x13
 2415 118a 4C       		.byte	0x4c
 2416 118b 810B0000 		.4byte	0xb81
 2417 118f 0C       		.byte	0xc
 2418 1190 0E       		.uleb128 0xe
 2419 1191 22060000 		.4byte	.LASF254
 2420 1195 13       		.byte	0x13
 2421 1196 4D       		.byte	0x4d
 2422 1197 1E0B0000 		.4byte	0xb1e
 2423 119b 10       		.byte	0x10
 2424 119c 00       		.byte	0
 2425 119d 03       		.uleb128 0x3
 2426 119e CA020000 		.4byte	.LASF255
 2427 11a2 13       		.byte	0x13
 2428 11a3 4E       		.byte	0x4e
 2429 11a4 5A110000 		.4byte	0x115a
 2430 11a8 0D       		.uleb128 0xd
 2431 11a9 38       		.byte	0x38
 2432 11aa 14       		.byte	0x14
 2433 11ab 38       		.byte	0x38
 2434 11ac E1110000 		.4byte	0x11e1
 2435 11b0 0E       		.uleb128 0xe
 2436 11b1 AF070000 		.4byte	.LASF256
 2437 11b5 14       		.byte	0x14
 2438 11b6 39       		.byte	0x39
 2439 11b7 810B0000 		.4byte	0xb81
 2440 11bb 00       		.byte	0
 2441 11bc 0E       		.uleb128 0xe
 2442 11bd 1E050000 		.4byte	.LASF257
 2443 11c1 14       		.byte	0x14
 2444 11c2 3A       		.byte	0x3a
 2445 11c3 810B0000 		.4byte	0xb81
 2446 11c7 04       		.byte	0x4
 2447 11c8 0E       		.uleb128 0xe
 2448 11c9 54060000 		.4byte	.LASF258
 2449 11cd 14       		.byte	0x14
ARM GAS  /var/folders/qd/4mxf5pkd0zdf0b9dd1hp39180000gn/T//ccmJvynR.s 			page 44


 2450 11ce 3B       		.byte	0x3b
 2451 11cf 9D110000 		.4byte	0x119d
 2452 11d3 08       		.byte	0x8
 2453 11d4 0E       		.uleb128 0xe
 2454 11d5 2D060000 		.4byte	.LASF259
 2455 11d9 14       		.byte	0x14
 2456 11da 3D       		.byte	0x3d
 2457 11db 9D110000 		.4byte	0x119d
 2458 11df 20       		.byte	0x20
 2459 11e0 00       		.byte	0
 2460 11e1 03       		.uleb128 0x3
 2461 11e2 51090000 		.4byte	.LASF260
 2462 11e6 14       		.byte	0x14
 2463 11e7 3F       		.byte	0x3f
 2464 11e8 A8110000 		.4byte	0x11a8
 2465 11ec 09       		.uleb128 0x9
 2466 11ed 04       		.byte	0x4
 2467 11ee 0D       		.byte	0xd
 2468 11ef FA       		.byte	0xfa
 2469 11f0 49120000 		.4byte	0x1249
 2470 11f4 20       		.uleb128 0x20
 2471 11f5 5F0D0000 		.4byte	.LASF261
 2472 11f9 0D       		.byte	0xd
 2473 11fa 0101     		.2byte	0x101
 2474 11fc 600B0000 		.4byte	0xb60
 2475 1200 20       		.uleb128 0x20
 2476 1201 0F030000 		.4byte	.LASF262
 2477 1205 0D       		.byte	0xd
 2478 1206 0801     		.2byte	0x108
 2479 1208 600B0000 		.4byte	0xb60
 2480 120c 20       		.uleb128 0x20
 2481 120d 0B050000 		.4byte	.LASF263
 2482 1211 0D       		.byte	0xd
 2483 1212 0F01     		.2byte	0x10f
 2484 1214 99010000 		.4byte	0x199
 2485 1218 20       		.uleb128 0x20
 2486 1219 50040000 		.4byte	.LASF264
 2487 121d 0D       		.byte	0xd
 2488 121e 1601     		.2byte	0x116
 2489 1220 49120000 		.4byte	0x1249
 2490 1224 20       		.uleb128 0x20
 2491 1225 260E0000 		.4byte	.LASF265
 2492 1229 0D       		.byte	0xd
 2493 122a 1E01     		.2byte	0x11e
 2494 122c 74120000 		.4byte	0x1274
 2495 1230 20       		.uleb128 0x20
 2496 1231 D4050000 		.4byte	.LASF266
 2497 1235 0D       		.byte	0xd
 2498 1236 2701     		.2byte	0x127
 2499 1238 B7120000 		.4byte	0x12b7
 2500 123c 20       		.uleb128 0x20
 2501 123d 22030000 		.4byte	.LASF267
 2502 1241 0D       		.byte	0xd
 2503 1242 2F01     		.2byte	0x12f
 2504 1244 6B0B0000 		.4byte	0xb6b
 2505 1248 00       		.byte	0
 2506 1249 06       		.uleb128 0x6
ARM GAS  /var/folders/qd/4mxf5pkd0zdf0b9dd1hp39180000gn/T//ccmJvynR.s 			page 45


 2507 124a 04       		.byte	0x4
 2508 124b C50C0000 		.4byte	0xcc5
 2509 124f 12       		.uleb128 0x12
 2510 1250 C9060000 		.4byte	.LASF268
 2511 1254 0C       		.byte	0xc
 2512 1255 15       		.byte	0x15
 2513 1256 34       		.byte	0x34
 2514 1257 74120000 		.4byte	0x1274
 2515 125b 0E       		.uleb128 0xe
 2516 125c 190C0000 		.4byte	.LASF269
 2517 1260 15       		.byte	0x15
 2518 1261 35       		.byte	0x35
 2519 1262 FA0C0000 		.4byte	0xcfa
 2520 1266 00       		.byte	0
 2521 1267 0E       		.uleb128 0xe
 2522 1268 8A0A0000 		.4byte	.LASF270
 2523 126c 15       		.byte	0x15
 2524 126d 37       		.byte	0x37
 2525 126e 760B0000 		.4byte	0xb76
 2526 1272 08       		.byte	0x8
 2527 1273 00       		.byte	0
 2528 1274 06       		.uleb128 0x6
 2529 1275 04       		.byte	0x4
 2530 1276 4F120000 		.4byte	0x124f
 2531 127a 12       		.uleb128 0x12
 2532 127b 5F0C0000 		.4byte	.LASF271
 2533 127f 14       		.byte	0x14
 2534 1280 16       		.byte	0x16
 2535 1281 39       		.byte	0x39
 2536 1282 B7120000 		.4byte	0x12b7
 2537 1286 0E       		.uleb128 0xe
 2538 1287 23080000 		.4byte	.LASF272
 2539 128b 16       		.byte	0x16
 2540 128c 3A       		.byte	0x3a
 2541 128d FA0C0000 		.4byte	0xcfa
 2542 1291 00       		.byte	0
 2543 1292 0E       		.uleb128 0xe
 2544 1293 F2020000 		.4byte	.LASF273
 2545 1297 16       		.byte	0x16
 2546 1298 3C       		.byte	0x3c
 2547 1299 D00C0000 		.4byte	0xcd0
 2548 129d 08       		.byte	0x8
 2549 129e 0E       		.uleb128 0xe
 2550 129f FD0D0000 		.4byte	.LASF274
 2551 12a3 16       		.byte	0x16
 2552 12a4 3E       		.byte	0x3e
 2553 12a5 FB130000 		.4byte	0x13fb
 2554 12a9 0C       		.byte	0xc
 2555 12aa 0E       		.uleb128 0xe
 2556 12ab D1040000 		.4byte	.LASF275
 2557 12af 16       		.byte	0x16
 2558 12b0 41       		.byte	0x41
 2559 12b1 760B0000 		.4byte	0xb76
 2560 12b5 10       		.byte	0x10
 2561 12b6 00       		.byte	0
 2562 12b7 06       		.uleb128 0x6
 2563 12b8 04       		.byte	0x4
ARM GAS  /var/folders/qd/4mxf5pkd0zdf0b9dd1hp39180000gn/T//ccmJvynR.s 			page 46


 2564 12b9 7A120000 		.4byte	0x127a
 2565 12bd 06       		.uleb128 0x6
 2566 12be 04       		.byte	0x4
 2567 12bf 3C0F0000 		.4byte	0xf3c
 2568 12c3 06       		.uleb128 0x6
 2569 12c4 04       		.byte	0x4
 2570 12c5 AD0D0000 		.4byte	0xdad
 2571 12c9 0B       		.uleb128 0xb
 2572 12ca 3C0F0000 		.4byte	0xf3c
 2573 12ce D9120000 		.4byte	0x12d9
 2574 12d2 0C       		.uleb128 0xc
 2575 12d3 9B000000 		.4byte	0x9b
 2576 12d7 30       		.byte	0x30
 2577 12d8 00       		.byte	0
 2578 12d9 26       		.uleb128 0x26
 2579 12da 636800   		.ascii	"ch\000"
 2580 12dd 0D       		.byte	0xd
 2581 12de 0902     		.2byte	0x209
 2582 12e0 A20E0000 		.4byte	0xea2
 2583 12e4 0D       		.uleb128 0xd
 2584 12e5 16       		.byte	0x16
 2585 12e6 17       		.byte	0x17
 2586 12e7 34       		.byte	0x34
 2587 12e8 C5130000 		.4byte	0x13c5
 2588 12ec 0E       		.uleb128 0xe
 2589 12ed 3D000000 		.4byte	.LASF276
 2590 12f1 17       		.byte	0x17
 2591 12f2 35       		.byte	0x35
 2592 12f3 C5130000 		.4byte	0x13c5
 2593 12f7 00       		.byte	0
 2594 12f8 0E       		.uleb128 0xe
 2595 12f9 81060000 		.4byte	.LASF277
 2596 12fd 17       		.byte	0x17
 2597 12fe 36       		.byte	0x36
 2598 12ff A2000000 		.4byte	0xa2
 2599 1303 04       		.byte	0x4
 2600 1304 0E       		.uleb128 0xe
 2601 1305 9E0D0000 		.4byte	.LASF278
 2602 1309 17       		.byte	0x17
 2603 130a 37       		.byte	0x37
 2604 130b A2000000 		.4byte	0xa2
 2605 130f 05       		.byte	0x5
 2606 1310 0E       		.uleb128 0xe
 2607 1311 18080000 		.4byte	.LASF279
 2608 1315 17       		.byte	0x17
 2609 1316 38       		.byte	0x38
 2610 1317 AD000000 		.4byte	0xad
 2611 131b 06       		.byte	0x6
 2612 131c 0E       		.uleb128 0xe
 2613 131d B3020000 		.4byte	.LASF280
 2614 1321 17       		.byte	0x17
 2615 1322 39       		.byte	0x39
 2616 1323 A2000000 		.4byte	0xa2
 2617 1327 08       		.byte	0x8
 2618 1328 0E       		.uleb128 0xe
 2619 1329 25090000 		.4byte	.LASF281
 2620 132d 17       		.byte	0x17
ARM GAS  /var/folders/qd/4mxf5pkd0zdf0b9dd1hp39180000gn/T//ccmJvynR.s 			page 47


 2621 132e 3A       		.byte	0x3a
 2622 132f A2000000 		.4byte	0xa2
 2623 1333 09       		.byte	0x9
 2624 1334 0E       		.uleb128 0xe
 2625 1335 2F030000 		.4byte	.LASF282
 2626 1339 17       		.byte	0x17
 2627 133a 3B       		.byte	0x3b
 2628 133b A2000000 		.4byte	0xa2
 2629 133f 0A       		.byte	0xa
 2630 1340 0E       		.uleb128 0xe
 2631 1341 7B050000 		.4byte	.LASF283
 2632 1345 17       		.byte	0x17
 2633 1346 3C       		.byte	0x3c
 2634 1347 A2000000 		.4byte	0xa2
 2635 134b 0B       		.byte	0xb
 2636 134c 0E       		.uleb128 0xe
 2637 134d E1010000 		.4byte	.LASF284
 2638 1351 17       		.byte	0x17
 2639 1352 3D       		.byte	0x3d
 2640 1353 A2000000 		.4byte	0xa2
 2641 1357 0C       		.byte	0xc
 2642 1358 0E       		.uleb128 0xe
 2643 1359 36050000 		.4byte	.LASF285
 2644 135d 17       		.byte	0x17
 2645 135e 3E       		.byte	0x3e
 2646 135f A2000000 		.4byte	0xa2
 2647 1363 0D       		.byte	0xd
 2648 1364 0E       		.uleb128 0xe
 2649 1365 920C0000 		.4byte	.LASF286
 2650 1369 17       		.byte	0x17
 2651 136a 3F       		.byte	0x3f
 2652 136b A2000000 		.4byte	0xa2
 2653 136f 0E       		.byte	0xe
 2654 1370 0E       		.uleb128 0xe
 2655 1371 22000000 		.4byte	.LASF287
 2656 1375 17       		.byte	0x17
 2657 1376 40       		.byte	0x40
 2658 1377 A2000000 		.4byte	0xa2
 2659 137b 0F       		.byte	0xf
 2660 137c 0E       		.uleb128 0xe
 2661 137d E70C0000 		.4byte	.LASF288
 2662 1381 17       		.byte	0x17
 2663 1382 41       		.byte	0x41
 2664 1383 A2000000 		.4byte	0xa2
 2665 1387 10       		.byte	0x10
 2666 1388 0E       		.uleb128 0xe
 2667 1389 87030000 		.4byte	.LASF289
 2668 138d 17       		.byte	0x17
 2669 138e 43       		.byte	0x43
 2670 138f A2000000 		.4byte	0xa2
 2671 1393 11       		.byte	0x11
 2672 1394 0E       		.uleb128 0xe
 2673 1395 050B0000 		.4byte	.LASF290
 2674 1399 17       		.byte	0x17
 2675 139a 44       		.byte	0x44
 2676 139b A2000000 		.4byte	0xa2
 2677 139f 12       		.byte	0x12
ARM GAS  /var/folders/qd/4mxf5pkd0zdf0b9dd1hp39180000gn/T//ccmJvynR.s 			page 48


 2678 13a0 0E       		.uleb128 0xe
 2679 13a1 E4090000 		.4byte	.LASF291
 2680 13a5 17       		.byte	0x17
 2681 13a6 45       		.byte	0x45
 2682 13a7 A2000000 		.4byte	0xa2
 2683 13ab 13       		.byte	0x13
 2684 13ac 0E       		.uleb128 0xe
 2685 13ad D4070000 		.4byte	.LASF292
 2686 13b1 17       		.byte	0x17
 2687 13b2 46       		.byte	0x46
 2688 13b3 A2000000 		.4byte	0xa2
 2689 13b7 14       		.byte	0x14
 2690 13b8 0E       		.uleb128 0xe
 2691 13b9 12050000 		.4byte	.LASF293
 2692 13bd 17       		.byte	0x17
 2693 13be 48       		.byte	0x48
 2694 13bf A2000000 		.4byte	0xa2
 2695 13c3 15       		.byte	0x15
 2696 13c4 00       		.byte	0
 2697 13c5 0B       		.uleb128 0xb
 2698 13c6 A1010000 		.4byte	0x1a1
 2699 13ca D5130000 		.4byte	0x13d5
 2700 13ce 0C       		.uleb128 0xc
 2701 13cf 9B000000 		.4byte	0x9b
 2702 13d3 03       		.byte	0x3
 2703 13d4 00       		.byte	0
 2704 13d5 03       		.uleb128 0x3
 2705 13d6 940D0000 		.4byte	.LASF294
 2706 13da 17       		.byte	0x17
 2707 13db 49       		.byte	0x49
 2708 13dc E4120000 		.4byte	0x12e4
 2709 13e0 10       		.uleb128 0x10
 2710 13e1 D5130000 		.4byte	0x13d5
 2711 13e5 11       		.uleb128 0x11
 2712 13e6 A3010000 		.4byte	.LASF295
 2713 13ea 17       		.byte	0x17
 2714 13eb 6E       		.byte	0x6e
 2715 13ec E0130000 		.4byte	0x13e0
 2716 13f0 03       		.uleb128 0x3
 2717 13f1 D00C0000 		.4byte	.LASF296
 2718 13f5 16       		.byte	0x16
 2719 13f6 34       		.byte	0x34
 2720 13f7 7A120000 		.4byte	0x127a
 2721 13fb 06       		.uleb128 0x6
 2722 13fc 04       		.byte	0x4
 2723 13fd F0130000 		.4byte	0x13f0
 2724 1401 12       		.uleb128 0x12
 2725 1402 2B080000 		.4byte	.LASF297
 2726 1406 08       		.byte	0x8
 2727 1407 18       		.byte	0x18
 2728 1408 3B       		.byte	0x3b
 2729 1409 1A140000 		.4byte	0x141a
 2730 140d 0E       		.uleb128 0xe
 2731 140e C3080000 		.4byte	.LASF298
 2732 1412 18       		.byte	0x18
 2733 1413 3C       		.byte	0x3c
 2734 1414 FA0C0000 		.4byte	0xcfa
ARM GAS  /var/folders/qd/4mxf5pkd0zdf0b9dd1hp39180000gn/T//ccmJvynR.s 			page 49


 2735 1418 00       		.byte	0
 2736 1419 00       		.byte	0
 2737 141a 03       		.uleb128 0x3
 2738 141b 89060000 		.4byte	.LASF299
 2739 141f 18       		.byte	0x18
 2740 1420 3E       		.byte	0x3e
 2741 1421 01140000 		.4byte	0x1401
 2742 1425 27       		.uleb128 0x27
 2743 1426 020A0000 		.4byte	.LASF300
 2744 142a 01       		.byte	0x1
 2745 142b 10       		.byte	0x10
 2746 142c F0130000 		.4byte	0x13f0
 2747 1430 05       		.uleb128 0x5
 2748 1431 03       		.byte	0x3
 2749 1432 00000000 		.4byte	bus_lock
 2750 1436 27       		.uleb128 0x27
 2751 1437 E6020000 		.4byte	.LASF301
 2752 143b 01       		.byte	0x1
 2753 143c 11       		.byte	0x11
 2754 143d 1A140000 		.4byte	0x141a
 2755 1441 05       		.uleb128 0x5
 2756 1442 03       		.byte	0x3
 2757 1443 00000000 		.4byte	bus_condvar
 2758 1447 28       		.uleb128 0x28
 2759 1448 E3040000 		.4byte	.LASF304
 2760 144c 01       		.byte	0x1
 2761 144d 1E       		.byte	0x1e
 2762 144e 00000000 		.4byte	.LFB224
 2763 1452 4C000000 		.4byte	.LFE224-.LFB224
 2764 1456 01       		.uleb128 0x1
 2765 1457 9C       		.byte	0x9c
 2766 1458 D2140000 		.4byte	0x14d2
 2767 145c 29       		.uleb128 0x29
 2768 145d C6040000 		.4byte	.LASF315
 2769 1461 01       		.byte	0x1
 2770 1462 1E       		.byte	0x1e
 2771 1463 D2140000 		.4byte	0x14d2
 2772 1467 00000000 		.4byte	.LLST0
 2773 146b 2A       		.uleb128 0x2a
 2774 146c 48060000 		.4byte	.LASF302
 2775 1470 01       		.byte	0x1
 2776 1471 1F       		.byte	0x1f
 2777 1472 9E030000 		.4byte	0x39e
 2778 1476 03       		.uleb128 0x3
 2779 1477 91       		.byte	0x91
 2780 1478 EC7E     		.sleb128 -148
 2781 147a 2B       		.uleb128 0x2b
 2782 147b 57080000 		.4byte	.LASF303
 2783 147f 01       		.byte	0x1
 2784 1480 20       		.byte	0x20
 2785 1481 CA020000 		.4byte	0x2ca
 2786 1485 1E000000 		.4byte	.LLST1
 2787 1489 2C       		.uleb128 0x2c
 2788 148a 6900     		.ascii	"i\000"
 2789 148c 01       		.byte	0x1
 2790 148d 22       		.byte	0x22
 2791 148e 94000000 		.4byte	0x94
ARM GAS  /var/folders/qd/4mxf5pkd0zdf0b9dd1hp39180000gn/T//ccmJvynR.s 			page 50


 2792 1492 31000000 		.4byte	.LLST2
 2793 1496 2D       		.uleb128 0x2d
 2794 1497 14000000 		.4byte	.LVL8
 2795 149b 55150000 		.4byte	0x1555
 2796 149f AD140000 		.4byte	0x14ad
 2797 14a3 2E       		.uleb128 0x2e
 2798 14a4 01       		.uleb128 0x1
 2799 14a5 51       		.byte	0x51
 2800 14a6 05       		.uleb128 0x5
 2801 14a7 03       		.byte	0x3
 2802 14a8 00000000 		.4byte	.LC0
 2803 14ac 00       		.byte	0
 2804 14ad 2D       		.uleb128 0x2d
 2805 14ae 1C000000 		.4byte	.LVL9
 2806 14b2 60150000 		.4byte	0x1560
 2807 14b6 C8140000 		.4byte	0x14c8
 2808 14ba 2E       		.uleb128 0x2e
 2809 14bb 01       		.uleb128 0x1
 2810 14bc 51       		.byte	0x51
 2811 14bd 03       		.uleb128 0x3
 2812 14be 91       		.byte	0x91
 2813 14bf EC7E     		.sleb128 -148
 2814 14c1 2E       		.uleb128 0x2e
 2815 14c2 01       		.uleb128 0x1
 2816 14c3 52       		.byte	0x52
 2817 14c4 02       		.uleb128 0x2
 2818 14c5 08       		.byte	0x8
 2819 14c6 80       		.byte	0x80
 2820 14c7 00       		.byte	0
 2821 14c8 2F       		.uleb128 0x2f
 2822 14c9 40000000 		.4byte	.LVL12
 2823 14cd 6B150000 		.4byte	0x156b
 2824 14d1 00       		.byte	0
 2825 14d2 06       		.uleb128 0x6
 2826 14d3 04       		.byte	0x4
 2827 14d4 94000000 		.4byte	0x94
 2828 14d8 30       		.uleb128 0x30
 2829 14d9 00040000 		.4byte	.LASF316
 2830 14dd 01       		.byte	0x1
 2831 14de 19       		.byte	0x19
 2832 14df AD000000 		.4byte	0xad
 2833 14e3 00000000 		.4byte	.LFB223
 2834 14e7 24000000 		.4byte	.LFE223-.LFB223
 2835 14eb 01       		.uleb128 0x1
 2836 14ec 9C       		.byte	0x9c
 2837 14ed 04150000 		.4byte	0x1504
 2838 14f1 31       		.uleb128 0x31
 2839 14f2 1C000000 		.4byte	.LVL4
 2840 14f6 74150000 		.4byte	0x1574
 2841 14fa 2F       		.uleb128 0x2f
 2842 14fb 20000000 		.4byte	.LVL5
 2843 14ff 6B150000 		.4byte	0x156b
 2844 1503 00       		.byte	0
 2845 1504 28       		.uleb128 0x28
 2846 1505 BF070000 		.4byte	.LASF305
 2847 1509 01       		.byte	0x1
 2848 150a 13       		.byte	0x13
ARM GAS  /var/folders/qd/4mxf5pkd0zdf0b9dd1hp39180000gn/T//ccmJvynR.s 			page 51


 2849 150b 00000000 		.4byte	.LFB222
 2850 150f 40000000 		.4byte	.LFE222-.LFB222
 2851 1513 01       		.uleb128 0x1
 2852 1514 9C       		.byte	0x9c
 2853 1515 55150000 		.4byte	0x1555
 2854 1519 2F       		.uleb128 0x2f
 2855 151a 0E000000 		.4byte	.LVL0
 2856 151e 7F150000 		.4byte	0x157f
 2857 1522 2D       		.uleb128 0x2d
 2858 1523 18000000 		.4byte	.LVL1
 2859 1527 8A150000 		.4byte	0x158a
 2860 152b 42150000 		.4byte	0x1542
 2861 152f 2E       		.uleb128 0x2e
 2862 1530 01       		.uleb128 0x1
 2863 1531 51       		.byte	0x51
 2864 1532 05       		.uleb128 0x5
 2865 1533 03       		.byte	0x3
 2866 1534 00000000 		.4byte	.LANCHOR1
 2867 1538 2E       		.uleb128 0x2e
 2868 1539 01       		.uleb128 0x1
 2869 153a 52       		.byte	0x52
 2870 153b 05       		.uleb128 0x5
 2871 153c 03       		.byte	0x3
 2872 153d 00000000 		.4byte	.LANCHOR0
 2873 1541 00       		.byte	0
 2874 1542 31       		.uleb128 0x31
 2875 1543 2A000000 		.4byte	.LVL2
 2876 1547 95150000 		.4byte	0x1595
 2877 154b 2F       		.uleb128 0x2f
 2878 154c 2E000000 		.4byte	.LVL3
 2879 1550 6B150000 		.4byte	0x156b
 2880 1554 00       		.byte	0
 2881 1555 32       		.uleb128 0x32
 2882 1556 65090000 		.4byte	.LASF306
 2883 155a 65090000 		.4byte	.LASF306
 2884 155e 08       		.byte	0x8
 2885 155f 64       		.byte	0x64
 2886 1560 32       		.uleb128 0x32
 2887 1561 290C0000 		.4byte	.LASF307
 2888 1565 290C0000 		.4byte	.LASF307
 2889 1569 08       		.byte	0x8
 2890 156a 83       		.byte	0x83
 2891 156b 33       		.uleb128 0x33
 2892 156c F9070000 		.4byte	.LASF317
 2893 1570 F9070000 		.4byte	.LASF317
 2894 1574 32       		.uleb128 0x32
 2895 1575 5E050000 		.4byte	.LASF308
 2896 1579 5E050000 		.4byte	.LASF308
 2897 157d 19       		.byte	0x19
 2898 157e 51       		.byte	0x51
 2899 157f 32       		.uleb128 0x32
 2900 1580 AD0B0000 		.4byte	.LASF309
 2901 1584 AD0B0000 		.4byte	.LASF309
 2902 1588 19       		.byte	0x19
 2903 1589 44       		.byte	0x44
 2904 158a 32       		.uleb128 0x32
 2905 158b 43050000 		.4byte	.LASF310
ARM GAS  /var/folders/qd/4mxf5pkd0zdf0b9dd1hp39180000gn/T//ccmJvynR.s 			page 52


 2906 158f 43050000 		.4byte	.LASF310
 2907 1593 08       		.byte	0x8
 2908 1594 49       		.byte	0x49
 2909 1595 32       		.uleb128 0x32
 2910 1596 060D0000 		.4byte	.LASF311
 2911 159a 060D0000 		.4byte	.LASF311
 2912 159e 09       		.byte	0x9
 2913 159f 22       		.byte	0x22
 2914 15a0 00       		.byte	0
 2915              		.section	.debug_abbrev,"",%progbits
 2916              	.Ldebug_abbrev0:
 2917 0000 01       		.uleb128 0x1
 2918 0001 11       		.uleb128 0x11
 2919 0002 01       		.byte	0x1
 2920 0003 25       		.uleb128 0x25
 2921 0004 0E       		.uleb128 0xe
 2922 0005 13       		.uleb128 0x13
 2923 0006 0B       		.uleb128 0xb
 2924 0007 03       		.uleb128 0x3
 2925 0008 0E       		.uleb128 0xe
 2926 0009 1B       		.uleb128 0x1b
 2927 000a 0E       		.uleb128 0xe
 2928 000b 55       		.uleb128 0x55
 2929 000c 17       		.uleb128 0x17
 2930 000d 11       		.uleb128 0x11
 2931 000e 01       		.uleb128 0x1
 2932 000f 10       		.uleb128 0x10
 2933 0010 17       		.uleb128 0x17
 2934 0011 00       		.byte	0
 2935 0012 00       		.byte	0
 2936 0013 02       		.uleb128 0x2
 2937 0014 24       		.uleb128 0x24
 2938 0015 00       		.byte	0
 2939 0016 0B       		.uleb128 0xb
 2940 0017 0B       		.uleb128 0xb
 2941 0018 3E       		.uleb128 0x3e
 2942 0019 0B       		.uleb128 0xb
 2943 001a 03       		.uleb128 0x3
 2944 001b 0E       		.uleb128 0xe
 2945 001c 00       		.byte	0
 2946 001d 00       		.byte	0
 2947 001e 03       		.uleb128 0x3
 2948 001f 16       		.uleb128 0x16
 2949 0020 00       		.byte	0
 2950 0021 03       		.uleb128 0x3
 2951 0022 0E       		.uleb128 0xe
 2952 0023 3A       		.uleb128 0x3a
 2953 0024 0B       		.uleb128 0xb
 2954 0025 3B       		.uleb128 0x3b
 2955 0026 0B       		.uleb128 0xb
 2956 0027 49       		.uleb128 0x49
 2957 0028 13       		.uleb128 0x13
 2958 0029 00       		.byte	0
 2959 002a 00       		.byte	0
 2960 002b 04       		.uleb128 0x4
 2961 002c 24       		.uleb128 0x24
 2962 002d 00       		.byte	0
ARM GAS  /var/folders/qd/4mxf5pkd0zdf0b9dd1hp39180000gn/T//ccmJvynR.s 			page 53


 2963 002e 0B       		.uleb128 0xb
 2964 002f 0B       		.uleb128 0xb
 2965 0030 3E       		.uleb128 0x3e
 2966 0031 0B       		.uleb128 0xb
 2967 0032 03       		.uleb128 0x3
 2968 0033 08       		.uleb128 0x8
 2969 0034 00       		.byte	0
 2970 0035 00       		.byte	0
 2971 0036 05       		.uleb128 0x5
 2972 0037 35       		.uleb128 0x35
 2973 0038 00       		.byte	0
 2974 0039 49       		.uleb128 0x49
 2975 003a 13       		.uleb128 0x13
 2976 003b 00       		.byte	0
 2977 003c 00       		.byte	0
 2978 003d 06       		.uleb128 0x6
 2979 003e 0F       		.uleb128 0xf
 2980 003f 00       		.byte	0
 2981 0040 0B       		.uleb128 0xb
 2982 0041 0B       		.uleb128 0xb
 2983 0042 49       		.uleb128 0x49
 2984 0043 13       		.uleb128 0x13
 2985 0044 00       		.byte	0
 2986 0045 00       		.byte	0
 2987 0046 07       		.uleb128 0x7
 2988 0047 13       		.uleb128 0x13
 2989 0048 00       		.byte	0
 2990 0049 03       		.uleb128 0x3
 2991 004a 0E       		.uleb128 0xe
 2992 004b 3C       		.uleb128 0x3c
 2993 004c 19       		.uleb128 0x19
 2994 004d 00       		.byte	0
 2995 004e 00       		.byte	0
 2996 004f 08       		.uleb128 0x8
 2997 0050 16       		.uleb128 0x16
 2998 0051 00       		.byte	0
 2999 0052 03       		.uleb128 0x3
 3000 0053 0E       		.uleb128 0xe
 3001 0054 3A       		.uleb128 0x3a
 3002 0055 0B       		.uleb128 0xb
 3003 0056 3B       		.uleb128 0x3b
 3004 0057 05       		.uleb128 0x5
 3005 0058 49       		.uleb128 0x49
 3006 0059 13       		.uleb128 0x13
 3007 005a 00       		.byte	0
 3008 005b 00       		.byte	0
 3009 005c 09       		.uleb128 0x9
 3010 005d 17       		.uleb128 0x17
 3011 005e 01       		.byte	0x1
 3012 005f 0B       		.uleb128 0xb
 3013 0060 0B       		.uleb128 0xb
 3014 0061 3A       		.uleb128 0x3a
 3015 0062 0B       		.uleb128 0xb
 3016 0063 3B       		.uleb128 0x3b
 3017 0064 0B       		.uleb128 0xb
 3018 0065 01       		.uleb128 0x1
 3019 0066 13       		.uleb128 0x13
ARM GAS  /var/folders/qd/4mxf5pkd0zdf0b9dd1hp39180000gn/T//ccmJvynR.s 			page 54


 3020 0067 00       		.byte	0
 3021 0068 00       		.byte	0
 3022 0069 0A       		.uleb128 0xa
 3023 006a 0D       		.uleb128 0xd
 3024 006b 00       		.byte	0
 3025 006c 03       		.uleb128 0x3
 3026 006d 0E       		.uleb128 0xe
 3027 006e 3A       		.uleb128 0x3a
 3028 006f 0B       		.uleb128 0xb
 3029 0070 3B       		.uleb128 0x3b
 3030 0071 0B       		.uleb128 0xb
 3031 0072 49       		.uleb128 0x49
 3032 0073 13       		.uleb128 0x13
 3033 0074 00       		.byte	0
 3034 0075 00       		.byte	0
 3035 0076 0B       		.uleb128 0xb
 3036 0077 01       		.uleb128 0x1
 3037 0078 01       		.byte	0x1
 3038 0079 49       		.uleb128 0x49
 3039 007a 13       		.uleb128 0x13
 3040 007b 01       		.uleb128 0x1
 3041 007c 13       		.uleb128 0x13
 3042 007d 00       		.byte	0
 3043 007e 00       		.byte	0
 3044 007f 0C       		.uleb128 0xc
 3045 0080 21       		.uleb128 0x21
 3046 0081 00       		.byte	0
 3047 0082 49       		.uleb128 0x49
 3048 0083 13       		.uleb128 0x13
 3049 0084 2F       		.uleb128 0x2f
 3050 0085 0B       		.uleb128 0xb
 3051 0086 00       		.byte	0
 3052 0087 00       		.byte	0
 3053 0088 0D       		.uleb128 0xd
 3054 0089 13       		.uleb128 0x13
 3055 008a 01       		.byte	0x1
 3056 008b 0B       		.uleb128 0xb
 3057 008c 0B       		.uleb128 0xb
 3058 008d 3A       		.uleb128 0x3a
 3059 008e 0B       		.uleb128 0xb
 3060 008f 3B       		.uleb128 0x3b
 3061 0090 0B       		.uleb128 0xb
 3062 0091 01       		.uleb128 0x1
 3063 0092 13       		.uleb128 0x13
 3064 0093 00       		.byte	0
 3065 0094 00       		.byte	0
 3066 0095 0E       		.uleb128 0xe
 3067 0096 0D       		.uleb128 0xd
 3068 0097 00       		.byte	0
 3069 0098 03       		.uleb128 0x3
 3070 0099 0E       		.uleb128 0xe
 3071 009a 3A       		.uleb128 0x3a
 3072 009b 0B       		.uleb128 0xb
 3073 009c 3B       		.uleb128 0x3b
 3074 009d 0B       		.uleb128 0xb
 3075 009e 49       		.uleb128 0x49
 3076 009f 13       		.uleb128 0x13
ARM GAS  /var/folders/qd/4mxf5pkd0zdf0b9dd1hp39180000gn/T//ccmJvynR.s 			page 55


 3077 00a0 38       		.uleb128 0x38
 3078 00a1 0B       		.uleb128 0xb
 3079 00a2 00       		.byte	0
 3080 00a3 00       		.byte	0
 3081 00a4 0F       		.uleb128 0xf
 3082 00a5 0F       		.uleb128 0xf
 3083 00a6 00       		.byte	0
 3084 00a7 0B       		.uleb128 0xb
 3085 00a8 0B       		.uleb128 0xb
 3086 00a9 00       		.byte	0
 3087 00aa 00       		.byte	0
 3088 00ab 10       		.uleb128 0x10
 3089 00ac 26       		.uleb128 0x26
 3090 00ad 00       		.byte	0
 3091 00ae 49       		.uleb128 0x49
 3092 00af 13       		.uleb128 0x13
 3093 00b0 00       		.byte	0
 3094 00b1 00       		.byte	0
 3095 00b2 11       		.uleb128 0x11
 3096 00b3 34       		.uleb128 0x34
 3097 00b4 00       		.byte	0
 3098 00b5 03       		.uleb128 0x3
 3099 00b6 0E       		.uleb128 0xe
 3100 00b7 3A       		.uleb128 0x3a
 3101 00b8 0B       		.uleb128 0xb
 3102 00b9 3B       		.uleb128 0x3b
 3103 00ba 0B       		.uleb128 0xb
 3104 00bb 49       		.uleb128 0x49
 3105 00bc 13       		.uleb128 0x13
 3106 00bd 3F       		.uleb128 0x3f
 3107 00be 19       		.uleb128 0x19
 3108 00bf 3C       		.uleb128 0x3c
 3109 00c0 19       		.uleb128 0x19
 3110 00c1 00       		.byte	0
 3111 00c2 00       		.byte	0
 3112 00c3 12       		.uleb128 0x12
 3113 00c4 13       		.uleb128 0x13
 3114 00c5 01       		.byte	0x1
 3115 00c6 03       		.uleb128 0x3
 3116 00c7 0E       		.uleb128 0xe
 3117 00c8 0B       		.uleb128 0xb
 3118 00c9 0B       		.uleb128 0xb
 3119 00ca 3A       		.uleb128 0x3a
 3120 00cb 0B       		.uleb128 0xb
 3121 00cc 3B       		.uleb128 0x3b
 3122 00cd 0B       		.uleb128 0xb
 3123 00ce 01       		.uleb128 0x1
 3124 00cf 13       		.uleb128 0x13
 3125 00d0 00       		.byte	0
 3126 00d1 00       		.byte	0
 3127 00d2 13       		.uleb128 0x13
 3128 00d3 34       		.uleb128 0x34
 3129 00d4 00       		.byte	0
 3130 00d5 03       		.uleb128 0x3
 3131 00d6 08       		.uleb128 0x8
 3132 00d7 3A       		.uleb128 0x3a
 3133 00d8 0B       		.uleb128 0xb
ARM GAS  /var/folders/qd/4mxf5pkd0zdf0b9dd1hp39180000gn/T//ccmJvynR.s 			page 56


 3134 00d9 3B       		.uleb128 0x3b
 3135 00da 0B       		.uleb128 0xb
 3136 00db 49       		.uleb128 0x49
 3137 00dc 13       		.uleb128 0x13
 3138 00dd 3F       		.uleb128 0x3f
 3139 00de 19       		.uleb128 0x19
 3140 00df 3C       		.uleb128 0x3c
 3141 00e0 19       		.uleb128 0x19
 3142 00e1 00       		.byte	0
 3143 00e2 00       		.byte	0
 3144 00e3 14       		.uleb128 0x14
 3145 00e4 0D       		.uleb128 0xd
 3146 00e5 00       		.byte	0
 3147 00e6 03       		.uleb128 0x3
 3148 00e7 08       		.uleb128 0x8
 3149 00e8 3A       		.uleb128 0x3a
 3150 00e9 0B       		.uleb128 0xb
 3151 00ea 3B       		.uleb128 0x3b
 3152 00eb 0B       		.uleb128 0xb
 3153 00ec 49       		.uleb128 0x49
 3154 00ed 13       		.uleb128 0x13
 3155 00ee 38       		.uleb128 0x38
 3156 00ef 0B       		.uleb128 0xb
 3157 00f0 00       		.byte	0
 3158 00f1 00       		.byte	0
 3159 00f2 15       		.uleb128 0x15
 3160 00f3 13       		.uleb128 0x13
 3161 00f4 01       		.byte	0x1
 3162 00f5 03       		.uleb128 0x3
 3163 00f6 0E       		.uleb128 0xe
 3164 00f7 0B       		.uleb128 0xb
 3165 00f8 05       		.uleb128 0x5
 3166 00f9 3A       		.uleb128 0x3a
 3167 00fa 0B       		.uleb128 0xb
 3168 00fb 3B       		.uleb128 0x3b
 3169 00fc 0B       		.uleb128 0xb
 3170 00fd 01       		.uleb128 0x1
 3171 00fe 13       		.uleb128 0x13
 3172 00ff 00       		.byte	0
 3173 0100 00       		.byte	0
 3174 0101 16       		.uleb128 0x16
 3175 0102 0D       		.uleb128 0xd
 3176 0103 00       		.byte	0
 3177 0104 03       		.uleb128 0x3
 3178 0105 0E       		.uleb128 0xe
 3179 0106 3A       		.uleb128 0x3a
 3180 0107 0B       		.uleb128 0xb
 3181 0108 3B       		.uleb128 0x3b
 3182 0109 0B       		.uleb128 0xb
 3183 010a 49       		.uleb128 0x49
 3184 010b 13       		.uleb128 0x13
 3185 010c 38       		.uleb128 0x38
 3186 010d 05       		.uleb128 0x5
 3187 010e 00       		.byte	0
 3188 010f 00       		.byte	0
 3189 0110 17       		.uleb128 0x17
 3190 0111 15       		.uleb128 0x15
ARM GAS  /var/folders/qd/4mxf5pkd0zdf0b9dd1hp39180000gn/T//ccmJvynR.s 			page 57


 3191 0112 00       		.byte	0
 3192 0113 27       		.uleb128 0x27
 3193 0114 19       		.uleb128 0x19
 3194 0115 00       		.byte	0
 3195 0116 00       		.byte	0
 3196 0117 18       		.uleb128 0x18
 3197 0118 15       		.uleb128 0x15
 3198 0119 01       		.byte	0x1
 3199 011a 27       		.uleb128 0x27
 3200 011b 19       		.uleb128 0x19
 3201 011c 49       		.uleb128 0x49
 3202 011d 13       		.uleb128 0x13
 3203 011e 01       		.uleb128 0x1
 3204 011f 13       		.uleb128 0x13
 3205 0120 00       		.byte	0
 3206 0121 00       		.byte	0
 3207 0122 19       		.uleb128 0x19
 3208 0123 05       		.uleb128 0x5
 3209 0124 00       		.byte	0
 3210 0125 49       		.uleb128 0x49
 3211 0126 13       		.uleb128 0x13
 3212 0127 00       		.byte	0
 3213 0128 00       		.byte	0
 3214 0129 1A       		.uleb128 0x1a
 3215 012a 13       		.uleb128 0x13
 3216 012b 01       		.byte	0x1
 3217 012c 03       		.uleb128 0x3
 3218 012d 0E       		.uleb128 0xe
 3219 012e 0B       		.uleb128 0xb
 3220 012f 05       		.uleb128 0x5
 3221 0130 3A       		.uleb128 0x3a
 3222 0131 0B       		.uleb128 0xb
 3223 0132 3B       		.uleb128 0x3b
 3224 0133 05       		.uleb128 0x5
 3225 0134 01       		.uleb128 0x1
 3226 0135 13       		.uleb128 0x13
 3227 0136 00       		.byte	0
 3228 0137 00       		.byte	0
 3229 0138 1B       		.uleb128 0x1b
 3230 0139 0D       		.uleb128 0xd
 3231 013a 00       		.byte	0
 3232 013b 03       		.uleb128 0x3
 3233 013c 0E       		.uleb128 0xe
 3234 013d 3A       		.uleb128 0x3a
 3235 013e 0B       		.uleb128 0xb
 3236 013f 3B       		.uleb128 0x3b
 3237 0140 05       		.uleb128 0x5
 3238 0141 49       		.uleb128 0x49
 3239 0142 13       		.uleb128 0x13
 3240 0143 38       		.uleb128 0x38
 3241 0144 0B       		.uleb128 0xb
 3242 0145 00       		.byte	0
 3243 0146 00       		.byte	0
 3244 0147 1C       		.uleb128 0x1c
 3245 0148 0D       		.uleb128 0xd
 3246 0149 00       		.byte	0
 3247 014a 03       		.uleb128 0x3
ARM GAS  /var/folders/qd/4mxf5pkd0zdf0b9dd1hp39180000gn/T//ccmJvynR.s 			page 58


 3248 014b 0E       		.uleb128 0xe
 3249 014c 3A       		.uleb128 0x3a
 3250 014d 0B       		.uleb128 0xb
 3251 014e 3B       		.uleb128 0x3b
 3252 014f 05       		.uleb128 0x5
 3253 0150 49       		.uleb128 0x49
 3254 0151 13       		.uleb128 0x13
 3255 0152 38       		.uleb128 0x38
 3256 0153 05       		.uleb128 0x5
 3257 0154 00       		.byte	0
 3258 0155 00       		.byte	0
 3259 0156 1D       		.uleb128 0x1d
 3260 0157 13       		.uleb128 0x13
 3261 0158 01       		.byte	0x1
 3262 0159 03       		.uleb128 0x3
 3263 015a 0E       		.uleb128 0xe
 3264 015b 0B       		.uleb128 0xb
 3265 015c 0B       		.uleb128 0xb
 3266 015d 3A       		.uleb128 0x3a
 3267 015e 0B       		.uleb128 0xb
 3268 015f 3B       		.uleb128 0x3b
 3269 0160 05       		.uleb128 0x5
 3270 0161 01       		.uleb128 0x1
 3271 0162 13       		.uleb128 0x13
 3272 0163 00       		.byte	0
 3273 0164 00       		.byte	0
 3274 0165 1E       		.uleb128 0x1e
 3275 0166 13       		.uleb128 0x13
 3276 0167 01       		.byte	0x1
 3277 0168 0B       		.uleb128 0xb
 3278 0169 0B       		.uleb128 0xb
 3279 016a 3A       		.uleb128 0x3a
 3280 016b 0B       		.uleb128 0xb
 3281 016c 3B       		.uleb128 0x3b
 3282 016d 05       		.uleb128 0x5
 3283 016e 01       		.uleb128 0x1
 3284 016f 13       		.uleb128 0x13
 3285 0170 00       		.byte	0
 3286 0171 00       		.byte	0
 3287 0172 1F       		.uleb128 0x1f
 3288 0173 17       		.uleb128 0x17
 3289 0174 01       		.byte	0x1
 3290 0175 0B       		.uleb128 0xb
 3291 0176 0B       		.uleb128 0xb
 3292 0177 3A       		.uleb128 0x3a
 3293 0178 0B       		.uleb128 0xb
 3294 0179 3B       		.uleb128 0x3b
 3295 017a 05       		.uleb128 0x5
 3296 017b 01       		.uleb128 0x1
 3297 017c 13       		.uleb128 0x13
 3298 017d 00       		.byte	0
 3299 017e 00       		.byte	0
 3300 017f 20       		.uleb128 0x20
 3301 0180 0D       		.uleb128 0xd
 3302 0181 00       		.byte	0
 3303 0182 03       		.uleb128 0x3
 3304 0183 0E       		.uleb128 0xe
ARM GAS  /var/folders/qd/4mxf5pkd0zdf0b9dd1hp39180000gn/T//ccmJvynR.s 			page 59


 3305 0184 3A       		.uleb128 0x3a
 3306 0185 0B       		.uleb128 0xb
 3307 0186 3B       		.uleb128 0x3b
 3308 0187 05       		.uleb128 0x5
 3309 0188 49       		.uleb128 0x49
 3310 0189 13       		.uleb128 0x13
 3311 018a 00       		.byte	0
 3312 018b 00       		.byte	0
 3313 018c 21       		.uleb128 0x21
 3314 018d 15       		.uleb128 0x15
 3315 018e 01       		.byte	0x1
 3316 018f 27       		.uleb128 0x27
 3317 0190 19       		.uleb128 0x19
 3318 0191 01       		.uleb128 0x1
 3319 0192 13       		.uleb128 0x13
 3320 0193 00       		.byte	0
 3321 0194 00       		.byte	0
 3322 0195 22       		.uleb128 0x22
 3323 0196 34       		.uleb128 0x34
 3324 0197 00       		.byte	0
 3325 0198 03       		.uleb128 0x3
 3326 0199 0E       		.uleb128 0xe
 3327 019a 3A       		.uleb128 0x3a
 3328 019b 0B       		.uleb128 0xb
 3329 019c 3B       		.uleb128 0x3b
 3330 019d 05       		.uleb128 0x5
 3331 019e 49       		.uleb128 0x49
 3332 019f 13       		.uleb128 0x13
 3333 01a0 3F       		.uleb128 0x3f
 3334 01a1 19       		.uleb128 0x19
 3335 01a2 3C       		.uleb128 0x3c
 3336 01a3 19       		.uleb128 0x19
 3337 01a4 00       		.byte	0
 3338 01a5 00       		.byte	0
 3339 01a6 23       		.uleb128 0x23
 3340 01a7 0D       		.uleb128 0xd
 3341 01a8 00       		.byte	0
 3342 01a9 03       		.uleb128 0x3
 3343 01aa 08       		.uleb128 0x8
 3344 01ab 3A       		.uleb128 0x3a
 3345 01ac 0B       		.uleb128 0xb
 3346 01ad 3B       		.uleb128 0x3b
 3347 01ae 05       		.uleb128 0x5
 3348 01af 49       		.uleb128 0x49
 3349 01b0 13       		.uleb128 0x13
 3350 01b1 38       		.uleb128 0x38
 3351 01b2 0B       		.uleb128 0xb
 3352 01b3 00       		.byte	0
 3353 01b4 00       		.byte	0
 3354 01b5 24       		.uleb128 0x24
 3355 01b6 0D       		.uleb128 0xd
 3356 01b7 00       		.byte	0
 3357 01b8 03       		.uleb128 0x3
 3358 01b9 08       		.uleb128 0x8
 3359 01ba 3A       		.uleb128 0x3a
 3360 01bb 0B       		.uleb128 0xb
 3361 01bc 3B       		.uleb128 0x3b
ARM GAS  /var/folders/qd/4mxf5pkd0zdf0b9dd1hp39180000gn/T//ccmJvynR.s 			page 60


 3362 01bd 05       		.uleb128 0x5
 3363 01be 49       		.uleb128 0x49
 3364 01bf 13       		.uleb128 0x13
 3365 01c0 38       		.uleb128 0x38
 3366 01c1 05       		.uleb128 0x5
 3367 01c2 00       		.byte	0
 3368 01c3 00       		.byte	0
 3369 01c4 25       		.uleb128 0x25
 3370 01c5 13       		.uleb128 0x13
 3371 01c6 01       		.byte	0x1
 3372 01c7 0B       		.uleb128 0xb
 3373 01c8 05       		.uleb128 0x5
 3374 01c9 3A       		.uleb128 0x3a
 3375 01ca 0B       		.uleb128 0xb
 3376 01cb 3B       		.uleb128 0x3b
 3377 01cc 0B       		.uleb128 0xb
 3378 01cd 01       		.uleb128 0x1
 3379 01ce 13       		.uleb128 0x13
 3380 01cf 00       		.byte	0
 3381 01d0 00       		.byte	0
 3382 01d1 26       		.uleb128 0x26
 3383 01d2 34       		.uleb128 0x34
 3384 01d3 00       		.byte	0
 3385 01d4 03       		.uleb128 0x3
 3386 01d5 08       		.uleb128 0x8
 3387 01d6 3A       		.uleb128 0x3a
 3388 01d7 0B       		.uleb128 0xb
 3389 01d8 3B       		.uleb128 0x3b
 3390 01d9 05       		.uleb128 0x5
 3391 01da 49       		.uleb128 0x49
 3392 01db 13       		.uleb128 0x13
 3393 01dc 3F       		.uleb128 0x3f
 3394 01dd 19       		.uleb128 0x19
 3395 01de 3C       		.uleb128 0x3c
 3396 01df 19       		.uleb128 0x19
 3397 01e0 00       		.byte	0
 3398 01e1 00       		.byte	0
 3399 01e2 27       		.uleb128 0x27
 3400 01e3 34       		.uleb128 0x34
 3401 01e4 00       		.byte	0
 3402 01e5 03       		.uleb128 0x3
 3403 01e6 0E       		.uleb128 0xe
 3404 01e7 3A       		.uleb128 0x3a
 3405 01e8 0B       		.uleb128 0xb
 3406 01e9 3B       		.uleb128 0x3b
 3407 01ea 0B       		.uleb128 0xb
 3408 01eb 49       		.uleb128 0x49
 3409 01ec 13       		.uleb128 0x13
 3410 01ed 3F       		.uleb128 0x3f
 3411 01ee 19       		.uleb128 0x19
 3412 01ef 02       		.uleb128 0x2
 3413 01f0 18       		.uleb128 0x18
 3414 01f1 00       		.byte	0
 3415 01f2 00       		.byte	0
 3416 01f3 28       		.uleb128 0x28
 3417 01f4 2E       		.uleb128 0x2e
 3418 01f5 01       		.byte	0x1
ARM GAS  /var/folders/qd/4mxf5pkd0zdf0b9dd1hp39180000gn/T//ccmJvynR.s 			page 61


 3419 01f6 3F       		.uleb128 0x3f
 3420 01f7 19       		.uleb128 0x19
 3421 01f8 03       		.uleb128 0x3
 3422 01f9 0E       		.uleb128 0xe
 3423 01fa 3A       		.uleb128 0x3a
 3424 01fb 0B       		.uleb128 0xb
 3425 01fc 3B       		.uleb128 0x3b
 3426 01fd 0B       		.uleb128 0xb
 3427 01fe 27       		.uleb128 0x27
 3428 01ff 19       		.uleb128 0x19
 3429 0200 11       		.uleb128 0x11
 3430 0201 01       		.uleb128 0x1
 3431 0202 12       		.uleb128 0x12
 3432 0203 06       		.uleb128 0x6
 3433 0204 40       		.uleb128 0x40
 3434 0205 18       		.uleb128 0x18
 3435 0206 9742     		.uleb128 0x2117
 3436 0208 19       		.uleb128 0x19
 3437 0209 01       		.uleb128 0x1
 3438 020a 13       		.uleb128 0x13
 3439 020b 00       		.byte	0
 3440 020c 00       		.byte	0
 3441 020d 29       		.uleb128 0x29
 3442 020e 05       		.uleb128 0x5
 3443 020f 00       		.byte	0
 3444 0210 03       		.uleb128 0x3
 3445 0211 0E       		.uleb128 0xe
 3446 0212 3A       		.uleb128 0x3a
 3447 0213 0B       		.uleb128 0xb
 3448 0214 3B       		.uleb128 0x3b
 3449 0215 0B       		.uleb128 0xb
 3450 0216 49       		.uleb128 0x49
 3451 0217 13       		.uleb128 0x13
 3452 0218 02       		.uleb128 0x2
 3453 0219 17       		.uleb128 0x17
 3454 021a 00       		.byte	0
 3455 021b 00       		.byte	0
 3456 021c 2A       		.uleb128 0x2a
 3457 021d 34       		.uleb128 0x34
 3458 021e 00       		.byte	0
 3459 021f 03       		.uleb128 0x3
 3460 0220 0E       		.uleb128 0xe
 3461 0221 3A       		.uleb128 0x3a
 3462 0222 0B       		.uleb128 0xb
 3463 0223 3B       		.uleb128 0x3b
 3464 0224 0B       		.uleb128 0xb
 3465 0225 49       		.uleb128 0x49
 3466 0226 13       		.uleb128 0x13
 3467 0227 02       		.uleb128 0x2
 3468 0228 18       		.uleb128 0x18
 3469 0229 00       		.byte	0
 3470 022a 00       		.byte	0
 3471 022b 2B       		.uleb128 0x2b
 3472 022c 34       		.uleb128 0x34
 3473 022d 00       		.byte	0
 3474 022e 03       		.uleb128 0x3
 3475 022f 0E       		.uleb128 0xe
ARM GAS  /var/folders/qd/4mxf5pkd0zdf0b9dd1hp39180000gn/T//ccmJvynR.s 			page 62


 3476 0230 3A       		.uleb128 0x3a
 3477 0231 0B       		.uleb128 0xb
 3478 0232 3B       		.uleb128 0x3b
 3479 0233 0B       		.uleb128 0xb
 3480 0234 49       		.uleb128 0x49
 3481 0235 13       		.uleb128 0x13
 3482 0236 02       		.uleb128 0x2
 3483 0237 17       		.uleb128 0x17
 3484 0238 00       		.byte	0
 3485 0239 00       		.byte	0
 3486 023a 2C       		.uleb128 0x2c
 3487 023b 34       		.uleb128 0x34
 3488 023c 00       		.byte	0
 3489 023d 03       		.uleb128 0x3
 3490 023e 08       		.uleb128 0x8
 3491 023f 3A       		.uleb128 0x3a
 3492 0240 0B       		.uleb128 0xb
 3493 0241 3B       		.uleb128 0x3b
 3494 0242 0B       		.uleb128 0xb
 3495 0243 49       		.uleb128 0x49
 3496 0244 13       		.uleb128 0x13
 3497 0245 02       		.uleb128 0x2
 3498 0246 17       		.uleb128 0x17
 3499 0247 00       		.byte	0
 3500 0248 00       		.byte	0
 3501 0249 2D       		.uleb128 0x2d
 3502 024a 898201   		.uleb128 0x4109
 3503 024d 01       		.byte	0x1
 3504 024e 11       		.uleb128 0x11
 3505 024f 01       		.uleb128 0x1
 3506 0250 31       		.uleb128 0x31
 3507 0251 13       		.uleb128 0x13
 3508 0252 01       		.uleb128 0x1
 3509 0253 13       		.uleb128 0x13
 3510 0254 00       		.byte	0
 3511 0255 00       		.byte	0
 3512 0256 2E       		.uleb128 0x2e
 3513 0257 8A8201   		.uleb128 0x410a
 3514 025a 00       		.byte	0
 3515 025b 02       		.uleb128 0x2
 3516 025c 18       		.uleb128 0x18
 3517 025d 9142     		.uleb128 0x2111
 3518 025f 18       		.uleb128 0x18
 3519 0260 00       		.byte	0
 3520 0261 00       		.byte	0
 3521 0262 2F       		.uleb128 0x2f
 3522 0263 898201   		.uleb128 0x4109
 3523 0266 00       		.byte	0
 3524 0267 11       		.uleb128 0x11
 3525 0268 01       		.uleb128 0x1
 3526 0269 31       		.uleb128 0x31
 3527 026a 13       		.uleb128 0x13
 3528 026b 00       		.byte	0
 3529 026c 00       		.byte	0
 3530 026d 30       		.uleb128 0x30
 3531 026e 2E       		.uleb128 0x2e
 3532 026f 01       		.byte	0x1
ARM GAS  /var/folders/qd/4mxf5pkd0zdf0b9dd1hp39180000gn/T//ccmJvynR.s 			page 63


 3533 0270 3F       		.uleb128 0x3f
 3534 0271 19       		.uleb128 0x19
 3535 0272 03       		.uleb128 0x3
 3536 0273 0E       		.uleb128 0xe
 3537 0274 3A       		.uleb128 0x3a
 3538 0275 0B       		.uleb128 0xb
 3539 0276 3B       		.uleb128 0x3b
 3540 0277 0B       		.uleb128 0xb
 3541 0278 27       		.uleb128 0x27
 3542 0279 19       		.uleb128 0x19
 3543 027a 49       		.uleb128 0x49
 3544 027b 13       		.uleb128 0x13
 3545 027c 11       		.uleb128 0x11
 3546 027d 01       		.uleb128 0x1
 3547 027e 12       		.uleb128 0x12
 3548 027f 06       		.uleb128 0x6
 3549 0280 40       		.uleb128 0x40
 3550 0281 18       		.uleb128 0x18
 3551 0282 9742     		.uleb128 0x2117
 3552 0284 19       		.uleb128 0x19
 3553 0285 01       		.uleb128 0x1
 3554 0286 13       		.uleb128 0x13
 3555 0287 00       		.byte	0
 3556 0288 00       		.byte	0
 3557 0289 31       		.uleb128 0x31
 3558 028a 898201   		.uleb128 0x4109
 3559 028d 00       		.byte	0
 3560 028e 11       		.uleb128 0x11
 3561 028f 01       		.uleb128 0x1
 3562 0290 9542     		.uleb128 0x2115
 3563 0292 19       		.uleb128 0x19
 3564 0293 31       		.uleb128 0x31
 3565 0294 13       		.uleb128 0x13
 3566 0295 00       		.byte	0
 3567 0296 00       		.byte	0
 3568 0297 32       		.uleb128 0x32
 3569 0298 2E       		.uleb128 0x2e
 3570 0299 00       		.byte	0
 3571 029a 3F       		.uleb128 0x3f
 3572 029b 19       		.uleb128 0x19
 3573 029c 3C       		.uleb128 0x3c
 3574 029d 19       		.uleb128 0x19
 3575 029e 6E       		.uleb128 0x6e
 3576 029f 0E       		.uleb128 0xe
 3577 02a0 03       		.uleb128 0x3
 3578 02a1 0E       		.uleb128 0xe
 3579 02a2 3A       		.uleb128 0x3a
 3580 02a3 0B       		.uleb128 0xb
 3581 02a4 3B       		.uleb128 0x3b
 3582 02a5 0B       		.uleb128 0xb
 3583 02a6 00       		.byte	0
 3584 02a7 00       		.byte	0
 3585 02a8 33       		.uleb128 0x33
 3586 02a9 2E       		.uleb128 0x2e
 3587 02aa 00       		.byte	0
 3588 02ab 3F       		.uleb128 0x3f
 3589 02ac 19       		.uleb128 0x19
ARM GAS  /var/folders/qd/4mxf5pkd0zdf0b9dd1hp39180000gn/T//ccmJvynR.s 			page 64


 3590 02ad 3C       		.uleb128 0x3c
 3591 02ae 19       		.uleb128 0x19
 3592 02af 6E       		.uleb128 0x6e
 3593 02b0 0E       		.uleb128 0xe
 3594 02b1 03       		.uleb128 0x3
 3595 02b2 0E       		.uleb128 0xe
 3596 02b3 00       		.byte	0
 3597 02b4 00       		.byte	0
 3598 02b5 00       		.byte	0
 3599              		.section	.debug_loc,"",%progbits
 3600              	.Ldebug_loc0:
 3601              	.LLST0:
 3602 0000 00000000 		.4byte	.LVL6
 3603 0004 0E000000 		.4byte	.LVL7
 3604 0008 0100     		.2byte	0x1
 3605 000a 50       		.byte	0x50
 3606 000b 0E000000 		.4byte	.LVL7
 3607 000f 4C000000 		.4byte	.LFE224
 3608 0013 0100     		.2byte	0x1
 3609 0015 54       		.byte	0x54
 3610 0016 00000000 		.4byte	0
 3611 001a 00000000 		.4byte	0
 3612              	.LLST1:
 3613 001e 14000000 		.4byte	.LVL8
 3614 0022 1B000000 		.4byte	.LVL9-1
 3615 0026 0100     		.2byte	0x1
 3616 0028 50       		.byte	0x50
 3617 0029 00000000 		.4byte	0
 3618 002d 00000000 		.4byte	0
 3619              	.LLST2:
 3620 0031 1C000000 		.4byte	.LVL9
 3621 0035 24000000 		.4byte	.LVL10
 3622 0039 0200     		.2byte	0x2
 3623 003b 30       		.byte	0x30
 3624 003c 9F       		.byte	0x9f
 3625 003d 00000000 		.4byte	0
 3626 0041 00000000 		.4byte	0
 3627              		.section	.debug_aranges,"",%progbits
 3628 0000 2C000000 		.4byte	0x2c
 3629 0004 0200     		.2byte	0x2
 3630 0006 00000000 		.4byte	.Ldebug_info0
 3631 000a 04       		.byte	0x4
 3632 000b 00       		.byte	0
 3633 000c 0000     		.2byte	0
 3634 000e 0000     		.2byte	0
 3635 0010 00000000 		.4byte	.LFB222
 3636 0014 40000000 		.4byte	.LFE222-.LFB222
 3637 0018 00000000 		.4byte	.LFB223
 3638 001c 24000000 		.4byte	.LFE223-.LFB223
 3639 0020 00000000 		.4byte	.LFB224
 3640 0024 4C000000 		.4byte	.LFE224-.LFB224
 3641 0028 00000000 		.4byte	0
 3642 002c 00000000 		.4byte	0
 3643              		.section	.debug_ranges,"",%progbits
 3644              	.Ldebug_ranges0:
 3645 0000 00000000 		.4byte	.LFB222
 3646 0004 40000000 		.4byte	.LFE222
ARM GAS  /var/folders/qd/4mxf5pkd0zdf0b9dd1hp39180000gn/T//ccmJvynR.s 			page 65


 3647 0008 00000000 		.4byte	.LFB223
 3648 000c 24000000 		.4byte	.LFE223
 3649 0010 00000000 		.4byte	.LFB224
 3650 0014 4C000000 		.4byte	.LFE224
 3651 0018 00000000 		.4byte	0
 3652 001c 00000000 		.4byte	0
 3653              		.section	.debug_line,"",%progbits
 3654              	.Ldebug_line0:
 3655 0000 DE040000 		.section	.debug_str,"MS",%progbits,1
 3655      02008F04 
 3655      00000201 
 3655      FB0E0D00 
 3655      01010101 
 3656              	.LASF196:
 3657 0000 705F7374 		.ascii	"p_stats\000"
 3657      61747300 
 3658              	.LASF19:
 3659 0008 73697A65 		.ascii	"size_t\000"
 3659      5F7400
 3660              	.LASF22:
 3661 000f 5F5F6C6F 		.ascii	"__locale_t\000"
 3661      63616C65 
 3661      5F7400
 3662              	.LASF30:
 3663 001a 5F5F7661 		.ascii	"__value\000"
 3663      6C756500 
 3664              	.LASF287:
 3665 0022 63665F6F 		.ascii	"cf_off_name\000"
 3665      66665F6E 
 3665      616D6500 
 3666              	.LASF173:
 3667 002e 73797374 		.ascii	"systime_t\000"
 3667      696D655F 
 3667      7400
 3668              	.LASF129:
 3669 0038 5F5F7366 		.ascii	"__sf\000"
 3669      00
 3670              	.LASF276:
 3671 003d 63685F69 		.ascii	"ch_identifier\000"
 3671      64656E74 
 3671      69666965 
 3671      7200
 3672              	.LASF179:
 3673 004b 705F6374 		.ascii	"p_ctx\000"
 3673      7800
 3674              	.LASF96:
 3675 0051 5F726561 		.ascii	"_read\000"
 3675      6400
 3676              	.LASF168:
 3677 0057 74707269 		.ascii	"tprio_t\000"
 3677      6F5F7400 
 3678              	.LASF312:
 3679 005f 474E5520 		.ascii	"GNU C11 7.2.1 20170904 (release) [ARM/embedded-7-br"
 3679      43313120 
 3679      372E322E 
 3679      31203230 
 3679      31373039 
ARM GAS  /var/folders/qd/4mxf5pkd0zdf0b9dd1hp39180000gn/T//ccmJvynR.s 			page 66


 3680 0092 616E6368 		.ascii	"anch revision 255204] -mcpu=cortex-m4 -mfloat-abi=h"
 3680      20726576 
 3680      6973696F 
 3680      6E203235 
 3680      35323034 
 3681 00c5 61726420 		.ascii	"ard -mfpu=fpv4-sp-d16 -mno-thumb-interwork -mthumb "
 3681      2D6D6670 
 3681      753D6670 
 3681      76342D73 
 3681      702D6431 
 3682 00f8 2D676764 		.ascii	"-ggdb -O2 -fomit-frame-pointer -falign-functions=16"
 3682      62202D4F 
 3682      32202D66 
 3682      6F6D6974 
 3682      2D667261 
 3683 012b 202D666E 		.ascii	" -fno-strict-aliasing -fstack-protector-all -ffunct"
 3683      6F2D7374 
 3683      72696374 
 3683      2D616C69 
 3683      6173696E 
 3684 015e 696F6E2D 		.ascii	"ion-sections -fdata-sections -fno-common -fsingle-p"
 3684      73656374 
 3684      696F6E73 
 3684      202D6664 
 3684      6174612D 
 3685 0191 72656369 		.ascii	"recision-constant\000"
 3685      73696F6E 
 3685      2D636F6E 
 3685      7374616E 
 3685      7400
 3686              	.LASF295:
 3687 01a3 63685F64 		.ascii	"ch_debug\000"
 3687      65627567 
 3687      00
 3688              	.LASF190:
 3689 01ac 705F6D73 		.ascii	"p_msgqueue\000"
 3689      67717565 
 3689      756500
 3690              	.LASF97:
 3691 01b7 5F777269 		.ascii	"_write\000"
 3691      746500
 3692              	.LASF206:
 3693 01be 725F6374 		.ascii	"r_ctx\000"
 3693      7800
 3694              	.LASF16:
 3695 01c4 696E7433 		.ascii	"int32_t\000"
 3695      325F7400 
 3696              	.LASF140:
 3697 01cc 5F617363 		.ascii	"_asctime_buf\000"
 3697      74696D65 
 3697      5F627566 
 3697      00
 3698              	.LASF123:
 3699 01d9 5F637674 		.ascii	"_cvtlen\000"
 3699      6C656E00 
 3700              	.LASF284:
 3701 01e1 63665F6F 		.ascii	"cf_off_ctx\000"
ARM GAS  /var/folders/qd/4mxf5pkd0zdf0b9dd1hp39180000gn/T//ccmJvynR.s 			page 67


 3701      66665F63 
 3701      747800
 3702              	.LASF210:
 3703 01ec 76746675 		.ascii	"vtfunc_t\000"
 3703      6E635F74 
 3703      00
 3704              	.LASF219:
 3705 01f5 63685F76 		.ascii	"ch_virtual_timers_list\000"
 3705      69727475 
 3705      616C5F74 
 3705      696D6572 
 3705      735F6C69 
 3706              	.LASF159:
 3707 020c 5F756E75 		.ascii	"_unused\000"
 3707      73656400 
 3708              	.LASF70:
 3709 0214 5F5F746D 		.ascii	"__tm\000"
 3709      00
 3710              	.LASF155:
 3711 0219 5F776373 		.ascii	"_wcsrtombs_state\000"
 3711      72746F6D 
 3711      62735F73 
 3711      74617465 
 3711      00
 3712              	.LASF101:
 3713 022a 5F6E6275 		.ascii	"_nbuf\000"
 3713      6600
 3714              	.LASF71:
 3715 0230 5F5F746D 		.ascii	"__tm_sec\000"
 3715      5F736563 
 3715      00
 3716              	.LASF148:
 3717 0239 5F6C3634 		.ascii	"_l64a_buf\000"
 3717      615F6275 
 3717      6600
 3718              	.LASF314:
 3719 0243 2F557365 		.ascii	"/Users/nicolas/Library/Mobile Documents/com~apple~C"
 3719      72732F6E 
 3719      69636F6C 
 3719      61732F4C 
 3719      69627261 
 3720 0276 6C6F7564 		.ascii	"loudDocs/Projects/Cours/epuck_project/Sources\000"
 3720      446F6373 
 3720      2F50726F 
 3720      6A656374 
 3720      732F436F 
 3721              	.LASF105:
 3722 02a4 5F6C6F63 		.ascii	"_lock\000"
 3722      6B00
 3723              	.LASF225:
 3724 02aa 6C6F636B 		.ascii	"lock_cnt\000"
 3724      5F636E74 
 3724      00
 3725              	.LASF280:
 3726 02b3 63685F70 		.ascii	"ch_ptrsize\000"
 3726      74727369 
 3726      7A6500
ARM GAS  /var/folders/qd/4mxf5pkd0zdf0b9dd1hp39180000gn/T//ccmJvynR.s 			page 68


 3727              	.LASF136:
 3728 02be 5F6D756C 		.ascii	"_mult\000"
 3728      7400
 3729              	.LASF241:
 3730 02c4 73655F74 		.ascii	"se_tp\000"
 3730      7000
 3731              	.LASF255:
 3732 02ca 74696D65 		.ascii	"time_measurement_t\000"
 3732      5F6D6561 
 3732      73757265 
 3732      6D656E74 
 3732      5F7400
 3733              	.LASF46:
 3734 02dd 77617463 		.ascii	"watchers\000"
 3734      68657273 
 3734      00
 3735              	.LASF301:
 3736 02e6 6275735F 		.ascii	"bus_condvar\000"
 3736      636F6E64 
 3736      76617200 
 3737              	.LASF273:
 3738 02f2 6D5F6F77 		.ascii	"m_owner\000"
 3738      6E657200 
 3739              	.LASF217:
 3740 02fa 76745F70 		.ascii	"vt_par\000"
 3740      617200
 3741              	.LASF185:
 3742 0301 705F666C 		.ascii	"p_flags\000"
 3742      61677300 
 3743              	.LASF27:
 3744 0309 5F5F7763 		.ascii	"__wch\000"
 3744      6800
 3745              	.LASF262:
 3746 030f 65786974 		.ascii	"exitcode\000"
 3746      636F6465 
 3746      00
 3747              	.LASF3:
 3748 0318 5F5F7569 		.ascii	"__uint8_t\000"
 3748      6E74385F 
 3748      7400
 3749              	.LASF267:
 3750 0322 65776D61 		.ascii	"ewmask\000"
 3750      736B00
 3751              	.LASF93:
 3752 0329 5F66696C 		.ascii	"_file\000"
 3752      6500
 3753              	.LASF282:
 3754 032f 63685F74 		.ascii	"ch_threadsize\000"
 3754      68726561 
 3754      6473697A 
 3754      6500
 3755              	.LASF80:
 3756 033d 5F6F6E5F 		.ascii	"_on_exit_args\000"
 3756      65786974 
 3756      5F617267 
 3756      7300
 3757              	.LASF180:
ARM GAS  /var/folders/qd/4mxf5pkd0zdf0b9dd1hp39180000gn/T//ccmJvynR.s 			page 69


 3758 034b 705F6E65 		.ascii	"p_newer\000"
 3758      77657200 
 3759              	.LASF151:
 3760 0353 5F6D6272 		.ascii	"_mbrlen_state\000"
 3760      6C656E5F 
 3760      73746174 
 3760      6500
 3761              	.LASF7:
 3762 0361 6C6F6E67 		.ascii	"long int\000"
 3762      20696E74 
 3762      00
 3763              	.LASF176:
 3764 036a 705F6E65 		.ascii	"p_next\000"
 3764      787400
 3765              	.LASF160:
 3766 0371 5F696D70 		.ascii	"_impure_ptr\000"
 3766      7572655F 
 3766      70747200 
 3767              	.LASF120:
 3768 037d 5F726573 		.ascii	"_result_k\000"
 3768      756C745F 
 3768      6B00
 3769              	.LASF289:
 3770 0387 63665F6F 		.ascii	"cf_off_state\000"
 3770      66665F73 
 3770      74617465 
 3770      00
 3771              	.LASF90:
 3772 0394 5F73697A 		.ascii	"_size\000"
 3772      6500
 3773              	.LASF177:
 3774 039a 705F7072 		.ascii	"p_prev\000"
 3774      657600
 3775              	.LASF141:
 3776 03a1 5F6C6F63 		.ascii	"_localtime_buf\000"
 3776      616C7469 
 3776      6D655F62 
 3776      756600
 3777              	.LASF165:
 3778 03b0 74737461 		.ascii	"tstate_t\000"
 3778      74655F74 
 3778      00
 3779              	.LASF163:
 3780 03b9 72747469 		.ascii	"rttime_t\000"
 3780      6D655F74 
 3780      00
 3781              	.LASF200:
 3782 03c2 74687265 		.ascii	"threads_queue_t\000"
 3782      6164735F 
 3782      71756575 
 3782      655F7400 
 3783              	.LASF193:
 3784 03d2 705F6D74 		.ascii	"p_mtxlist\000"
 3784      786C6973 
 3784      7400
 3785              	.LASF236:
 3786 03dc 72656761 		.ascii	"regarm_t\000"
ARM GAS  /var/folders/qd/4mxf5pkd0zdf0b9dd1hp39180000gn/T//ccmJvynR.s 			page 70


 3786      726D5F74 
 3786      00
 3787              	.LASF75:
 3788 03e5 5F5F746D 		.ascii	"__tm_mon\000"
 3788      5F6D6F6E 
 3788      00
 3789              	.LASF53:
 3790 03ee 68656164 		.ascii	"head\000"
 3790      00
 3791              	.LASF138:
 3792 03f3 5F756E75 		.ascii	"_unused_rand\000"
 3792      7365645F 
 3792      72616E64 
 3792      00
 3793              	.LASF316:
 3794 0400 74657374 		.ascii	"testSensor\000"
 3794      53656E73 
 3794      6F7200
 3795              	.LASF0:
 3796 040b 7369676E 		.ascii	"signed char\000"
 3796      65642063 
 3796      68617200 
 3797              	.LASF187:
 3798 0417 705F7072 		.ascii	"p_preempt\000"
 3798      65656D70 
 3798      7400
 3799              	.LASF14:
 3800 0421 75696E74 		.ascii	"uint8_t\000"
 3800      385F7400 
 3801              	.LASF170:
 3802 0429 6576656E 		.ascii	"eventmask_t\000"
 3802      746D6173 
 3802      6B5F7400 
 3803              	.LASF238:
 3804 0435 636F6E74 		.ascii	"context\000"
 3804      65787400 
 3805              	.LASF52:
 3806 043d 6D657373 		.ascii	"messagebus_topic_t\000"
 3806      61676562 
 3806      75735F74 
 3806      6F706963 
 3806      5F7400
 3807              	.LASF264:
 3808 0450 77747472 		.ascii	"wttrp\000"
 3808      7000
 3809              	.LASF34:
 3810 0456 656E7669 		.ascii	"environ\000"
 3810      726F6E00 
 3811              	.LASF1:
 3812 045e 756E7369 		.ascii	"unsigned char\000"
 3812      676E6564 
 3812      20636861 
 3812      7200
 3813              	.LASF223:
 3814 046c 70616E69 		.ascii	"panic_msg\000"
 3814      635F6D73 
 3814      6700
ARM GAS  /var/folders/qd/4mxf5pkd0zdf0b9dd1hp39180000gn/T//ccmJvynR.s 			page 71


 3815              	.LASF115:
 3816 0476 5F756E73 		.ascii	"_unspecified_locale_info\000"
 3816      70656369 
 3816      66696564 
 3816      5F6C6F63 
 3816      616C655F 
 3817              	.LASF108:
 3818 048f 5F726565 		.ascii	"_reent\000"
 3818      6E7400
 3819              	.LASF207:
 3820 0496 725F6E65 		.ascii	"r_newer\000"
 3820      77657200 
 3821              	.LASF161:
 3822 049e 5F676C6F 		.ascii	"_global_impure_ptr\000"
 3822      62616C5F 
 3822      696D7075 
 3822      72655F70 
 3822      747200
 3823              	.LASF221:
 3824 04b1 73797374 		.ascii	"system_debug_t\000"
 3824      656D5F64 
 3824      65627567 
 3824      5F7400
 3825              	.LASF48:
 3826 04c0 5F426F6F 		.ascii	"_Bool\000"
 3826      6C00
 3827              	.LASF315:
 3828 04c6 7461626C 		.ascii	"table\000"
 3828      6500
 3829              	.LASF33:
 3830 04cc 63686172 		.ascii	"char\000"
 3830      00
 3831              	.LASF275:
 3832 04d1 6D5F636E 		.ascii	"m_cnt\000"
 3832      7400
 3833              	.LASF87:
 3834 04d7 5F666E73 		.ascii	"_fns\000"
 3834      00
 3835              	.LASF99:
 3836 04dc 5F636C6F 		.ascii	"_close\000"
 3836      736500
 3837              	.LASF304:
 3838 04e3 67657441 		.ascii	"getAllProximityValues\000"
 3838      6C6C5072 
 3838      6F78696D 
 3838      69747956 
 3838      616C7565 
 3839              	.LASF178:
 3840 04f9 705F7072 		.ascii	"p_prio\000"
 3840      696F00
 3841              	.LASF4:
 3842 0500 5F5F7569 		.ascii	"__uint16_t\000"
 3842      6E743136 
 3842      5F7400
 3843              	.LASF263:
 3844 050b 77746F62 		.ascii	"wtobjp\000"
 3844      6A7000
ARM GAS  /var/folders/qd/4mxf5pkd0zdf0b9dd1hp39180000gn/T//ccmJvynR.s 			page 72


 3845              	.LASF293:
 3846 0512 63665F6F 		.ascii	"cf_off_time\000"
 3846      66665F74 
 3846      696D6500 
 3847              	.LASF257:
 3848 051e 6E5F6374 		.ascii	"n_ctxswc\000"
 3848      78737763 
 3848      00
 3849              	.LASF110:
 3850 0527 5F737464 		.ascii	"_stdin\000"
 3850      696E00
 3851              	.LASF49:
 3852 052e 746F7069 		.ascii	"topic_s\000"
 3852      635F7300 
 3853              	.LASF285:
 3854 0536 63665F6F 		.ascii	"cf_off_newer\000"
 3854      66665F6E 
 3854      65776572 
 3854      00
 3855              	.LASF310:
 3856 0543 6D657373 		.ascii	"messagebus_init\000"
 3856      61676562 
 3856      75735F69 
 3856      6E697400 
 3857              	.LASF237:
 3858 0553 73746B61 		.ascii	"stkalign_t\000"
 3858      6C69676E 
 3858      5F7400
 3859              	.LASF308:
 3860 055e 564C3533 		.ascii	"VL53L0X_get_dist_mm\000"
 3860      4C30585F 
 3860      6765745F 
 3860      64697374 
 3860      5F6D6D00 
 3861              	.LASF39:
 3862 0572 6F707472 		.ascii	"optreset\000"
 3862      65736574 
 3862      00
 3863              	.LASF283:
 3864 057b 63665F6F 		.ascii	"cf_off_prio\000"
 3864      66665F70 
 3864      72696F00 
 3865              	.LASF252:
 3866 0587 776F7273 		.ascii	"worst\000"
 3866      7400
 3867              	.LASF171:
 3868 058d 636E745F 		.ascii	"cnt_t\000"
 3868      7400
 3869              	.LASF226:
 3870 0593 74726163 		.ascii	"trace_buffer\000"
 3870      655F6275 
 3870      66666572 
 3870      00
 3871              	.LASF216:
 3872 05a0 76745F66 		.ascii	"vt_func\000"
 3872      756E6300 
 3873              	.LASF40:
ARM GAS  /var/folders/qd/4mxf5pkd0zdf0b9dd1hp39180000gn/T//ccmJvynR.s 			page 73


 3874 05a8 62756666 		.ascii	"buffer\000"
 3874      657200
 3875              	.LASF95:
 3876 05af 5F636F6F 		.ascii	"_cookie\000"
 3876      6B696500 
 3877              	.LASF248:
 3878 05b7 63685F74 		.ascii	"ch_trace_buffer_t\000"
 3878      72616365 
 3878      5F627566 
 3878      6665725F 
 3878      7400
 3879              	.LASF192:
 3880 05c9 705F6570 		.ascii	"p_epending\000"
 3880      656E6469 
 3880      6E6700
 3881              	.LASF266:
 3882 05d4 77746D74 		.ascii	"wtmtxp\000"
 3882      787000
 3883              	.LASF69:
 3884 05db 5F776473 		.ascii	"_wds\000"
 3884      00
 3885              	.LASF203:
 3886 05e0 63685F72 		.ascii	"ch_ready_list\000"
 3886      65616479 
 3886      5F6C6973 
 3886      7400
 3887              	.LASF23:
 3888 05ee 5F5F6C6F 		.ascii	"__lock\000"
 3888      636B00
 3889              	.LASF127:
 3890 05f5 5F736967 		.ascii	"_sig_func\000"
 3890      5F66756E 
 3890      6300
 3891              	.LASF103:
 3892 05ff 5F6F6666 		.ascii	"_offset\000"
 3892      73657400 
 3893              	.LASF41:
 3894 0607 62756666 		.ascii	"buffer_len\000"
 3894      65725F6C 
 3894      656E00
 3895              	.LASF124:
 3896 0612 5F637674 		.ascii	"_cvtbuf\000"
 3896      62756600 
 3897              	.LASF224:
 3898 061a 6973725F 		.ascii	"isr_cnt\000"
 3898      636E7400 
 3899              	.LASF254:
 3900 0622 63756D75 		.ascii	"cumulative\000"
 3900      6C617469 
 3900      766500
 3901              	.LASF259:
 3902 062d 6D5F6372 		.ascii	"m_crit_isr\000"
 3902      69745F69 
 3902      737200
 3903              	.LASF36:
 3904 0638 6F707469 		.ascii	"optind\000"
 3904      6E6400
ARM GAS  /var/folders/qd/4mxf5pkd0zdf0b9dd1hp39180000gn/T//ccmJvynR.s 			page 74


 3905              	.LASF243:
 3906 063f 73655F73 		.ascii	"se_state\000"
 3906      74617465 
 3906      00
 3907              	.LASF302:
 3908 0648 70726F78 		.ascii	"prox_values\000"
 3908      5F76616C 
 3908      75657300 
 3909              	.LASF258:
 3910 0654 6D5F6372 		.ascii	"m_crit_thd\000"
 3910      69745F74 
 3910      686400
 3911              	.LASF11:
 3912 065f 5F5F7569 		.ascii	"__uint64_t\000"
 3912      6E743634 
 3912      5F7400
 3913              	.LASF121:
 3914 066a 5F703573 		.ascii	"_p5s\000"
 3914      00
 3915              	.LASF9:
 3916 066f 6C6F6E67 		.ascii	"long unsigned int\000"
 3916      20756E73 
 3916      69676E65 
 3916      6420696E 
 3916      7400
 3917              	.LASF277:
 3918 0681 63685F7A 		.ascii	"ch_zero\000"
 3918      65726F00 
 3919              	.LASF299:
 3920 0689 636F6E64 		.ascii	"condition_variable_t\000"
 3920      6974696F 
 3920      6E5F7661 
 3920      72696162 
 3920      6C655F74 
 3921              	.LASF91:
 3922 069e 5F5F7346 		.ascii	"__sFILE\000"
 3922      494C4500 
 3923              	.LASF117:
 3924 06a6 5F5F7364 		.ascii	"__sdidinit\000"
 3924      6964696E 
 3924      697400
 3925              	.LASF107:
 3926 06b1 5F666C61 		.ascii	"_flags2\000"
 3926      67733200 
 3927              	.LASF235:
 3928 06b9 53797374 		.ascii	"SystemCoreClock\000"
 3928      656D436F 
 3928      7265436C 
 3928      6F636B00 
 3929              	.LASF268:
 3930 06c9 63685F73 		.ascii	"ch_semaphore\000"
 3930      656D6170 
 3930      686F7265 
 3930      00
 3931              	.LASF175:
 3932 06d6 63685F74 		.ascii	"ch_thread\000"
 3932      68726561 
ARM GAS  /var/folders/qd/4mxf5pkd0zdf0b9dd1hp39180000gn/T//ccmJvynR.s 			page 75


 3932      6400
 3933              	.LASF218:
 3934 06e0 76697274 		.ascii	"virtual_timers_list_t\000"
 3934      75616C5F 
 3934      74696D65 
 3934      72735F6C 
 3934      6973745F 
 3935              	.LASF109:
 3936 06f6 5F657272 		.ascii	"_errno\000"
 3936      6E6F00
 3937              	.LASF211:
 3938 06fd 76697274 		.ascii	"virtual_timer_t\000"
 3938      75616C5F 
 3938      74696D65 
 3938      725F7400 
 3939              	.LASF202:
 3940 070d 72656164 		.ascii	"ready_list_t\000"
 3940      795F6C69 
 3940      73745F74 
 3940      00
 3941              	.LASF149:
 3942 071a 5F736967 		.ascii	"_signal_buf\000"
 3942      6E616C5F 
 3942      62756600 
 3943              	.LASF55:
 3944 0726 6D657373 		.ascii	"messagebus_t\000"
 3944      61676562 
 3944      75735F74 
 3944      00
 3945              	.LASF172:
 3946 0733 75636E74 		.ascii	"ucnt_t\000"
 3946      5F7400
 3947              	.LASF51:
 3948 073a 67726F75 		.ascii	"group\000"
 3948      7000
 3949              	.LASF65:
 3950 0740 5F426967 		.ascii	"_Bigint\000"
 3950      696E7400 
 3951              	.LASF199:
 3952 0748 63685F74 		.ascii	"ch_threads_list\000"
 3952      68726561 
 3952      64735F6C 
 3952      69737400 
 3953              	.LASF57:
 3954 0758 7075626C 		.ascii	"published_topic\000"
 3954      69736865 
 3954      645F746F 
 3954      70696300 
 3955              	.LASF244:
 3956 0768 63685F73 		.ascii	"ch_swc_event_t\000"
 3956      77635F65 
 3956      76656E74 
 3956      5F7400
 3957              	.LASF67:
 3958 0777 5F6D6178 		.ascii	"_maxwds\000"
 3958      77647300 
 3959              	.LASF56:
ARM GAS  /var/folders/qd/4mxf5pkd0zdf0b9dd1hp39180000gn/T//ccmJvynR.s 			page 76


 3960 077f 6D657373 		.ascii	"messagebus_watchgroup_s\000"
 3960      61676562 
 3960      75735F77 
 3960      61746368 
 3960      67726F75 
 3961              	.LASF58:
 3962 0797 6D657373 		.ascii	"messagebus_watchgroup_t\000"
 3962      61676562 
 3962      75735F77 
 3962      61746368 
 3962      67726F75 
 3963              	.LASF256:
 3964 07af 6E5F6972 		.ascii	"n_irq\000"
 3964      7100
 3965              	.LASF118:
 3966 07b5 5F5F636C 		.ascii	"__cleanup\000"
 3966      65616E75 
 3966      7000
 3967              	.LASF305:
 3968 07bf 696E6974 		.ascii	"initSensors\000"
 3968      53656E73 
 3968      6F727300 
 3969              	.LASF126:
 3970 07cb 5F617465 		.ascii	"_atexit0\000"
 3970      78697430 
 3970      00
 3971              	.LASF292:
 3972 07d4 63665F6F 		.ascii	"cf_off_preempt\000"
 3972      66665F70 
 3972      7265656D 
 3972      707400
 3973              	.LASF8:
 3974 07e3 5F5F7569 		.ascii	"__uint32_t\000"
 3974      6E743332 
 3974      5F7400
 3975              	.LASF114:
 3976 07ee 5F656D65 		.ascii	"_emergency\000"
 3976      7267656E 
 3976      637900
 3977              	.LASF317:
 3978 07f9 5F5F7374 		.ascii	"__stack_chk_fail\000"
 3978      61636B5F 
 3978      63686B5F 
 3978      6661696C 
 3978      00
 3979              	.LASF10:
 3980 080a 6C6F6E67 		.ascii	"long long int\000"
 3980      206C6F6E 
 3980      6720696E 
 3980      7400
 3981              	.LASF279:
 3982 0818 63685F76 		.ascii	"ch_version\000"
 3982      65727369 
 3982      6F6E00
 3983              	.LASF272:
 3984 0823 6D5F7175 		.ascii	"m_queue\000"
 3984      65756500 
ARM GAS  /var/folders/qd/4mxf5pkd0zdf0b9dd1hp39180000gn/T//ccmJvynR.s 			page 77


 3985              	.LASF297:
 3986 082b 636F6E64 		.ascii	"condition_variable\000"
 3986      6974696F 
 3986      6E5F7661 
 3986      72696162 
 3986      6C6500
 3987              	.LASF132:
 3988 083e 5F6E696F 		.ascii	"_niobs\000"
 3988      627300
 3989              	.LASF247:
 3990 0845 74625F62 		.ascii	"tb_buffer\000"
 3990      75666665 
 3990      7200
 3991              	.LASF213:
 3992 084f 76745F6E 		.ascii	"vt_next\000"
 3992      65787400 
 3993              	.LASF303:
 3994 0857 70726F78 		.ascii	"prox_topic\000"
 3994      5F746F70 
 3994      696300
 3995              	.LASF128:
 3996 0862 5F5F7367 		.ascii	"__sglue\000"
 3996      6C756500 
 3997              	.LASF158:
 3998 086a 5F6E6D61 		.ascii	"_nmalloc\000"
 3998      6C6C6F63 
 3998      00
 3999              	.LASF214:
 4000 0873 76745F70 		.ascii	"vt_prev\000"
 4000      72657600 
 4001              	.LASF142:
 4002 087b 5F67616D 		.ascii	"_gamma_signgam\000"
 4002      6D615F73 
 4002      69676E67 
 4002      616D00
 4003              	.LASF245:
 4004 088a 74625F73 		.ascii	"tb_size\000"
 4004      697A6500 
 4005              	.LASF122:
 4006 0892 5F667265 		.ascii	"_freelist\000"
 4006      656C6973 
 4006      7400
 4007              	.LASF133:
 4008 089c 5F696F62 		.ascii	"_iobs\000"
 4008      7300
 4009              	.LASF131:
 4010 08a2 5F676C75 		.ascii	"_glue\000"
 4010      6500
 4011              	.LASF234:
 4012 08a8 49544D5F 		.ascii	"ITM_RxBuffer\000"
 4012      52784275 
 4012      66666572 
 4012      00
 4013              	.LASF68:
 4014 08b5 5F736967 		.ascii	"_sign\000"
 4014      6E00
 4015              	.LASF59:
ARM GAS  /var/folders/qd/4mxf5pkd0zdf0b9dd1hp39180000gn/T//ccmJvynR.s 			page 78


 4016 08bb 616D6269 		.ascii	"ambient\000"
 4016      656E7400 
 4017              	.LASF298:
 4018 08c3 635F7175 		.ascii	"c_queue\000"
 4018      65756500 
 4019              	.LASF189:
 4020 08cb 705F7761 		.ascii	"p_waiting\000"
 4020      6974696E 
 4020      6700
 4021              	.LASF242:
 4022 08d5 73655F77 		.ascii	"se_wtobjp\000"
 4022      746F626A 
 4022      7000
 4023              	.LASF233:
 4024 08df 69646C65 		.ascii	"idle_thread_wa\000"
 4024      5F746872 
 4024      6561645F 
 4024      776100
 4025              	.LASF13:
 4026 08ee 756E7369 		.ascii	"unsigned int\000"
 4026      676E6564 
 4026      20696E74 
 4026      00
 4027              	.LASF45:
 4028 08fb 7075626C 		.ascii	"published\000"
 4028      69736865 
 4028      6400
 4029              	.LASF162:
 4030 0905 7274636E 		.ascii	"rtcnt_t\000"
 4030      745F7400 
 4031              	.LASF195:
 4032 090d 705F6D70 		.ascii	"p_mpool\000"
 4032      6F6F6C00 
 4033              	.LASF156:
 4034 0915 5F685F65 		.ascii	"_h_errno\000"
 4034      72726E6F 
 4034      00
 4035              	.LASF186:
 4036 091e 705F7265 		.ascii	"p_refs\000"
 4036      667300
 4037              	.LASF281:
 4038 0925 63685F74 		.ascii	"ch_timesize\000"
 4038      696D6573 
 4038      697A6500 
 4039              	.LASF154:
 4040 0931 5F776372 		.ascii	"_wcrtomb_state\000"
 4040      746F6D62 
 4040      5F737461 
 4040      746500
 4041              	.LASF54:
 4042 0940 746F7069 		.ascii	"topics\000"
 4042      637300
 4043              	.LASF74:
 4044 0947 5F5F746D 		.ascii	"__tm_mday\000"
 4044      5F6D6461 
 4044      7900
 4045              	.LASF260:
ARM GAS  /var/folders/qd/4mxf5pkd0zdf0b9dd1hp39180000gn/T//ccmJvynR.s 			page 79


 4046 0951 6B65726E 		.ascii	"kernel_stats_t\000"
 4046      656C5F73 
 4046      74617473 
 4046      5F7400
 4047              	.LASF125:
 4048 0960 5F6E6577 		.ascii	"_new\000"
 4048      00
 4049              	.LASF306:
 4050 0965 6D657373 		.ascii	"messagebus_find_topic_blocking\000"
 4050      61676562 
 4050      75735F66 
 4050      696E645F 
 4050      746F7069 
 4051              	.LASF100:
 4052 0984 5F756275 		.ascii	"_ubuf\000"
 4052      6600
 4053              	.LASF112:
 4054 098a 5F737464 		.ascii	"_stderr\000"
 4054      65727200 
 4055              	.LASF147:
 4056 0992 5F776374 		.ascii	"_wctomb_state\000"
 4056      6F6D625F 
 4056      73746174 
 4056      6500
 4057              	.LASF106:
 4058 09a0 5F6D6273 		.ascii	"_mbstate\000"
 4058      74617465 
 4058      00
 4059              	.LASF143:
 4060 09a9 5F72616E 		.ascii	"_rand_next\000"
 4060      645F6E65 
 4060      787400
 4061              	.LASF92:
 4062 09b4 5F666C61 		.ascii	"_flags\000"
 4062      677300
 4063              	.LASF249:
 4064 09bb 6F666673 		.ascii	"offset\000"
 4064      657400
 4065              	.LASF197:
 4066 09c2 74687265 		.ascii	"thread_reference_t\000"
 4066      61645F72 
 4066      65666572 
 4066      656E6365 
 4066      5F7400
 4067              	.LASF85:
 4068 09d5 5F617465 		.ascii	"_atexit\000"
 4068      78697400 
 4069              	.LASF188:
 4070 09dd 705F7469 		.ascii	"p_time\000"
 4070      6D6500
 4071              	.LASF291:
 4072 09e4 63665F6F 		.ascii	"cf_off_refs\000"
 4072      66665F72 
 4072      65667300 
 4073              	.LASF29:
 4074 09f0 5F5F636F 		.ascii	"__count\000"
 4074      756E7400 
ARM GAS  /var/folders/qd/4mxf5pkd0zdf0b9dd1hp39180000gn/T//ccmJvynR.s 			page 80


 4075              	.LASF77:
 4076 09f8 5F5F746D 		.ascii	"__tm_wday\000"
 4076      5F776461 
 4076      7900
 4077              	.LASF300:
 4078 0a02 6275735F 		.ascii	"bus_lock\000"
 4078      6C6F636B 
 4078      00
 4079              	.LASF174:
 4080 0a0b 74687265 		.ascii	"thread_t\000"
 4080      61645F74 
 4080      00
 4081              	.LASF20:
 4082 0a14 6C6F6E67 		.ascii	"long double\000"
 4082      20646F75 
 4082      626C6500 
 4083              	.LASF78:
 4084 0a20 5F5F746D 		.ascii	"__tm_yday\000"
 4084      5F796461 
 4084      7900
 4085              	.LASF194:
 4086 0a2a 705F7265 		.ascii	"p_realprio\000"
 4086      616C7072 
 4086      696F00
 4087              	.LASF239:
 4088 0a35 706F7274 		.ascii	"port_intctx\000"
 4088      5F696E74 
 4088      63747800 
 4089              	.LASF60:
 4090 0a41 7265666C 		.ascii	"reflected\000"
 4090      65637465 
 4090      6400
 4091              	.LASF135:
 4092 0a4b 5F736565 		.ascii	"_seed\000"
 4092      6400
 4093              	.LASF98:
 4094 0a51 5F736565 		.ascii	"_seek\000"
 4094      6B00
 4095              	.LASF215:
 4096 0a57 76745F64 		.ascii	"vt_delta\000"
 4096      656C7461 
 4096      00
 4097              	.LASF62:
 4098 0a60 696E6974 		.ascii	"initValue\000"
 4098      56616C75 
 4098      6500
 4099              	.LASF25:
 4100 0a6a 5F66706F 		.ascii	"_fpos_t\000"
 4100      735F7400 
 4101              	.LASF28:
 4102 0a72 5F5F7763 		.ascii	"__wchb\000"
 4102      686200
 4103              	.LASF212:
 4104 0a79 63685F76 		.ascii	"ch_virtual_timer\000"
 4104      69727475 
 4104      616C5F74 
 4104      696D6572 
ARM GAS  /var/folders/qd/4mxf5pkd0zdf0b9dd1hp39180000gn/T//ccmJvynR.s 			page 81


 4104      00
 4105              	.LASF270:
 4106 0a8a 735F636E 		.ascii	"s_cnt\000"
 4106      7400
 4107              	.LASF146:
 4108 0a90 5F6D6274 		.ascii	"_mbtowc_state\000"
 4108      6F77635F 
 4108      73746174 
 4108      6500
 4109              	.LASF38:
 4110 0a9e 6F70746F 		.ascii	"optopt\000"
 4110      707400
 4111              	.LASF232:
 4112 0aa5 6B65726E 		.ascii	"kernel_stats\000"
 4112      656C5F73 
 4112      74617473 
 4112      00
 4113              	.LASF12:
 4114 0ab2 6C6F6E67 		.ascii	"long long unsigned int\000"
 4114      206C6F6E 
 4114      6720756E 
 4114      7369676E 
 4114      65642069 
 4115              	.LASF181:
 4116 0ac9 705F6F6C 		.ascii	"p_older\000"
 4116      64657200 
 4117              	.LASF15:
 4118 0ad1 75696E74 		.ascii	"uint16_t\000"
 4118      31365F74 
 4118      00
 4119              	.LASF82:
 4120 0ada 5F64736F 		.ascii	"_dso_handle\000"
 4120      5F68616E 
 4120      646C6500 
 4121              	.LASF169:
 4122 0ae6 6D73675F 		.ascii	"msg_t\000"
 4122      7400
 4123              	.LASF201:
 4124 0aec 63685F74 		.ascii	"ch_threads_queue\000"
 4124      68726561 
 4124      64735F71 
 4124      75657565 
 4124      00
 4125              	.LASF134:
 4126 0afd 5F72616E 		.ascii	"_rand48\000"
 4126      64343800 
 4127              	.LASF290:
 4128 0b05 63665F6F 		.ascii	"cf_off_flags\000"
 4128      66665F66 
 4128      6C616773 
 4128      00
 4129              	.LASF111:
 4130 0b12 5F737464 		.ascii	"_stdout\000"
 4130      6F757400 
 4131              	.LASF167:
 4132 0b1a 74736C69 		.ascii	"tslices_t\000"
 4132      6365735F 
ARM GAS  /var/folders/qd/4mxf5pkd0zdf0b9dd1hp39180000gn/T//ccmJvynR.s 			page 82


 4132      7400
 4133              	.LASF61:
 4134 0b24 64656C74 		.ascii	"delta\000"
 4134      6100
 4135              	.LASF102:
 4136 0b2a 5F626C6B 		.ascii	"_blksize\000"
 4136      73697A65 
 4136      00
 4137              	.LASF89:
 4138 0b33 5F626173 		.ascii	"_base\000"
 4138      6500
 4139              	.LASF37:
 4140 0b39 6F707465 		.ascii	"opterr\000"
 4140      727200
 4141              	.LASF139:
 4142 0b40 5F737472 		.ascii	"_strtok_last\000"
 4142      746F6B5F 
 4142      6C617374 
 4142      00
 4143              	.LASF152:
 4144 0b4d 5F6D6272 		.ascii	"_mbrtowc_state\000"
 4144      746F7763 
 4144      5F737461 
 4144      746500
 4145              	.LASF231:
 4146 0b5c 6D61696E 		.ascii	"mainthread\000"
 4146      74687265 
 4146      616400
 4147              	.LASF32:
 4148 0b67 5F666C6F 		.ascii	"_flock_t\000"
 4148      636B5F74 
 4148      00
 4149              	.LASF130:
 4150 0b70 5F5F4649 		.ascii	"__FILE\000"
 4150      4C4500
 4151              	.LASF251:
 4152 0b77 62657374 		.ascii	"best\000"
 4152      00
 4153              	.LASF31:
 4154 0b7c 5F6D6273 		.ascii	"_mbstate_t\000"
 4154      74617465 
 4154      5F7400
 4155              	.LASF204:
 4156 0b87 725F7175 		.ascii	"r_queue\000"
 4156      65756500 
 4157              	.LASF144:
 4158 0b8f 5F723438 		.ascii	"_r48\000"
 4158      00
 4159              	.LASF26:
 4160 0b94 77696E74 		.ascii	"wint_t\000"
 4160      5F7400
 4161              	.LASF66:
 4162 0b9b 5F6E6578 		.ascii	"_next\000"
 4162      7400
 4163              	.LASF104:
 4164 0ba1 5F646174 		.ascii	"_data\000"
 4164      6100
ARM GAS  /var/folders/qd/4mxf5pkd0zdf0b9dd1hp39180000gn/T//ccmJvynR.s 			page 83


 4165              	.LASF229:
 4166 0ba7 726C6973 		.ascii	"rlist\000"
 4166      7400
 4167              	.LASF309:
 4168 0bad 564C3533 		.ascii	"VL53L0X_start\000"
 4168      4C30585F 
 4168      73746172 
 4168      7400
 4169              	.LASF164:
 4170 0bbb 746D6F64 		.ascii	"tmode_t\000"
 4170      655F7400 
 4171              	.LASF313:
 4172 0bc3 2E2F6D6F 		.ascii	"./modules/mod_sensors.c\000"
 4172      64756C65 
 4172      732F6D6F 
 4172      645F7365 
 4172      6E736F72 
 4173              	.LASF220:
 4174 0bdb 76745F73 		.ascii	"vt_systime\000"
 4174      79737469 
 4174      6D6500
 4175              	.LASF50:
 4176 0be6 6D657373 		.ascii	"messagebus_watcher_s\000"
 4176      61676562 
 4176      75735F77 
 4176      61746368 
 4176      65725F73 
 4177              	.LASF208:
 4178 0bfb 725F6F6C 		.ascii	"r_older\000"
 4178      64657200 
 4179              	.LASF250:
 4180 0c03 746D5F63 		.ascii	"tm_calibration_t\000"
 4180      616C6962 
 4180      72617469 
 4180      6F6E5F74 
 4180      00
 4181              	.LASF44:
 4182 0c14 6E616D65 		.ascii	"name\000"
 4182      00
 4183              	.LASF269:
 4184 0c19 735F7175 		.ascii	"s_queue\000"
 4184      65756500 
 4185              	.LASF43:
 4186 0c21 636F6E64 		.ascii	"condvar\000"
 4186      76617200 
 4187              	.LASF307:
 4188 0c29 6D657373 		.ascii	"messagebus_topic_wait\000"
 4188      61676562 
 4188      75735F74 
 4188      6F706963 
 4188      5F776169 
 4189              	.LASF145:
 4190 0c3f 5F6D626C 		.ascii	"_mblen_state\000"
 4190      656E5F73 
 4190      74617465 
 4190      00
 4191              	.LASF2:
ARM GAS  /var/folders/qd/4mxf5pkd0zdf0b9dd1hp39180000gn/T//ccmJvynR.s 			page 84


 4192 0c4c 73686F72 		.ascii	"short int\000"
 4192      7420696E 
 4192      7400
 4193              	.LASF18:
 4194 0c56 75696E74 		.ascii	"uint64_t\000"
 4194      36345F74 
 4194      00
 4195              	.LASF271:
 4196 0c5f 63685F6D 		.ascii	"ch_mutex\000"
 4196      75746578 
 4196      00
 4197              	.LASF83:
 4198 0c68 5F666E74 		.ascii	"_fntypes\000"
 4198      79706573 
 4198      00
 4199              	.LASF205:
 4200 0c71 725F7072 		.ascii	"r_prio\000"
 4200      696F00
 4201              	.LASF222:
 4202 0c78 63685F73 		.ascii	"ch_system_debug\000"
 4202      79737465 
 4202      6D5F6465 
 4202      62756700 
 4203              	.LASF76:
 4204 0c88 5F5F746D 		.ascii	"__tm_year\000"
 4204      5F796561 
 4204      7200
 4205              	.LASF286:
 4206 0c92 63665F6F 		.ascii	"cf_off_older\000"
 4206      66665F6F 
 4206      6C646572 
 4206      00
 4207              	.LASF94:
 4208 0c9f 5F6C6266 		.ascii	"_lbfsize\000"
 4208      73697A65 
 4208      00
 4209              	.LASF230:
 4210 0ca8 76746C69 		.ascii	"vtlist\000"
 4210      737400
 4211              	.LASF113:
 4212 0caf 5F696E63 		.ascii	"_inc\000"
 4212      00
 4213              	.LASF86:
 4214 0cb4 5F696E64 		.ascii	"_ind\000"
 4214      00
 4215              	.LASF88:
 4216 0cb9 5F5F7362 		.ascii	"__sbuf\000"
 4216      756600
 4217              	.LASF84:
 4218 0cc0 5F69735F 		.ascii	"_is_cxa\000"
 4218      63786100 
 4219              	.LASF21:
 4220 0cc8 5F4C4F43 		.ascii	"_LOCK_T\000"
 4220      4B5F5400 
 4221              	.LASF296:
 4222 0cd0 6D757465 		.ascii	"mutex_t\000"
 4222      785F7400 
ARM GAS  /var/folders/qd/4mxf5pkd0zdf0b9dd1hp39180000gn/T//ccmJvynR.s 			page 85


 4223              	.LASF166:
 4224 0cd8 74726566 		.ascii	"trefs_t\000"
 4224      735F7400 
 4225              	.LASF157:
 4226 0ce0 5F6E6578 		.ascii	"_nextf\000"
 4226      746600
 4227              	.LASF288:
 4228 0ce7 63665F6F 		.ascii	"cf_off_stklimit\000"
 4228      66665F73 
 4228      746B6C69 
 4228      6D697400 
 4229              	.LASF198:
 4230 0cf7 74687265 		.ascii	"threads_list_t\000"
 4230      6164735F 
 4230      6C697374 
 4230      5F7400
 4231              	.LASF311:
 4232 0d06 70726F78 		.ascii	"proximity_start\000"
 4232      696D6974 
 4232      795F7374 
 4232      61727400 
 4233              	.LASF228:
 4234 0d16 63685F73 		.ascii	"ch_system\000"
 4234      79737465 
 4234      6D00
 4235              	.LASF116:
 4236 0d20 5F6C6F63 		.ascii	"_locale\000"
 4236      616C6500 
 4237              	.LASF64:
 4238 0d28 5F5F554C 		.ascii	"__ULong\000"
 4238      6F6E6700 
 4239              	.LASF63:
 4240 0d30 70726F78 		.ascii	"proximity_msg_t\000"
 4240      696D6974 
 4240      795F6D73 
 4240      675F7400 
 4241              	.LASF17:
 4242 0d40 75696E74 		.ascii	"uint32_t\000"
 4242      33325F74 
 4242      00
 4243              	.LASF119:
 4244 0d49 5F726573 		.ascii	"_result\000"
 4244      756C7400 
 4245              	.LASF35:
 4246 0d51 6F707461 		.ascii	"optarg\000"
 4246      726700
 4247              	.LASF24:
 4248 0d58 5F6F6666 		.ascii	"_off_t\000"
 4248      5F7400
 4249              	.LASF261:
 4250 0d5f 7264796D 		.ascii	"rdymsg\000"
 4250      736700
 4251              	.LASF137:
 4252 0d66 5F616464 		.ascii	"_add\000"
 4252      00
 4253              	.LASF5:
 4254 0d6b 73686F72 		.ascii	"short unsigned int\000"
ARM GAS  /var/folders/qd/4mxf5pkd0zdf0b9dd1hp39180000gn/T//ccmJvynR.s 			page 86


 4254      7420756E 
 4254      7369676E 
 4254      65642069 
 4254      6E7400
 4255              	.LASF73:
 4256 0d7e 5F5F746D 		.ascii	"__tm_hour\000"
 4256      5F686F75 
 4256      7200
 4257              	.LASF227:
 4258 0d88 63685F73 		.ascii	"ch_system_t\000"
 4258      79737465 
 4258      6D5F7400 
 4259              	.LASF294:
 4260 0d94 63686465 		.ascii	"chdebug_t\000"
 4260      6275675F 
 4260      7400
 4261              	.LASF278:
 4262 0d9e 63685F73 		.ascii	"ch_size\000"
 4262      697A6500 
 4263              	.LASF153:
 4264 0da6 5F6D6273 		.ascii	"_mbsrtowcs_state\000"
 4264      72746F77 
 4264      63735F73 
 4264      74617465 
 4264      00
 4265              	.LASF183:
 4266 0db7 705F7374 		.ascii	"p_stklimit\000"
 4266      6B6C696D 
 4266      697400
 4267              	.LASF6:
 4268 0dc2 5F5F696E 		.ascii	"__int32_t\000"
 4268      7433325F 
 4268      7400
 4269              	.LASF209:
 4270 0dcc 725F6375 		.ascii	"r_current\000"
 4270      7272656E 
 4270      7400
 4271              	.LASF81:
 4272 0dd6 5F666E61 		.ascii	"_fnargs\000"
 4272      72677300 
 4273              	.LASF79:
 4274 0dde 5F5F746D 		.ascii	"__tm_isdst\000"
 4274      5F697364 
 4274      737400
 4275              	.LASF240:
 4276 0de9 73655F74 		.ascii	"se_time\000"
 4276      696D6500 
 4277              	.LASF182:
 4278 0df1 705F6E61 		.ascii	"p_name\000"
 4278      6D6500
 4279              	.LASF47:
 4280 0df8 6E657874 		.ascii	"next\000"
 4280      00
 4281              	.LASF274:
 4282 0dfd 6D5F6E65 		.ascii	"m_next\000"
 4282      787400
 4283              	.LASF246:
ARM GAS  /var/folders/qd/4mxf5pkd0zdf0b9dd1hp39180000gn/T//ccmJvynR.s 			page 87


 4284 0e04 74625F70 		.ascii	"tb_ptr\000"
 4284      747200
 4285              	.LASF72:
 4286 0e0b 5F5F746D 		.ascii	"__tm_min\000"
 4286      5F6D696E 
 4286      00
 4287              	.LASF150:
 4288 0e14 5F676574 		.ascii	"_getdate_err\000"
 4288      64617465 
 4288      5F657272 
 4288      00
 4289              	.LASF42:
 4290 0e21 6C6F636B 		.ascii	"lock\000"
 4290      00
 4291              	.LASF265:
 4292 0e26 77747365 		.ascii	"wtsemp\000"
 4292      6D7000
 4293              	.LASF253:
 4294 0e2d 6C617374 		.ascii	"last\000"
 4294      00
 4295              	.LASF191:
 4296 0e32 705F6D73 		.ascii	"p_msg\000"
 4296      6700
 4297              	.LASF184:
 4298 0e38 705F7374 		.ascii	"p_state\000"
 4298      61746500 
 4299              		.ident	"GCC: (GNU Tools for Arm Embedded Processors 7-2017-q4-major) 7.2.1 20170904 (release) [ARM
ARM GAS  /var/folders/qd/4mxf5pkd0zdf0b9dd1hp39180000gn/T//ccmJvynR.s 			page 88


DEFINED SYMBOLS
                            *ABS*:0000000000000000 mod_sensors.c
/var/folders/qd/4mxf5pkd0zdf0b9dd1hp39180000gn/T//ccmJvynR.s:18     .text.initSensors:0000000000000000 $t
/var/folders/qd/4mxf5pkd0zdf0b9dd1hp39180000gn/T//ccmJvynR.s:26     .text.initSensors:0000000000000000 initSensors
/var/folders/qd/4mxf5pkd0zdf0b9dd1hp39180000gn/T//ccmJvynR.s:76     .text.initSensors:0000000000000030 $d
/var/folders/qd/4mxf5pkd0zdf0b9dd1hp39180000gn/T//ccmJvynR.s:84     .text.testSensor:0000000000000000 $t
/var/folders/qd/4mxf5pkd0zdf0b9dd1hp39180000gn/T//ccmJvynR.s:92     .text.testSensor:0000000000000000 testSensor
/var/folders/qd/4mxf5pkd0zdf0b9dd1hp39180000gn/T//ccmJvynR.s:130    .text.testSensor:0000000000000020 $d
/var/folders/qd/4mxf5pkd0zdf0b9dd1hp39180000gn/T//ccmJvynR.s:135    .text.getAllProximityValues:0000000000000000 $t
/var/folders/qd/4mxf5pkd0zdf0b9dd1hp39180000gn/T//ccmJvynR.s:143    .text.getAllProximityValues:0000000000000000 getAllProximityValues
/var/folders/qd/4mxf5pkd0zdf0b9dd1hp39180000gn/T//ccmJvynR.s:206    .text.getAllProximityValues:0000000000000040 $d
/var/folders/qd/4mxf5pkd0zdf0b9dd1hp39180000gn/T//ccmJvynR.s:219    .data.bus_condvar:0000000000000000 bus_condvar
/var/folders/qd/4mxf5pkd0zdf0b9dd1hp39180000gn/T//ccmJvynR.s:227    .data.bus_lock:0000000000000000 bus_lock
/var/folders/qd/4mxf5pkd0zdf0b9dd1hp39180000gn/T//ccmJvynR.s:215    .data.bus_condvar:0000000000000000 $d
/var/folders/qd/4mxf5pkd0zdf0b9dd1hp39180000gn/T//ccmJvynR.s:223    .data.bus_lock:0000000000000000 $d
/var/folders/qd/4mxf5pkd0zdf0b9dd1hp39180000gn/T//ccmJvynR.s:234    .rodata.getAllProximityValues.str1.4:0000000000000000 $d

UNDEFINED SYMBOLS
VL53L0X_start
messagebus_init
proximity_start
__stack_chk_fail
__stack_chk_guard
bus
VL53L0X_get_dist_mm
messagebus_find_topic_blocking
messagebus_topic_wait
