ARM GAS  /var/folders/qd/4mxf5pkd0zdf0b9dd1hp39180000gn/T//cc7TiL7h.s 			page 1


   1              		.cpu cortex-m4
   2              		.eabi_attribute 27, 1
   3              		.eabi_attribute 28, 1
   4              		.eabi_attribute 20, 1
   5              		.eabi_attribute 21, 1
   6              		.eabi_attribute 23, 3
   7              		.eabi_attribute 24, 1
   8              		.eabi_attribute 25, 1
   9              		.eabi_attribute 26, 1
  10              		.eabi_attribute 30, 2
  11              		.eabi_attribute 34, 1
  12              		.eabi_attribute 18, 4
  13              		.file	"mod_mapping.c"
  14              		.text
  15              	.Ltext0:
  16              		.cfi_sections	.debug_frame
  17              		.global	__aeabi_dcmpge
  18              		.global	__aeabi_dsub
  19              		.global	__aeabi_dcmplt
  20              		.global	__aeabi_dadd
  21              		.section	.text.checkAngle,"ax",%progbits
  22              		.align	1
  23              		.p2align 4,,15
  24              		.global	checkAngle
  25              		.syntax unified
  26              		.thumb
  27              		.thumb_func
  28              		.fpu fpv4-sp-d16
  29              		.type	checkAngle, %function
  30              	checkAngle:
  31              	.LFB259:
  32              		.file 1 "./modules/mod_mapping.c"
  33              		.loc 1 66 0
  34              		.cfi_startproc
  35              		@ args = 0, pretend = 0, frame = 8
  36              		@ frame_needed = 0, uses_anonymous_args = 0
  37              	.LVL0:
  38 0000 2DE9F04F 		push	{r4, r5, r6, r7, r8, r9, r10, fp, lr}
  39              		.cfi_def_cfa_offset 36
  40              		.cfi_offset 4, -36
  41              		.cfi_offset 5, -32
  42              		.cfi_offset 6, -28
  43              		.cfi_offset 7, -24
  44              		.cfi_offset 8, -20
  45              		.cfi_offset 9, -16
  46              		.cfi_offset 10, -12
  47              		.cfi_offset 11, -8
  48              		.cfi_offset 14, -4
  49 0004 DFF8A0A0 		ldr	r10, .L14+8
  50              		.loc 1 67 0
  51 0008 D0E90045 		ldrd	r4, [r0]
  52              		.loc 1 66 0
  53 000c 83B0     		sub	sp, sp, #12
  54              		.cfi_def_cfa_offset 48
  55              		.loc 1 66 0
  56 000e DAF80030 		ldr	r3, [r10]
  57 0012 0193     		str	r3, [sp, #4]
ARM GAS  /var/folders/qd/4mxf5pkd0zdf0b9dd1hp39180000gn/T//cc7TiL7h.s 			page 2


  58 0014 8346     		mov	fp, r0
  59              		.loc 1 67 0
  60 0016 2946     		mov	r1, r5
  61 0018 2046     		mov	r0, r4
  62              	.LVL1:
  63 001a 21A3     		adr	r3, .L14
  64 001c D3E90023 		ldrd	r2, [r3]
  65 0020 FFF7FEFF 		bl	__aeabi_dcmpge
  66              	.LVL2:
  67 0024 90B1     		cbz	r0, .L2
  68 0026 1EA7     		adr	r7, .L14
  69 0028 D7E90067 		ldrd	r6, [r7]
  70              	.L4:
  71              		.loc 1 67 0 is_stmt 0 discriminator 2
  72 002c 2046     		mov	r0, r4
  73 002e 2946     		mov	r1, r5
  74 0030 3246     		mov	r2, r6
  75 0032 3B46     		mov	r3, r7
  76 0034 FFF7FEFF 		bl	__aeabi_dsub
  77              	.LVL3:
  78 0038 3246     		mov	r2, r6
  79 003a 3B46     		mov	r3, r7
  80 003c 0446     		mov	r4, r0
  81 003e 0D46     		mov	r5, r1
  82 0040 FFF7FEFF 		bl	__aeabi_dcmpge
  83              	.LVL4:
  84 0044 0028     		cmp	r0, #0
  85 0046 F1D1     		bne	.L4
  86 0048 CBE90045 		strd	r4, [fp]
  87              	.L2:
  88              		.loc 1 68 0 is_stmt 1
  89 004c 0022     		movs	r2, #0
  90 004e 0023     		movs	r3, #0
  91 0050 2046     		mov	r0, r4
  92 0052 2946     		mov	r1, r5
  93 0054 FFF7FEFF 		bl	__aeabi_dcmplt
  94              	.LVL5:
  95 0058 A8B1     		cbz	r0, .L1
  96 005a 0FF24409 		adr	r9, .L14
  97 005e D9E90089 		ldrd	r8, [r9]
  98 0062 0026     		movs	r6, #0
  99 0064 0027     		movs	r7, #0
 100              	.L7:
 101              		.loc 1 68 0 is_stmt 0 discriminator 2
 102 0066 2046     		mov	r0, r4
 103 0068 2946     		mov	r1, r5
 104 006a 4246     		mov	r2, r8
 105 006c 4B46     		mov	r3, r9
 106 006e FFF7FEFF 		bl	__aeabi_dadd
 107              	.LVL6:
 108 0072 3246     		mov	r2, r6
 109 0074 3B46     		mov	r3, r7
 110 0076 0446     		mov	r4, r0
 111 0078 0D46     		mov	r5, r1
 112 007a FFF7FEFF 		bl	__aeabi_dcmplt
 113              	.LVL7:
 114 007e 0028     		cmp	r0, #0
ARM GAS  /var/folders/qd/4mxf5pkd0zdf0b9dd1hp39180000gn/T//cc7TiL7h.s 			page 3


 115 0080 F1D1     		bne	.L7
 116 0082 CBE90045 		strd	r4, [fp]
 117              	.L1:
 118              		.loc 1 69 0 is_stmt 1
 119 0086 019A     		ldr	r2, [sp, #4]
 120 0088 DAF80030 		ldr	r3, [r10]
 121 008c 9A42     		cmp	r2, r3
 122 008e 02D1     		bne	.L13
 123 0090 03B0     		add	sp, sp, #12
 124              		.cfi_remember_state
 125              		.cfi_def_cfa_offset 36
 126              		@ sp needed
 127 0092 BDE8F08F 		pop	{r4, r5, r6, r7, r8, r9, r10, fp, pc}
 128              	.LVL8:
 129              	.L13:
 130              		.cfi_restore_state
 131 0096 FFF7FEFF 		bl	__stack_chk_fail
 132              	.LVL9:
 133              	.L15:
 134 009a 00BFAFF3 		.align	3
 134      0080
 135              	.L14:
 136 00a0 00000060 		.word	1610612736
 137 00a4 FB211940 		.word	1075388923
 138 00a8 00000000 		.word	__stack_chk_guard
 139              		.cfi_endproc
 140              	.LFE259:
 141              		.size	checkAngle, .-checkAngle
 142              		.global	__aeabi_i2d
 143              		.global	__aeabi_dmul
 144              		.global	__aeabi_ddiv
 145              		.global	__aeabi_d2iz
 146              		.section	.text.newAbsolutePositionWheelSpeedType,"ax",%progbits
 147              		.align	1
 148              		.p2align 4,,15
 149              		.global	newAbsolutePositionWheelSpeedType
 150              		.syntax unified
 151              		.thumb
 152              		.thumb_func
 153              		.fpu fpv4-sp-d16
 154              		.type	newAbsolutePositionWheelSpeedType, %function
 155              	newAbsolutePositionWheelSpeedType:
 156              	.LFB260:
 157              		.loc 1 72 0
 158              		.cfi_startproc
 159              		@ args = 0, pretend = 0, frame = 136
 160              		@ frame_needed = 0, uses_anonymous_args = 0
 161              	.LVL10:
 162 0000 2DE9F04F 		push	{r4, r5, r6, r7, r8, r9, r10, fp, lr}
 163              		.cfi_def_cfa_offset 36
 164              		.cfi_offset 4, -36
 165              		.cfi_offset 5, -32
 166              		.cfi_offset 6, -28
 167              		.cfi_offset 7, -24
 168              		.cfi_offset 8, -20
 169              		.cfi_offset 9, -16
 170              		.cfi_offset 10, -12
ARM GAS  /var/folders/qd/4mxf5pkd0zdf0b9dd1hp39180000gn/T//cc7TiL7h.s 			page 4


 171              		.cfi_offset 11, -8
 172              		.cfi_offset 14, -4
 173 0004 2DED028B 		vpush.64	{d8}
 174              		.cfi_def_cfa_offset 44
 175              		.cfi_offset 80, -44
 176              		.cfi_offset 81, -40
 177 0008 8246     		mov	r10, r0
 178              		.loc 1 74 0
 179 000a 1846     		mov	r0, r3
 180              	.LVL11:
 181              		.loc 1 72 0
 182 000c 6A4B     		ldr	r3, .L28+16
 183              	.LVL12:
 184 000e A5B0     		sub	sp, sp, #148
 185              		.cfi_def_cfa_offset 192
 186              		.loc 1 72 0
 187 0010 1446     		mov	r4, r2
 188 0012 1B68     		ldr	r3, [r3]
 189 0014 2393     		str	r3, [sp, #140]
 190 0016 8846     		mov	r8, r1
 191              		.loc 1 74 0
 192 0018 FFF7FEFF 		bl	__aeabi_i2d
 193              	.LVL13:
 194 001c 94ED027B 		vldr.64	d7, [r4, #8]
 195 0020 8DED027B 		vstr.64	d7, [sp, #8]
 196 0024 94ED007B 		vldr.64	d7, [r4]
 197 0028 0546     		mov	r5, r0
 198 002a 53EC172B 		vmov	r2, r3, d7
 199 002e 0E46     		mov	r6, r1
 200 0030 DDE90201 		ldrd	r0, [sp, #8]
 201 0034 8DED047B 		vstr.64	d7, [sp, #16]
 202 0038 FFF7FEFF 		bl	__aeabi_dadd
 203              	.LVL14:
 204 003c 2A46     		mov	r2, r5
 205 003e 3346     		mov	r3, r6
 206 0040 CDE90656 		strd	r5, [sp, #24]
 207 0044 FFF7FEFF 		bl	__aeabi_dmul
 208              	.LVL15:
 209 0048 98ED028B 		vldr.64	d8, [r8, #8]
 210 004c B0EE480A 		vmov.f32	s0, s16
 211 0050 F0EE680A 		vmov.f32	s1, s17
 212 0054 0646     		mov	r6, r0
 213 0056 0F46     		mov	r7, r1
 214 0058 FFF7FEFF 		bl	cos
 215              	.LVL16:
 216 005c 53EC102B 		vmov	r2, r3, d0
 217 0060 D8F80000 		ldr	r0, [r8]
 218 0064 CDE90823 		strd	r2, [sp, #32]
 219 0068 FFF7FEFF 		bl	__aeabi_i2d
 220              	.LVL17:
 221 006c DDE90823 		ldrd	r2, [sp, #32]
 222 0070 0446     		mov	r4, r0
 223              	.LVL18:
 224 0072 0D46     		mov	r5, r1
 225 0074 3046     		mov	r0, r6
 226 0076 3946     		mov	r1, r7
 227 0078 FFF7FEFF 		bl	__aeabi_dmul
ARM GAS  /var/folders/qd/4mxf5pkd0zdf0b9dd1hp39180000gn/T//cc7TiL7h.s 			page 5


 228              	.LVL19:
 229 007c 0022     		movs	r2, #0
 230 007e 4F4B     		ldr	r3, .L28+20
 231 0080 FFF7FEFF 		bl	__aeabi_ddiv
 232              	.LVL20:
 233 0084 0246     		mov	r2, r0
 234 0086 0B46     		mov	r3, r1
 235 0088 2046     		mov	r0, r4
 236 008a 2946     		mov	r1, r5
 237 008c FFF7FEFF 		bl	__aeabi_dadd
 238              	.LVL21:
 239 0090 FFF7FEFF 		bl	__aeabi_d2iz
 240              	.LVL22:
 241              		.loc 1 75 0
 242 0094 B0EE480A 		vmov.f32	s0, s16
 243 0098 F0EE680A 		vmov.f32	s1, s17
 244              		.loc 1 74 0
 245 009c 8346     		mov	fp, r0
 246              	.LVL23:
 247              		.loc 1 75 0
 248 009e FFF7FEFF 		bl	sin
 249              	.LVL24:
 250 00a2 53EC102B 		vmov	r2, r3, d0
 251 00a6 D8F80400 		ldr	r0, [r8, #4]
 252 00aa CDE90823 		strd	r2, [sp, #32]
 253 00ae FFF7FEFF 		bl	__aeabi_i2d
 254              	.LVL25:
 255 00b2 DDE90823 		ldrd	r2, [sp, #32]
 256 00b6 0446     		mov	r4, r0
 257 00b8 0D46     		mov	r5, r1
 258 00ba 3046     		mov	r0, r6
 259 00bc 3946     		mov	r1, r7
 260 00be FFF7FEFF 		bl	__aeabi_dmul
 261              	.LVL26:
 262 00c2 0022     		movs	r2, #0
 263 00c4 3D4B     		ldr	r3, .L28+20
 264 00c6 FFF7FEFF 		bl	__aeabi_ddiv
 265              	.LVL27:
 266 00ca 0246     		mov	r2, r0
 267 00cc 0B46     		mov	r3, r1
 268 00ce 2046     		mov	r0, r4
 269 00d0 2946     		mov	r1, r5
 270 00d2 FFF7FEFF 		bl	__aeabi_dadd
 271              	.LVL28:
 272 00d6 FFF7FEFF 		bl	__aeabi_d2iz
 273              	.LVL29:
 274              		.loc 1 76 0
 275 00da DDE90423 		ldrd	r2, [sp, #16]
 276              		.loc 1 75 0
 277 00de 0890     		str	r0, [sp, #32]
 278              	.LVL30:
 279              		.loc 1 76 0
 280 00e0 DDE90201 		ldrd	r0, [sp, #8]
 281              	.LVL31:
 282 00e4 FFF7FEFF 		bl	__aeabi_dsub
 283              	.LVL32:
 284 00e8 DDE90623 		ldrd	r2, [sp, #24]
ARM GAS  /var/folders/qd/4mxf5pkd0zdf0b9dd1hp39180000gn/T//cc7TiL7h.s 			page 6


 285 00ec FFF7FEFF 		bl	__aeabi_dmul
 286              	.LVL33:
 287 00f0 2DA3     		adr	r3, .L28
 288 00f2 D3E90023 		ldrd	r2, [r3]
 289 00f6 FFF7FEFF 		bl	__aeabi_ddiv
 290              	.LVL34:
 291 00fa 53EC182B 		vmov	r2, r3, d8
 292 00fe FFF7FEFF 		bl	__aeabi_dadd
 293              	.LVL35:
 294              	.LBB22:
 295              	.LBB23:
 296              		.loc 1 67 0
 297 0102 2BA3     		adr	r3, .L28+8
 298 0104 D3E90023 		ldrd	r2, [r3]
 299              	.LBE23:
 300              	.LBE22:
 301              		.loc 1 76 0
 302 0108 8046     		mov	r8, r0
 303              	.LVL36:
 304 010a 8946     		mov	r9, r1
 305              	.LVL37:
 306              	.LBB25:
 307              	.LBB24:
 308              		.loc 1 67 0
 309 010c FFF7FEFF 		bl	__aeabi_dcmpge
 310              	.LVL38:
 311 0110 80B1     		cbz	r0, .L17
 312 0112 27A5     		adr	r5, .L28+8
 313 0114 D5E90045 		ldrd	r4, [r5]
 314              	.L19:
 315 0118 4046     		mov	r0, r8
 316 011a 4946     		mov	r1, r9
 317 011c 2246     		mov	r2, r4
 318 011e 2B46     		mov	r3, r5
 319 0120 FFF7FEFF 		bl	__aeabi_dsub
 320              	.LVL39:
 321 0124 2246     		mov	r2, r4
 322 0126 2B46     		mov	r3, r5
 323 0128 8046     		mov	r8, r0
 324              	.LVL40:
 325 012a 8946     		mov	r9, r1
 326              	.LVL41:
 327 012c FFF7FEFF 		bl	__aeabi_dcmpge
 328              	.LVL42:
 329 0130 0028     		cmp	r0, #0
 330 0132 F1D1     		bne	.L19
 331              	.L17:
 332              		.loc 1 68 0
 333 0134 0022     		movs	r2, #0
 334 0136 0023     		movs	r3, #0
 335 0138 4046     		mov	r0, r8
 336 013a 4946     		mov	r1, r9
 337 013c FFF7FEFF 		bl	__aeabi_dcmplt
 338              	.LVL43:
 339 0140 90B1     		cbz	r0, .L20
 340 0142 1BA7     		adr	r7, .L28+8
 341 0144 D7E90067 		ldrd	r6, [r7]
ARM GAS  /var/folders/qd/4mxf5pkd0zdf0b9dd1hp39180000gn/T//cc7TiL7h.s 			page 7


 342 0148 0024     		movs	r4, #0
 343 014a 0025     		movs	r5, #0
 344              	.L22:
 345 014c 4046     		mov	r0, r8
 346 014e 4946     		mov	r1, r9
 347 0150 3246     		mov	r2, r6
 348 0152 3B46     		mov	r3, r7
 349 0154 FFF7FEFF 		bl	__aeabi_dadd
 350              	.LVL44:
 351 0158 2246     		mov	r2, r4
 352 015a 2B46     		mov	r3, r5
 353 015c 8046     		mov	r8, r0
 354              	.LVL45:
 355 015e 8946     		mov	r9, r1
 356              	.LVL46:
 357 0160 FFF7FEFF 		bl	__aeabi_dcmplt
 358              	.LVL47:
 359 0164 0028     		cmp	r0, #0
 360 0166 F1D1     		bne	.L22
 361              	.L20:
 362              	.LVL48:
 363              	.LBE24:
 364              	.LBE25:
 365              		.loc 1 80 0
 366 0168 089C     		ldr	r4, [sp, #32]
 367 016a 1549     		ldr	r1, .L28+24
 368 016c 2346     		mov	r3, r4
 369 016e 5A46     		mov	r2, fp
 370 0170 CDE90089 		strd	r8, [sp]
 371 0174 0AA8     		add	r0, sp, #40
 372 0176 FFF7FEFF 		bl	sprintf
 373              	.LVL49:
 374              		.loc 1 81 0
 375 017a 0AA8     		add	r0, sp, #40
 376 017c 0321     		movs	r1, #3
 377 017e FFF7FEFF 		bl	mod_com_writeMessage
 378              	.LVL50:
 379              		.loc 1 84 0
 380 0182 0D4B     		ldr	r3, .L28+16
 381 0184 239A     		ldr	r2, [sp, #140]
 382 0186 1B68     		ldr	r3, [r3]
 383              		.loc 1 83 0
 384 0188 CAF800B0 		str	fp, [r10]
 385              		.loc 1 84 0
 386 018c 9A42     		cmp	r2, r3
 387              		.loc 1 83 0
 388 018e CAF80440 		str	r4, [r10, #4]
 389 0192 CAE90289 		strd	r8, [r10, #8]
 390              	.LVL51:
 391              		.loc 1 84 0
 392 0196 5046     		mov	r0, r10
 393 0198 04D1     		bne	.L27
 394              	.LVL52:
 395 019a 25B0     		add	sp, sp, #148
 396              		.cfi_remember_state
 397              		.cfi_def_cfa_offset 44
 398              		@ sp needed
ARM GAS  /var/folders/qd/4mxf5pkd0zdf0b9dd1hp39180000gn/T//cc7TiL7h.s 			page 8


 399 019c BDEC028B 		vldm	sp!, {d8}
 400              		.cfi_restore 80
 401              		.cfi_restore 81
 402              		.cfi_def_cfa_offset 36
 403 01a0 BDE8F08F 		pop	{r4, r5, r6, r7, r8, r9, r10, fp, pc}
 404              	.L27:
 405              		.cfi_restore_state
 406 01a4 FFF7FEFF 		bl	__stack_chk_fail
 407              	.LVL53:
 408              	.L29:
 409              		.align	3
 410              	.L28:
 411 01a8 00000000 		.word	0
 412 01ac 80A1EA40 		.word	1089118592
 413 01b0 00000060 		.word	1610612736
 414 01b4 FB211940 		.word	1075388923
 415 01b8 00000000 		.word	__stack_chk_guard
 416 01bc 00409F40 		.word	1084178432
 417 01c0 00000000 		.word	.LC0
 418              		.cfi_endproc
 419              	.LFE260:
 420              		.size	newAbsolutePositionWheelSpeedType, .-newAbsolutePositionWheelSpeedType
 421              		.section	.text.measurementToPoint,"ax",%progbits
 422              		.align	1
 423              		.p2align 4,,15
 424              		.global	measurementToPoint
 425              		.syntax unified
 426              		.thumb
 427              		.thumb_func
 428              		.fpu fpv4-sp-d16
 429              		.type	measurementToPoint, %function
 430              	measurementToPoint:
 431              	.LFB261:
 432              		.loc 1 86 0
 433              		.cfi_startproc
 434              		@ args = 0, pretend = 0, frame = 112
 435              		@ frame_needed = 0, uses_anonymous_args = 0
 436              	.LVL54:
 437 0000 2DE9F047 		push	{r4, r5, r6, r7, r8, r9, r10, lr}
 438              		.cfi_def_cfa_offset 32
 439              		.cfi_offset 4, -32
 440              		.cfi_offset 5, -28
 441              		.cfi_offset 6, -24
 442              		.cfi_offset 7, -20
 443              		.cfi_offset 8, -16
 444              		.cfi_offset 9, -12
 445              		.cfi_offset 10, -8
 446              		.cfi_offset 14, -4
 447 0004 2DED028B 		vpush.64	{d8}
 448              		.cfi_def_cfa_offset 40
 449              		.cfi_offset 80, -40
 450              		.cfi_offset 81, -36
 451              		.loc 1 88 0
 452 0008 91ED028B 		vldr.64	d8, [r1, #8]
 453              		.loc 1 86 0
 454 000c 304F     		ldr	r7, .L34
 455              		.loc 1 88 0
ARM GAS  /var/folders/qd/4mxf5pkd0zdf0b9dd1hp39180000gn/T//cc7TiL7h.s 			page 9


 456 000e B0EE480A 		vmov.f32	s0, s16
 457 0012 F0EE680A 		vmov.f32	s1, s17
 458              		.loc 1 86 0
 459 0016 9CB0     		sub	sp, sp, #112
 460              		.cfi_def_cfa_offset 152
 461              		.loc 1 86 0
 462 0018 3B68     		ldr	r3, [r7]
 463              		.loc 1 88 0
 464 001a D1F810A0 		ldr	r10, [r1, #16]
 465              		.loc 1 86 0
 466 001e 1B93     		str	r3, [sp, #108]
 467 0020 0C46     		mov	r4, r1
 468 0022 0546     		mov	r5, r0
 469              		.loc 1 88 0
 470 0024 FFF7FEFF 		bl	sin
 471              	.LVL55:
 472 0028 6FF02000 		mvn	r0, #32
 473 002c 53EC102B 		vmov	r2, r3, d0
 474 0030 A0EB0A00 		sub	r0, r0, r10
 475 0034 CDE90023 		strd	r2, [sp]
 476 0038 FFF7FEFF 		bl	__aeabi_i2d
 477              	.LVL56:
 478 003c DDE90023 		ldrd	r2, [sp]
 479 0040 FFF7FEFF 		bl	__aeabi_dmul
 480              	.LVL57:
 481 0044 8046     		mov	r8, r0
 482 0046 2068     		ldr	r0, [r4]
 483 0048 8946     		mov	r9, r1
 484 004a FFF7FEFF 		bl	__aeabi_i2d
 485              	.LVL58:
 486 004e 0246     		mov	r2, r0
 487 0050 0B46     		mov	r3, r1
 488 0052 4046     		mov	r0, r8
 489 0054 4946     		mov	r1, r9
 490 0056 FFF7FEFF 		bl	__aeabi_dadd
 491              	.LVL59:
 492 005a FFF7FEFF 		bl	__aeabi_d2iz
 493              	.LVL60:
 494              		.loc 1 89 0
 495 005e B0EE480A 		vmov.f32	s0, s16
 496 0062 F0EE680A 		vmov.f32	s1, s17
 497              		.loc 1 88 0
 498 0066 0646     		mov	r6, r0
 499              	.LVL61:
 500              		.loc 1 89 0
 501 0068 FFF7FEFF 		bl	cos
 502              	.LVL62:
 503 006c 53EC102B 		vmov	r2, r3, d0
 504 0070 0AF12100 		add	r0, r10, #33
 505 0074 CDE90023 		strd	r2, [sp]
 506 0078 FFF7FEFF 		bl	__aeabi_i2d
 507              	.LVL63:
 508 007c DDE90023 		ldrd	r2, [sp]
 509 0080 FFF7FEFF 		bl	__aeabi_dmul
 510              	.LVL64:
 511 0084 8046     		mov	r8, r0
 512 0086 6068     		ldr	r0, [r4, #4]
ARM GAS  /var/folders/qd/4mxf5pkd0zdf0b9dd1hp39180000gn/T//cc7TiL7h.s 			page 10


 513 0088 8946     		mov	r9, r1
 514 008a FFF7FEFF 		bl	__aeabi_i2d
 515              	.LVL65:
 516 008e 0246     		mov	r2, r0
 517 0090 0B46     		mov	r3, r1
 518 0092 4046     		mov	r0, r8
 519 0094 4946     		mov	r1, r9
 520 0096 FFF7FEFF 		bl	__aeabi_dadd
 521              	.LVL66:
 522 009a FFF7FEFF 		bl	__aeabi_d2iz
 523              	.LVL67:
 524              		.loc 1 92 0
 525 009e 3246     		mov	r2, r6
 526 00a0 0346     		mov	r3, r0
 527              		.loc 1 89 0
 528 00a2 0446     		mov	r4, r0
 529              	.LVL68:
 530              		.loc 1 92 0
 531 00a4 0B49     		ldr	r1, .L34+4
 532 00a6 02A8     		add	r0, sp, #8
 533              	.LVL69:
 534 00a8 FFF7FEFF 		bl	sprintf
 535              	.LVL70:
 536              		.loc 1 93 0
 537 00ac 02A8     		add	r0, sp, #8
 538 00ae 0321     		movs	r1, #3
 539 00b0 FFF7FEFF 		bl	mod_com_writeMessage
 540              	.LVL71:
 541              		.loc 1 96 0
 542 00b4 1B9A     		ldr	r2, [sp, #108]
 543 00b6 3B68     		ldr	r3, [r7]
 544 00b8 9A42     		cmp	r2, r3
 545              		.loc 1 95 0
 546 00ba C5E90064 		strd	r6, r4, [r5]
 547              	.LVL72:
 548              		.loc 1 96 0
 549 00be 05D1     		bne	.L33
 550 00c0 2846     		mov	r0, r5
 551 00c2 1CB0     		add	sp, sp, #112
 552              		.cfi_remember_state
 553              		.cfi_def_cfa_offset 40
 554              		@ sp needed
 555 00c4 BDEC028B 		vldm	sp!, {d8}
 556              		.cfi_restore 80
 557              		.cfi_restore 81
 558              		.cfi_def_cfa_offset 32
 559 00c8 BDE8F087 		pop	{r4, r5, r6, r7, r8, r9, r10, pc}
 560              	.LVL73:
 561              	.L33:
 562              		.cfi_restore_state
 563 00cc FFF7FEFF 		bl	__stack_chk_fail
 564              	.LVL74:
 565              	.L35:
 566              		.align	2
 567              	.L34:
 568 00d0 00000000 		.word	__stack_chk_guard
 569 00d4 00000000 		.word	.LC1
ARM GAS  /var/folders/qd/4mxf5pkd0zdf0b9dd1hp39180000gn/T//cc7TiL7h.s 			page 11


 570              		.cfi_endproc
 571              	.LFE261:
 572              		.size	measurementToPoint, .-measurementToPoint
 573              		.global	__aeabi_f2d
 574              		.section	.text.moveOrigin,"ax",%progbits
 575              		.align	1
 576              		.p2align 4,,15
 577              		.global	moveOrigin
 578              		.syntax unified
 579              		.thumb
 580              		.thumb_func
 581              		.fpu fpv4-sp-d16
 582              		.type	moveOrigin, %function
 583              	moveOrigin:
 584              	.LFB262:
 585              		.loc 1 98 0
 586              		.cfi_startproc
 587              		@ args = 0, pretend = 0, frame = 136
 588              		@ frame_needed = 0, uses_anonymous_args = 0
 589              	.LVL75:
 590 0000 2DE9F04F 		push	{r4, r5, r6, r7, r8, r9, r10, fp, lr}
 591              		.cfi_def_cfa_offset 36
 592              		.cfi_offset 4, -36
 593              		.cfi_offset 5, -32
 594              		.cfi_offset 6, -28
 595              		.cfi_offset 7, -24
 596              		.cfi_offset 8, -20
 597              		.cfi_offset 9, -16
 598              		.cfi_offset 10, -12
 599              		.cfi_offset 11, -8
 600              		.cfi_offset 14, -4
 601 0004 2DED028B 		vpush.64	{d8}
 602              		.cfi_def_cfa_offset 44
 603              		.cfi_offset 80, -44
 604              		.cfi_offset 81, -40
 605 0008 B0EE408A 		vmov.f32	s16, s0
 606 000c F0EE608A 		vmov.f32	s17, s1
 607 0010 6D4B     		ldr	r3, .L47+16
 608              		.loc 1 99 0
 609 0012 DFF8C0A1 		ldr	r10, .L47+28
 610              		.loc 1 98 0
 611 0016 1B68     		ldr	r3, [r3]
 612 0018 A5B0     		sub	sp, sp, #148
 613              		.cfi_def_cfa_offset 192
 614              		.loc 1 98 0
 615 001a 2393     		str	r3, [sp, #140]
 616              	.LVL76:
 617 001c 08AB     		add	r3, sp, #32
 618              	.LVL77:
 619 001e 83E80300 		stm	r3, {r0, r1}
 620              	.LVL78:
 621              		.loc 1 99 0
 622 0022 FFF7FEFF 		bl	cos
 623              	.LVL79:
 624 0026 0898     		ldr	r0, [sp, #32]
 625 0028 55EC104B 		vmov	r4, r5, d0
 626 002c FFF7FEFF 		bl	__aeabi_i2d
ARM GAS  /var/folders/qd/4mxf5pkd0zdf0b9dd1hp39180000gn/T//cc7TiL7h.s 			page 12


 627              	.LVL80:
 628 0030 B0EE480A 		vmov.f32	s0, s16
 629 0034 F0EE680A 		vmov.f32	s1, s17
 630 0038 0646     		mov	r6, r0
 631 003a 0F46     		mov	r7, r1
 632 003c FFF7FEFF 		bl	sin
 633              	.LVL81:
 634 0040 0998     		ldr	r0, [sp, #36]
 635 0042 8DED020B 		vstr.64	d0, [sp, #8]
 636 0046 FFF7FEFF 		bl	__aeabi_i2d
 637              	.LVL82:
 638 004a 8046     		mov	r8, r0
 639 004c DAF80000 		ldr	r0, [r10]
 640 0050 8946     		mov	r9, r1
 641 0052 FFF7FEFF 		bl	__aeabi_i2d
 642              	.LVL83:
 643 0056 3246     		mov	r2, r6
 644 0058 CDE90601 		strd	r0, [sp, #24]
 645 005c 3B46     		mov	r3, r7
 646 005e 2046     		mov	r0, r4
 647 0060 2946     		mov	r1, r5
 648 0062 CDE90445 		strd	r4, [sp, #16]
 649 0066 FFF7FEFF 		bl	__aeabi_dmul
 650              	.LVL84:
 651 006a 4246     		mov	r2, r8
 652 006c 0446     		mov	r4, r0
 653 006e 0D46     		mov	r5, r1
 654 0070 4B46     		mov	r3, r9
 655 0072 DDE90201 		ldrd	r0, [sp, #8]
 656 0076 FFF7FEFF 		bl	__aeabi_dmul
 657              	.LVL85:
 658 007a 0246     		mov	r2, r0
 659 007c 0B46     		mov	r3, r1
 660 007e 2046     		mov	r0, r4
 661 0080 2946     		mov	r1, r5
 662 0082 FFF7FEFF 		bl	__aeabi_dsub
 663              	.LVL86:
 664 0086 0246     		mov	r2, r0
 665 0088 0B46     		mov	r3, r1
 666 008a DDE90601 		ldrd	r0, [sp, #24]
 667 008e FFF7FEFF 		bl	__aeabi_dsub
 668              	.LVL87:
 669 0092 FFF7FEFF 		bl	__aeabi_d2iz
 670              	.LVL88:
 671 0096 0690     		str	r0, [sp, #24]
 672 0098 CAF80000 		str	r0, [r10]
 673              		.loc 1 100 0
 674 009c DAF80400 		ldr	r0, [r10, #4]
 675 00a0 FFF7FEFF 		bl	__aeabi_i2d
 676              	.LVL89:
 677 00a4 DDE90223 		ldrd	r2, [sp, #8]
 678 00a8 0446     		mov	r4, r0
 679 00aa 0D46     		mov	r5, r1
 680 00ac 3046     		mov	r0, r6
 681 00ae 3946     		mov	r1, r7
 682 00b0 FFF7FEFF 		bl	__aeabi_dmul
 683              	.LVL90:
ARM GAS  /var/folders/qd/4mxf5pkd0zdf0b9dd1hp39180000gn/T//cc7TiL7h.s 			page 13


 684 00b4 4246     		mov	r2, r8
 685 00b6 4B46     		mov	r3, r9
 686 00b8 0646     		mov	r6, r0
 687 00ba 0F46     		mov	r7, r1
 688 00bc DDE90401 		ldrd	r0, [sp, #16]
 689 00c0 FFF7FEFF 		bl	__aeabi_dmul
 690              	.LVL91:
 691 00c4 0246     		mov	r2, r0
 692 00c6 0B46     		mov	r3, r1
 693 00c8 3046     		mov	r0, r6
 694 00ca 3946     		mov	r1, r7
 695 00cc FFF7FEFF 		bl	__aeabi_dadd
 696              	.LVL92:
 697 00d0 0246     		mov	r2, r0
 698 00d2 0B46     		mov	r3, r1
 699 00d4 2046     		mov	r0, r4
 700 00d6 2946     		mov	r1, r5
 701 00d8 FFF7FEFF 		bl	__aeabi_dsub
 702              	.LVL93:
 703 00dc FFF7FEFF 		bl	__aeabi_d2iz
 704              	.LVL94:
 705 00e0 8346     		mov	fp, r0
 706              		.loc 1 101 0
 707 00e2 35A3     		adr	r3, .L47
 708 00e4 D3E90023 		ldrd	r2, [r3]
 709 00e8 51EC180B 		vmov	r0, r1, d8
 710              		.loc 1 100 0
 711 00ec CAF804B0 		str	fp, [r10, #4]
 712              		.loc 1 101 0
 713 00f0 FFF7FEFF 		bl	__aeabi_dadd
 714              	.LVL95:
 715 00f4 0246     		mov	r2, r0
 716 00f6 0B46     		mov	r3, r1
 717 00f8 DAE90201 		ldrd	r0, [r10, #8]
 718 00fc FFF7FEFF 		bl	__aeabi_dsub
 719              	.LVL96:
 720              		.loc 1 102 0
 721 0100 2FA3     		adr	r3, .L47+8
 722 0102 D3E90023 		ldrd	r2, [r3]
 723              		.loc 1 101 0
 724 0106 8046     		mov	r8, r0
 725 0108 8946     		mov	r9, r1
 726              		.loc 1 102 0
 727 010a FFF7FEFF 		bl	__aeabi_dcmpge
 728              	.LVL97:
 729 010e E8B1     		cbz	r0, .L45
 730              	.LVL98:
 731              	.LBB26:
 732              		.loc 1 103 0
 733 0110 2BA3     		adr	r3, .L47+8
 734 0112 D3E90023 		ldrd	r2, [r3]
 735 0116 4046     		mov	r0, r8
 736 0118 4946     		mov	r1, r9
 737 011a FFF7FEFF 		bl	__aeabi_ddiv
 738              	.LVL99:
 739 011e FFF7FEFF 		bl	__aeabi_d2iz
 740              	.LVL100:
ARM GAS  /var/folders/qd/4mxf5pkd0zdf0b9dd1hp39180000gn/T//cc7TiL7h.s 			page 14


 741              		.loc 1 104 0
 742 0122 4000     		lsls	r0, r0, #1
 743 0124 07EE900A 		vmov	s15, r0	@ int
 744 0128 9FED287A 		vldr.32	s14, .L47+20
 745 012c F8EEE77A 		vcvt.f32.s32	s15, s15
 746 0130 67EE877A 		vmul.f32	s15, s15, s14
 747 0134 17EE900A 		vmov	r0, s15
 748 0138 FFF7FEFF 		bl	__aeabi_f2d
 749              	.LVL101:
 750 013c 0246     		mov	r2, r0
 751 013e 0B46     		mov	r3, r1
 752 0140 4046     		mov	r0, r8
 753 0142 4946     		mov	r1, r9
 754 0144 FFF7FEFF 		bl	__aeabi_dsub
 755              	.LVL102:
 756 0148 8046     		mov	r8, r0
 757              	.LVL103:
 758 014a 8946     		mov	r9, r1
 759              	.L45:
 760 014c CAE90289 		strd	r8, [r10, #8]
 761              	.LBE26:
 762              		.loc 1 106 0
 763 0150 0022     		movs	r2, #0
 764 0152 0023     		movs	r3, #0
 765 0154 4046     		mov	r0, r8
 766 0156 4946     		mov	r1, r9
 767 0158 FFF7FEFF 		bl	__aeabi_dcmplt
 768              	.LVL104:
 769 015c A0B1     		cbz	r0, .L39
 770              		.loc 1 107 0
 771 015e 18A7     		adr	r7, .L47+8
 772 0160 D7E90067 		ldrd	r6, [r7]
 773              		.loc 1 106 0
 774 0164 0024     		movs	r4, #0
 775 0166 0025     		movs	r5, #0
 776              	.L41:
 777              		.loc 1 107 0
 778 0168 4046     		mov	r0, r8
 779 016a 4946     		mov	r1, r9
 780 016c 3246     		mov	r2, r6
 781 016e 3B46     		mov	r3, r7
 782 0170 FFF7FEFF 		bl	__aeabi_dadd
 783              	.LVL105:
 784              		.loc 1 106 0
 785 0174 2246     		mov	r2, r4
 786 0176 2B46     		mov	r3, r5
 787              		.loc 1 107 0
 788 0178 8046     		mov	r8, r0
 789 017a 8946     		mov	r9, r1
 790              		.loc 1 106 0
 791 017c FFF7FEFF 		bl	__aeabi_dcmplt
 792              	.LVL106:
 793 0180 0028     		cmp	r0, #0
 794 0182 F1D1     		bne	.L41
 795 0184 CAE90289 		strd	r8, [r10, #8]
 796              	.L39:
 797              		.loc 1 111 0
ARM GAS  /var/folders/qd/4mxf5pkd0zdf0b9dd1hp39180000gn/T//cc7TiL7h.s 			page 15


 798 0188 5B46     		mov	r3, fp
 799 018a 069A     		ldr	r2, [sp, #24]
 800 018c 1049     		ldr	r1, .L47+24
 801 018e CDE90089 		strd	r8, [sp]
 802 0192 0AA8     		add	r0, sp, #40
 803 0194 FFF7FEFF 		bl	sprintf
 804              	.LVL107:
 805              		.loc 1 112 0
 806 0198 0AA8     		add	r0, sp, #40
 807 019a 0321     		movs	r1, #3
 808 019c FFF7FEFF 		bl	mod_com_writeMessage
 809              	.LVL108:
 810              		.loc 1 113 0
 811 01a0 094B     		ldr	r3, .L47+16
 812 01a2 239A     		ldr	r2, [sp, #140]
 813 01a4 1B68     		ldr	r3, [r3]
 814 01a6 9A42     		cmp	r2, r3
 815 01a8 04D1     		bne	.L46
 816 01aa 25B0     		add	sp, sp, #148
 817              		.cfi_remember_state
 818              		.cfi_def_cfa_offset 44
 819              		@ sp needed
 820 01ac BDEC028B 		vldm	sp!, {d8}
 821              		.cfi_restore 80
 822              		.cfi_restore 81
 823              		.cfi_def_cfa_offset 36
 824              	.LVL109:
 825 01b0 BDE8F08F 		pop	{r4, r5, r6, r7, r8, r9, r10, fp, pc}
 826              	.LVL110:
 827              	.L46:
 828              		.cfi_restore_state
 829 01b4 FFF7FEFF 		bl	__stack_chk_fail
 830              	.LVL111:
 831              	.L48:
 832              		.align	3
 833              	.L47:
 834 01b8 00000060 		.word	1610612736
 835 01bc FB21F93F 		.word	1073291771
 836 01c0 00000060 		.word	1610612736
 837 01c4 FB211940 		.word	1075388923
 838 01c8 00000000 		.word	__stack_chk_guard
 839 01cc DB0F4940 		.word	1078530011
 840 01d0 00000000 		.word	.LC2
 841 01d4 00000000 		.word	.LANCHOR0
 842              		.cfi_endproc
 843              	.LFE262:
 844              		.size	moveOrigin, .-moveOrigin
 845              		.section	.text.computeCoefDirecteur,"ax",%progbits
 846              		.align	1
 847              		.p2align 4,,15
 848              		.global	computeCoefDirecteur
 849              		.syntax unified
 850              		.thumb
 851              		.thumb_func
 852              		.fpu fpv4-sp-d16
 853              		.type	computeCoefDirecteur, %function
 854              	computeCoefDirecteur:
ARM GAS  /var/folders/qd/4mxf5pkd0zdf0b9dd1hp39180000gn/T//cc7TiL7h.s 			page 16


 855              	.LFB263:
 856              		.loc 1 115 0
 857              		.cfi_startproc
 858              		@ args = 0, pretend = 0, frame = 32
 859              		@ frame_needed = 0, uses_anonymous_args = 0
 860              	.LVL112:
 861 0000 2DE9F04F 		push	{r4, r5, r6, r7, r8, r9, r10, fp, lr}
 862              		.cfi_def_cfa_offset 36
 863              		.cfi_offset 4, -36
 864              		.cfi_offset 5, -32
 865              		.cfi_offset 6, -28
 866              		.cfi_offset 7, -24
 867              		.cfi_offset 8, -20
 868              		.cfi_offset 9, -16
 869              		.cfi_offset 10, -12
 870              		.cfi_offset 11, -8
 871              		.cfi_offset 14, -4
 872 0004 3B4B     		ldr	r3, .L57
 873 0006 89B0     		sub	sp, sp, #36
 874              		.cfi_def_cfa_offset 72
 875              		.loc 1 115 0
 876 0008 1B68     		ldr	r3, [r3]
 877 000a 0591     		str	r1, [sp, #20]
 878              		.loc 1 118 0
 879 000c 0329     		cmp	r1, #3
 880              		.loc 1 115 0
 881 000e 0793     		str	r3, [sp, #28]
 882              	.LVL113:
 883 0010 0492     		str	r2, [sp, #16]
 884              		.loc 1 118 0
 885 0012 66DD     		ble	.L53
 886              		.loc 1 116 0
 887 0014 4FF0000A 		mov	r10, #0
 888 0018 4FF0000B 		mov	fp, #0
 889 001c A0F11803 		sub	r3, r0, #24
 890 0020 CDE900AB 		strd	r10, [sp]
 891 0024 03EBC103 		add	r3, r3, r1, lsl #3
 892 0028 0446     		mov	r4, r0
 893 002a 0393     		str	r3, [sp, #12]
 894              	.LVL114:
 895              	.L51:
 896              		.loc 1 119 0 discriminator 3
 897 002c D4F80480 		ldr	r8, [r4, #4]
 898 0030 E069     		ldr	r0, [r4, #28]
 899 0032 2568     		ldr	r5, [r4]
 900 0034 A8EB0000 		sub	r0, r8, r0
 901 0038 FFF7FEFF 		bl	__aeabi_i2d
 902              	.LVL115:
 903 003c 0646     		mov	r6, r0
 904 003e A069     		ldr	r0, [r4, #24]
 905 0040 281A     		subs	r0, r5, r0
 906 0042 0F46     		mov	r7, r1
 907 0044 FFF7FEFF 		bl	__aeabi_i2d
 908              	.LVL116:
 909 0048 0246     		mov	r2, r0
 910 004a 0B46     		mov	r3, r1
 911 004c 3046     		mov	r0, r6
ARM GAS  /var/folders/qd/4mxf5pkd0zdf0b9dd1hp39180000gn/T//cc7TiL7h.s 			page 17


 912 004e 3946     		mov	r1, r7
 913 0050 FFF7FEFF 		bl	__aeabi_ddiv
 914              	.LVL117:
 915              		.loc 1 122 0 discriminator 3
 916 0054 0246     		mov	r2, r0
 917 0056 0B46     		mov	r3, r1
 918              		.loc 1 119 0 discriminator 3
 919 0058 0646     		mov	r6, r0
 920 005a 0F46     		mov	r7, r1
 921              	.LVL118:
 922              		.loc 1 122 0 discriminator 3
 923 005c DDE90001 		ldrd	r0, [sp]
 924 0060 FFF7FEFF 		bl	__aeabi_dadd
 925              	.LVL119:
 926 0064 CDE90001 		strd	r0, [sp]
 927              	.LVL120:
 928              		.loc 1 120 0 discriminator 3
 929 0068 4046     		mov	r0, r8
 930              	.LVL121:
 931 006a FFF7FEFF 		bl	__aeabi_i2d
 932              	.LVL122:
 933 006e 8046     		mov	r8, r0
 934              	.LVL123:
 935 0070 2846     		mov	r0, r5
 936 0072 8946     		mov	r9, r1
 937 0074 FFF7FEFF 		bl	__aeabi_i2d
 938              	.LVL124:
 939 0078 3246     		mov	r2, r6
 940 007a 3B46     		mov	r3, r7
 941 007c FFF7FEFF 		bl	__aeabi_dmul
 942              	.LVL125:
 943 0080 0246     		mov	r2, r0
 944 0082 0B46     		mov	r3, r1
 945 0084 4046     		mov	r0, r8
 946 0086 4946     		mov	r1, r9
 947 0088 FFF7FEFF 		bl	__aeabi_dsub
 948              	.LVL126:
 949              		.loc 1 123 0 discriminator 3
 950 008c 0B46     		mov	r3, r1
 951 008e 0246     		mov	r2, r0
 952 0090 5946     		mov	r1, fp
 953 0092 5046     		mov	r0, r10
 954 0094 FFF7FEFF 		bl	__aeabi_dadd
 955              	.LVL127:
 956              		.loc 1 118 0 discriminator 3
 957 0098 039B     		ldr	r3, [sp, #12]
 958 009a 0834     		adds	r4, r4, #8
 959 009c A342     		cmp	r3, r4
 960              		.loc 1 123 0 discriminator 3
 961 009e 8246     		mov	r10, r0
 962              	.LVL128:
 963 00a0 8B46     		mov	fp, r1
 964              	.LVL129:
 965              		.loc 1 118 0 discriminator 3
 966 00a2 C3D1     		bne	.L51
 967 00a4 059B     		ldr	r3, [sp, #20]
 968 00a6 D81E     		subs	r0, r3, #3
ARM GAS  /var/folders/qd/4mxf5pkd0zdf0b9dd1hp39180000gn/T//cc7TiL7h.s 			page 18


 969 00a8 FFF7FEFF 		bl	__aeabi_i2d
 970              	.LVL130:
 971 00ac 0446     		mov	r4, r0
 972 00ae 0D46     		mov	r5, r1
 973              	.LVL131:
 974              	.L50:
 975              		.loc 1 125 0
 976 00b0 2246     		mov	r2, r4
 977 00b2 2B46     		mov	r3, r5
 978 00b4 DDE90001 		ldrd	r0, [sp]
 979 00b8 FFF7FEFF 		bl	__aeabi_ddiv
 980              	.LVL132:
 981              		.loc 1 126 0
 982 00bc 2246     		mov	r2, r4
 983              		.loc 1 125 0
 984 00be 049C     		ldr	r4, [sp, #16]
 985              		.loc 1 126 0
 986 00c0 2B46     		mov	r3, r5
 987              		.loc 1 125 0
 988 00c2 C4E90001 		strd	r0, [r4]
 989              		.loc 1 126 0
 990 00c6 5046     		mov	r0, r10
 991 00c8 5946     		mov	r1, fp
 992 00ca FFF7FEFF 		bl	__aeabi_ddiv
 993              	.LVL133:
 994              		.loc 1 128 0
 995 00ce 094B     		ldr	r3, .L57
 996 00d0 079A     		ldr	r2, [sp, #28]
 997 00d2 1B68     		ldr	r3, [r3]
 998 00d4 9A42     		cmp	r2, r3
 999              		.loc 1 126 0
 1000 00d6 C4E90201 		strd	r0, [r4, #8]
 1001              		.loc 1 128 0
 1002 00da 09D1     		bne	.L56
 1003 00dc 09B0     		add	sp, sp, #36
 1004              		.cfi_remember_state
 1005              		.cfi_def_cfa_offset 36
 1006              		@ sp needed
 1007 00de BDE8F08F 		pop	{r4, r5, r6, r7, r8, r9, r10, fp, pc}
 1008              	.LVL134:
 1009              	.L53:
 1010              		.cfi_restore_state
 1011              		.loc 1 118 0
 1012 00e2 0024     		movs	r4, #0
 1013 00e4 0025     		movs	r5, #0
 1014              		.loc 1 116 0
 1015 00e6 A246     		mov	r10, r4
 1016 00e8 AB46     		mov	fp, r5
 1017 00ea CDE90045 		strd	r4, [sp]
 1018 00ee DFE7     		b	.L50
 1019              	.LVL135:
 1020              	.L56:
 1021              		.loc 1 128 0
 1022 00f0 FFF7FEFF 		bl	__stack_chk_fail
 1023              	.LVL136:
 1024              	.L58:
 1025              		.align	2
ARM GAS  /var/folders/qd/4mxf5pkd0zdf0b9dd1hp39180000gn/T//cc7TiL7h.s 			page 19


 1026              	.L57:
 1027 00f4 00000000 		.word	__stack_chk_guard
 1028              		.cfi_endproc
 1029              	.LFE263:
 1030              		.size	computeCoefDirecteur, .-computeCoefDirecteur
 1031              		.section	.text.mod_mapping_init,"ax",%progbits
 1032              		.align	1
 1033              		.p2align 4,,15
 1034              		.global	mod_mapping_init
 1035              		.syntax unified
 1036              		.thumb
 1037              		.thumb_func
 1038              		.fpu fpv4-sp-d16
 1039              		.type	mod_mapping_init, %function
 1040              	mod_mapping_init:
 1041              	.LFB264:
 1042              		.loc 1 135 0
 1043              		.cfi_startproc
 1044              		@ args = 0, pretend = 0, frame = 8
 1045              		@ frame_needed = 0, uses_anonymous_args = 0
 1046 0000 D0B5     		push	{r4, r6, r7, lr}
 1047              		.cfi_def_cfa_offset 16
 1048              		.cfi_offset 4, -16
 1049              		.cfi_offset 6, -12
 1050              		.cfi_offset 7, -8
 1051              		.cfi_offset 14, -4
 1052 0002 0F4C     		ldr	r4, .L64
 1053              	.LBB27:
 1054              	.LBB28:
 1055              		.loc 1 144 0
 1056 0004 0F4B     		ldr	r3, .L64+4
 1057              	.LBE28:
 1058              	.LBE27:
 1059              		.loc 1 135 0
 1060 0006 2268     		ldr	r2, [r4]
 1061 0008 82B0     		sub	sp, sp, #8
 1062              		.cfi_def_cfa_offset 24
 1063              	.LBB32:
 1064              	.LBB29:
 1065              		.loc 1 144 0
 1066 000a 0026     		movs	r6, #0
 1067              	.LBE29:
 1068              	.LBE32:
 1069              		.loc 1 135 0
 1070 000c 0192     		str	r2, [sp, #4]
 1071              	.LBB33:
 1072              	.LBB30:
 1073              		.loc 1 144 0
 1074 000e 0027     		movs	r7, #0
 1075 0010 0022     		movs	r2, #0
 1076              	.LBE30:
 1077              	.LBE33:
 1078              		.loc 1 139 0
 1079 0012 0820     		movs	r0, #8
 1080              	.LBB34:
 1081              	.LBB31:
 1082              		.loc 1 144 0
ARM GAS  /var/folders/qd/4mxf5pkd0zdf0b9dd1hp39180000gn/T//cc7TiL7h.s 			page 20


 1083 0014 C3E90022 		strd	r2, r2, [r3]
 1084 0018 C3E90267 		strd	r6, [r3, #8]
 1085              	.LBE31:
 1086              	.LBE34:
 1087              		.loc 1 139 0
 1088 001c FFF7FEFF 		bl	malloc
 1089              	.LVL137:
 1090              		.loc 1 140 0
 1091 0020 019A     		ldr	r2, [sp, #4]
 1092 0022 2368     		ldr	r3, [r4]
 1093              		.loc 1 139 0
 1094 0024 0849     		ldr	r1, .L64+8
 1095              		.loc 1 140 0
 1096 0026 9A42     		cmp	r2, r3
 1097              		.loc 1 139 0
 1098 0028 0860     		str	r0, [r1]
 1099              		.loc 1 140 0
 1100 002a 07D1     		bne	.L63
 1101 002c 0030     		adds	r0, r0, #0
 1102 002e 18BF     		it	ne
 1103 0030 0120     		movne	r0, #1
 1104              		.loc 1 141 0
 1105 0032 02B0     		add	sp, sp, #8
 1106              		.cfi_remember_state
 1107              		.cfi_def_cfa_offset 16
 1108              		@ sp needed
 1109 0034 BDE8D040 		pop	{r4, r6, r7, lr}
 1110              		.cfi_restore 14
 1111              		.cfi_restore 7
 1112              		.cfi_restore 6
 1113              		.cfi_restore 4
 1114              		.cfi_def_cfa_offset 0
 1115              		.loc 1 140 0
 1116 0038 FFF7FEBF 		b	assert
 1117              	.LVL138:
 1118              	.L63:
 1119              		.cfi_restore_state
 1120 003c FFF7FEFF 		bl	__stack_chk_fail
 1121              	.LVL139:
 1122              	.L65:
 1123              		.align	2
 1124              	.L64:
 1125 0040 00000000 		.word	__stack_chk_guard
 1126 0044 00000000 		.word	.LANCHOR0
 1127 0048 00000000 		.word	.LANCHOR1
 1128              		.cfi_endproc
 1129              	.LFE264:
 1130              		.size	mod_mapping_init, .-mod_mapping_init
 1131              		.section	.text.mod_mapping_resetCoordinates,"ax",%progbits
 1132              		.align	1
 1133              		.p2align 4,,15
 1134              		.global	mod_mapping_resetCoordinates
 1135              		.syntax unified
 1136              		.thumb
 1137              		.thumb_func
 1138              		.fpu fpv4-sp-d16
 1139              		.type	mod_mapping_resetCoordinates, %function
ARM GAS  /var/folders/qd/4mxf5pkd0zdf0b9dd1hp39180000gn/T//cc7TiL7h.s 			page 21


 1140              	mod_mapping_resetCoordinates:
 1141              	.LFB265:
 1142              		.loc 1 143 0
 1143              		.cfi_startproc
 1144              		@ args = 0, pretend = 0, frame = 8
 1145              		@ frame_needed = 0, uses_anonymous_args = 0
 1146 0000 30B5     		push	{r4, r5, lr}
 1147              		.cfi_def_cfa_offset 12
 1148              		.cfi_offset 4, -12
 1149              		.cfi_offset 5, -8
 1150              		.cfi_offset 14, -4
 1151 0002 0A4A     		ldr	r2, .L70
 1152              		.loc 1 144 0
 1153 0004 0A4B     		ldr	r3, .L70+4
 1154              		.loc 1 143 0
 1155 0006 1168     		ldr	r1, [r2]
 1156 0008 83B0     		sub	sp, sp, #12
 1157              		.cfi_def_cfa_offset 24
 1158              		.loc 1 144 0
 1159 000a 0024     		movs	r4, #0
 1160              		.loc 1 143 0
 1161 000c 0191     		str	r1, [sp, #4]
 1162              		.loc 1 145 0
 1163 000e 0198     		ldr	r0, [sp, #4]
 1164 0010 1168     		ldr	r1, [r2]
 1165              		.loc 1 144 0
 1166 0012 0025     		movs	r5, #0
 1167 0014 0022     		movs	r2, #0
 1168              		.loc 1 145 0
 1169 0016 8842     		cmp	r0, r1
 1170              		.loc 1 144 0
 1171 0018 C3E90245 		strd	r4, [r3, #8]
 1172 001c C3E90022 		strd	r2, r2, [r3]
 1173              		.loc 1 145 0
 1174 0020 01D1     		bne	.L69
 1175 0022 03B0     		add	sp, sp, #12
 1176              		.cfi_remember_state
 1177              		.cfi_def_cfa_offset 12
 1178              		@ sp needed
 1179 0024 30BD     		pop	{r4, r5, pc}
 1180              	.L69:
 1181              		.cfi_restore_state
 1182 0026 FFF7FEFF 		bl	__stack_chk_fail
 1183              	.LVL140:
 1184              	.L71:
 1185 002a 00BF     		.align	2
 1186              	.L70:
 1187 002c 00000000 		.word	__stack_chk_guard
 1188 0030 00000000 		.word	.LANCHOR0
 1189              		.cfi_endproc
 1190              	.LFE265:
 1191              		.size	mod_mapping_resetCoordinates, .-mod_mapping_resetCoordinates
 1192              		.section	.text.mod_mapping_adaptCoordinatesToOrigin,"ax",%progbits
 1193              		.align	1
 1194              		.p2align 4,,15
 1195              		.global	mod_mapping_adaptCoordinatesToOrigin
 1196              		.syntax unified
ARM GAS  /var/folders/qd/4mxf5pkd0zdf0b9dd1hp39180000gn/T//cc7TiL7h.s 			page 22


 1197              		.thumb
 1198              		.thumb_func
 1199              		.fpu fpv4-sp-d16
 1200              		.type	mod_mapping_adaptCoordinatesToOrigin, %function
 1201              	mod_mapping_adaptCoordinatesToOrigin:
 1202              	.LFB266:
 1203              		.loc 1 147 0
 1204              		.cfi_startproc
 1205              		@ args = 0, pretend = 0, frame = 8
 1206              		@ frame_needed = 0, uses_anonymous_args = 0
 1207              	.LVL141:
 1208 0000 30B5     		push	{r4, r5, lr}
 1209              		.cfi_def_cfa_offset 12
 1210              		.cfi_offset 4, -12
 1211              		.cfi_offset 5, -8
 1212              		.cfi_offset 14, -4
 1213 0002 0A4D     		ldr	r5, .L76
 1214              		.loc 1 148 0
 1215 0004 0A4C     		ldr	r4, .L76+4
 1216              		.loc 1 147 0
 1217 0006 2B68     		ldr	r3, [r5]
 1218              		.loc 1 148 0
 1219 0008 2060     		str	r0, [r4]
 1220              		.loc 1 147 0
 1221 000a 83B0     		sub	sp, sp, #12
 1222              		.cfi_def_cfa_offset 24
 1223              		.loc 1 147 0
 1224 000c 0193     		str	r3, [sp, #4]
 1225 000e 0346     		mov	r3, r0
 1226              		.loc 1 148 0
 1227 0010 6360     		str	r3, [r4, #4]
 1228 0012 1046     		mov	r0, r2
 1229              	.LVL142:
 1230 0014 FFF7FEFF 		bl	__aeabi_i2d
 1231              	.LVL143:
 1232              		.loc 1 149 0
 1233 0018 019A     		ldr	r2, [sp, #4]
 1234 001a 2B68     		ldr	r3, [r5]
 1235 001c 9A42     		cmp	r2, r3
 1236              		.loc 1 148 0
 1237 001e C4E90201 		strd	r0, [r4, #8]
 1238              		.loc 1 149 0
 1239 0022 01D1     		bne	.L75
 1240 0024 03B0     		add	sp, sp, #12
 1241              		.cfi_remember_state
 1242              		.cfi_def_cfa_offset 12
 1243              		@ sp needed
 1244 0026 30BD     		pop	{r4, r5, pc}
 1245              	.L75:
 1246              		.cfi_restore_state
 1247 0028 FFF7FEFF 		bl	__stack_chk_fail
 1248              	.LVL144:
 1249              	.L77:
 1250              		.align	2
 1251              	.L76:
 1252 002c 00000000 		.word	__stack_chk_guard
 1253 0030 00000000 		.word	.LANCHOR0
ARM GAS  /var/folders/qd/4mxf5pkd0zdf0b9dd1hp39180000gn/T//cc7TiL7h.s 			page 23


 1254              		.cfi_endproc
 1255              	.LFE266:
 1256              		.size	mod_mapping_adaptCoordinatesToOrigin, .-mod_mapping_adaptCoordinatesToOrigin
 1257              		.section	.text.mod_mapping_updatePositionWheelSpeedType,"ax",%progbits
 1258              		.align	1
 1259              		.p2align 4,,15
 1260              		.global	mod_mapping_updatePositionWheelSpeedType
 1261              		.syntax unified
 1262              		.thumb
 1263              		.thumb_func
 1264              		.fpu fpv4-sp-d16
 1265              		.type	mod_mapping_updatePositionWheelSpeedType, %function
 1266              	mod_mapping_updatePositionWheelSpeedType:
 1267              	.LFB267:
 1268              		.loc 1 151 0
 1269              		.cfi_startproc
 1270              		@ args = 0, pretend = 0, frame = 24
 1271              		@ frame_needed = 0, uses_anonymous_args = 0
 1272              	.LVL145:
 1273 0000 F0B5     		push	{r4, r5, r6, r7, lr}
 1274              		.cfi_def_cfa_offset 20
 1275              		.cfi_offset 4, -20
 1276              		.cfi_offset 5, -16
 1277              		.cfi_offset 6, -12
 1278              		.cfi_offset 7, -8
 1279              		.cfi_offset 14, -4
 1280 0002 0C4E     		ldr	r6, .L82
 1281              		.loc 1 152 0
 1282 0004 0C4C     		ldr	r4, .L82+4
 1283              		.loc 1 151 0
 1284 0006 3368     		ldr	r3, [r6]
 1285 0008 87B0     		sub	sp, sp, #28
 1286              		.cfi_def_cfa_offset 48
 1287              		.loc 1 152 0
 1288 000a 6D46     		mov	r5, sp
 1289 000c 0246     		mov	r2, r0
 1290              		.loc 1 151 0
 1291 000e 0593     		str	r3, [sp, #20]
 1292              		.loc 1 152 0
 1293 0010 2846     		mov	r0, r5
 1294              	.LVL146:
 1295 0012 0B46     		mov	r3, r1
 1296 0014 2146     		mov	r1, r4
 1297              	.LVL147:
 1298 0016 FFF7FEFF 		bl	newAbsolutePositionWheelSpeedType
 1299              	.LVL148:
 1300 001a 95E80F00 		ldm	r5, {r0, r1, r2, r3}
 1301              		.loc 1 153 0
 1302 001e 059F     		ldr	r7, [sp, #20]
 1303 0020 3568     		ldr	r5, [r6]
 1304 0022 AF42     		cmp	r7, r5
 1305              		.loc 1 152 0
 1306 0024 84E80F00 		stm	r4, {r0, r1, r2, r3}
 1307              		.loc 1 153 0
 1308 0028 01D1     		bne	.L81
 1309 002a 07B0     		add	sp, sp, #28
 1310              		.cfi_remember_state
ARM GAS  /var/folders/qd/4mxf5pkd0zdf0b9dd1hp39180000gn/T//cc7TiL7h.s 			page 24


 1311              		.cfi_def_cfa_offset 20
 1312              		@ sp needed
 1313 002c F0BD     		pop	{r4, r5, r6, r7, pc}
 1314              	.L81:
 1315              		.cfi_restore_state
 1316 002e FFF7FEFF 		bl	__stack_chk_fail
 1317              	.LVL149:
 1318              	.L83:
 1319 0032 00BF     		.align	2
 1320              	.L82:
 1321 0034 00000000 		.word	__stack_chk_guard
 1322 0038 00000000 		.word	.LANCHOR0
 1323              		.cfi_endproc
 1324              	.LFE267:
 1325              		.size	mod_mapping_updatePositionWheelSpeedType, .-mod_mapping_updatePositionWheelSpeedType
 1326              		.section	.text.mod_mapping_computeWallLocation,"ax",%progbits
 1327              		.align	1
 1328              		.p2align 4,,15
 1329              		.global	mod_mapping_computeWallLocation
 1330              		.syntax unified
 1331              		.thumb
 1332              		.thumb_func
 1333              		.fpu fpv4-sp-d16
 1334              		.type	mod_mapping_computeWallLocation, %function
 1335              	mod_mapping_computeWallLocation:
 1336              	.LFB268:
 1337              		.loc 1 156 0
 1338              		.cfi_startproc
 1339              		@ args = 0, pretend = 0, frame = 72
 1340              		@ frame_needed = 0, uses_anonymous_args = 0
 1341              	.LVL150:
 1342 0000 2DE9F04F 		push	{r4, r5, r6, r7, r8, r9, r10, fp, lr}
 1343              		.cfi_def_cfa_offset 36
 1344              		.cfi_offset 4, -36
 1345              		.cfi_offset 5, -32
 1346              		.cfi_offset 6, -28
 1347              		.cfi_offset 7, -24
 1348              		.cfi_offset 8, -20
 1349              		.cfi_offset 9, -16
 1350              		.cfi_offset 10, -12
 1351              		.cfi_offset 11, -8
 1352              		.cfi_offset 14, -4
 1353 0004 AA4B     		ldr	r3, .L117
 1354 0006 93B0     		sub	sp, sp, #76
 1355              		.cfi_def_cfa_offset 112
 1356              		.loc 1 156 0
 1357 0008 1B68     		ldr	r3, [r3]
 1358 000a 1193     		str	r3, [sp, #68]
 1359              	.LVL151:
 1360 000c 0546     		mov	r5, r0
 1361              		.loc 1 173 0
 1362 000e 4FF40870 		mov	r0, #544
 1363              	.LVL152:
 1364 0012 FFF7FEFF 		bl	malloc
 1365              	.LVL153:
 1366              		.loc 1 174 0
 1367 0016 0446     		mov	r4, r0
ARM GAS  /var/folders/qd/4mxf5pkd0zdf0b9dd1hp39180000gn/T//cc7TiL7h.s 			page 25


 1368 0018 0030     		adds	r0, r0, #0
 1369              	.LVL154:
 1370 001a 18BF     		it	ne
 1371 001c 0120     		movne	r0, #1
 1372 001e FFF7FEFF 		bl	assert
 1373              	.LVL155:
 1374              		.loc 1 175 0
 1375 0022 0223     		movs	r3, #2
 1376              		.loc 1 159 0
 1377 0024 0021     		movs	r1, #0
 1378              		.loc 1 175 0
 1379 0026 84F88030 		strb	r3, [r4, #128]
 1380              	.LVL156:
 1381              		.loc 1 226 0
 1382 002a 2346     		mov	r3, r4
 1383 002c 2846     		mov	r0, r5
 1384 002e 05F5407E 		add	lr, r5, #768
 1385              		.loc 1 210 0
 1386 0032 8946     		mov	r9, r1
 1387              		.loc 1 226 0
 1388 0034 4FF00108 		mov	r8, #1
 1389 0038 0C46     		mov	r4, r1
 1390              	.LVL157:
 1391 003a 9C46     		mov	ip, r3
 1392 003c 1BE0     		b	.L95
 1393              	.LVL158:
 1394              	.L86:
 1395              		.loc 1 197 0
 1396 003e 012F     		cmp	r7, #1
 1397 0040 4ED0     		beq	.L113
 1398              		.loc 1 213 0
 1399 0042 002F     		cmp	r7, #0
 1400 0044 3FD1     		bne	.L111
 1401 0046 03EB8406 		add	r6, r3, r4, lsl #2
 1402              		.loc 1 214 0
 1403 004a 56F8046C 		ldr	r6, [r6, #-4]
 1404 004e 3669     		ldr	r6, [r6, #16]
 1405 0050 B242     		cmp	r2, r6
 1406 0052 36DC     		bgt	.L112
 1407              		.loc 1 217 0
 1408 0054 0CD0     		beq	.L85
 1409              		.loc 1 222 0
 1410 0056 0131     		adds	r1, r1, #1
 1411              	.LVL159:
 1412 0058 8835     		adds	r5, r5, #136
 1413              		.loc 1 224 0
 1414 005a 0329     		cmp	r1, #3
 1415              		.loc 1 221 0
 1416 005c C3F88440 		str	r4, [r3, #132]
 1417 0060 0CEB0503 		add	r3, ip, r5
 1418              		.loc 1 224 0
 1419 0064 59DC     		bgt	.L92
 1420              		.loc 1 225 0
 1421 0066 4CF80500 		str	r0, [ip, r5]
 1422              		.loc 1 226 0
 1423 006a 0124     		movs	r4, #1
 1424              	.LVL160:
ARM GAS  /var/folders/qd/4mxf5pkd0zdf0b9dd1hp39180000gn/T//cc7TiL7h.s 			page 26


 1425 006c 83F88080 		strb	r8, [r3, #128]
 1426              	.L85:
 1427              	.LVL161:
 1428 0070 1830     		adds	r0, r0, #24
 1429              		.loc 1 177 0 discriminator 2
 1430 0072 8645     		cmp	lr, r0
 1431 0074 14D0     		beq	.L114
 1432              	.LVL162:
 1433              	.L95:
 1434              		.loc 1 178 0
 1435 0076 0269     		ldr	r2, [r0, #16]
 1436 0078 01EB0116 		add	r6, r1, r1, lsl #4
 1437 007c 571E     		subs	r7, r2, #1
 1438 007e F500     		lsls	r5, r6, #3
 1439 0080 952F     		cmp	r7, #149
 1440 0082 0CEB0503 		add	r3, ip, r5
 1441 0086 F3D8     		bhi	.L85
 1442              		.loc 1 180 0
 1443 0088 93F88070 		ldrb	r7, [r3, #128]	@ zero_extendqisi2
 1444 008c 022F     		cmp	r7, #2
 1445 008e D6D1     		bne	.L86
 1446              		.loc 1 180 0 is_stmt 0 discriminator 1
 1447 0090 DCB9     		cbnz	r4, .L87
 1448              		.loc 1 181 0 is_stmt 1
 1449 0092 4CF83600 		str	r0, [ip, r6, lsl #3]
 1450 0096 1830     		adds	r0, r0, #24
 1451              		.loc 1 177 0
 1452 0098 8645     		cmp	lr, r0
 1453              		.loc 1 181 0
 1454 009a 4FF00104 		mov	r4, #1
 1455              	.LVL163:
 1456              		.loc 1 177 0
 1457 009e EAD1     		bne	.L95
 1458              	.L114:
 1459 00a0 6246     		mov	r2, ip
 1460              		.loc 1 235 0
 1461 00a2 0229     		cmp	r1, #2
 1462 00a4 A446     		mov	ip, r4
 1463              	.LVL164:
 1464              		.loc 1 232 0
 1465 00a6 C3F884C0 		str	ip, [r3, #132]
 1466 00aa 1446     		mov	r4, r2
 1467              	.LVL165:
 1468              		.loc 1 235 0
 1469 00ac 39DC     		bgt	.L103
 1470 00ae 0020     		movs	r0, #0
 1471              	.LVL166:
 1472              	.L96:
 1473              		.loc 1 287 0
 1474 00b0 7F4B     		ldr	r3, .L117
 1475 00b2 119A     		ldr	r2, [sp, #68]
 1476 00b4 1B68     		ldr	r3, [r3]
 1477 00b6 9A42     		cmp	r2, r3
 1478 00b8 40F0F780 		bne	.L115
 1479 00bc 13B0     		add	sp, sp, #76
 1480              		.cfi_remember_state
 1481              		.cfi_def_cfa_offset 36
ARM GAS  /var/folders/qd/4mxf5pkd0zdf0b9dd1hp39180000gn/T//cc7TiL7h.s 			page 27


 1482              		@ sp needed
 1483 00be BDE8F08F 		pop	{r4, r5, r6, r7, r8, r9, r10, fp, pc}
 1484              	.LVL167:
 1485              	.L112:
 1486              		.cfi_restore_state
 1487              		.loc 1 215 0
 1488 00c2 43F82400 		str	r0, [r3, r4, lsl #2]
 1489              	.L111:
 1490 00c6 0134     		adds	r4, r4, #1
 1491              	.LVL168:
 1492 00c8 D2E7     		b	.L85
 1493              	.LVL169:
 1494              	.L87:
 1495              		.loc 1 185 0
 1496 00ca 5CF83650 		ldr	r5, [ip, r6, lsl #3]
 1497 00ce 2D69     		ldr	r5, [r5, #16]
 1498 00d0 AA42     		cmp	r2, r5
 1499 00d2 1BDA     		bge	.L89
 1500              		.loc 1 186 0
 1501 00d4 83F88080 		strb	r8, [r3, #128]
 1502              		.loc 1 187 0
 1503 00d8 43F82400 		str	r0, [r3, r4, lsl #2]
 1504 00dc 0134     		adds	r4, r4, #1
 1505              	.LVL170:
 1506 00de C7E7     		b	.L85
 1507              	.LVL171:
 1508              	.L113:
 1509 00e0 03EB8406 		add	r6, r3, r4, lsl #2
 1510              		.loc 1 198 0
 1511 00e4 56F8046C 		ldr	r6, [r6, #-4]
 1512 00e8 3669     		ldr	r6, [r6, #16]
 1513 00ea B242     		cmp	r2, r6
 1514 00ec E9DB     		blt	.L112
 1515              		.loc 1 201 0
 1516 00ee BFD0     		beq	.L85
 1517              		.loc 1 206 0
 1518 00f0 0131     		adds	r1, r1, #1
 1519              	.LVL172:
 1520 00f2 8835     		adds	r5, r5, #136
 1521              		.loc 1 208 0
 1522 00f4 0329     		cmp	r1, #3
 1523              		.loc 1 205 0
 1524 00f6 C3F88440 		str	r4, [r3, #132]
 1525 00fa 0CEB0503 		add	r3, ip, r5
 1526              		.loc 1 208 0
 1527 00fe 0CDC     		bgt	.L92
 1528              		.loc 1 209 0
 1529 0100 4CF80500 		str	r0, [ip, r5]
 1530              		.loc 1 210 0
 1531 0104 3C46     		mov	r4, r7
 1532 0106 83F88090 		strb	r9, [r3, #128]
 1533 010a B1E7     		b	.L85
 1534              	.LVL173:
 1535              	.L89:
 1536              		.loc 1 189 0
 1537 010c B0D0     		beq	.L85
 1538              		.loc 1 193 0
ARM GAS  /var/folders/qd/4mxf5pkd0zdf0b9dd1hp39180000gn/T//cc7TiL7h.s 			page 28


 1539 010e 83F88090 		strb	r9, [r3, #128]
 1540              		.loc 1 194 0
 1541 0112 43F82400 		str	r0, [r3, r4, lsl #2]
 1542 0116 0134     		adds	r4, r4, #1
 1543              	.LVL174:
 1544 0118 AAE7     		b	.L85
 1545              	.LVL175:
 1546              	.L92:
 1547              		.loc 1 232 0
 1548 011a 0022     		movs	r2, #0
 1549 011c 6446     		mov	r4, ip
 1550              	.LVL176:
 1551 011e C3F88420 		str	r2, [r3, #132]
 1552              	.LVL177:
 1553              	.L103:
 1554              		.loc 1 238 0
 1555 0122 0820     		movs	r0, #8
 1556 0124 FFF7FEFF 		bl	malloc
 1557              	.LVL178:
 1558 0128 8246     		mov	r10, r0
 1559              	.LVL179:
 1560              		.loc 1 239 0
 1561 012a 0820     		movs	r0, #8
 1562              	.LVL180:
 1563 012c FFF7FEFF 		bl	malloc
 1564              	.LVL181:
 1565              		.loc 1 237 0
 1566 0130 4FF00008 		mov	r8, #0
 1567 0134 CDF80880 		str	r8, [sp, #8]
 1568              		.loc 1 240 0
 1569 0138 CDF80080 		str	r8, [sp]
 1570 013c 04AE     		add	r6, sp, #16
 1571 013e A146     		mov	r9, r4
 1572 0140 8346     		mov	fp, r0
 1573 0142 0394     		str	r4, [sp, #12]
 1574              	.LVL182:
 1575              	.L97:
 1576              		.loc 1 241 0
 1577 0144 D9F88420 		ldr	r2, [r9, #132]
 1578 0148 002A     		cmp	r2, #0
 1579 014a 3EDD     		ble	.L102
 1580 014c 0024     		movs	r4, #0
 1581 014e 1BE0     		b	.L100
 1582              	.LVL183:
 1583              	.L116:
 1584              		.loc 1 243 0
 1585 0150 029B     		ldr	r3, [sp, #8]
 1586 0152 0133     		adds	r3, r3, #1
 1587 0154 DD00     		lsls	r5, r3, #3
 1588 0156 2946     		mov	r1, r5
 1589 0158 5046     		mov	r0, r10
 1590 015a 0293     		str	r3, [sp, #8]
 1591              	.LVL184:
 1592 015c FFF7FEFF 		bl	realloc
 1593              	.LVL185:
 1594              		.loc 1 244 0
 1595 0160 8246     		mov	r10, r0
ARM GAS  /var/folders/qd/4mxf5pkd0zdf0b9dd1hp39180000gn/T//cc7TiL7h.s 			page 29


 1596 0162 0030     		adds	r0, r0, #0
 1597              	.LVL186:
 1598 0164 18BF     		it	ne
 1599 0166 0120     		movne	r0, #1
 1600 0168 FFF7FEFF 		bl	assert
 1601              	.LVL187:
 1602              		.loc 1 246 0
 1603 016c 3946     		mov	r1, r7
 1604 016e 3046     		mov	r0, r6
 1605 0170 FFF7FEFF 		bl	measurementToPoint
 1606              	.LVL188:
 1607 0174 96E80300 		ldm	r6, {r0, r1}
 1608 0178 5544     		add	r5, r5, r10
 1609 017a 05E90300 		stmdb	r5, {r0, r1}
 1610              	.LVL189:
 1611              		.loc 1 241 0
 1612 017e D9F88420 		ldr	r2, [r9, #132]
 1613 0182 0134     		adds	r4, r4, #1
 1614              	.LVL190:
 1615 0184 A242     		cmp	r2, r4
 1616 0186 20DD     		ble	.L102
 1617              	.LVL191:
 1618              	.L100:
 1619              		.loc 1 242 0
 1620 0188 009B     		ldr	r3, [sp]
 1621 018a 59F82470 		ldr	r7, [r9, r4, lsl #2]
 1622 018e 012B     		cmp	r3, #1
 1623 0190 DEDD     		ble	.L116
 1624              		.loc 1 251 0
 1625 0192 08F10108 		add	r8, r8, #1
 1626              	.LVL192:
 1627 0196 4FEAC805 		lsl	r5, r8, #3
 1628 019a 2946     		mov	r1, r5
 1629 019c 5846     		mov	r0, fp
 1630 019e FFF7FEFF 		bl	realloc
 1631              	.LVL193:
 1632              		.loc 1 252 0
 1633 01a2 8346     		mov	fp, r0
 1634 01a4 0030     		adds	r0, r0, #0
 1635              	.LVL194:
 1636 01a6 18BF     		it	ne
 1637 01a8 0120     		movne	r0, #1
 1638 01aa FFF7FEFF 		bl	assert
 1639              	.LVL195:
 1640              		.loc 1 254 0
 1641 01ae 3946     		mov	r1, r7
 1642 01b0 3046     		mov	r0, r6
 1643 01b2 FFF7FEFF 		bl	measurementToPoint
 1644              	.LVL196:
 1645 01b6 96E80300 		ldm	r6, {r0, r1}
 1646 01ba 5D44     		add	r5, r5, fp
 1647 01bc 05E90300 		stmdb	r5, {r0, r1}
 1648              	.LVL197:
 1649              		.loc 1 241 0
 1650 01c0 D9F88420 		ldr	r2, [r9, #132]
 1651 01c4 0134     		adds	r4, r4, #1
 1652              	.LVL198:
ARM GAS  /var/folders/qd/4mxf5pkd0zdf0b9dd1hp39180000gn/T//cc7TiL7h.s 			page 30


 1653 01c6 A242     		cmp	r2, r4
 1654 01c8 DEDC     		bgt	.L100
 1655              	.LVL199:
 1656              	.L102:
 1657              		.loc 1 240 0 discriminator 2
 1658 01ca 009B     		ldr	r3, [sp]
 1659 01cc 0133     		adds	r3, r3, #1
 1660 01ce 042B     		cmp	r3, #4
 1661 01d0 0093     		str	r3, [sp]
 1662              	.LVL200:
 1663 01d2 09F18809 		add	r9, r9, #136
 1664 01d6 B5D1     		bne	.L97
 1665 01d8 039C     		ldr	r4, [sp, #12]
 1666              		.loc 1 260 0
 1667 01da 2046     		mov	r0, r4
 1668 01dc FFF7FEFF 		bl	free
 1669              	.LVL201:
 1670              		.loc 1 265 0
 1671 01e0 5046     		mov	r0, r10
 1672 01e2 0299     		ldr	r1, [sp, #8]
 1673 01e4 08AA     		add	r2, sp, #32
 1674 01e6 FFF7FEFF 		bl	computeCoefDirecteur
 1675              	.LVL202:
 1676              		.loc 1 266 0
 1677 01ea 4146     		mov	r1, r8
 1678 01ec 0CAA     		add	r2, sp, #48
 1679 01ee 5846     		mov	r0, fp
 1680 01f0 FFF7FEFF 		bl	computeCoefDirecteur
 1681              	.LVL203:
 1682              		.loc 1 268 0
 1683 01f4 5046     		mov	r0, r10
 1684 01f6 FFF7FEFF 		bl	free
 1685              	.LVL204:
 1686              		.loc 1 270 0
 1687 01fa 5846     		mov	r0, fp
 1688 01fc FFF7FEFF 		bl	free
 1689              	.LVL205:
 1690              		.loc 1 275 0
 1691 0200 DDE90E67 		ldrd	r6, [sp, #56]
 1692 0204 DDE90A23 		ldrd	r2, [sp, #40]
 1693 0208 3046     		mov	r0, r6
 1694 020a 3946     		mov	r1, r7
 1695 020c FFF7FEFF 		bl	__aeabi_dsub
 1696              	.LVL206:
 1697 0210 DDE90C45 		ldrd	r4, [sp, #48]
 1698 0214 DDE90889 		ldrd	r8, [sp, #32]
 1699              	.LVL207:
 1700 0218 8246     		mov	r10, r0
 1701 021a 2246     		mov	r2, r4
 1702 021c 8B46     		mov	fp, r1
 1703 021e 2B46     		mov	r3, r5
 1704 0220 4046     		mov	r0, r8
 1705 0222 4946     		mov	r1, r9
 1706 0224 FFF7FEFF 		bl	__aeabi_dsub
 1707              	.LVL208:
 1708 0228 0246     		mov	r2, r0
 1709 022a 0B46     		mov	r3, r1
ARM GAS  /var/folders/qd/4mxf5pkd0zdf0b9dd1hp39180000gn/T//cc7TiL7h.s 			page 31


 1710 022c 5046     		mov	r0, r10
 1711 022e 5946     		mov	r1, fp
 1712 0230 FFF7FEFF 		bl	__aeabi_ddiv
 1713              	.LVL209:
 1714 0234 FFF7FEFF 		bl	__aeabi_d2iz
 1715              	.LVL210:
 1716 0238 8246     		mov	r10, r0
 1717              	.LVL211:
 1718              		.loc 1 276 0
 1719 023a FFF7FEFF 		bl	__aeabi_i2d
 1720              	.LVL212:
 1721 023e 2246     		mov	r2, r4
 1722 0240 2B46     		mov	r3, r5
 1723 0242 FFF7FEFF 		bl	__aeabi_dmul
 1724              	.LVL213:
 1725 0246 3246     		mov	r2, r6
 1726 0248 3B46     		mov	r3, r7
 1727 024a FFF7FEFF 		bl	__aeabi_dadd
 1728              	.LVL214:
 1729 024e FFF7FEFF 		bl	__aeabi_d2iz
 1730              	.LVL215:
 1731              		.loc 1 278 0
 1732 0252 4246     		mov	r2, r8
 1733 0254 4B46     		mov	r3, r9
 1734              		.loc 1 276 0
 1735 0256 0790     		str	r0, [sp, #28]
 1736              		.loc 1 278 0
 1737 0258 1649     		ldr	r1, .L117+4
 1738 025a 0020     		movs	r0, #0
 1739 025c FFF7FEFF 		bl	__aeabi_ddiv
 1740              	.LVL216:
 1741 0260 41EC100B 		vmov	d0, r0, r1
 1742 0264 FFF7FEFF 		bl	atan
 1743              	.LVL217:
 1744 0268 51EC100B 		vmov	r0, r1, d0
 1745 026c 45EC104B 		vmov	d0, r4, r5
 1746 0270 CDE90001 		strd	r0, [sp]
 1747              	.LVL218:
 1748 0274 FFF7FEFF 		bl	atan
 1749              	.LVL219:
 1750              		.loc 1 280 0
 1751 0278 12AC     		add	r4, sp, #72
 1752              		.loc 1 278 0
 1753 027a 53EC102B 		vmov	r2, r3, d0
 1754 027e DDE90001 		ldrd	r0, [sp]
 1755              		.loc 1 280 0
 1756 0282 44F830AD 		str	r10, [r4, #-48]!
 1757              		.loc 1 278 0
 1758 0286 FFF7FEFF 		bl	__aeabi_dsub
 1759              	.LVL220:
 1760 028a 0022     		movs	r2, #0
 1761 028c 0A4B     		ldr	r3, .L117+8
 1762 028e FFF7FEFF 		bl	__aeabi_dmul
 1763              	.LVL221:
 1764              		.loc 1 280 0
 1765 0292 41EC100B 		vmov	d0, r0, r1
 1766 0296 94E80300 		ldm	r4, {r0, r1}
ARM GAS  /var/folders/qd/4mxf5pkd0zdf0b9dd1hp39180000gn/T//cc7TiL7h.s 			page 32


 1767 029a FFF7FEFF 		bl	moveOrigin
 1768              	.LVL222:
 1769              		.loc 1 282 0
 1770 029e 074B     		ldr	r3, .L117+12
 1771 02a0 0022     		movs	r2, #0
 1772 02a2 1A60     		str	r2, [r3]
 1773              		.loc 1 283 0
 1774 02a4 9A60     		str	r2, [r3, #8]
 1775              		.loc 1 285 0
 1776 02a6 0120     		movs	r0, #1
 1777 02a8 02E7     		b	.L96
 1778              	.LVL223:
 1779              	.L115:
 1780              		.loc 1 287 0
 1781 02aa FFF7FEFF 		bl	__stack_chk_fail
 1782              	.LVL224:
 1783              	.L118:
 1784 02ae 00BF     		.align	2
 1785              	.L117:
 1786 02b0 00000000 		.word	__stack_chk_guard
 1787 02b4 0000F03F 		.word	1072693248
 1788 02b8 0000E03F 		.word	1071644672
 1789 02bc 00000000 		.word	.LANCHOR2
 1790              		.cfi_endproc
 1791              	.LFE268:
 1792              		.size	mod_mapping_computeWallLocation, .-mod_mapping_computeWallLocation
 1793              		.section	.text.mod_map_saveWall,"ax",%progbits
 1794              		.align	1
 1795              		.p2align 4,,15
 1796              		.global	mod_map_saveWall
 1797              		.syntax unified
 1798              		.thumb
 1799              		.thumb_func
 1800              		.fpu fpv4-sp-d16
 1801              		.type	mod_map_saveWall, %function
 1802              	mod_map_saveWall:
 1803              	.LFB269:
 1804              		.loc 1 289 0
 1805              		.cfi_startproc
 1806              		@ args = 28, pretend = 16, frame = 48
 1807              		@ frame_needed = 0, uses_anonymous_args = 0
 1808              	.LVL225:
 1809 0000 84B0     		sub	sp, sp, #16
 1810              		.cfi_def_cfa_offset 16
 1811 0002 70B5     		push	{r4, r5, r6, lr}
 1812              		.cfi_def_cfa_offset 32
 1813              		.cfi_offset 4, -32
 1814              		.cfi_offset 5, -28
 1815              		.cfi_offset 6, -24
 1816              		.cfi_offset 14, -20
 1817 0004 8CB0     		sub	sp, sp, #48
 1818              		.cfi_def_cfa_offset 80
 1819              		.loc 1 289 0
 1820 0006 10AC     		add	r4, sp, #64
 1821 0008 84E80F00 		stm	r4, {r0, r1, r2, r3}
 1822 000c 2546     		mov	r5, r4
 1823 000e 0FCD     		ldmia	r5!, {r0, r1, r2, r3}
ARM GAS  /var/folders/qd/4mxf5pkd0zdf0b9dd1hp39180000gn/T//cc7TiL7h.s 			page 33


 1824 0010 6C46     		mov	r4, sp
 1825 0012 0FC4     		stmia	r4!, {r0, r1, r2, r3}
 1826 0014 134E     		ldr	r6, .L127
 1827 0016 169B     		ldr	r3, [sp, #88]
 1828 0018 3268     		ldr	r2, [r6]
 1829 001a 0B92     		str	r2, [sp, #44]
 1830 001c 95E80300 		ldm	r5, {r0, r1}
 1831              		.loc 1 290 0
 1832 0020 022B     		cmp	r3, #2
 1833              		.loc 1 289 0
 1834 0022 84E80300 		stm	r4, {r0, r1}
 1835              		.loc 1 290 0
 1836 0026 12D0     		beq	.L124
 1837              		.loc 1 293 0
 1838 0028 032B     		cmp	r3, #3
 1839 002a 08D0     		beq	.L125
 1840              	.L119:
 1841              		.loc 1 298 0
 1842 002c 0B9A     		ldr	r2, [sp, #44]
 1843 002e 3368     		ldr	r3, [r6]
 1844 0030 9A42     		cmp	r2, r3
 1845 0032 14D1     		bne	.L126
 1846 0034 0CB0     		add	sp, sp, #48
 1847              		.cfi_remember_state
 1848              		.cfi_def_cfa_offset 32
 1849              		@ sp needed
 1850 0036 BDE87040 		pop	{r4, r5, r6, lr}
 1851              		.cfi_restore 14
 1852              		.cfi_restore 6
 1853              		.cfi_restore 5
 1854              		.cfi_restore 4
 1855              		.cfi_def_cfa_offset 16
 1856 003a 04B0     		add	sp, sp, #16
 1857              		.cfi_def_cfa_offset 0
 1858 003c 7047     		bx	lr
 1859              	.L125:
 1860              		.cfi_restore_state
 1861              		.loc 1 294 0
 1862 003e 6946     		mov	r1, sp
 1863 0040 09A8     		add	r0, sp, #36
 1864 0042 FFF7FEFF 		bl	measurementToPoint
 1865              	.LVL226:
 1866 0046 084B     		ldr	r3, .L127+4
 1867 0048 0A9A     		ldr	r2, [sp, #40]
 1868 004a DA60     		str	r2, [r3, #12]
 1869              		.loc 1 298 0
 1870 004c EEE7     		b	.L119
 1871              	.L124:
 1872              		.loc 1 291 0
 1873 004e 6946     		mov	r1, sp
 1874 0050 07A8     		add	r0, sp, #28
 1875 0052 FFF7FEFF 		bl	measurementToPoint
 1876              	.LVL227:
 1877 0056 044B     		ldr	r3, .L127+4
 1878 0058 079A     		ldr	r2, [sp, #28]
 1879 005a 5A60     		str	r2, [r3, #4]
 1880 005c E6E7     		b	.L119
ARM GAS  /var/folders/qd/4mxf5pkd0zdf0b9dd1hp39180000gn/T//cc7TiL7h.s 			page 34


 1881              	.L126:
 1882              		.loc 1 298 0
 1883 005e FFF7FEFF 		bl	__stack_chk_fail
 1884              	.LVL228:
 1885              	.L128:
 1886 0062 00BF     		.align	2
 1887              	.L127:
 1888 0064 00000000 		.word	__stack_chk_guard
 1889 0068 00000000 		.word	.LANCHOR2
 1890              		.cfi_endproc
 1891              	.LFE269:
 1892              		.size	mod_map_saveWall, .-mod_map_saveWall
 1893              		.section	.text.mod_mapping_getRobotDisplacement,"ax",%progbits
 1894              		.align	1
 1895              		.p2align 4,,15
 1896              		.global	mod_mapping_getRobotDisplacement
 1897              		.syntax unified
 1898              		.thumb
 1899              		.thumb_func
 1900              		.fpu fpv4-sp-d16
 1901              		.type	mod_mapping_getRobotDisplacement, %function
 1902              	mod_mapping_getRobotDisplacement:
 1903              	.LFB270:
 1904              		.loc 1 300 0
 1905              		.cfi_startproc
 1906              		@ args = 0, pretend = 0, frame = 104
 1907              		@ frame_needed = 0, uses_anonymous_args = 0
 1908              	.LVL229:
 1909 0000 2DE9F04F 		push	{r4, r5, r6, r7, r8, r9, r10, fp, lr}
 1910              		.cfi_def_cfa_offset 36
 1911              		.cfi_offset 4, -36
 1912              		.cfi_offset 5, -32
 1913              		.cfi_offset 6, -28
 1914              		.cfi_offset 7, -24
 1915              		.cfi_offset 8, -20
 1916              		.cfi_offset 9, -16
 1917              		.cfi_offset 10, -12
 1918              		.cfi_offset 11, -8
 1919              		.cfi_offset 14, -4
 1920              		.loc 1 303 0
 1921 0004 644C     		ldr	r4, .L149+16
 1922              		.loc 1 304 0
 1923 0006 4E68     		ldr	r6, [r1, #4]
 1924 0008 6368     		ldr	r3, [r4, #4]
 1925              		.loc 1 303 0
 1926 000a 2268     		ldr	r2, [r4]
 1927 000c 0F68     		ldr	r7, [r1]
 1928              		.loc 1 304 0
 1929 000e F61A     		subs	r6, r6, r3
 1930              		.loc 1 300 0
 1931 0010 624B     		ldr	r3, .L149+20
 1932 0012 9FB0     		sub	sp, sp, #124
 1933              		.cfi_def_cfa_offset 160
 1934              		.loc 1 303 0
 1935 0014 BF1A     		subs	r7, r7, r2
 1936              	.LVL230:
 1937              		.loc 1 300 0
ARM GAS  /var/folders/qd/4mxf5pkd0zdf0b9dd1hp39180000gn/T//cc7TiL7h.s 			page 35


 1938 0016 1B68     		ldr	r3, [r3]
 1939 0018 1D93     		str	r3, [sp, #116]
 1940 001a 8246     		mov	r10, r0
 1941              		.loc 1 305 0
 1942 001c 96FBF7F0 		sdiv	r0, r6, r7
 1943              	.LVL231:
 1944              		.loc 1 300 0
 1945 0020 8B46     		mov	fp, r1
 1946              		.loc 1 305 0
 1947 0022 FFF7FEFF 		bl	__aeabi_i2d
 1948              	.LVL232:
 1949 0026 41EC100B 		vmov	d0, r0, r1
 1950 002a FFF7FEFF 		bl	atan
 1951              	.LVL233:
 1952 002e 59EC108B 		vmov	r8, r9, d0
 1953              	.LVL234:
 1954              		.loc 1 307 0
 1955 0032 10EE100A 		vmov	r0, s0	@ int
 1956 0036 D4E90223 		ldrd	r2, [r4, #8]
 1957 003a 4946     		mov	r1, r9
 1958 003c FFF7FEFF 		bl	__aeabi_dsub
 1959              	.LVL235:
 1960 0040 51A3     		adr	r3, .L149
 1961 0042 D3E90023 		ldrd	r2, [r3]
 1962 0046 FFF7FEFF 		bl	__aeabi_dsub
 1963              	.LVL236:
 1964              		.loc 1 308 0
 1965 004a 4246     		mov	r2, r8
 1966 004c 4B46     		mov	r3, r9
 1967              		.loc 1 307 0
 1968 004e 0446     		mov	r4, r0
 1969 0050 0D46     		mov	r5, r1
 1970              	.LVL237:
 1971              		.loc 1 308 0
 1972 0052 DBE90201 		ldrd	r0, [fp, #8]
 1973 0056 FFF7FEFF 		bl	__aeabi_dsub
 1974              	.LVL238:
 1975 005a 4BA3     		adr	r3, .L149
 1976 005c D3E90023 		ldrd	r2, [r3]
 1977 0060 FFF7FEFF 		bl	__aeabi_dadd
 1978              	.LVL239:
 1979              		.loc 1 309 0
 1980 0064 06FB06F6 		mul	r6, r6, r6
 1981              	.LVL240:
 1982              		.loc 1 308 0
 1983 0068 8046     		mov	r8, r0
 1984              	.LVL241:
 1985              		.loc 1 309 0
 1986 006a 07FB0760 		mla	r0, r7, r7, r6
 1987              		.loc 1 308 0
 1988 006e 8946     		mov	r9, r1
 1989              	.LVL242:
 1990              		.loc 1 309 0
 1991 0070 FFF7FEFF 		bl	__aeabi_i2d
 1992              	.LVL243:
 1993 0074 41EC100B 		vmov	d0, r0, r1
 1994 0078 FFF7FEFF 		bl	sqrt
ARM GAS  /var/folders/qd/4mxf5pkd0zdf0b9dd1hp39180000gn/T//cc7TiL7h.s 			page 36


 1995              	.LVL244:
 1996 007c 51EC100B 		vmov	r0, r1, d0
 1997 0080 FFF7FEFF 		bl	__aeabi_d2iz
 1998              	.LVL245:
 1999              	.LBB35:
 2000              	.LBB36:
 2001              		.loc 1 67 0
 2002 0084 42A3     		adr	r3, .L149+8
 2003 0086 D3E90023 		ldrd	r2, [r3]
 2004              	.LBE36:
 2005              	.LBE35:
 2006              		.loc 1 309 0
 2007 008a 8346     		mov	fp, r0
 2008              	.LVL246:
 2009              	.LBB38:
 2010              	.LBB37:
 2011              		.loc 1 67 0
 2012 008c 2946     		mov	r1, r5
 2013 008e 2046     		mov	r0, r4
 2014              	.LVL247:
 2015 0090 FFF7FEFF 		bl	__aeabi_dcmpge
 2016              	.LVL248:
 2017 0094 80B1     		cbz	r0, .L130
 2018 0096 3EA7     		adr	r7, .L149+8
 2019 0098 D7E90067 		ldrd	r6, [r7]
 2020              	.L132:
 2021 009c 2046     		mov	r0, r4
 2022 009e 2946     		mov	r1, r5
 2023 00a0 3246     		mov	r2, r6
 2024 00a2 3B46     		mov	r3, r7
 2025 00a4 FFF7FEFF 		bl	__aeabi_dsub
 2026              	.LVL249:
 2027 00a8 3246     		mov	r2, r6
 2028 00aa 3B46     		mov	r3, r7
 2029 00ac 0446     		mov	r4, r0
 2030              	.LVL250:
 2031 00ae 0D46     		mov	r5, r1
 2032              	.LVL251:
 2033 00b0 FFF7FEFF 		bl	__aeabi_dcmpge
 2034              	.LVL252:
 2035 00b4 0028     		cmp	r0, #0
 2036 00b6 F1D1     		bne	.L132
 2037              	.L130:
 2038              		.loc 1 68 0
 2039 00b8 0022     		movs	r2, #0
 2040 00ba 0023     		movs	r3, #0
 2041 00bc 2046     		mov	r0, r4
 2042 00be 2946     		mov	r1, r5
 2043 00c0 FFF7FEFF 		bl	__aeabi_dcmplt
 2044              	.LVL253:
 2045 00c4 80B1     		cbz	r0, .L133
 2046 00c6 32A7     		adr	r7, .L149+8
 2047 00c8 D7E90067 		ldrd	r6, [r7]
 2048              	.L135:
 2049 00cc 2046     		mov	r0, r4
 2050 00ce 2946     		mov	r1, r5
 2051 00d0 3246     		mov	r2, r6
ARM GAS  /var/folders/qd/4mxf5pkd0zdf0b9dd1hp39180000gn/T//cc7TiL7h.s 			page 37


 2052 00d2 3B46     		mov	r3, r7
 2053 00d4 FFF7FEFF 		bl	__aeabi_dadd
 2054              	.LVL254:
 2055 00d8 0022     		movs	r2, #0
 2056 00da 0023     		movs	r3, #0
 2057 00dc 0446     		mov	r4, r0
 2058              	.LVL255:
 2059 00de 0D46     		mov	r5, r1
 2060              	.LVL256:
 2061 00e0 FFF7FEFF 		bl	__aeabi_dcmplt
 2062              	.LVL257:
 2063 00e4 0028     		cmp	r0, #0
 2064 00e6 F1D1     		bne	.L135
 2065              	.L133:
 2066              	.LBE37:
 2067              	.LBE38:
 2068              	.LBB39:
 2069              	.LBB40:
 2070              		.loc 1 67 0
 2071 00e8 29A3     		adr	r3, .L149+8
 2072 00ea D3E90023 		ldrd	r2, [r3]
 2073 00ee 4046     		mov	r0, r8
 2074 00f0 4946     		mov	r1, r9
 2075 00f2 FFF7FEFF 		bl	__aeabi_dcmpge
 2076              	.LVL258:
 2077 00f6 80B1     		cbz	r0, .L136
 2078 00f8 25A7     		adr	r7, .L149+8
 2079 00fa D7E90067 		ldrd	r6, [r7]
 2080              	.L138:
 2081 00fe 4046     		mov	r0, r8
 2082 0100 4946     		mov	r1, r9
 2083 0102 3246     		mov	r2, r6
 2084 0104 3B46     		mov	r3, r7
 2085 0106 FFF7FEFF 		bl	__aeabi_dsub
 2086              	.LVL259:
 2087 010a 3246     		mov	r2, r6
 2088 010c 3B46     		mov	r3, r7
 2089 010e 8046     		mov	r8, r0
 2090              	.LVL260:
 2091 0110 8946     		mov	r9, r1
 2092              	.LVL261:
 2093 0112 FFF7FEFF 		bl	__aeabi_dcmpge
 2094              	.LVL262:
 2095 0116 0028     		cmp	r0, #0
 2096 0118 F1D1     		bne	.L138
 2097              	.L136:
 2098              		.loc 1 68 0
 2099 011a 0022     		movs	r2, #0
 2100 011c 0023     		movs	r3, #0
 2101 011e 4046     		mov	r0, r8
 2102 0120 4946     		mov	r1, r9
 2103 0122 FFF7FEFF 		bl	__aeabi_dcmplt
 2104              	.LVL263:
 2105 0126 80B1     		cbz	r0, .L139
 2106 0128 19A7     		adr	r7, .L149+8
 2107 012a D7E90067 		ldrd	r6, [r7]
 2108              	.L141:
ARM GAS  /var/folders/qd/4mxf5pkd0zdf0b9dd1hp39180000gn/T//cc7TiL7h.s 			page 38


 2109 012e 4046     		mov	r0, r8
 2110 0130 4946     		mov	r1, r9
 2111 0132 3246     		mov	r2, r6
 2112 0134 3B46     		mov	r3, r7
 2113 0136 FFF7FEFF 		bl	__aeabi_dadd
 2114              	.LVL264:
 2115 013a 0022     		movs	r2, #0
 2116 013c 0023     		movs	r3, #0
 2117 013e 8046     		mov	r8, r0
 2118              	.LVL265:
 2119 0140 8946     		mov	r9, r1
 2120              	.LVL266:
 2121 0142 FFF7FEFF 		bl	__aeabi_dcmplt
 2122              	.LVL267:
 2123 0146 0028     		cmp	r0, #0
 2124 0148 F1D1     		bne	.L141
 2125              	.L139:
 2126              	.LBE40:
 2127              	.LBE39:
 2128              		.loc 1 314 0
 2129 014a 2246     		mov	r2, r4
 2130 014c 2B46     		mov	r3, r5
 2131 014e 1449     		ldr	r1, .L149+24
 2132 0150 CDF800B0 		str	fp, [sp]
 2133 0154 CDE90289 		strd	r8, [sp, #8]
 2134 0158 04A8     		add	r0, sp, #16
 2135 015a FFF7FEFF 		bl	sprintf
 2136              	.LVL268:
 2137              		.loc 1 315 0
 2138 015e 04A8     		add	r0, sp, #16
 2139 0160 0321     		movs	r1, #3
 2140 0162 FFF7FEFF 		bl	mod_com_writeMessage
 2141              	.LVL269:
 2142              		.loc 1 318 0
 2143 0166 0D4B     		ldr	r3, .L149+20
 2144 0168 1D9A     		ldr	r2, [sp, #116]
 2145 016a 1B68     		ldr	r3, [r3]
 2146              		.loc 1 317 0
 2147 016c CAF800B0 		str	fp, [r10]
 2148              		.loc 1 318 0
 2149 0170 9A42     		cmp	r2, r3
 2150              		.loc 1 317 0
 2151 0172 CAE90245 		strd	r4, [r10, #8]
 2152 0176 CAE90489 		strd	r8, [r10, #16]
 2153              	.LVL270:
 2154              		.loc 1 318 0
 2155 017a 5046     		mov	r0, r10
 2156 017c 02D1     		bne	.L148
 2157              	.LVL271:
 2158 017e 1FB0     		add	sp, sp, #124
 2159              		.cfi_remember_state
 2160              		.cfi_def_cfa_offset 36
 2161              		@ sp needed
 2162 0180 BDE8F08F 		pop	{r4, r5, r6, r7, r8, r9, r10, fp, pc}
 2163              	.LVL272:
 2164              	.L148:
 2165              		.cfi_restore_state
ARM GAS  /var/folders/qd/4mxf5pkd0zdf0b9dd1hp39180000gn/T//cc7TiL7h.s 			page 39


 2166 0184 FFF7FEFF 		bl	__stack_chk_fail
 2167              	.LVL273:
 2168              	.L150:
 2169              		.align	3
 2170              	.L149:
 2171 0188 00000060 		.word	1610612736
 2172 018c FB21F93F 		.word	1073291771
 2173 0190 00000060 		.word	1610612736
 2174 0194 FB211940 		.word	1075388923
 2175 0198 00000000 		.word	.LANCHOR0
 2176 019c 00000000 		.word	__stack_chk_guard
 2177 01a0 00000000 		.word	.LC3
 2178              		.cfi_endproc
 2179              	.LFE270:
 2180              		.size	mod_mapping_getRobotDisplacement, .-mod_mapping_getRobotDisplacement
 2181              		.global	__aeabi_dcmpgt
 2182              		.section	.text.mod_mapping_getAngleForTranslation,"ax",%progbits
 2183              		.align	1
 2184              		.p2align 4,,15
 2185              		.global	mod_mapping_getAngleForTranslation
 2186              		.syntax unified
 2187              		.thumb
 2188              		.thumb_func
 2189              		.fpu fpv4-sp-d16
 2190              		.type	mod_mapping_getAngleForTranslation, %function
 2191              	mod_mapping_getAngleForTranslation:
 2192              	.LFB271:
 2193              		.loc 1 320 0
 2194              		.cfi_startproc
 2195              		@ args = 0, pretend = 0, frame = 56
 2196              		@ frame_needed = 0, uses_anonymous_args = 0
 2197              	.LVL274:
 2198 0000 2DE9F047 		push	{r4, r5, r6, r7, r8, r9, r10, lr}
 2199              		.cfi_def_cfa_offset 32
 2200              		.cfi_offset 4, -32
 2201              		.cfi_offset 5, -28
 2202              		.cfi_offset 6, -24
 2203              		.cfi_offset 7, -20
 2204              		.cfi_offset 8, -16
 2205              		.cfi_offset 9, -12
 2206              		.cfi_offset 10, -8
 2207              		.cfi_offset 14, -4
 2208 0004 DFF8E8A0 		ldr	r10, .L163+40
 2209              		.loc 1 321 0
 2210 0008 374B     		ldr	r3, .L163+32
 2211              		.loc 1 320 0
 2212 000a DAF80020 		ldr	r2, [r10]
 2213 000e 8EB0     		sub	sp, sp, #56
 2214              		.cfi_def_cfa_offset 88
 2215              		.loc 1 321 0
 2216 0010 51EC100B 		vmov	r0, r1, d0
 2217              		.loc 1 320 0
 2218 0014 0D92     		str	r2, [sp, #52]
 2219              		.loc 1 321 0
 2220 0016 D3E90223 		ldrd	r2, [r3, #8]
 2221 001a FFF7FEFF 		bl	__aeabi_dsub
 2222              	.LVL275:
ARM GAS  /var/folders/qd/4mxf5pkd0zdf0b9dd1hp39180000gn/T//cc7TiL7h.s 			page 40


 2223 001e 2AA3     		adr	r3, .L163
 2224 0020 D3E90023 		ldrd	r2, [r3]
 2225 0024 FFF7FEFF 		bl	__aeabi_dsub
 2226              	.LVL276:
 2227              		.loc 1 323 0
 2228 0028 29A3     		adr	r3, .L163+8
 2229 002a D3E90023 		ldrd	r2, [r3]
 2230              		.loc 1 321 0
 2231 002e 0446     		mov	r4, r0
 2232 0030 0D46     		mov	r5, r1
 2233              	.LVL277:
 2234              		.loc 1 323 0
 2235 0032 FFF7FEFF 		bl	__aeabi_dcmpgt
 2236              	.LVL278:
 2237 0036 A0B1     		cbz	r0, .L152
 2238 0038 0FF29C09 		adr	r9, .L163+16
 2239 003c D9E90089 		ldrd	r8, [r9]
 2240 0040 23A7     		adr	r7, .L163+8
 2241 0042 D7E90067 		ldrd	r6, [r7]
 2242              	.L154:
 2243              		.loc 1 323 0 is_stmt 0 discriminator 2
 2244 0046 2046     		mov	r0, r4
 2245 0048 2946     		mov	r1, r5
 2246 004a 4246     		mov	r2, r8
 2247 004c 4B46     		mov	r3, r9
 2248 004e FFF7FEFF 		bl	__aeabi_dsub
 2249              	.LVL279:
 2250 0052 3246     		mov	r2, r6
 2251 0054 3B46     		mov	r3, r7
 2252 0056 0446     		mov	r4, r0
 2253              	.LVL280:
 2254 0058 0D46     		mov	r5, r1
 2255              	.LVL281:
 2256 005a FFF7FEFF 		bl	__aeabi_dcmpgt
 2257              	.LVL282:
 2258 005e 0028     		cmp	r0, #0
 2259 0060 F1D1     		bne	.L154
 2260              	.L152:
 2261              		.loc 1 324 0 is_stmt 1
 2262 0062 1FA3     		adr	r3, .L163+24
 2263 0064 D3E90023 		ldrd	r2, [r3]
 2264 0068 2046     		mov	r0, r4
 2265 006a 2946     		mov	r1, r5
 2266 006c FFF7FEFF 		bl	__aeabi_dcmplt
 2267              	.LVL283:
 2268 0070 A0B1     		cbz	r0, .L155
 2269 0072 0FF26409 		adr	r9, .L163+16
 2270 0076 D9E90089 		ldrd	r8, [r9]
 2271 007a 19A7     		adr	r7, .L163+24
 2272 007c D7E90067 		ldrd	r6, [r7]
 2273              	.L157:
 2274              		.loc 1 324 0 is_stmt 0 discriminator 2
 2275 0080 2046     		mov	r0, r4
 2276 0082 2946     		mov	r1, r5
 2277 0084 4246     		mov	r2, r8
 2278 0086 4B46     		mov	r3, r9
 2279 0088 FFF7FEFF 		bl	__aeabi_dadd
ARM GAS  /var/folders/qd/4mxf5pkd0zdf0b9dd1hp39180000gn/T//cc7TiL7h.s 			page 41


 2280              	.LVL284:
 2281 008c 3246     		mov	r2, r6
 2282 008e 3B46     		mov	r3, r7
 2283 0090 0446     		mov	r4, r0
 2284              	.LVL285:
 2285 0092 0D46     		mov	r5, r1
 2286              	.LVL286:
 2287 0094 FFF7FEFF 		bl	__aeabi_dcmplt
 2288              	.LVL287:
 2289 0098 0028     		cmp	r0, #0
 2290 009a F1D1     		bne	.L157
 2291              	.L155:
 2292              		.loc 1 327 0 is_stmt 1
 2293 009c 2246     		mov	r2, r4
 2294 009e 2B46     		mov	r3, r5
 2295 00a0 1249     		ldr	r1, .L163+36
 2296 00a2 6846     		mov	r0, sp
 2297 00a4 FFF7FEFF 		bl	sprintf
 2298              	.LVL288:
 2299              		.loc 1 328 0
 2300 00a8 6846     		mov	r0, sp
 2301 00aa 0321     		movs	r1, #3
 2302 00ac FFF7FEFF 		bl	mod_com_writeMessage
 2303              	.LVL289:
 2304              		.loc 1 331 0
 2305 00b0 0D9A     		ldr	r2, [sp, #52]
 2306 00b2 DAF80030 		ldr	r3, [r10]
 2307 00b6 9A42     		cmp	r2, r3
 2308 00b8 45EC104B 		vmov	d0, r4, r5
 2309 00bc 02D1     		bne	.L162
 2310 00be 0EB0     		add	sp, sp, #56
 2311              		.cfi_remember_state
 2312              		.cfi_def_cfa_offset 32
 2313              		@ sp needed
 2314 00c0 BDE8F087 		pop	{r4, r5, r6, r7, r8, r9, r10, pc}
 2315              	.LVL290:
 2316              	.L162:
 2317              		.cfi_restore_state
 2318 00c4 FFF7FEFF 		bl	__stack_chk_fail
 2319              	.LVL291:
 2320              	.L164:
 2321              		.align	3
 2322              	.L163:
 2323 00c8 00000060 		.word	1610612736
 2324 00cc FB21F93F 		.word	1073291771
 2325 00d0 00000060 		.word	1610612736
 2326 00d4 FB210940 		.word	1074340347
 2327 00d8 00000060 		.word	1610612736
 2328 00dc FB211940 		.word	1075388923
 2329 00e0 00000060 		.word	1610612736
 2330 00e4 FB2109C0 		.word	-1073143301
 2331 00e8 00000000 		.word	.LANCHOR0
 2332 00ec 00000000 		.word	.LC4
 2333 00f0 00000000 		.word	__stack_chk_guard
 2334              		.cfi_endproc
 2335              	.LFE271:
 2336              		.size	mod_mapping_getAngleForTranslation, .-mod_mapping_getAngleForTranslation
ARM GAS  /var/folders/qd/4mxf5pkd0zdf0b9dd1hp39180000gn/T//cc7TiL7h.s 			page 42


 2337              		.section	.text.mod_mapping_getActualPosition,"ax",%progbits
 2338              		.align	1
 2339              		.p2align 4,,15
 2340              		.global	mod_mapping_getActualPosition
 2341              		.syntax unified
 2342              		.thumb
 2343              		.thumb_func
 2344              		.fpu fpv4-sp-d16
 2345              		.type	mod_mapping_getActualPosition, %function
 2346              	mod_mapping_getActualPosition:
 2347              	.LFB272:
 2348              		.loc 1 333 0
 2349              		.cfi_startproc
 2350              		@ args = 0, pretend = 0, frame = 8
 2351              		@ frame_needed = 0, uses_anonymous_args = 0
 2352              	.LVL292:
 2353 0000 70B5     		push	{r4, r5, r6, lr}
 2354              		.cfi_def_cfa_offset 16
 2355              		.cfi_offset 4, -16
 2356              		.cfi_offset 5, -12
 2357              		.cfi_offset 6, -8
 2358              		.cfi_offset 14, -4
 2359              		.loc 1 334 0
 2360 0002 094B     		ldr	r3, .L169
 2361              		.loc 1 333 0
 2362 0004 094D     		ldr	r5, .L169+4
 2363 0006 0446     		mov	r4, r0
 2364              		.loc 1 334 0
 2365 0008 0FCB     		ldm	r3, {r0, r1, r2, r3}
 2366              	.LVL293:
 2367              		.loc 1 333 0
 2368 000a 82B0     		sub	sp, sp, #8
 2369              		.cfi_def_cfa_offset 24
 2370              		.loc 1 333 0
 2371 000c 2E68     		ldr	r6, [r5]
 2372 000e 0196     		str	r6, [sp, #4]
 2373              		.loc 1 334 0
 2374 0010 84E80F00 		stm	r4, {r0, r1, r2, r3}
 2375              		.loc 1 335 0
 2376 0014 019A     		ldr	r2, [sp, #4]
 2377 0016 2B68     		ldr	r3, [r5]
 2378 0018 9A42     		cmp	r2, r3
 2379 001a 02D1     		bne	.L168
 2380 001c 2046     		mov	r0, r4
 2381 001e 02B0     		add	sp, sp, #8
 2382              		.cfi_remember_state
 2383              		.cfi_def_cfa_offset 16
 2384              		@ sp needed
 2385 0020 70BD     		pop	{r4, r5, r6, pc}
 2386              	.LVL294:
 2387              	.L168:
 2388              		.cfi_restore_state
 2389 0022 FFF7FEFF 		bl	__stack_chk_fail
 2390              	.LVL295:
 2391              	.L170:
 2392 0026 00BF     		.align	2
 2393              	.L169:
ARM GAS  /var/folders/qd/4mxf5pkd0zdf0b9dd1hp39180000gn/T//cc7TiL7h.s 			page 43


 2394 0028 00000000 		.word	.LANCHOR0
 2395 002c 00000000 		.word	__stack_chk_guard
 2396              		.cfi_endproc
 2397              	.LFE272:
 2398              		.size	mod_mapping_getActualPosition, .-mod_mapping_getActualPosition
 2399              		.section	.text.computeObjectDistance,"ax",%progbits
 2400              		.align	1
 2401              		.p2align 4,,15
 2402              		.global	computeObjectDistance
 2403              		.syntax unified
 2404              		.thumb
 2405              		.thumb_func
 2406              		.fpu fpv4-sp-d16
 2407              		.type	computeObjectDistance, %function
 2408              	computeObjectDistance:
 2409              	.LFB273:
 2410              		.loc 1 337 0
 2411              		.cfi_startproc
 2412              		@ args = 0, pretend = 0, frame = 24
 2413              		@ frame_needed = 0, uses_anonymous_args = 0
 2414 0000 30B5     		push	{r4, r5, lr}
 2415              		.cfi_def_cfa_offset 12
 2416              		.cfi_offset 4, -12
 2417              		.cfi_offset 5, -8
 2418              		.cfi_offset 14, -4
 2419 0002 87B0     		sub	sp, sp, #28
 2420              		.cfi_def_cfa_offset 40
 2421              		.loc 1 337 0
 2422 0004 02AD     		add	r5, sp, #8
 2423 0006 85E80300 		stm	r5, {r0, r1}
 2424 000a 6C46     		mov	r4, sp
 2425              		.loc 1 338 0
 2426 000c 0398     		ldr	r0, [sp, #12]
 2427              		.loc 1 337 0
 2428 000e 84E80C00 		stm	r4, {r2, r3}
 2429              		.loc 1 338 0
 2430 0012 1946     		mov	r1, r3
 2431 0014 029B     		ldr	r3, [sp, #8]
 2432              		.loc 1 337 0
 2433 0016 0D4C     		ldr	r4, .L175
 2434              		.loc 1 338 0
 2435 0018 401A     		subs	r0, r0, r1
 2436 001a 9B1A     		subs	r3, r3, r2
 2437 001c 00FB00F0 		mul	r0, r0, r0
 2438 0020 03FB0300 		mla	r0, r3, r3, r0
 2439              		.loc 1 337 0
 2440 0024 2368     		ldr	r3, [r4]
 2441 0026 0593     		str	r3, [sp, #20]
 2442              	.LVL296:
 2443              		.loc 1 338 0
 2444 0028 FFF7FEFF 		bl	__aeabi_i2d
 2445              	.LVL297:
 2446 002c 41EC100B 		vmov	d0, r0, r1
 2447 0030 FFF7FEFF 		bl	sqrt
 2448              	.LVL298:
 2449 0034 51EC100B 		vmov	r0, r1, d0
 2450 0038 FFF7FEFF 		bl	__aeabi_d2iz
ARM GAS  /var/folders/qd/4mxf5pkd0zdf0b9dd1hp39180000gn/T//cc7TiL7h.s 			page 44


 2451              	.LVL299:
 2452              		.loc 1 339 0
 2453 003c 059A     		ldr	r2, [sp, #20]
 2454 003e 2368     		ldr	r3, [r4]
 2455 0040 9A42     		cmp	r2, r3
 2456 0042 01D1     		bne	.L174
 2457 0044 07B0     		add	sp, sp, #28
 2458              		.cfi_remember_state
 2459              		.cfi_def_cfa_offset 12
 2460              	.LVL300:
 2461              		@ sp needed
 2462 0046 30BD     		pop	{r4, r5, pc}
 2463              	.LVL301:
 2464              	.L174:
 2465              		.cfi_restore_state
 2466 0048 FFF7FEFF 		bl	__stack_chk_fail
 2467              	.LVL302:
 2468              	.L176:
 2469              		.align	2
 2470              	.L175:
 2471 004c 00000000 		.word	__stack_chk_guard
 2472              		.cfi_endproc
 2473              	.LFE273:
 2474              		.size	computeObjectDistance, .-computeObjectDistance
 2475              		.section	.text.computeObjectRelativeDirection,"ax",%progbits
 2476              		.align	1
 2477              		.p2align 4,,15
 2478              		.global	computeObjectRelativeDirection
 2479              		.syntax unified
 2480              		.thumb
 2481              		.thumb_func
 2482              		.fpu fpv4-sp-d16
 2483              		.type	computeObjectRelativeDirection, %function
 2484              	computeObjectRelativeDirection:
 2485              	.LFB274:
 2486              		.loc 1 341 0
 2487              		.cfi_startproc
 2488              		@ args = 0, pretend = 0, frame = 24
 2489              		@ frame_needed = 0, uses_anonymous_args = 0
 2490 0000 F0B5     		push	{r4, r5, r6, r7, lr}
 2491              		.cfi_def_cfa_offset 20
 2492              		.cfi_offset 4, -20
 2493              		.cfi_offset 5, -16
 2494              		.cfi_offset 6, -12
 2495              		.cfi_offset 7, -8
 2496              		.cfi_offset 14, -4
 2497 0002 094C     		ldr	r4, .L181
 2498 0004 87B0     		sub	sp, sp, #28
 2499              		.cfi_def_cfa_offset 48
 2500              		.loc 1 341 0
 2501 0006 2568     		ldr	r5, [r4]
 2502 0008 0595     		str	r5, [sp, #20]
 2503              		.loc 1 343 0
 2504 000a 059F     		ldr	r7, [sp, #20]
 2505 000c 2668     		ldr	r6, [r4]
 2506              		.loc 1 341 0
 2507 000e 02AD     		add	r5, sp, #8
ARM GAS  /var/folders/qd/4mxf5pkd0zdf0b9dd1hp39180000gn/T//cc7TiL7h.s 			page 45


 2508 0010 6C46     		mov	r4, sp
 2509              		.loc 1 343 0
 2510 0012 B742     		cmp	r7, r6
 2511              		.loc 1 341 0
 2512 0014 85E80300 		stm	r5, {r0, r1}
 2513 0018 84E80C00 		stm	r4, {r2, r3}
 2514              		.loc 1 343 0
 2515 001c 01D1     		bne	.L180
 2516 001e 07B0     		add	sp, sp, #28
 2517              		.cfi_remember_state
 2518              		.cfi_def_cfa_offset 20
 2519              		@ sp needed
 2520 0020 F0BD     		pop	{r4, r5, r6, r7, pc}
 2521              	.L180:
 2522              		.cfi_restore_state
 2523 0022 FFF7FEFF 		bl	__stack_chk_fail
 2524              	.LVL303:
 2525              	.L182:
 2526 0026 00BF     		.align	2
 2527              	.L181:
 2528 0028 00000000 		.word	__stack_chk_guard
 2529              		.cfi_endproc
 2530              	.LFE274:
 2531              		.size	computeObjectRelativeDirection, .-computeObjectRelativeDirection
 2532              		.section	.text.isNear,"ax",%progbits
 2533              		.align	1
 2534              		.p2align 4,,15
 2535              		.global	isNear
 2536              		.syntax unified
 2537              		.thumb
 2538              		.thumb_func
 2539              		.fpu fpv4-sp-d16
 2540              		.type	isNear, %function
 2541              	isNear:
 2542              	.LFB275:
 2543              		.loc 1 345 0
 2544              		.cfi_startproc
 2545              		@ args = 0, pretend = 0, frame = 16
 2546              		@ frame_needed = 0, uses_anonymous_args = 0
 2547 0000 10B5     		push	{r4, lr}
 2548              		.cfi_def_cfa_offset 8
 2549              		.cfi_offset 4, -8
 2550              		.cfi_offset 14, -4
 2551 0002 84B0     		sub	sp, sp, #16
 2552              		.cfi_def_cfa_offset 24
 2553              		.loc 1 345 0
 2554 0004 6B46     		mov	r3, sp
 2555 0006 83E80300 		stm	r3, {r0, r1}
 2556              		.loc 1 346 0
 2557 000a 124B     		ldr	r3, .L187
 2558              		.loc 1 345 0
 2559 000c 124C     		ldr	r4, .L187+4
 2560              	.LBB41:
 2561              	.LBB42:
 2562              		.loc 1 338 0
 2563 000e 0846     		mov	r0, r1
 2564 0010 D3E90021 		ldrd	r2, r1, [r3]
ARM GAS  /var/folders/qd/4mxf5pkd0zdf0b9dd1hp39180000gn/T//cc7TiL7h.s 			page 46


 2565 0014 009B     		ldr	r3, [sp]
 2566 0016 401A     		subs	r0, r0, r1
 2567 0018 9B1A     		subs	r3, r3, r2
 2568 001a 00FB00F0 		mul	r0, r0, r0
 2569 001e 03FB0300 		mla	r0, r3, r3, r0
 2570              	.LBE42:
 2571              	.LBE41:
 2572              		.loc 1 345 0
 2573 0022 2368     		ldr	r3, [r4]
 2574 0024 0393     		str	r3, [sp, #12]
 2575              	.LVL304:
 2576              	.LBB44:
 2577              	.LBB43:
 2578              		.loc 1 338 0
 2579 0026 FFF7FEFF 		bl	__aeabi_i2d
 2580              	.LVL305:
 2581 002a 41EC100B 		vmov	d0, r0, r1
 2582 002e FFF7FEFF 		bl	sqrt
 2583              	.LVL306:
 2584 0032 51EC100B 		vmov	r0, r1, d0
 2585 0036 FFF7FEFF 		bl	__aeabi_d2iz
 2586              	.LVL307:
 2587              	.LBE43:
 2588              	.LBE44:
 2589              		.loc 1 350 0
 2590 003a 039A     		ldr	r2, [sp, #12]
 2591 003c 2368     		ldr	r3, [r4]
 2592 003e 7028     		cmp	r0, #112
 2593 0040 CCBF     		ite	gt
 2594 0042 0020     		movgt	r0, #0
 2595 0044 0120     		movle	r0, #1
 2596 0046 9A42     		cmp	r2, r3
 2597 0048 01D1     		bne	.L186
 2598 004a 04B0     		add	sp, sp, #16
 2599              		.cfi_remember_state
 2600              		.cfi_def_cfa_offset 8
 2601              	.LVL308:
 2602              		@ sp needed
 2603 004c 10BD     		pop	{r4, pc}
 2604              	.LVL309:
 2605              	.L186:
 2606              		.cfi_restore_state
 2607 004e FFF7FEFF 		bl	__stack_chk_fail
 2608              	.LVL310:
 2609              	.L188:
 2610 0052 00BF     		.align	2
 2611              	.L187:
 2612 0054 00000000 		.word	.LANCHOR0
 2613 0058 00000000 		.word	__stack_chk_guard
 2614              		.cfi_endproc
 2615              	.LFE275:
 2616              		.size	isNear, .-isNear
 2617              		.section	.text.checkIfPointInCircle,"ax",%progbits
 2618              		.align	1
 2619              		.p2align 4,,15
 2620              		.global	checkIfPointInCircle
 2621              		.syntax unified
ARM GAS  /var/folders/qd/4mxf5pkd0zdf0b9dd1hp39180000gn/T//cc7TiL7h.s 			page 47


 2622              		.thumb
 2623              		.thumb_func
 2624              		.fpu fpv4-sp-d16
 2625              		.type	checkIfPointInCircle, %function
 2626              	checkIfPointInCircle:
 2627              	.LFB276:
 2628              		.loc 1 352 0
 2629              		.cfi_startproc
 2630              		@ args = 0, pretend = 0, frame = 24
 2631              		@ frame_needed = 0, uses_anonymous_args = 0
 2632 0000 30B5     		push	{r4, r5, lr}
 2633              		.cfi_def_cfa_offset 12
 2634              		.cfi_offset 4, -12
 2635              		.cfi_offset 5, -8
 2636              		.cfi_offset 14, -4
 2637 0002 87B0     		sub	sp, sp, #28
 2638              		.cfi_def_cfa_offset 40
 2639              		.loc 1 352 0
 2640 0004 6C46     		mov	r4, sp
 2641 0006 84E80C00 		stm	r4, {r2, r3}
 2642 000a 02AD     		add	r5, sp, #8
 2643 000c 85E80300 		stm	r5, {r0, r1}
 2644              		.loc 1 353 0
 2645 0010 DDE90014 		ldrd	r1, r4, [sp]
 2646              		.loc 1 352 0
 2647 0014 0A4A     		ldr	r2, .L193
 2648              		.loc 1 353 0
 2649 0016 039B     		ldr	r3, [sp, #12]
 2650              		.loc 1 352 0
 2651 0018 1568     		ldr	r5, [r2]
 2652 001a 0595     		str	r5, [sp, #20]
 2653              	.LVL311:
 2654              		.loc 1 353 0
 2655 001c 1B1B     		subs	r3, r3, r4
 2656              	.LVL312:
 2657 001e 401A     		subs	r0, r0, r1
 2658              	.LVL313:
 2659 0020 03FB03F3 		mul	r3, r3, r3
 2660 0024 00FB0030 		mla	r0, r0, r0, r3
 2661              		.loc 1 356 0
 2662 0028 0599     		ldr	r1, [sp, #20]
 2663              	.LVL314:
 2664 002a 1268     		ldr	r2, [r2]
 2665 002c 1828     		cmp	r0, #24
 2666 002e CCBF     		ite	gt
 2667 0030 0020     		movgt	r0, #0
 2668 0032 0120     		movle	r0, #1
 2669 0034 9142     		cmp	r1, r2
 2670 0036 01D1     		bne	.L192
 2671 0038 07B0     		add	sp, sp, #28
 2672              		.cfi_remember_state
 2673              		.cfi_def_cfa_offset 12
 2674              	.LVL315:
 2675              		@ sp needed
 2676 003a 30BD     		pop	{r4, r5, pc}
 2677              	.LVL316:
 2678              	.L192:
ARM GAS  /var/folders/qd/4mxf5pkd0zdf0b9dd1hp39180000gn/T//cc7TiL7h.s 			page 48


 2679              		.cfi_restore_state
 2680 003c FFF7FEFF 		bl	__stack_chk_fail
 2681              	.LVL317:
 2682              	.L194:
 2683              		.align	2
 2684              	.L193:
 2685 0040 00000000 		.word	__stack_chk_guard
 2686              		.cfi_endproc
 2687              	.LFE276:
 2688              		.size	checkIfPointInCircle, .-checkIfPointInCircle
 2689              		.section	.text.checkIfObjectExists,"ax",%progbits
 2690              		.align	1
 2691              		.p2align 4,,15
 2692              		.global	checkIfObjectExists
 2693              		.syntax unified
 2694              		.thumb
 2695              		.thumb_func
 2696              		.fpu fpv4-sp-d16
 2697              		.type	checkIfObjectExists, %function
 2698              	checkIfObjectExists:
 2699              	.LFB277:
 2700              		.loc 1 358 0
 2701              		.cfi_startproc
 2702              		@ args = 0, pretend = 0, frame = 16
 2703              		@ frame_needed = 0, uses_anonymous_args = 0
 2704 0000 F0B5     		push	{r4, r5, r6, r7, lr}
 2705              		.cfi_def_cfa_offset 20
 2706              		.cfi_offset 4, -20
 2707              		.cfi_offset 5, -16
 2708              		.cfi_offset 6, -12
 2709              		.cfi_offset 7, -8
 2710              		.cfi_offset 14, -4
 2711              	.LBB45:
 2712              		.loc 1 359 0
 2713 0002 1A4A     		ldr	r2, .L205
 2714              	.LBE45:
 2715              		.loc 1 358 0
 2716 0004 1A4E     		ldr	r6, .L205+4
 2717              	.LBB50:
 2718              		.loc 1 359 0
 2719 0006 1468     		ldr	r4, [r2]
 2720              	.LBE50:
 2721              		.loc 1 358 0
 2722 0008 3268     		ldr	r2, [r6]
 2723 000a 85B0     		sub	sp, sp, #20
 2724              		.cfi_def_cfa_offset 40
 2725              		.loc 1 358 0
 2726 000c 6B46     		mov	r3, sp
 2727              	.LBB51:
 2728              		.loc 1 359 0
 2729 000e 002C     		cmp	r4, #0
 2730              	.LBE51:
 2731              		.loc 1 358 0
 2732 0010 0392     		str	r2, [sp, #12]
 2733 0012 83E80300 		stm	r3, {r0, r1}
 2734              	.LVL318:
 2735              	.LBB52:
ARM GAS  /var/folders/qd/4mxf5pkd0zdf0b9dd1hp39180000gn/T//cc7TiL7h.s 			page 49


 2736              		.loc 1 359 0
 2737 0016 1EDD     		ble	.L200
 2738              		.loc 1 360 0
 2739 0018 164B     		ldr	r3, .L205+8
 2740 001a 0D46     		mov	r5, r1
 2741 001c 1968     		ldr	r1, [r3]
 2742              	.LVL319:
 2743              	.LBB46:
 2744              	.LBB47:
 2745              		.loc 1 353 0
 2746 001e D1E90032 		ldrd	r3, r2, [r1]
 2747 0022 AA1A     		subs	r2, r5, r2
 2748 0024 02FB02F2 		mul	r2, r2, r2
 2749 0028 C31A     		subs	r3, r0, r3
 2750 002a 03FB0323 		mla	r3, r3, r3, r2
 2751 002e 182B     		cmp	r3, #24
 2752 0030 0746     		mov	r7, r0
 2753 0032 17DD     		ble	.L202
 2754              	.LBE47:
 2755              	.LBE46:
 2756              		.loc 1 359 0
 2757 0034 0020     		movs	r0, #0
 2758              	.LVL320:
 2759 0036 0BE0     		b	.L197
 2760              	.LVL321:
 2761              	.L198:
 2762              	.LBB49:
 2763              	.LBB48:
 2764              		.loc 1 353 0
 2765 0038 D1E90232 		ldrd	r3, r2, [r1, #8]
 2766 003c AA1A     		subs	r2, r5, r2
 2767 003e 02FB02F2 		mul	r2, r2, r2
 2768 0042 FB1A     		subs	r3, r7, r3
 2769 0044 03FB0323 		mla	r3, r3, r3, r2
 2770 0048 182B     		cmp	r3, #24
 2771 004a 01F10801 		add	r1, r1, #8
 2772              	.LVL322:
 2773 004e 09DD     		ble	.L202
 2774              	.LVL323:
 2775              	.L197:
 2776              	.LBE48:
 2777              	.LBE49:
 2778              		.loc 1 359 0
 2779 0050 0130     		adds	r0, r0, #1
 2780              	.LVL324:
 2781 0052 A042     		cmp	r0, r4
 2782 0054 F0D1     		bne	.L198
 2783              	.LVL325:
 2784              	.L200:
 2785              	.LBE52:
 2786              		.loc 1 362 0
 2787 0056 0020     		movs	r0, #0
 2788              	.L196:
 2789              		.loc 1 363 0
 2790 0058 039A     		ldr	r2, [sp, #12]
 2791 005a 3368     		ldr	r3, [r6]
 2792 005c 9A42     		cmp	r2, r3
ARM GAS  /var/folders/qd/4mxf5pkd0zdf0b9dd1hp39180000gn/T//cc7TiL7h.s 			page 50


 2793 005e 03D1     		bne	.L204
 2794 0060 05B0     		add	sp, sp, #20
 2795              		.cfi_remember_state
 2796              		.cfi_def_cfa_offset 20
 2797              	.LVL326:
 2798              		@ sp needed
 2799 0062 F0BD     		pop	{r4, r5, r6, r7, pc}
 2800              	.LVL327:
 2801              	.L202:
 2802              		.cfi_restore_state
 2803              	.LBB53:
 2804              		.loc 1 361 0
 2805 0064 0120     		movs	r0, #1
 2806 0066 F7E7     		b	.L196
 2807              	.LVL328:
 2808              	.L204:
 2809              	.LBE53:
 2810              		.loc 1 363 0
 2811 0068 FFF7FEFF 		bl	__stack_chk_fail
 2812              	.LVL329:
 2813              	.L206:
 2814              		.align	2
 2815              	.L205:
 2816 006c 00000000 		.word	.LANCHOR3
 2817 0070 00000000 		.word	__stack_chk_guard
 2818 0074 00000000 		.word	.LANCHOR1
 2819              		.cfi_endproc
 2820              	.LFE277:
 2821              		.size	checkIfObjectExists, .-checkIfObjectExists
 2822              		.section	.text.mod_mapping_checkEnvironment,"ax",%progbits
 2823              		.align	1
 2824              		.p2align 4,,15
 2825              		.global	mod_mapping_checkEnvironment
 2826              		.syntax unified
 2827              		.thumb
 2828              		.thumb_func
 2829              		.fpu fpv4-sp-d16
 2830              		.type	mod_mapping_checkEnvironment, %function
 2831              	mod_mapping_checkEnvironment:
 2832              	.LFB278:
 2833              		.loc 1 366 0
 2834              		.cfi_startproc
 2835              		@ args = 0, pretend = 0, frame = 8
 2836              		@ frame_needed = 0, uses_anonymous_args = 0
 2837              	.LVL330:
 2838 0000 2DE9F04F 		push	{r4, r5, r6, r7, r8, r9, r10, fp, lr}
 2839              		.cfi_def_cfa_offset 36
 2840              		.cfi_offset 4, -36
 2841              		.cfi_offset 5, -32
 2842              		.cfi_offset 6, -28
 2843              		.cfi_offset 7, -24
 2844              		.cfi_offset 8, -20
 2845              		.cfi_offset 9, -16
 2846              		.cfi_offset 10, -12
 2847              		.cfi_offset 11, -8
 2848              		.cfi_offset 14, -4
 2849 0004 594B     		ldr	r3, .L238
ARM GAS  /var/folders/qd/4mxf5pkd0zdf0b9dd1hp39180000gn/T//cc7TiL7h.s 			page 51


 2850 0006 83B0     		sub	sp, sp, #12
 2851              		.cfi_def_cfa_offset 48
 2852              		.loc 1 366 0
 2853 0008 1B68     		ldr	r3, [r3]
 2854 000a 0193     		str	r3, [sp, #4]
 2855 000c 0646     		mov	r6, r0
 2856              		.loc 1 367 0
 2857 000e C800     		lsls	r0, r1, #3
 2858              	.LVL331:
 2859              		.loc 1 366 0
 2860 0010 9046     		mov	r8, r2
 2861 0012 0F46     		mov	r7, r1
 2862              		.loc 1 367 0
 2863 0014 FFF7FEFF 		bl	malloc
 2864              	.LVL332:
 2865              		.loc 1 368 0
 2866 0018 8246     		mov	r10, r0
 2867 001a 0030     		adds	r0, r0, #0
 2868              	.LVL333:
 2869              		.loc 1 369 0
 2870 001c 4FF00005 		mov	r5, #0
 2871              		.loc 1 368 0
 2872 0020 18BF     		it	ne
 2873 0022 0120     		movne	r0, #1
 2874 0024 FFF7FEFF 		bl	assert
 2875              	.LVL334:
 2876              	.LBB54:
 2877              		.loc 1 376 0
 2878 0028 AF42     		cmp	r7, r5
 2879              	.LBE54:
 2880              		.loc 1 370 0
 2881 002a C8E90155 		strd	r5, r5, [r8, #4]
 2882              	.LVL335:
 2883              	.LBB61:
 2884              		.loc 1 373 0
 2885 002e 88F80050 		strb	r5, [r8]
 2886              	.LVL336:
 2887 0032 88F80150 		strb	r5, [r8, #1]
 2888              	.LVL337:
 2889 0036 88F80250 		strb	r5, [r8, #2]
 2890              	.LVL338:
 2891 003a 88F80350 		strb	r5, [r8, #3]
 2892              	.LVL339:
 2893              	.LBE61:
 2894              	.LBB62:
 2895              		.loc 1 376 0
 2896 003e 2CDD     		ble	.L208
 2897              		.loc 1 382 0
 2898 0040 DFF83491 		ldr	r9, .L238+12
 2899 0044 5446     		mov	r4, r10
 2900 0046 09E0     		b	.L220
 2901              	.LVL340:
 2902              	.L235:
 2903              		.loc 1 382 0 is_stmt 0 discriminator 1
 2904 0048 0123     		movs	r3, #1
 2905 004a 88F80030 		strb	r3, [r8]
 2906              	.L210:
ARM GAS  /var/folders/qd/4mxf5pkd0zdf0b9dd1hp39180000gn/T//cc7TiL7h.s 			page 52


 2907              		.loc 1 376 0 is_stmt 1 discriminator 2
 2908 004e 0135     		adds	r5, r5, #1
 2909              	.LVL341:
 2910 0050 AF42     		cmp	r7, r5
 2911 0052 04F10804 		add	r4, r4, #8
 2912 0056 06F11806 		add	r6, r6, #24
 2913 005a 1ED0     		beq	.L208
 2914              	.LVL342:
 2915              	.L220:
 2916              		.loc 1 378 0
 2917 005c 3146     		mov	r1, r6
 2918 005e 2046     		mov	r0, r4
 2919 0060 FFF7FEFF 		bl	measurementToPoint
 2920              	.LVL343:
 2921              		.loc 1 380 0
 2922 0064 94E80300 		ldm	r4, {r0, r1}
 2923 0068 FFF7FEFF 		bl	isNear
 2924              	.LVL344:
 2925 006c 0028     		cmp	r0, #0
 2926 006e EED0     		beq	.L210
 2927              		.loc 1 382 0
 2928 0070 D9F80030 		ldr	r3, [r9]
 2929 0074 2168     		ldr	r1, [r4]
 2930 0076 2733     		adds	r3, r3, #39
 2931 0078 8B42     		cmp	r3, r1
 2932 007a E5DA     		bge	.L235
 2933              		.loc 1 383 0
 2934 007c D9F80430 		ldr	r3, [r9, #4]
 2935 0080 273B     		subs	r3, r3, #39
 2936 0082 9942     		cmp	r1, r3
 2937 0084 14DB     		blt	.L212
 2938              		.loc 1 376 0 discriminator 1
 2939 0086 0135     		adds	r5, r5, #1
 2940              	.LVL345:
 2941              		.loc 1 383 0 discriminator 1
 2942 0088 0123     		movs	r3, #1
 2943              		.loc 1 376 0 discriminator 1
 2944 008a AF42     		cmp	r7, r5
 2945              		.loc 1 383 0 discriminator 1
 2946 008c 88F80130 		strb	r3, [r8, #1]
 2947 0090 04F10804 		add	r4, r4, #8
 2948 0094 06F11806 		add	r6, r6, #24
 2949              		.loc 1 376 0 discriminator 1
 2950 0098 E0D1     		bne	.L220
 2951              	.LVL346:
 2952              	.L208:
 2953              	.LBE62:
 2954              		.loc 1 403 0
 2955 009a 344B     		ldr	r3, .L238
 2956 009c 019A     		ldr	r2, [sp, #4]
 2957 009e 1B68     		ldr	r3, [r3]
 2958 00a0 9A42     		cmp	r2, r3
 2959 00a2 60D1     		bne	.L236
 2960 00a4 5046     		mov	r0, r10
 2961              		.loc 1 406 0
 2962 00a6 03B0     		add	sp, sp, #12
 2963              		.cfi_remember_state
ARM GAS  /var/folders/qd/4mxf5pkd0zdf0b9dd1hp39180000gn/T//cc7TiL7h.s 			page 53


 2964              		.cfi_def_cfa_offset 36
 2965              		@ sp needed
 2966 00a8 BDE8F04F 		pop	{r4, r5, r6, r7, r8, r9, r10, fp, lr}
 2967              		.cfi_restore 14
 2968              		.cfi_restore 11
 2969              		.cfi_restore 10
 2970              		.cfi_restore 9
 2971              		.cfi_restore 8
 2972              		.cfi_restore 7
 2973              		.cfi_restore 6
 2974              		.cfi_restore 5
 2975              		.cfi_restore 4
 2976              		.cfi_def_cfa_offset 0
 2977              	.LVL347:
 2978              		.loc 1 403 0
 2979 00ac FFF7FEBF 		b	free
 2980              	.LVL348:
 2981              	.L212:
 2982              		.cfi_restore_state
 2983              	.LBB63:
 2984              		.loc 1 384 0
 2985 00b0 D9F80830 		ldr	r3, [r9, #8]
 2986 00b4 6068     		ldr	r0, [r4, #4]
 2987 00b6 2733     		adds	r3, r3, #39
 2988 00b8 8342     		cmp	r3, r0
 2989 00ba 03DB     		blt	.L213
 2990              		.loc 1 384 0 is_stmt 0 discriminator 1
 2991 00bc 0123     		movs	r3, #1
 2992 00be 88F80230 		strb	r3, [r8, #2]
 2993 00c2 C4E7     		b	.L210
 2994              	.L213:
 2995              		.loc 1 385 0 is_stmt 1
 2996 00c4 D9F80C30 		ldr	r3, [r9, #12]
 2997 00c8 273B     		subs	r3, r3, #39
 2998 00ca 9842     		cmp	r0, r3
 2999 00cc 03DB     		blt	.L237
 3000              		.loc 1 385 0 is_stmt 0 discriminator 1
 3001 00ce 0123     		movs	r3, #1
 3002 00d0 88F80330 		strb	r3, [r8, #3]
 3003 00d4 BBE7     		b	.L210
 3004              	.L237:
 3005              	.LVL349:
 3006              	.LBB55:
 3007              	.LBB56:
 3008              		.loc 1 359 0 is_stmt 1
 3009 00d6 264B     		ldr	r3, .L238+4
 3010 00d8 D3F800C0 		ldr	ip, [r3]
 3011 00dc BCF1000F 		cmp	ip, #0
 3012 00e0 1FDD     		ble	.L215
 3013              		.loc 1 360 0
 3014 00e2 244B     		ldr	r3, .L238+8
 3015 00e4 D3F800E0 		ldr	lr, [r3]
 3016              	.LVL350:
 3017              	.LBB57:
 3018              	.LBB58:
 3019              		.loc 1 353 0
 3020 00e8 DEE90032 		ldrd	r3, r2, [lr]
ARM GAS  /var/folders/qd/4mxf5pkd0zdf0b9dd1hp39180000gn/T//cc7TiL7h.s 			page 54


 3021 00ec 821A     		subs	r2, r0, r2
 3022 00ee 02FB02F2 		mul	r2, r2, r2
 3023 00f2 CB1A     		subs	r3, r1, r3
 3024 00f4 03FB0323 		mla	r3, r3, r3, r2
 3025 00f8 182B     		cmp	r3, #24
 3026 00fa 25DD     		ble	.L216
 3027              	.LBE58:
 3028              	.LBE57:
 3029              		.loc 1 359 0
 3030 00fc 4FF0000B 		mov	fp, #0
 3031 0100 0BE0     		b	.L217
 3032              	.LVL351:
 3033              	.L218:
 3034              	.LBB60:
 3035              	.LBB59:
 3036              		.loc 1 353 0
 3037 0102 DEE90232 		ldrd	r3, r2, [lr, #8]
 3038 0106 821A     		subs	r2, r0, r2
 3039 0108 02FB02F2 		mul	r2, r2, r2
 3040 010c CB1A     		subs	r3, r1, r3
 3041 010e 03FB0323 		mla	r3, r3, r3, r2
 3042 0112 182B     		cmp	r3, #24
 3043 0114 0EF1080E 		add	lr, lr, #8
 3044              	.LVL352:
 3045 0118 16DD     		ble	.L216
 3046              	.LVL353:
 3047              	.L217:
 3048              	.LBE59:
 3049              	.LBE60:
 3050              		.loc 1 359 0
 3051 011a 0BF1010B 		add	fp, fp, #1
 3052              	.LVL354:
 3053 011e E345     		cmp	fp, ip
 3054 0120 EFD1     		bne	.L218
 3055              	.LVL355:
 3056              	.L215:
 3057              	.LBE56:
 3058              	.LBE55:
 3059              		.loc 1 393 0
 3060 0122 D8F80430 		ldr	r3, [r8, #4]
 3061 0126 94E80300 		ldm	r4, {r0, r1}
 3062 012a 0133     		adds	r3, r3, #1
 3063 012c 08EBC302 		add	r2, r8, r3, lsl #3
 3064 0130 0432     		adds	r2, r2, #4
 3065 0132 82E80300 		stm	r2, {r0, r1}
 3066              		.loc 1 394 0
 3067 0136 C8F80430 		str	r3, [r8, #4]
 3068              	.L222:
 3069              		.loc 1 396 0
 3070 013a 032B     		cmp	r3, #3
 3071 013c ADD0     		beq	.L208
 3072              		.loc 1 396 0 is_stmt 0 discriminator 1
 3073 013e D8F80830 		ldr	r3, [r8, #8]
 3074 0142 032B     		cmp	r3, #3
 3075 0144 83D1     		bne	.L210
 3076 0146 A8E7     		b	.L208
 3077              	.LVL356:
ARM GAS  /var/folders/qd/4mxf5pkd0zdf0b9dd1hp39180000gn/T//cc7TiL7h.s 			page 55


 3078              	.L216:
 3079              		.loc 1 389 0 is_stmt 1
 3080 0148 D8F80830 		ldr	r3, [r8, #8]
 3081 014c 94E80300 		ldm	r4, {r0, r1}
 3082              	.LVL357:
 3083 0150 08EBC302 		add	r2, r8, r3, lsl #3
 3084 0154 2432     		adds	r2, r2, #36
 3085 0156 82E80300 		stm	r2, {r0, r1}
 3086              		.loc 1 390 0
 3087 015a 0133     		adds	r3, r3, #1
 3088 015c C8F80830 		str	r3, [r8, #8]
 3089 0160 D8F80430 		ldr	r3, [r8, #4]
 3090 0164 E9E7     		b	.L222
 3091              	.LVL358:
 3092              	.L236:
 3093              	.LBE63:
 3094              		.loc 1 403 0
 3095 0166 FFF7FEFF 		bl	__stack_chk_fail
 3096              	.LVL359:
 3097              	.L239:
 3098 016a 00BF     		.align	2
 3099              	.L238:
 3100 016c 00000000 		.word	__stack_chk_guard
 3101 0170 00000000 		.word	.LANCHOR3
 3102 0174 00000000 		.word	.LANCHOR1
 3103 0178 00000000 		.word	.LANCHOR2
 3104              		.cfi_endproc
 3105              	.LFE278:
 3106              		.size	mod_mapping_checkEnvironment, .-mod_mapping_checkEnvironment
 3107              		.section	.text.getEmplacementForPicture,"ax",%progbits
 3108              		.align	1
 3109              		.p2align 4,,15
 3110              		.global	getEmplacementForPicture
 3111              		.syntax unified
 3112              		.thumb
 3113              		.thumb_func
 3114              		.fpu fpv4-sp-d16
 3115              		.type	getEmplacementForPicture, %function
 3116              	getEmplacementForPicture:
 3117              	.LFB279:
 3118              		.loc 1 408 0
 3119              		.cfi_startproc
 3120              		@ args = 0, pretend = 0, frame = 16
 3121              		@ frame_needed = 0, uses_anonymous_args = 0
 3122              	.LVL360:
 3123 0000 70B5     		push	{r4, r5, r6, lr}
 3124              		.cfi_def_cfa_offset 16
 3125              		.cfi_offset 4, -16
 3126              		.cfi_offset 5, -12
 3127              		.cfi_offset 6, -8
 3128              		.cfi_offset 14, -4
 3129 0002 074B     		ldr	r3, .L244
 3130 0004 84B0     		sub	sp, sp, #16
 3131              		.cfi_def_cfa_offset 32
 3132              		.loc 1 408 0
 3133 0006 1C68     		ldr	r4, [r3]
 3134 0008 0394     		str	r4, [sp, #12]
ARM GAS  /var/folders/qd/4mxf5pkd0zdf0b9dd1hp39180000gn/T//cc7TiL7h.s 			page 56


 3135              		.loc 1 411 0
 3136 000a 039D     		ldr	r5, [sp, #12]
 3137 000c 1C68     		ldr	r4, [r3]
 3138              		.loc 1 408 0
 3139 000e 6B46     		mov	r3, sp
 3140              		.loc 1 411 0
 3141 0010 A542     		cmp	r5, r4
 3142              		.loc 1 408 0
 3143 0012 83E80600 		stm	r3, {r1, r2}
 3144              		.loc 1 411 0
 3145 0016 01D1     		bne	.L243
 3146 0018 04B0     		add	sp, sp, #16
 3147              		.cfi_remember_state
 3148              		.cfi_def_cfa_offset 16
 3149              		@ sp needed
 3150 001a 70BD     		pop	{r4, r5, r6, pc}
 3151              	.L243:
 3152              		.cfi_restore_state
 3153 001c FFF7FEFF 		bl	__stack_chk_fail
 3154              	.LVL361:
 3155              	.L245:
 3156              		.align	2
 3157              	.L244:
 3158 0020 00000000 		.word	__stack_chk_guard
 3159              		.cfi_endproc
 3160              	.LFE279:
 3161              		.size	getEmplacementForPicture, .-getEmplacementForPicture
 3162              		.section	.text.getPathTo,"ax",%progbits
 3163              		.align	1
 3164              		.p2align 4,,15
 3165              		.global	getPathTo
 3166              		.syntax unified
 3167              		.thumb
 3168              		.thumb_func
 3169              		.fpu fpv4-sp-d16
 3170              		.type	getPathTo, %function
 3171              	getPathTo:
 3172              	.LFB280:
 3173              		.loc 1 413 0
 3174              		.cfi_startproc
 3175              		@ args = 0, pretend = 0, frame = 8
 3176              		@ frame_needed = 0, uses_anonymous_args = 0
 3177 0000 00B5     		push	{lr}
 3178              		.cfi_def_cfa_offset 4
 3179              		.cfi_offset 14, -4
 3180 0002 064B     		ldr	r3, .L250
 3181 0004 83B0     		sub	sp, sp, #12
 3182              		.cfi_def_cfa_offset 16
 3183              		.loc 1 413 0
 3184 0006 1A68     		ldr	r2, [r3]
 3185 0008 0192     		str	r2, [sp, #4]
 3186              		.loc 1 415 0
 3187 000a 019A     		ldr	r2, [sp, #4]
 3188 000c 1B68     		ldr	r3, [r3]
 3189 000e 9A42     		cmp	r2, r3
 3190 0010 02D1     		bne	.L249
 3191 0012 03B0     		add	sp, sp, #12
ARM GAS  /var/folders/qd/4mxf5pkd0zdf0b9dd1hp39180000gn/T//cc7TiL7h.s 			page 57


 3192              		.cfi_remember_state
 3193              		.cfi_def_cfa_offset 4
 3194              		@ sp needed
 3195 0014 5DF804FB 		ldr	pc, [sp], #4
 3196              	.L249:
 3197              		.cfi_restore_state
 3198 0018 FFF7FEFF 		bl	__stack_chk_fail
 3199              	.LVL362:
 3200              	.L251:
 3201              		.align	2
 3202              	.L250:
 3203 001c 00000000 		.word	__stack_chk_guard
 3204              		.cfi_endproc
 3205              	.LFE280:
 3206              		.size	getPathTo, .-getPathTo
 3207              		.global	objectListSize
 3208              		.global	objectList
 3209              		.global	wall
 3210              		.section	.bss.objectList,"aw",%nobits
 3211              		.align	2
 3212              		.set	.LANCHOR1,. + 0
 3213              		.type	objectList, %object
 3214              		.size	objectList, 4
 3215              	objectList:
 3216 0000 00000000 		.space	4
 3217              		.section	.bss.objectListSize,"aw",%nobits
 3218              		.align	2
 3219              		.set	.LANCHOR3,. + 0
 3220              		.type	objectListSize, %object
 3221              		.size	objectListSize, 4
 3222              	objectListSize:
 3223 0000 00000000 		.space	4
 3224              		.section	.bss.robotActualPosition,"aw",%nobits
 3225              		.align	3
 3226              		.set	.LANCHOR0,. + 0
 3227              		.type	robotActualPosition, %object
 3228              		.size	robotActualPosition, 16
 3229              	robotActualPosition:
 3230 0000 00000000 		.space	16
 3230      00000000 
 3230      00000000 
 3230      00000000 
 3231              		.section	.bss.wall,"aw",%nobits
 3232              		.align	2
 3233              		.set	.LANCHOR2,. + 0
 3234              		.type	wall, %object
 3235              		.size	wall, 16
 3236              	wall:
 3237 0000 00000000 		.space	16
 3237      00000000 
 3237      00000000 
 3237      00000000 
 3238              		.section	.rodata.measurementToPoint.str1.4,"aMS",%progbits,1
 3239              		.align	2
 3240              	.LC1:
 3241 0000 506F696E 		.ascii	"Point location : %d, %d\000"
 3241      74206C6F 
ARM GAS  /var/folders/qd/4mxf5pkd0zdf0b9dd1hp39180000gn/T//cc7TiL7h.s 			page 58


 3241      63617469 
 3241      6F6E203A 
 3241      2025642C 
 3242              		.section	.rodata.mod_mapping_getAngleForTranslation.str1.4,"aMS",%progbits,1
 3243              		.align	2
 3244              	.LC4:
 3245 0000 416E676C 		.ascii	"Angle to take : %f\000"
 3245      6520746F 
 3245      2074616B 
 3245      65203A20 
 3245      256600
 3246              		.section	.rodata.mod_mapping_getRobotDisplacement.str1.4,"aMS",%progbits,1
 3247              		.align	2
 3248              	.LC3:
 3249 0000 44697370 		.ascii	"Displacement to do : %f, %d, %f\000"
 3249      6C616365 
 3249      6D656E74 
 3249      20746F20 
 3249      646F203A 
 3250              		.section	.rodata.moveOrigin.str1.4,"aMS",%progbits,1
 3251              		.align	2
 3252              	.LC2:
 3253 0000 524D6F76 		.ascii	"RMoved origin : %d, %d, %f\000"
 3253      6564206F 
 3253      72696769 
 3253      6E203A20 
 3253      25642C20 
 3254              		.section	.rodata.newAbsolutePositionWheelSpeedType.str1.4,"aMS",%progbits,1
 3255              		.align	2
 3256              	.LC0:
 3257 0000 526F626F 		.ascii	"Robot new position : %d, %d, %f\000"
 3257      74206E65 
 3257      7720706F 
 3257      73697469 
 3257      6F6E203A 
 3258              		.text
 3259              	.Letext0:
 3260              		.file 2 "/Applications/Eclipse_e-puck2.app/Contents/Eclipse_e-puck2/Tools/gcc-arm-none-eabi-7-2017
 3261              		.file 3 "/Applications/Eclipse_e-puck2.app/Contents/Eclipse_e-puck2/Tools/gcc-arm-none-eabi-7-2017
 3262              		.file 4 "/Applications/Eclipse_e-puck2.app/Contents/Eclipse_e-puck2/Tools/gcc-arm-none-eabi-7-2017
 3263              		.file 5 "/Applications/Eclipse_e-puck2.app/Contents/Eclipse_e-puck2/Tools/gcc-arm-none-eabi-7-2017
 3264              		.file 6 "/Applications/Eclipse_e-puck2.app/Contents/Eclipse_e-puck2/Tools/gcc-arm-none-eabi-7-2017
 3265              		.file 7 "/Applications/Eclipse_e-puck2.app/Contents/Eclipse_e-puck2/Tools/gcc-arm-none-eabi-7-2017
 3266              		.file 8 "modules/headers/structs.h"
 3267              		.file 9 "modules/headers/mod_mapping.h"
 3268              		.file 10 "/Applications/Eclipse_e-puck2.app/Contents/Eclipse_e-puck2/Tools/gcc-arm-none-eabi-7-201
 3269              		.file 11 "lib/e-puck2_main-processor/ChibiOS//os/rt/ports/ARMCMx/compilers/GCC/chtypes.h"
 3270              		.file 12 "lib/e-puck2_main-processor/ChibiOS//os/rt/include/chsystypes.h"
 3271              		.file 13 "lib/e-puck2_main-processor/ChibiOS//os/rt/include/chschd.h"
 3272              		.file 14 "lib/e-puck2_main-processor/ChibiOS//os/ext/CMSIS/include/core_cm4.h"
 3273              		.file 15 "lib/e-puck2_main-processor/ChibiOS//os/ext/CMSIS/ST/system_stm32f4xx.h"
 3274              		.file 16 "lib/e-puck2_main-processor/ChibiOS//os/ext/CMSIS/ST/stm32f407xx.h"
 3275              		.file 17 "lib/e-puck2_main-processor/ChibiOS//os/rt/ports/ARMCMx/chcore.h"
 3276              		.file 18 "lib/e-puck2_main-processor/ChibiOS//os/rt/ports/ARMCMx/chcore_v7m.h"
 3277              		.file 19 "lib/e-puck2_main-processor/ChibiOS//os/rt/include/chdebug.h"
 3278              		.file 20 "lib/e-puck2_main-processor/ChibiOS//os/rt/include/chtm.h"
 3279              		.file 21 "lib/e-puck2_main-processor/ChibiOS//os/rt/include/chstats.h"
ARM GAS  /var/folders/qd/4mxf5pkd0zdf0b9dd1hp39180000gn/T//cc7TiL7h.s 			page 59


 3280              		.file 22 "lib/e-puck2_main-processor/ChibiOS//os/rt/include/chsem.h"
 3281              		.file 23 "lib/e-puck2_main-processor/ChibiOS//os/rt/include/chmtx.h"
 3282              		.file 24 "lib/e-puck2_main-processor/ChibiOS//os/rt/include/chregistry.h"
 3283              		.file 25 "lib/e-puck2_main-processor/ChibiOS//os/rt/include/chevents.h"
 3284              		.file 26 "lib/e-puck2_main-processor/ChibiOS//os/rt/include/chqueues.h"
 3285              		.file 27 "lib/e-puck2_main-processor/ChibiOS//os/hal/ports/STM32/STM32F4xx/stm32_dma.h"
 3286              		.file 28 "lib/e-puck2_main-processor/ChibiOS//os/hal/include/hal_ioblock.h"
 3287              		.file 29 "lib/e-puck2_main-processor/ChibiOS//os/hal/ports/STM32/LLD/GPIOv2/pal_lld.h"
 3288              		.file 30 "lib/e-puck2_main-processor/ChibiOS//os/hal/include/adc.h"
 3289              		.file 31 "lib/e-puck2_main-processor/ChibiOS//os/hal/ports/STM32/STM32F4xx/adc_lld.h"
 3290              		.file 32 "lib/e-puck2_main-processor/ChibiOS//os/hal/include/can.h"
 3291              		.file 33 "lib/e-puck2_main-processor/ChibiOS//os/hal/ports/STM32/LLD/can_lld.h"
 3292              		.file 34 "lib/e-puck2_main-processor/ChibiOS//os/hal/include/dac.h"
 3293              		.file 35 "lib/e-puck2_main-processor/ChibiOS//os/hal/ports/STM32/LLD/DACv1/dac_lld.h"
 3294              		.file 36 "lib/e-puck2_main-processor/ChibiOS//os/hal/include/ext.h"
 3295              		.file 37 "lib/e-puck2_main-processor/ChibiOS//os/hal/ports/STM32/LLD/ext_lld.h"
 3296              		.file 38 "lib/e-puck2_main-processor/ChibiOS//os/hal/include/gpt.h"
 3297              		.file 39 "lib/e-puck2_main-processor/ChibiOS//os/hal/ports/STM32/LLD/TIMv1/gpt_lld.h"
 3298              		.file 40 "lib/e-puck2_main-processor/ChibiOS//os/hal/ports/STM32/LLD/TIMv1/stm32_tim.h"
 3299              		.file 41 "lib/e-puck2_main-processor/ChibiOS//os/hal/include/i2c.h"
 3300              		.file 42 "lib/e-puck2_main-processor/ChibiOS//os/hal/ports/STM32/LLD/I2Cv1/i2c_lld.h"
 3301              		.file 43 "lib/e-puck2_main-processor/ChibiOS//os/hal/include/i2s.h"
 3302              		.file 44 "lib/e-puck2_main-processor/ChibiOS//os/hal/ports/STM32/LLD/SPIv1/i2s_lld.h"
 3303              		.file 45 "lib/e-puck2_main-processor/ChibiOS//os/hal/include/pwm.h"
 3304              		.file 46 "lib/e-puck2_main-processor/ChibiOS//os/hal/ports/STM32/LLD/TIMv1/pwm_lld.h"
 3305              		.file 47 "lib/e-puck2_main-processor/ChibiOS//os/hal/include/serial.h"
 3306              		.file 48 "lib/e-puck2_main-processor/ChibiOS//os/hal/ports/STM32/LLD/USARTv1/serial_lld.h"
 3307              		.file 49 "lib/e-puck2_main-processor/ChibiOS//os/hal/include/sdc.h"
 3308              		.file 50 "lib/e-puck2_main-processor/ChibiOS//os/hal/ports/STM32/LLD/sdc_lld.h"
 3309              		.file 51 "lib/e-puck2_main-processor/ChibiOS//os/hal/include/spi.h"
 3310              		.file 52 "lib/e-puck2_main-processor/ChibiOS//os/hal/ports/STM32/LLD/SPIv1/spi_lld.h"
 3311              		.file 53 "lib/e-puck2_main-processor/ChibiOS//os/hal/include/usb.h"
 3312              		.file 54 "lib/e-puck2_main-processor/ChibiOS//os/hal/ports/STM32/LLD/OTGv1/usb_lld.h"
 3313              		.file 55 "lib/e-puck2_main-processor/ChibiOS//os/hal/ports/STM32/LLD/OTGv1/stm32_otg.h"
 3314              		.file 56 "/Applications/Eclipse_e-puck2.app/Contents/Eclipse_e-puck2/Tools/gcc-arm-none-eabi-7-201
 3315              		.file 57 "modules/headers/mod_check.h"
 3316              		.file 58 "/Applications/Eclipse_e-puck2.app/Contents/Eclipse_e-puck2/Tools/gcc-arm-none-eabi-7-201
 3317              		.file 59 "modules/headers/mod_communication.h"
 3318              		.section	.debug_info,"",%progbits
 3319              	.Ldebug_info0:
 3320 0000 724D0000 		.4byte	0x4d72
 3321 0004 0400     		.2byte	0x4
 3322 0006 00000000 		.4byte	.Ldebug_abbrev0
 3323 000a 04       		.byte	0x4
 3324 000b 01       		.uleb128 0x1
 3325 000c E80F0000 		.4byte	.LASF917
 3326 0010 0C       		.byte	0xc
 3327 0011 E31C0000 		.4byte	.LASF918
 3328 0015 CC0B0000 		.4byte	.LASF919
 3329 0019 F0000000 		.4byte	.Ldebug_ranges0+0xf0
 3330 001d 00000000 		.4byte	0
 3331 0021 00000000 		.4byte	.Ldebug_line0
 3332 0025 02       		.uleb128 0x2
 3333 0026 08       		.byte	0x8
 3334 0027 04       		.byte	0x4
 3335 0028 2C1E0000 		.4byte	.LASF0
 3336 002c 03       		.uleb128 0x3
ARM GAS  /var/folders/qd/4mxf5pkd0zdf0b9dd1hp39180000gn/T//cc7TiL7h.s 			page 60


 3337 002d 04       		.byte	0x4
 3338 002e 05       		.byte	0x5
 3339 002f 696E7400 		.ascii	"int\000"
 3340 0033 04       		.uleb128 0x4
 3341 0034 D00D0000 		.4byte	.LASF5
 3342 0038 02       		.byte	0x2
 3343 0039 D8       		.byte	0xd8
 3344 003a 3E000000 		.4byte	0x3e
 3345 003e 02       		.uleb128 0x2
 3346 003f 04       		.byte	0x4
 3347 0040 07       		.byte	0x7
 3348 0041 FE240000 		.4byte	.LASF1
 3349 0045 02       		.uleb128 0x2
 3350 0046 08       		.byte	0x8
 3351 0047 05       		.byte	0x5
 3352 0048 13230000 		.4byte	.LASF2
 3353 004c 02       		.uleb128 0x2
 3354 004d 08       		.byte	0x8
 3355 004e 04       		.byte	0x4
 3356 004f 411A0000 		.4byte	.LASF3
 3357 0053 02       		.uleb128 0x2
 3358 0054 01       		.byte	0x1
 3359 0055 06       		.byte	0x6
 3360 0056 35160000 		.4byte	.LASF4
 3361 005a 04       		.uleb128 0x4
 3362 005b EE000000 		.4byte	.LASF6
 3363 005f 03       		.byte	0x3
 3364 0060 2B       		.byte	0x2b
 3365 0061 65000000 		.4byte	0x65
 3366 0065 02       		.uleb128 0x2
 3367 0066 01       		.byte	0x1
 3368 0067 08       		.byte	0x8
 3369 0068 76090000 		.4byte	.LASF7
 3370 006c 04       		.uleb128 0x4
 3371 006d BB070000 		.4byte	.LASF8
 3372 0071 03       		.byte	0x3
 3373 0072 37       		.byte	0x37
 3374 0073 77000000 		.4byte	0x77
 3375 0077 02       		.uleb128 0x2
 3376 0078 02       		.byte	0x2
 3377 0079 05       		.byte	0x5
 3378 007a 70250000 		.4byte	.LASF9
 3379 007e 04       		.uleb128 0x4
 3380 007f C5070000 		.4byte	.LASF10
 3381 0083 03       		.byte	0x3
 3382 0084 39       		.byte	0x39
 3383 0085 89000000 		.4byte	0x89
 3384 0089 02       		.uleb128 0x2
 3385 008a 02       		.byte	0x2
 3386 008b 07       		.byte	0x7
 3387 008c 1A160000 		.4byte	.LASF11
 3388 0090 04       		.uleb128 0x4
 3389 0091 AB1E0000 		.4byte	.LASF12
 3390 0095 03       		.byte	0x3
 3391 0096 4D       		.byte	0x4d
 3392 0097 9B000000 		.4byte	0x9b
 3393 009b 02       		.uleb128 0x2
ARM GAS  /var/folders/qd/4mxf5pkd0zdf0b9dd1hp39180000gn/T//cc7TiL7h.s 			page 61


 3394 009c 04       		.byte	0x4
 3395 009d 05       		.byte	0x5
 3396 009e 02190000 		.4byte	.LASF13
 3397 00a2 04       		.uleb128 0x4
 3398 00a3 B51E0000 		.4byte	.LASF14
 3399 00a7 03       		.byte	0x3
 3400 00a8 4F       		.byte	0x4f
 3401 00a9 AD000000 		.4byte	0xad
 3402 00ad 02       		.uleb128 0x2
 3403 00ae 04       		.byte	0x4
 3404 00af 07       		.byte	0x7
 3405 00b0 931A0000 		.4byte	.LASF15
 3406 00b4 04       		.uleb128 0x4
 3407 00b5 1C120000 		.4byte	.LASF16
 3408 00b9 03       		.byte	0x3
 3409 00ba 69       		.byte	0x69
 3410 00bb BF000000 		.4byte	0xbf
 3411 00bf 02       		.uleb128 0x2
 3412 00c0 08       		.byte	0x8
 3413 00c1 07       		.byte	0x7
 3414 00c2 7F200000 		.4byte	.LASF17
 3415 00c6 04       		.uleb128 0x4
 3416 00c7 9A070000 		.4byte	.LASF18
 3417 00cb 04       		.byte	0x4
 3418 00cc 22       		.byte	0x22
 3419 00cd D1000000 		.4byte	0xd1
 3420 00d1 05       		.uleb128 0x5
 3421 00d2 04       		.byte	0x4
 3422 00d3 D7000000 		.4byte	0xd7
 3423 00d7 06       		.uleb128 0x6
 3424 00d8 F3050000 		.4byte	.LASF125
 3425 00dc 04       		.uleb128 0x4
 3426 00dd 870D0000 		.4byte	.LASF19
 3427 00e1 05       		.byte	0x5
 3428 00e2 2C       		.byte	0x2c
 3429 00e3 9B000000 		.4byte	0x9b
 3430 00e7 04       		.uleb128 0x4
 3431 00e8 DD1D0000 		.4byte	.LASF20
 3432 00ec 05       		.byte	0x5
 3433 00ed 72       		.byte	0x72
 3434 00ee 9B000000 		.4byte	0x9b
 3435 00f2 07       		.uleb128 0x7
 3436 00f3 770F0000 		.4byte	.LASF21
 3437 00f7 02       		.byte	0x2
 3438 00f8 6501     		.2byte	0x165
 3439 00fa 3E000000 		.4byte	0x3e
 3440 00fe 08       		.uleb128 0x8
 3441 00ff 04       		.byte	0x4
 3442 0100 05       		.byte	0x5
 3443 0101 A6       		.byte	0xa6
 3444 0102 1D010000 		.4byte	0x11d
 3445 0106 09       		.uleb128 0x9
 3446 0107 6A180000 		.4byte	.LASF22
 3447 010b 05       		.byte	0x5
 3448 010c A8       		.byte	0xa8
 3449 010d F2000000 		.4byte	0xf2
 3450 0111 09       		.uleb128 0x9
ARM GAS  /var/folders/qd/4mxf5pkd0zdf0b9dd1hp39180000gn/T//cc7TiL7h.s 			page 62


 3451 0112 250F0000 		.4byte	.LASF23
 3452 0116 05       		.byte	0x5
 3453 0117 A9       		.byte	0xa9
 3454 0118 1D010000 		.4byte	0x11d
 3455 011c 00       		.byte	0
 3456 011d 0A       		.uleb128 0xa
 3457 011e 65000000 		.4byte	0x65
 3458 0122 2D010000 		.4byte	0x12d
 3459 0126 0B       		.uleb128 0xb
 3460 0127 3E000000 		.4byte	0x3e
 3461 012b 03       		.byte	0x3
 3462 012c 00       		.byte	0
 3463 012d 0C       		.uleb128 0xc
 3464 012e 08       		.byte	0x8
 3465 012f 05       		.byte	0x5
 3466 0130 A3       		.byte	0xa3
 3467 0131 4E010000 		.4byte	0x14e
 3468 0135 0D       		.uleb128 0xd
 3469 0136 EF0D0000 		.4byte	.LASF24
 3470 013a 05       		.byte	0x5
 3471 013b A5       		.byte	0xa5
 3472 013c 2C000000 		.4byte	0x2c
 3473 0140 00       		.byte	0
 3474 0141 0D       		.uleb128 0xd
 3475 0142 E31E0000 		.4byte	.LASF25
 3476 0146 05       		.byte	0x5
 3477 0147 AA       		.byte	0xaa
 3478 0148 FE000000 		.4byte	0xfe
 3479 014c 04       		.byte	0x4
 3480 014d 00       		.byte	0
 3481 014e 04       		.uleb128 0x4
 3482 014f 551E0000 		.4byte	.LASF26
 3483 0153 05       		.byte	0x5
 3484 0154 AB       		.byte	0xab
 3485 0155 2D010000 		.4byte	0x12d
 3486 0159 04       		.uleb128 0x4
 3487 015a 70220000 		.4byte	.LASF27
 3488 015e 05       		.byte	0x5
 3489 015f AF       		.byte	0xaf
 3490 0160 C6000000 		.4byte	0xc6
 3491 0164 0E       		.uleb128 0xe
 3492 0165 04       		.byte	0x4
 3493 0166 05       		.uleb128 0x5
 3494 0167 04       		.byte	0x4
 3495 0168 6C010000 		.4byte	0x16c
 3496 016c 02       		.uleb128 0x2
 3497 016d 01       		.byte	0x1
 3498 016e 08       		.byte	0x8
 3499 016f 381B0000 		.4byte	.LASF28
 3500 0173 0F       		.uleb128 0xf
 3501 0174 6C010000 		.4byte	0x16c
 3502 0178 04       		.uleb128 0x4
 3503 0179 DB140000 		.4byte	.LASF29
 3504 017d 06       		.byte	0x6
 3505 017e 16       		.byte	0x16
 3506 017f AD000000 		.4byte	0xad
 3507 0183 10       		.uleb128 0x10
ARM GAS  /var/folders/qd/4mxf5pkd0zdf0b9dd1hp39180000gn/T//cc7TiL7h.s 			page 63


 3508 0184 C11B0000 		.4byte	.LASF34
 3509 0188 18       		.byte	0x18
 3510 0189 06       		.byte	0x6
 3511 018a 2F       		.byte	0x2f
 3512 018b D6010000 		.4byte	0x1d6
 3513 018f 0D       		.uleb128 0xd
 3514 0190 46120000 		.4byte	.LASF30
 3515 0194 06       		.byte	0x6
 3516 0195 31       		.byte	0x31
 3517 0196 D6010000 		.4byte	0x1d6
 3518 019a 00       		.byte	0
 3519 019b 11       		.uleb128 0x11
 3520 019c 5F6B00   		.ascii	"_k\000"
 3521 019f 06       		.byte	0x6
 3522 01a0 32       		.byte	0x32
 3523 01a1 2C000000 		.4byte	0x2c
 3524 01a5 04       		.byte	0x4
 3525 01a6 0D       		.uleb128 0xd
 3526 01a7 151A0000 		.4byte	.LASF31
 3527 01ab 06       		.byte	0x6
 3528 01ac 32       		.byte	0x32
 3529 01ad 2C000000 		.4byte	0x2c
 3530 01b1 08       		.byte	0x8
 3531 01b2 0D       		.uleb128 0xd
 3532 01b3 96240000 		.4byte	.LASF32
 3533 01b7 06       		.byte	0x6
 3534 01b8 32       		.byte	0x32
 3535 01b9 2C000000 		.4byte	0x2c
 3536 01bd 0C       		.byte	0xc
 3537 01be 0D       		.uleb128 0xd
 3538 01bf 060A0000 		.4byte	.LASF33
 3539 01c3 06       		.byte	0x6
 3540 01c4 32       		.byte	0x32
 3541 01c5 2C000000 		.4byte	0x2c
 3542 01c9 10       		.byte	0x10
 3543 01ca 11       		.uleb128 0x11
 3544 01cb 5F7800   		.ascii	"_x\000"
 3545 01ce 06       		.byte	0x6
 3546 01cf 33       		.byte	0x33
 3547 01d0 DC010000 		.4byte	0x1dc
 3548 01d4 14       		.byte	0x14
 3549 01d5 00       		.byte	0
 3550 01d6 05       		.uleb128 0x5
 3551 01d7 04       		.byte	0x4
 3552 01d8 83010000 		.4byte	0x183
 3553 01dc 0A       		.uleb128 0xa
 3554 01dd 78010000 		.4byte	0x178
 3555 01e1 EC010000 		.4byte	0x1ec
 3556 01e5 0B       		.uleb128 0xb
 3557 01e6 3E000000 		.4byte	0x3e
 3558 01ea 00       		.byte	0
 3559 01eb 00       		.byte	0
 3560 01ec 10       		.uleb128 0x10
 3561 01ed F3060000 		.4byte	.LASF35
 3562 01f1 24       		.byte	0x24
 3563 01f2 06       		.byte	0x6
 3564 01f3 37       		.byte	0x37
ARM GAS  /var/folders/qd/4mxf5pkd0zdf0b9dd1hp39180000gn/T//cc7TiL7h.s 			page 64


 3565 01f4 65020000 		.4byte	0x265
 3566 01f8 0D       		.uleb128 0xd
 3567 01f9 85130000 		.4byte	.LASF36
 3568 01fd 06       		.byte	0x6
 3569 01fe 39       		.byte	0x39
 3570 01ff 2C000000 		.4byte	0x2c
 3571 0203 00       		.byte	0
 3572 0204 0D       		.uleb128 0xd
 3573 0205 B0240000 		.4byte	.LASF37
 3574 0209 06       		.byte	0x6
 3575 020a 3A       		.byte	0x3a
 3576 020b 2C000000 		.4byte	0x2c
 3577 020f 04       		.byte	0x4
 3578 0210 0D       		.uleb128 0xd
 3579 0211 460F0000 		.4byte	.LASF38
 3580 0215 06       		.byte	0x6
 3581 0216 3B       		.byte	0x3b
 3582 0217 2C000000 		.4byte	0x2c
 3583 021b 08       		.byte	0x8
 3584 021c 0D       		.uleb128 0xd
 3585 021d 6A110000 		.4byte	.LASF39
 3586 0221 06       		.byte	0x6
 3587 0222 3C       		.byte	0x3c
 3588 0223 2C000000 		.4byte	0x2c
 3589 0227 0C       		.byte	0xc
 3590 0228 0D       		.uleb128 0xd
 3591 0229 9E010000 		.4byte	.LASF40
 3592 022d 06       		.byte	0x6
 3593 022e 3D       		.byte	0x3d
 3594 022f 2C000000 		.4byte	0x2c
 3595 0233 10       		.byte	0x10
 3596 0234 0D       		.uleb128 0xd
 3597 0235 3B0B0000 		.4byte	.LASF41
 3598 0239 06       		.byte	0x6
 3599 023a 3E       		.byte	0x3e
 3600 023b 2C000000 		.4byte	0x2c
 3601 023f 14       		.byte	0x14
 3602 0240 0D       		.uleb128 0xd
 3603 0241 E7080000 		.4byte	.LASF42
 3604 0245 06       		.byte	0x6
 3605 0246 3F       		.byte	0x3f
 3606 0247 2C000000 		.4byte	0x2c
 3607 024b 18       		.byte	0x18
 3608 024c 0D       		.uleb128 0xd
 3609 024d 55070000 		.4byte	.LASF43
 3610 0251 06       		.byte	0x6
 3611 0252 40       		.byte	0x40
 3612 0253 2C000000 		.4byte	0x2c
 3613 0257 1C       		.byte	0x1c
 3614 0258 0D       		.uleb128 0xd
 3615 0259 F1080000 		.4byte	.LASF44
 3616 025d 06       		.byte	0x6
 3617 025e 41       		.byte	0x41
 3618 025f 2C000000 		.4byte	0x2c
 3619 0263 20       		.byte	0x20
 3620 0264 00       		.byte	0
 3621 0265 12       		.uleb128 0x12
ARM GAS  /var/folders/qd/4mxf5pkd0zdf0b9dd1hp39180000gn/T//cc7TiL7h.s 			page 65


 3622 0266 A6130000 		.4byte	.LASF45
 3623 026a 0801     		.2byte	0x108
 3624 026c 06       		.byte	0x6
 3625 026d 4A       		.byte	0x4a
 3626 026e A5020000 		.4byte	0x2a5
 3627 0272 0D       		.uleb128 0xd
 3628 0273 98110000 		.4byte	.LASF46
 3629 0277 06       		.byte	0x6
 3630 0278 4B       		.byte	0x4b
 3631 0279 A5020000 		.4byte	0x2a5
 3632 027d 00       		.byte	0
 3633 027e 0D       		.uleb128 0xd
 3634 027f B3080000 		.4byte	.LASF47
 3635 0283 06       		.byte	0x6
 3636 0284 4C       		.byte	0x4c
 3637 0285 A5020000 		.4byte	0x2a5
 3638 0289 80       		.byte	0x80
 3639 028a 13       		.uleb128 0x13
 3640 028b A7010000 		.4byte	.LASF48
 3641 028f 06       		.byte	0x6
 3642 0290 4E       		.byte	0x4e
 3643 0291 78010000 		.4byte	0x178
 3644 0295 0001     		.2byte	0x100
 3645 0297 13       		.uleb128 0x13
 3646 0298 011F0000 		.4byte	.LASF49
 3647 029c 06       		.byte	0x6
 3648 029d 51       		.byte	0x51
 3649 029e 78010000 		.4byte	0x178
 3650 02a2 0401     		.2byte	0x104
 3651 02a4 00       		.byte	0
 3652 02a5 0A       		.uleb128 0xa
 3653 02a6 64010000 		.4byte	0x164
 3654 02aa B5020000 		.4byte	0x2b5
 3655 02ae 0B       		.uleb128 0xb
 3656 02af 3E000000 		.4byte	0x3e
 3657 02b3 1F       		.byte	0x1f
 3658 02b4 00       		.byte	0
 3659 02b5 12       		.uleb128 0x12
 3660 02b6 3E010000 		.4byte	.LASF50
 3661 02ba 9001     		.2byte	0x190
 3662 02bc 06       		.byte	0x6
 3663 02bd 5D       		.byte	0x5d
 3664 02be F3020000 		.4byte	0x2f3
 3665 02c2 0D       		.uleb128 0xd
 3666 02c3 46120000 		.4byte	.LASF30
 3667 02c7 06       		.byte	0x6
 3668 02c8 5E       		.byte	0x5e
 3669 02c9 F3020000 		.4byte	0x2f3
 3670 02cd 00       		.byte	0
 3671 02ce 0D       		.uleb128 0xd
 3672 02cf C9010000 		.4byte	.LASF51
 3673 02d3 06       		.byte	0x6
 3674 02d4 5F       		.byte	0x5f
 3675 02d5 2C000000 		.4byte	0x2c
 3676 02d9 04       		.byte	0x4
 3677 02da 0D       		.uleb128 0xd
 3678 02db 331E0000 		.4byte	.LASF52
ARM GAS  /var/folders/qd/4mxf5pkd0zdf0b9dd1hp39180000gn/T//cc7TiL7h.s 			page 66


 3679 02df 06       		.byte	0x6
 3680 02e0 61       		.byte	0x61
 3681 02e1 F9020000 		.4byte	0x2f9
 3682 02e5 08       		.byte	0x8
 3683 02e6 0D       		.uleb128 0xd
 3684 02e7 A6130000 		.4byte	.LASF45
 3685 02eb 06       		.byte	0x6
 3686 02ec 62       		.byte	0x62
 3687 02ed 65020000 		.4byte	0x265
 3688 02f1 88       		.byte	0x88
 3689 02f2 00       		.byte	0
 3690 02f3 05       		.uleb128 0x5
 3691 02f4 04       		.byte	0x4
 3692 02f5 B5020000 		.4byte	0x2b5
 3693 02f9 0A       		.uleb128 0xa
 3694 02fa 09030000 		.4byte	0x309
 3695 02fe 09030000 		.4byte	0x309
 3696 0302 0B       		.uleb128 0xb
 3697 0303 3E000000 		.4byte	0x3e
 3698 0307 1F       		.byte	0x1f
 3699 0308 00       		.byte	0
 3700 0309 05       		.uleb128 0x5
 3701 030a 04       		.byte	0x4
 3702 030b 0F030000 		.4byte	0x30f
 3703 030f 14       		.uleb128 0x14
 3704 0310 10       		.uleb128 0x10
 3705 0311 7D170000 		.4byte	.LASF53
 3706 0315 08       		.byte	0x8
 3707 0316 06       		.byte	0x6
 3708 0317 75       		.byte	0x75
 3709 0318 35030000 		.4byte	0x335
 3710 031c 0D       		.uleb128 0xd
 3711 031d 5E060000 		.4byte	.LASF54
 3712 0321 06       		.byte	0x6
 3713 0322 76       		.byte	0x76
 3714 0323 35030000 		.4byte	0x335
 3715 0327 00       		.byte	0
 3716 0328 0D       		.uleb128 0xd
 3717 0329 510A0000 		.4byte	.LASF55
 3718 032d 06       		.byte	0x6
 3719 032e 77       		.byte	0x77
 3720 032f 2C000000 		.4byte	0x2c
 3721 0333 04       		.byte	0x4
 3722 0334 00       		.byte	0
 3723 0335 05       		.uleb128 0x5
 3724 0336 04       		.byte	0x4
 3725 0337 65000000 		.4byte	0x65
 3726 033b 10       		.uleb128 0x10
 3727 033c 241E0000 		.4byte	.LASF56
 3728 0340 68       		.byte	0x68
 3729 0341 06       		.byte	0x6
 3730 0342 B5       		.byte	0xb5
 3731 0343 65040000 		.4byte	0x465
 3732 0347 11       		.uleb128 0x11
 3733 0348 5F7000   		.ascii	"_p\000"
 3734 034b 06       		.byte	0x6
 3735 034c B6       		.byte	0xb6
ARM GAS  /var/folders/qd/4mxf5pkd0zdf0b9dd1hp39180000gn/T//cc7TiL7h.s 			page 67


 3736 034d 35030000 		.4byte	0x335
 3737 0351 00       		.byte	0
 3738 0352 11       		.uleb128 0x11
 3739 0353 5F7200   		.ascii	"_r\000"
 3740 0356 06       		.byte	0x6
 3741 0357 B7       		.byte	0xb7
 3742 0358 2C000000 		.4byte	0x2c
 3743 035c 04       		.byte	0x4
 3744 035d 11       		.uleb128 0x11
 3745 035e 5F7700   		.ascii	"_w\000"
 3746 0361 06       		.byte	0x6
 3747 0362 B8       		.byte	0xb8
 3748 0363 2C000000 		.4byte	0x2c
 3749 0367 08       		.byte	0x8
 3750 0368 0D       		.uleb128 0xd
 3751 0369 19020000 		.4byte	.LASF57
 3752 036d 06       		.byte	0x6
 3753 036e B9       		.byte	0xb9
 3754 036f 77000000 		.4byte	0x77
 3755 0373 0C       		.byte	0xc
 3756 0374 0D       		.uleb128 0xd
 3757 0375 FA1D0000 		.4byte	.LASF58
 3758 0379 06       		.byte	0x6
 3759 037a BA       		.byte	0xba
 3760 037b 77000000 		.4byte	0x77
 3761 037f 0E       		.byte	0xe
 3762 0380 11       		.uleb128 0x11
 3763 0381 5F626600 		.ascii	"_bf\000"
 3764 0385 06       		.byte	0x6
 3765 0386 BB       		.byte	0xbb
 3766 0387 10030000 		.4byte	0x310
 3767 038b 10       		.byte	0x10
 3768 038c 0D       		.uleb128 0xd
 3769 038d BE040000 		.4byte	.LASF59
 3770 0391 06       		.byte	0x6
 3771 0392 BC       		.byte	0xbc
 3772 0393 2C000000 		.4byte	0x2c
 3773 0397 18       		.byte	0x18
 3774 0398 0D       		.uleb128 0xd
 3775 0399 97120000 		.4byte	.LASF60
 3776 039d 06       		.byte	0x6
 3777 039e C3       		.byte	0xc3
 3778 039f 64010000 		.4byte	0x164
 3779 03a3 1C       		.byte	0x1c
 3780 03a4 0D       		.uleb128 0xd
 3781 03a5 9D250000 		.4byte	.LASF61
 3782 03a9 06       		.byte	0x6
 3783 03aa C5       		.byte	0xc5
 3784 03ab C0050000 		.4byte	0x5c0
 3785 03af 20       		.byte	0x20
 3786 03b0 0D       		.uleb128 0xd
 3787 03b1 B00A0000 		.4byte	.LASF62
 3788 03b5 06       		.byte	0x6
 3789 03b6 C7       		.byte	0xc7
 3790 03b7 EF050000 		.4byte	0x5ef
 3791 03bb 24       		.byte	0x24
 3792 03bc 0D       		.uleb128 0xd
ARM GAS  /var/folders/qd/4mxf5pkd0zdf0b9dd1hp39180000gn/T//cc7TiL7h.s 			page 68


 3793 03bd DD150000 		.4byte	.LASF63
 3794 03c1 06       		.byte	0x6
 3795 03c2 CA       		.byte	0xca
 3796 03c3 13060000 		.4byte	0x613
 3797 03c7 28       		.byte	0x28
 3798 03c8 0D       		.uleb128 0xd
 3799 03c9 311B0000 		.4byte	.LASF64
 3800 03cd 06       		.byte	0x6
 3801 03ce CB       		.byte	0xcb
 3802 03cf 2D060000 		.4byte	0x62d
 3803 03d3 2C       		.byte	0x2c
 3804 03d4 11       		.uleb128 0x11
 3805 03d5 5F756200 		.ascii	"_ub\000"
 3806 03d9 06       		.byte	0x6
 3807 03da CE       		.byte	0xce
 3808 03db 10030000 		.4byte	0x310
 3809 03df 30       		.byte	0x30
 3810 03e0 11       		.uleb128 0x11
 3811 03e1 5F757000 		.ascii	"_up\000"
 3812 03e5 06       		.byte	0x6
 3813 03e6 CF       		.byte	0xcf
 3814 03e7 35030000 		.4byte	0x335
 3815 03eb 38       		.byte	0x38
 3816 03ec 11       		.uleb128 0x11
 3817 03ed 5F757200 		.ascii	"_ur\000"
 3818 03f1 06       		.byte	0x6
 3819 03f2 D0       		.byte	0xd0
 3820 03f3 2C000000 		.4byte	0x2c
 3821 03f7 3C       		.byte	0x3c
 3822 03f8 0D       		.uleb128 0xd
 3823 03f9 351D0000 		.4byte	.LASF65
 3824 03fd 06       		.byte	0x6
 3825 03fe D3       		.byte	0xd3
 3826 03ff 33060000 		.4byte	0x633
 3827 0403 40       		.byte	0x40
 3828 0404 0D       		.uleb128 0xd
 3829 0405 EF020000 		.4byte	.LASF66
 3830 0409 06       		.byte	0x6
 3831 040a D4       		.byte	0xd4
 3832 040b 43060000 		.4byte	0x643
 3833 040f 43       		.byte	0x43
 3834 0410 11       		.uleb128 0x11
 3835 0411 5F6C6200 		.ascii	"_lb\000"
 3836 0415 06       		.byte	0x6
 3837 0416 D7       		.byte	0xd7
 3838 0417 10030000 		.4byte	0x310
 3839 041b 44       		.byte	0x44
 3840 041c 0D       		.uleb128 0xd
 3841 041d 231D0000 		.4byte	.LASF67
 3842 0421 06       		.byte	0x6
 3843 0422 DA       		.byte	0xda
 3844 0423 2C000000 		.4byte	0x2c
 3845 0427 4C       		.byte	0x4c
 3846 0428 0D       		.uleb128 0xd
 3847 0429 21170000 		.4byte	.LASF68
 3848 042d 06       		.byte	0x6
 3849 042e DB       		.byte	0xdb
ARM GAS  /var/folders/qd/4mxf5pkd0zdf0b9dd1hp39180000gn/T//cc7TiL7h.s 			page 69


 3850 042f DC000000 		.4byte	0xdc
 3851 0433 50       		.byte	0x50
 3852 0434 0D       		.uleb128 0xd
 3853 0435 47050000 		.4byte	.LASF69
 3854 0439 06       		.byte	0x6
 3855 043a DE       		.byte	0xde
 3856 043b 83040000 		.4byte	0x483
 3857 043f 54       		.byte	0x54
 3858 0440 0D       		.uleb128 0xd
 3859 0441 E9020000 		.4byte	.LASF70
 3860 0445 06       		.byte	0x6
 3861 0446 E2       		.byte	0xe2
 3862 0447 59010000 		.4byte	0x159
 3863 044b 58       		.byte	0x58
 3864 044c 0D       		.uleb128 0xd
 3865 044d 35010000 		.4byte	.LASF71
 3866 0451 06       		.byte	0x6
 3867 0452 E4       		.byte	0xe4
 3868 0453 4E010000 		.4byte	0x14e
 3869 0457 5C       		.byte	0x5c
 3870 0458 0D       		.uleb128 0xd
 3871 0459 36230000 		.4byte	.LASF72
 3872 045d 06       		.byte	0x6
 3873 045e E5       		.byte	0xe5
 3874 045f 2C000000 		.4byte	0x2c
 3875 0463 64       		.byte	0x64
 3876 0464 00       		.byte	0
 3877 0465 15       		.uleb128 0x15
 3878 0466 2C000000 		.4byte	0x2c
 3879 046a 83040000 		.4byte	0x483
 3880 046e 16       		.uleb128 0x16
 3881 046f 83040000 		.4byte	0x483
 3882 0473 16       		.uleb128 0x16
 3883 0474 64010000 		.4byte	0x164
 3884 0478 16       		.uleb128 0x16
 3885 0479 66010000 		.4byte	0x166
 3886 047d 16       		.uleb128 0x16
 3887 047e 2C000000 		.4byte	0x2c
 3888 0482 00       		.byte	0
 3889 0483 05       		.uleb128 0x5
 3890 0484 04       		.byte	0x4
 3891 0485 8E040000 		.4byte	0x48e
 3892 0489 0F       		.uleb128 0xf
 3893 048a 83040000 		.4byte	0x483
 3894 048e 17       		.uleb128 0x17
 3895 048f 09060000 		.4byte	.LASF73
 3896 0493 2804     		.2byte	0x428
 3897 0495 06       		.byte	0x6
 3898 0496 3902     		.2byte	0x239
 3899 0498 C0050000 		.4byte	0x5c0
 3900 049c 18       		.uleb128 0x18
 3901 049d 4F110000 		.4byte	.LASF74
 3902 04a1 06       		.byte	0x6
 3903 04a2 3B02     		.2byte	0x23b
 3904 04a4 2C000000 		.4byte	0x2c
 3905 04a8 00       		.byte	0
 3906 04a9 18       		.uleb128 0x18
ARM GAS  /var/folders/qd/4mxf5pkd0zdf0b9dd1hp39180000gn/T//cc7TiL7h.s 			page 70


 3907 04aa A80C0000 		.4byte	.LASF75
 3908 04ae 06       		.byte	0x6
 3909 04af 4002     		.2byte	0x240
 3910 04b1 9A060000 		.4byte	0x69a
 3911 04b5 04       		.byte	0x4
 3912 04b6 18       		.uleb128 0x18
 3913 04b7 84090000 		.4byte	.LASF76
 3914 04bb 06       		.byte	0x6
 3915 04bc 4002     		.2byte	0x240
 3916 04be 9A060000 		.4byte	0x69a
 3917 04c2 08       		.byte	0x8
 3918 04c3 18       		.uleb128 0x18
 3919 04c4 93080000 		.4byte	.LASF77
 3920 04c8 06       		.byte	0x6
 3921 04c9 4002     		.2byte	0x240
 3922 04cb 9A060000 		.4byte	0x69a
 3923 04cf 0C       		.byte	0xc
 3924 04d0 18       		.uleb128 0x18
 3925 04d1 C4010000 		.4byte	.LASF78
 3926 04d5 06       		.byte	0x6
 3927 04d6 4202     		.2byte	0x242
 3928 04d8 2C000000 		.4byte	0x2c
 3929 04dc 10       		.byte	0x10
 3930 04dd 18       		.uleb128 0x18
 3931 04de 9D190000 		.4byte	.LASF79
 3932 04e2 06       		.byte	0x6
 3933 04e3 4302     		.2byte	0x243
 3934 04e5 7C080000 		.4byte	0x87c
 3935 04e9 14       		.byte	0x14
 3936 04ea 18       		.uleb128 0x18
 3937 04eb B8210000 		.4byte	.LASF80
 3938 04ef 06       		.byte	0x6
 3939 04f0 4602     		.2byte	0x246
 3940 04f2 2C000000 		.4byte	0x2c
 3941 04f6 30       		.byte	0x30
 3942 04f7 18       		.uleb128 0x18
 3943 04f8 77230000 		.4byte	.LASF81
 3944 04fc 06       		.byte	0x6
 3945 04fd 4702     		.2byte	0x247
 3946 04ff 91080000 		.4byte	0x891
 3947 0503 34       		.byte	0x34
 3948 0504 18       		.uleb128 0x18
 3949 0505 1C220000 		.4byte	.LASF82
 3950 0509 06       		.byte	0x6
 3951 050a 4902     		.2byte	0x249
 3952 050c 2C000000 		.4byte	0x2c
 3953 0510 38       		.byte	0x38
 3954 0511 18       		.uleb128 0x18
 3955 0512 781D0000 		.4byte	.LASF83
 3956 0516 06       		.byte	0x6
 3957 0517 4B02     		.2byte	0x24b
 3958 0519 A2080000 		.4byte	0x8a2
 3959 051d 3C       		.byte	0x3c
 3960 051e 18       		.uleb128 0x18
 3961 051f 9B080000 		.4byte	.LASF84
 3962 0523 06       		.byte	0x6
 3963 0524 4E02     		.2byte	0x24e
ARM GAS  /var/folders/qd/4mxf5pkd0zdf0b9dd1hp39180000gn/T//cc7TiL7h.s 			page 71


 3964 0526 D6010000 		.4byte	0x1d6
 3965 052a 40       		.byte	0x40
 3966 052b 18       		.uleb128 0x18
 3967 052c 84080000 		.4byte	.LASF85
 3968 0530 06       		.byte	0x6
 3969 0531 4F02     		.2byte	0x24f
 3970 0533 2C000000 		.4byte	0x2c
 3971 0537 44       		.byte	0x44
 3972 0538 18       		.uleb128 0x18
 3973 0539 3B1F0000 		.4byte	.LASF86
 3974 053d 06       		.byte	0x6
 3975 053e 5002     		.2byte	0x250
 3976 0540 D6010000 		.4byte	0x1d6
 3977 0544 48       		.byte	0x48
 3978 0545 18       		.uleb128 0x18
 3979 0546 E3160000 		.4byte	.LASF87
 3980 054a 06       		.byte	0x6
 3981 054b 5102     		.2byte	0x251
 3982 054d A8080000 		.4byte	0x8a8
 3983 0551 4C       		.byte	0x4c
 3984 0552 18       		.uleb128 0x18
 3985 0553 73020000 		.4byte	.LASF88
 3986 0557 06       		.byte	0x6
 3987 0558 5402     		.2byte	0x254
 3988 055a 2C000000 		.4byte	0x2c
 3989 055e 50       		.byte	0x50
 3990 055f 18       		.uleb128 0x18
 3991 0560 900E0000 		.4byte	.LASF89
 3992 0564 06       		.byte	0x6
 3993 0565 5502     		.2byte	0x255
 3994 0567 66010000 		.4byte	0x166
 3995 056b 54       		.byte	0x54
 3996 056c 18       		.uleb128 0x18
 3997 056d 860F0000 		.4byte	.LASF90
 3998 0571 06       		.byte	0x6
 3999 0572 7802     		.2byte	0x278
 4000 0574 5A080000 		.4byte	0x85a
 4001 0578 58       		.byte	0x58
 4002 0579 19       		.uleb128 0x19
 4003 057a 3E010000 		.4byte	.LASF50
 4004 057e 06       		.byte	0x6
 4005 057f 7C02     		.2byte	0x27c
 4006 0581 F3020000 		.4byte	0x2f3
 4007 0585 4801     		.2byte	0x148
 4008 0587 19       		.uleb128 0x19
 4009 0588 F11B0000 		.4byte	.LASF91
 4010 058c 06       		.byte	0x6
 4011 058d 7D02     		.2byte	0x27d
 4012 058f B5020000 		.4byte	0x2b5
 4013 0593 4C01     		.2byte	0x14c
 4014 0595 19       		.uleb128 0x19
 4015 0596 A3020000 		.4byte	.LASF92
 4016 059a 06       		.byte	0x6
 4017 059b 8102     		.2byte	0x281
 4018 059d B9080000 		.4byte	0x8b9
 4019 05a1 DC02     		.2byte	0x2dc
 4020 05a3 19       		.uleb128 0x19
ARM GAS  /var/folders/qd/4mxf5pkd0zdf0b9dd1hp39180000gn/T//cc7TiL7h.s 			page 72


 4021 05a4 561D0000 		.4byte	.LASF93
 4022 05a8 06       		.byte	0x6
 4023 05a9 8602     		.2byte	0x286
 4024 05ab 5F060000 		.4byte	0x65f
 4025 05af E002     		.2byte	0x2e0
 4026 05b1 19       		.uleb128 0x19
 4027 05b2 50060000 		.4byte	.LASF94
 4028 05b6 06       		.byte	0x6
 4029 05b7 8802     		.2byte	0x288
 4030 05b9 C5080000 		.4byte	0x8c5
 4031 05bd EC02     		.2byte	0x2ec
 4032 05bf 00       		.byte	0
 4033 05c0 05       		.uleb128 0x5
 4034 05c1 04       		.byte	0x4
 4035 05c2 65040000 		.4byte	0x465
 4036 05c6 15       		.uleb128 0x15
 4037 05c7 2C000000 		.4byte	0x2c
 4038 05cb E4050000 		.4byte	0x5e4
 4039 05cf 16       		.uleb128 0x16
 4040 05d0 83040000 		.4byte	0x483
 4041 05d4 16       		.uleb128 0x16
 4042 05d5 64010000 		.4byte	0x164
 4043 05d9 16       		.uleb128 0x16
 4044 05da E4050000 		.4byte	0x5e4
 4045 05de 16       		.uleb128 0x16
 4046 05df 2C000000 		.4byte	0x2c
 4047 05e3 00       		.byte	0
 4048 05e4 05       		.uleb128 0x5
 4049 05e5 04       		.byte	0x4
 4050 05e6 73010000 		.4byte	0x173
 4051 05ea 1A       		.uleb128 0x1a
 4052 05eb E4050000 		.4byte	0x5e4
 4053 05ef 05       		.uleb128 0x5
 4054 05f0 04       		.byte	0x4
 4055 05f1 C6050000 		.4byte	0x5c6
 4056 05f5 15       		.uleb128 0x15
 4057 05f6 E7000000 		.4byte	0xe7
 4058 05fa 13060000 		.4byte	0x613
 4059 05fe 16       		.uleb128 0x16
 4060 05ff 83040000 		.4byte	0x483
 4061 0603 16       		.uleb128 0x16
 4062 0604 64010000 		.4byte	0x164
 4063 0608 16       		.uleb128 0x16
 4064 0609 E7000000 		.4byte	0xe7
 4065 060d 16       		.uleb128 0x16
 4066 060e 2C000000 		.4byte	0x2c
 4067 0612 00       		.byte	0
 4068 0613 05       		.uleb128 0x5
 4069 0614 04       		.byte	0x4
 4070 0615 F5050000 		.4byte	0x5f5
 4071 0619 15       		.uleb128 0x15
 4072 061a 2C000000 		.4byte	0x2c
 4073 061e 2D060000 		.4byte	0x62d
 4074 0622 16       		.uleb128 0x16
 4075 0623 83040000 		.4byte	0x483
 4076 0627 16       		.uleb128 0x16
 4077 0628 64010000 		.4byte	0x164
ARM GAS  /var/folders/qd/4mxf5pkd0zdf0b9dd1hp39180000gn/T//cc7TiL7h.s 			page 73


 4078 062c 00       		.byte	0
 4079 062d 05       		.uleb128 0x5
 4080 062e 04       		.byte	0x4
 4081 062f 19060000 		.4byte	0x619
 4082 0633 0A       		.uleb128 0xa
 4083 0634 65000000 		.4byte	0x65
 4084 0638 43060000 		.4byte	0x643
 4085 063c 0B       		.uleb128 0xb
 4086 063d 3E000000 		.4byte	0x3e
 4087 0641 02       		.byte	0x2
 4088 0642 00       		.byte	0
 4089 0643 0A       		.uleb128 0xa
 4090 0644 65000000 		.4byte	0x65
 4091 0648 53060000 		.4byte	0x653
 4092 064c 0B       		.uleb128 0xb
 4093 064d 3E000000 		.4byte	0x3e
 4094 0651 00       		.byte	0
 4095 0652 00       		.byte	0
 4096 0653 07       		.uleb128 0x7
 4097 0654 7A240000 		.4byte	.LASF95
 4098 0658 06       		.byte	0x6
 4099 0659 1F01     		.2byte	0x11f
 4100 065b 3B030000 		.4byte	0x33b
 4101 065f 1B       		.uleb128 0x1b
 4102 0660 561B0000 		.4byte	.LASF96
 4103 0664 0C       		.byte	0xc
 4104 0665 06       		.byte	0x6
 4105 0666 2301     		.2byte	0x123
 4106 0668 94060000 		.4byte	0x694
 4107 066c 18       		.uleb128 0x18
 4108 066d 46120000 		.4byte	.LASF30
 4109 0671 06       		.byte	0x6
 4110 0672 2501     		.2byte	0x125
 4111 0674 94060000 		.4byte	0x694
 4112 0678 00       		.byte	0
 4113 0679 18       		.uleb128 0x18
 4114 067a B50F0000 		.4byte	.LASF97
 4115 067e 06       		.byte	0x6
 4116 067f 2601     		.2byte	0x126
 4117 0681 2C000000 		.4byte	0x2c
 4118 0685 04       		.byte	0x4
 4119 0686 18       		.uleb128 0x18
 4120 0687 97190000 		.4byte	.LASF98
 4121 068b 06       		.byte	0x6
 4122 068c 2701     		.2byte	0x127
 4123 068e 9A060000 		.4byte	0x69a
 4124 0692 08       		.byte	0x8
 4125 0693 00       		.byte	0
 4126 0694 05       		.uleb128 0x5
 4127 0695 04       		.byte	0x4
 4128 0696 5F060000 		.4byte	0x65f
 4129 069a 05       		.uleb128 0x5
 4130 069b 04       		.byte	0x4
 4131 069c 53060000 		.4byte	0x653
 4132 06a0 1B       		.uleb128 0x1b
 4133 06a1 CD250000 		.4byte	.LASF99
 4134 06a5 0E       		.byte	0xe
ARM GAS  /var/folders/qd/4mxf5pkd0zdf0b9dd1hp39180000gn/T//cc7TiL7h.s 			page 74


 4135 06a6 06       		.byte	0x6
 4136 06a7 3F01     		.2byte	0x13f
 4137 06a9 D5060000 		.4byte	0x6d5
 4138 06ad 18       		.uleb128 0x18
 4139 06ae C8150000 		.4byte	.LASF100
 4140 06b2 06       		.byte	0x6
 4141 06b3 4001     		.2byte	0x140
 4142 06b5 D5060000 		.4byte	0x6d5
 4143 06b9 00       		.byte	0
 4144 06ba 18       		.uleb128 0x18
 4145 06bb A00B0000 		.4byte	.LASF101
 4146 06bf 06       		.byte	0x6
 4147 06c0 4101     		.2byte	0x141
 4148 06c2 D5060000 		.4byte	0x6d5
 4149 06c6 06       		.byte	0x6
 4150 06c7 18       		.uleb128 0x18
 4151 06c8 E5030000 		.4byte	.LASF102
 4152 06cc 06       		.byte	0x6
 4153 06cd 4201     		.2byte	0x142
 4154 06cf 89000000 		.4byte	0x89
 4155 06d3 0C       		.byte	0xc
 4156 06d4 00       		.byte	0
 4157 06d5 0A       		.uleb128 0xa
 4158 06d6 89000000 		.4byte	0x89
 4159 06da E5060000 		.4byte	0x6e5
 4160 06de 0B       		.uleb128 0xb
 4161 06df 3E000000 		.4byte	0x3e
 4162 06e3 02       		.byte	0x2
 4163 06e4 00       		.byte	0
 4164 06e5 1C       		.uleb128 0x1c
 4165 06e6 D0       		.byte	0xd0
 4166 06e7 06       		.byte	0x6
 4167 06e8 5902     		.2byte	0x259
 4168 06ea E6070000 		.4byte	0x7e6
 4169 06ee 18       		.uleb128 0x18
 4170 06ef EE070000 		.4byte	.LASF103
 4171 06f3 06       		.byte	0x6
 4172 06f4 5B02     		.2byte	0x25b
 4173 06f6 3E000000 		.4byte	0x3e
 4174 06fa 00       		.byte	0
 4175 06fb 18       		.uleb128 0x18
 4176 06fc 70150000 		.4byte	.LASF104
 4177 0700 06       		.byte	0x6
 4178 0701 5C02     		.2byte	0x25c
 4179 0703 66010000 		.4byte	0x166
 4180 0707 04       		.byte	0x4
 4181 0708 18       		.uleb128 0x18
 4182 0709 3E180000 		.4byte	.LASF105
 4183 070d 06       		.byte	0x6
 4184 070e 5D02     		.2byte	0x25d
 4185 0710 E6070000 		.4byte	0x7e6
 4186 0714 08       		.byte	0x8
 4187 0715 18       		.uleb128 0x18
 4188 0716 D70D0000 		.4byte	.LASF106
 4189 071a 06       		.byte	0x6
 4190 071b 5E02     		.2byte	0x25e
 4191 071d EC010000 		.4byte	0x1ec
ARM GAS  /var/folders/qd/4mxf5pkd0zdf0b9dd1hp39180000gn/T//cc7TiL7h.s 			page 75


 4192 0721 24       		.byte	0x24
 4193 0722 18       		.uleb128 0x18
 4194 0723 BD200000 		.4byte	.LASF107
 4195 0727 06       		.byte	0x6
 4196 0728 5F02     		.2byte	0x25f
 4197 072a 2C000000 		.4byte	0x2c
 4198 072e 48       		.byte	0x48
 4199 072f 18       		.uleb128 0x18
 4200 0730 C8190000 		.4byte	.LASF108
 4201 0734 06       		.byte	0x6
 4202 0735 6002     		.2byte	0x260
 4203 0737 BF000000 		.4byte	0xbf
 4204 073b 50       		.byte	0x50
 4205 073c 18       		.uleb128 0x18
 4206 073d 15250000 		.4byte	.LASF109
 4207 0741 06       		.byte	0x6
 4208 0742 6102     		.2byte	0x261
 4209 0744 A0060000 		.4byte	0x6a0
 4210 0748 58       		.byte	0x58
 4211 0749 18       		.uleb128 0x18
 4212 074a 491D0000 		.4byte	.LASF110
 4213 074e 06       		.byte	0x6
 4214 074f 6202     		.2byte	0x262
 4215 0751 4E010000 		.4byte	0x14e
 4216 0755 68       		.byte	0x68
 4217 0756 18       		.uleb128 0x18
 4218 0757 8D060000 		.4byte	.LASF111
 4219 075b 06       		.byte	0x6
 4220 075c 6302     		.2byte	0x263
 4221 075e 4E010000 		.4byte	0x14e
 4222 0762 70       		.byte	0x70
 4223 0763 18       		.uleb128 0x18
 4224 0764 2E190000 		.4byte	.LASF112
 4225 0768 06       		.byte	0x6
 4226 0769 6402     		.2byte	0x264
 4227 076b 4E010000 		.4byte	0x14e
 4228 076f 78       		.byte	0x78
 4229 0770 18       		.uleb128 0x18
 4230 0771 A5170000 		.4byte	.LASF113
 4231 0775 06       		.byte	0x6
 4232 0776 6502     		.2byte	0x265
 4233 0778 F6070000 		.4byte	0x7f6
 4234 077c 80       		.byte	0x80
 4235 077d 18       		.uleb128 0x18
 4236 077e 75120000 		.4byte	.LASF114
 4237 0782 06       		.byte	0x6
 4238 0783 6602     		.2byte	0x266
 4239 0785 06080000 		.4byte	0x806
 4240 0789 88       		.byte	0x88
 4241 078a 18       		.uleb128 0x18
 4242 078b 4F1C0000 		.4byte	.LASF115
 4243 078f 06       		.byte	0x6
 4244 0790 6702     		.2byte	0x267
 4245 0792 2C000000 		.4byte	0x2c
 4246 0796 A0       		.byte	0xa0
 4247 0797 18       		.uleb128 0x18
 4248 0798 480C0000 		.4byte	.LASF116
ARM GAS  /var/folders/qd/4mxf5pkd0zdf0b9dd1hp39180000gn/T//cc7TiL7h.s 			page 76


 4249 079c 06       		.byte	0x6
 4250 079d 6802     		.2byte	0x268
 4251 079f 4E010000 		.4byte	0x14e
 4252 07a3 A4       		.byte	0xa4
 4253 07a4 18       		.uleb128 0x18
 4254 07a5 2C0F0000 		.4byte	.LASF117
 4255 07a9 06       		.byte	0x6
 4256 07aa 6902     		.2byte	0x269
 4257 07ac 4E010000 		.4byte	0x14e
 4258 07b0 AC       		.byte	0xac
 4259 07b1 18       		.uleb128 0x18
 4260 07b2 ED090000 		.4byte	.LASF118
 4261 07b6 06       		.byte	0x6
 4262 07b7 6A02     		.2byte	0x26a
 4263 07b9 4E010000 		.4byte	0x14e
 4264 07bd B4       		.byte	0xb4
 4265 07be 18       		.uleb128 0x18
 4266 07bf 28140000 		.4byte	.LASF119
 4267 07c3 06       		.byte	0x6
 4268 07c4 6B02     		.2byte	0x26b
 4269 07c6 4E010000 		.4byte	0x14e
 4270 07ca BC       		.byte	0xbc
 4271 07cb 18       		.uleb128 0x18
 4272 07cc 7D180000 		.4byte	.LASF120
 4273 07d0 06       		.byte	0x6
 4274 07d1 6C02     		.2byte	0x26c
 4275 07d3 4E010000 		.4byte	0x14e
 4276 07d7 C4       		.byte	0xc4
 4277 07d8 18       		.uleb128 0x18
 4278 07d9 601E0000 		.4byte	.LASF121
 4279 07dd 06       		.byte	0x6
 4280 07de 6D02     		.2byte	0x26d
 4281 07e0 2C000000 		.4byte	0x2c
 4282 07e4 CC       		.byte	0xcc
 4283 07e5 00       		.byte	0
 4284 07e6 0A       		.uleb128 0xa
 4285 07e7 6C010000 		.4byte	0x16c
 4286 07eb F6070000 		.4byte	0x7f6
 4287 07ef 0B       		.uleb128 0xb
 4288 07f0 3E000000 		.4byte	0x3e
 4289 07f4 19       		.byte	0x19
 4290 07f5 00       		.byte	0
 4291 07f6 0A       		.uleb128 0xa
 4292 07f7 6C010000 		.4byte	0x16c
 4293 07fb 06080000 		.4byte	0x806
 4294 07ff 0B       		.uleb128 0xb
 4295 0800 3E000000 		.4byte	0x3e
 4296 0804 07       		.byte	0x7
 4297 0805 00       		.byte	0
 4298 0806 0A       		.uleb128 0xa
 4299 0807 6C010000 		.4byte	0x16c
 4300 080b 16080000 		.4byte	0x816
 4301 080f 0B       		.uleb128 0xb
 4302 0810 3E000000 		.4byte	0x3e
 4303 0814 17       		.byte	0x17
 4304 0815 00       		.byte	0
 4305 0816 1C       		.uleb128 0x1c
ARM GAS  /var/folders/qd/4mxf5pkd0zdf0b9dd1hp39180000gn/T//cc7TiL7h.s 			page 77


 4306 0817 F0       		.byte	0xf0
 4307 0818 06       		.byte	0x6
 4308 0819 7202     		.2byte	0x272
 4309 081b 3A080000 		.4byte	0x83a
 4310 081f 18       		.uleb128 0x18
 4311 0820 BB190000 		.4byte	.LASF122
 4312 0824 06       		.byte	0x6
 4313 0825 7502     		.2byte	0x275
 4314 0827 3A080000 		.4byte	0x83a
 4315 082b 00       		.byte	0
 4316 082c 18       		.uleb128 0x18
 4317 082d AF0C0000 		.4byte	.LASF123
 4318 0831 06       		.byte	0x6
 4319 0832 7602     		.2byte	0x276
 4320 0834 4A080000 		.4byte	0x84a
 4321 0838 78       		.byte	0x78
 4322 0839 00       		.byte	0
 4323 083a 0A       		.uleb128 0xa
 4324 083b 35030000 		.4byte	0x335
 4325 083f 4A080000 		.4byte	0x84a
 4326 0843 0B       		.uleb128 0xb
 4327 0844 3E000000 		.4byte	0x3e
 4328 0848 1D       		.byte	0x1d
 4329 0849 00       		.byte	0
 4330 084a 0A       		.uleb128 0xa
 4331 084b 3E000000 		.4byte	0x3e
 4332 084f 5A080000 		.4byte	0x85a
 4333 0853 0B       		.uleb128 0xb
 4334 0854 3E000000 		.4byte	0x3e
 4335 0858 1D       		.byte	0x1d
 4336 0859 00       		.byte	0
 4337 085a 1D       		.uleb128 0x1d
 4338 085b F0       		.byte	0xf0
 4339 085c 06       		.byte	0x6
 4340 085d 5702     		.2byte	0x257
 4341 085f 7C080000 		.4byte	0x87c
 4342 0863 1E       		.uleb128 0x1e
 4343 0864 09060000 		.4byte	.LASF73
 4344 0868 06       		.byte	0x6
 4345 0869 6E02     		.2byte	0x26e
 4346 086b E5060000 		.4byte	0x6e5
 4347 086f 1E       		.uleb128 0x1e
 4348 0870 FE020000 		.4byte	.LASF124
 4349 0874 06       		.byte	0x6
 4350 0875 7702     		.2byte	0x277
 4351 0877 16080000 		.4byte	0x816
 4352 087b 00       		.byte	0
 4353 087c 0A       		.uleb128 0xa
 4354 087d 6C010000 		.4byte	0x16c
 4355 0881 8C080000 		.4byte	0x88c
 4356 0885 0B       		.uleb128 0xb
 4357 0886 3E000000 		.4byte	0x3e
 4358 088a 18       		.byte	0x18
 4359 088b 00       		.byte	0
 4360 088c 06       		.uleb128 0x6
 4361 088d 5E1D0000 		.4byte	.LASF126
 4362 0891 05       		.uleb128 0x5
ARM GAS  /var/folders/qd/4mxf5pkd0zdf0b9dd1hp39180000gn/T//cc7TiL7h.s 			page 78


 4363 0892 04       		.byte	0x4
 4364 0893 8C080000 		.4byte	0x88c
 4365 0897 1F       		.uleb128 0x1f
 4366 0898 A2080000 		.4byte	0x8a2
 4367 089c 16       		.uleb128 0x16
 4368 089d 83040000 		.4byte	0x483
 4369 08a1 00       		.byte	0
 4370 08a2 05       		.uleb128 0x5
 4371 08a3 04       		.byte	0x4
 4372 08a4 97080000 		.4byte	0x897
 4373 08a8 05       		.uleb128 0x5
 4374 08a9 04       		.byte	0x4
 4375 08aa D6010000 		.4byte	0x1d6
 4376 08ae 1F       		.uleb128 0x1f
 4377 08af B9080000 		.4byte	0x8b9
 4378 08b3 16       		.uleb128 0x16
 4379 08b4 2C000000 		.4byte	0x2c
 4380 08b8 00       		.byte	0
 4381 08b9 05       		.uleb128 0x5
 4382 08ba 04       		.byte	0x4
 4383 08bb BF080000 		.4byte	0x8bf
 4384 08bf 05       		.uleb128 0x5
 4385 08c0 04       		.byte	0x4
 4386 08c1 AE080000 		.4byte	0x8ae
 4387 08c5 0A       		.uleb128 0xa
 4388 08c6 53060000 		.4byte	0x653
 4389 08ca D5080000 		.4byte	0x8d5
 4390 08ce 0B       		.uleb128 0xb
 4391 08cf 3E000000 		.4byte	0x3e
 4392 08d3 02       		.byte	0x2
 4393 08d4 00       		.byte	0
 4394 08d5 20       		.uleb128 0x20
 4395 08d6 FB1C0000 		.4byte	.LASF127
 4396 08da 06       		.byte	0x6
 4397 08db 0703     		.2byte	0x307
 4398 08dd 83040000 		.4byte	0x483
 4399 08e1 20       		.uleb128 0x20
 4400 08e2 95210000 		.4byte	.LASF128
 4401 08e6 06       		.byte	0x6
 4402 08e7 0803     		.2byte	0x308
 4403 08e9 89040000 		.4byte	0x489
 4404 08ed 02       		.uleb128 0x2
 4405 08ee 04       		.byte	0x4
 4406 08ef 04       		.byte	0x4
 4407 08f0 0B0A0000 		.4byte	.LASF129
 4408 08f4 0F       		.uleb128 0xf
 4409 08f5 25000000 		.4byte	0x25
 4410 08f9 21       		.uleb128 0x21
 4411 08fa C9180000 		.4byte	.LASF920
 4412 08fe 05       		.byte	0x5
 4413 08ff 01       		.byte	0x1
 4414 0900 53000000 		.4byte	0x53
 4415 0904 07       		.byte	0x7
 4416 0905 8202     		.2byte	0x282
 4417 0907 24090000 		.4byte	0x924
 4418 090b 22       		.uleb128 0x22
 4419 090c 81160000 		.4byte	.LASF130
ARM GAS  /var/folders/qd/4mxf5pkd0zdf0b9dd1hp39180000gn/T//cc7TiL7h.s 			page 79


 4420 0910 7F       		.sleb128 -1
 4421 0911 23       		.uleb128 0x23
 4422 0912 95020000 		.4byte	.LASF131
 4423 0916 00       		.byte	0
 4424 0917 23       		.uleb128 0x23
 4425 0918 B7000000 		.4byte	.LASF132
 4426 091c 01       		.byte	0x1
 4427 091d 23       		.uleb128 0x23
 4428 091e 39220000 		.4byte	.LASF133
 4429 0922 02       		.byte	0x2
 4430 0923 00       		.byte	0
 4431 0924 20       		.uleb128 0x20
 4432 0925 1E090000 		.4byte	.LASF134
 4433 0929 07       		.byte	0x7
 4434 092a 8D02     		.2byte	0x28d
 4435 092c F9080000 		.4byte	0x8f9
 4436 0930 0C       		.uleb128 0xc
 4437 0931 10       		.byte	0x10
 4438 0932 08       		.byte	0x8
 4439 0933 0F       		.byte	0xf
 4440 0934 51090000 		.4byte	0x951
 4441 0938 0D       		.uleb128 0xd
 4442 0939 721F0000 		.4byte	.LASF135
 4443 093d 08       		.byte	0x8
 4444 093e 10       		.byte	0x10
 4445 093f 25000000 		.4byte	0x25
 4446 0943 00       		.byte	0
 4447 0944 0D       		.uleb128 0xd
 4448 0945 5A0D0000 		.4byte	.LASF136
 4449 0949 08       		.byte	0x8
 4450 094a 11       		.byte	0x11
 4451 094b 25000000 		.4byte	0x25
 4452 094f 08       		.byte	0x8
 4453 0950 00       		.byte	0
 4454 0951 04       		.uleb128 0x4
 4455 0952 A30A0000 		.4byte	.LASF137
 4456 0956 08       		.byte	0x8
 4457 0957 12       		.byte	0x12
 4458 0958 30090000 		.4byte	0x930
 4459 095c 0F       		.uleb128 0xf
 4460 095d 51090000 		.4byte	0x951
 4461 0961 0C       		.uleb128 0xc
 4462 0962 10       		.byte	0x10
 4463 0963 09       		.byte	0x9
 4464 0964 19       		.byte	0x19
 4465 0965 8A090000 		.4byte	0x98a
 4466 0969 11       		.uleb128 0x11
 4467 096a 7800     		.ascii	"x\000"
 4468 096c 09       		.byte	0x9
 4469 096d 1A       		.byte	0x1a
 4470 096e 2C000000 		.4byte	0x2c
 4471 0972 00       		.byte	0
 4472 0973 11       		.uleb128 0x11
 4473 0974 7900     		.ascii	"y\000"
 4474 0976 09       		.byte	0x9
 4475 0977 1B       		.byte	0x1b
 4476 0978 2C000000 		.4byte	0x2c
ARM GAS  /var/folders/qd/4mxf5pkd0zdf0b9dd1hp39180000gn/T//cc7TiL7h.s 			page 80


 4477 097c 04       		.byte	0x4
 4478 097d 0D       		.uleb128 0xd
 4479 097e 45140000 		.4byte	.LASF138
 4480 0982 09       		.byte	0x9
 4481 0983 1C       		.byte	0x1c
 4482 0984 25000000 		.4byte	0x25
 4483 0988 08       		.byte	0x8
 4484 0989 00       		.byte	0
 4485 098a 04       		.uleb128 0x4
 4486 098b 72140000 		.4byte	.LASF139
 4487 098f 09       		.byte	0x9
 4488 0990 1D       		.byte	0x1d
 4489 0991 61090000 		.4byte	0x961
 4490 0995 0F       		.uleb128 0xf
 4491 0996 8A090000 		.4byte	0x98a
 4492 099a 0C       		.uleb128 0xc
 4493 099b 08       		.byte	0x8
 4494 099c 09       		.byte	0x9
 4495 099d 1F       		.byte	0x1f
 4496 099e B7090000 		.4byte	0x9b7
 4497 09a2 11       		.uleb128 0x11
 4498 09a3 7800     		.ascii	"x\000"
 4499 09a5 09       		.byte	0x9
 4500 09a6 20       		.byte	0x20
 4501 09a7 2C000000 		.4byte	0x2c
 4502 09ab 00       		.byte	0
 4503 09ac 11       		.uleb128 0x11
 4504 09ad 7900     		.ascii	"y\000"
 4505 09af 09       		.byte	0x9
 4506 09b0 21       		.byte	0x21
 4507 09b1 2C000000 		.4byte	0x2c
 4508 09b5 04       		.byte	0x4
 4509 09b6 00       		.byte	0
 4510 09b7 04       		.uleb128 0x4
 4511 09b8 04120000 		.4byte	.LASF140
 4512 09bc 09       		.byte	0x9
 4513 09bd 22       		.byte	0x22
 4514 09be 9A090000 		.4byte	0x99a
 4515 09c2 0C       		.uleb128 0xc
 4516 09c3 18       		.byte	0x18
 4517 09c4 09       		.byte	0x9
 4518 09c5 24       		.byte	0x24
 4519 09c6 E3090000 		.4byte	0x9e3
 4520 09ca 0D       		.uleb128 0xd
 4521 09cb 681A0000 		.4byte	.LASF141
 4522 09cf 09       		.byte	0x9
 4523 09d0 25       		.byte	0x25
 4524 09d1 8A090000 		.4byte	0x98a
 4525 09d5 00       		.byte	0
 4526 09d6 0D       		.uleb128 0xd
 4527 09d7 5B0C0000 		.4byte	.LASF142
 4528 09db 09       		.byte	0x9
 4529 09dc 26       		.byte	0x26
 4530 09dd 2C000000 		.4byte	0x2c
 4531 09e1 10       		.byte	0x10
 4532 09e2 00       		.byte	0
 4533 09e3 04       		.uleb128 0x4
ARM GAS  /var/folders/qd/4mxf5pkd0zdf0b9dd1hp39180000gn/T//cc7TiL7h.s 			page 81


 4534 09e4 4C030000 		.4byte	.LASF143
 4535 09e8 09       		.byte	0x9
 4536 09e9 27       		.byte	0x27
 4537 09ea C2090000 		.4byte	0x9c2
 4538 09ee 0C       		.uleb128 0xc
 4539 09ef 18       		.byte	0x18
 4540 09f0 09       		.byte	0x9
 4541 09f1 29       		.byte	0x29
 4542 09f2 0F0A0000 		.4byte	0xa0f
 4543 09f6 0D       		.uleb128 0xd
 4544 09f7 2E1A0000 		.4byte	.LASF144
 4545 09fb 09       		.byte	0x9
 4546 09fc 2A       		.byte	0x2a
 4547 09fd 2C000000 		.4byte	0x2c
 4548 0a01 00       		.byte	0
 4549 0a02 0D       		.uleb128 0xd
 4550 0a03 CD060000 		.4byte	.LASF145
 4551 0a07 09       		.byte	0x9
 4552 0a08 2B       		.byte	0x2b
 4553 0a09 0F0A0000 		.4byte	0xa0f
 4554 0a0d 08       		.byte	0x8
 4555 0a0e 00       		.byte	0
 4556 0a0f 0A       		.uleb128 0xa
 4557 0a10 25000000 		.4byte	0x25
 4558 0a14 1F0A0000 		.4byte	0xa1f
 4559 0a18 0B       		.uleb128 0xb
 4560 0a19 3E000000 		.4byte	0x3e
 4561 0a1d 01       		.byte	0x1
 4562 0a1e 00       		.byte	0
 4563 0a1f 04       		.uleb128 0x4
 4564 0a20 C0020000 		.4byte	.LASF146
 4565 0a24 09       		.byte	0x9
 4566 0a25 2C       		.byte	0x2c
 4567 0a26 EE090000 		.4byte	0x9ee
 4568 0a2a 0C       		.uleb128 0xc
 4569 0a2b 3C       		.byte	0x3c
 4570 0a2c 09       		.byte	0x9
 4571 0a2d 2F       		.byte	0x2f
 4572 0a2e 6F0A0000 		.4byte	0xa6f
 4573 0a32 0D       		.uleb128 0xd
 4574 0a33 AB1B0000 		.4byte	.LASF147
 4575 0a37 09       		.byte	0x9
 4576 0a38 30       		.byte	0x30
 4577 0a39 6F0A0000 		.4byte	0xa6f
 4578 0a3d 00       		.byte	0
 4579 0a3e 0D       		.uleb128 0xd
 4580 0a3f 61210000 		.4byte	.LASF148
 4581 0a43 09       		.byte	0x9
 4582 0a44 31       		.byte	0x31
 4583 0a45 2C000000 		.4byte	0x2c
 4584 0a49 04       		.byte	0x4
 4585 0a4a 0D       		.uleb128 0xd
 4586 0a4b 57170000 		.4byte	.LASF149
 4587 0a4f 09       		.byte	0x9
 4588 0a50 32       		.byte	0x32
 4589 0a51 2C000000 		.4byte	0x2c
 4590 0a55 08       		.byte	0x8
ARM GAS  /var/folders/qd/4mxf5pkd0zdf0b9dd1hp39180000gn/T//cc7TiL7h.s 			page 82


 4591 0a56 0D       		.uleb128 0xd
 4592 0a57 36130000 		.4byte	.LASF150
 4593 0a5b 09       		.byte	0x9
 4594 0a5c 33       		.byte	0x33
 4595 0a5d 860A0000 		.4byte	0xa86
 4596 0a61 0C       		.byte	0xc
 4597 0a62 0D       		.uleb128 0xd
 4598 0a63 FC080000 		.4byte	.LASF151
 4599 0a67 09       		.byte	0x9
 4600 0a68 34       		.byte	0x34
 4601 0a69 860A0000 		.4byte	0xa86
 4602 0a6d 24       		.byte	0x24
 4603 0a6e 00       		.byte	0
 4604 0a6f 0A       		.uleb128 0xa
 4605 0a70 7F0A0000 		.4byte	0xa7f
 4606 0a74 7F0A0000 		.4byte	0xa7f
 4607 0a78 0B       		.uleb128 0xb
 4608 0a79 3E000000 		.4byte	0x3e
 4609 0a7d 03       		.byte	0x3
 4610 0a7e 00       		.byte	0
 4611 0a7f 02       		.uleb128 0x2
 4612 0a80 01       		.byte	0x1
 4613 0a81 02       		.byte	0x2
 4614 0a82 20010000 		.4byte	.LASF152
 4615 0a86 0A       		.uleb128 0xa
 4616 0a87 B7090000 		.4byte	0x9b7
 4617 0a8b 960A0000 		.4byte	0xa96
 4618 0a8f 0B       		.uleb128 0xb
 4619 0a90 3E000000 		.4byte	0x3e
 4620 0a94 02       		.byte	0x2
 4621 0a95 00       		.byte	0
 4622 0a96 04       		.uleb128 0x4
 4623 0a97 1D040000 		.4byte	.LASF153
 4624 0a9b 09       		.byte	0x9
 4625 0a9c 35       		.byte	0x35
 4626 0a9d 2A0A0000 		.4byte	0xa2a
 4627 0aa1 04       		.uleb128 0x4
 4628 0aa2 F70D0000 		.4byte	.LASF154
 4629 0aa6 0A       		.byte	0xa
 4630 0aa7 18       		.byte	0x18
 4631 0aa8 5A000000 		.4byte	0x5a
 4632 0aac 0F       		.uleb128 0xf
 4633 0aad A10A0000 		.4byte	0xaa1
 4634 0ab1 04       		.uleb128 0x4
 4635 0ab2 F5150000 		.4byte	.LASF155
 4636 0ab6 0A       		.byte	0xa
 4637 0ab7 20       		.byte	0x20
 4638 0ab8 6C000000 		.4byte	0x6c
 4639 0abc 04       		.uleb128 0x4
 4640 0abd F8010000 		.4byte	.LASF156
 4641 0ac1 0A       		.byte	0xa
 4642 0ac2 24       		.byte	0x24
 4643 0ac3 7E000000 		.4byte	0x7e
 4644 0ac7 04       		.uleb128 0x4
 4645 0ac8 B7030000 		.4byte	.LASF157
 4646 0acc 0A       		.byte	0xa
 4647 0acd 2C       		.byte	0x2c
ARM GAS  /var/folders/qd/4mxf5pkd0zdf0b9dd1hp39180000gn/T//cc7TiL7h.s 			page 83


 4648 0ace 90000000 		.4byte	0x90
 4649 0ad2 1A       		.uleb128 0x1a
 4650 0ad3 C70A0000 		.4byte	0xac7
 4651 0ad7 04       		.uleb128 0x4
 4652 0ad8 FC190000 		.4byte	.LASF158
 4653 0adc 0A       		.byte	0xa
 4654 0add 30       		.byte	0x30
 4655 0ade A2000000 		.4byte	0xa2
 4656 0ae2 1A       		.uleb128 0x1a
 4657 0ae3 D70A0000 		.4byte	0xad7
 4658 0ae7 0F       		.uleb128 0xf
 4659 0ae8 E20A0000 		.4byte	0xae2
 4660 0aec 04       		.uleb128 0x4
 4661 0aed E70A0000 		.4byte	.LASF159
 4662 0af1 0A       		.byte	0xa
 4663 0af2 3C       		.byte	0x3c
 4664 0af3 B4000000 		.4byte	0xb4
 4665 0af7 04       		.uleb128 0x4
 4666 0af8 0B0D0000 		.4byte	.LASF160
 4667 0afc 0B       		.byte	0xb
 4668 0afd 45       		.byte	0x45
 4669 0afe D70A0000 		.4byte	0xad7
 4670 0b02 04       		.uleb128 0x4
 4671 0b03 1D060000 		.4byte	.LASF161
 4672 0b07 0B       		.byte	0xb
 4673 0b08 46       		.byte	0x46
 4674 0b09 EC0A0000 		.4byte	0xaec
 4675 0b0d 04       		.uleb128 0x4
 4676 0b0e BC130000 		.4byte	.LASF162
 4677 0b12 0B       		.byte	0xb
 4678 0b13 48       		.byte	0x48
 4679 0b14 A10A0000 		.4byte	0xaa1
 4680 0b18 04       		.uleb128 0x4
 4681 0b19 8C210000 		.4byte	.LASF163
 4682 0b1d 0B       		.byte	0xb
 4683 0b1e 49       		.byte	0x49
 4684 0b1f A10A0000 		.4byte	0xaa1
 4685 0b23 04       		.uleb128 0x4
 4686 0b24 50130000 		.4byte	.LASF164
 4687 0b28 0B       		.byte	0xb
 4688 0b29 4A       		.byte	0x4a
 4689 0b2a A10A0000 		.4byte	0xaa1
 4690 0b2e 04       		.uleb128 0x4
 4691 0b2f 66150000 		.4byte	.LASF165
 4692 0b33 0B       		.byte	0xb
 4693 0b34 4B       		.byte	0x4b
 4694 0b35 A10A0000 		.4byte	0xaa1
 4695 0b39 04       		.uleb128 0x4
 4696 0b3a D6060000 		.4byte	.LASF166
 4697 0b3e 0B       		.byte	0xb
 4698 0b3f 4C       		.byte	0x4c
 4699 0b40 D70A0000 		.4byte	0xad7
 4700 0b44 04       		.uleb128 0x4
 4701 0b45 65000000 		.4byte	.LASF167
 4702 0b49 0B       		.byte	0xb
 4703 0b4a 4D       		.byte	0x4d
 4704 0b4b C70A0000 		.4byte	0xac7
ARM GAS  /var/folders/qd/4mxf5pkd0zdf0b9dd1hp39180000gn/T//cc7TiL7h.s 			page 84


 4705 0b4f 04       		.uleb128 0x4
 4706 0b50 561A0000 		.4byte	.LASF168
 4707 0b54 0B       		.byte	0xb
 4708 0b55 4F       		.byte	0x4f
 4709 0b56 D70A0000 		.4byte	0xad7
 4710 0b5a 04       		.uleb128 0x4
 4711 0b5b 7F230000 		.4byte	.LASF169
 4712 0b5f 0B       		.byte	0xb
 4713 0b60 50       		.byte	0x50
 4714 0b61 D70A0000 		.4byte	0xad7
 4715 0b65 04       		.uleb128 0x4
 4716 0b66 971C0000 		.4byte	.LASF170
 4717 0b6a 0B       		.byte	0xb
 4718 0b6b 51       		.byte	0x51
 4719 0b6c C70A0000 		.4byte	0xac7
 4720 0b70 04       		.uleb128 0x4
 4721 0b71 61160000 		.4byte	.LASF171
 4722 0b75 0B       		.byte	0xb
 4723 0b76 52       		.byte	0x52
 4724 0b77 D70A0000 		.4byte	0xad7
 4725 0b7b 04       		.uleb128 0x4
 4726 0b7c CB030000 		.4byte	.LASF172
 4727 0b80 0C       		.byte	0xc
 4728 0b81 33       		.byte	0x33
 4729 0b82 D70A0000 		.4byte	0xad7
 4730 0b86 1A       		.uleb128 0x1a
 4731 0b87 7B0B0000 		.4byte	0xb7b
 4732 0b8b 04       		.uleb128 0x4
 4733 0b8c 5A030000 		.4byte	.LASF173
 4734 0b90 0C       		.byte	0xc
 4735 0b91 3F       		.byte	0x3f
 4736 0b92 960B0000 		.4byte	0xb96
 4737 0b96 10       		.uleb128 0x10
 4738 0b97 BF090000 		.4byte	.LASF174
 4739 0b9b 68       		.byte	0x68
 4740 0b9c 0D       		.byte	0xd
 4741 0b9d C2       		.byte	0xc2
 4742 0b9e B40C0000 		.4byte	0xcb4
 4743 0ba2 0D       		.uleb128 0xd
 4744 0ba3 E6120000 		.4byte	.LASF175
 4745 0ba7 0D       		.byte	0xd
 4746 0ba8 C3       		.byte	0xc3
 4747 0ba9 BF0C0000 		.4byte	0xcbf
 4748 0bad 00       		.byte	0
 4749 0bae 0D       		.uleb128 0xd
 4750 0baf 220E0000 		.4byte	.LASF176
 4751 0bb3 0D       		.byte	0xd
 4752 0bb4 C5       		.byte	0xc5
 4753 0bb5 BF0C0000 		.4byte	0xcbf
 4754 0bb9 04       		.byte	0x4
 4755 0bba 0D       		.uleb128 0xd
 4756 0bbb CF000000 		.4byte	.LASF177
 4757 0bbf 0D       		.byte	0xd
 4758 0bc0 C7       		.byte	0xc7
 4759 0bc1 390B0000 		.4byte	0xb39
 4760 0bc5 08       		.byte	0x8
 4761 0bc6 0D       		.uleb128 0xd
ARM GAS  /var/folders/qd/4mxf5pkd0zdf0b9dd1hp39180000gn/T//cc7TiL7h.s 			page 85


 4762 0bc7 840A0000 		.4byte	.LASF178
 4763 0bcb 0D       		.byte	0xd
 4764 0bcc C8       		.byte	0xc8
 4765 0bcd C7160000 		.4byte	0x16c7
 4766 0bd1 0C       		.byte	0xc
 4767 0bd2 0D       		.uleb128 0xd
 4768 0bd3 AD020000 		.4byte	.LASF179
 4769 0bd7 0D       		.byte	0xd
 4770 0bd8 CA       		.byte	0xca
 4771 0bd9 BF0C0000 		.4byte	0xcbf
 4772 0bdd 10       		.byte	0x10
 4773 0bde 0D       		.uleb128 0xd
 4774 0bdf E5230000 		.4byte	.LASF180
 4775 0be3 0D       		.byte	0xd
 4776 0be4 CB       		.byte	0xcb
 4777 0be5 BF0C0000 		.4byte	0xcbf
 4778 0be9 14       		.byte	0x14
 4779 0bea 0D       		.uleb128 0xd
 4780 0beb 15220000 		.4byte	.LASF181
 4781 0bef 0D       		.byte	0xd
 4782 0bf0 D2       		.byte	0xd2
 4783 0bf1 E4050000 		.4byte	0x5e4
 4784 0bf5 18       		.byte	0x18
 4785 0bf6 0D       		.uleb128 0xd
 4786 0bf7 8C1C0000 		.4byte	.LASF182
 4787 0bfb 0D       		.byte	0xd
 4788 0bfc D8       		.byte	0xd8
 4789 0bfd 3D1A0000 		.4byte	0x1a3d
 4790 0c01 1C       		.byte	0x1c
 4791 0c02 0D       		.uleb128 0xd
 4792 0c03 23260000 		.4byte	.LASF183
 4793 0c07 0D       		.byte	0xd
 4794 0c08 DD       		.byte	0xdd
 4795 0c09 180B0000 		.4byte	0xb18
 4796 0c0d 20       		.byte	0x20
 4797 0c0e 0D       		.uleb128 0xd
 4798 0c0f 32210000 		.4byte	.LASF184
 4799 0c13 0D       		.byte	0xd
 4800 0c14 E1       		.byte	0xe1
 4801 0c15 0D0B0000 		.4byte	0xb0d
 4802 0c19 21       		.byte	0x21
 4803 0c1a 0D       		.uleb128 0xd
 4804 0c1b E1180000 		.4byte	.LASF185
 4805 0c1f 0D       		.byte	0xd
 4806 0c20 E6       		.byte	0xe6
 4807 0c21 230B0000 		.4byte	0xb23
 4808 0c25 22       		.byte	0x22
 4809 0c26 0D       		.uleb128 0xd
 4810 0c27 4D160000 		.4byte	.LASF186
 4811 0c2b 0D       		.byte	0xd
 4812 0c2c EC       		.byte	0xec
 4813 0c2d 2E0B0000 		.4byte	0xb2e
 4814 0c31 23       		.byte	0x23
 4815 0c32 0D       		.uleb128 0xd
 4816 0c33 DA180000 		.4byte	.LASF187
 4817 0c37 0D       		.byte	0xd
 4818 0c38 F3       		.byte	0xf3
ARM GAS  /var/folders/qd/4mxf5pkd0zdf0b9dd1hp39180000gn/T//cc7TiL7h.s 			page 86


 4819 0c39 860B0000 		.4byte	0xb86
 4820 0c3d 24       		.byte	0x24
 4821 0c3e 24       		.uleb128 0x24
 4822 0c3f 705F7500 		.ascii	"p_u\000"
 4823 0c43 0D       		.byte	0xd
 4824 0c44 3101     		.2byte	0x131
 4825 0c46 6C190000 		.4byte	0x196c
 4826 0c4a 28       		.byte	0x28
 4827 0c4b 18       		.uleb128 0x18
 4828 0c4c 6E050000 		.4byte	.LASF188
 4829 0c50 0D       		.byte	0xd
 4830 0c51 3601     		.2byte	0x136
 4831 0c53 C50C0000 		.4byte	0xcc5
 4832 0c57 2C       		.byte	0x2c
 4833 0c58 18       		.uleb128 0x18
 4834 0c59 F5160000 		.4byte	.LASF189
 4835 0c5d 0D       		.byte	0xd
 4836 0c5e 3C01     		.2byte	0x13c
 4837 0c60 E90C0000 		.4byte	0xce9
 4838 0c64 30       		.byte	0x30
 4839 0c65 18       		.uleb128 0x18
 4840 0c66 E8070000 		.4byte	.LASF190
 4841 0c6a 0D       		.byte	0xd
 4842 0c6b 4001     		.2byte	0x140
 4843 0c6d 440B0000 		.4byte	0xb44
 4844 0c71 38       		.byte	0x38
 4845 0c72 18       		.uleb128 0x18
 4846 0c73 401F0000 		.4byte	.LASF191
 4847 0c77 0D       		.byte	0xd
 4848 0c78 4601     		.2byte	0x146
 4849 0c7a 4F0B0000 		.4byte	0xb4f
 4850 0c7e 3C       		.byte	0x3c
 4851 0c7f 18       		.uleb128 0x18
 4852 0c80 57210000 		.4byte	.LASF192
 4853 0c84 0D       		.byte	0xd
 4854 0c85 4D01     		.2byte	0x14d
 4855 0c87 371A0000 		.4byte	0x1a37
 4856 0c8b 40       		.byte	0x40
 4857 0c8c 18       		.uleb128 0x18
 4858 0c8d 001E0000 		.4byte	.LASF193
 4859 0c91 0D       		.byte	0xd
 4860 0c92 5101     		.2byte	0x151
 4861 0c94 390B0000 		.4byte	0xb39
 4862 0c98 44       		.byte	0x44
 4863 0c99 18       		.uleb128 0x18
 4864 0c9a 58130000 		.4byte	.LASF194
 4865 0c9e 0D       		.byte	0xd
 4866 0c9f 5801     		.2byte	0x158
 4867 0ca1 64010000 		.4byte	0x164
 4868 0ca5 48       		.byte	0x48
 4869 0ca6 18       		.uleb128 0x18
 4870 0ca7 5E260000 		.4byte	.LASF195
 4871 0cab 0D       		.byte	0xd
 4872 0cac 5E01     		.2byte	0x15e
 4873 0cae 1D190000 		.4byte	0x191d
 4874 0cb2 50       		.byte	0x50
 4875 0cb3 00       		.byte	0
ARM GAS  /var/folders/qd/4mxf5pkd0zdf0b9dd1hp39180000gn/T//cc7TiL7h.s 			page 87


 4876 0cb4 04       		.uleb128 0x4
 4877 0cb5 50240000 		.4byte	.LASF196
 4878 0cb9 0C       		.byte	0xc
 4879 0cba 44       		.byte	0x44
 4880 0cbb BF0C0000 		.4byte	0xcbf
 4881 0cbf 05       		.uleb128 0x5
 4882 0cc0 04       		.byte	0x4
 4883 0cc1 8B0B0000 		.4byte	0xb8b
 4884 0cc5 04       		.uleb128 0x4
 4885 0cc6 AD050000 		.4byte	.LASF197
 4886 0cca 0C       		.byte	0xc
 4887 0ccb 49       		.byte	0x49
 4888 0ccc D00C0000 		.4byte	0xcd0
 4889 0cd0 10       		.uleb128 0x10
 4890 0cd1 3D260000 		.4byte	.LASF198
 4891 0cd5 04       		.byte	0x4
 4892 0cd6 0D       		.byte	0xd
 4893 0cd7 B0       		.byte	0xb0
 4894 0cd8 E90C0000 		.4byte	0xce9
 4895 0cdc 0D       		.uleb128 0xd
 4896 0cdd E6120000 		.4byte	.LASF175
 4897 0ce1 0D       		.byte	0xd
 4898 0ce2 B1       		.byte	0xb1
 4899 0ce3 BF0C0000 		.4byte	0xcbf
 4900 0ce7 00       		.byte	0
 4901 0ce8 00       		.byte	0
 4902 0ce9 04       		.uleb128 0x4
 4903 0cea AE180000 		.4byte	.LASF199
 4904 0cee 0C       		.byte	0xc
 4905 0cef 50       		.byte	0x50
 4906 0cf0 F40C0000 		.4byte	0xcf4
 4907 0cf4 10       		.uleb128 0x10
 4908 0cf5 84020000 		.4byte	.LASF200
 4909 0cf9 08       		.byte	0x8
 4910 0cfa 0D       		.byte	0xd
 4911 0cfb B7       		.byte	0xb7
 4912 0cfc 190D0000 		.4byte	0xd19
 4913 0d00 0D       		.uleb128 0xd
 4914 0d01 E6120000 		.4byte	.LASF175
 4915 0d05 0D       		.byte	0xd
 4916 0d06 B8       		.byte	0xb8
 4917 0d07 BF0C0000 		.4byte	0xcbf
 4918 0d0b 00       		.byte	0
 4919 0d0c 0D       		.uleb128 0xd
 4920 0d0d 220E0000 		.4byte	.LASF176
 4921 0d11 0D       		.byte	0xd
 4922 0d12 B9       		.byte	0xb9
 4923 0d13 BF0C0000 		.4byte	0xcbf
 4924 0d17 04       		.byte	0x4
 4925 0d18 00       		.byte	0
 4926 0d19 04       		.uleb128 0x4
 4927 0d1a B2090000 		.4byte	.LASF201
 4928 0d1e 0C       		.byte	0xc
 4929 0d1f 57       		.byte	0x57
 4930 0d20 240D0000 		.4byte	0xd24
 4931 0d24 1B       		.uleb128 0x1b
 4932 0d25 971E0000 		.4byte	.LASF202
ARM GAS  /var/folders/qd/4mxf5pkd0zdf0b9dd1hp39180000gn/T//cc7TiL7h.s 			page 88


 4933 0d29 1C       		.byte	0x1c
 4934 0d2a 0D       		.byte	0xd
 4935 0d2b 9001     		.2byte	0x190
 4936 0d2d 800D0000 		.4byte	0xd80
 4937 0d31 18       		.uleb128 0x18
 4938 0d32 4E1B0000 		.4byte	.LASF203
 4939 0d36 0D       		.byte	0xd
 4940 0d37 9101     		.2byte	0x191
 4941 0d39 E90C0000 		.4byte	0xce9
 4942 0d3d 00       		.byte	0
 4943 0d3e 18       		.uleb128 0x18
 4944 0d3f 46200000 		.4byte	.LASF204
 4945 0d43 0D       		.byte	0xd
 4946 0d44 9201     		.2byte	0x192
 4947 0d46 390B0000 		.4byte	0xb39
 4948 0d4a 08       		.byte	0x8
 4949 0d4b 18       		.uleb128 0x18
 4950 0d4c E60C0000 		.4byte	.LASF205
 4951 0d50 0D       		.byte	0xd
 4952 0d51 9401     		.2byte	0x194
 4953 0d53 C7160000 		.4byte	0x16c7
 4954 0d57 0C       		.byte	0xc
 4955 0d58 18       		.uleb128 0x18
 4956 0d59 0F150000 		.4byte	.LASF206
 4957 0d5d 0D       		.byte	0xd
 4958 0d5e 9701     		.2byte	0x197
 4959 0d60 BF0C0000 		.4byte	0xcbf
 4960 0d64 10       		.byte	0x10
 4961 0d65 18       		.uleb128 0x18
 4962 0d66 1A0E0000 		.4byte	.LASF207
 4963 0d6a 0D       		.byte	0xd
 4964 0d6b 9801     		.2byte	0x198
 4965 0d6d BF0C0000 		.4byte	0xcbf
 4966 0d71 14       		.byte	0x14
 4967 0d72 18       		.uleb128 0x18
 4968 0d73 45110000 		.4byte	.LASF208
 4969 0d77 0D       		.byte	0xd
 4970 0d78 9B01     		.2byte	0x19b
 4971 0d7a BF0C0000 		.4byte	0xcbf
 4972 0d7e 18       		.byte	0x18
 4973 0d7f 00       		.byte	0
 4974 0d80 04       		.uleb128 0x4
 4975 0d81 A91D0000 		.4byte	.LASF209
 4976 0d85 0C       		.byte	0xc
 4977 0d86 5C       		.byte	0x5c
 4978 0d87 8B0D0000 		.4byte	0xd8b
 4979 0d8b 05       		.uleb128 0x5
 4980 0d8c 04       		.byte	0x4
 4981 0d8d 910D0000 		.4byte	0xd91
 4982 0d91 1F       		.uleb128 0x1f
 4983 0d92 9C0D0000 		.4byte	0xd9c
 4984 0d96 16       		.uleb128 0x16
 4985 0d97 64010000 		.4byte	0x164
 4986 0d9b 00       		.byte	0
 4987 0d9c 04       		.uleb128 0x4
 4988 0d9d CA0C0000 		.4byte	.LASF210
 4989 0da1 0C       		.byte	0xc
ARM GAS  /var/folders/qd/4mxf5pkd0zdf0b9dd1hp39180000gn/T//cc7TiL7h.s 			page 89


 4990 0da2 61       		.byte	0x61
 4991 0da3 A70D0000 		.4byte	0xda7
 4992 0da7 1B       		.uleb128 0x1b
 4993 0da8 21210000 		.4byte	.LASF211
 4994 0dac 14       		.byte	0x14
 4995 0dad 0D       		.byte	0xd
 4996 0dae 6B01     		.2byte	0x16b
 4997 0db0 F60D0000 		.4byte	0xdf6
 4998 0db4 18       		.uleb128 0x18
 4999 0db5 EC0C0000 		.4byte	.LASF212
 5000 0db9 0D       		.byte	0xd
 5001 0dba 6C01     		.2byte	0x16c
 5002 0dbc 431A0000 		.4byte	0x1a43
 5003 0dc0 00       		.byte	0
 5004 0dc1 18       		.uleb128 0x18
 5005 0dc2 57090000 		.4byte	.LASF213
 5006 0dc6 0D       		.byte	0xd
 5007 0dc7 6D01     		.2byte	0x16d
 5008 0dc9 431A0000 		.4byte	0x1a43
 5009 0dcd 04       		.byte	0x4
 5010 0dce 18       		.uleb128 0x18
 5011 0dcf BF150000 		.4byte	.LASF214
 5012 0dd3 0D       		.byte	0xd
 5013 0dd4 6E01     		.2byte	0x16e
 5014 0dd6 7B0B0000 		.4byte	0xb7b
 5015 0dda 08       		.byte	0x8
 5016 0ddb 18       		.uleb128 0x18
 5017 0ddc 05210000 		.4byte	.LASF215
 5018 0de0 0D       		.byte	0xd
 5019 0de1 6F01     		.2byte	0x16f
 5020 0de3 800D0000 		.4byte	0xd80
 5021 0de7 0C       		.byte	0xc
 5022 0de8 18       		.uleb128 0x18
 5023 0de9 8A0A0000 		.4byte	.LASF216
 5024 0ded 0D       		.byte	0xd
 5025 0dee 7101     		.2byte	0x171
 5026 0df0 64010000 		.4byte	0x164
 5027 0df4 10       		.byte	0x10
 5028 0df5 00       		.byte	0
 5029 0df6 04       		.uleb128 0x4
 5030 0df7 79220000 		.4byte	.LASF217
 5031 0dfb 0C       		.byte	0xc
 5032 0dfc 66       		.byte	0x66
 5033 0dfd 010E0000 		.4byte	0xe01
 5034 0e01 1B       		.uleb128 0x1b
 5035 0e02 84030000 		.4byte	.LASF218
 5036 0e06 10       		.byte	0x10
 5037 0e07 0D       		.byte	0xd
 5038 0e08 7B01     		.2byte	0x17b
 5039 0e0a 430E0000 		.4byte	0xe43
 5040 0e0e 18       		.uleb128 0x18
 5041 0e0f EC0C0000 		.4byte	.LASF212
 5042 0e13 0D       		.byte	0xd
 5043 0e14 7C01     		.2byte	0x17c
 5044 0e16 431A0000 		.4byte	0x1a43
 5045 0e1a 00       		.byte	0
 5046 0e1b 18       		.uleb128 0x18
ARM GAS  /var/folders/qd/4mxf5pkd0zdf0b9dd1hp39180000gn/T//cc7TiL7h.s 			page 90


 5047 0e1c 57090000 		.4byte	.LASF213
 5048 0e20 0D       		.byte	0xd
 5049 0e21 7E01     		.2byte	0x17e
 5050 0e23 431A0000 		.4byte	0x1a43
 5051 0e27 04       		.byte	0x4
 5052 0e28 18       		.uleb128 0x18
 5053 0e29 BF150000 		.4byte	.LASF214
 5054 0e2d 0D       		.byte	0xd
 5055 0e2e 8001     		.2byte	0x180
 5056 0e30 7B0B0000 		.4byte	0xb7b
 5057 0e34 08       		.byte	0x8
 5058 0e35 18       		.uleb128 0x18
 5059 0e36 7F010000 		.4byte	.LASF219
 5060 0e3a 0D       		.byte	0xd
 5061 0e3b 8201     		.2byte	0x182
 5062 0e3d 860B0000 		.4byte	0xb86
 5063 0e41 0C       		.byte	0xc
 5064 0e42 00       		.byte	0
 5065 0e43 04       		.uleb128 0x4
 5066 0e44 5D0A0000 		.4byte	.LASF220
 5067 0e48 0C       		.byte	0xc
 5068 0e49 6B       		.byte	0x6b
 5069 0e4a 4E0E0000 		.4byte	0xe4e
 5070 0e4e 17       		.uleb128 0x17
 5071 0e4f C01E0000 		.4byte	.LASF221
 5072 0e53 1404     		.2byte	0x414
 5073 0e55 0D       		.byte	0xd
 5074 0e56 A201     		.2byte	0x1a2
 5075 0e58 910E0000 		.4byte	0xe91
 5076 0e5c 18       		.uleb128 0x18
 5077 0e5d E3140000 		.4byte	.LASF222
 5078 0e61 0D       		.byte	0xd
 5079 0e62 AA01     		.2byte	0x1aa
 5080 0e64 EA050000 		.4byte	0x5ea
 5081 0e68 00       		.byte	0
 5082 0e69 18       		.uleb128 0x18
 5083 0e6a B0140000 		.4byte	.LASF223
 5084 0e6e 0D       		.byte	0xd
 5085 0e6f AF01     		.2byte	0x1af
 5086 0e71 650B0000 		.4byte	0xb65
 5087 0e75 04       		.byte	0x4
 5088 0e76 18       		.uleb128 0x18
 5089 0e77 7B020000 		.4byte	.LASF224
 5090 0e7b 0D       		.byte	0xd
 5091 0e7c B301     		.2byte	0x1b3
 5092 0e7e 650B0000 		.4byte	0xb65
 5093 0e82 08       		.byte	0x8
 5094 0e83 18       		.uleb128 0x18
 5095 0e84 1C180000 		.4byte	.LASF225
 5096 0e88 0D       		.byte	0xd
 5097 0e89 B901     		.2byte	0x1b9
 5098 0e8b AF180000 		.4byte	0x18af
 5099 0e8f 0C       		.byte	0xc
 5100 0e90 00       		.byte	0
 5101 0e91 04       		.uleb128 0x4
 5102 0e92 E2000000 		.4byte	.LASF226
 5103 0e96 0C       		.byte	0xc
ARM GAS  /var/folders/qd/4mxf5pkd0zdf0b9dd1hp39180000gn/T//cc7TiL7h.s 			page 91


 5104 0e97 70       		.byte	0x70
 5105 0e98 9C0E0000 		.4byte	0xe9c
 5106 0e9c 17       		.uleb128 0x17
 5107 0e9d 0C180000 		.4byte	.LASF227
 5108 0ea1 7006     		.2byte	0x670
 5109 0ea3 0D       		.byte	0xd
 5110 0ea4 C201     		.2byte	0x1c2
 5111 0ea6 090F0000 		.4byte	0xf09
 5112 0eaa 18       		.uleb128 0x18
 5113 0eab A7050000 		.4byte	.LASF228
 5114 0eaf 0D       		.byte	0xd
 5115 0eb0 C601     		.2byte	0x1c6
 5116 0eb2 190D0000 		.4byte	0xd19
 5117 0eb6 00       		.byte	0
 5118 0eb7 18       		.uleb128 0x18
 5119 0eb8 4D050000 		.4byte	.LASF229
 5120 0ebc 0D       		.byte	0xd
 5121 0ebd CA01     		.2byte	0x1ca
 5122 0ebf F60D0000 		.4byte	0xdf6
 5123 0ec3 1C       		.byte	0x1c
 5124 0ec4 24       		.uleb128 0x24
 5125 0ec5 64626700 		.ascii	"dbg\000"
 5126 0ec9 0D       		.byte	0xd
 5127 0eca CE01     		.2byte	0x1ce
 5128 0ecc 430E0000 		.4byte	0xe43
 5129 0ed0 2C       		.byte	0x2c
 5130 0ed1 19       		.uleb128 0x19
 5131 0ed2 0B190000 		.4byte	.LASF230
 5132 0ed6 0D       		.byte	0xd
 5133 0ed7 D201     		.2byte	0x1d2
 5134 0ed9 8B0B0000 		.4byte	0xb8b
 5135 0edd 4004     		.2byte	0x440
 5136 0edf 25       		.uleb128 0x25
 5137 0ee0 746D00   		.ascii	"tm\000"
 5138 0ee3 0D       		.byte	0xd
 5139 0ee4 D701     		.2byte	0x1d7
 5140 0ee6 CF180000 		.4byte	0x18cf
 5141 0eea A804     		.2byte	0x4a8
 5142 0eec 19       		.uleb128 0x19
 5143 0eed 711C0000 		.4byte	.LASF231
 5144 0ef1 0D       		.byte	0xd
 5145 0ef2 DD01     		.2byte	0x1dd
 5146 0ef4 61190000 		.4byte	0x1961
 5147 0ef8 B004     		.2byte	0x4b0
 5148 0efa 19       		.uleb128 0x19
 5149 0efb D4200000 		.4byte	.LASF232
 5150 0eff 0D       		.byte	0xd
 5151 0f00 E301     		.2byte	0x1e3
 5152 0f02 491A0000 		.4byte	0x1a49
 5153 0f06 E804     		.2byte	0x4e8
 5154 0f08 00       		.byte	0
 5155 0f09 0A       		.uleb128 0xa
 5156 0f0a D70A0000 		.4byte	0xad7
 5157 0f0e 190F0000 		.4byte	0xf19
 5158 0f12 0B       		.uleb128 0xb
 5159 0f13 3E000000 		.4byte	0x3e
 5160 0f17 01       		.byte	0x1
ARM GAS  /var/folders/qd/4mxf5pkd0zdf0b9dd1hp39180000gn/T//cc7TiL7h.s 			page 92


 5161 0f18 00       		.byte	0
 5162 0f19 0A       		.uleb128 0xa
 5163 0f1a D70A0000 		.4byte	0xad7
 5164 0f1e 290F0000 		.4byte	0xf29
 5165 0f22 0B       		.uleb128 0xb
 5166 0f23 3E000000 		.4byte	0x3e
 5167 0f27 07       		.byte	0x7
 5168 0f28 00       		.byte	0
 5169 0f29 20       		.uleb128 0x20
 5170 0f2a 54200000 		.4byte	.LASF233
 5171 0f2e 0E       		.byte	0xe
 5172 0f2f A706     		.2byte	0x6a7
 5173 0f31 D20A0000 		.4byte	0xad2
 5174 0f35 26       		.uleb128 0x26
 5175 0f36 29170000 		.4byte	.LASF234
 5176 0f3a 0F       		.byte	0xf
 5177 0f3b 4C       		.byte	0x4c
 5178 0f3c D70A0000 		.4byte	0xad7
 5179 0f40 0C       		.uleb128 0xc
 5180 0f41 50       		.byte	0x50
 5181 0f42 10       		.byte	0x10
 5182 0f43 C4       		.byte	0xc4
 5183 0f44 37100000 		.4byte	0x1037
 5184 0f48 11       		.uleb128 0x11
 5185 0f49 535200   		.ascii	"SR\000"
 5186 0f4c 10       		.byte	0x10
 5187 0f4d C6       		.byte	0xc6
 5188 0f4e E20A0000 		.4byte	0xae2
 5189 0f52 00       		.byte	0
 5190 0f53 11       		.uleb128 0x11
 5191 0f54 43523100 		.ascii	"CR1\000"
 5192 0f58 10       		.byte	0x10
 5193 0f59 C7       		.byte	0xc7
 5194 0f5a E20A0000 		.4byte	0xae2
 5195 0f5e 04       		.byte	0x4
 5196 0f5f 11       		.uleb128 0x11
 5197 0f60 43523200 		.ascii	"CR2\000"
 5198 0f64 10       		.byte	0x10
 5199 0f65 C8       		.byte	0xc8
 5200 0f66 E20A0000 		.4byte	0xae2
 5201 0f6a 08       		.byte	0x8
 5202 0f6b 0D       		.uleb128 0xd
 5203 0f6c D0020000 		.4byte	.LASF235
 5204 0f70 10       		.byte	0x10
 5205 0f71 C9       		.byte	0xc9
 5206 0f72 E20A0000 		.4byte	0xae2
 5207 0f76 0C       		.byte	0xc
 5208 0f77 0D       		.uleb128 0xd
 5209 0f78 D6020000 		.4byte	.LASF236
 5210 0f7c 10       		.byte	0x10
 5211 0f7d CA       		.byte	0xca
 5212 0f7e E20A0000 		.4byte	0xae2
 5213 0f82 10       		.byte	0x10
 5214 0f83 0D       		.uleb128 0xd
 5215 0f84 910A0000 		.4byte	.LASF237
 5216 0f88 10       		.byte	0x10
 5217 0f89 CB       		.byte	0xcb
ARM GAS  /var/folders/qd/4mxf5pkd0zdf0b9dd1hp39180000gn/T//cc7TiL7h.s 			page 93


 5218 0f8a E20A0000 		.4byte	0xae2
 5219 0f8e 14       		.byte	0x14
 5220 0f8f 0D       		.uleb128 0xd
 5221 0f90 970A0000 		.4byte	.LASF238
 5222 0f94 10       		.byte	0x10
 5223 0f95 CC       		.byte	0xcc
 5224 0f96 E20A0000 		.4byte	0xae2
 5225 0f9a 18       		.byte	0x18
 5226 0f9b 0D       		.uleb128 0xd
 5227 0f9c E3110000 		.4byte	.LASF239
 5228 0fa0 10       		.byte	0x10
 5229 0fa1 CD       		.byte	0xcd
 5230 0fa2 E20A0000 		.4byte	0xae2
 5231 0fa6 1C       		.byte	0x1c
 5232 0fa7 0D       		.uleb128 0xd
 5233 0fa8 9D0A0000 		.4byte	.LASF240
 5234 0fac 10       		.byte	0x10
 5235 0fad CE       		.byte	0xce
 5236 0fae E20A0000 		.4byte	0xae2
 5237 0fb2 20       		.byte	0x20
 5238 0fb3 11       		.uleb128 0x11
 5239 0fb4 48545200 		.ascii	"HTR\000"
 5240 0fb8 10       		.byte	0x10
 5241 0fb9 CF       		.byte	0xcf
 5242 0fba E20A0000 		.4byte	0xae2
 5243 0fbe 24       		.byte	0x24
 5244 0fbf 11       		.uleb128 0x11
 5245 0fc0 4C545200 		.ascii	"LTR\000"
 5246 0fc4 10       		.byte	0x10
 5247 0fc5 D0       		.byte	0xd0
 5248 0fc6 E20A0000 		.4byte	0xae2
 5249 0fca 28       		.byte	0x28
 5250 0fcb 0D       		.uleb128 0xd
 5251 0fcc CF130000 		.4byte	.LASF241
 5252 0fd0 10       		.byte	0x10
 5253 0fd1 D1       		.byte	0xd1
 5254 0fd2 E20A0000 		.4byte	0xae2
 5255 0fd6 2C       		.byte	0x2c
 5256 0fd7 0D       		.uleb128 0xd
 5257 0fd8 D4130000 		.4byte	.LASF242
 5258 0fdc 10       		.byte	0x10
 5259 0fdd D2       		.byte	0xd2
 5260 0fde E20A0000 		.4byte	0xae2
 5261 0fe2 30       		.byte	0x30
 5262 0fe3 0D       		.uleb128 0xd
 5263 0fe4 D9130000 		.4byte	.LASF243
 5264 0fe8 10       		.byte	0x10
 5265 0fe9 D3       		.byte	0xd3
 5266 0fea E20A0000 		.4byte	0xae2
 5267 0fee 34       		.byte	0x34
 5268 0fef 0D       		.uleb128 0xd
 5269 0ff0 A30C0000 		.4byte	.LASF244
 5270 0ff4 10       		.byte	0x10
 5271 0ff5 D4       		.byte	0xd4
 5272 0ff6 E20A0000 		.4byte	0xae2
 5273 0ffa 38       		.byte	0x38
 5274 0ffb 0D       		.uleb128 0xd
ARM GAS  /var/folders/qd/4mxf5pkd0zdf0b9dd1hp39180000gn/T//cc7TiL7h.s 			page 94


 5275 0ffc 34220000 		.4byte	.LASF245
 5276 1000 10       		.byte	0x10
 5277 1001 D5       		.byte	0xd5
 5278 1002 E20A0000 		.4byte	0xae2
 5279 1006 3C       		.byte	0x3c
 5280 1007 0D       		.uleb128 0xd
 5281 1008 FD0C0000 		.4byte	.LASF246
 5282 100c 10       		.byte	0x10
 5283 100d D6       		.byte	0xd6
 5284 100e E20A0000 		.4byte	0xae2
 5285 1012 40       		.byte	0x40
 5286 1013 0D       		.uleb128 0xd
 5287 1014 48220000 		.4byte	.LASF247
 5288 1018 10       		.byte	0x10
 5289 1019 D7       		.byte	0xd7
 5290 101a E20A0000 		.4byte	0xae2
 5291 101e 44       		.byte	0x44
 5292 101f 0D       		.uleb128 0xd
 5293 1020 4D220000 		.4byte	.LASF248
 5294 1024 10       		.byte	0x10
 5295 1025 D8       		.byte	0xd8
 5296 1026 E20A0000 		.4byte	0xae2
 5297 102a 48       		.byte	0x48
 5298 102b 11       		.uleb128 0x11
 5299 102c 445200   		.ascii	"DR\000"
 5300 102f 10       		.byte	0x10
 5301 1030 D9       		.byte	0xd9
 5302 1031 E20A0000 		.4byte	0xae2
 5303 1035 4C       		.byte	0x4c
 5304 1036 00       		.byte	0
 5305 1037 04       		.uleb128 0x4
 5306 1038 06160000 		.4byte	.LASF249
 5307 103c 10       		.byte	0x10
 5308 103d DA       		.byte	0xda
 5309 103e 400F0000 		.4byte	0xf40
 5310 1042 0C       		.uleb128 0xc
 5311 1043 10       		.byte	0x10
 5312 1044 10       		.byte	0x10
 5313 1045 E9       		.byte	0xe9
 5314 1046 7B100000 		.4byte	0x107b
 5315 104a 11       		.uleb128 0x11
 5316 104b 54495200 		.ascii	"TIR\000"
 5317 104f 10       		.byte	0x10
 5318 1050 EB       		.byte	0xeb
 5319 1051 E20A0000 		.4byte	0xae2
 5320 1055 00       		.byte	0
 5321 1056 0D       		.uleb128 0xd
 5322 1057 AA110000 		.4byte	.LASF250
 5323 105b 10       		.byte	0x10
 5324 105c EC       		.byte	0xec
 5325 105d E20A0000 		.4byte	0xae2
 5326 1061 04       		.byte	0x4
 5327 1062 0D       		.uleb128 0xd
 5328 1063 FD180000 		.4byte	.LASF251
 5329 1067 10       		.byte	0x10
 5330 1068 ED       		.byte	0xed
 5331 1069 E20A0000 		.4byte	0xae2
ARM GAS  /var/folders/qd/4mxf5pkd0zdf0b9dd1hp39180000gn/T//cc7TiL7h.s 			page 95


 5332 106d 08       		.byte	0x8
 5333 106e 0D       		.uleb128 0xd
 5334 106f 68160000 		.4byte	.LASF252
 5335 1073 10       		.byte	0x10
 5336 1074 EE       		.byte	0xee
 5337 1075 E20A0000 		.4byte	0xae2
 5338 1079 0C       		.byte	0xc
 5339 107a 00       		.byte	0
 5340 107b 04       		.uleb128 0x4
 5341 107c 91050000 		.4byte	.LASF253
 5342 1080 10       		.byte	0x10
 5343 1081 EF       		.byte	0xef
 5344 1082 42100000 		.4byte	0x1042
 5345 1086 0C       		.uleb128 0xc
 5346 1087 10       		.byte	0x10
 5347 1088 10       		.byte	0x10
 5348 1089 F5       		.byte	0xf5
 5349 108a BF100000 		.4byte	0x10bf
 5350 108e 11       		.uleb128 0x11
 5351 108f 52495200 		.ascii	"RIR\000"
 5352 1093 10       		.byte	0x10
 5353 1094 F7       		.byte	0xf7
 5354 1095 E20A0000 		.4byte	0xae2
 5355 1099 00       		.byte	0
 5356 109a 0D       		.uleb128 0xd
 5357 109b 691E0000 		.4byte	.LASF254
 5358 109f 10       		.byte	0x10
 5359 10a0 F8       		.byte	0xf8
 5360 10a1 E20A0000 		.4byte	0xae2
 5361 10a5 04       		.byte	0x4
 5362 10a6 0D       		.uleb128 0xd
 5363 10a7 291A0000 		.4byte	.LASF255
 5364 10ab 10       		.byte	0x10
 5365 10ac F9       		.byte	0xf9
 5366 10ad E20A0000 		.4byte	0xae2
 5367 10b1 08       		.byte	0x8
 5368 10b2 0D       		.uleb128 0xd
 5369 10b3 AF170000 		.4byte	.LASF256
 5370 10b7 10       		.byte	0x10
 5371 10b8 FA       		.byte	0xfa
 5372 10b9 E20A0000 		.4byte	0xae2
 5373 10bd 0C       		.byte	0xc
 5374 10be 00       		.byte	0
 5375 10bf 04       		.uleb128 0x4
 5376 10c0 B21D0000 		.4byte	.LASF257
 5377 10c4 10       		.byte	0x10
 5378 10c5 FB       		.byte	0xfb
 5379 10c6 86100000 		.4byte	0x1086
 5380 10ca 1C       		.uleb128 0x1c
 5381 10cb 08       		.byte	0x8
 5382 10cc 10       		.byte	0x10
 5383 10cd 0101     		.2byte	0x101
 5384 10cf EE100000 		.4byte	0x10ee
 5385 10d3 24       		.uleb128 0x24
 5386 10d4 46523100 		.ascii	"FR1\000"
 5387 10d8 10       		.byte	0x10
 5388 10d9 0301     		.2byte	0x103
ARM GAS  /var/folders/qd/4mxf5pkd0zdf0b9dd1hp39180000gn/T//cc7TiL7h.s 			page 96


 5389 10db E20A0000 		.4byte	0xae2
 5390 10df 00       		.byte	0
 5391 10e0 24       		.uleb128 0x24
 5392 10e1 46523200 		.ascii	"FR2\000"
 5393 10e5 10       		.byte	0x10
 5394 10e6 0401     		.2byte	0x104
 5395 10e8 E20A0000 		.4byte	0xae2
 5396 10ec 04       		.byte	0x4
 5397 10ed 00       		.byte	0
 5398 10ee 07       		.uleb128 0x7
 5399 10ef AF110000 		.4byte	.LASF258
 5400 10f3 10       		.byte	0x10
 5401 10f4 0501     		.2byte	0x105
 5402 10f6 CA100000 		.4byte	0x10ca
 5403 10fa 27       		.uleb128 0x27
 5404 10fb 2003     		.2byte	0x320
 5405 10fd 10       		.byte	0x10
 5406 10fe 0B01     		.2byte	0x10b
 5407 1100 30120000 		.4byte	0x1230
 5408 1104 24       		.uleb128 0x24
 5409 1105 4D435200 		.ascii	"MCR\000"
 5410 1109 10       		.byte	0x10
 5411 110a 0D01     		.2byte	0x10d
 5412 110c E20A0000 		.4byte	0xae2
 5413 1110 00       		.byte	0
 5414 1111 24       		.uleb128 0x24
 5415 1112 4D535200 		.ascii	"MSR\000"
 5416 1116 10       		.byte	0x10
 5417 1117 0E01     		.2byte	0x10e
 5418 1119 E20A0000 		.4byte	0xae2
 5419 111d 04       		.byte	0x4
 5420 111e 24       		.uleb128 0x24
 5421 111f 54535200 		.ascii	"TSR\000"
 5422 1123 10       		.byte	0x10
 5423 1124 0F01     		.2byte	0x10f
 5424 1126 E20A0000 		.4byte	0xae2
 5425 112a 08       		.byte	0x8
 5426 112b 18       		.uleb128 0x18
 5427 112c D20E0000 		.4byte	.LASF259
 5428 1130 10       		.byte	0x10
 5429 1131 1001     		.2byte	0x110
 5430 1133 E20A0000 		.4byte	0xae2
 5431 1137 0C       		.byte	0xc
 5432 1138 18       		.uleb128 0x18
 5433 1139 771A0000 		.4byte	.LASF260
 5434 113d 10       		.byte	0x10
 5435 113e 1101     		.2byte	0x111
 5436 1140 E20A0000 		.4byte	0xae2
 5437 1144 10       		.byte	0x10
 5438 1145 24       		.uleb128 0x24
 5439 1146 49455200 		.ascii	"IER\000"
 5440 114a 10       		.byte	0x10
 5441 114b 1201     		.2byte	0x112
 5442 114d E20A0000 		.4byte	0xae2
 5443 1151 14       		.byte	0x14
 5444 1152 24       		.uleb128 0x24
 5445 1153 45535200 		.ascii	"ESR\000"
ARM GAS  /var/folders/qd/4mxf5pkd0zdf0b9dd1hp39180000gn/T//cc7TiL7h.s 			page 97


 5446 1157 10       		.byte	0x10
 5447 1158 1301     		.2byte	0x113
 5448 115a E20A0000 		.4byte	0xae2
 5449 115e 18       		.byte	0x18
 5450 115f 24       		.uleb128 0x24
 5451 1160 42545200 		.ascii	"BTR\000"
 5452 1164 10       		.byte	0x10
 5453 1165 1401     		.2byte	0x114
 5454 1167 E20A0000 		.4byte	0xae2
 5455 116b 1C       		.byte	0x1c
 5456 116c 18       		.uleb128 0x18
 5457 116d 771F0000 		.4byte	.LASF261
 5458 1171 10       		.byte	0x10
 5459 1172 1501     		.2byte	0x115
 5460 1174 30120000 		.4byte	0x1230
 5461 1178 20       		.byte	0x20
 5462 1179 19       		.uleb128 0x19
 5463 117a B8120000 		.4byte	.LASF262
 5464 117e 10       		.byte	0x10
 5465 117f 1601     		.2byte	0x116
 5466 1181 40120000 		.4byte	0x1240
 5467 1185 8001     		.2byte	0x180
 5468 1187 19       		.uleb128 0x19
 5469 1188 96230000 		.4byte	.LASF263
 5470 118c 10       		.byte	0x10
 5471 118d 1701     		.2byte	0x117
 5472 118f 50120000 		.4byte	0x1250
 5473 1193 B001     		.2byte	0x1b0
 5474 1195 19       		.uleb128 0x19
 5475 1196 811F0000 		.4byte	.LASF264
 5476 119a 10       		.byte	0x10
 5477 119b 1801     		.2byte	0x118
 5478 119d 60120000 		.4byte	0x1260
 5479 11a1 D001     		.2byte	0x1d0
 5480 11a3 25       		.uleb128 0x25
 5481 11a4 464D5200 		.ascii	"FMR\000"
 5482 11a8 10       		.byte	0x10
 5483 11a9 1901     		.2byte	0x119
 5484 11ab E20A0000 		.4byte	0xae2
 5485 11af 0002     		.2byte	0x200
 5486 11b1 19       		.uleb128 0x19
 5487 11b2 0E0B0000 		.4byte	.LASF265
 5488 11b6 10       		.byte	0x10
 5489 11b7 1A01     		.2byte	0x11a
 5490 11b9 E20A0000 		.4byte	0xae2
 5491 11bd 0402     		.2byte	0x204
 5492 11bf 19       		.uleb128 0x19
 5493 11c0 8B1F0000 		.4byte	.LASF266
 5494 11c4 10       		.byte	0x10
 5495 11c5 1B01     		.2byte	0x11b
 5496 11c7 D70A0000 		.4byte	0xad7
 5497 11cb 0802     		.2byte	0x208
 5498 11cd 19       		.uleb128 0x19
 5499 11ce 7A210000 		.4byte	.LASF267
 5500 11d2 10       		.byte	0x10
 5501 11d3 1C01     		.2byte	0x11c
 5502 11d5 E20A0000 		.4byte	0xae2
ARM GAS  /var/folders/qd/4mxf5pkd0zdf0b9dd1hp39180000gn/T//cc7TiL7h.s 			page 98


 5503 11d9 0C02     		.2byte	0x20c
 5504 11db 19       		.uleb128 0x19
 5505 11dc 951F0000 		.4byte	.LASF268
 5506 11e0 10       		.byte	0x10
 5507 11e1 1D01     		.2byte	0x11d
 5508 11e3 D70A0000 		.4byte	0xad7
 5509 11e7 1002     		.2byte	0x210
 5510 11e9 19       		.uleb128 0x19
 5511 11ea 711A0000 		.4byte	.LASF269
 5512 11ee 10       		.byte	0x10
 5513 11ef 1E01     		.2byte	0x11e
 5514 11f1 E20A0000 		.4byte	0xae2
 5515 11f5 1402     		.2byte	0x214
 5516 11f7 19       		.uleb128 0x19
 5517 11f8 9F1F0000 		.4byte	.LASF270
 5518 11fc 10       		.byte	0x10
 5519 11fd 1F01     		.2byte	0x11f
 5520 11ff D70A0000 		.4byte	0xad7
 5521 1203 1802     		.2byte	0x218
 5522 1205 19       		.uleb128 0x19
 5523 1206 3C040000 		.4byte	.LASF271
 5524 120a 10       		.byte	0x10
 5525 120b 2001     		.2byte	0x120
 5526 120d E20A0000 		.4byte	0xae2
 5527 1211 1C02     		.2byte	0x21c
 5528 1213 19       		.uleb128 0x19
 5529 1214 A91F0000 		.4byte	.LASF272
 5530 1218 10       		.byte	0x10
 5531 1219 2101     		.2byte	0x121
 5532 121b 190F0000 		.4byte	0xf19
 5533 121f 2002     		.2byte	0x220
 5534 1221 19       		.uleb128 0x19
 5535 1222 40060000 		.4byte	.LASF273
 5536 1226 10       		.byte	0x10
 5537 1227 2201     		.2byte	0x122
 5538 1229 70120000 		.4byte	0x1270
 5539 122d 4002     		.2byte	0x240
 5540 122f 00       		.byte	0
 5541 1230 0A       		.uleb128 0xa
 5542 1231 D70A0000 		.4byte	0xad7
 5543 1235 40120000 		.4byte	0x1240
 5544 1239 0B       		.uleb128 0xb
 5545 123a 3E000000 		.4byte	0x3e
 5546 123e 57       		.byte	0x57
 5547 123f 00       		.byte	0
 5548 1240 0A       		.uleb128 0xa
 5549 1241 7B100000 		.4byte	0x107b
 5550 1245 50120000 		.4byte	0x1250
 5551 1249 0B       		.uleb128 0xb
 5552 124a 3E000000 		.4byte	0x3e
 5553 124e 02       		.byte	0x2
 5554 124f 00       		.byte	0
 5555 1250 0A       		.uleb128 0xa
 5556 1251 BF100000 		.4byte	0x10bf
 5557 1255 60120000 		.4byte	0x1260
 5558 1259 0B       		.uleb128 0xb
 5559 125a 3E000000 		.4byte	0x3e
ARM GAS  /var/folders/qd/4mxf5pkd0zdf0b9dd1hp39180000gn/T//cc7TiL7h.s 			page 99


 5560 125e 01       		.byte	0x1
 5561 125f 00       		.byte	0
 5562 1260 0A       		.uleb128 0xa
 5563 1261 D70A0000 		.4byte	0xad7
 5564 1265 70120000 		.4byte	0x1270
 5565 1269 0B       		.uleb128 0xb
 5566 126a 3E000000 		.4byte	0x3e
 5567 126e 0B       		.byte	0xb
 5568 126f 00       		.byte	0
 5569 1270 0A       		.uleb128 0xa
 5570 1271 EE100000 		.4byte	0x10ee
 5571 1275 80120000 		.4byte	0x1280
 5572 1279 0B       		.uleb128 0xb
 5573 127a 3E000000 		.4byte	0x3e
 5574 127e 1B       		.byte	0x1b
 5575 127f 00       		.byte	0
 5576 1280 07       		.uleb128 0x7
 5577 1281 7B0D0000 		.4byte	.LASF274
 5578 1285 10       		.byte	0x10
 5579 1286 2301     		.2byte	0x123
 5580 1288 FA100000 		.4byte	0x10fa
 5581 128c 1C       		.uleb128 0x1c
 5582 128d 38       		.byte	0x38
 5583 128e 10       		.byte	0x10
 5584 128f 3601     		.2byte	0x136
 5585 1291 4A130000 		.4byte	0x134a
 5586 1295 24       		.uleb128 0x24
 5587 1296 435200   		.ascii	"CR\000"
 5588 1299 10       		.byte	0x10
 5589 129a 3801     		.2byte	0x138
 5590 129c E20A0000 		.4byte	0xae2
 5591 12a0 00       		.byte	0
 5592 12a1 18       		.uleb128 0x18
 5593 12a2 89170000 		.4byte	.LASF275
 5594 12a6 10       		.byte	0x10
 5595 12a7 3901     		.2byte	0x139
 5596 12a9 E20A0000 		.4byte	0xae2
 5597 12ad 04       		.byte	0x4
 5598 12ae 18       		.uleb128 0x18
 5599 12af C51F0000 		.4byte	.LASF276
 5600 12b3 10       		.byte	0x10
 5601 12b4 3A01     		.2byte	0x13a
 5602 12b6 E20A0000 		.4byte	0xae2
 5603 12ba 08       		.byte	0x8
 5604 12bb 18       		.uleb128 0x18
 5605 12bc 331C0000 		.4byte	.LASF277
 5606 12c0 10       		.byte	0x10
 5607 12c1 3B01     		.2byte	0x13b
 5608 12c3 E20A0000 		.4byte	0xae2
 5609 12c7 0C       		.byte	0xc
 5610 12c8 18       		.uleb128 0x18
 5611 12c9 6C0A0000 		.4byte	.LASF278
 5612 12cd 10       		.byte	0x10
 5613 12ce 3C01     		.2byte	0x13c
 5614 12d0 E20A0000 		.4byte	0xae2
 5615 12d4 10       		.byte	0x10
 5616 12d5 18       		.uleb128 0x18
ARM GAS  /var/folders/qd/4mxf5pkd0zdf0b9dd1hp39180000gn/T//cc7TiL7h.s 			page 100


 5617 12d6 CD1F0000 		.4byte	.LASF279
 5618 12da 10       		.byte	0x10
 5619 12db 3D01     		.2byte	0x13d
 5620 12dd E20A0000 		.4byte	0xae2
 5621 12e1 14       		.byte	0x14
 5622 12e2 18       		.uleb128 0x18
 5623 12e3 3B1C0000 		.4byte	.LASF280
 5624 12e7 10       		.byte	0x10
 5625 12e8 3E01     		.2byte	0x13e
 5626 12ea E20A0000 		.4byte	0xae2
 5627 12ee 18       		.byte	0x18
 5628 12ef 18       		.uleb128 0x18
 5629 12f0 730A0000 		.4byte	.LASF281
 5630 12f4 10       		.byte	0x10
 5631 12f5 3F01     		.2byte	0x13f
 5632 12f7 E20A0000 		.4byte	0xae2
 5633 12fb 1C       		.byte	0x1c
 5634 12fc 18       		.uleb128 0x18
 5635 12fd 1F200000 		.4byte	.LASF282
 5636 1301 10       		.byte	0x10
 5637 1302 4001     		.2byte	0x140
 5638 1304 E20A0000 		.4byte	0xae2
 5639 1308 20       		.byte	0x20
 5640 1309 18       		.uleb128 0x18
 5641 130a 691C0000 		.4byte	.LASF283
 5642 130e 10       		.byte	0x10
 5643 130f 4101     		.2byte	0x141
 5644 1311 E20A0000 		.4byte	0xae2
 5645 1315 24       		.byte	0x24
 5646 1316 18       		.uleb128 0x18
 5647 1317 AD230000 		.4byte	.LASF284
 5648 131b 10       		.byte	0x10
 5649 131c 4201     		.2byte	0x142
 5650 131e E20A0000 		.4byte	0xae2
 5651 1322 28       		.byte	0x28
 5652 1323 18       		.uleb128 0x18
 5653 1324 8A010000 		.4byte	.LASF285
 5654 1328 10       		.byte	0x10
 5655 1329 4301     		.2byte	0x143
 5656 132b E20A0000 		.4byte	0xae2
 5657 132f 2C       		.byte	0x2c
 5658 1330 18       		.uleb128 0x18
 5659 1331 8F010000 		.4byte	.LASF286
 5660 1335 10       		.byte	0x10
 5661 1336 4401     		.2byte	0x144
 5662 1338 E20A0000 		.4byte	0xae2
 5663 133c 30       		.byte	0x30
 5664 133d 24       		.uleb128 0x24
 5665 133e 535200   		.ascii	"SR\000"
 5666 1341 10       		.byte	0x10
 5667 1342 4501     		.2byte	0x145
 5668 1344 E20A0000 		.4byte	0xae2
 5669 1348 34       		.byte	0x34
 5670 1349 00       		.byte	0
 5671 134a 07       		.uleb128 0x7
 5672 134b CA1D0000 		.4byte	.LASF287
 5673 134f 10       		.byte	0x10
ARM GAS  /var/folders/qd/4mxf5pkd0zdf0b9dd1hp39180000gn/T//cc7TiL7h.s 			page 101


 5674 1350 4601     		.2byte	0x146
 5675 1352 8C120000 		.4byte	0x128c
 5676 1356 1C       		.uleb128 0x1c
 5677 1357 18       		.byte	0x18
 5678 1358 10       		.byte	0x10
 5679 1359 6B01     		.2byte	0x16b
 5680 135b AD130000 		.4byte	0x13ad
 5681 135f 24       		.uleb128 0x24
 5682 1360 435200   		.ascii	"CR\000"
 5683 1363 10       		.byte	0x10
 5684 1364 6D01     		.2byte	0x16d
 5685 1366 E20A0000 		.4byte	0xae2
 5686 136a 00       		.byte	0
 5687 136b 18       		.uleb128 0x18
 5688 136c B0200000 		.4byte	.LASF288
 5689 1370 10       		.byte	0x10
 5690 1371 6E01     		.2byte	0x16e
 5691 1373 E20A0000 		.4byte	0xae2
 5692 1377 04       		.byte	0x4
 5693 1378 24       		.uleb128 0x24
 5694 1379 50415200 		.ascii	"PAR\000"
 5695 137d 10       		.byte	0x10
 5696 137e 6F01     		.2byte	0x16f
 5697 1380 E20A0000 		.4byte	0xae2
 5698 1384 08       		.byte	0x8
 5699 1385 18       		.uleb128 0x18
 5700 1386 EA030000 		.4byte	.LASF289
 5701 138a 10       		.byte	0x10
 5702 138b 7001     		.2byte	0x170
 5703 138d E20A0000 		.4byte	0xae2
 5704 1391 0C       		.byte	0xc
 5705 1392 18       		.uleb128 0x18
 5706 1393 2F080000 		.4byte	.LASF290
 5707 1397 10       		.byte	0x10
 5708 1398 7101     		.2byte	0x171
 5709 139a E20A0000 		.4byte	0xae2
 5710 139e 10       		.byte	0x10
 5711 139f 24       		.uleb128 0x24
 5712 13a0 46435200 		.ascii	"FCR\000"
 5713 13a4 10       		.byte	0x10
 5714 13a5 7201     		.2byte	0x172
 5715 13a7 E20A0000 		.4byte	0xae2
 5716 13ab 14       		.byte	0x14
 5717 13ac 00       		.byte	0
 5718 13ad 07       		.uleb128 0x7
 5719 13ae 39080000 		.4byte	.LASF291
 5720 13b2 10       		.byte	0x10
 5721 13b3 7301     		.2byte	0x173
 5722 13b5 56130000 		.4byte	0x1356
 5723 13b9 0A       		.uleb128 0xa
 5724 13ba E20A0000 		.4byte	0xae2
 5725 13be C9130000 		.4byte	0x13c9
 5726 13c2 0B       		.uleb128 0xb
 5727 13c3 3E000000 		.4byte	0x3e
 5728 13c7 01       		.byte	0x1
 5729 13c8 00       		.byte	0
 5730 13c9 1A       		.uleb128 0x1a
ARM GAS  /var/folders/qd/4mxf5pkd0zdf0b9dd1hp39180000gn/T//cc7TiL7h.s 			page 102


 5731 13ca B9130000 		.4byte	0x13b9
 5732 13ce 0A       		.uleb128 0xa
 5733 13cf E20A0000 		.4byte	0xae2
 5734 13d3 DE130000 		.4byte	0x13de
 5735 13d7 0B       		.uleb128 0xb
 5736 13d8 3E000000 		.4byte	0x3e
 5737 13dc 03       		.byte	0x3
 5738 13dd 00       		.byte	0
 5739 13de 1A       		.uleb128 0x1a
 5740 13df CE130000 		.4byte	0x13ce
 5741 13e3 1C       		.uleb128 0x1c
 5742 13e4 28       		.byte	0x28
 5743 13e5 10       		.byte	0x10
 5744 13e6 3F02     		.2byte	0x23f
 5745 13e8 6E140000 		.4byte	0x146e
 5746 13ec 24       		.uleb128 0x24
 5747 13ed 43523100 		.ascii	"CR1\000"
 5748 13f1 10       		.byte	0x10
 5749 13f2 4102     		.2byte	0x241
 5750 13f4 E20A0000 		.4byte	0xae2
 5751 13f8 00       		.byte	0
 5752 13f9 24       		.uleb128 0x24
 5753 13fa 43523200 		.ascii	"CR2\000"
 5754 13fe 10       		.byte	0x10
 5755 13ff 4202     		.2byte	0x242
 5756 1401 E20A0000 		.4byte	0xae2
 5757 1405 04       		.byte	0x4
 5758 1406 18       		.uleb128 0x18
 5759 1407 54260000 		.4byte	.LASF292
 5760 140b 10       		.byte	0x10
 5761 140c 4302     		.2byte	0x243
 5762 140e E20A0000 		.4byte	0xae2
 5763 1412 08       		.byte	0x8
 5764 1413 18       		.uleb128 0x18
 5765 1414 59260000 		.4byte	.LASF293
 5766 1418 10       		.byte	0x10
 5767 1419 4402     		.2byte	0x244
 5768 141b E20A0000 		.4byte	0xae2
 5769 141f 0C       		.byte	0xc
 5770 1420 24       		.uleb128 0x24
 5771 1421 445200   		.ascii	"DR\000"
 5772 1424 10       		.byte	0x10
 5773 1425 4502     		.2byte	0x245
 5774 1427 E20A0000 		.4byte	0xae2
 5775 142b 10       		.byte	0x10
 5776 142c 24       		.uleb128 0x24
 5777 142d 53523100 		.ascii	"SR1\000"
 5778 1431 10       		.byte	0x10
 5779 1432 4602     		.2byte	0x246
 5780 1434 E20A0000 		.4byte	0xae2
 5781 1438 14       		.byte	0x14
 5782 1439 24       		.uleb128 0x24
 5783 143a 53523200 		.ascii	"SR2\000"
 5784 143e 10       		.byte	0x10
 5785 143f 4702     		.2byte	0x247
 5786 1441 E20A0000 		.4byte	0xae2
 5787 1445 18       		.byte	0x18
ARM GAS  /var/folders/qd/4mxf5pkd0zdf0b9dd1hp39180000gn/T//cc7TiL7h.s 			page 103


 5788 1446 24       		.uleb128 0x24
 5789 1447 43435200 		.ascii	"CCR\000"
 5790 144b 10       		.byte	0x10
 5791 144c 4802     		.2byte	0x248
 5792 144e E20A0000 		.4byte	0xae2
 5793 1452 1C       		.byte	0x1c
 5794 1453 18       		.uleb128 0x18
 5795 1454 5F050000 		.4byte	.LASF294
 5796 1458 10       		.byte	0x10
 5797 1459 4902     		.2byte	0x249
 5798 145b E20A0000 		.4byte	0xae2
 5799 145f 20       		.byte	0x20
 5800 1460 18       		.uleb128 0x18
 5801 1461 E7240000 		.4byte	.LASF295
 5802 1465 10       		.byte	0x10
 5803 1466 4A02     		.2byte	0x24a
 5804 1468 E20A0000 		.4byte	0xae2
 5805 146c 24       		.byte	0x24
 5806 146d 00       		.byte	0
 5807 146e 07       		.uleb128 0x7
 5808 146f 60130000 		.4byte	.LASF296
 5809 1473 10       		.byte	0x10
 5810 1474 4B02     		.2byte	0x24b
 5811 1476 E3130000 		.4byte	0x13e3
 5812 147a 1C       		.uleb128 0x1c
 5813 147b 84       		.byte	0x84
 5814 147c 10       		.byte	0x10
 5815 147d BF02     		.2byte	0x2bf
 5816 147f 88150000 		.4byte	0x1588
 5817 1483 18       		.uleb128 0x18
 5818 1484 16180000 		.4byte	.LASF297
 5819 1488 10       		.byte	0x10
 5820 1489 C102     		.2byte	0x2c1
 5821 148b E20A0000 		.4byte	0xae2
 5822 148f 00       		.byte	0
 5823 1490 18       		.uleb128 0x18
 5824 1491 00220000 		.4byte	.LASF298
 5825 1495 10       		.byte	0x10
 5826 1496 C202     		.2byte	0x2c2
 5827 1498 E20A0000 		.4byte	0xae2
 5828 149c 04       		.byte	0x4
 5829 149d 24       		.uleb128 0x24
 5830 149e 41524700 		.ascii	"ARG\000"
 5831 14a2 10       		.byte	0x10
 5832 14a3 C302     		.2byte	0x2c3
 5833 14a5 E20A0000 		.4byte	0xae2
 5834 14a9 08       		.byte	0x8
 5835 14aa 24       		.uleb128 0x24
 5836 14ab 434D4400 		.ascii	"CMD\000"
 5837 14af 10       		.byte	0x10
 5838 14b0 C402     		.2byte	0x2c4
 5839 14b2 E20A0000 		.4byte	0xae2
 5840 14b6 0C       		.byte	0xc
 5841 14b7 18       		.uleb128 0x18
 5842 14b8 031B0000 		.4byte	.LASF299
 5843 14bc 10       		.byte	0x10
 5844 14bd C502     		.2byte	0x2c5
ARM GAS  /var/folders/qd/4mxf5pkd0zdf0b9dd1hp39180000gn/T//cc7TiL7h.s 			page 104


 5845 14bf E70A0000 		.4byte	0xae7
 5846 14c3 10       		.byte	0x10
 5847 14c4 18       		.uleb128 0x18
 5848 14c5 75060000 		.4byte	.LASF300
 5849 14c9 10       		.byte	0x10
 5850 14ca C602     		.2byte	0x2c6
 5851 14cc E70A0000 		.4byte	0xae7
 5852 14d0 14       		.byte	0x14
 5853 14d1 18       		.uleb128 0x18
 5854 14d2 7B060000 		.4byte	.LASF301
 5855 14d6 10       		.byte	0x10
 5856 14d7 C702     		.2byte	0x2c7
 5857 14d9 E70A0000 		.4byte	0xae7
 5858 14dd 18       		.byte	0x18
 5859 14de 18       		.uleb128 0x18
 5860 14df 81060000 		.4byte	.LASF302
 5861 14e3 10       		.byte	0x10
 5862 14e4 C802     		.2byte	0x2c8
 5863 14e6 E70A0000 		.4byte	0xae7
 5864 14ea 1C       		.byte	0x1c
 5865 14eb 18       		.uleb128 0x18
 5866 14ec 87060000 		.4byte	.LASF303
 5867 14f0 10       		.byte	0x10
 5868 14f1 C902     		.2byte	0x2c9
 5869 14f3 E70A0000 		.4byte	0xae7
 5870 14f7 20       		.byte	0x20
 5871 14f8 18       		.uleb128 0x18
 5872 14f9 FA140000 		.4byte	.LASF304
 5873 14fd 10       		.byte	0x10
 5874 14fe CA02     		.2byte	0x2ca
 5875 1500 E20A0000 		.4byte	0xae2
 5876 1504 24       		.byte	0x24
 5877 1505 18       		.uleb128 0x18
 5878 1506 A7160000 		.4byte	.LASF305
 5879 150a 10       		.byte	0x10
 5880 150b CB02     		.2byte	0x2cb
 5881 150d E20A0000 		.4byte	0xae2
 5882 1511 28       		.byte	0x28
 5883 1512 18       		.uleb128 0x18
 5884 1513 D3240000 		.4byte	.LASF306
 5885 1517 10       		.byte	0x10
 5886 1518 CC02     		.2byte	0x2cc
 5887 151a E20A0000 		.4byte	0xae2
 5888 151e 2C       		.byte	0x2c
 5889 151f 18       		.uleb128 0x18
 5890 1520 4D260000 		.4byte	.LASF307
 5891 1524 10       		.byte	0x10
 5892 1525 CD02     		.2byte	0x2cd
 5893 1527 E70A0000 		.4byte	0xae7
 5894 152b 30       		.byte	0x30
 5895 152c 24       		.uleb128 0x24
 5896 152d 53544100 		.ascii	"STA\000"
 5897 1531 10       		.byte	0x10
 5898 1532 CE02     		.2byte	0x2ce
 5899 1534 E70A0000 		.4byte	0xae7
 5900 1538 34       		.byte	0x34
 5901 1539 24       		.uleb128 0x24
ARM GAS  /var/folders/qd/4mxf5pkd0zdf0b9dd1hp39180000gn/T//cc7TiL7h.s 			page 105


 5902 153a 49435200 		.ascii	"ICR\000"
 5903 153e 10       		.byte	0x10
 5904 153f CF02     		.2byte	0x2cf
 5905 1541 E20A0000 		.4byte	0xae2
 5906 1545 38       		.byte	0x38
 5907 1546 18       		.uleb128 0x18
 5908 1547 CE010000 		.4byte	.LASF308
 5909 154b 10       		.byte	0x10
 5910 154c D002     		.2byte	0x2d0
 5911 154e E20A0000 		.4byte	0xae2
 5912 1552 3C       		.byte	0x3c
 5913 1553 18       		.uleb128 0x18
 5914 1554 771F0000 		.4byte	.LASF261
 5915 1558 10       		.byte	0x10
 5916 1559 D102     		.2byte	0x2d1
 5917 155b 090F0000 		.4byte	0xf09
 5918 155f 40       		.byte	0x40
 5919 1560 18       		.uleb128 0x18
 5920 1561 9F150000 		.4byte	.LASF309
 5921 1565 10       		.byte	0x10
 5922 1566 D202     		.2byte	0x2d2
 5923 1568 E70A0000 		.4byte	0xae7
 5924 156c 48       		.byte	0x48
 5925 156d 18       		.uleb128 0x18
 5926 156e 811F0000 		.4byte	.LASF264
 5927 1572 10       		.byte	0x10
 5928 1573 D302     		.2byte	0x2d3
 5929 1575 88150000 		.4byte	0x1588
 5930 1579 4C       		.byte	0x4c
 5931 157a 18       		.uleb128 0x18
 5932 157b 95090000 		.4byte	.LASF310
 5933 157f 10       		.byte	0x10
 5934 1580 D402     		.2byte	0x2d4
 5935 1582 E20A0000 		.4byte	0xae2
 5936 1586 80       		.byte	0x80
 5937 1587 00       		.byte	0
 5938 1588 0A       		.uleb128 0xa
 5939 1589 D70A0000 		.4byte	0xad7
 5940 158d 98150000 		.4byte	0x1598
 5941 1591 0B       		.uleb128 0xb
 5942 1592 3E000000 		.4byte	0x3e
 5943 1596 0C       		.byte	0xc
 5944 1597 00       		.byte	0
 5945 1598 07       		.uleb128 0x7
 5946 1599 96200000 		.4byte	.LASF311
 5947 159d 10       		.byte	0x10
 5948 159e D502     		.2byte	0x2d5
 5949 15a0 7A140000 		.4byte	0x147a
 5950 15a4 1C       		.uleb128 0x1c
 5951 15a5 24       		.byte	0x24
 5952 15a6 10       		.byte	0x10
 5953 15a7 DB02     		.2byte	0x2db
 5954 15a9 21160000 		.4byte	0x1621
 5955 15ad 24       		.uleb128 0x24
 5956 15ae 43523100 		.ascii	"CR1\000"
 5957 15b2 10       		.byte	0x10
 5958 15b3 DD02     		.2byte	0x2dd
ARM GAS  /var/folders/qd/4mxf5pkd0zdf0b9dd1hp39180000gn/T//cc7TiL7h.s 			page 106


 5959 15b5 E20A0000 		.4byte	0xae2
 5960 15b9 00       		.byte	0
 5961 15ba 24       		.uleb128 0x24
 5962 15bb 43523200 		.ascii	"CR2\000"
 5963 15bf 10       		.byte	0x10
 5964 15c0 DE02     		.2byte	0x2de
 5965 15c2 E20A0000 		.4byte	0xae2
 5966 15c6 04       		.byte	0x4
 5967 15c7 24       		.uleb128 0x24
 5968 15c8 535200   		.ascii	"SR\000"
 5969 15cb 10       		.byte	0x10
 5970 15cc DF02     		.2byte	0x2df
 5971 15ce E20A0000 		.4byte	0xae2
 5972 15d2 08       		.byte	0x8
 5973 15d3 24       		.uleb128 0x24
 5974 15d4 445200   		.ascii	"DR\000"
 5975 15d7 10       		.byte	0x10
 5976 15d8 E002     		.2byte	0x2e0
 5977 15da E20A0000 		.4byte	0xae2
 5978 15de 0C       		.byte	0xc
 5979 15df 18       		.uleb128 0x18
 5980 15e0 AB070000 		.4byte	.LASF312
 5981 15e4 10       		.byte	0x10
 5982 15e5 E102     		.2byte	0x2e1
 5983 15e7 E20A0000 		.4byte	0xae2
 5984 15eb 10       		.byte	0x10
 5985 15ec 18       		.uleb128 0x18
 5986 15ed 930B0000 		.4byte	.LASF313
 5987 15f1 10       		.byte	0x10
 5988 15f2 E202     		.2byte	0x2e2
 5989 15f4 E20A0000 		.4byte	0xae2
 5990 15f8 14       		.byte	0x14
 5991 15f9 18       		.uleb128 0x18
 5992 15fa B70A0000 		.4byte	.LASF314
 5993 15fe 10       		.byte	0x10
 5994 15ff E302     		.2byte	0x2e3
 5995 1601 E20A0000 		.4byte	0xae2
 5996 1605 18       		.byte	0x18
 5997 1606 18       		.uleb128 0x18
 5998 1607 F6220000 		.4byte	.LASF315
 5999 160b 10       		.byte	0x10
 6000 160c E402     		.2byte	0x2e4
 6001 160e E20A0000 		.4byte	0xae2
 6002 1612 1C       		.byte	0x1c
 6003 1613 18       		.uleb128 0x18
 6004 1614 6E070000 		.4byte	.LASF316
 6005 1618 10       		.byte	0x10
 6006 1619 E502     		.2byte	0x2e5
 6007 161b E20A0000 		.4byte	0xae2
 6008 161f 20       		.byte	0x20
 6009 1620 00       		.byte	0
 6010 1621 07       		.uleb128 0x7
 6011 1622 F9200000 		.4byte	.LASF317
 6012 1626 10       		.byte	0x10
 6013 1627 E602     		.2byte	0x2e6
 6014 1629 A4150000 		.4byte	0x15a4
 6015 162d 1C       		.uleb128 0x1c
ARM GAS  /var/folders/qd/4mxf5pkd0zdf0b9dd1hp39180000gn/T//cc7TiL7h.s 			page 107


 6016 162e 1C       		.byte	0x1c
 6017 162f 10       		.byte	0x10
 6018 1630 0903     		.2byte	0x309
 6019 1632 90160000 		.4byte	0x1690
 6020 1636 24       		.uleb128 0x24
 6021 1637 535200   		.ascii	"SR\000"
 6022 163a 10       		.byte	0x10
 6023 163b 0B03     		.2byte	0x30b
 6024 163d E20A0000 		.4byte	0xae2
 6025 1641 00       		.byte	0
 6026 1642 24       		.uleb128 0x24
 6027 1643 445200   		.ascii	"DR\000"
 6028 1646 10       		.byte	0x10
 6029 1647 0C03     		.2byte	0x30c
 6030 1649 E20A0000 		.4byte	0xae2
 6031 164d 04       		.byte	0x4
 6032 164e 24       		.uleb128 0x24
 6033 164f 42525200 		.ascii	"BRR\000"
 6034 1653 10       		.byte	0x10
 6035 1654 0D03     		.2byte	0x30d
 6036 1656 E20A0000 		.4byte	0xae2
 6037 165a 08       		.byte	0x8
 6038 165b 24       		.uleb128 0x24
 6039 165c 43523100 		.ascii	"CR1\000"
 6040 1660 10       		.byte	0x10
 6041 1661 0E03     		.2byte	0x30e
 6042 1663 E20A0000 		.4byte	0xae2
 6043 1667 0C       		.byte	0xc
 6044 1668 24       		.uleb128 0x24
 6045 1669 43523200 		.ascii	"CR2\000"
 6046 166d 10       		.byte	0x10
 6047 166e 0F03     		.2byte	0x30f
 6048 1670 E20A0000 		.4byte	0xae2
 6049 1674 10       		.byte	0x10
 6050 1675 24       		.uleb128 0x24
 6051 1676 43523300 		.ascii	"CR3\000"
 6052 167a 10       		.byte	0x10
 6053 167b 1003     		.2byte	0x310
 6054 167d E20A0000 		.4byte	0xae2
 6055 1681 14       		.byte	0x14
 6056 1682 18       		.uleb128 0x18
 6057 1683 F50E0000 		.4byte	.LASF318
 6058 1687 10       		.byte	0x10
 6059 1688 1103     		.2byte	0x311
 6060 168a E20A0000 		.4byte	0xae2
 6061 168e 18       		.byte	0x18
 6062 168f 00       		.byte	0
 6063 1690 07       		.uleb128 0x7
 6064 1691 B0250000 		.4byte	.LASF319
 6065 1695 10       		.byte	0x10
 6066 1696 1203     		.2byte	0x312
 6067 1698 2D160000 		.4byte	0x162d
 6068 169c 0A       		.uleb128 0xa
 6069 169d E20A0000 		.4byte	0xae2
 6070 16a1 AC160000 		.4byte	0x16ac
 6071 16a5 0B       		.uleb128 0xb
 6072 16a6 3E000000 		.4byte	0x3e
ARM GAS  /var/folders/qd/4mxf5pkd0zdf0b9dd1hp39180000gn/T//cc7TiL7h.s 			page 108


 6073 16aa 0E       		.byte	0xe
 6074 16ab 00       		.byte	0
 6075 16ac 1A       		.uleb128 0x1a
 6076 16ad 9C160000 		.4byte	0x169c
 6077 16b1 04       		.uleb128 0x4
 6078 16b2 4D1A0000 		.4byte	.LASF320
 6079 16b6 11       		.byte	0x11
 6080 16b7 65       		.byte	0x65
 6081 16b8 64010000 		.4byte	0x164
 6082 16bc 04       		.uleb128 0x4
 6083 16bd 8E0D0000 		.4byte	.LASF321
 6084 16c1 11       		.byte	0x11
 6085 16c2 6D       		.byte	0x6d
 6086 16c3 EC0A0000 		.4byte	0xaec
 6087 16c7 10       		.uleb128 0x10
 6088 16c8 B4130000 		.4byte	.LASF322
 6089 16cc 04       		.byte	0x4
 6090 16cd 11       		.byte	0x11
 6091 16ce 89       		.byte	0x89
 6092 16cf E0160000 		.4byte	0x16e0
 6093 16d3 11       		.uleb128 0x11
 6094 16d4 72313300 		.ascii	"r13\000"
 6095 16d8 11       		.byte	0x11
 6096 16d9 8A       		.byte	0x8a
 6097 16da 21180000 		.4byte	0x1821
 6098 16de 00       		.byte	0
 6099 16df 00       		.byte	0
 6100 16e0 10       		.uleb128 0x10
 6101 16e1 1E000000 		.4byte	.LASF323
 6102 16e5 64       		.byte	0x64
 6103 16e6 12       		.byte	0x12
 6104 16e7 F4       		.byte	0xf4
 6105 16e8 21180000 		.4byte	0x1821
 6106 16ec 11       		.uleb128 0x11
 6107 16ed 73313600 		.ascii	"s16\000"
 6108 16f1 12       		.byte	0x12
 6109 16f2 F6       		.byte	0xf6
 6110 16f3 B1160000 		.4byte	0x16b1
 6111 16f7 00       		.byte	0
 6112 16f8 11       		.uleb128 0x11
 6113 16f9 73313700 		.ascii	"s17\000"
 6114 16fd 12       		.byte	0x12
 6115 16fe F7       		.byte	0xf7
 6116 16ff B1160000 		.4byte	0x16b1
 6117 1703 04       		.byte	0x4
 6118 1704 11       		.uleb128 0x11
 6119 1705 73313800 		.ascii	"s18\000"
 6120 1709 12       		.byte	0x12
 6121 170a F8       		.byte	0xf8
 6122 170b B1160000 		.4byte	0x16b1
 6123 170f 08       		.byte	0x8
 6124 1710 11       		.uleb128 0x11
 6125 1711 73313900 		.ascii	"s19\000"
 6126 1715 12       		.byte	0x12
 6127 1716 F9       		.byte	0xf9
 6128 1717 B1160000 		.4byte	0x16b1
 6129 171b 0C       		.byte	0xc
ARM GAS  /var/folders/qd/4mxf5pkd0zdf0b9dd1hp39180000gn/T//cc7TiL7h.s 			page 109


 6130 171c 11       		.uleb128 0x11
 6131 171d 73323000 		.ascii	"s20\000"
 6132 1721 12       		.byte	0x12
 6133 1722 FA       		.byte	0xfa
 6134 1723 B1160000 		.4byte	0x16b1
 6135 1727 10       		.byte	0x10
 6136 1728 11       		.uleb128 0x11
 6137 1729 73323100 		.ascii	"s21\000"
 6138 172d 12       		.byte	0x12
 6139 172e FB       		.byte	0xfb
 6140 172f B1160000 		.4byte	0x16b1
 6141 1733 14       		.byte	0x14
 6142 1734 11       		.uleb128 0x11
 6143 1735 73323200 		.ascii	"s22\000"
 6144 1739 12       		.byte	0x12
 6145 173a FC       		.byte	0xfc
 6146 173b B1160000 		.4byte	0x16b1
 6147 173f 18       		.byte	0x18
 6148 1740 11       		.uleb128 0x11
 6149 1741 73323300 		.ascii	"s23\000"
 6150 1745 12       		.byte	0x12
 6151 1746 FD       		.byte	0xfd
 6152 1747 B1160000 		.4byte	0x16b1
 6153 174b 1C       		.byte	0x1c
 6154 174c 11       		.uleb128 0x11
 6155 174d 73323400 		.ascii	"s24\000"
 6156 1751 12       		.byte	0x12
 6157 1752 FE       		.byte	0xfe
 6158 1753 B1160000 		.4byte	0x16b1
 6159 1757 20       		.byte	0x20
 6160 1758 11       		.uleb128 0x11
 6161 1759 73323500 		.ascii	"s25\000"
 6162 175d 12       		.byte	0x12
 6163 175e FF       		.byte	0xff
 6164 175f B1160000 		.4byte	0x16b1
 6165 1763 24       		.byte	0x24
 6166 1764 24       		.uleb128 0x24
 6167 1765 73323600 		.ascii	"s26\000"
 6168 1769 12       		.byte	0x12
 6169 176a 0001     		.2byte	0x100
 6170 176c B1160000 		.4byte	0x16b1
 6171 1770 28       		.byte	0x28
 6172 1771 24       		.uleb128 0x24
 6173 1772 73323700 		.ascii	"s27\000"
 6174 1776 12       		.byte	0x12
 6175 1777 0101     		.2byte	0x101
 6176 1779 B1160000 		.4byte	0x16b1
 6177 177d 2C       		.byte	0x2c
 6178 177e 24       		.uleb128 0x24
 6179 177f 73323800 		.ascii	"s28\000"
 6180 1783 12       		.byte	0x12
 6181 1784 0201     		.2byte	0x102
 6182 1786 B1160000 		.4byte	0x16b1
 6183 178a 30       		.byte	0x30
 6184 178b 24       		.uleb128 0x24
 6185 178c 73323900 		.ascii	"s29\000"
 6186 1790 12       		.byte	0x12
ARM GAS  /var/folders/qd/4mxf5pkd0zdf0b9dd1hp39180000gn/T//cc7TiL7h.s 			page 110


 6187 1791 0301     		.2byte	0x103
 6188 1793 B1160000 		.4byte	0x16b1
 6189 1797 34       		.byte	0x34
 6190 1798 24       		.uleb128 0x24
 6191 1799 73333000 		.ascii	"s30\000"
 6192 179d 12       		.byte	0x12
 6193 179e 0401     		.2byte	0x104
 6194 17a0 B1160000 		.4byte	0x16b1
 6195 17a4 38       		.byte	0x38
 6196 17a5 24       		.uleb128 0x24
 6197 17a6 73333100 		.ascii	"s31\000"
 6198 17aa 12       		.byte	0x12
 6199 17ab 0501     		.2byte	0x105
 6200 17ad B1160000 		.4byte	0x16b1
 6201 17b1 3C       		.byte	0x3c
 6202 17b2 24       		.uleb128 0x24
 6203 17b3 723400   		.ascii	"r4\000"
 6204 17b6 12       		.byte	0x12
 6205 17b7 0701     		.2byte	0x107
 6206 17b9 B1160000 		.4byte	0x16b1
 6207 17bd 40       		.byte	0x40
 6208 17be 24       		.uleb128 0x24
 6209 17bf 723500   		.ascii	"r5\000"
 6210 17c2 12       		.byte	0x12
 6211 17c3 0801     		.2byte	0x108
 6212 17c5 B1160000 		.4byte	0x16b1
 6213 17c9 44       		.byte	0x44
 6214 17ca 24       		.uleb128 0x24
 6215 17cb 723600   		.ascii	"r6\000"
 6216 17ce 12       		.byte	0x12
 6217 17cf 0901     		.2byte	0x109
 6218 17d1 B1160000 		.4byte	0x16b1
 6219 17d5 48       		.byte	0x48
 6220 17d6 24       		.uleb128 0x24
 6221 17d7 723700   		.ascii	"r7\000"
 6222 17da 12       		.byte	0x12
 6223 17db 0A01     		.2byte	0x10a
 6224 17dd B1160000 		.4byte	0x16b1
 6225 17e1 4C       		.byte	0x4c
 6226 17e2 24       		.uleb128 0x24
 6227 17e3 723800   		.ascii	"r8\000"
 6228 17e6 12       		.byte	0x12
 6229 17e7 0B01     		.2byte	0x10b
 6230 17e9 B1160000 		.4byte	0x16b1
 6231 17ed 50       		.byte	0x50
 6232 17ee 24       		.uleb128 0x24
 6233 17ef 723900   		.ascii	"r9\000"
 6234 17f2 12       		.byte	0x12
 6235 17f3 0C01     		.2byte	0x10c
 6236 17f5 B1160000 		.4byte	0x16b1
 6237 17f9 54       		.byte	0x54
 6238 17fa 24       		.uleb128 0x24
 6239 17fb 72313000 		.ascii	"r10\000"
 6240 17ff 12       		.byte	0x12
 6241 1800 0D01     		.2byte	0x10d
 6242 1802 B1160000 		.4byte	0x16b1
 6243 1806 58       		.byte	0x58
ARM GAS  /var/folders/qd/4mxf5pkd0zdf0b9dd1hp39180000gn/T//cc7TiL7h.s 			page 111


 6244 1807 24       		.uleb128 0x24
 6245 1808 72313100 		.ascii	"r11\000"
 6246 180c 12       		.byte	0x12
 6247 180d 0E01     		.2byte	0x10e
 6248 180f B1160000 		.4byte	0x16b1
 6249 1813 5C       		.byte	0x5c
 6250 1814 24       		.uleb128 0x24
 6251 1815 6C7200   		.ascii	"lr\000"
 6252 1818 12       		.byte	0x12
 6253 1819 0F01     		.2byte	0x10f
 6254 181b B1160000 		.4byte	0x16b1
 6255 181f 60       		.byte	0x60
 6256 1820 00       		.byte	0
 6257 1821 05       		.uleb128 0x5
 6258 1822 04       		.byte	0x4
 6259 1823 E0160000 		.4byte	0x16e0
 6260 1827 0C       		.uleb128 0xc
 6261 1828 10       		.byte	0x10
 6262 1829 13       		.byte	0x13
 6263 182a 51       		.byte	0x51
 6264 182b 60180000 		.4byte	0x1860
 6265 182f 0D       		.uleb128 0xd
 6266 1830 EB1F0000 		.4byte	.LASF324
 6267 1834 13       		.byte	0x13
 6268 1835 55       		.byte	0x55
 6269 1836 7B0B0000 		.4byte	0xb7b
 6270 183a 00       		.byte	0
 6271 183b 0D       		.uleb128 0xd
 6272 183c CF1A0000 		.4byte	.LASF325
 6273 1840 13       		.byte	0x13
 6274 1841 59       		.byte	0x59
 6275 1842 BF0C0000 		.4byte	0xcbf
 6276 1846 04       		.byte	0x4
 6277 1847 0D       		.uleb128 0xd
 6278 1848 990C0000 		.4byte	.LASF326
 6279 184c 13       		.byte	0x13
 6280 184d 5D       		.byte	0x5d
 6281 184e 64010000 		.4byte	0x164
 6282 1852 08       		.byte	0x8
 6283 1853 0D       		.uleb128 0xd
 6284 1854 480A0000 		.4byte	.LASF327
 6285 1858 13       		.byte	0x13
 6286 1859 61       		.byte	0x61
 6287 185a A10A0000 		.4byte	0xaa1
 6288 185e 0C       		.byte	0xc
 6289 185f 00       		.byte	0
 6290 1860 04       		.uleb128 0x4
 6291 1861 990D0000 		.4byte	.LASF328
 6292 1865 13       		.byte	0x13
 6293 1866 62       		.byte	0x62
 6294 1867 27180000 		.4byte	0x1827
 6295 186b 28       		.uleb128 0x28
 6296 186c 0804     		.2byte	0x408
 6297 186e 13       		.byte	0x13
 6298 186f 67       		.byte	0x67
 6299 1870 99180000 		.4byte	0x1899
 6300 1874 0D       		.uleb128 0xd
ARM GAS  /var/folders/qd/4mxf5pkd0zdf0b9dd1hp39180000gn/T//cc7TiL7h.s 			page 112


 6301 1875 760E0000 		.4byte	.LASF329
 6302 1879 13       		.byte	0x13
 6303 187a 6B       		.byte	0x6b
 6304 187b 3E000000 		.4byte	0x3e
 6305 187f 00       		.byte	0
 6306 1880 0D       		.uleb128 0xd
 6307 1881 CE150000 		.4byte	.LASF330
 6308 1885 13       		.byte	0x13
 6309 1886 6F       		.byte	0x6f
 6310 1887 99180000 		.4byte	0x1899
 6311 188b 04       		.byte	0x4
 6312 188c 0D       		.uleb128 0xd
 6313 188d 9A090000 		.4byte	.LASF331
 6314 1891 13       		.byte	0x13
 6315 1892 73       		.byte	0x73
 6316 1893 9F180000 		.4byte	0x189f
 6317 1897 08       		.byte	0x8
 6318 1898 00       		.byte	0
 6319 1899 05       		.uleb128 0x5
 6320 189a 04       		.byte	0x4
 6321 189b 60180000 		.4byte	0x1860
 6322 189f 0A       		.uleb128 0xa
 6323 18a0 60180000 		.4byte	0x1860
 6324 18a4 AF180000 		.4byte	0x18af
 6325 18a8 0B       		.uleb128 0xb
 6326 18a9 3E000000 		.4byte	0x3e
 6327 18ad 3F       		.byte	0x3f
 6328 18ae 00       		.byte	0
 6329 18af 04       		.uleb128 0x4
 6330 18b0 2A000000 		.4byte	.LASF332
 6331 18b4 13       		.byte	0x13
 6332 18b5 74       		.byte	0x74
 6333 18b6 6B180000 		.4byte	0x186b
 6334 18ba 0C       		.uleb128 0xc
 6335 18bb 04       		.byte	0x4
 6336 18bc 14       		.byte	0x14
 6337 18bd 38       		.byte	0x38
 6338 18be CF180000 		.4byte	0x18cf
 6339 18c2 0D       		.uleb128 0xd
 6340 18c3 A3200000 		.4byte	.LASF333
 6341 18c7 14       		.byte	0x14
 6342 18c8 3C       		.byte	0x3c
 6343 18c9 F70A0000 		.4byte	0xaf7
 6344 18cd 00       		.byte	0
 6345 18ce 00       		.byte	0
 6346 18cf 04       		.uleb128 0x4
 6347 18d0 BC050000 		.4byte	.LASF334
 6348 18d4 14       		.byte	0x14
 6349 18d5 3D       		.byte	0x3d
 6350 18d6 BA180000 		.4byte	0x18ba
 6351 18da 0C       		.uleb128 0xc
 6352 18db 18       		.byte	0x18
 6353 18dc 14       		.byte	0x14
 6354 18dd 48       		.byte	0x48
 6355 18de 1D190000 		.4byte	0x191d
 6356 18e2 0D       		.uleb128 0xd
 6357 18e3 7F070000 		.4byte	.LASF335
ARM GAS  /var/folders/qd/4mxf5pkd0zdf0b9dd1hp39180000gn/T//cc7TiL7h.s 			page 113


 6358 18e7 14       		.byte	0x14
 6359 18e8 49       		.byte	0x49
 6360 18e9 F70A0000 		.4byte	0xaf7
 6361 18ed 00       		.byte	0
 6362 18ee 0D       		.uleb128 0xd
 6363 18ef 79010000 		.4byte	.LASF336
 6364 18f3 14       		.byte	0x14
 6365 18f4 4A       		.byte	0x4a
 6366 18f5 F70A0000 		.4byte	0xaf7
 6367 18f9 04       		.byte	0x4
 6368 18fa 0D       		.uleb128 0xd
 6369 18fb E8190000 		.4byte	.LASF337
 6370 18ff 14       		.byte	0x14
 6371 1900 4B       		.byte	0x4b
 6372 1901 F70A0000 		.4byte	0xaf7
 6373 1905 08       		.byte	0x8
 6374 1906 11       		.uleb128 0x11
 6375 1907 6E00     		.ascii	"n\000"
 6376 1909 14       		.byte	0x14
 6377 190a 4C       		.byte	0x4c
 6378 190b 700B0000 		.4byte	0xb70
 6379 190f 0C       		.byte	0xc
 6380 1910 0D       		.uleb128 0xd
 6381 1911 8C190000 		.4byte	.LASF338
 6382 1915 14       		.byte	0x14
 6383 1916 4D       		.byte	0x4d
 6384 1917 020B0000 		.4byte	0xb02
 6385 191b 10       		.byte	0x10
 6386 191c 00       		.byte	0
 6387 191d 04       		.uleb128 0x4
 6388 191e 3E230000 		.4byte	.LASF339
 6389 1922 14       		.byte	0x14
 6390 1923 4E       		.byte	0x4e
 6391 1924 DA180000 		.4byte	0x18da
 6392 1928 0C       		.uleb128 0xc
 6393 1929 38       		.byte	0x38
 6394 192a 15       		.byte	0x15
 6395 192b 38       		.byte	0x38
 6396 192c 61190000 		.4byte	0x1961
 6397 1930 0D       		.uleb128 0xd
 6398 1931 DE060000 		.4byte	.LASF340
 6399 1935 15       		.byte	0x15
 6400 1936 39       		.byte	0x39
 6401 1937 700B0000 		.4byte	0xb70
 6402 193b 00       		.byte	0
 6403 193c 0D       		.uleb128 0xd
 6404 193d F00A0000 		.4byte	.LASF341
 6405 1941 15       		.byte	0x15
 6406 1942 3A       		.byte	0x3a
 6407 1943 700B0000 		.4byte	0xb70
 6408 1947 04       		.byte	0x4
 6409 1948 0D       		.uleb128 0xd
 6410 1949 D9220000 		.4byte	.LASF342
 6411 194d 15       		.byte	0x15
 6412 194e 3B       		.byte	0x3b
 6413 194f 1D190000 		.4byte	0x191d
 6414 1953 08       		.byte	0x8
ARM GAS  /var/folders/qd/4mxf5pkd0zdf0b9dd1hp39180000gn/T//cc7TiL7h.s 			page 114


 6415 1954 0D       		.uleb128 0xd
 6416 1955 84000000 		.4byte	.LASF343
 6417 1959 15       		.byte	0x15
 6418 195a 3D       		.byte	0x3d
 6419 195b 1D190000 		.4byte	0x191d
 6420 195f 20       		.byte	0x20
 6421 1960 00       		.byte	0
 6422 1961 04       		.uleb128 0x4
 6423 1962 78050000 		.4byte	.LASF344
 6424 1966 15       		.byte	0x15
 6425 1967 3F       		.byte	0x3f
 6426 1968 28190000 		.4byte	0x1928
 6427 196c 08       		.uleb128 0x8
 6428 196d 04       		.byte	0x4
 6429 196e 0D       		.byte	0xd
 6430 196f FA       		.byte	0xfa
 6431 1970 C9190000 		.4byte	0x19c9
 6432 1974 1E       		.uleb128 0x1e
 6433 1975 91110000 		.4byte	.LASF345
 6434 1979 0D       		.byte	0xd
 6435 197a 0101     		.2byte	0x101
 6436 197c 440B0000 		.4byte	0xb44
 6437 1980 1E       		.uleb128 0x1e
 6438 1981 26080000 		.4byte	.LASF346
 6439 1985 0D       		.byte	0xd
 6440 1986 0801     		.2byte	0x108
 6441 1988 440B0000 		.4byte	0xb44
 6442 198c 1E       		.uleb128 0x1e
 6443 198d D61D0000 		.4byte	.LASF347
 6444 1991 0D       		.byte	0xd
 6445 1992 0F01     		.2byte	0x10f
 6446 1994 64010000 		.4byte	0x164
 6447 1998 1E       		.uleb128 0x1e
 6448 1999 AD190000 		.4byte	.LASF348
 6449 199d 0D       		.byte	0xd
 6450 199e 1601     		.2byte	0x116
 6451 19a0 C9190000 		.4byte	0x19c9
 6452 19a4 1E       		.uleb128 0x1e
 6453 19a5 F8000000 		.4byte	.LASF349
 6454 19a9 0D       		.byte	0xd
 6455 19aa 1E01     		.2byte	0x11e
 6456 19ac F4190000 		.4byte	0x19f4
 6457 19b0 1E       		.uleb128 0x1e
 6458 19b1 1D1E0000 		.4byte	.LASF350
 6459 19b5 0D       		.byte	0xd
 6460 19b6 2701     		.2byte	0x127
 6461 19b8 371A0000 		.4byte	0x1a37
 6462 19bc 1E       		.uleb128 0x1e
 6463 19bd 3A210000 		.4byte	.LASF351
 6464 19c1 0D       		.byte	0xd
 6465 19c2 2F01     		.2byte	0x12f
 6466 19c4 4F0B0000 		.4byte	0xb4f
 6467 19c8 00       		.byte	0
 6468 19c9 05       		.uleb128 0x5
 6469 19ca 04       		.byte	0x4
 6470 19cb B40C0000 		.4byte	0xcb4
 6471 19cf 10       		.uleb128 0x10
ARM GAS  /var/folders/qd/4mxf5pkd0zdf0b9dd1hp39180000gn/T//cc7TiL7h.s 			page 115


 6472 19d0 70180000 		.4byte	.LASF352
 6473 19d4 0C       		.byte	0xc
 6474 19d5 16       		.byte	0x16
 6475 19d6 34       		.byte	0x34
 6476 19d7 F4190000 		.4byte	0x19f4
 6477 19db 0D       		.uleb128 0xd
 6478 19dc D1220000 		.4byte	.LASF353
 6479 19e0 16       		.byte	0x16
 6480 19e1 35       		.byte	0x35
 6481 19e2 E90C0000 		.4byte	0xce9
 6482 19e6 00       		.byte	0
 6483 19e7 0D       		.uleb128 0xd
 6484 19e8 AC090000 		.4byte	.LASF354
 6485 19ec 16       		.byte	0x16
 6486 19ed 37       		.byte	0x37
 6487 19ee 650B0000 		.4byte	0xb65
 6488 19f2 08       		.byte	0x8
 6489 19f3 00       		.byte	0
 6490 19f4 05       		.uleb128 0x5
 6491 19f5 04       		.byte	0x4
 6492 19f6 CF190000 		.4byte	0x19cf
 6493 19fa 10       		.uleb128 0x10
 6494 19fb A60B0000 		.4byte	.LASF355
 6495 19ff 14       		.byte	0x14
 6496 1a00 17       		.byte	0x17
 6497 1a01 39       		.byte	0x39
 6498 1a02 371A0000 		.4byte	0x1a37
 6499 1a06 0D       		.uleb128 0xd
 6500 1a07 9D140000 		.4byte	.LASF356
 6501 1a0b 17       		.byte	0x17
 6502 1a0c 3A       		.byte	0x3a
 6503 1a0d E90C0000 		.4byte	0xce9
 6504 1a11 00       		.byte	0
 6505 1a12 0D       		.uleb128 0xd
 6506 1a13 19170000 		.4byte	.LASF357
 6507 1a17 17       		.byte	0x17
 6508 1a18 3C       		.byte	0x3c
 6509 1a19 BF0C0000 		.4byte	0xcbf
 6510 1a1d 08       		.byte	0x8
 6511 1a1e 0D       		.uleb128 0xd
 6512 1a1f B6010000 		.4byte	.LASF358
 6513 1a23 17       		.byte	0x17
 6514 1a24 3E       		.byte	0x3e
 6515 1a25 7B1B0000 		.4byte	0x1b7b
 6516 1a29 0C       		.byte	0xc
 6517 1a2a 0D       		.uleb128 0xd
 6518 1a2b A3080000 		.4byte	.LASF359
 6519 1a2f 17       		.byte	0x17
 6520 1a30 41       		.byte	0x41
 6521 1a31 650B0000 		.4byte	0xb65
 6522 1a35 10       		.byte	0x10
 6523 1a36 00       		.byte	0
 6524 1a37 05       		.uleb128 0x5
 6525 1a38 04       		.byte	0x4
 6526 1a39 FA190000 		.4byte	0x19fa
 6527 1a3d 05       		.uleb128 0x5
 6528 1a3e 04       		.byte	0x4
ARM GAS  /var/folders/qd/4mxf5pkd0zdf0b9dd1hp39180000gn/T//cc7TiL7h.s 			page 116


 6529 1a3f BC160000 		.4byte	0x16bc
 6530 1a43 05       		.uleb128 0x5
 6531 1a44 04       		.byte	0x4
 6532 1a45 9C0D0000 		.4byte	0xd9c
 6533 1a49 0A       		.uleb128 0xa
 6534 1a4a BC160000 		.4byte	0x16bc
 6535 1a4e 591A0000 		.4byte	0x1a59
 6536 1a52 0B       		.uleb128 0xb
 6537 1a53 3E000000 		.4byte	0x3e
 6538 1a57 30       		.byte	0x30
 6539 1a58 00       		.byte	0
 6540 1a59 29       		.uleb128 0x29
 6541 1a5a 636800   		.ascii	"ch\000"
 6542 1a5d 0D       		.byte	0xd
 6543 1a5e 0902     		.2byte	0x209
 6544 1a60 910E0000 		.4byte	0xe91
 6545 1a64 0C       		.uleb128 0xc
 6546 1a65 16       		.byte	0x16
 6547 1a66 18       		.byte	0x18
 6548 1a67 34       		.byte	0x34
 6549 1a68 451B0000 		.4byte	0x1b45
 6550 1a6c 0D       		.uleb128 0xd
 6551 1a6d FE220000 		.4byte	.LASF360
 6552 1a71 18       		.byte	0x18
 6553 1a72 35       		.byte	0x35
 6554 1a73 451B0000 		.4byte	0x1b45
 6555 1a77 00       		.byte	0
 6556 1a78 0D       		.uleb128 0xd
 6557 1a79 B9240000 		.4byte	.LASF361
 6558 1a7d 18       		.byte	0x18
 6559 1a7e 36       		.byte	0x36
 6560 1a7f A10A0000 		.4byte	0xaa1
 6561 1a83 04       		.byte	0x4
 6562 1a84 0D       		.uleb128 0xd
 6563 1a85 0D030000 		.4byte	.LASF362
 6564 1a89 18       		.byte	0x18
 6565 1a8a 37       		.byte	0x37
 6566 1a8b A10A0000 		.4byte	0xaa1
 6567 1a8f 05       		.byte	0x5
 6568 1a90 0D       		.uleb128 0xd
 6569 1a91 72170000 		.4byte	.LASF363
 6570 1a95 18       		.byte	0x18
 6571 1a96 38       		.byte	0x38
 6572 1a97 BC0A0000 		.4byte	0xabc
 6573 1a9b 06       		.byte	0x6
 6574 1a9c 0D       		.uleb128 0xd
 6575 1a9d 3C000000 		.4byte	.LASF364
 6576 1aa1 18       		.byte	0x18
 6577 1aa2 39       		.byte	0x39
 6578 1aa3 A10A0000 		.4byte	0xaa1
 6579 1aa7 08       		.byte	0x8
 6580 1aa8 0D       		.uleb128 0xd
 6581 1aa9 7D150000 		.4byte	.LASF365
 6582 1aad 18       		.byte	0x18
 6583 1aae 3A       		.byte	0x3a
 6584 1aaf A10A0000 		.4byte	0xaa1
 6585 1ab3 09       		.byte	0x9
ARM GAS  /var/folders/qd/4mxf5pkd0zdf0b9dd1hp39180000gn/T//cc7TiL7h.s 			page 117


 6586 1ab4 0D       		.uleb128 0xd
 6587 1ab5 D9240000 		.4byte	.LASF366
 6588 1ab9 18       		.byte	0x18
 6589 1aba 3B       		.byte	0x3b
 6590 1abb A10A0000 		.4byte	0xaa1
 6591 1abf 0A       		.byte	0xa
 6592 1ac0 0D       		.uleb128 0xd
 6593 1ac1 2A230000 		.4byte	.LASF367
 6594 1ac5 18       		.byte	0x18
 6595 1ac6 3C       		.byte	0x3c
 6596 1ac7 A10A0000 		.4byte	0xaa1
 6597 1acb 0B       		.byte	0xb
 6598 1acc 0D       		.uleb128 0xd
 6599 1acd 65220000 		.4byte	.LASF368
 6600 1ad1 18       		.byte	0x18
 6601 1ad2 3D       		.byte	0x3d
 6602 1ad3 A10A0000 		.4byte	0xaa1
 6603 1ad7 0C       		.byte	0xc
 6604 1ad8 0D       		.uleb128 0xd
 6605 1ad9 610C0000 		.4byte	.LASF369
 6606 1add 18       		.byte	0x18
 6607 1ade 3E       		.byte	0x3e
 6608 1adf A10A0000 		.4byte	0xaa1
 6609 1ae3 0D       		.byte	0xd
 6610 1ae4 0D       		.uleb128 0xd
 6611 1ae5 10060000 		.4byte	.LASF370
 6612 1ae9 18       		.byte	0x18
 6613 1aea 3F       		.byte	0x3f
 6614 1aeb A10A0000 		.4byte	0xaa1
 6615 1aef 0E       		.byte	0xe
 6616 1af0 0D       		.uleb128 0xd
 6617 1af1 290E0000 		.4byte	.LASF371
 6618 1af5 18       		.byte	0x18
 6619 1af6 40       		.byte	0x40
 6620 1af7 A10A0000 		.4byte	0xaa1
 6621 1afb 0F       		.byte	0xf
 6622 1afc 0D       		.uleb128 0xd
 6623 1afd BC0F0000 		.4byte	.LASF372
 6624 1b01 18       		.byte	0x18
 6625 1b02 41       		.byte	0x41
 6626 1b03 A10A0000 		.4byte	0xaa1
 6627 1b07 10       		.byte	0x10
 6628 1b08 0D       		.uleb128 0xd
 6629 1b09 0C170000 		.4byte	.LASF373
 6630 1b0d 18       		.byte	0x18
 6631 1b0e 43       		.byte	0x43
 6632 1b0f A10A0000 		.4byte	0xaa1
 6633 1b13 11       		.byte	0x11
 6634 1b14 0D       		.uleb128 0xd
 6635 1b15 DC020000 		.4byte	.LASF374
 6636 1b19 18       		.byte	0x18
 6637 1b1a 44       		.byte	0x44
 6638 1b1b A10A0000 		.4byte	0xaa1
 6639 1b1f 12       		.byte	0x12
 6640 1b20 0D       		.uleb128 0xd
 6641 1b21 00170000 		.4byte	.LASF375
 6642 1b25 18       		.byte	0x18
ARM GAS  /var/folders/qd/4mxf5pkd0zdf0b9dd1hp39180000gn/T//cc7TiL7h.s 			page 118


 6643 1b26 45       		.byte	0x45
 6644 1b27 A10A0000 		.4byte	0xaa1
 6645 1b2b 13       		.byte	0x13
 6646 1b2c 0D       		.uleb128 0xd
 6647 1b2d 071D0000 		.4byte	.LASF376
 6648 1b31 18       		.byte	0x18
 6649 1b32 46       		.byte	0x46
 6650 1b33 A10A0000 		.4byte	0xaa1
 6651 1b37 14       		.byte	0x14
 6652 1b38 0D       		.uleb128 0xd
 6653 1b39 D6000000 		.4byte	.LASF377
 6654 1b3d 18       		.byte	0x18
 6655 1b3e 48       		.byte	0x48
 6656 1b3f A10A0000 		.4byte	0xaa1
 6657 1b43 15       		.byte	0x15
 6658 1b44 00       		.byte	0
 6659 1b45 0A       		.uleb128 0xa
 6660 1b46 6C010000 		.4byte	0x16c
 6661 1b4a 551B0000 		.4byte	0x1b55
 6662 1b4e 0B       		.uleb128 0xb
 6663 1b4f 3E000000 		.4byte	0x3e
 6664 1b53 03       		.byte	0x3
 6665 1b54 00       		.byte	0
 6666 1b55 04       		.uleb128 0x4
 6667 1b56 29150000 		.4byte	.LASF378
 6668 1b5a 18       		.byte	0x18
 6669 1b5b 49       		.byte	0x49
 6670 1b5c 641A0000 		.4byte	0x1a64
 6671 1b60 0F       		.uleb128 0xf
 6672 1b61 551B0000 		.4byte	0x1b55
 6673 1b65 26       		.uleb128 0x26
 6674 1b66 000B0000 		.4byte	.LASF379
 6675 1b6a 18       		.byte	0x18
 6676 1b6b 6E       		.byte	0x6e
 6677 1b6c 601B0000 		.4byte	0x1b60
 6678 1b70 04       		.uleb128 0x4
 6679 1b71 331F0000 		.4byte	.LASF380
 6680 1b75 17       		.byte	0x17
 6681 1b76 34       		.byte	0x34
 6682 1b77 FA190000 		.4byte	0x19fa
 6683 1b7b 05       		.uleb128 0x5
 6684 1b7c 04       		.byte	0x4
 6685 1b7d 701B0000 		.4byte	0x1b70
 6686 1b81 04       		.uleb128 0x4
 6687 1b82 450B0000 		.4byte	.LASF381
 6688 1b86 19       		.byte	0x19
 6689 1b87 34       		.byte	0x34
 6690 1b88 8C1B0000 		.4byte	0x1b8c
 6691 1b8c 10       		.uleb128 0x10
 6692 1b8d 61250000 		.4byte	.LASF382
 6693 1b91 14       		.byte	0x14
 6694 1b92 19       		.byte	0x19
 6695 1b93 39       		.byte	0x39
 6696 1b94 D51B0000 		.4byte	0x1bd5
 6697 1b98 0D       		.uleb128 0xd
 6698 1b99 41020000 		.4byte	.LASF383
 6699 1b9d 19       		.byte	0x19
ARM GAS  /var/folders/qd/4mxf5pkd0zdf0b9dd1hp39180000gn/T//cc7TiL7h.s 			page 119


 6700 1b9e 3A       		.byte	0x3a
 6701 1b9f D51B0000 		.4byte	0x1bd5
 6702 1ba3 00       		.byte	0
 6703 1ba4 0D       		.uleb128 0xd
 6704 1ba5 27200000 		.4byte	.LASF384
 6705 1ba9 19       		.byte	0x19
 6706 1baa 3D       		.byte	0x3d
 6707 1bab BF0C0000 		.4byte	0xcbf
 6708 1baf 04       		.byte	0x4
 6709 1bb0 0D       		.uleb128 0xd
 6710 1bb1 63030000 		.4byte	.LASF385
 6711 1bb5 19       		.byte	0x19
 6712 1bb6 3F       		.byte	0x3f
 6713 1bb7 4F0B0000 		.4byte	0xb4f
 6714 1bbb 08       		.byte	0x8
 6715 1bbc 0D       		.uleb128 0xd
 6716 1bbd 41210000 		.4byte	.LASF386
 6717 1bc1 19       		.byte	0x19
 6718 1bc2 41       		.byte	0x41
 6719 1bc3 5A0B0000 		.4byte	0xb5a
 6720 1bc7 0C       		.byte	0xc
 6721 1bc8 0D       		.uleb128 0xd
 6722 1bc9 620E0000 		.4byte	.LASF387
 6723 1bcd 19       		.byte	0x19
 6724 1bce 43       		.byte	0x43
 6725 1bcf 5A0B0000 		.4byte	0xb5a
 6726 1bd3 10       		.byte	0x10
 6727 1bd4 00       		.byte	0
 6728 1bd5 05       		.uleb128 0x5
 6729 1bd6 04       		.byte	0x4
 6730 1bd7 811B0000 		.4byte	0x1b81
 6731 1bdb 10       		.uleb128 0x10
 6732 1bdc 4A210000 		.4byte	.LASF388
 6733 1be0 04       		.byte	0x4
 6734 1be1 19       		.byte	0x19
 6735 1be2 4A       		.byte	0x4a
 6736 1be3 F41B0000 		.4byte	0x1bf4
 6737 1be7 0D       		.uleb128 0xd
 6738 1be8 B5200000 		.4byte	.LASF389
 6739 1bec 19       		.byte	0x19
 6740 1bed 4B       		.byte	0x4b
 6741 1bee D51B0000 		.4byte	0x1bd5
 6742 1bf2 00       		.byte	0
 6743 1bf3 00       		.byte	0
 6744 1bf4 04       		.uleb128 0x4
 6745 1bf5 A7150000 		.4byte	.LASF390
 6746 1bf9 19       		.byte	0x19
 6747 1bfa 4E       		.byte	0x4e
 6748 1bfb DB1B0000 		.4byte	0x1bdb
 6749 1bff 04       		.uleb128 0x4
 6750 1c00 A20E0000 		.4byte	.LASF391
 6751 1c04 1A       		.byte	0x1a
 6752 1c05 3F       		.byte	0x3f
 6753 1c06 0A1C0000 		.4byte	0x1c0a
 6754 1c0a 10       		.uleb128 0x10
 6755 1c0b 0C120000 		.4byte	.LASF392
 6756 1c0f 24       		.byte	0x24
ARM GAS  /var/folders/qd/4mxf5pkd0zdf0b9dd1hp39180000gn/T//cc7TiL7h.s 			page 120


 6757 1c10 1A       		.byte	0x1a
 6758 1c11 4D       		.byte	0x4d
 6759 1c12 771C0000 		.4byte	0x1c77
 6760 1c16 0D       		.uleb128 0xd
 6761 1c17 87050000 		.4byte	.LASF393
 6762 1c1b 1A       		.byte	0x1a
 6763 1c1c 4E       		.byte	0x4e
 6764 1c1d E90C0000 		.4byte	0xce9
 6765 1c21 00       		.byte	0
 6766 1c22 0D       		.uleb128 0xd
 6767 1c23 51190000 		.4byte	.LASF394
 6768 1c27 1A       		.byte	0x1a
 6769 1c28 4F       		.byte	0x4f
 6770 1c29 33000000 		.4byte	0x33
 6771 1c2d 08       		.byte	0x8
 6772 1c2e 0D       		.uleb128 0xd
 6773 1c2f DD120000 		.4byte	.LASF395
 6774 1c33 1A       		.byte	0x1a
 6775 1c34 50       		.byte	0x50
 6776 1c35 991C0000 		.4byte	0x1c99
 6777 1c39 0C       		.byte	0xc
 6778 1c3a 0D       		.uleb128 0xd
 6779 1c3b B8040000 		.4byte	.LASF396
 6780 1c3f 1A       		.byte	0x1a
 6781 1c40 51       		.byte	0x51
 6782 1c41 991C0000 		.4byte	0x1c99
 6783 1c45 10       		.byte	0x10
 6784 1c46 0D       		.uleb128 0xd
 6785 1c47 D51A0000 		.4byte	.LASF397
 6786 1c4b 1A       		.byte	0x1a
 6787 1c4c 53       		.byte	0x53
 6788 1c4d 991C0000 		.4byte	0x1c99
 6789 1c51 14       		.byte	0x14
 6790 1c52 0D       		.uleb128 0xd
 6791 1c53 B3190000 		.4byte	.LASF398
 6792 1c57 1A       		.byte	0x1a
 6793 1c58 54       		.byte	0x54
 6794 1c59 991C0000 		.4byte	0x1c99
 6795 1c5d 18       		.byte	0x18
 6796 1c5e 0D       		.uleb128 0xd
 6797 1c5f 141E0000 		.4byte	.LASF399
 6798 1c63 1A       		.byte	0x1a
 6799 1c64 55       		.byte	0x55
 6800 1c65 771C0000 		.4byte	0x1c77
 6801 1c69 1C       		.byte	0x1c
 6802 1c6a 0D       		.uleb128 0xd
 6803 1c6b A41B0000 		.4byte	.LASF400
 6804 1c6f 1A       		.byte	0x1a
 6805 1c70 56       		.byte	0x56
 6806 1c71 64010000 		.4byte	0x164
 6807 1c75 20       		.byte	0x20
 6808 1c76 00       		.byte	0
 6809 1c77 04       		.uleb128 0x4
 6810 1c78 87040000 		.4byte	.LASF401
 6811 1c7c 1A       		.byte	0x1a
 6812 1c7d 42       		.byte	0x42
 6813 1c7e 821C0000 		.4byte	0x1c82
ARM GAS  /var/folders/qd/4mxf5pkd0zdf0b9dd1hp39180000gn/T//cc7TiL7h.s 			page 121


 6814 1c82 05       		.uleb128 0x5
 6815 1c83 04       		.byte	0x4
 6816 1c84 881C0000 		.4byte	0x1c88
 6817 1c88 1F       		.uleb128 0x1f
 6818 1c89 931C0000 		.4byte	0x1c93
 6819 1c8d 16       		.uleb128 0x16
 6820 1c8e 931C0000 		.4byte	0x1c93
 6821 1c92 00       		.byte	0
 6822 1c93 05       		.uleb128 0x5
 6823 1c94 04       		.byte	0x4
 6824 1c95 FF1B0000 		.4byte	0x1bff
 6825 1c99 05       		.uleb128 0x5
 6826 1c9a 04       		.byte	0x4
 6827 1c9b A10A0000 		.4byte	0xaa1
 6828 1c9f 04       		.uleb128 0x4
 6829 1ca0 CD050000 		.4byte	.LASF402
 6830 1ca4 1A       		.byte	0x1a
 6831 1ca5 64       		.byte	0x64
 6832 1ca6 FF1B0000 		.4byte	0x1bff
 6833 1caa 04       		.uleb128 0x4
 6834 1cab BE250000 		.4byte	.LASF403
 6835 1caf 1A       		.byte	0x1a
 6836 1cb0 71       		.byte	0x71
 6837 1cb1 FF1B0000 		.4byte	0x1bff
 6838 1cb5 15       		.uleb128 0x15
 6839 1cb6 33000000 		.4byte	0x33
 6840 1cba CE1C0000 		.4byte	0x1cce
 6841 1cbe 16       		.uleb128 0x16
 6842 1cbf 64010000 		.4byte	0x164
 6843 1cc3 16       		.uleb128 0x16
 6844 1cc4 CE1C0000 		.4byte	0x1cce
 6845 1cc8 16       		.uleb128 0x16
 6846 1cc9 33000000 		.4byte	0x33
 6847 1ccd 00       		.byte	0
 6848 1cce 05       		.uleb128 0x5
 6849 1ccf 04       		.byte	0x4
 6850 1cd0 AC0A0000 		.4byte	0xaac
 6851 1cd4 05       		.uleb128 0x5
 6852 1cd5 04       		.byte	0x4
 6853 1cd6 B51C0000 		.4byte	0x1cb5
 6854 1cda 15       		.uleb128 0x15
 6855 1cdb 33000000 		.4byte	0x33
 6856 1cdf F31C0000 		.4byte	0x1cf3
 6857 1ce3 16       		.uleb128 0x16
 6858 1ce4 64010000 		.4byte	0x164
 6859 1ce8 16       		.uleb128 0x16
 6860 1ce9 991C0000 		.4byte	0x1c99
 6861 1ced 16       		.uleb128 0x16
 6862 1cee 33000000 		.4byte	0x33
 6863 1cf2 00       		.byte	0
 6864 1cf3 05       		.uleb128 0x5
 6865 1cf4 04       		.byte	0x4
 6866 1cf5 DA1C0000 		.4byte	0x1cda
 6867 1cf9 15       		.uleb128 0x15
 6868 1cfa 440B0000 		.4byte	0xb44
 6869 1cfe 0D1D0000 		.4byte	0x1d0d
 6870 1d02 16       		.uleb128 0x16
ARM GAS  /var/folders/qd/4mxf5pkd0zdf0b9dd1hp39180000gn/T//cc7TiL7h.s 			page 122


 6871 1d03 64010000 		.4byte	0x164
 6872 1d07 16       		.uleb128 0x16
 6873 1d08 A10A0000 		.4byte	0xaa1
 6874 1d0c 00       		.byte	0
 6875 1d0d 05       		.uleb128 0x5
 6876 1d0e 04       		.byte	0x4
 6877 1d0f F91C0000 		.4byte	0x1cf9
 6878 1d13 15       		.uleb128 0x15
 6879 1d14 440B0000 		.4byte	0xb44
 6880 1d18 221D0000 		.4byte	0x1d22
 6881 1d1c 16       		.uleb128 0x16
 6882 1d1d 64010000 		.4byte	0x164
 6883 1d21 00       		.byte	0
 6884 1d22 05       		.uleb128 0x5
 6885 1d23 04       		.byte	0x4
 6886 1d24 131D0000 		.4byte	0x1d13
 6887 1d28 0C       		.uleb128 0xc
 6888 1d29 0C       		.byte	0xc
 6889 1d2a 1B       		.byte	0x1b
 6890 1d2b DA       		.byte	0xda
 6891 1d2c 6D1D0000 		.4byte	0x1d6d
 6892 1d30 0D       		.uleb128 0xd
 6893 1d31 2A250000 		.4byte	.LASF404
 6894 1d35 1B       		.byte	0x1b
 6895 1d36 DB       		.byte	0xdb
 6896 1d37 6D1D0000 		.4byte	0x1d6d
 6897 1d3b 00       		.byte	0
 6898 1d3c 0D       		.uleb128 0xd
 6899 1d3d 74110000 		.4byte	.LASF405
 6900 1d41 1B       		.byte	0x1b
 6901 1d42 DC       		.byte	0xdc
 6902 1d43 731D0000 		.4byte	0x1d73
 6903 1d47 04       		.byte	0x4
 6904 1d48 0D       		.uleb128 0xd
 6905 1d49 A5040000 		.4byte	.LASF406
 6906 1d4d 1B       		.byte	0x1b
 6907 1d4e DD       		.byte	0xdd
 6908 1d4f A10A0000 		.4byte	0xaa1
 6909 1d53 08       		.byte	0x8
 6910 1d54 0D       		.uleb128 0xd
 6911 1d55 291F0000 		.4byte	.LASF407
 6912 1d59 1B       		.byte	0x1b
 6913 1d5a DF       		.byte	0xdf
 6914 1d5b A10A0000 		.4byte	0xaa1
 6915 1d5f 09       		.byte	0x9
 6916 1d60 0D       		.uleb128 0xd
 6917 1d61 9B030000 		.4byte	.LASF408
 6918 1d65 1B       		.byte	0x1b
 6919 1d66 E0       		.byte	0xe0
 6920 1d67 A10A0000 		.4byte	0xaa1
 6921 1d6b 0A       		.byte	0xa
 6922 1d6c 00       		.byte	0
 6923 1d6d 05       		.uleb128 0x5
 6924 1d6e 04       		.byte	0x4
 6925 1d6f AD130000 		.4byte	0x13ad
 6926 1d73 05       		.uleb128 0x5
 6927 1d74 04       		.byte	0x4
ARM GAS  /var/folders/qd/4mxf5pkd0zdf0b9dd1hp39180000gn/T//cc7TiL7h.s 			page 123


 6928 1d75 E20A0000 		.4byte	0xae2
 6929 1d79 04       		.uleb128 0x4
 6930 1d7a F0130000 		.4byte	.LASF409
 6931 1d7e 1B       		.byte	0x1b
 6932 1d7f E1       		.byte	0xe1
 6933 1d80 281D0000 		.4byte	0x1d28
 6934 1d84 0F       		.uleb128 0xf
 6935 1d85 791D0000 		.4byte	0x1d79
 6936 1d89 0A       		.uleb128 0xa
 6937 1d8a 841D0000 		.4byte	0x1d84
 6938 1d8e 991D0000 		.4byte	0x1d99
 6939 1d92 0B       		.uleb128 0xb
 6940 1d93 3E000000 		.4byte	0x3e
 6941 1d97 0F       		.byte	0xf
 6942 1d98 00       		.byte	0
 6943 1d99 0F       		.uleb128 0xf
 6944 1d9a 891D0000 		.4byte	0x1d89
 6945 1d9e 20       		.uleb128 0x20
 6946 1d9f 201C0000 		.4byte	.LASF410
 6947 1da3 1B       		.byte	0x1b
 6948 1da4 BB01     		.2byte	0x1bb
 6949 1da6 991D0000 		.4byte	0x1d99
 6950 1daa 15       		.uleb128 0x15
 6951 1dab 440B0000 		.4byte	0xb44
 6952 1daf C31D0000 		.4byte	0x1dc3
 6953 1db3 16       		.uleb128 0x16
 6954 1db4 64010000 		.4byte	0x164
 6955 1db8 16       		.uleb128 0x16
 6956 1db9 A10A0000 		.4byte	0xaa1
 6957 1dbd 16       		.uleb128 0x16
 6958 1dbe 7B0B0000 		.4byte	0xb7b
 6959 1dc2 00       		.byte	0
 6960 1dc3 05       		.uleb128 0x5
 6961 1dc4 04       		.byte	0x4
 6962 1dc5 AA1D0000 		.4byte	0x1daa
 6963 1dc9 15       		.uleb128 0x15
 6964 1dca 440B0000 		.4byte	0xb44
 6965 1dce DD1D0000 		.4byte	0x1ddd
 6966 1dd2 16       		.uleb128 0x16
 6967 1dd3 64010000 		.4byte	0x164
 6968 1dd7 16       		.uleb128 0x16
 6969 1dd8 7B0B0000 		.4byte	0xb7b
 6970 1ddc 00       		.byte	0
 6971 1ddd 05       		.uleb128 0x5
 6972 1dde 04       		.byte	0x4
 6973 1ddf C91D0000 		.4byte	0x1dc9
 6974 1de3 15       		.uleb128 0x15
 6975 1de4 33000000 		.4byte	0x33
 6976 1de8 011E0000 		.4byte	0x1e01
 6977 1dec 16       		.uleb128 0x16
 6978 1ded 64010000 		.4byte	0x164
 6979 1df1 16       		.uleb128 0x16
 6980 1df2 CE1C0000 		.4byte	0x1cce
 6981 1df6 16       		.uleb128 0x16
 6982 1df7 33000000 		.4byte	0x33
 6983 1dfb 16       		.uleb128 0x16
 6984 1dfc 7B0B0000 		.4byte	0xb7b
ARM GAS  /var/folders/qd/4mxf5pkd0zdf0b9dd1hp39180000gn/T//cc7TiL7h.s 			page 124


 6985 1e00 00       		.byte	0
 6986 1e01 05       		.uleb128 0x5
 6987 1e02 04       		.byte	0x4
 6988 1e03 E31D0000 		.4byte	0x1de3
 6989 1e07 15       		.uleb128 0x15
 6990 1e08 33000000 		.4byte	0x33
 6991 1e0c 251E0000 		.4byte	0x1e25
 6992 1e10 16       		.uleb128 0x16
 6993 1e11 64010000 		.4byte	0x164
 6994 1e15 16       		.uleb128 0x16
 6995 1e16 991C0000 		.4byte	0x1c99
 6996 1e1a 16       		.uleb128 0x16
 6997 1e1b 33000000 		.4byte	0x33
 6998 1e1f 16       		.uleb128 0x16
 6999 1e20 7B0B0000 		.4byte	0xb7b
 7000 1e24 00       		.byte	0
 7001 1e25 05       		.uleb128 0x5
 7002 1e26 04       		.byte	0x4
 7003 1e27 071E0000 		.4byte	0x1e07
 7004 1e2b 2A       		.uleb128 0x2a
 7005 1e2c 07       		.byte	0x7
 7006 1e2d 01       		.byte	0x1
 7007 1e2e 65000000 		.4byte	0x65
 7008 1e32 1C       		.byte	0x1c
 7009 1e33 28       		.byte	0x28
 7010 1e34 6F1E0000 		.4byte	0x1e6f
 7011 1e38 23       		.uleb128 0x23
 7012 1e39 5D010000 		.4byte	.LASF411
 7013 1e3d 00       		.byte	0
 7014 1e3e 23       		.uleb128 0x23
 7015 1e3f 500F0000 		.4byte	.LASF412
 7016 1e43 01       		.byte	0x1
 7017 1e44 23       		.uleb128 0x23
 7018 1e45 300B0000 		.4byte	.LASF413
 7019 1e49 02       		.byte	0x2
 7020 1e4a 23       		.uleb128 0x23
 7021 1e4b 691D0000 		.4byte	.LASF414
 7022 1e4f 03       		.byte	0x3
 7023 1e50 23       		.uleb128 0x23
 7024 1e51 21240000 		.4byte	.LASF415
 7025 1e55 04       		.byte	0x4
 7026 1e56 23       		.uleb128 0x23
 7027 1e57 B1070000 		.4byte	.LASF416
 7028 1e5b 05       		.byte	0x5
 7029 1e5c 23       		.uleb128 0x23
 7030 1e5d 091F0000 		.4byte	.LASF417
 7031 1e61 06       		.byte	0x6
 7032 1e62 23       		.uleb128 0x23
 7033 1e63 1D1A0000 		.4byte	.LASF418
 7034 1e67 07       		.byte	0x7
 7035 1e68 23       		.uleb128 0x23
 7036 1e69 ED230000 		.4byte	.LASF419
 7037 1e6d 08       		.byte	0x8
 7038 1e6e 00       		.byte	0
 7039 1e6f 04       		.uleb128 0x4
 7040 1e70 BE180000 		.4byte	.LASF420
 7041 1e74 1C       		.byte	0x1c
ARM GAS  /var/folders/qd/4mxf5pkd0zdf0b9dd1hp39180000gn/T//cc7TiL7h.s 			page 125


 7042 1e75 32       		.byte	0x32
 7043 1e76 2B1E0000 		.4byte	0x1e2b
 7044 1e7a 0C       		.uleb128 0xc
 7045 1e7b 08       		.byte	0x8
 7046 1e7c 1C       		.byte	0x1c
 7047 1e7d 37       		.byte	0x37
 7048 1e7e 9B1E0000 		.4byte	0x1e9b
 7049 1e82 0D       		.uleb128 0xd
 7050 1e83 42070000 		.4byte	.LASF421
 7051 1e87 1C       		.byte	0x1c
 7052 1e88 38       		.byte	0x38
 7053 1e89 D70A0000 		.4byte	0xad7
 7054 1e8d 00       		.byte	0
 7055 1e8e 0D       		.uleb128 0xd
 7056 1e8f 7F1E0000 		.4byte	.LASF422
 7057 1e93 1C       		.byte	0x1c
 7058 1e94 39       		.byte	0x39
 7059 1e95 D70A0000 		.4byte	0xad7
 7060 1e99 04       		.byte	0x4
 7061 1e9a 00       		.byte	0
 7062 1e9b 04       		.uleb128 0x4
 7063 1e9c 6F200000 		.4byte	.LASF423
 7064 1ea0 1C       		.byte	0x1c
 7065 1ea1 3A       		.byte	0x3a
 7066 1ea2 7A1E0000 		.4byte	0x1e7a
 7067 1ea6 15       		.uleb128 0x15
 7068 1ea7 7F0A0000 		.4byte	0xa7f
 7069 1eab B51E0000 		.4byte	0x1eb5
 7070 1eaf 16       		.uleb128 0x16
 7071 1eb0 64010000 		.4byte	0x164
 7072 1eb4 00       		.byte	0
 7073 1eb5 05       		.uleb128 0x5
 7074 1eb6 04       		.byte	0x4
 7075 1eb7 A61E0000 		.4byte	0x1ea6
 7076 1ebb 15       		.uleb128 0x15
 7077 1ebc 7F0A0000 		.4byte	0xa7f
 7078 1ec0 D91E0000 		.4byte	0x1ed9
 7079 1ec4 16       		.uleb128 0x16
 7080 1ec5 64010000 		.4byte	0x164
 7081 1ec9 16       		.uleb128 0x16
 7082 1eca D70A0000 		.4byte	0xad7
 7083 1ece 16       		.uleb128 0x16
 7084 1ecf 991C0000 		.4byte	0x1c99
 7085 1ed3 16       		.uleb128 0x16
 7086 1ed4 D70A0000 		.4byte	0xad7
 7087 1ed8 00       		.byte	0
 7088 1ed9 05       		.uleb128 0x5
 7089 1eda 04       		.byte	0x4
 7090 1edb BB1E0000 		.4byte	0x1ebb
 7091 1edf 15       		.uleb128 0x15
 7092 1ee0 7F0A0000 		.4byte	0xa7f
 7093 1ee4 FD1E0000 		.4byte	0x1efd
 7094 1ee8 16       		.uleb128 0x16
 7095 1ee9 64010000 		.4byte	0x164
 7096 1eed 16       		.uleb128 0x16
 7097 1eee D70A0000 		.4byte	0xad7
 7098 1ef2 16       		.uleb128 0x16
ARM GAS  /var/folders/qd/4mxf5pkd0zdf0b9dd1hp39180000gn/T//cc7TiL7h.s 			page 126


 7099 1ef3 CE1C0000 		.4byte	0x1cce
 7100 1ef7 16       		.uleb128 0x16
 7101 1ef8 D70A0000 		.4byte	0xad7
 7102 1efc 00       		.byte	0
 7103 1efd 05       		.uleb128 0x5
 7104 1efe 04       		.byte	0x4
 7105 1eff DF1E0000 		.4byte	0x1edf
 7106 1f03 15       		.uleb128 0x15
 7107 1f04 7F0A0000 		.4byte	0xa7f
 7108 1f08 171F0000 		.4byte	0x1f17
 7109 1f0c 16       		.uleb128 0x16
 7110 1f0d 64010000 		.4byte	0x164
 7111 1f11 16       		.uleb128 0x16
 7112 1f12 171F0000 		.4byte	0x1f17
 7113 1f16 00       		.byte	0
 7114 1f17 05       		.uleb128 0x5
 7115 1f18 04       		.byte	0x4
 7116 1f19 9B1E0000 		.4byte	0x1e9b
 7117 1f1d 05       		.uleb128 0x5
 7118 1f1e 04       		.byte	0x4
 7119 1f1f 031F0000 		.4byte	0x1f03
 7120 1f23 0A       		.uleb128 0xa
 7121 1f24 D70A0000 		.4byte	0xad7
 7122 1f28 331F0000 		.4byte	0x1f33
 7123 1f2c 0B       		.uleb128 0xb
 7124 1f2d 3E000000 		.4byte	0x3e
 7125 1f31 03       		.byte	0x3
 7126 1f32 00       		.byte	0
 7127 1f33 0C       		.uleb128 0xc
 7128 1f34 04       		.byte	0x4
 7129 1f35 1D       		.byte	0x1d
 7130 1f36 B3       		.byte	0xb3
 7131 1f37 541F0000 		.4byte	0x1f54
 7132 1f3b 11       		.uleb128 0x11
 7133 1f3c 73657400 		.ascii	"set\000"
 7134 1f40 1D       		.byte	0x1d
 7135 1f41 B4       		.byte	0xb4
 7136 1f42 BC0A0000 		.4byte	0xabc
 7137 1f46 00       		.byte	0
 7138 1f47 0D       		.uleb128 0xd
 7139 1f48 700D0000 		.4byte	.LASF424
 7140 1f4c 1D       		.byte	0x1d
 7141 1f4d B5       		.byte	0xb5
 7142 1f4e BC0A0000 		.4byte	0xabc
 7143 1f52 02       		.byte	0x2
 7144 1f53 00       		.byte	0
 7145 1f54 08       		.uleb128 0x8
 7146 1f55 04       		.byte	0x4
 7147 1f56 1D       		.byte	0x1d
 7148 1f57 B1       		.byte	0xb1
 7149 1f58 6F1F0000 		.4byte	0x1f6f
 7150 1f5c 2B       		.uleb128 0x2b
 7151 1f5d 5700     		.ascii	"W\000"
 7152 1f5f 1D       		.byte	0x1d
 7153 1f60 B2       		.byte	0xb2
 7154 1f61 D70A0000 		.4byte	0xad7
 7155 1f65 2B       		.uleb128 0x2b
ARM GAS  /var/folders/qd/4mxf5pkd0zdf0b9dd1hp39180000gn/T//cc7TiL7h.s 			page 127


 7156 1f66 4800     		.ascii	"H\000"
 7157 1f68 1D       		.byte	0x1d
 7158 1f69 B6       		.byte	0xb6
 7159 1f6a 331F0000 		.4byte	0x1f33
 7160 1f6e 00       		.byte	0
 7161 1f6f 1A       		.uleb128 0x1a
 7162 1f70 541F0000 		.4byte	0x1f54
 7163 1f74 0C       		.uleb128 0xc
 7164 1f75 2C       		.byte	0x2c
 7165 1f76 1D       		.byte	0x1d
 7166 1f77 A9       		.byte	0xa9
 7167 1f78 01200000 		.4byte	0x2001
 7168 1f7c 0D       		.uleb128 0xd
 7169 1f7d 4B1F0000 		.4byte	.LASF425
 7170 1f81 1D       		.byte	0x1d
 7171 1f82 AB       		.byte	0xab
 7172 1f83 E20A0000 		.4byte	0xae2
 7173 1f87 00       		.byte	0
 7174 1f88 0D       		.uleb128 0xd
 7175 1f89 24030000 		.4byte	.LASF426
 7176 1f8d 1D       		.byte	0x1d
 7177 1f8e AC       		.byte	0xac
 7178 1f8f E20A0000 		.4byte	0xae2
 7179 1f93 04       		.byte	0x4
 7180 1f94 0D       		.uleb128 0xd
 7181 1f95 0B0F0000 		.4byte	.LASF427
 7182 1f99 1D       		.byte	0x1d
 7183 1f9a AD       		.byte	0xad
 7184 1f9b E20A0000 		.4byte	0xae2
 7185 1f9f 08       		.byte	0x8
 7186 1fa0 0D       		.uleb128 0xd
 7187 1fa1 A51E0000 		.4byte	.LASF428
 7188 1fa5 1D       		.byte	0x1d
 7189 1fa6 AE       		.byte	0xae
 7190 1fa7 E20A0000 		.4byte	0xae2
 7191 1fab 0C       		.byte	0xc
 7192 1fac 11       		.uleb128 0x11
 7193 1fad 49445200 		.ascii	"IDR\000"
 7194 1fb1 1D       		.byte	0x1d
 7195 1fb2 AF       		.byte	0xaf
 7196 1fb3 E20A0000 		.4byte	0xae2
 7197 1fb7 10       		.byte	0x10
 7198 1fb8 11       		.uleb128 0x11
 7199 1fb9 4F445200 		.ascii	"ODR\000"
 7200 1fbd 1D       		.byte	0x1d
 7201 1fbe B0       		.byte	0xb0
 7202 1fbf E20A0000 		.4byte	0xae2
 7203 1fc3 14       		.byte	0x14
 7204 1fc4 0D       		.uleb128 0xd
 7205 1fc5 EB130000 		.4byte	.LASF429
 7206 1fc9 1D       		.byte	0x1d
 7207 1fca B7       		.byte	0xb7
 7208 1fcb 6F1F0000 		.4byte	0x1f6f
 7209 1fcf 18       		.byte	0x18
 7210 1fd0 0D       		.uleb128 0xd
 7211 1fd1 ED190000 		.4byte	.LASF430
 7212 1fd5 1D       		.byte	0x1d
ARM GAS  /var/folders/qd/4mxf5pkd0zdf0b9dd1hp39180000gn/T//cc7TiL7h.s 			page 128


 7213 1fd6 B8       		.byte	0xb8
 7214 1fd7 E20A0000 		.4byte	0xae2
 7215 1fdb 1C       		.byte	0x1c
 7216 1fdc 0D       		.uleb128 0xd
 7217 1fdd DE1C0000 		.4byte	.LASF431
 7218 1fe1 1D       		.byte	0x1d
 7219 1fe2 B9       		.byte	0xb9
 7220 1fe3 E20A0000 		.4byte	0xae2
 7221 1fe7 20       		.byte	0x20
 7222 1fe8 0D       		.uleb128 0xd
 7223 1fe9 D91C0000 		.4byte	.LASF432
 7224 1fed 1D       		.byte	0x1d
 7225 1fee BA       		.byte	0xba
 7226 1fef E20A0000 		.4byte	0xae2
 7227 1ff3 24       		.byte	0x24
 7228 1ff4 11       		.uleb128 0x11
 7229 1ff5 42525200 		.ascii	"BRR\000"
 7230 1ff9 1D       		.byte	0x1d
 7231 1ffa BB       		.byte	0xbb
 7232 1ffb E20A0000 		.4byte	0xae2
 7233 1fff 28       		.byte	0x28
 7234 2000 00       		.byte	0
 7235 2001 04       		.uleb128 0x4
 7236 2002 84110000 		.4byte	.LASF433
 7237 2006 1D       		.byte	0x1d
 7238 2007 BC       		.byte	0xbc
 7239 2008 741F0000 		.4byte	0x1f74
 7240 200c 0C       		.uleb128 0xc
 7241 200d 1C       		.byte	0x1c
 7242 200e 1D       		.byte	0x1d
 7243 200f C1       		.byte	0xc1
 7244 2010 69200000 		.4byte	0x2069
 7245 2014 0D       		.uleb128 0xd
 7246 2015 AC220000 		.4byte	.LASF434
 7247 2019 1D       		.byte	0x1d
 7248 201a C3       		.byte	0xc3
 7249 201b D70A0000 		.4byte	0xad7
 7250 201f 00       		.byte	0
 7251 2020 0D       		.uleb128 0xd
 7252 2021 1D030000 		.4byte	.LASF435
 7253 2025 1D       		.byte	0x1d
 7254 2026 C5       		.byte	0xc5
 7255 2027 D70A0000 		.4byte	0xad7
 7256 202b 04       		.byte	0x4
 7257 202c 0D       		.uleb128 0xd
 7258 202d 20020000 		.4byte	.LASF436
 7259 2031 1D       		.byte	0x1d
 7260 2032 C7       		.byte	0xc7
 7261 2033 D70A0000 		.4byte	0xad7
 7262 2037 08       		.byte	0x8
 7263 2038 0D       		.uleb128 0xd
 7264 2039 D1210000 		.4byte	.LASF437
 7265 203d 1D       		.byte	0x1d
 7266 203e C9       		.byte	0xc9
 7267 203f D70A0000 		.4byte	0xad7
 7268 2043 0C       		.byte	0xc
 7269 2044 11       		.uleb128 0x11
ARM GAS  /var/folders/qd/4mxf5pkd0zdf0b9dd1hp39180000gn/T//cc7TiL7h.s 			page 129


 7270 2045 6F647200 		.ascii	"odr\000"
 7271 2049 1D       		.byte	0x1d
 7272 204a CB       		.byte	0xcb
 7273 204b D70A0000 		.4byte	0xad7
 7274 204f 10       		.byte	0x10
 7275 2050 0D       		.uleb128 0xd
 7276 2051 151F0000 		.4byte	.LASF438
 7277 2055 1D       		.byte	0x1d
 7278 2056 CD       		.byte	0xcd
 7279 2057 D70A0000 		.4byte	0xad7
 7280 205b 14       		.byte	0x14
 7281 205c 0D       		.uleb128 0xd
 7282 205d 6B000000 		.4byte	.LASF439
 7283 2061 1D       		.byte	0x1d
 7284 2062 CF       		.byte	0xcf
 7285 2063 D70A0000 		.4byte	0xad7
 7286 2067 18       		.byte	0x18
 7287 2068 00       		.byte	0
 7288 2069 04       		.uleb128 0x4
 7289 206a FA1B0000 		.4byte	.LASF440
 7290 206e 1D       		.byte	0x1d
 7291 206f D0       		.byte	0xd0
 7292 2070 0C200000 		.4byte	0x200c
 7293 2074 0C       		.uleb128 0xc
 7294 2075 FC       		.byte	0xfc
 7295 2076 1D       		.byte	0x1d
 7296 2077 D9       		.byte	0xd9
 7297 2078 E9200000 		.4byte	0x20e9
 7298 207c 0D       		.uleb128 0xd
 7299 207d 15120000 		.4byte	.LASF441
 7300 2081 1D       		.byte	0x1d
 7301 2082 DC       		.byte	0xdc
 7302 2083 69200000 		.4byte	0x2069
 7303 2087 00       		.byte	0
 7304 2088 0D       		.uleb128 0xd
 7305 2089 06030000 		.4byte	.LASF442
 7306 208d 1D       		.byte	0x1d
 7307 208e E0       		.byte	0xe0
 7308 208f 69200000 		.4byte	0x2069
 7309 2093 1C       		.byte	0x1c
 7310 2094 0D       		.uleb128 0xd
 7311 2095 BD010000 		.4byte	.LASF443
 7312 2099 1D       		.byte	0x1d
 7313 209a E4       		.byte	0xe4
 7314 209b 69200000 		.4byte	0x2069
 7315 209f 38       		.byte	0x38
 7316 20a0 0D       		.uleb128 0xd
 7317 20a1 7E0E0000 		.4byte	.LASF444
 7318 20a5 1D       		.byte	0x1d
 7319 20a6 E8       		.byte	0xe8
 7320 20a7 69200000 		.4byte	0x2069
 7321 20ab 54       		.byte	0x54
 7322 20ac 0D       		.uleb128 0xd
 7323 20ad 471B0000 		.4byte	.LASF445
 7324 20b1 1D       		.byte	0x1d
 7325 20b2 EC       		.byte	0xec
 7326 20b3 69200000 		.4byte	0x2069
ARM GAS  /var/folders/qd/4mxf5pkd0zdf0b9dd1hp39180000gn/T//cc7TiL7h.s 			page 130


 7327 20b7 70       		.byte	0x70
 7328 20b8 0D       		.uleb128 0xd
 7329 20b9 13260000 		.4byte	.LASF446
 7330 20bd 1D       		.byte	0x1d
 7331 20be F0       		.byte	0xf0
 7332 20bf 69200000 		.4byte	0x2069
 7333 20c3 8C       		.byte	0x8c
 7334 20c4 0D       		.uleb128 0xd
 7335 20c5 370C0000 		.4byte	.LASF447
 7336 20c9 1D       		.byte	0x1d
 7337 20ca F4       		.byte	0xf4
 7338 20cb 69200000 		.4byte	0x2069
 7339 20cf A8       		.byte	0xa8
 7340 20d0 0D       		.uleb128 0xd
 7341 20d1 5B190000 		.4byte	.LASF448
 7342 20d5 1D       		.byte	0x1d
 7343 20d6 F8       		.byte	0xf8
 7344 20d7 69200000 		.4byte	0x2069
 7345 20db C4       		.byte	0xc4
 7346 20dc 0D       		.uleb128 0xd
 7347 20dd F9230000 		.4byte	.LASF449
 7348 20e1 1D       		.byte	0x1d
 7349 20e2 FC       		.byte	0xfc
 7350 20e3 69200000 		.4byte	0x2069
 7351 20e7 E0       		.byte	0xe0
 7352 20e8 00       		.byte	0
 7353 20e9 04       		.uleb128 0x4
 7354 20ea 130B0000 		.4byte	.LASF450
 7355 20ee 1D       		.byte	0x1d
 7356 20ef FE       		.byte	0xfe
 7357 20f0 74200000 		.4byte	0x2074
 7358 20f4 0F       		.uleb128 0xf
 7359 20f5 E9200000 		.4byte	0x20e9
 7360 20f9 07       		.uleb128 0x7
 7361 20fa 62190000 		.4byte	.LASF451
 7362 20fe 1D       		.byte	0x1d
 7363 20ff 1B01     		.2byte	0x11b
 7364 2101 05210000 		.4byte	0x2105
 7365 2105 05       		.uleb128 0x5
 7366 2106 04       		.byte	0x4
 7367 2107 01200000 		.4byte	0x2001
 7368 210b 20       		.uleb128 0x20
 7369 210c FC1F0000 		.4byte	.LASF452
 7370 2110 1D       		.byte	0x1d
 7371 2111 DA01     		.2byte	0x1da
 7372 2113 F4200000 		.4byte	0x20f4
 7373 2117 2A       		.uleb128 0x2a
 7374 2118 07       		.byte	0x7
 7375 2119 01       		.byte	0x1
 7376 211a 65000000 		.4byte	0x65
 7377 211e 1E       		.byte	0x1e
 7378 211f 46       		.byte	0x46
 7379 2120 49210000 		.4byte	0x2149
 7380 2124 23       		.uleb128 0x23
 7381 2125 6F080000 		.4byte	.LASF453
 7382 2129 00       		.byte	0
 7383 212a 23       		.uleb128 0x23
ARM GAS  /var/folders/qd/4mxf5pkd0zdf0b9dd1hp39180000gn/T//cc7TiL7h.s 			page 131


 7384 212b 6D160000 		.4byte	.LASF454
 7385 212f 01       		.byte	0x1
 7386 2130 23       		.uleb128 0x23
 7387 2131 5B220000 		.4byte	.LASF455
 7388 2135 02       		.byte	0x2
 7389 2136 23       		.uleb128 0x23
 7390 2137 C4130000 		.4byte	.LASF456
 7391 213b 03       		.byte	0x3
 7392 213c 23       		.uleb128 0x23
 7393 213d B6060000 		.4byte	.LASF457
 7394 2141 04       		.byte	0x4
 7395 2142 23       		.uleb128 0x23
 7396 2143 9C130000 		.4byte	.LASF458
 7397 2147 05       		.byte	0x5
 7398 2148 00       		.byte	0
 7399 2149 04       		.uleb128 0x4
 7400 214a 91040000 		.4byte	.LASF459
 7401 214e 1E       		.byte	0x1e
 7402 214f 4D       		.byte	0x4d
 7403 2150 17210000 		.4byte	0x2117
 7404 2154 07       		.uleb128 0x7
 7405 2155 C3120000 		.4byte	.LASF460
 7406 2159 1F       		.byte	0x1f
 7407 215a 2701     		.2byte	0x127
 7408 215c BC0A0000 		.4byte	0xabc
 7409 2160 07       		.uleb128 0x7
 7410 2161 961D0000 		.4byte	.LASF461
 7411 2165 1F       		.byte	0x1f
 7412 2166 2C01     		.2byte	0x12c
 7413 2168 BC0A0000 		.4byte	0xabc
 7414 216c 2C       		.uleb128 0x2c
 7415 216d 07       		.byte	0x7
 7416 216e 01       		.byte	0x1
 7417 216f 65000000 		.4byte	0x65
 7418 2173 1F       		.byte	0x1f
 7419 2174 3301     		.2byte	0x133
 7420 2176 87210000 		.4byte	0x2187
 7421 217a 23       		.uleb128 0x23
 7422 217b D70E0000 		.4byte	.LASF462
 7423 217f 00       		.byte	0
 7424 2180 23       		.uleb128 0x23
 7425 2181 49020000 		.4byte	.LASF463
 7426 2185 01       		.byte	0x1
 7427 2186 00       		.byte	0
 7428 2187 07       		.uleb128 0x7
 7429 2188 5A230000 		.4byte	.LASF464
 7430 218c 1F       		.byte	0x1f
 7431 218d 3601     		.2byte	0x136
 7432 218f 6C210000 		.4byte	0x216c
 7433 2193 07       		.uleb128 0x7
 7434 2194 8B0F0000 		.4byte	.LASF465
 7435 2198 1F       		.byte	0x1f
 7436 2199 3B01     		.2byte	0x13b
 7437 219b 9F210000 		.4byte	0x219f
 7438 219f 1B       		.uleb128 0x1b
 7439 21a0 8B0F0000 		.4byte	.LASF465
 7440 21a4 38       		.byte	0x38
ARM GAS  /var/folders/qd/4mxf5pkd0zdf0b9dd1hp39180000gn/T//cc7TiL7h.s 			page 132


 7441 21a5 1F       		.byte	0x1f
 7442 21a6 9F01     		.2byte	0x19f
 7443 21a8 2F220000 		.4byte	0x222f
 7444 21ac 18       		.uleb128 0x18
 7445 21ad 6C170000 		.4byte	.LASF466
 7446 21b1 1F       		.byte	0x1f
 7447 21b2 A301     		.2byte	0x1a3
 7448 21b4 49210000 		.4byte	0x2149
 7449 21b8 00       		.byte	0
 7450 21b9 18       		.uleb128 0x18
 7451 21ba 3B1D0000 		.4byte	.LASF467
 7452 21be 1F       		.byte	0x1f
 7453 21bf A701     		.2byte	0x1a7
 7454 21c1 56230000 		.4byte	0x2356
 7455 21c5 04       		.byte	0x4
 7456 21c6 18       		.uleb128 0x18
 7457 21c7 D3010000 		.4byte	.LASF468
 7458 21cb 1F       		.byte	0x1f
 7459 21cc AB01     		.2byte	0x1ab
 7460 21ce 5C220000 		.4byte	0x225c
 7461 21d2 08       		.byte	0x8
 7462 21d3 18       		.uleb128 0x18
 7463 21d4 621A0000 		.4byte	.LASF469
 7464 21d8 1F       		.byte	0x1f
 7465 21d9 AF01     		.2byte	0x1af
 7466 21db 33000000 		.4byte	0x33
 7467 21df 0C       		.byte	0xc
 7468 21e0 18       		.uleb128 0x18
 7469 21e1 1A200000 		.4byte	.LASF470
 7470 21e5 1F       		.byte	0x1f
 7471 21e6 B301     		.2byte	0x1b3
 7472 21e8 5C230000 		.4byte	0x235c
 7473 21ec 10       		.byte	0x10
 7474 21ed 18       		.uleb128 0x18
 7475 21ee 19070000 		.4byte	.LASF471
 7476 21f2 1F       		.byte	0x1f
 7477 21f3 B801     		.2byte	0x1b8
 7478 21f5 B40C0000 		.4byte	0xcb4
 7479 21f9 14       		.byte	0x14
 7480 21fa 18       		.uleb128 0x18
 7481 21fb 130D0000 		.4byte	.LASF472
 7482 21ff 1F       		.byte	0x1f
 7483 2200 BE01     		.2byte	0x1be
 7484 2202 701B0000 		.4byte	0x1b70
 7485 2206 18       		.byte	0x18
 7486 2207 24       		.uleb128 0x24
 7487 2208 61646300 		.ascii	"adc\000"
 7488 220c 1F       		.byte	0x1f
 7489 220d C701     		.2byte	0x1c7
 7490 220f 62230000 		.4byte	0x2362
 7491 2213 2C       		.byte	0x2c
 7492 2214 18       		.uleb128 0x18
 7493 2215 CB0A0000 		.4byte	.LASF473
 7494 2219 1F       		.byte	0x1f
 7495 221a CB01     		.2byte	0x1cb
 7496 221c 68230000 		.4byte	0x2368
 7497 2220 30       		.byte	0x30
ARM GAS  /var/folders/qd/4mxf5pkd0zdf0b9dd1hp39180000gn/T//cc7TiL7h.s 			page 133


 7498 2221 18       		.uleb128 0x18
 7499 2222 84190000 		.4byte	.LASF474
 7500 2226 1F       		.byte	0x1f
 7501 2227 CF01     		.2byte	0x1cf
 7502 2229 D70A0000 		.4byte	0xad7
 7503 222d 34       		.byte	0x34
 7504 222e 00       		.byte	0
 7505 222f 07       		.uleb128 0x7
 7506 2230 7E1C0000 		.4byte	.LASF475
 7507 2234 1F       		.byte	0x1f
 7508 2235 4501     		.2byte	0x145
 7509 2237 3B220000 		.4byte	0x223b
 7510 223b 05       		.uleb128 0x5
 7511 223c 04       		.byte	0x4
 7512 223d 41220000 		.4byte	0x2241
 7513 2241 1F       		.uleb128 0x1f
 7514 2242 56220000 		.4byte	0x2256
 7515 2246 16       		.uleb128 0x16
 7516 2247 56220000 		.4byte	0x2256
 7517 224b 16       		.uleb128 0x16
 7518 224c 5C220000 		.4byte	0x225c
 7519 2250 16       		.uleb128 0x16
 7520 2251 33000000 		.4byte	0x33
 7521 2255 00       		.byte	0
 7522 2256 05       		.uleb128 0x5
 7523 2257 04       		.byte	0x4
 7524 2258 93210000 		.4byte	0x2193
 7525 225c 05       		.uleb128 0x5
 7526 225d 04       		.byte	0x4
 7527 225e 54210000 		.4byte	0x2154
 7528 2262 07       		.uleb128 0x7
 7529 2263 39170000 		.4byte	.LASF476
 7530 2267 1F       		.byte	0x1f
 7531 2268 4E01     		.2byte	0x14e
 7532 226a 6E220000 		.4byte	0x226e
 7533 226e 05       		.uleb128 0x5
 7534 226f 04       		.byte	0x4
 7535 2270 74220000 		.4byte	0x2274
 7536 2274 1F       		.uleb128 0x1f
 7537 2275 84220000 		.4byte	0x2284
 7538 2279 16       		.uleb128 0x16
 7539 227a 56220000 		.4byte	0x2256
 7540 227e 16       		.uleb128 0x16
 7541 227f 87210000 		.4byte	0x2187
 7542 2283 00       		.byte	0
 7543 2284 1C       		.uleb128 0x1c
 7544 2285 28       		.byte	0x28
 7545 2286 1F       		.byte	0x1f
 7546 2287 5801     		.2byte	0x158
 7547 2289 1D230000 		.4byte	0x231d
 7548 228d 18       		.uleb128 0x18
 7549 228e 98220000 		.4byte	.LASF477
 7550 2292 1F       		.byte	0x1f
 7551 2293 5C01     		.2byte	0x15c
 7552 2295 7F0A0000 		.4byte	0xa7f
 7553 2299 00       		.byte	0
 7554 229a 18       		.uleb128 0x18
ARM GAS  /var/folders/qd/4mxf5pkd0zdf0b9dd1hp39180000gn/T//cc7TiL7h.s 			page 134


 7555 229b D6110000 		.4byte	.LASF478
 7556 229f 1F       		.byte	0x1f
 7557 22a0 6001     		.2byte	0x160
 7558 22a2 60210000 		.4byte	0x2160
 7559 22a6 02       		.byte	0x2
 7560 22a7 18       		.uleb128 0x18
 7561 22a8 66090000 		.4byte	.LASF479
 7562 22ac 1F       		.byte	0x1f
 7563 22ad 6401     		.2byte	0x164
 7564 22af 2F220000 		.4byte	0x222f
 7565 22b3 04       		.byte	0x4
 7566 22b4 18       		.uleb128 0x18
 7567 22b5 18240000 		.4byte	.LASF480
 7568 22b9 1F       		.byte	0x1f
 7569 22ba 6801     		.2byte	0x168
 7570 22bc 62220000 		.4byte	0x2262
 7571 22c0 08       		.byte	0x8
 7572 22c1 24       		.uleb128 0x24
 7573 22c2 63723100 		.ascii	"cr1\000"
 7574 22c6 1F       		.byte	0x1f
 7575 22c7 6F01     		.2byte	0x16f
 7576 22c9 D70A0000 		.4byte	0xad7
 7577 22cd 0C       		.byte	0xc
 7578 22ce 24       		.uleb128 0x24
 7579 22cf 63723200 		.ascii	"cr2\000"
 7580 22d3 1F       		.byte	0x1f
 7581 22d4 7601     		.2byte	0x176
 7582 22d6 D70A0000 		.4byte	0xad7
 7583 22da 10       		.byte	0x10
 7584 22db 18       		.uleb128 0x18
 7585 22dc A2180000 		.4byte	.LASF481
 7586 22e0 1F       		.byte	0x1f
 7587 22e1 7C01     		.2byte	0x17c
 7588 22e3 D70A0000 		.4byte	0xad7
 7589 22e7 14       		.byte	0x14
 7590 22e8 18       		.uleb128 0x18
 7591 22e9 A8180000 		.4byte	.LASF482
 7592 22ed 1F       		.byte	0x1f
 7593 22ee 8201     		.2byte	0x182
 7594 22f0 D70A0000 		.4byte	0xad7
 7595 22f4 18       		.byte	0x18
 7596 22f5 18       		.uleb128 0x18
 7597 22f6 50010000 		.4byte	.LASF483
 7598 22fa 1F       		.byte	0x1f
 7599 22fb 8701     		.2byte	0x187
 7600 22fd D70A0000 		.4byte	0xad7
 7601 2301 1C       		.byte	0x1c
 7602 2302 18       		.uleb128 0x18
 7603 2303 0B250000 		.4byte	.LASF484
 7604 2307 1F       		.byte	0x1f
 7605 2308 8C01     		.2byte	0x18c
 7606 230a D70A0000 		.4byte	0xad7
 7607 230e 20       		.byte	0x20
 7608 230f 18       		.uleb128 0x18
 7609 2310 10250000 		.4byte	.LASF485
 7610 2314 1F       		.byte	0x1f
 7611 2315 9101     		.2byte	0x191
ARM GAS  /var/folders/qd/4mxf5pkd0zdf0b9dd1hp39180000gn/T//cc7TiL7h.s 			page 135


 7612 2317 D70A0000 		.4byte	0xad7
 7613 231b 24       		.byte	0x24
 7614 231c 00       		.byte	0
 7615 231d 07       		.uleb128 0x7
 7616 231e DB050000 		.4byte	.LASF486
 7617 2322 1F       		.byte	0x1f
 7618 2323 9201     		.2byte	0x192
 7619 2325 84220000 		.4byte	0x2284
 7620 2329 0F       		.uleb128 0xf
 7621 232a 1D230000 		.4byte	0x231d
 7622 232e 1C       		.uleb128 0x1c
 7623 232f 04       		.byte	0x4
 7624 2330 1F       		.byte	0x1f
 7625 2331 9801     		.2byte	0x198
 7626 2333 45230000 		.4byte	0x2345
 7627 2337 18       		.uleb128 0x18
 7628 2338 31250000 		.4byte	.LASF487
 7629 233c 1F       		.byte	0x1f
 7630 233d 9901     		.2byte	0x199
 7631 233f D70A0000 		.4byte	0xad7
 7632 2343 00       		.byte	0
 7633 2344 00       		.byte	0
 7634 2345 07       		.uleb128 0x7
 7635 2346 A30F0000 		.4byte	.LASF488
 7636 234a 1F       		.byte	0x1f
 7637 234b 9A01     		.2byte	0x19a
 7638 234d 2E230000 		.4byte	0x232e
 7639 2351 0F       		.uleb128 0xf
 7640 2352 45230000 		.4byte	0x2345
 7641 2356 05       		.uleb128 0x5
 7642 2357 04       		.byte	0x4
 7643 2358 51230000 		.4byte	0x2351
 7644 235c 05       		.uleb128 0x5
 7645 235d 04       		.byte	0x4
 7646 235e 29230000 		.4byte	0x2329
 7647 2362 05       		.uleb128 0x5
 7648 2363 04       		.byte	0x4
 7649 2364 37100000 		.4byte	0x1037
 7650 2368 05       		.uleb128 0x5
 7651 2369 04       		.byte	0x4
 7652 236a 841D0000 		.4byte	0x1d84
 7653 236e 20       		.uleb128 0x20
 7654 236f 6D190000 		.4byte	.LASF489
 7655 2373 1F       		.byte	0x1f
 7656 2374 1402     		.2byte	0x214
 7657 2376 93210000 		.4byte	0x2193
 7658 237a 20       		.uleb128 0x20
 7659 237b 73190000 		.4byte	.LASF490
 7660 237f 1F       		.byte	0x1f
 7661 2380 1802     		.2byte	0x218
 7662 2382 93210000 		.4byte	0x2193
 7663 2386 20       		.uleb128 0x20
 7664 2387 79190000 		.4byte	.LASF491
 7665 238b 1F       		.byte	0x1f
 7666 238c 1C02     		.2byte	0x21c
 7667 238e 93210000 		.4byte	0x2193
 7668 2392 2A       		.uleb128 0x2a
ARM GAS  /var/folders/qd/4mxf5pkd0zdf0b9dd1hp39180000gn/T//cc7TiL7h.s 			page 136


 7669 2393 07       		.byte	0x7
 7670 2394 01       		.byte	0x1
 7671 2395 65000000 		.4byte	0x65
 7672 2399 20       		.byte	0x20
 7673 239a 5F       		.byte	0x5f
 7674 239b BE230000 		.4byte	0x23be
 7675 239f 23       		.uleb128 0x23
 7676 23a0 070E0000 		.4byte	.LASF492
 7677 23a4 00       		.byte	0
 7678 23a5 23       		.uleb128 0x23
 7679 23a6 C6000000 		.4byte	.LASF493
 7680 23aa 01       		.byte	0x1
 7681 23ab 23       		.uleb128 0x23
 7682 23ac 58000000 		.4byte	.LASF494
 7683 23b0 02       		.byte	0x2
 7684 23b1 23       		.uleb128 0x23
 7685 23b2 891A0000 		.4byte	.LASF495
 7686 23b6 03       		.byte	0x3
 7687 23b7 23       		.uleb128 0x23
 7688 23b8 1C0A0000 		.4byte	.LASF496
 7689 23bc 04       		.byte	0x4
 7690 23bd 00       		.byte	0
 7691 23be 04       		.uleb128 0x4
 7692 23bf 35060000 		.4byte	.LASF497
 7693 23c3 20       		.byte	0x20
 7694 23c4 65       		.byte	0x65
 7695 23c5 92230000 		.4byte	0x2392
 7696 23c9 0A       		.uleb128 0xa
 7697 23ca A10A0000 		.4byte	0xaa1
 7698 23ce D9230000 		.4byte	0x23d9
 7699 23d2 0B       		.uleb128 0xb
 7700 23d3 3E000000 		.4byte	0x3e
 7701 23d7 07       		.byte	0x7
 7702 23d8 00       		.byte	0
 7703 23d9 0C       		.uleb128 0xc
 7704 23da 08       		.byte	0x8
 7705 23db 21       		.byte	0x21
 7706 23dc F4       		.byte	0xf4
 7707 23dd FB230000 		.4byte	0x23fb
 7708 23e1 11       		.uleb128 0x11
 7709 23e2 6D637200 		.ascii	"mcr\000"
 7710 23e6 21       		.byte	0x21
 7711 23e7 FA       		.byte	0xfa
 7712 23e8 D70A0000 		.4byte	0xad7
 7713 23ec 00       		.byte	0
 7714 23ed 24       		.uleb128 0x24
 7715 23ee 62747200 		.ascii	"btr\000"
 7716 23f2 21       		.byte	0x21
 7717 23f3 0001     		.2byte	0x100
 7718 23f5 D70A0000 		.4byte	0xad7
 7719 23f9 04       		.byte	0x4
 7720 23fa 00       		.byte	0
 7721 23fb 07       		.uleb128 0x7
 7722 23fc 3D1B0000 		.4byte	.LASF498
 7723 2400 21       		.byte	0x21
 7724 2401 0101     		.2byte	0x101
 7725 2403 D9230000 		.4byte	0x23d9
ARM GAS  /var/folders/qd/4mxf5pkd0zdf0b9dd1hp39180000gn/T//cc7TiL7h.s 			page 137


 7726 2407 0F       		.uleb128 0xf
 7727 2408 FB230000 		.4byte	0x23fb
 7728 240c 1C       		.uleb128 0x1c
 7729 240d 30       		.byte	0x30
 7730 240e 21       		.byte	0x21
 7731 240f 0601     		.2byte	0x106
 7732 2411 98240000 		.4byte	0x2498
 7733 2415 18       		.uleb128 0x18
 7734 2416 6C170000 		.4byte	.LASF466
 7735 241a 21       		.byte	0x21
 7736 241b 0A01     		.2byte	0x10a
 7737 241d BE230000 		.4byte	0x23be
 7738 2421 00       		.byte	0
 7739 2422 18       		.uleb128 0x18
 7740 2423 3B1D0000 		.4byte	.LASF467
 7741 2427 21       		.byte	0x21
 7742 2428 0E01     		.2byte	0x10e
 7743 242a 98240000 		.4byte	0x2498
 7744 242e 04       		.byte	0x4
 7745 242f 18       		.uleb128 0x18
 7746 2430 A4090000 		.4byte	.LASF499
 7747 2434 21       		.byte	0x21
 7748 2435 1201     		.2byte	0x112
 7749 2437 E90C0000 		.4byte	0xce9
 7750 243b 08       		.byte	0x8
 7751 243c 18       		.uleb128 0x18
 7752 243d E31F0000 		.4byte	.LASF500
 7753 2441 21       		.byte	0x21
 7754 2442 1601     		.2byte	0x116
 7755 2444 E90C0000 		.4byte	0xce9
 7756 2448 10       		.byte	0x10
 7757 2449 18       		.uleb128 0x18
 7758 244a 0B1B0000 		.4byte	.LASF501
 7759 244e 21       		.byte	0x21
 7760 244f 2301     		.2byte	0x123
 7761 2451 F41B0000 		.4byte	0x1bf4
 7762 2455 18       		.byte	0x18
 7763 2456 18       		.uleb128 0x18
 7764 2457 181B0000 		.4byte	.LASF502
 7765 245b 21       		.byte	0x21
 7766 245c 2A01     		.2byte	0x12a
 7767 245e F41B0000 		.4byte	0x1bf4
 7768 2462 1C       		.byte	0x1c
 7769 2463 18       		.uleb128 0x18
 7770 2464 CA110000 		.4byte	.LASF503
 7771 2468 21       		.byte	0x21
 7772 2469 3001     		.2byte	0x130
 7773 246b F41B0000 		.4byte	0x1bf4
 7774 246f 20       		.byte	0x20
 7775 2470 18       		.uleb128 0x18
 7776 2471 78030000 		.4byte	.LASF504
 7777 2475 21       		.byte	0x21
 7778 2476 3501     		.2byte	0x135
 7779 2478 F41B0000 		.4byte	0x1bf4
 7780 247c 24       		.byte	0x24
 7781 247d 18       		.uleb128 0x18
 7782 247e 40090000 		.4byte	.LASF505
ARM GAS  /var/folders/qd/4mxf5pkd0zdf0b9dd1hp39180000gn/T//cc7TiL7h.s 			page 138


 7783 2482 21       		.byte	0x21
 7784 2483 3901     		.2byte	0x139
 7785 2485 F41B0000 		.4byte	0x1bf4
 7786 2489 28       		.byte	0x28
 7787 248a 24       		.uleb128 0x24
 7788 248b 63616E00 		.ascii	"can\000"
 7789 248f 21       		.byte	0x21
 7790 2490 3F01     		.2byte	0x13f
 7791 2492 9E240000 		.4byte	0x249e
 7792 2496 2C       		.byte	0x2c
 7793 2497 00       		.byte	0
 7794 2498 05       		.uleb128 0x5
 7795 2499 04       		.byte	0x4
 7796 249a 07240000 		.4byte	0x2407
 7797 249e 05       		.uleb128 0x5
 7798 249f 04       		.byte	0x4
 7799 24a0 80120000 		.4byte	0x1280
 7800 24a4 07       		.uleb128 0x7
 7801 24a5 DB030000 		.4byte	.LASF506
 7802 24a9 21       		.byte	0x21
 7803 24aa 4001     		.2byte	0x140
 7804 24ac 0C240000 		.4byte	0x240c
 7805 24b0 20       		.uleb128 0x20
 7806 24b1 74210000 		.4byte	.LASF507
 7807 24b5 21       		.byte	0x21
 7808 24b6 4B01     		.2byte	0x14b
 7809 24b8 A4240000 		.4byte	0x24a4
 7810 24bc 2A       		.uleb128 0x2a
 7811 24bd 07       		.byte	0x7
 7812 24be 01       		.byte	0x1
 7813 24bf 65000000 		.4byte	0x65
 7814 24c3 22       		.byte	0x22
 7815 24c4 46       		.byte	0x46
 7816 24c5 EE240000 		.4byte	0x24ee
 7817 24c9 23       		.uleb128 0x23
 7818 24ca 821D0000 		.4byte	.LASF508
 7819 24ce 00       		.byte	0
 7820 24cf 23       		.uleb128 0x23
 7821 24d0 E4220000 		.4byte	.LASF509
 7822 24d4 01       		.byte	0x1
 7823 24d5 23       		.uleb128 0x23
 7824 24d6 130F0000 		.4byte	.LASF510
 7825 24da 02       		.byte	0x2
 7826 24db 23       		.uleb128 0x23
 7827 24dc 4C170000 		.4byte	.LASF511
 7828 24e0 03       		.byte	0x3
 7829 24e1 23       		.uleb128 0x23
 7830 24e2 161D0000 		.4byte	.LASF512
 7831 24e6 04       		.byte	0x4
 7832 24e7 23       		.uleb128 0x23
 7833 24e8 3B110000 		.4byte	.LASF513
 7834 24ec 05       		.byte	0x5
 7835 24ed 00       		.byte	0
 7836 24ee 04       		.uleb128 0x4
 7837 24ef C41A0000 		.4byte	.LASF514
 7838 24f3 22       		.byte	0x22
 7839 24f4 4D       		.byte	0x4d
ARM GAS  /var/folders/qd/4mxf5pkd0zdf0b9dd1hp39180000gn/T//cc7TiL7h.s 			page 139


 7840 24f5 BC240000 		.4byte	0x24bc
 7841 24f9 0C       		.uleb128 0xc
 7842 24fa 1C       		.byte	0x1c
 7843 24fb 23       		.byte	0x23
 7844 24fc F9       		.byte	0xf9
 7845 24fd 5C250000 		.4byte	0x255c
 7846 2501 11       		.uleb128 0x11
 7847 2502 64616300 		.ascii	"dac\000"
 7848 2506 23       		.byte	0x23
 7849 2507 FD       		.byte	0xfd
 7850 2508 5C250000 		.4byte	0x255c
 7851 250c 00       		.byte	0
 7852 250d 18       		.uleb128 0x18
 7853 250e 0A1A0000 		.4byte	.LASF515
 7854 2512 23       		.byte	0x23
 7855 2513 0101     		.2byte	0x101
 7856 2515 D70A0000 		.4byte	0xad7
 7857 2519 04       		.byte	0x4
 7858 251a 18       		.uleb128 0x18
 7859 251b 20070000 		.4byte	.LASF516
 7860 251f 23       		.byte	0x23
 7861 2520 0501     		.2byte	0x105
 7862 2522 D70A0000 		.4byte	0xad7
 7863 2526 08       		.byte	0x8
 7864 2527 18       		.uleb128 0x18
 7865 2528 E6010000 		.4byte	.LASF517
 7866 252c 23       		.byte	0x23
 7867 252d 0901     		.2byte	0x109
 7868 252f D70A0000 		.4byte	0xad7
 7869 2533 0C       		.byte	0xc
 7870 2534 24       		.uleb128 0x24
 7871 2535 646D6100 		.ascii	"dma\000"
 7872 2539 23       		.byte	0x23
 7873 253a 0D01     		.2byte	0x10d
 7874 253c 68230000 		.4byte	0x2368
 7875 2540 10       		.byte	0x10
 7876 2541 18       		.uleb128 0x18
 7877 2542 84190000 		.4byte	.LASF474
 7878 2546 23       		.byte	0x23
 7879 2547 1101     		.2byte	0x111
 7880 2549 D70A0000 		.4byte	0xad7
 7881 254d 14       		.byte	0x14
 7882 254e 18       		.uleb128 0x18
 7883 254f 3C190000 		.4byte	.LASF518
 7884 2553 23       		.byte	0x23
 7885 2554 1501     		.2byte	0x115
 7886 2556 D70A0000 		.4byte	0xad7
 7887 255a 18       		.byte	0x18
 7888 255b 00       		.byte	0
 7889 255c 05       		.uleb128 0x5
 7890 255d 04       		.byte	0x4
 7891 255e 4A130000 		.4byte	0x134a
 7892 2562 07       		.uleb128 0x7
 7893 2563 2B030000 		.4byte	.LASF519
 7894 2567 23       		.byte	0x23
 7895 2568 1601     		.2byte	0x116
 7896 256a F9240000 		.4byte	0x24f9
ARM GAS  /var/folders/qd/4mxf5pkd0zdf0b9dd1hp39180000gn/T//cc7TiL7h.s 			page 140


 7897 256e 0F       		.uleb128 0xf
 7898 256f 62250000 		.4byte	0x2562
 7899 2573 07       		.uleb128 0x7
 7900 2574 1E0D0000 		.4byte	.LASF520
 7901 2578 23       		.byte	0x23
 7902 2579 1B01     		.2byte	0x11b
 7903 257b 7F250000 		.4byte	0x257f
 7904 257f 1B       		.uleb128 0x1b
 7905 2580 1E0D0000 		.4byte	.LASF520
 7906 2584 30       		.byte	0x30
 7907 2585 23       		.byte	0x23
 7908 2586 7B01     		.2byte	0x17b
 7909 2588 F5250000 		.4byte	0x25f5
 7910 258c 18       		.uleb128 0x18
 7911 258d 6C170000 		.4byte	.LASF466
 7912 2591 23       		.byte	0x23
 7913 2592 7F01     		.2byte	0x17f
 7914 2594 EE240000 		.4byte	0x24ee
 7915 2598 00       		.byte	0
 7916 2599 18       		.uleb128 0x18
 7917 259a 1A200000 		.4byte	.LASF470
 7918 259e 23       		.byte	0x23
 7919 259f 8301     		.2byte	0x183
 7920 25a1 33270000 		.4byte	0x2733
 7921 25a5 04       		.byte	0x4
 7922 25a6 18       		.uleb128 0x18
 7923 25a7 D3010000 		.4byte	.LASF468
 7924 25ab 23       		.byte	0x23
 7925 25ac 8701     		.2byte	0x187
 7926 25ae 5A260000 		.4byte	0x265a
 7927 25b2 08       		.byte	0x8
 7928 25b3 18       		.uleb128 0x18
 7929 25b4 621A0000 		.4byte	.LASF469
 7930 25b8 23       		.byte	0x23
 7931 25b9 8B01     		.2byte	0x18b
 7932 25bb BC0A0000 		.4byte	0xabc
 7933 25bf 0C       		.byte	0xc
 7934 25c0 18       		.uleb128 0x18
 7935 25c1 3B1D0000 		.4byte	.LASF467
 7936 25c5 23       		.byte	0x23
 7937 25c6 8F01     		.2byte	0x18f
 7938 25c8 39270000 		.4byte	0x2739
 7939 25cc 10       		.byte	0x10
 7940 25cd 18       		.uleb128 0x18
 7941 25ce 19070000 		.4byte	.LASF471
 7942 25d2 23       		.byte	0x23
 7943 25d3 9401     		.2byte	0x194
 7944 25d5 B40C0000 		.4byte	0xcb4
 7945 25d9 14       		.byte	0x14
 7946 25da 18       		.uleb128 0x18
 7947 25db 130D0000 		.4byte	.LASF472
 7948 25df 23       		.byte	0x23
 7949 25e0 9A01     		.2byte	0x19a
 7950 25e2 701B0000 		.4byte	0x1b70
 7951 25e6 18       		.byte	0x18
 7952 25e7 18       		.uleb128 0x18
 7953 25e8 5A120000 		.4byte	.LASF521
ARM GAS  /var/folders/qd/4mxf5pkd0zdf0b9dd1hp39180000gn/T//cc7TiL7h.s 			page 141


 7954 25ec 23       		.byte	0x23
 7955 25ed A301     		.2byte	0x1a3
 7956 25ef 3F270000 		.4byte	0x273f
 7957 25f3 2C       		.byte	0x2c
 7958 25f4 00       		.byte	0
 7959 25f5 07       		.uleb128 0x7
 7960 25f6 DD1A0000 		.4byte	.LASF522
 7961 25fa 23       		.byte	0x23
 7962 25fb 2001     		.2byte	0x120
 7963 25fd BC0A0000 		.4byte	0xabc
 7964 2601 0F       		.uleb128 0xf
 7965 2602 F5250000 		.4byte	0x25f5
 7966 2606 2C       		.uleb128 0x2c
 7967 2607 07       		.byte	0x7
 7968 2608 01       		.byte	0x1
 7969 2609 65000000 		.4byte	0x65
 7970 260d 23       		.byte	0x23
 7971 260e 2701     		.2byte	0x127
 7972 2610 21260000 		.4byte	0x2621
 7973 2614 23       		.uleb128 0x23
 7974 2615 6E1B0000 		.4byte	.LASF523
 7975 2619 00       		.byte	0
 7976 261a 23       		.uleb128 0x23
 7977 261b 2E090000 		.4byte	.LASF524
 7978 261f 01       		.byte	0x1
 7979 2620 00       		.byte	0
 7980 2621 07       		.uleb128 0x7
 7981 2622 AD120000 		.4byte	.LASF525
 7982 2626 23       		.byte	0x23
 7983 2627 2A01     		.2byte	0x12a
 7984 2629 06260000 		.4byte	0x2606
 7985 262d 07       		.uleb128 0x7
 7986 262e 8C070000 		.4byte	.LASF526
 7987 2632 23       		.byte	0x23
 7988 2633 3401     		.2byte	0x134
 7989 2635 39260000 		.4byte	0x2639
 7990 2639 05       		.uleb128 0x5
 7991 263a 04       		.byte	0x4
 7992 263b 3F260000 		.4byte	0x263f
 7993 263f 1F       		.uleb128 0x1f
 7994 2640 54260000 		.4byte	0x2654
 7995 2644 16       		.uleb128 0x16
 7996 2645 54260000 		.4byte	0x2654
 7997 2649 16       		.uleb128 0x16
 7998 264a 5A260000 		.4byte	0x265a
 7999 264e 16       		.uleb128 0x16
 8000 264f 33000000 		.4byte	0x33
 8001 2653 00       		.byte	0
 8002 2654 05       		.uleb128 0x5
 8003 2655 04       		.byte	0x4
 8004 2656 73250000 		.4byte	0x2573
 8005 265a 05       		.uleb128 0x5
 8006 265b 04       		.byte	0x4
 8007 265c 01260000 		.4byte	0x2601
 8008 2660 07       		.uleb128 0x7
 8009 2661 D7210000 		.4byte	.LASF527
 8010 2665 23       		.byte	0x23
ARM GAS  /var/folders/qd/4mxf5pkd0zdf0b9dd1hp39180000gn/T//cc7TiL7h.s 			page 142


 8011 2666 3F01     		.2byte	0x13f
 8012 2668 6C260000 		.4byte	0x266c
 8013 266c 05       		.uleb128 0x5
 8014 266d 04       		.byte	0x4
 8015 266e 72260000 		.4byte	0x2672
 8016 2672 1F       		.uleb128 0x1f
 8017 2673 82260000 		.4byte	0x2682
 8018 2677 16       		.uleb128 0x16
 8019 2678 54260000 		.4byte	0x2654
 8020 267c 16       		.uleb128 0x16
 8021 267d 21260000 		.4byte	0x2621
 8022 2681 00       		.byte	0
 8023 2682 2C       		.uleb128 0x2c
 8024 2683 07       		.byte	0x7
 8025 2684 01       		.byte	0x1
 8026 2685 65000000 		.4byte	0x65
 8027 2689 23       		.byte	0x23
 8028 268a 4401     		.2byte	0x144
 8029 268c A3260000 		.4byte	0x26a3
 8030 2690 23       		.uleb128 0x23
 8031 2691 E51D0000 		.4byte	.LASF528
 8032 2695 00       		.byte	0
 8033 2696 23       		.uleb128 0x23
 8034 2697 82140000 		.4byte	.LASF529
 8035 269b 01       		.byte	0x1
 8036 269c 23       		.uleb128 0x23
 8037 269d 4B180000 		.4byte	.LASF530
 8038 26a1 02       		.byte	0x2
 8039 26a2 00       		.byte	0
 8040 26a3 07       		.uleb128 0x7
 8041 26a4 BE0A0000 		.4byte	.LASF531
 8042 26a8 23       		.byte	0x23
 8043 26a9 4D01     		.2byte	0x14d
 8044 26ab 82260000 		.4byte	0x2682
 8045 26af 1C       		.uleb128 0x1c
 8046 26b0 10       		.byte	0x10
 8047 26b1 23       		.byte	0x23
 8048 26b2 5201     		.2byte	0x152
 8049 26b4 ED260000 		.4byte	0x26ed
 8050 26b8 18       		.uleb128 0x18
 8051 26b9 D6110000 		.4byte	.LASF478
 8052 26bd 23       		.byte	0x23
 8053 26be 5601     		.2byte	0x156
 8054 26c0 D70A0000 		.4byte	0xad7
 8055 26c4 00       		.byte	0
 8056 26c5 18       		.uleb128 0x18
 8057 26c6 66090000 		.4byte	.LASF479
 8058 26ca 23       		.byte	0x23
 8059 26cb 5A01     		.2byte	0x15a
 8060 26cd 2D260000 		.4byte	0x262d
 8061 26d1 04       		.byte	0x4
 8062 26d2 18       		.uleb128 0x18
 8063 26d3 18240000 		.4byte	.LASF480
 8064 26d7 23       		.byte	0x23
 8065 26d8 5E01     		.2byte	0x15e
 8066 26da 60260000 		.4byte	0x2660
 8067 26de 08       		.byte	0x8
ARM GAS  /var/folders/qd/4mxf5pkd0zdf0b9dd1hp39180000gn/T//cc7TiL7h.s 			page 143


 8068 26df 18       		.uleb128 0x18
 8069 26e0 D5150000 		.4byte	.LASF532
 8070 26e4 23       		.byte	0x23
 8071 26e5 6601     		.2byte	0x166
 8072 26e7 D70A0000 		.4byte	0xad7
 8073 26eb 0C       		.byte	0xc
 8074 26ec 00       		.byte	0
 8075 26ed 07       		.uleb128 0x7
 8076 26ee 72130000 		.4byte	.LASF533
 8077 26f2 23       		.byte	0x23
 8078 26f3 6701     		.2byte	0x167
 8079 26f5 AF260000 		.4byte	0x26af
 8080 26f9 0F       		.uleb128 0xf
 8081 26fa ED260000 		.4byte	0x26ed
 8082 26fe 1C       		.uleb128 0x1c
 8083 26ff 04       		.byte	0x4
 8084 2700 23       		.byte	0x23
 8085 2701 6C01     		.2byte	0x16c
 8086 2703 22270000 		.4byte	0x2722
 8087 2707 18       		.uleb128 0x18
 8088 2708 090B0000 		.4byte	.LASF534
 8089 270c 23       		.byte	0x23
 8090 270d 7101     		.2byte	0x171
 8091 270f F5250000 		.4byte	0x25f5
 8092 2713 00       		.byte	0
 8093 2714 18       		.uleb128 0x18
 8094 2715 26010000 		.4byte	.LASF535
 8095 2719 23       		.byte	0x23
 8096 271a 7501     		.2byte	0x175
 8097 271c A3260000 		.4byte	0x26a3
 8098 2720 02       		.byte	0x2
 8099 2721 00       		.byte	0
 8100 2722 07       		.uleb128 0x7
 8101 2723 2D0D0000 		.4byte	.LASF536
 8102 2727 23       		.byte	0x23
 8103 2728 7601     		.2byte	0x176
 8104 272a FE260000 		.4byte	0x26fe
 8105 272e 0F       		.uleb128 0xf
 8106 272f 22270000 		.4byte	0x2722
 8107 2733 05       		.uleb128 0x5
 8108 2734 04       		.byte	0x4
 8109 2735 F9260000 		.4byte	0x26f9
 8110 2739 05       		.uleb128 0x5
 8111 273a 04       		.byte	0x4
 8112 273b 2E270000 		.4byte	0x272e
 8113 273f 05       		.uleb128 0x5
 8114 2740 04       		.byte	0x4
 8115 2741 6E250000 		.4byte	0x256e
 8116 2745 20       		.uleb128 0x20
 8117 2746 D5030000 		.4byte	.LASF537
 8118 274a 23       		.byte	0x23
 8119 274b B301     		.2byte	0x1b3
 8120 274d 73250000 		.4byte	0x2573
 8121 2751 2A       		.uleb128 0x2a
 8122 2752 07       		.byte	0x7
 8123 2753 01       		.byte	0x1
 8124 2754 65000000 		.4byte	0x65
ARM GAS  /var/folders/qd/4mxf5pkd0zdf0b9dd1hp39180000gn/T//cc7TiL7h.s 			page 144


 8125 2758 24       		.byte	0x24
 8126 2759 3F       		.byte	0x3f
 8127 275a 71270000 		.4byte	0x2771
 8128 275e 23       		.uleb128 0x23
 8129 275f 110A0000 		.4byte	.LASF538
 8130 2763 00       		.byte	0
 8131 2764 23       		.uleb128 0x23
 8132 2765 1A260000 		.4byte	.LASF539
 8133 2769 01       		.byte	0x1
 8134 276a 23       		.uleb128 0x23
 8135 276b 0E020000 		.4byte	.LASF540
 8136 276f 02       		.byte	0x2
 8137 2770 00       		.byte	0
 8138 2771 04       		.uleb128 0x4
 8139 2772 9D1C0000 		.4byte	.LASF541
 8140 2776 24       		.byte	0x24
 8141 2777 43       		.byte	0x43
 8142 2778 51270000 		.4byte	0x2751
 8143 277c 04       		.uleb128 0x4
 8144 277d A9080000 		.4byte	.LASF542
 8145 2781 24       		.byte	0x24
 8146 2782 48       		.byte	0x48
 8147 2783 87270000 		.4byte	0x2787
 8148 2787 10       		.uleb128 0x10
 8149 2788 A9080000 		.4byte	.LASF542
 8150 278c 08       		.byte	0x8
 8151 278d 25       		.byte	0x25
 8152 278e 71       		.byte	0x71
 8153 278f AC270000 		.4byte	0x27ac
 8154 2793 0D       		.uleb128 0xd
 8155 2794 6C170000 		.4byte	.LASF466
 8156 2798 25       		.byte	0x25
 8157 2799 75       		.byte	0x75
 8158 279a 71270000 		.4byte	0x2771
 8159 279e 00       		.byte	0
 8160 279f 0D       		.uleb128 0xd
 8161 27a0 3B1D0000 		.4byte	.LASF467
 8162 27a4 25       		.byte	0x25
 8163 27a5 79       		.byte	0x79
 8164 27a6 3E280000 		.4byte	0x283e
 8165 27aa 04       		.byte	0x4
 8166 27ab 00       		.byte	0
 8167 27ac 04       		.uleb128 0x4
 8168 27ad 63240000 		.4byte	.LASF543
 8169 27b1 25       		.byte	0x25
 8170 27b2 47       		.byte	0x47
 8171 27b3 D70A0000 		.4byte	0xad7
 8172 27b7 04       		.uleb128 0x4
 8173 27b8 D51F0000 		.4byte	.LASF544
 8174 27bc 25       		.byte	0x25
 8175 27bd 4F       		.byte	0x4f
 8176 27be C2270000 		.4byte	0x27c2
 8177 27c2 05       		.uleb128 0x5
 8178 27c3 04       		.byte	0x4
 8179 27c4 C8270000 		.4byte	0x27c8
 8180 27c8 1F       		.uleb128 0x1f
 8181 27c9 D8270000 		.4byte	0x27d8
ARM GAS  /var/folders/qd/4mxf5pkd0zdf0b9dd1hp39180000gn/T//cc7TiL7h.s 			page 145


 8182 27cd 16       		.uleb128 0x16
 8183 27ce D8270000 		.4byte	0x27d8
 8184 27d2 16       		.uleb128 0x16
 8185 27d3 AC270000 		.4byte	0x27ac
 8186 27d7 00       		.byte	0
 8187 27d8 05       		.uleb128 0x5
 8188 27d9 04       		.byte	0x4
 8189 27da 7C270000 		.4byte	0x277c
 8190 27de 0C       		.uleb128 0xc
 8191 27df 08       		.byte	0x8
 8192 27e0 25       		.byte	0x25
 8193 27e1 54       		.byte	0x54
 8194 27e2 FE270000 		.4byte	0x27fe
 8195 27e6 0D       		.uleb128 0xd
 8196 27e7 8E080000 		.4byte	.LASF545
 8197 27eb 25       		.byte	0x25
 8198 27ec 58       		.byte	0x58
 8199 27ed D70A0000 		.4byte	0xad7
 8200 27f1 00       		.byte	0
 8201 27f2 11       		.uleb128 0x11
 8202 27f3 636200   		.ascii	"cb\000"
 8203 27f6 25       		.byte	0x25
 8204 27f7 5F       		.byte	0x5f
 8205 27f8 B7270000 		.4byte	0x27b7
 8206 27fc 04       		.byte	0x4
 8207 27fd 00       		.byte	0
 8208 27fe 04       		.uleb128 0x4
 8209 27ff FA0E0000 		.4byte	.LASF546
 8210 2803 25       		.byte	0x25
 8211 2804 60       		.byte	0x60
 8212 2805 DE270000 		.4byte	0x27de
 8213 2809 0C       		.uleb128 0xc
 8214 280a B8       		.byte	0xb8
 8215 280b 25       		.byte	0x25
 8216 280c 66       		.byte	0x66
 8217 280d 1E280000 		.4byte	0x281e
 8218 2811 0D       		.uleb128 0xd
 8219 2812 F7210000 		.4byte	.LASF547
 8220 2816 25       		.byte	0x25
 8221 2817 6A       		.byte	0x6a
 8222 2818 1E280000 		.4byte	0x281e
 8223 281c 00       		.byte	0
 8224 281d 00       		.byte	0
 8225 281e 0A       		.uleb128 0xa
 8226 281f FE270000 		.4byte	0x27fe
 8227 2823 2E280000 		.4byte	0x282e
 8228 2827 0B       		.uleb128 0xb
 8229 2828 3E000000 		.4byte	0x3e
 8230 282c 16       		.byte	0x16
 8231 282d 00       		.byte	0
 8232 282e 04       		.uleb128 0x4
 8233 282f D91E0000 		.4byte	.LASF548
 8234 2833 25       		.byte	0x25
 8235 2834 6C       		.byte	0x6c
 8236 2835 09280000 		.4byte	0x2809
 8237 2839 0F       		.uleb128 0xf
 8238 283a 2E280000 		.4byte	0x282e
ARM GAS  /var/folders/qd/4mxf5pkd0zdf0b9dd1hp39180000gn/T//cc7TiL7h.s 			page 146


 8239 283e 05       		.uleb128 0x5
 8240 283f 04       		.byte	0x4
 8241 2840 39280000 		.4byte	0x2839
 8242 2844 26       		.uleb128 0x26
 8243 2845 26060000 		.4byte	.LASF549
 8244 2849 25       		.byte	0x25
 8245 284a 86       		.byte	0x86
 8246 284b 7C270000 		.4byte	0x277c
 8247 284f 2A       		.uleb128 0x2a
 8248 2850 07       		.byte	0x7
 8249 2851 01       		.byte	0x1
 8250 2852 65000000 		.4byte	0x65
 8251 2856 26       		.byte	0x26
 8252 2857 31       		.byte	0x31
 8253 2858 7B280000 		.4byte	0x287b
 8254 285c 23       		.uleb128 0x23
 8255 285d 5F180000 		.4byte	.LASF550
 8256 2861 00       		.byte	0
 8257 2862 23       		.uleb128 0x23
 8258 2863 FD150000 		.4byte	.LASF551
 8259 2867 01       		.byte	0x1
 8260 2868 23       		.uleb128 0x23
 8261 2869 BA1A0000 		.4byte	.LASF552
 8262 286d 02       		.byte	0x2
 8263 286e 23       		.uleb128 0x23
 8264 286f D0070000 		.4byte	.LASF553
 8265 2873 03       		.byte	0x3
 8266 2874 23       		.uleb128 0x23
 8267 2875 AC040000 		.4byte	.LASF554
 8268 2879 04       		.byte	0x4
 8269 287a 00       		.byte	0
 8270 287b 04       		.uleb128 0x4
 8271 287c D0140000 		.4byte	.LASF555
 8272 2880 26       		.byte	0x26
 8273 2881 37       		.byte	0x37
 8274 2882 4F280000 		.4byte	0x284f
 8275 2886 04       		.uleb128 0x4
 8276 2887 47190000 		.4byte	.LASF556
 8277 288b 26       		.byte	0x26
 8278 288c 3C       		.byte	0x3c
 8279 288d 91280000 		.4byte	0x2891
 8280 2891 1B       		.uleb128 0x1b
 8281 2892 47190000 		.4byte	.LASF556
 8282 2896 10       		.byte	0x10
 8283 2897 27       		.byte	0x27
 8284 2898 9701     		.2byte	0x197
 8285 289a D3280000 		.4byte	0x28d3
 8286 289e 18       		.uleb128 0x18
 8287 289f 6C170000 		.4byte	.LASF466
 8288 28a3 27       		.byte	0x27
 8289 28a4 9B01     		.2byte	0x19b
 8290 28a6 7B280000 		.4byte	0x287b
 8291 28aa 00       		.byte	0
 8292 28ab 18       		.uleb128 0x18
 8293 28ac 3B1D0000 		.4byte	.LASF467
 8294 28b0 27       		.byte	0x27
 8295 28b1 9F01     		.2byte	0x19f
ARM GAS  /var/folders/qd/4mxf5pkd0zdf0b9dd1hp39180000gn/T//cc7TiL7h.s 			page 147


 8296 28b3 682A0000 		.4byte	0x2a68
 8297 28b7 04       		.byte	0x4
 8298 28b8 18       		.uleb128 0x18
 8299 28b9 6A0D0000 		.4byte	.LASF557
 8300 28bd 27       		.byte	0x27
 8301 28be A701     		.2byte	0x1a7
 8302 28c0 D70A0000 		.4byte	0xad7
 8303 28c4 08       		.byte	0x8
 8304 28c5 24       		.uleb128 0x24
 8305 28c6 74696D00 		.ascii	"tim\000"
 8306 28ca 27       		.byte	0x27
 8307 28cb AB01     		.2byte	0x1ab
 8308 28cd 6E2A0000 		.4byte	0x2a6e
 8309 28d1 0C       		.byte	0xc
 8310 28d2 00       		.byte	0
 8311 28d3 04       		.uleb128 0x4
 8312 28d4 CF120000 		.4byte	.LASF558
 8313 28d8 26       		.byte	0x26
 8314 28d9 43       		.byte	0x43
 8315 28da DE280000 		.4byte	0x28de
 8316 28de 05       		.uleb128 0x5
 8317 28df 04       		.byte	0x4
 8318 28e0 E4280000 		.4byte	0x28e4
 8319 28e4 1F       		.uleb128 0x1f
 8320 28e5 EF280000 		.4byte	0x28ef
 8321 28e9 16       		.uleb128 0x16
 8322 28ea EF280000 		.4byte	0x28ef
 8323 28ee 00       		.byte	0
 8324 28ef 05       		.uleb128 0x5
 8325 28f0 04       		.byte	0x4
 8326 28f1 86280000 		.4byte	0x2886
 8327 28f5 1C       		.uleb128 0x1c
 8328 28f6 60       		.byte	0x60
 8329 28f7 28       		.byte	0x28
 8330 28f8 9E01     		.2byte	0x19e
 8331 28fa 012A0000 		.4byte	0x2a01
 8332 28fe 24       		.uleb128 0x24
 8333 28ff 43523100 		.ascii	"CR1\000"
 8334 2903 28       		.byte	0x28
 8335 2904 9F01     		.2byte	0x19f
 8336 2906 E20A0000 		.4byte	0xae2
 8337 290a 00       		.byte	0
 8338 290b 24       		.uleb128 0x24
 8339 290c 43523200 		.ascii	"CR2\000"
 8340 2910 28       		.byte	0x28
 8341 2911 A001     		.2byte	0x1a0
 8342 2913 E20A0000 		.4byte	0xae2
 8343 2917 04       		.byte	0x4
 8344 2918 18       		.uleb128 0x18
 8345 2919 0D210000 		.4byte	.LASF559
 8346 291d 28       		.byte	0x28
 8347 291e A101     		.2byte	0x1a1
 8348 2920 E20A0000 		.4byte	0xae2
 8349 2924 08       		.byte	0x8
 8350 2925 18       		.uleb128 0x18
 8351 2926 7A0A0000 		.4byte	.LASF560
 8352 292a 28       		.byte	0x28
ARM GAS  /var/folders/qd/4mxf5pkd0zdf0b9dd1hp39180000gn/T//cc7TiL7h.s 			page 148


 8353 292b A201     		.2byte	0x1a2
 8354 292d E20A0000 		.4byte	0xae2
 8355 2931 0C       		.byte	0xc
 8356 2932 24       		.uleb128 0x24
 8357 2933 535200   		.ascii	"SR\000"
 8358 2936 28       		.byte	0x28
 8359 2937 A301     		.2byte	0x1a3
 8360 2939 E20A0000 		.4byte	0xae2
 8361 293d 10       		.byte	0x10
 8362 293e 24       		.uleb128 0x24
 8363 293f 45475200 		.ascii	"EGR\000"
 8364 2943 28       		.byte	0x28
 8365 2944 A401     		.2byte	0x1a4
 8366 2946 E20A0000 		.4byte	0xae2
 8367 294a 14       		.byte	0x14
 8368 294b 18       		.uleb128 0x18
 8369 294c EC240000 		.4byte	.LASF561
 8370 2950 28       		.byte	0x28
 8371 2951 A501     		.2byte	0x1a5
 8372 2953 E20A0000 		.4byte	0xae2
 8373 2957 18       		.byte	0x18
 8374 2958 18       		.uleb128 0x18
 8375 2959 F2240000 		.4byte	.LASF562
 8376 295d 28       		.byte	0x28
 8377 295e A601     		.2byte	0x1a6
 8378 2960 E20A0000 		.4byte	0xae2
 8379 2964 1C       		.byte	0x1c
 8380 2965 18       		.uleb128 0x18
 8381 2966 69070000 		.4byte	.LASF563
 8382 296a 28       		.byte	0x28
 8383 296b A701     		.2byte	0x1a7
 8384 296d E20A0000 		.4byte	0xae2
 8385 2971 20       		.byte	0x20
 8386 2972 24       		.uleb128 0x24
 8387 2973 434E5400 		.ascii	"CNT\000"
 8388 2977 28       		.byte	0x28
 8389 2978 A801     		.2byte	0x1a8
 8390 297a E20A0000 		.4byte	0xae2
 8391 297e 24       		.byte	0x24
 8392 297f 24       		.uleb128 0x24
 8393 2980 50534300 		.ascii	"PSC\000"
 8394 2984 28       		.byte	0x28
 8395 2985 A901     		.2byte	0x1a9
 8396 2987 E20A0000 		.4byte	0xae2
 8397 298b 28       		.byte	0x28
 8398 298c 24       		.uleb128 0x24
 8399 298d 41525200 		.ascii	"ARR\000"
 8400 2991 28       		.byte	0x28
 8401 2992 AA01     		.2byte	0x1aa
 8402 2994 E20A0000 		.4byte	0xae2
 8403 2998 2C       		.byte	0x2c
 8404 2999 24       		.uleb128 0x24
 8405 299a 52435200 		.ascii	"RCR\000"
 8406 299e 28       		.byte	0x28
 8407 299f AB01     		.2byte	0x1ab
 8408 29a1 E20A0000 		.4byte	0xae2
 8409 29a5 30       		.byte	0x30
ARM GAS  /var/folders/qd/4mxf5pkd0zdf0b9dd1hp39180000gn/T//cc7TiL7h.s 			page 149


 8410 29a6 24       		.uleb128 0x24
 8411 29a7 43435200 		.ascii	"CCR\000"
 8412 29ab 28       		.byte	0x28
 8413 29ac AC01     		.2byte	0x1ac
 8414 29ae DE130000 		.4byte	0x13de
 8415 29b2 34       		.byte	0x34
 8416 29b3 18       		.uleb128 0x18
 8417 29b4 E1010000 		.4byte	.LASF564
 8418 29b8 28       		.byte	0x28
 8419 29b9 AD01     		.2byte	0x1ad
 8420 29bb E20A0000 		.4byte	0xae2
 8421 29bf 44       		.byte	0x44
 8422 29c0 24       		.uleb128 0x24
 8423 29c1 44435200 		.ascii	"DCR\000"
 8424 29c5 28       		.byte	0x28
 8425 29c6 AE01     		.2byte	0x1ae
 8426 29c8 E20A0000 		.4byte	0xae2
 8427 29cc 48       		.byte	0x48
 8428 29cd 18       		.uleb128 0x18
 8429 29ce E9170000 		.4byte	.LASF565
 8430 29d2 28       		.byte	0x28
 8431 29d3 AF01     		.2byte	0x1af
 8432 29d5 E20A0000 		.4byte	0xae2
 8433 29d9 4C       		.byte	0x4c
 8434 29da 24       		.uleb128 0x24
 8435 29db 4F5200   		.ascii	"OR\000"
 8436 29de 28       		.byte	0x28
 8437 29df B001     		.2byte	0x1b0
 8438 29e1 E20A0000 		.4byte	0xae2
 8439 29e5 50       		.byte	0x50
 8440 29e6 18       		.uleb128 0x18
 8441 29e7 F8240000 		.4byte	.LASF566
 8442 29eb 28       		.byte	0x28
 8443 29ec B101     		.2byte	0x1b1
 8444 29ee E20A0000 		.4byte	0xae2
 8445 29f2 54       		.byte	0x54
 8446 29f3 18       		.uleb128 0x18
 8447 29f4 760D0000 		.4byte	.LASF567
 8448 29f8 28       		.byte	0x28
 8449 29f9 B201     		.2byte	0x1b2
 8450 29fb C9130000 		.4byte	0x13c9
 8451 29ff 58       		.byte	0x58
 8452 2a00 00       		.byte	0
 8453 2a01 07       		.uleb128 0x7
 8454 2a02 3A200000 		.4byte	.LASF568
 8455 2a06 28       		.byte	0x28
 8456 2a07 B301     		.2byte	0x1b3
 8457 2a09 F5280000 		.4byte	0x28f5
 8458 2a0d 07       		.uleb128 0x7
 8459 2a0e DD080000 		.4byte	.LASF569
 8460 2a12 27       		.byte	0x27
 8461 2a13 6D01     		.2byte	0x16d
 8462 2a15 D70A0000 		.4byte	0xad7
 8463 2a19 1C       		.uleb128 0x1c
 8464 2a1a 10       		.byte	0x10
 8465 2a1b 27       		.byte	0x27
 8466 2a1c 7801     		.2byte	0x178
ARM GAS  /var/folders/qd/4mxf5pkd0zdf0b9dd1hp39180000gn/T//cc7TiL7h.s 			page 150


 8467 2a1e 572A0000 		.4byte	0x2a57
 8468 2a22 18       		.uleb128 0x18
 8469 2a23 81240000 		.4byte	.LASF570
 8470 2a27 27       		.byte	0x27
 8471 2a28 7E01     		.2byte	0x17e
 8472 2a2a 0D2A0000 		.4byte	0x2a0d
 8473 2a2e 00       		.byte	0
 8474 2a2f 18       		.uleb128 0x18
 8475 2a30 03180000 		.4byte	.LASF571
 8476 2a34 27       		.byte	0x27
 8477 2a35 8501     		.2byte	0x185
 8478 2a37 D3280000 		.4byte	0x28d3
 8479 2a3b 04       		.byte	0x4
 8480 2a3c 24       		.uleb128 0x24
 8481 2a3d 63723200 		.ascii	"cr2\000"
 8482 2a41 27       		.byte	0x27
 8483 2a42 8B01     		.2byte	0x18b
 8484 2a44 D70A0000 		.4byte	0xad7
 8485 2a48 08       		.byte	0x8
 8486 2a49 18       		.uleb128 0x18
 8487 2a4a B80C0000 		.4byte	.LASF572
 8488 2a4e 27       		.byte	0x27
 8489 2a4f 9101     		.2byte	0x191
 8490 2a51 D70A0000 		.4byte	0xad7
 8491 2a55 0C       		.byte	0xc
 8492 2a56 00       		.byte	0
 8493 2a57 07       		.uleb128 0x7
 8494 2a58 C3060000 		.4byte	.LASF573
 8495 2a5c 27       		.byte	0x27
 8496 2a5d 9201     		.2byte	0x192
 8497 2a5f 192A0000 		.4byte	0x2a19
 8498 2a63 0F       		.uleb128 0xf
 8499 2a64 572A0000 		.4byte	0x2a57
 8500 2a68 05       		.uleb128 0x5
 8501 2a69 04       		.byte	0x4
 8502 2a6a 632A0000 		.4byte	0x2a63
 8503 2a6e 05       		.uleb128 0x5
 8504 2a6f 04       		.byte	0x4
 8505 2a70 012A0000 		.4byte	0x2a01
 8506 2a74 20       		.uleb128 0x20
 8507 2a75 12240000 		.4byte	.LASF574
 8508 2a79 27       		.byte	0x27
 8509 2a7a F201     		.2byte	0x1f2
 8510 2a7c 86280000 		.4byte	0x2886
 8511 2a80 20       		.uleb128 0x20
 8512 2a81 421D0000 		.4byte	.LASF575
 8513 2a85 27       		.byte	0x27
 8514 2a86 0202     		.2byte	0x202
 8515 2a88 86280000 		.4byte	0x2886
 8516 2a8c 2A       		.uleb128 0x2a
 8517 2a8d 07       		.byte	0x7
 8518 2a8e 01       		.byte	0x1
 8519 2a8f 65000000 		.4byte	0x65
 8520 2a93 29       		.byte	0x29
 8521 2a94 4C       		.byte	0x4c
 8522 2a95 BE2A0000 		.4byte	0x2abe
 8523 2a99 23       		.uleb128 0x23
ARM GAS  /var/folders/qd/4mxf5pkd0zdf0b9dd1hp39180000gn/T//cc7TiL7h.s 			page 151


 8524 2a9a 9B060000 		.4byte	.LASF576
 8525 2a9e 00       		.byte	0
 8526 2a9f 23       		.uleb128 0x23
 8527 2aa0 C40E0000 		.4byte	.LASF577
 8528 2aa4 01       		.byte	0x1
 8529 2aa5 23       		.uleb128 0x23
 8530 2aa6 4B070000 		.4byte	.LASF578
 8531 2aaa 02       		.byte	0x2
 8532 2aab 23       		.uleb128 0x23
 8533 2aac DB040000 		.4byte	.LASF579
 8534 2ab0 03       		.byte	0x3
 8535 2ab1 23       		.uleb128 0x23
 8536 2ab2 89150000 		.4byte	.LASF580
 8537 2ab6 04       		.byte	0x4
 8538 2ab7 23       		.uleb128 0x23
 8539 2ab8 A5140000 		.4byte	.LASF581
 8540 2abc 05       		.byte	0x5
 8541 2abd 00       		.byte	0
 8542 2abe 04       		.uleb128 0x4
 8543 2abf 8C120000 		.4byte	.LASF582
 8544 2ac3 29       		.byte	0x29
 8545 2ac4 53       		.byte	0x53
 8546 2ac5 8C2A0000 		.4byte	0x2a8c
 8547 2ac9 07       		.uleb128 0x7
 8548 2aca 24190000 		.4byte	.LASF583
 8549 2ace 2A       		.byte	0x2a
 8550 2acf 6A01     		.2byte	0x16a
 8551 2ad1 BC0A0000 		.4byte	0xabc
 8552 2ad5 07       		.uleb128 0x7
 8553 2ad6 F7030000 		.4byte	.LASF584
 8554 2ada 2A       		.byte	0x2a
 8555 2adb 6F01     		.2byte	0x16f
 8556 2add D70A0000 		.4byte	0xad7
 8557 2ae1 2C       		.uleb128 0x2c
 8558 2ae2 07       		.byte	0x7
 8559 2ae3 01       		.byte	0x1
 8560 2ae4 65000000 		.4byte	0x65
 8561 2ae8 2A       		.byte	0x2a
 8562 2ae9 7401     		.2byte	0x174
 8563 2aeb 022B0000 		.4byte	0x2b02
 8564 2aef 23       		.uleb128 0x23
 8565 2af0 EE040000 		.4byte	.LASF585
 8566 2af4 01       		.byte	0x1
 8567 2af5 23       		.uleb128 0x23
 8568 2af6 70000000 		.4byte	.LASF586
 8569 2afa 02       		.byte	0x2
 8570 2afb 23       		.uleb128 0x23
 8571 2afc C9090000 		.4byte	.LASF587
 8572 2b00 03       		.byte	0x3
 8573 2b01 00       		.byte	0
 8574 2b02 07       		.uleb128 0x7
 8575 2b03 37250000 		.4byte	.LASF588
 8576 2b07 2A       		.byte	0x2a
 8577 2b08 7801     		.2byte	0x178
 8578 2b0a E12A0000 		.4byte	0x2ae1
 8579 2b0e 2C       		.uleb128 0x2c
 8580 2b0f 07       		.byte	0x7
ARM GAS  /var/folders/qd/4mxf5pkd0zdf0b9dd1hp39180000gn/T//cc7TiL7h.s 			page 152


 8581 2b10 01       		.byte	0x1
 8582 2b11 65000000 		.4byte	0x65
 8583 2b15 2A       		.byte	0x2a
 8584 2b16 7D01     		.2byte	0x17d
 8585 2b18 2F2B0000 		.4byte	0x2b2f
 8586 2b1c 23       		.uleb128 0x23
 8587 2b1d FA050000 		.4byte	.LASF589
 8588 2b21 01       		.byte	0x1
 8589 2b22 23       		.uleb128 0x23
 8590 2b23 C1240000 		.4byte	.LASF590
 8591 2b27 02       		.byte	0x2
 8592 2b28 23       		.uleb128 0x23
 8593 2b29 D20A0000 		.4byte	.LASF591
 8594 2b2d 03       		.byte	0x3
 8595 2b2e 00       		.byte	0
 8596 2b2f 07       		.uleb128 0x7
 8597 2b30 01070000 		.4byte	.LASF592
 8598 2b34 2A       		.byte	0x2a
 8599 2b35 8101     		.2byte	0x181
 8600 2b37 0E2B0000 		.4byte	0x2b0e
 8601 2b3b 1C       		.uleb128 0x1c
 8602 2b3c 0C       		.byte	0xc
 8603 2b3d 2A       		.byte	0x2a
 8604 2b3e 8601     		.2byte	0x186
 8605 2b40 6C2B0000 		.4byte	0x2b6c
 8606 2b44 18       		.uleb128 0x18
 8607 2b45 2D160000 		.4byte	.LASF593
 8608 2b49 2A       		.byte	0x2a
 8609 2b4a 8801     		.2byte	0x188
 8610 2b4c 022B0000 		.4byte	0x2b02
 8611 2b50 00       		.byte	0
 8612 2b51 18       		.uleb128 0x18
 8613 2b52 BF030000 		.4byte	.LASF594
 8614 2b56 2A       		.byte	0x2a
 8615 2b57 8901     		.2byte	0x189
 8616 2b59 D70A0000 		.4byte	0xad7
 8617 2b5d 04       		.byte	0x4
 8618 2b5e 18       		.uleb128 0x18
 8619 2b5f EB250000 		.4byte	.LASF595
 8620 2b63 2A       		.byte	0x2a
 8621 2b64 8C01     		.2byte	0x18c
 8622 2b66 2F2B0000 		.4byte	0x2b2f
 8623 2b6a 08       		.byte	0x8
 8624 2b6b 00       		.byte	0
 8625 2b6c 07       		.uleb128 0x7
 8626 2b6d EE010000 		.4byte	.LASF596
 8627 2b71 2A       		.byte	0x2a
 8628 2b72 8E01     		.2byte	0x18e
 8629 2b74 3B2B0000 		.4byte	0x2b3b
 8630 2b78 0F       		.uleb128 0xf
 8631 2b79 6C2B0000 		.4byte	0x2b6c
 8632 2b7d 07       		.uleb128 0x7
 8633 2b7e D1040000 		.4byte	.LASF597
 8634 2b82 2A       		.byte	0x2a
 8635 2b83 9301     		.2byte	0x193
 8636 2b85 892B0000 		.4byte	0x2b89
 8637 2b89 1B       		.uleb128 0x1b
ARM GAS  /var/folders/qd/4mxf5pkd0zdf0b9dd1hp39180000gn/T//cc7TiL7h.s 			page 153


 8638 2b8a D1040000 		.4byte	.LASF597
 8639 2b8e 3C       		.byte	0x3c
 8640 2b8f 2A       		.byte	0x2a
 8641 2b90 9801     		.2byte	0x198
 8642 2b92 262C0000 		.4byte	0x2c26
 8643 2b96 18       		.uleb128 0x18
 8644 2b97 6C170000 		.4byte	.LASF466
 8645 2b9b 2A       		.byte	0x2a
 8646 2b9c 9C01     		.2byte	0x19c
 8647 2b9e BE2A0000 		.4byte	0x2abe
 8648 2ba2 00       		.byte	0
 8649 2ba3 18       		.uleb128 0x18
 8650 2ba4 3B1D0000 		.4byte	.LASF467
 8651 2ba8 2A       		.byte	0x2a
 8652 2ba9 A001     		.2byte	0x1a0
 8653 2bab 262C0000 		.4byte	0x2c26
 8654 2baf 04       		.byte	0x4
 8655 2bb0 18       		.uleb128 0x18
 8656 2bb1 72010000 		.4byte	.LASF598
 8657 2bb5 2A       		.byte	0x2a
 8658 2bb6 A401     		.2byte	0x1a4
 8659 2bb8 D52A0000 		.4byte	0x2ad5
 8660 2bbc 08       		.byte	0x8
 8661 2bbd 18       		.uleb128 0x18
 8662 2bbe 130D0000 		.4byte	.LASF472
 8663 2bc2 2A       		.byte	0x2a
 8664 2bc3 A901     		.2byte	0x1a9
 8665 2bc5 701B0000 		.4byte	0x1b70
 8666 2bc9 0C       		.byte	0xc
 8667 2bca 18       		.uleb128 0x18
 8668 2bcb 19070000 		.4byte	.LASF471
 8669 2bcf 2A       		.byte	0x2a
 8670 2bd0 B201     		.2byte	0x1b2
 8671 2bd2 B40C0000 		.4byte	0xcb4
 8672 2bd6 20       		.byte	0x20
 8673 2bd7 18       		.uleb128 0x18
 8674 2bd8 CD0E0000 		.4byte	.LASF599
 8675 2bdc 2A       		.byte	0x2a
 8676 2bdd B601     		.2byte	0x1b6
 8677 2bdf C92A0000 		.4byte	0x2ac9
 8678 2be3 24       		.byte	0x24
 8679 2be4 18       		.uleb128 0x18
 8680 2be5 7A080000 		.4byte	.LASF600
 8681 2be9 2A       		.byte	0x2a
 8682 2bea BA01     		.2byte	0x1ba
 8683 2bec D70A0000 		.4byte	0xad7
 8684 2bf0 28       		.byte	0x28
 8685 2bf1 18       		.uleb128 0x18
 8686 2bf2 D3080000 		.4byte	.LASF601
 8687 2bf6 2A       		.byte	0x2a
 8688 2bf7 BE01     		.2byte	0x1be
 8689 2bf9 D70A0000 		.4byte	0xad7
 8690 2bfd 2C       		.byte	0x2c
 8691 2bfe 18       		.uleb128 0x18
 8692 2bff 2F010000 		.4byte	.LASF602
 8693 2c03 2A       		.byte	0x2a
 8694 2c04 C201     		.2byte	0x1c2
ARM GAS  /var/folders/qd/4mxf5pkd0zdf0b9dd1hp39180000gn/T//cc7TiL7h.s 			page 154


 8695 2c06 68230000 		.4byte	0x2368
 8696 2c0a 30       		.byte	0x30
 8697 2c0b 18       		.uleb128 0x18
 8698 2c0c 01020000 		.4byte	.LASF603
 8699 2c10 2A       		.byte	0x2a
 8700 2c11 C601     		.2byte	0x1c6
 8701 2c13 68230000 		.4byte	0x2368
 8702 2c17 34       		.byte	0x34
 8703 2c18 24       		.uleb128 0x24
 8704 2c19 69326300 		.ascii	"i2c\000"
 8705 2c1d 2A       		.byte	0x2a
 8706 2c1e CA01     		.2byte	0x1ca
 8707 2c20 2C2C0000 		.4byte	0x2c2c
 8708 2c24 38       		.byte	0x38
 8709 2c25 00       		.byte	0
 8710 2c26 05       		.uleb128 0x5
 8711 2c27 04       		.byte	0x4
 8712 2c28 782B0000 		.4byte	0x2b78
 8713 2c2c 05       		.uleb128 0x5
 8714 2c2d 04       		.byte	0x4
 8715 2c2e 6E140000 		.4byte	0x146e
 8716 2c32 20       		.uleb128 0x20
 8717 2c33 ED120000 		.4byte	.LASF604
 8718 2c37 2A       		.byte	0x2a
 8719 2c38 E001     		.2byte	0x1e0
 8720 2c3a 7D2B0000 		.4byte	0x2b7d
 8721 2c3e 2A       		.uleb128 0x2a
 8722 2c3f 07       		.byte	0x7
 8723 2c40 01       		.byte	0x1
 8724 2c41 65000000 		.4byte	0x65
 8725 2c45 2B       		.byte	0x2b
 8726 2c46 39       		.byte	0x39
 8727 2c47 6A2C0000 		.4byte	0x2c6a
 8728 2c4b 23       		.uleb128 0x23
 8729 2c4c 79110000 		.4byte	.LASF605
 8730 2c50 00       		.byte	0
 8731 2c51 23       		.uleb128 0x23
 8732 2c52 F40C0000 		.4byte	.LASF606
 8733 2c56 01       		.byte	0x1
 8734 2c57 23       		.uleb128 0x23
 8735 2c58 57160000 		.4byte	.LASF607
 8736 2c5c 02       		.byte	0x2
 8737 2c5d 23       		.uleb128 0x23
 8738 2c5e AF1A0000 		.4byte	.LASF608
 8739 2c62 03       		.byte	0x3
 8740 2c63 23       		.uleb128 0x23
 8741 2c64 651F0000 		.4byte	.LASF609
 8742 2c68 04       		.byte	0x4
 8743 2c69 00       		.byte	0
 8744 2c6a 04       		.uleb128 0x4
 8745 2c6b A1220000 		.4byte	.LASF610
 8746 2c6f 2B       		.byte	0x2b
 8747 2c70 3F       		.byte	0x3f
 8748 2c71 3E2C0000 		.4byte	0x2c3e
 8749 2c75 04       		.uleb128 0x4
 8750 2c76 E1250000 		.4byte	.LASF611
 8751 2c7a 2C       		.byte	0x2c
ARM GAS  /var/folders/qd/4mxf5pkd0zdf0b9dd1hp39180000gn/T//cc7TiL7h.s 			page 155


 8752 2c7b E2       		.byte	0xe2
 8753 2c7c 802C0000 		.4byte	0x2c80
 8754 2c80 1B       		.uleb128 0x1b
 8755 2c81 E1250000 		.4byte	.LASF611
 8756 2c85 20       		.byte	0x20
 8757 2c86 2C       		.byte	0x2c
 8758 2c87 1B01     		.2byte	0x11b
 8759 2c89 F62C0000 		.4byte	0x2cf6
 8760 2c8d 18       		.uleb128 0x18
 8761 2c8e 6C170000 		.4byte	.LASF466
 8762 2c92 2C       		.byte	0x2c
 8763 2c93 1F01     		.2byte	0x11f
 8764 2c95 6A2C0000 		.4byte	0x2c6a
 8765 2c99 00       		.byte	0
 8766 2c9a 18       		.uleb128 0x18
 8767 2c9b 3B1D0000 		.4byte	.LASF467
 8768 2c9f 2C       		.byte	0x2c
 8769 2ca0 2301     		.2byte	0x123
 8770 2ca2 8E2D0000 		.4byte	0x2d8e
 8771 2ca6 04       		.byte	0x4
 8772 2ca7 24       		.uleb128 0x24
 8773 2ca8 73706900 		.ascii	"spi\000"
 8774 2cac 2C       		.byte	0x2c
 8775 2cad 2801     		.2byte	0x128
 8776 2caf 942D0000 		.4byte	0x2d94
 8777 2cb3 08       		.byte	0x8
 8778 2cb4 24       		.uleb128 0x24
 8779 2cb5 63666700 		.ascii	"cfg\000"
 8780 2cb9 2C       		.byte	0x2c
 8781 2cba 2C01     		.2byte	0x12c
 8782 2cbc BC0A0000 		.4byte	0xabc
 8783 2cc0 0C       		.byte	0xc
 8784 2cc1 18       		.uleb128 0x18
 8785 2cc2 2F010000 		.4byte	.LASF602
 8786 2cc6 2C       		.byte	0x2c
 8787 2cc7 3001     		.2byte	0x130
 8788 2cc9 68230000 		.4byte	0x2368
 8789 2ccd 10       		.byte	0x10
 8790 2cce 18       		.uleb128 0x18
 8791 2ccf 01020000 		.4byte	.LASF603
 8792 2cd3 2C       		.byte	0x2c
 8793 2cd4 3401     		.2byte	0x134
 8794 2cd6 68230000 		.4byte	0x2368
 8795 2cda 14       		.byte	0x14
 8796 2cdb 18       		.uleb128 0x18
 8797 2cdc 7A080000 		.4byte	.LASF600
 8798 2ce0 2C       		.byte	0x2c
 8799 2ce1 3801     		.2byte	0x138
 8800 2ce3 D70A0000 		.4byte	0xad7
 8801 2ce7 18       		.byte	0x18
 8802 2ce8 18       		.uleb128 0x18
 8803 2ce9 D3080000 		.4byte	.LASF601
 8804 2ced 2C       		.byte	0x2c
 8805 2cee 3C01     		.2byte	0x13c
 8806 2cf0 D70A0000 		.4byte	0xad7
 8807 2cf4 1C       		.byte	0x1c
 8808 2cf5 00       		.byte	0
ARM GAS  /var/folders/qd/4mxf5pkd0zdf0b9dd1hp39180000gn/T//cc7TiL7h.s 			page 156


 8809 2cf6 04       		.uleb128 0x4
 8810 2cf7 BF080000 		.4byte	.LASF612
 8811 2cfb 2C       		.byte	0x2c
 8812 2cfc EB       		.byte	0xeb
 8813 2cfd 012D0000 		.4byte	0x2d01
 8814 2d01 05       		.uleb128 0x5
 8815 2d02 04       		.byte	0x4
 8816 2d03 072D0000 		.4byte	0x2d07
 8817 2d07 1F       		.uleb128 0x1f
 8818 2d08 1C2D0000 		.4byte	0x2d1c
 8819 2d0c 16       		.uleb128 0x16
 8820 2d0d 1C2D0000 		.4byte	0x2d1c
 8821 2d11 16       		.uleb128 0x16
 8822 2d12 33000000 		.4byte	0x33
 8823 2d16 16       		.uleb128 0x16
 8824 2d17 33000000 		.4byte	0x33
 8825 2d1b 00       		.byte	0
 8826 2d1c 05       		.uleb128 0x5
 8827 2d1d 04       		.byte	0x4
 8828 2d1e 752C0000 		.4byte	0x2c75
 8829 2d22 0C       		.uleb128 0xc
 8830 2d23 14       		.byte	0x14
 8831 2d24 2C       		.byte	0x2c
 8832 2d25 F1       		.byte	0xf1
 8833 2d26 762D0000 		.4byte	0x2d76
 8834 2d2a 0D       		.uleb128 0xd
 8835 2d2b 94010000 		.4byte	.LASF613
 8836 2d2f 2C       		.byte	0x2c
 8837 2d30 F6       		.byte	0xf6
 8838 2d31 762D0000 		.4byte	0x2d76
 8839 2d35 00       		.byte	0
 8840 2d36 0D       		.uleb128 0xd
 8841 2d37 68010000 		.4byte	.LASF614
 8842 2d3b 2C       		.byte	0x2c
 8843 2d3c FB       		.byte	0xfb
 8844 2d3d 64010000 		.4byte	0x164
 8845 2d41 04       		.byte	0x4
 8846 2d42 0D       		.uleb128 0xd
 8847 2d43 190D0000 		.4byte	.LASF615
 8848 2d47 2C       		.byte	0x2c
 8849 2d48 FF       		.byte	0xff
 8850 2d49 33000000 		.4byte	0x33
 8851 2d4d 08       		.byte	0x8
 8852 2d4e 18       		.uleb128 0x18
 8853 2d4f 66090000 		.4byte	.LASF479
 8854 2d53 2C       		.byte	0x2c
 8855 2d54 0301     		.2byte	0x103
 8856 2d56 F62C0000 		.4byte	0x2cf6
 8857 2d5a 0C       		.byte	0xc
 8858 2d5b 18       		.uleb128 0x18
 8859 2d5c FB1A0000 		.4byte	.LASF616
 8860 2d60 2C       		.byte	0x2c
 8861 2d61 0F01     		.2byte	0x10f
 8862 2d63 B10A0000 		.4byte	0xab1
 8863 2d67 10       		.byte	0x10
 8864 2d68 18       		.uleb128 0x18
 8865 2d69 E4060000 		.4byte	.LASF617
ARM GAS  /var/folders/qd/4mxf5pkd0zdf0b9dd1hp39180000gn/T//cc7TiL7h.s 			page 157


 8866 2d6d 2C       		.byte	0x2c
 8867 2d6e 1501     		.2byte	0x115
 8868 2d70 B10A0000 		.4byte	0xab1
 8869 2d74 12       		.byte	0x12
 8870 2d75 00       		.byte	0
 8871 2d76 05       		.uleb128 0x5
 8872 2d77 04       		.byte	0x4
 8873 2d78 7C2D0000 		.4byte	0x2d7c
 8874 2d7c 2D       		.uleb128 0x2d
 8875 2d7d 07       		.uleb128 0x7
 8876 2d7e F6250000 		.4byte	.LASF618
 8877 2d82 2C       		.byte	0x2c
 8878 2d83 1601     		.2byte	0x116
 8879 2d85 222D0000 		.4byte	0x2d22
 8880 2d89 0F       		.uleb128 0xf
 8881 2d8a 7D2D0000 		.4byte	0x2d7d
 8882 2d8e 05       		.uleb128 0x5
 8883 2d8f 04       		.byte	0x4
 8884 2d90 892D0000 		.4byte	0x2d89
 8885 2d94 05       		.uleb128 0x5
 8886 2d95 04       		.byte	0x4
 8887 2d96 21160000 		.4byte	0x1621
 8888 2d9a 20       		.uleb128 0x20
 8889 2d9b 2B260000 		.4byte	.LASF619
 8890 2d9f 2C       		.byte	0x2c
 8891 2da0 4801     		.2byte	0x148
 8892 2da2 752C0000 		.4byte	0x2c75
 8893 2da6 2A       		.uleb128 0x2a
 8894 2da7 07       		.byte	0x7
 8895 2da8 01       		.byte	0x1
 8896 2da9 65000000 		.4byte	0x65
 8897 2dad 2D       		.byte	0x2d
 8898 2dae 4A       		.byte	0x4a
 8899 2daf C62D0000 		.4byte	0x2dc6
 8900 2db3 23       		.uleb128 0x23
 8901 2db4 74070000 		.4byte	.LASF620
 8902 2db8 00       		.byte	0
 8903 2db9 23       		.uleb128 0x23
 8904 2dba 020D0000 		.4byte	.LASF621
 8905 2dbe 01       		.byte	0x1
 8906 2dbf 23       		.uleb128 0x23
 8907 2dc0 A0110000 		.4byte	.LASF622
 8908 2dc4 02       		.byte	0x2
 8909 2dc5 00       		.byte	0
 8910 2dc6 04       		.uleb128 0x4
 8911 2dc7 6D030000 		.4byte	.LASF623
 8912 2dcb 2D       		.byte	0x2d
 8913 2dcc 4E       		.byte	0x4e
 8914 2dcd A62D0000 		.4byte	0x2da6
 8915 2dd1 04       		.uleb128 0x4
 8916 2dd2 2D0C0000 		.4byte	.LASF624
 8917 2dd6 2D       		.byte	0x2d
 8918 2dd7 53       		.byte	0x53
 8919 2dd8 DC2D0000 		.4byte	0x2ddc
 8920 2ddc 1B       		.uleb128 0x1b
 8921 2ddd 2D0C0000 		.4byte	.LASF624
 8922 2de1 1C       		.byte	0x1c
ARM GAS  /var/folders/qd/4mxf5pkd0zdf0b9dd1hp39180000gn/T//cc7TiL7h.s 			page 158


 8923 2de2 2E       		.byte	0x2e
 8924 2de3 7901     		.2byte	0x179
 8925 2de5 452E0000 		.4byte	0x2e45
 8926 2de9 18       		.uleb128 0x18
 8927 2dea 6C170000 		.4byte	.LASF466
 8928 2dee 2E       		.byte	0x2e
 8929 2def 7D01     		.2byte	0x17d
 8930 2df1 C62D0000 		.4byte	0x2dc6
 8931 2df5 00       		.byte	0
 8932 2df6 18       		.uleb128 0x18
 8933 2df7 3B1D0000 		.4byte	.LASF467
 8934 2dfb 2E       		.byte	0x2e
 8935 2dfc 8101     		.2byte	0x181
 8936 2dfe 402F0000 		.4byte	0x2f40
 8937 2e02 04       		.byte	0x4
 8938 2e03 18       		.uleb128 0x18
 8939 2e04 96140000 		.4byte	.LASF625
 8940 2e08 2E       		.byte	0x2e
 8941 2e09 8501     		.2byte	0x185
 8942 2e0b 8B2E0000 		.4byte	0x2e8b
 8943 2e0f 08       		.byte	0x8
 8944 2e10 18       		.uleb128 0x18
 8945 2e11 661B0000 		.4byte	.LASF626
 8946 2e15 2E       		.byte	0x2e
 8947 2e16 8901     		.2byte	0x189
 8948 2e18 7F2E0000 		.4byte	0x2e7f
 8949 2e1c 0C       		.byte	0xc
 8950 2e1d 18       		.uleb128 0x18
 8951 2e1e F7210000 		.4byte	.LASF547
 8952 2e22 2E       		.byte	0x2e
 8953 2e23 8D01     		.2byte	0x18d
 8954 2e25 732E0000 		.4byte	0x2e73
 8955 2e29 10       		.byte	0x10
 8956 2e2a 18       		.uleb128 0x18
 8957 2e2b 6A0D0000 		.4byte	.LASF557
 8958 2e2f 2E       		.byte	0x2e
 8959 2e30 9501     		.2byte	0x195
 8960 2e32 D70A0000 		.4byte	0xad7
 8961 2e36 14       		.byte	0x14
 8962 2e37 24       		.uleb128 0x24
 8963 2e38 74696D00 		.ascii	"tim\000"
 8964 2e3c 2E       		.byte	0x2e
 8965 2e3d 9901     		.2byte	0x199
 8966 2e3f 6E2A0000 		.4byte	0x2a6e
 8967 2e43 18       		.byte	0x18
 8968 2e44 00       		.byte	0
 8969 2e45 04       		.uleb128 0x4
 8970 2e46 4C120000 		.4byte	.LASF627
 8971 2e4a 2D       		.byte	0x2d
 8972 2e4b 5A       		.byte	0x5a
 8973 2e4c 502E0000 		.4byte	0x2e50
 8974 2e50 05       		.uleb128 0x5
 8975 2e51 04       		.byte	0x4
 8976 2e52 562E0000 		.4byte	0x2e56
 8977 2e56 1F       		.uleb128 0x1f
 8978 2e57 612E0000 		.4byte	0x2e61
 8979 2e5b 16       		.uleb128 0x16
ARM GAS  /var/folders/qd/4mxf5pkd0zdf0b9dd1hp39180000gn/T//cc7TiL7h.s 			page 159


 8980 2e5c 612E0000 		.4byte	0x2e61
 8981 2e60 00       		.byte	0
 8982 2e61 05       		.uleb128 0x5
 8983 2e62 04       		.byte	0x4
 8984 2e63 D12D0000 		.4byte	0x2dd1
 8985 2e67 07       		.uleb128 0x7
 8986 2e68 96160000 		.4byte	.LASF628
 8987 2e6c 2E       		.byte	0x2e
 8988 2e6d 2501     		.2byte	0x125
 8989 2e6f D70A0000 		.4byte	0xad7
 8990 2e73 07       		.uleb128 0x7
 8991 2e74 F0180000 		.4byte	.LASF629
 8992 2e78 2E       		.byte	0x2e
 8993 2e79 2A01     		.2byte	0x12a
 8994 2e7b A10A0000 		.4byte	0xaa1
 8995 2e7f 07       		.uleb128 0x7
 8996 2e80 41160000 		.4byte	.LASF630
 8997 2e84 2E       		.byte	0x2e
 8998 2e85 2F01     		.2byte	0x12f
 8999 2e87 D70A0000 		.4byte	0xad7
 9000 2e8b 07       		.uleb128 0x7
 9001 2e8c 460E0000 		.4byte	.LASF631
 9002 2e90 2E       		.byte	0x2e
 9003 2e91 3401     		.2byte	0x134
 9004 2e93 D70A0000 		.4byte	0xad7
 9005 2e97 1C       		.uleb128 0x1c
 9006 2e98 08       		.byte	0x8
 9007 2e99 2E       		.byte	0x2e
 9008 2e9a 3901     		.2byte	0x139
 9009 2e9c BB2E0000 		.4byte	0x2ebb
 9010 2ea0 18       		.uleb128 0x18
 9011 2ea1 8E080000 		.4byte	.LASF545
 9012 2ea5 2E       		.byte	0x2e
 9013 2ea6 3D01     		.2byte	0x13d
 9014 2ea8 672E0000 		.4byte	0x2e67
 9015 2eac 00       		.byte	0
 9016 2ead 18       		.uleb128 0x18
 9017 2eae 03180000 		.4byte	.LASF571
 9018 2eb2 2E       		.byte	0x2e
 9019 2eb3 4301     		.2byte	0x143
 9020 2eb5 452E0000 		.4byte	0x2e45
 9021 2eb9 04       		.byte	0x4
 9022 2eba 00       		.byte	0
 9023 2ebb 07       		.uleb128 0x7
 9024 2ebc 350E0000 		.4byte	.LASF632
 9025 2ec0 2E       		.byte	0x2e
 9026 2ec1 4501     		.2byte	0x145
 9027 2ec3 972E0000 		.4byte	0x2e97
 9028 2ec7 1C       		.uleb128 0x1c
 9029 2ec8 34       		.byte	0x34
 9030 2ec9 2E       		.byte	0x2e
 9031 2eca 4A01     		.2byte	0x14a
 9032 2ecc 1F2F0000 		.4byte	0x2f1f
 9033 2ed0 18       		.uleb128 0x18
 9034 2ed1 81240000 		.4byte	.LASF570
 9035 2ed5 2E       		.byte	0x2e
 9036 2ed6 5001     		.2byte	0x150
ARM GAS  /var/folders/qd/4mxf5pkd0zdf0b9dd1hp39180000gn/T//cc7TiL7h.s 			page 160


 9037 2ed8 D70A0000 		.4byte	0xad7
 9038 2edc 00       		.byte	0
 9039 2edd 18       		.uleb128 0x18
 9040 2ede 96140000 		.4byte	.LASF625
 9041 2ee2 2E       		.byte	0x2e
 9042 2ee3 5601     		.2byte	0x156
 9043 2ee5 8B2E0000 		.4byte	0x2e8b
 9044 2ee9 04       		.byte	0x4
 9045 2eea 18       		.uleb128 0x18
 9046 2eeb 03180000 		.4byte	.LASF571
 9047 2eef 2E       		.byte	0x2e
 9048 2ef0 5C01     		.2byte	0x15c
 9049 2ef2 452E0000 		.4byte	0x2e45
 9050 2ef6 08       		.byte	0x8
 9051 2ef7 18       		.uleb128 0x18
 9052 2ef8 F7210000 		.4byte	.LASF547
 9053 2efc 2E       		.byte	0x2e
 9054 2efd 6001     		.2byte	0x160
 9055 2eff 1F2F0000 		.4byte	0x2f1f
 9056 2f03 0C       		.byte	0xc
 9057 2f04 24       		.uleb128 0x24
 9058 2f05 63723200 		.ascii	"cr2\000"
 9059 2f09 2E       		.byte	0x2e
 9060 2f0a 6601     		.2byte	0x166
 9061 2f0c D70A0000 		.4byte	0xad7
 9062 2f10 2C       		.byte	0x2c
 9063 2f11 18       		.uleb128 0x18
 9064 2f12 B80C0000 		.4byte	.LASF572
 9065 2f16 2E       		.byte	0x2e
 9066 2f17 7301     		.2byte	0x173
 9067 2f19 D70A0000 		.4byte	0xad7
 9068 2f1d 30       		.byte	0x30
 9069 2f1e 00       		.byte	0
 9070 2f1f 0A       		.uleb128 0xa
 9071 2f20 BB2E0000 		.4byte	0x2ebb
 9072 2f24 2F2F0000 		.4byte	0x2f2f
 9073 2f28 0B       		.uleb128 0xb
 9074 2f29 3E000000 		.4byte	0x3e
 9075 2f2d 03       		.byte	0x3
 9076 2f2e 00       		.byte	0
 9077 2f2f 07       		.uleb128 0x7
 9078 2f30 3E0C0000 		.4byte	.LASF633
 9079 2f34 2E       		.byte	0x2e
 9080 2f35 7401     		.2byte	0x174
 9081 2f37 C72E0000 		.4byte	0x2ec7
 9082 2f3b 0F       		.uleb128 0xf
 9083 2f3c 2F2F0000 		.4byte	0x2f2f
 9084 2f40 05       		.uleb128 0x5
 9085 2f41 04       		.byte	0x4
 9086 2f42 3B2F0000 		.4byte	0x2f3b
 9087 2f46 20       		.uleb128 0x20
 9088 2f47 1E130000 		.4byte	.LASF634
 9089 2f4b 2E       		.byte	0x2e
 9090 2f4c BC01     		.2byte	0x1bc
 9091 2f4e D12D0000 		.4byte	0x2dd1
 9092 2f52 20       		.uleb128 0x20
 9093 2f53 24130000 		.4byte	.LASF635
ARM GAS  /var/folders/qd/4mxf5pkd0zdf0b9dd1hp39180000gn/T//cc7TiL7h.s 			page 161


 9094 2f57 2E       		.byte	0x2e
 9095 2f58 C001     		.2byte	0x1c0
 9096 2f5a D12D0000 		.4byte	0x2dd1
 9097 2f5e 20       		.uleb128 0x20
 9098 2f5f 2A130000 		.4byte	.LASF636
 9099 2f63 2E       		.byte	0x2e
 9100 2f64 C401     		.2byte	0x1c4
 9101 2f66 D12D0000 		.4byte	0x2dd1
 9102 2f6a 20       		.uleb128 0x20
 9103 2f6b 30130000 		.4byte	.LASF637
 9104 2f6f 2E       		.byte	0x2e
 9105 2f70 C801     		.2byte	0x1c8
 9106 2f72 D12D0000 		.4byte	0x2dd1
 9107 2f76 2A       		.uleb128 0x2a
 9108 2f77 07       		.byte	0x7
 9109 2f78 01       		.byte	0x1
 9110 2f79 65000000 		.4byte	0x65
 9111 2f7d 2F       		.byte	0x2f
 9112 2f7e 55       		.byte	0x55
 9113 2f7f 962F0000 		.4byte	0x2f96
 9114 2f83 23       		.uleb128 0x23
 9115 2f84 32040000 		.4byte	.LASF638
 9116 2f88 00       		.byte	0
 9117 2f89 23       		.uleb128 0x23
 9118 2f8a A80D0000 		.4byte	.LASF639
 9119 2f8e 01       		.byte	0x1
 9120 2f8f 23       		.uleb128 0x23
 9121 2f90 CC0F0000 		.4byte	.LASF640
 9122 2f94 02       		.byte	0x2
 9123 2f95 00       		.byte	0
 9124 2f96 04       		.uleb128 0x4
 9125 2f97 F2190000 		.4byte	.LASF641
 9126 2f9b 2F       		.byte	0x2f
 9127 2f9c 59       		.byte	0x59
 9128 2f9d 762F0000 		.4byte	0x2f76
 9129 2fa1 04       		.uleb128 0x4
 9130 2fa2 27220000 		.4byte	.LASF642
 9131 2fa6 2F       		.byte	0x2f
 9132 2fa7 5E       		.byte	0x5e
 9133 2fa8 AC2F0000 		.4byte	0x2fac
 9134 2fac 10       		.uleb128 0x10
 9135 2fad 27220000 		.4byte	.LASF642
 9136 2fb1 78       		.byte	0x78
 9137 2fb2 2F       		.byte	0x2f
 9138 2fb3 78       		.byte	0x78
 9139 2fb4 17300000 		.4byte	0x3017
 9140 2fb8 11       		.uleb128 0x11
 9141 2fb9 766D7400 		.ascii	"vmt\000"
 9142 2fbd 2F       		.byte	0x2f
 9143 2fbe 7A       		.byte	0x7a
 9144 2fbf 95300000 		.4byte	0x3095
 9145 2fc3 00       		.byte	0
 9146 2fc4 0D       		.uleb128 0xd
 9147 2fc5 47000000 		.4byte	.LASF643
 9148 2fc9 2F       		.byte	0x2f
 9149 2fca 7B       		.byte	0x7b
 9150 2fcb F41B0000 		.4byte	0x1bf4
ARM GAS  /var/folders/qd/4mxf5pkd0zdf0b9dd1hp39180000gn/T//cc7TiL7h.s 			page 162


 9151 2fcf 04       		.byte	0x4
 9152 2fd0 0D       		.uleb128 0xd
 9153 2fd1 6C170000 		.4byte	.LASF466
 9154 2fd5 2F       		.byte	0x2f
 9155 2fd6 7B       		.byte	0x7b
 9156 2fd7 962F0000 		.4byte	0x2f96
 9157 2fdb 08       		.byte	0x8
 9158 2fdc 0D       		.uleb128 0xd
 9159 2fdd D3190000 		.4byte	.LASF644
 9160 2fe1 2F       		.byte	0x2f
 9161 2fe2 7B       		.byte	0x7b
 9162 2fe3 9F1C0000 		.4byte	0x1c9f
 9163 2fe7 0C       		.byte	0xc
 9164 2fe8 0D       		.uleb128 0xd
 9165 2fe9 49130000 		.4byte	.LASF645
 9166 2fed 2F       		.byte	0x2f
 9167 2fee 7B       		.byte	0x7b
 9168 2fef AA1C0000 		.4byte	0x1caa
 9169 2ff3 30       		.byte	0x30
 9170 2ff4 11       		.uleb128 0x11
 9171 2ff5 696200   		.ascii	"ib\000"
 9172 2ff8 2F       		.byte	0x2f
 9173 2ff9 7B       		.byte	0x7b
 9174 2ffa 9B300000 		.4byte	0x309b
 9175 2ffe 54       		.byte	0x54
 9176 2fff 11       		.uleb128 0x11
 9177 3000 6F6200   		.ascii	"ob\000"
 9178 3003 2F       		.byte	0x2f
 9179 3004 7B       		.byte	0x7b
 9180 3005 9B300000 		.4byte	0x309b
 9181 3009 64       		.byte	0x64
 9182 300a 0D       		.uleb128 0xd
 9183 300b 8E1B0000 		.4byte	.LASF646
 9184 300f 2F       		.byte	0x2f
 9185 3010 7B       		.byte	0x7b
 9186 3011 AB300000 		.4byte	0x30ab
 9187 3015 74       		.byte	0x74
 9188 3016 00       		.byte	0
 9189 3017 29       		.uleb128 0x29
 9190 3018 53443300 		.ascii	"SD3\000"
 9191 301c 30       		.byte	0x30
 9192 301d 1501     		.2byte	0x115
 9193 301f A12F0000 		.4byte	0x2fa1
 9194 3023 10       		.uleb128 0x10
 9195 3024 590F0000 		.4byte	.LASF647
 9196 3028 20       		.byte	0x20
 9197 3029 2F       		.byte	0x2f
 9198 302a 6D       		.byte	0x6d
 9199 302b 90300000 		.4byte	0x3090
 9200 302f 0D       		.uleb128 0xd
 9201 3030 C2190000 		.4byte	.LASF648
 9202 3034 2F       		.byte	0x2f
 9203 3035 6E       		.byte	0x6e
 9204 3036 D41C0000 		.4byte	0x1cd4
 9205 303a 00       		.byte	0
 9206 303b 0D       		.uleb128 0xd
 9207 303c E9040000 		.4byte	.LASF649
ARM GAS  /var/folders/qd/4mxf5pkd0zdf0b9dd1hp39180000gn/T//cc7TiL7h.s 			page 163


 9208 3040 2F       		.byte	0x2f
 9209 3041 6E       		.byte	0x6e
 9210 3042 F31C0000 		.4byte	0x1cf3
 9211 3046 04       		.byte	0x4
 9212 3047 11       		.uleb128 0x11
 9213 3048 70757400 		.ascii	"put\000"
 9214 304c 2F       		.byte	0x2f
 9215 304d 6E       		.byte	0x6e
 9216 304e 0D1D0000 		.4byte	0x1d0d
 9217 3052 08       		.byte	0x8
 9218 3053 11       		.uleb128 0x11
 9219 3054 67657400 		.ascii	"get\000"
 9220 3058 2F       		.byte	0x2f
 9221 3059 6E       		.byte	0x6e
 9222 305a 221D0000 		.4byte	0x1d22
 9223 305e 0C       		.byte	0xc
 9224 305f 0D       		.uleb128 0xd
 9225 3060 61150000 		.4byte	.LASF650
 9226 3064 2F       		.byte	0x2f
 9227 3065 6E       		.byte	0x6e
 9228 3066 C31D0000 		.4byte	0x1dc3
 9229 306a 10       		.byte	0x10
 9230 306b 0D       		.uleb128 0xd
 9231 306c A8190000 		.4byte	.LASF651
 9232 3070 2F       		.byte	0x2f
 9233 3071 6E       		.byte	0x6e
 9234 3072 DD1D0000 		.4byte	0x1ddd
 9235 3076 14       		.byte	0x14
 9236 3077 0D       		.uleb128 0xd
 9237 3078 0C230000 		.4byte	.LASF652
 9238 307c 2F       		.byte	0x2f
 9239 307d 6E       		.byte	0x6e
 9240 307e 011E0000 		.4byte	0x1e01
 9241 3082 18       		.byte	0x18
 9242 3083 0D       		.uleb128 0xd
 9243 3084 C2140000 		.4byte	.LASF653
 9244 3088 2F       		.byte	0x2f
 9245 3089 6E       		.byte	0x6e
 9246 308a 251E0000 		.4byte	0x1e25
 9247 308e 1C       		.byte	0x1c
 9248 308f 00       		.byte	0
 9249 3090 0F       		.uleb128 0xf
 9250 3091 23300000 		.4byte	0x3023
 9251 3095 05       		.uleb128 0x5
 9252 3096 04       		.byte	0x4
 9253 3097 90300000 		.4byte	0x3090
 9254 309b 0A       		.uleb128 0xa
 9255 309c A10A0000 		.4byte	0xaa1
 9256 30a0 AB300000 		.4byte	0x30ab
 9257 30a4 0B       		.uleb128 0xb
 9258 30a5 3E000000 		.4byte	0x3e
 9259 30a9 0F       		.byte	0xf
 9260 30aa 00       		.byte	0
 9261 30ab 05       		.uleb128 0x5
 9262 30ac 04       		.byte	0x4
 9263 30ad 90160000 		.4byte	0x1690
 9264 30b1 2A       		.uleb128 0x2a
ARM GAS  /var/folders/qd/4mxf5pkd0zdf0b9dd1hp39180000gn/T//cc7TiL7h.s 			page 164


 9265 30b2 07       		.byte	0x7
 9266 30b3 01       		.byte	0x1
 9267 30b4 65000000 		.4byte	0x65
 9268 30b8 31       		.byte	0x31
 9269 30b9 6C       		.byte	0x6c
 9270 30ba D1300000 		.4byte	0x30d1
 9271 30be 23       		.uleb128 0x23
 9272 30bf 37030000 		.4byte	.LASF654
 9273 30c3 00       		.byte	0
 9274 30c4 23       		.uleb128 0x23
 9275 30c5 AC160000 		.4byte	.LASF655
 9276 30c9 01       		.byte	0x1
 9277 30ca 23       		.uleb128 0x23
 9278 30cb 37140000 		.4byte	.LASF656
 9279 30cf 02       		.byte	0x2
 9280 30d0 00       		.byte	0
 9281 30d1 04       		.uleb128 0x4
 9282 30d2 5C1C0000 		.4byte	.LASF657
 9283 30d6 31       		.byte	0x31
 9284 30d7 70       		.byte	0x70
 9285 30d8 B1300000 		.4byte	0x30b1
 9286 30dc 04       		.uleb128 0x4
 9287 30dd 9A1B0000 		.4byte	.LASF658
 9288 30e1 32       		.byte	0x32
 9289 30e2 BF       		.byte	0xbf
 9290 30e3 D70A0000 		.4byte	0xad7
 9291 30e7 04       		.uleb128 0x4
 9292 30e8 9B000000 		.4byte	.LASF659
 9293 30ec 32       		.byte	0x32
 9294 30ed C4       		.byte	0xc4
 9295 30ee D70A0000 		.4byte	0xad7
 9296 30f2 04       		.uleb128 0x4
 9297 30f3 0B220000 		.4byte	.LASF660
 9298 30f7 32       		.byte	0x32
 9299 30f8 C9       		.byte	0xc9
 9300 30f9 FD300000 		.4byte	0x30fd
 9301 30fd 10       		.uleb128 0x10
 9302 30fe 0B220000 		.4byte	.LASF660
 9303 3102 4C       		.byte	0x4c
 9304 3103 32       		.byte	0x32
 9305 3104 F2       		.byte	0xf2
 9306 3105 AC310000 		.4byte	0x31ac
 9307 3109 11       		.uleb128 0x11
 9308 310a 766D7400 		.ascii	"vmt\000"
 9309 310e 32       		.byte	0x32
 9310 310f F6       		.byte	0xf6
 9311 3110 4F320000 		.4byte	0x324f
 9312 3114 00       		.byte	0
 9313 3115 0D       		.uleb128 0xd
 9314 3116 6C170000 		.4byte	.LASF466
 9315 311a 32       		.byte	0x32
 9316 311b F7       		.byte	0xf7
 9317 311c 6F1E0000 		.4byte	0x1e6f
 9318 3120 04       		.byte	0x4
 9319 3121 11       		.uleb128 0x11
 9320 3122 63696400 		.ascii	"cid\000"
 9321 3126 32       		.byte	0x32
ARM GAS  /var/folders/qd/4mxf5pkd0zdf0b9dd1hp39180000gn/T//cc7TiL7h.s 			page 165


 9322 3127 F7       		.byte	0xf7
 9323 3128 231F0000 		.4byte	0x1f23
 9324 312c 08       		.byte	0x8
 9325 312d 11       		.uleb128 0x11
 9326 312e 63736400 		.ascii	"csd\000"
 9327 3132 32       		.byte	0x32
 9328 3133 F7       		.byte	0xf7
 9329 3134 231F0000 		.4byte	0x1f23
 9330 3138 18       		.byte	0x18
 9331 3139 0D       		.uleb128 0xd
 9332 313a 0B1E0000 		.4byte	.LASF661
 9333 313e 32       		.byte	0x32
 9334 313f F7       		.byte	0xf7
 9335 3140 D70A0000 		.4byte	0xad7
 9336 3144 28       		.byte	0x28
 9337 3145 0D       		.uleb128 0xd
 9338 3146 3B1D0000 		.4byte	.LASF467
 9339 314a 32       		.byte	0x32
 9340 314b FB       		.byte	0xfb
 9341 314c 55320000 		.4byte	0x3255
 9342 3150 2C       		.byte	0x2c
 9343 3151 0D       		.uleb128 0xd
 9344 3152 9C040000 		.4byte	.LASF662
 9345 3156 32       		.byte	0x32
 9346 3157 FF       		.byte	0xff
 9347 3158 DC300000 		.4byte	0x30dc
 9348 315c 30       		.byte	0x30
 9349 315d 18       		.uleb128 0x18
 9350 315e 72010000 		.4byte	.LASF598
 9351 3162 32       		.byte	0x32
 9352 3163 0301     		.2byte	0x103
 9353 3165 E7300000 		.4byte	0x30e7
 9354 3169 34       		.byte	0x34
 9355 316a 24       		.uleb128 0x24
 9356 316b 72636100 		.ascii	"rca\000"
 9357 316f 32       		.byte	0x32
 9358 3170 0701     		.2byte	0x107
 9359 3172 D70A0000 		.4byte	0xad7
 9360 3176 38       		.byte	0x38
 9361 3177 18       		.uleb128 0x18
 9362 3178 19070000 		.4byte	.LASF471
 9363 317c 32       		.byte	0x32
 9364 317d 0C01     		.2byte	0x10c
 9365 317f B40C0000 		.4byte	0xcb4
 9366 3183 3C       		.byte	0x3c
 9367 3184 18       		.uleb128 0x18
 9368 3185 84190000 		.4byte	.LASF474
 9369 3189 32       		.byte	0x32
 9370 318a 1001     		.2byte	0x110
 9371 318c D70A0000 		.4byte	0xad7
 9372 3190 40       		.byte	0x40
 9373 3191 24       		.uleb128 0x24
 9374 3192 646D6100 		.ascii	"dma\000"
 9375 3196 32       		.byte	0x32
 9376 3197 1401     		.2byte	0x114
 9377 3199 68230000 		.4byte	0x2368
 9378 319d 44       		.byte	0x44
ARM GAS  /var/folders/qd/4mxf5pkd0zdf0b9dd1hp39180000gn/T//cc7TiL7h.s 			page 166


 9379 319e 18       		.uleb128 0x18
 9380 319f 84170000 		.4byte	.LASF663
 9381 31a3 32       		.byte	0x32
 9382 31a4 1901     		.2byte	0x119
 9383 31a6 5B320000 		.4byte	0x325b
 9384 31aa 48       		.byte	0x48
 9385 31ab 00       		.byte	0
 9386 31ac 0C       		.uleb128 0xc
 9387 31ad 08       		.byte	0x8
 9388 31ae 32       		.byte	0x32
 9389 31af CF       		.byte	0xcf
 9390 31b0 CD310000 		.4byte	0x31cd
 9391 31b4 0D       		.uleb128 0xd
 9392 31b5 850E0000 		.4byte	.LASF664
 9393 31b9 32       		.byte	0x32
 9394 31ba D8       		.byte	0xd8
 9395 31bb 991C0000 		.4byte	0x1c99
 9396 31bf 00       		.byte	0
 9397 31c0 0D       		.uleb128 0xd
 9398 31c1 A3230000 		.4byte	.LASF665
 9399 31c5 32       		.byte	0x32
 9400 31c6 DC       		.byte	0xdc
 9401 31c7 D1300000 		.4byte	0x30d1
 9402 31cb 04       		.byte	0x4
 9403 31cc 00       		.byte	0
 9404 31cd 04       		.uleb128 0x4
 9405 31ce 5C1B0000 		.4byte	.LASF666
 9406 31d2 32       		.byte	0x32
 9407 31d3 DE       		.byte	0xde
 9408 31d4 AC310000 		.4byte	0x31ac
 9409 31d8 0F       		.uleb128 0xf
 9410 31d9 CD310000 		.4byte	0x31cd
 9411 31dd 10       		.uleb128 0x10
 9412 31de B9230000 		.4byte	.LASF667
 9413 31e2 20       		.byte	0x20
 9414 31e3 32       		.byte	0x32
 9415 31e4 EB       		.byte	0xeb
 9416 31e5 4A320000 		.4byte	0x324a
 9417 31e9 0D       		.uleb128 0xd
 9418 31ea 31260000 		.4byte	.LASF668
 9419 31ee 32       		.byte	0x32
 9420 31ef EC       		.byte	0xec
 9421 31f0 B51E0000 		.4byte	0x1eb5
 9422 31f4 00       		.byte	0
 9423 31f5 0D       		.uleb128 0xd
 9424 31f6 BD0C0000 		.4byte	.LASF669
 9425 31fa 32       		.byte	0x32
 9426 31fb EC       		.byte	0xec
 9427 31fc B51E0000 		.4byte	0x1eb5
 9428 3200 04       		.byte	0x4
 9429 3201 0D       		.uleb128 0xd
 9430 3202 7E0F0000 		.4byte	.LASF670
 9431 3206 32       		.byte	0x32
 9432 3207 EC       		.byte	0xec
 9433 3208 B51E0000 		.4byte	0x1eb5
 9434 320c 08       		.byte	0x8
 9435 320d 0D       		.uleb128 0xd
ARM GAS  /var/folders/qd/4mxf5pkd0zdf0b9dd1hp39180000gn/T//cc7TiL7h.s 			page 167


 9436 320e 56150000 		.4byte	.LASF671
 9437 3212 32       		.byte	0x32
 9438 3213 EC       		.byte	0xec
 9439 3214 B51E0000 		.4byte	0x1eb5
 9440 3218 0C       		.byte	0xc
 9441 3219 0D       		.uleb128 0xd
 9442 321a E9040000 		.4byte	.LASF649
 9443 321e 32       		.byte	0x32
 9444 321f EC       		.byte	0xec
 9445 3220 D91E0000 		.4byte	0x1ed9
 9446 3224 10       		.byte	0x10
 9447 3225 0D       		.uleb128 0xd
 9448 3226 C2190000 		.4byte	.LASF648
 9449 322a 32       		.byte	0x32
 9450 322b EC       		.byte	0xec
 9451 322c FD1E0000 		.4byte	0x1efd
 9452 3230 14       		.byte	0x14
 9453 3231 0D       		.uleb128 0xd
 9454 3232 891B0000 		.4byte	.LASF672
 9455 3236 32       		.byte	0x32
 9456 3237 EC       		.byte	0xec
 9457 3238 B51E0000 		.4byte	0x1eb5
 9458 323c 18       		.byte	0x18
 9459 323d 0D       		.uleb128 0xd
 9460 323e 51230000 		.4byte	.LASF673
 9461 3242 32       		.byte	0x32
 9462 3243 EC       		.byte	0xec
 9463 3244 1D1F0000 		.4byte	0x1f1d
 9464 3248 1C       		.byte	0x1c
 9465 3249 00       		.byte	0
 9466 324a 0F       		.uleb128 0xf
 9467 324b DD310000 		.4byte	0x31dd
 9468 324f 05       		.uleb128 0x5
 9469 3250 04       		.byte	0x4
 9470 3251 4A320000 		.4byte	0x324a
 9471 3255 05       		.uleb128 0x5
 9472 3256 04       		.byte	0x4
 9473 3257 D8310000 		.4byte	0x31d8
 9474 325b 05       		.uleb128 0x5
 9475 325c 04       		.byte	0x4
 9476 325d 98150000 		.4byte	0x1598
 9477 3261 20       		.uleb128 0x20
 9478 3262 570A0000 		.4byte	.LASF674
 9479 3266 32       		.byte	0x32
 9480 3267 2501     		.2byte	0x125
 9481 3269 F2300000 		.4byte	0x30f2
 9482 326d 2A       		.uleb128 0x2a
 9483 326e 07       		.byte	0x7
 9484 326f 01       		.byte	0x1
 9485 3270 65000000 		.4byte	0x65
 9486 3274 33       		.byte	0x33
 9487 3275 46       		.byte	0x46
 9488 3276 99320000 		.4byte	0x3299
 9489 327a 23       		.uleb128 0x23
 9490 327b 2F070000 		.4byte	.LASF675
 9491 327f 00       		.byte	0
 9492 3280 23       		.uleb128 0x23
ARM GAS  /var/folders/qd/4mxf5pkd0zdf0b9dd1hp39180000gn/T//cc7TiL7h.s 			page 168


 9493 3281 F5020000 		.4byte	.LASF676
 9494 3285 01       		.byte	0x1
 9495 3286 23       		.uleb128 0x23
 9496 3287 8C230000 		.4byte	.LASF677
 9497 328b 02       		.byte	0x2
 9498 328c 23       		.uleb128 0x23
 9499 328d EA0E0000 		.4byte	.LASF678
 9500 3291 03       		.byte	0x3
 9501 3292 23       		.uleb128 0x23
 9502 3293 ED140000 		.4byte	.LASF679
 9503 3297 04       		.byte	0x4
 9504 3298 00       		.byte	0
 9505 3299 04       		.uleb128 0x4
 9506 329a B90E0000 		.4byte	.LASF680
 9507 329e 33       		.byte	0x33
 9508 329f 4C       		.byte	0x4c
 9509 32a0 6D320000 		.4byte	0x326d
 9510 32a4 07       		.uleb128 0x7
 9511 32a5 C7220000 		.4byte	.LASF681
 9512 32a9 34       		.byte	0x34
 9513 32aa 9601     		.2byte	0x196
 9514 32ac B0320000 		.4byte	0x32b0
 9515 32b0 1B       		.uleb128 0x1b
 9516 32b1 C7220000 		.4byte	.LASF681
 9517 32b5 34       		.byte	0x34
 9518 32b6 34       		.byte	0x34
 9519 32b7 BA01     		.2byte	0x1ba
 9520 32b9 33330000 		.4byte	0x3333
 9521 32bd 18       		.uleb128 0x18
 9522 32be 6C170000 		.4byte	.LASF466
 9523 32c2 34       		.byte	0x34
 9524 32c3 BE01     		.2byte	0x1be
 9525 32c5 99320000 		.4byte	0x3299
 9526 32c9 00       		.byte	0
 9527 32ca 18       		.uleb128 0x18
 9528 32cb 3B1D0000 		.4byte	.LASF467
 9529 32cf 34       		.byte	0x34
 9530 32d0 C201     		.2byte	0x1c2
 9531 32d2 A5330000 		.4byte	0x33a5
 9532 32d6 04       		.byte	0x4
 9533 32d7 18       		.uleb128 0x18
 9534 32d8 19070000 		.4byte	.LASF471
 9535 32dc 34       		.byte	0x34
 9536 32dd C701     		.2byte	0x1c7
 9537 32df B40C0000 		.4byte	0xcb4
 9538 32e3 08       		.byte	0x8
 9539 32e4 18       		.uleb128 0x18
 9540 32e5 130D0000 		.4byte	.LASF472
 9541 32e9 34       		.byte	0x34
 9542 32ea CD01     		.2byte	0x1cd
 9543 32ec 701B0000 		.4byte	0x1b70
 9544 32f0 0C       		.byte	0xc
 9545 32f1 24       		.uleb128 0x24
 9546 32f2 73706900 		.ascii	"spi\000"
 9547 32f6 34       		.byte	0x34
 9548 32f7 D601     		.2byte	0x1d6
 9549 32f9 942D0000 		.4byte	0x2d94
ARM GAS  /var/folders/qd/4mxf5pkd0zdf0b9dd1hp39180000gn/T//cc7TiL7h.s 			page 169


 9550 32fd 20       		.byte	0x20
 9551 32fe 18       		.uleb128 0x18
 9552 32ff 2F010000 		.4byte	.LASF602
 9553 3303 34       		.byte	0x34
 9554 3304 DA01     		.2byte	0x1da
 9555 3306 68230000 		.4byte	0x2368
 9556 330a 24       		.byte	0x24
 9557 330b 18       		.uleb128 0x18
 9558 330c 01020000 		.4byte	.LASF603
 9559 3310 34       		.byte	0x34
 9560 3311 DE01     		.2byte	0x1de
 9561 3313 68230000 		.4byte	0x2368
 9562 3317 28       		.byte	0x28
 9563 3318 18       		.uleb128 0x18
 9564 3319 7A080000 		.4byte	.LASF600
 9565 331d 34       		.byte	0x34
 9566 331e E201     		.2byte	0x1e2
 9567 3320 D70A0000 		.4byte	0xad7
 9568 3324 2C       		.byte	0x2c
 9569 3325 18       		.uleb128 0x18
 9570 3326 D3080000 		.4byte	.LASF601
 9571 332a 34       		.byte	0x34
 9572 332b E601     		.2byte	0x1e6
 9573 332d D70A0000 		.4byte	0xad7
 9574 3331 30       		.byte	0x30
 9575 3332 00       		.byte	0
 9576 3333 07       		.uleb128 0x7
 9577 3334 D5160000 		.4byte	.LASF682
 9578 3338 34       		.byte	0x34
 9579 3339 9E01     		.2byte	0x19e
 9580 333b 3F330000 		.4byte	0x333f
 9581 333f 05       		.uleb128 0x5
 9582 3340 04       		.byte	0x4
 9583 3341 45330000 		.4byte	0x3345
 9584 3345 1F       		.uleb128 0x1f
 9585 3346 50330000 		.4byte	0x3350
 9586 334a 16       		.uleb128 0x16
 9587 334b 50330000 		.4byte	0x3350
 9588 334f 00       		.byte	0
 9589 3350 05       		.uleb128 0x5
 9590 3351 04       		.byte	0x4
 9591 3352 A4320000 		.4byte	0x32a4
 9592 3356 1C       		.uleb128 0x1c
 9593 3357 0C       		.byte	0xc
 9594 3358 34       		.byte	0x34
 9595 3359 A301     		.2byte	0x1a3
 9596 335b 94330000 		.4byte	0x3394
 9597 335f 18       		.uleb128 0x18
 9598 3360 66090000 		.4byte	.LASF479
 9599 3364 34       		.byte	0x34
 9600 3365 A701     		.2byte	0x1a7
 9601 3367 33330000 		.4byte	0x3333
 9602 336b 00       		.byte	0
 9603 336c 18       		.uleb128 0x18
 9604 336d 49240000 		.4byte	.LASF683
 9605 3371 34       		.byte	0x34
 9606 3372 AC01     		.2byte	0x1ac
ARM GAS  /var/folders/qd/4mxf5pkd0zdf0b9dd1hp39180000gn/T//cc7TiL7h.s 			page 170


 9607 3374 F9200000 		.4byte	0x20f9
 9608 3378 04       		.byte	0x4
 9609 3379 18       		.uleb128 0x18
 9610 337a CD080000 		.4byte	.LASF684
 9611 337e 34       		.byte	0x34
 9612 337f B001     		.2byte	0x1b0
 9613 3381 BC0A0000 		.4byte	0xabc
 9614 3385 08       		.byte	0x8
 9615 3386 24       		.uleb128 0x24
 9616 3387 63723100 		.ascii	"cr1\000"
 9617 338b 34       		.byte	0x34
 9618 338c B401     		.2byte	0x1b4
 9619 338e BC0A0000 		.4byte	0xabc
 9620 3392 0A       		.byte	0xa
 9621 3393 00       		.byte	0
 9622 3394 07       		.uleb128 0x7
 9623 3395 AE210000 		.4byte	.LASF685
 9624 3399 34       		.byte	0x34
 9625 339a B501     		.2byte	0x1b5
 9626 339c 56330000 		.4byte	0x3356
 9627 33a0 0F       		.uleb128 0xf
 9628 33a1 94330000 		.4byte	0x3394
 9629 33a5 05       		.uleb128 0x5
 9630 33a6 04       		.byte	0x4
 9631 33a7 A0330000 		.4byte	0x33a0
 9632 33ab 20       		.uleb128 0x20
 9633 33ac AA200000 		.4byte	.LASF686
 9634 33b0 34       		.byte	0x34
 9635 33b1 F201     		.2byte	0x1f2
 9636 33b3 A4320000 		.4byte	0x32a4
 9637 33b7 04       		.uleb128 0x4
 9638 33b8 FA120000 		.4byte	.LASF687
 9639 33bc 35       		.byte	0x35
 9640 33bd FA       		.byte	0xfa
 9641 33be C2330000 		.4byte	0x33c2
 9642 33c2 17       		.uleb128 0x17
 9643 33c3 FA120000 		.4byte	.LASF687
 9644 33c7 6002     		.2byte	0x260
 9645 33c9 36       		.byte	0x36
 9646 33ca 7701     		.2byte	0x177
 9647 33cc EE340000 		.4byte	0x34ee
 9648 33d0 18       		.uleb128 0x18
 9649 33d1 6C170000 		.4byte	.LASF466
 9650 33d5 36       		.byte	0x36
 9651 33d6 7B01     		.2byte	0x17b
 9652 33d8 26350000 		.4byte	0x3526
 9653 33dc 00       		.byte	0
 9654 33dd 18       		.uleb128 0x18
 9655 33de 3B1D0000 		.4byte	.LASF467
 9656 33e2 36       		.byte	0x36
 9657 33e3 7F01     		.2byte	0x17f
 9658 33e5 493E0000 		.4byte	0x3e49
 9659 33e9 04       		.byte	0x4
 9660 33ea 18       		.uleb128 0x18
 9661 33eb EA210000 		.4byte	.LASF688
 9662 33ef 36       		.byte	0x36
 9663 33f0 8301     		.2byte	0x183
ARM GAS  /var/folders/qd/4mxf5pkd0zdf0b9dd1hp39180000gn/T//cc7TiL7h.s 			page 171


 9664 33f2 BC0A0000 		.4byte	0xabc
 9665 33f6 08       		.byte	0x8
 9666 33f7 18       		.uleb128 0x18
 9667 33f8 70240000 		.4byte	.LASF689
 9668 33fc 36       		.byte	0x36
 9669 33fd 8701     		.2byte	0x187
 9670 33ff BC0A0000 		.4byte	0xabc
 9671 3403 0A       		.byte	0xa
 9672 3404 24       		.uleb128 0x24
 9673 3405 65706300 		.ascii	"epc\000"
 9674 3409 36       		.byte	0x36
 9675 340a 8B01     		.2byte	0x18b
 9676 340c 4F3E0000 		.4byte	0x3e4f
 9677 3410 0C       		.byte	0xc
 9678 3411 18       		.uleb128 0x18
 9679 3412 5F070000 		.4byte	.LASF690
 9680 3416 36       		.byte	0x36
 9681 3417 9201     		.2byte	0x192
 9682 3419 653E0000 		.4byte	0x3e65
 9683 341d 1C       		.byte	0x1c
 9684 341e 18       		.uleb128 0x18
 9685 341f 8E0C0000 		.4byte	.LASF691
 9686 3423 36       		.byte	0x36
 9687 3424 9901     		.2byte	0x199
 9688 3426 653E0000 		.4byte	0x3e65
 9689 342a 28       		.byte	0x28
 9690 342b 18       		.uleb128 0x18
 9691 342c 61110000 		.4byte	.LASF692
 9692 3430 36       		.byte	0x36
 9693 3431 9D01     		.2byte	0x19d
 9694 3433 6B350000 		.4byte	0x356b
 9695 3437 34       		.byte	0x34
 9696 3438 18       		.uleb128 0x18
 9697 3439 BC1C0000 		.4byte	.LASF693
 9698 343d 36       		.byte	0x36
 9699 343e A101     		.2byte	0x1a1
 9700 3440 991C0000 		.4byte	0x1c99
 9701 3444 38       		.byte	0x38
 9702 3445 18       		.uleb128 0x18
 9703 3446 16190000 		.4byte	.LASF694
 9704 344a 36       		.byte	0x36
 9705 344b A501     		.2byte	0x1a5
 9706 344d 33000000 		.4byte	0x33
 9707 3451 3C       		.byte	0x3c
 9708 3452 18       		.uleb128 0x18
 9709 3453 201F0000 		.4byte	.LASF695
 9710 3457 36       		.byte	0x36
 9711 3458 A901     		.2byte	0x1a9
 9712 345a EB350000 		.4byte	0x35eb
 9713 345e 40       		.byte	0x40
 9714 345f 18       		.uleb128 0x18
 9715 3460 29070000 		.4byte	.LASF696
 9716 3464 36       		.byte	0x36
 9717 3465 AD01     		.2byte	0x1ad
 9718 3467 C9230000 		.4byte	0x23c9
 9719 346b 44       		.byte	0x44
 9720 346c 18       		.uleb128 0x18
ARM GAS  /var/folders/qd/4mxf5pkd0zdf0b9dd1hp39180000gn/T//cc7TiL7h.s 			page 172


 9721 346d A0160000 		.4byte	.LASF697
 9722 3471 36       		.byte	0x36
 9723 3472 B101     		.2byte	0x1b1
 9724 3474 BC0A0000 		.4byte	0xabc
 9725 3478 4C       		.byte	0x4c
 9726 3479 18       		.uleb128 0x18
 9727 347a ED160000 		.4byte	.LASF698
 9728 347e 36       		.byte	0x36
 9729 347f B501     		.2byte	0x1b5
 9730 3481 A10A0000 		.4byte	0xaa1
 9731 3485 4E       		.byte	0x4e
 9732 3486 18       		.uleb128 0x18
 9733 3487 E31B0000 		.4byte	.LASF699
 9734 348b 36       		.byte	0x36
 9735 348c B901     		.2byte	0x1b9
 9736 348e A10A0000 		.4byte	0xaa1
 9737 3492 4F       		.byte	0x4f
 9738 3493 24       		.uleb128 0x24
 9739 3494 6F746700 		.ascii	"otg\000"
 9740 3498 36       		.byte	0x36
 9741 3499 C101     		.2byte	0x1c1
 9742 349b 753E0000 		.4byte	0x3e75
 9743 349f 50       		.byte	0x50
 9744 34a0 18       		.uleb128 0x18
 9745 34a1 6C0E0000 		.4byte	.LASF700
 9746 34a5 36       		.byte	0x36
 9747 34a6 C501     		.2byte	0x1c5
 9748 34a8 7B3E0000 		.4byte	0x3e7b
 9749 34ac 54       		.byte	0x54
 9750 34ad 18       		.uleb128 0x18
 9751 34ae 4D200000 		.4byte	.LASF701
 9752 34b2 36       		.byte	0x36
 9753 34b3 C901     		.2byte	0x1c9
 9754 34b5 D70A0000 		.4byte	0xad7
 9755 34b9 58       		.byte	0x58
 9756 34ba 18       		.uleb128 0x18
 9757 34bb 600D0000 		.4byte	.LASF702
 9758 34bf 36       		.byte	0x36
 9759 34c0 CD01     		.2byte	0x1cd
 9760 34c2 D70A0000 		.4byte	0xad7
 9761 34c6 5C       		.byte	0x5c
 9762 34c7 18       		.uleb128 0x18
 9763 34c8 34080000 		.4byte	.LASF703
 9764 34cc 36       		.byte	0x36
 9765 34cd D101     		.2byte	0x1d1
 9766 34cf B40C0000 		.4byte	0xcb4
 9767 34d3 60       		.byte	0x60
 9768 34d4 24       		.uleb128 0x24
 9769 34d5 747200   		.ascii	"tr\000"
 9770 34d8 36       		.byte	0x36
 9771 34d9 D601     		.2byte	0x1d6
 9772 34db B40C0000 		.4byte	0xcb4
 9773 34df 64       		.byte	0x64
 9774 34e0 18       		.uleb128 0x18
 9775 34e1 97150000 		.4byte	.LASF704
 9776 34e5 36       		.byte	0x36
 9777 34e6 DA01     		.2byte	0x1da
ARM GAS  /var/folders/qd/4mxf5pkd0zdf0b9dd1hp39180000gn/T//cc7TiL7h.s 			page 173


 9778 34e8 813E0000 		.4byte	0x3e81
 9779 34ec 68       		.byte	0x68
 9780 34ed 00       		.byte	0
 9781 34ee 04       		.uleb128 0x4
 9782 34ef FE090000 		.4byte	.LASF705
 9783 34f3 35       		.byte	0x35
 9784 34f4 FF       		.byte	0xff
 9785 34f5 A10A0000 		.4byte	0xaa1
 9786 34f9 2C       		.uleb128 0x2c
 9787 34fa 07       		.byte	0x7
 9788 34fb 01       		.byte	0x1
 9789 34fc 65000000 		.4byte	0x65
 9790 3500 35       		.byte	0x35
 9791 3501 0401     		.2byte	0x104
 9792 3503 26350000 		.4byte	0x3526
 9793 3507 23       		.uleb128 0x23
 9794 3508 1F250000 		.4byte	.LASF706
 9795 350c 00       		.byte	0
 9796 350d 23       		.uleb128 0x23
 9797 350e 15000000 		.4byte	.LASF707
 9798 3512 01       		.byte	0x1
 9799 3513 23       		.uleb128 0x23
 9800 3514 B8140000 		.4byte	.LASF708
 9801 3518 02       		.byte	0x2
 9802 3519 23       		.uleb128 0x23
 9803 351a 7C1A0000 		.4byte	.LASF709
 9804 351e 03       		.byte	0x3
 9805 351f 23       		.uleb128 0x23
 9806 3520 4C080000 		.4byte	.LASF710
 9807 3524 04       		.byte	0x4
 9808 3525 00       		.byte	0
 9809 3526 07       		.uleb128 0x7
 9810 3527 66260000 		.4byte	.LASF711
 9811 352b 35       		.byte	0x35
 9812 352c 0A01     		.2byte	0x10a
 9813 352e F9340000 		.4byte	0x34f9
 9814 3532 2C       		.uleb128 0x2c
 9815 3533 07       		.byte	0x7
 9816 3534 01       		.byte	0x1
 9817 3535 65000000 		.4byte	0x65
 9818 3539 35       		.byte	0x35
 9819 353a 1801     		.2byte	0x118
 9820 353c 6B350000 		.4byte	0x356b
 9821 3540 23       		.uleb128 0x23
 9822 3541 EB1E0000 		.4byte	.LASF712
 9823 3545 00       		.byte	0
 9824 3546 23       		.uleb128 0x23
 9825 3547 56110000 		.4byte	.LASF713
 9826 354b 01       		.byte	0x1
 9827 354c 23       		.uleb128 0x23
 9828 354d A81C0000 		.4byte	.LASF714
 9829 3551 02       		.byte	0x2
 9830 3552 23       		.uleb128 0x23
 9831 3553 91170000 		.4byte	.LASF715
 9832 3557 03       		.byte	0x3
 9833 3558 23       		.uleb128 0x23
 9834 3559 76160000 		.4byte	.LASF716
ARM GAS  /var/folders/qd/4mxf5pkd0zdf0b9dd1hp39180000gn/T//cc7TiL7h.s 			page 174


 9835 355d 04       		.byte	0x4
 9836 355e 23       		.uleb128 0x23
 9837 355f 61120000 		.4byte	.LASF717
 9838 3563 05       		.byte	0x5
 9839 3564 23       		.uleb128 0x23
 9840 3565 690F0000 		.4byte	.LASF718
 9841 3569 06       		.byte	0x6
 9842 356a 00       		.byte	0
 9843 356b 07       		.uleb128 0x7
 9844 356c 9F120000 		.4byte	.LASF719
 9845 3570 35       		.byte	0x35
 9846 3571 2001     		.2byte	0x120
 9847 3573 32350000 		.4byte	0x3532
 9848 3577 2C       		.uleb128 0x2c
 9849 3578 07       		.byte	0x7
 9850 3579 01       		.byte	0x1
 9851 357a 65000000 		.4byte	0x65
 9852 357e 35       		.byte	0x35
 9853 357f 2501     		.2byte	0x125
 9854 3581 AA350000 		.4byte	0x35aa
 9855 3585 23       		.uleb128 0x23
 9856 3586 871E0000 		.4byte	.LASF720
 9857 358a 00       		.byte	0
 9858 358b 23       		.uleb128 0x23
 9859 358c E91A0000 		.4byte	.LASF721
 9860 3590 01       		.byte	0x1
 9861 3591 23       		.uleb128 0x23
 9862 3592 41150000 		.4byte	.LASF722
 9863 3596 02       		.byte	0x2
 9864 3597 23       		.uleb128 0x23
 9865 3598 E3150000 		.4byte	.LASF723
 9866 359c 03       		.byte	0x3
 9867 359d 23       		.uleb128 0x23
 9868 359e D4230000 		.4byte	.LASF724
 9869 35a2 04       		.byte	0x4
 9870 35a3 23       		.uleb128 0x23
 9871 35a4 17150000 		.4byte	.LASF725
 9872 35a8 05       		.byte	0x5
 9873 35a9 00       		.byte	0
 9874 35aa 07       		.uleb128 0x7
 9875 35ab 261B0000 		.4byte	.LASF726
 9876 35af 35       		.byte	0x35
 9877 35b0 2C01     		.2byte	0x12c
 9878 35b2 77350000 		.4byte	0x3577
 9879 35b6 1C       		.uleb128 0x1c
 9880 35b7 08       		.byte	0x8
 9881 35b8 35       		.byte	0x35
 9882 35b9 3101     		.2byte	0x131
 9883 35bb DA350000 		.4byte	0x35da
 9884 35bf 18       		.uleb128 0x18
 9885 35c0 00260000 		.4byte	.LASF727
 9886 35c4 35       		.byte	0x35
 9887 35c5 3501     		.2byte	0x135
 9888 35c7 33000000 		.4byte	0x33
 9889 35cb 00       		.byte	0
 9890 35cc 18       		.uleb128 0x18
 9891 35cd C7040000 		.4byte	.LASF728
ARM GAS  /var/folders/qd/4mxf5pkd0zdf0b9dd1hp39180000gn/T//cc7TiL7h.s 			page 175


 9892 35d1 35       		.byte	0x35
 9893 35d2 3901     		.2byte	0x139
 9894 35d4 CE1C0000 		.4byte	0x1cce
 9895 35d8 04       		.byte	0x4
 9896 35d9 00       		.byte	0
 9897 35da 07       		.uleb128 0x7
 9898 35db C1160000 		.4byte	.LASF729
 9899 35df 35       		.byte	0x35
 9900 35e0 3A01     		.2byte	0x13a
 9901 35e2 B6350000 		.4byte	0x35b6
 9902 35e6 0F       		.uleb128 0xf
 9903 35e7 DA350000 		.4byte	0x35da
 9904 35eb 07       		.uleb128 0x7
 9905 35ec 8F250000 		.4byte	.LASF730
 9906 35f0 35       		.byte	0x35
 9907 35f1 4201     		.2byte	0x142
 9908 35f3 F7350000 		.4byte	0x35f7
 9909 35f7 05       		.uleb128 0x5
 9910 35f8 04       		.byte	0x4
 9911 35f9 FD350000 		.4byte	0x35fd
 9912 35fd 1F       		.uleb128 0x1f
 9913 35fe 08360000 		.4byte	0x3608
 9914 3602 16       		.uleb128 0x16
 9915 3603 08360000 		.4byte	0x3608
 9916 3607 00       		.byte	0
 9917 3608 05       		.uleb128 0x5
 9918 3609 04       		.byte	0x4
 9919 360a B7330000 		.4byte	0x33b7
 9920 360e 07       		.uleb128 0x7
 9921 360f 37050000 		.4byte	.LASF731
 9922 3613 35       		.byte	0x35
 9923 3614 4B01     		.2byte	0x14b
 9924 3616 1A360000 		.4byte	0x361a
 9925 361a 05       		.uleb128 0x5
 9926 361b 04       		.byte	0x4
 9927 361c 20360000 		.4byte	0x3620
 9928 3620 1F       		.uleb128 0x1f
 9929 3621 30360000 		.4byte	0x3630
 9930 3625 16       		.uleb128 0x16
 9931 3626 08360000 		.4byte	0x3608
 9932 362a 16       		.uleb128 0x16
 9933 362b EE340000 		.4byte	0x34ee
 9934 362f 00       		.byte	0
 9935 3630 07       		.uleb128 0x7
 9936 3631 230B0000 		.4byte	.LASF732
 9937 3635 35       		.byte	0x35
 9938 3636 5401     		.2byte	0x154
 9939 3638 3C360000 		.4byte	0x363c
 9940 363c 05       		.uleb128 0x5
 9941 363d 04       		.byte	0x4
 9942 363e 42360000 		.4byte	0x3642
 9943 3642 1F       		.uleb128 0x1f
 9944 3643 52360000 		.4byte	0x3652
 9945 3647 16       		.uleb128 0x16
 9946 3648 08360000 		.4byte	0x3608
 9947 364c 16       		.uleb128 0x16
 9948 364d AA350000 		.4byte	0x35aa
ARM GAS  /var/folders/qd/4mxf5pkd0zdf0b9dd1hp39180000gn/T//cc7TiL7h.s 			page 176


 9949 3651 00       		.byte	0
 9950 3652 07       		.uleb128 0x7
 9951 3653 A6060000 		.4byte	.LASF733
 9952 3657 35       		.byte	0x35
 9953 3658 6001     		.2byte	0x160
 9954 365a 5E360000 		.4byte	0x365e
 9955 365e 05       		.uleb128 0x5
 9956 365f 04       		.byte	0x4
 9957 3660 64360000 		.4byte	0x3664
 9958 3664 15       		.uleb128 0x15
 9959 3665 7F0A0000 		.4byte	0xa7f
 9960 3669 73360000 		.4byte	0x3673
 9961 366d 16       		.uleb128 0x16
 9962 366e 08360000 		.4byte	0x3608
 9963 3672 00       		.byte	0
 9964 3673 07       		.uleb128 0x7
 9965 3674 D50F0000 		.4byte	.LASF734
 9966 3678 35       		.byte	0x35
 9967 3679 6501     		.2byte	0x165
 9968 367b 7F360000 		.4byte	0x367f
 9969 367f 05       		.uleb128 0x5
 9970 3680 04       		.byte	0x4
 9971 3681 85360000 		.4byte	0x3685
 9972 3685 15       		.uleb128 0x15
 9973 3686 A3360000 		.4byte	0x36a3
 9974 368a A3360000 		.4byte	0x36a3
 9975 368e 16       		.uleb128 0x16
 9976 368f 08360000 		.4byte	0x3608
 9977 3693 16       		.uleb128 0x16
 9978 3694 A10A0000 		.4byte	0xaa1
 9979 3698 16       		.uleb128 0x16
 9980 3699 A10A0000 		.4byte	0xaa1
 9981 369d 16       		.uleb128 0x16
 9982 369e BC0A0000 		.4byte	0xabc
 9983 36a2 00       		.byte	0
 9984 36a3 05       		.uleb128 0x5
 9985 36a4 04       		.byte	0x4
 9986 36a5 E6350000 		.4byte	0x35e6
 9987 36a9 0C       		.uleb128 0xc
 9988 36aa 20       		.byte	0x20
 9989 36ab 37       		.byte	0x37
 9990 36ac 35       		.byte	0x35
 9991 36ad 12370000 		.4byte	0x3712
 9992 36b1 0D       		.uleb128 0xd
 9993 36b2 45030000 		.4byte	.LASF735
 9994 36b6 37       		.byte	0x37
 9995 36b7 36       		.byte	0x36
 9996 36b8 E20A0000 		.4byte	0xae2
 9997 36bc 00       		.byte	0
 9998 36bd 0D       		.uleb128 0xd
 9999 36be C90D0000 		.4byte	.LASF736
 10000 36c2 37       		.byte	0x37
 10001 36c3 38       		.byte	0x38
 10002 36c4 E20A0000 		.4byte	0xae2
 10003 36c8 04       		.byte	0x4
 10004 36c9 0D       		.uleb128 0xd
 10005 36ca BA020000 		.4byte	.LASF737
ARM GAS  /var/folders/qd/4mxf5pkd0zdf0b9dd1hp39180000gn/T//cc7TiL7h.s 			page 177


 10006 36ce 37       		.byte	0x37
 10007 36cf 39       		.byte	0x39
 10008 36d0 E20A0000 		.4byte	0xae2
 10009 36d4 08       		.byte	0x8
 10010 36d5 0D       		.uleb128 0xd
 10011 36d6 2C1D0000 		.4byte	.LASF738
 10012 36da 37       		.byte	0x37
 10013 36db 3A       		.byte	0x3a
 10014 36dc E20A0000 		.4byte	0xae2
 10015 36e0 0C       		.byte	0xc
 10016 36e1 0D       		.uleb128 0xd
 10017 36e2 3A150000 		.4byte	.LASF739
 10018 36e6 37       		.byte	0x37
 10019 36e7 3C       		.byte	0x3c
 10020 36e8 E20A0000 		.4byte	0xae2
 10021 36ec 10       		.byte	0x10
 10022 36ed 0D       		.uleb128 0xd
 10023 36ee FF0D0000 		.4byte	.LASF740
 10024 36f2 37       		.byte	0x37
 10025 36f3 3E       		.byte	0x3e
 10026 36f4 E20A0000 		.4byte	0xae2
 10027 36f8 14       		.byte	0x14
 10028 36f9 0D       		.uleb128 0xd
 10029 36fa 120E0000 		.4byte	.LASF741
 10030 36fe 37       		.byte	0x37
 10031 36ff 3F       		.byte	0x3f
 10032 3700 E20A0000 		.4byte	0xae2
 10033 3704 18       		.byte	0x18
 10034 3705 0D       		.uleb128 0xd
 10035 3706 EF030000 		.4byte	.LASF742
 10036 370a 37       		.byte	0x37
 10037 370b 40       		.byte	0x40
 10038 370c E20A0000 		.4byte	0xae2
 10039 3710 1C       		.byte	0x1c
 10040 3711 00       		.byte	0
 10041 3712 04       		.uleb128 0x4
 10042 3713 C41C0000 		.4byte	.LASF743
 10043 3717 37       		.byte	0x37
 10044 3718 41       		.byte	0x41
 10045 3719 A9360000 		.4byte	0x36a9
 10046 371d 0C       		.uleb128 0xc
 10047 371e 20       		.byte	0x20
 10048 371f 37       		.byte	0x37
 10049 3720 46       		.byte	0x46
 10050 3721 86370000 		.4byte	0x3786
 10051 3725 0D       		.uleb128 0xd
 10052 3726 5A0E0000 		.4byte	.LASF744
 10053 372a 37       		.byte	0x37
 10054 372b 47       		.byte	0x47
 10055 372c E20A0000 		.4byte	0xae2
 10056 3730 00       		.byte	0
 10057 3731 0D       		.uleb128 0xd
 10058 3732 F3120000 		.4byte	.LASF745
 10059 3736 37       		.byte	0x37
 10060 3737 49       		.byte	0x49
 10061 3738 E20A0000 		.4byte	0xae2
 10062 373c 04       		.byte	0x4
ARM GAS  /var/folders/qd/4mxf5pkd0zdf0b9dd1hp39180000gn/T//cc7TiL7h.s 			page 178


 10063 373d 0D       		.uleb128 0xd
 10064 373e E3200000 		.4byte	.LASF746
 10065 3742 37       		.byte	0x37
 10066 3743 4A       		.byte	0x4a
 10067 3744 E20A0000 		.4byte	0xae2
 10068 3748 08       		.byte	0x8
 10069 3749 0D       		.uleb128 0xd
 10070 374a 17130000 		.4byte	.LASF747
 10071 374e 37       		.byte	0x37
 10072 374f 4C       		.byte	0x4c
 10073 3750 E20A0000 		.4byte	0xae2
 10074 3754 0C       		.byte	0xc
 10075 3755 0D       		.uleb128 0xd
 10076 3756 99180000 		.4byte	.LASF748
 10077 375a 37       		.byte	0x37
 10078 375b 4D       		.byte	0x4d
 10079 375c E20A0000 		.4byte	0xae2
 10080 3760 10       		.byte	0x10
 10081 3761 0D       		.uleb128 0xd
 10082 3762 FF0D0000 		.4byte	.LASF740
 10083 3766 37       		.byte	0x37
 10084 3767 4F       		.byte	0x4f
 10085 3768 E20A0000 		.4byte	0xae2
 10086 376c 14       		.byte	0x14
 10087 376d 0D       		.uleb128 0xd
 10088 376e 3A070000 		.4byte	.LASF749
 10089 3772 37       		.byte	0x37
 10090 3773 50       		.byte	0x50
 10091 3774 E20A0000 		.4byte	0xae2
 10092 3778 18       		.byte	0x18
 10093 3779 0D       		.uleb128 0xd
 10094 377a CC200000 		.4byte	.LASF750
 10095 377e 37       		.byte	0x37
 10096 377f 52       		.byte	0x52
 10097 3780 E20A0000 		.4byte	0xae2
 10098 3784 1C       		.byte	0x1c
 10099 3785 00       		.byte	0
 10100 3786 04       		.uleb128 0x4
 10101 3787 57080000 		.4byte	.LASF751
 10102 378b 37       		.byte	0x37
 10103 378c 53       		.byte	0x53
 10104 378d 1D370000 		.4byte	0x371d
 10105 3791 0C       		.uleb128 0xc
 10106 3792 20       		.byte	0x20
 10107 3793 37       		.byte	0x37
 10108 3794 58       		.byte	0x58
 10109 3795 FA370000 		.4byte	0x37fa
 10110 3799 0D       		.uleb128 0xd
 10111 379a 12160000 		.4byte	.LASF752
 10112 379e 37       		.byte	0x37
 10113 379f 59       		.byte	0x59
 10114 37a0 E20A0000 		.4byte	0xae2
 10115 37a4 00       		.byte	0
 10116 37a5 0D       		.uleb128 0xd
 10117 37a6 F3120000 		.4byte	.LASF745
 10118 37aa 37       		.byte	0x37
 10119 37ab 5B       		.byte	0x5b
ARM GAS  /var/folders/qd/4mxf5pkd0zdf0b9dd1hp39180000gn/T//cc7TiL7h.s 			page 179


 10120 37ac E20A0000 		.4byte	0xae2
 10121 37b0 04       		.byte	0x4
 10122 37b1 0D       		.uleb128 0xd
 10123 37b2 E0190000 		.4byte	.LASF753
 10124 37b6 37       		.byte	0x37
 10125 37b7 5C       		.byte	0x5c
 10126 37b8 E20A0000 		.4byte	0xae2
 10127 37bc 08       		.byte	0x8
 10128 37bd 0D       		.uleb128 0xd
 10129 37be 17130000 		.4byte	.LASF747
 10130 37c2 37       		.byte	0x37
 10131 37c3 5E       		.byte	0x5e
 10132 37c4 E20A0000 		.4byte	0xae2
 10133 37c8 0C       		.byte	0xc
 10134 37c9 0D       		.uleb128 0xd
 10135 37ca 52220000 		.4byte	.LASF754
 10136 37ce 37       		.byte	0x37
 10137 37cf 5F       		.byte	0x5f
 10138 37d0 E20A0000 		.4byte	0xae2
 10139 37d4 10       		.byte	0x10
 10140 37d5 0D       		.uleb128 0xd
 10141 37d6 FF0D0000 		.4byte	.LASF740
 10142 37da 37       		.byte	0x37
 10143 37db 61       		.byte	0x61
 10144 37dc E20A0000 		.4byte	0xae2
 10145 37e0 14       		.byte	0x14
 10146 37e1 0D       		.uleb128 0xd
 10147 37e2 120E0000 		.4byte	.LASF741
 10148 37e6 37       		.byte	0x37
 10149 37e7 62       		.byte	0x62
 10150 37e8 E20A0000 		.4byte	0xae2
 10151 37ec 18       		.byte	0x18
 10152 37ed 0D       		.uleb128 0xd
 10153 37ee CC200000 		.4byte	.LASF750
 10154 37f2 37       		.byte	0x37
 10155 37f3 63       		.byte	0x63
 10156 37f4 E20A0000 		.4byte	0xae2
 10157 37f8 1C       		.byte	0x1c
 10158 37f9 00       		.byte	0
 10159 37fa 04       		.uleb128 0x4
 10160 37fb FB070000 		.4byte	.LASF755
 10161 37ff 37       		.byte	0x37
 10162 3800 64       		.byte	0x64
 10163 3801 91370000 		.4byte	0x3791
 10164 3805 2E       		.uleb128 0x2e
 10165 3806 00100100 		.4byte	0x11000
 10166 380a 37       		.byte	0x37
 10167 380b 69       		.byte	0x69
 10168 380c E23A0000 		.4byte	0x3ae2
 10169 3810 0D       		.uleb128 0xd
 10170 3811 0B050000 		.4byte	.LASF756
 10171 3815 37       		.byte	0x37
 10172 3816 6A       		.byte	0x6a
 10173 3817 E20A0000 		.4byte	0xae2
 10174 381b 00       		.byte	0
 10175 381c 0D       		.uleb128 0xd
 10176 381d 760C0000 		.4byte	.LASF757
ARM GAS  /var/folders/qd/4mxf5pkd0zdf0b9dd1hp39180000gn/T//cc7TiL7h.s 			page 180


 10177 3821 37       		.byte	0x37
 10178 3822 6B       		.byte	0x6b
 10179 3823 E20A0000 		.4byte	0xae2
 10180 3827 04       		.byte	0x4
 10181 3828 0D       		.uleb128 0xd
 10182 3829 84070000 		.4byte	.LASF758
 10183 382d 37       		.byte	0x37
 10184 382e 6C       		.byte	0x6c
 10185 382f E20A0000 		.4byte	0xae2
 10186 3833 08       		.byte	0x8
 10187 3834 0D       		.uleb128 0xd
 10188 3835 A8250000 		.4byte	.LASF759
 10189 3839 37       		.byte	0x37
 10190 383a 6D       		.byte	0x6d
 10191 383b E20A0000 		.4byte	0xae2
 10192 383f 0C       		.byte	0xc
 10193 3840 0D       		.uleb128 0xd
 10194 3841 C8140000 		.4byte	.LASF760
 10195 3845 37       		.byte	0x37
 10196 3846 6E       		.byte	0x6e
 10197 3847 E20A0000 		.4byte	0xae2
 10198 384b 10       		.byte	0x10
 10199 384c 0D       		.uleb128 0xd
 10200 384d AF030000 		.4byte	.LASF761
 10201 3851 37       		.byte	0x37
 10202 3852 6F       		.byte	0x6f
 10203 3853 E20A0000 		.4byte	0xae2
 10204 3857 14       		.byte	0x14
 10205 3858 0D       		.uleb128 0xd
 10206 3859 D21B0000 		.4byte	.LASF762
 10207 385d 37       		.byte	0x37
 10208 385e 70       		.byte	0x70
 10209 385f E20A0000 		.4byte	0xae2
 10210 3863 18       		.byte	0x18
 10211 3864 0D       		.uleb128 0xd
 10212 3865 16080000 		.4byte	.LASF763
 10213 3869 37       		.byte	0x37
 10214 386a 71       		.byte	0x71
 10215 386b E20A0000 		.4byte	0xae2
 10216 386f 1C       		.byte	0x1c
 10217 3870 0D       		.uleb128 0xd
 10218 3871 0E080000 		.4byte	.LASF764
 10219 3875 37       		.byte	0x37
 10220 3876 73       		.byte	0x73
 10221 3877 E20A0000 		.4byte	0xae2
 10222 387b 20       		.byte	0x20
 10223 387c 0D       		.uleb128 0xd
 10224 387d 811B0000 		.4byte	.LASF765
 10225 3881 37       		.byte	0x37
 10226 3882 75       		.byte	0x75
 10227 3883 E20A0000 		.4byte	0xae2
 10228 3887 24       		.byte	0x24
 10229 3888 0D       		.uleb128 0xd
 10230 3889 A6000000 		.4byte	.LASF766
 10231 388d 37       		.byte	0x37
 10232 388e 76       		.byte	0x76
 10233 388f E20A0000 		.4byte	0xae2
ARM GAS  /var/folders/qd/4mxf5pkd0zdf0b9dd1hp39180000gn/T//cc7TiL7h.s 			page 181


 10234 3893 28       		.byte	0x28
 10235 3894 0D       		.uleb128 0xd
 10236 3895 DA1B0000 		.4byte	.LASF767
 10237 3899 37       		.byte	0x37
 10238 389a 78       		.byte	0x78
 10239 389b E20A0000 		.4byte	0xae2
 10240 389f 2C       		.byte	0x2c
 10241 38a0 0D       		.uleb128 0xd
 10242 38a1 1D0F0000 		.4byte	.LASF768
 10243 38a5 37       		.byte	0x37
 10244 38a6 7A       		.byte	0x7a
 10245 38a7 E20A0000 		.4byte	0xae2
 10246 38ab 30       		.byte	0x30
 10247 38ac 0D       		.uleb128 0xd
 10248 38ad 0A240000 		.4byte	.LASF769
 10249 38b1 37       		.byte	0x37
 10250 38b2 7B       		.byte	0x7b
 10251 38b3 E20A0000 		.4byte	0xae2
 10252 38b7 34       		.byte	0x34
 10253 38b8 0D       		.uleb128 0xd
 10254 38b9 DB010000 		.4byte	.LASF770
 10255 38bd 37       		.byte	0x37
 10256 38be 7C       		.byte	0x7c
 10257 38bf E20A0000 		.4byte	0xae2
 10258 38c3 38       		.byte	0x38
 10259 38c4 11       		.uleb128 0x11
 10260 38c5 43494400 		.ascii	"CID\000"
 10261 38c9 37       		.byte	0x37
 10262 38ca 7D       		.byte	0x7d
 10263 38cb E20A0000 		.4byte	0xae2
 10264 38cf 3C       		.byte	0x3c
 10265 38d0 0D       		.uleb128 0xd
 10266 38d1 E9110000 		.4byte	.LASF771
 10267 38d5 37       		.byte	0x37
 10268 38d6 7E       		.byte	0x7e
 10269 38d7 F23A0000 		.4byte	0x3af2
 10270 38db 40       		.byte	0x40
 10271 38dc 13       		.uleb128 0x13
 10272 38dd 21230000 		.4byte	.LASF772
 10273 38e1 37       		.byte	0x37
 10274 38e2 7F       		.byte	0x7f
 10275 38e3 E20A0000 		.4byte	0xae2
 10276 38e7 0001     		.2byte	0x100
 10277 38e9 13       		.uleb128 0x13
 10278 38ea 39020000 		.4byte	.LASF773
 10279 38ee 37       		.byte	0x37
 10280 38ef 81       		.byte	0x81
 10281 38f0 AC160000 		.4byte	0x16ac
 10282 38f4 0401     		.2byte	0x104
 10283 38f6 13       		.uleb128 0x13
 10284 38f7 B6150000 		.4byte	.LASF774
 10285 38fb 37       		.byte	0x37
 10286 38fc 83       		.byte	0x83
 10287 38fd 073B0000 		.4byte	0x3b07
 10288 3901 4001     		.2byte	0x140
 10289 3903 13       		.uleb128 0x13
 10290 3904 7F190000 		.4byte	.LASF775
ARM GAS  /var/folders/qd/4mxf5pkd0zdf0b9dd1hp39180000gn/T//cc7TiL7h.s 			page 182


 10291 3908 37       		.byte	0x37
 10292 3909 84       		.byte	0x84
 10293 390a E20A0000 		.4byte	0xae2
 10294 390e 0004     		.2byte	0x400
 10295 3910 13       		.uleb128 0x13
 10296 3911 1A250000 		.4byte	.LASF776
 10297 3915 37       		.byte	0x37
 10298 3916 85       		.byte	0x85
 10299 3917 E20A0000 		.4byte	0xae2
 10300 391b 0404     		.2byte	0x404
 10301 391d 13       		.uleb128 0x13
 10302 391e 81040000 		.4byte	.LASF777
 10303 3922 37       		.byte	0x37
 10304 3923 86       		.byte	0x86
 10305 3924 E20A0000 		.4byte	0xae2
 10306 3928 0804     		.2byte	0x408
 10307 392a 13       		.uleb128 0x13
 10308 392b 8F220000 		.4byte	.LASF778
 10309 392f 37       		.byte	0x37
 10310 3930 88       		.byte	0x88
 10311 3931 E20A0000 		.4byte	0xae2
 10312 3935 0C04     		.2byte	0x40c
 10313 3937 13       		.uleb128 0x13
 10314 3938 15030000 		.4byte	.LASF779
 10315 393c 37       		.byte	0x37
 10316 393d 89       		.byte	0x89
 10317 393e E20A0000 		.4byte	0xae2
 10318 3942 1004     		.2byte	0x410
 10319 3944 13       		.uleb128 0x13
 10320 3945 02040000 		.4byte	.LASF780
 10321 3949 37       		.byte	0x37
 10322 394a 8B       		.byte	0x8b
 10323 394b E20A0000 		.4byte	0xae2
 10324 394f 1404     		.2byte	0x414
 10325 3951 13       		.uleb128 0x13
 10326 3952 850C0000 		.4byte	.LASF781
 10327 3956 37       		.byte	0x37
 10328 3957 8D       		.byte	0x8d
 10329 3958 E20A0000 		.4byte	0xae2
 10330 395c 1804     		.2byte	0x418
 10331 395e 13       		.uleb128 0x13
 10332 395f 4C1E0000 		.4byte	.LASF782
 10333 3963 37       		.byte	0x37
 10334 3964 8F       		.byte	0x8f
 10335 3965 1C3B0000 		.4byte	0x3b1c
 10336 3969 1C04     		.2byte	0x41c
 10337 396b 13       		.uleb128 0x13
 10338 396c B5020000 		.4byte	.LASF783
 10339 3970 37       		.byte	0x37
 10340 3971 90       		.byte	0x90
 10341 3972 E20A0000 		.4byte	0xae2
 10342 3976 4004     		.2byte	0x440
 10343 3978 13       		.uleb128 0x13
 10344 3979 F31F0000 		.4byte	.LASF784
 10345 397d 37       		.byte	0x37
 10346 397e 92       		.byte	0x92
 10347 397f 313B0000 		.4byte	0x3b31
ARM GAS  /var/folders/qd/4mxf5pkd0zdf0b9dd1hp39180000gn/T//cc7TiL7h.s 			page 183


 10348 3983 4404     		.2byte	0x444
 10349 3985 2F       		.uleb128 0x2f
 10350 3986 686300   		.ascii	"hc\000"
 10351 3989 37       		.byte	0x37
 10352 398a 93       		.byte	0x93
 10353 398b 363B0000 		.4byte	0x3b36
 10354 398f 0005     		.2byte	0x500
 10355 3991 13       		.uleb128 0x13
 10356 3992 ED220000 		.4byte	.LASF785
 10357 3996 37       		.byte	0x37
 10358 3997 94       		.byte	0x94
 10359 3998 563B0000 		.4byte	0x3b56
 10360 399c 0007     		.2byte	0x700
 10361 399e 13       		.uleb128 0x13
 10362 399f BC1B0000 		.4byte	.LASF786
 10363 39a3 37       		.byte	0x37
 10364 39a4 95       		.byte	0x95
 10365 39a5 E20A0000 		.4byte	0xae2
 10366 39a9 0008     		.2byte	0x800
 10367 39ab 13       		.uleb128 0x13
 10368 39ac B4230000 		.4byte	.LASF787
 10369 39b0 37       		.byte	0x37
 10370 39b1 96       		.byte	0x96
 10371 39b2 E20A0000 		.4byte	0xae2
 10372 39b6 0408     		.2byte	0x804
 10373 39b8 13       		.uleb128 0x13
 10374 39b9 EE050000 		.4byte	.LASF788
 10375 39bd 37       		.byte	0x37
 10376 39be 97       		.byte	0x97
 10377 39bf E20A0000 		.4byte	0xae2
 10378 39c3 0808     		.2byte	0x808
 10379 39c5 13       		.uleb128 0x13
 10380 39c6 F9040000 		.4byte	.LASF789
 10381 39ca 37       		.byte	0x37
 10382 39cb 98       		.byte	0x98
 10383 39cc E20A0000 		.4byte	0xae2
 10384 39d0 0C08     		.2byte	0x80c
 10385 39d2 13       		.uleb128 0x13
 10386 39d3 6E0C0000 		.4byte	.LASF790
 10387 39d7 37       		.byte	0x37
 10388 39d8 99       		.byte	0x99
 10389 39d9 E20A0000 		.4byte	0xae2
 10390 39dd 1008     		.2byte	0x810
 10391 39df 13       		.uleb128 0x13
 10392 39e0 19210000 		.4byte	.LASF791
 10393 39e4 37       		.byte	0x37
 10394 39e5 9B       		.byte	0x9b
 10395 39e6 E20A0000 		.4byte	0xae2
 10396 39ea 1408     		.2byte	0x814
 10397 39ec 13       		.uleb128 0x13
 10398 39ed A8210000 		.4byte	.LASF792
 10399 39f1 37       		.byte	0x37
 10400 39f2 9D       		.byte	0x9d
 10401 39f3 E20A0000 		.4byte	0xae2
 10402 39f7 1808     		.2byte	0x818
 10403 39f9 13       		.uleb128 0x13
 10404 39fa D01E0000 		.4byte	.LASF793
ARM GAS  /var/folders/qd/4mxf5pkd0zdf0b9dd1hp39180000gn/T//cc7TiL7h.s 			page 184


 10405 39fe 37       		.byte	0x37
 10406 39ff 9F       		.byte	0x9f
 10407 3a00 E20A0000 		.4byte	0xae2
 10408 3a04 1C08     		.2byte	0x81c
 10409 3a06 13       		.uleb128 0x13
 10410 3a07 55060000 		.4byte	.LASF794
 10411 3a0b 37       		.byte	0x37
 10412 3a0c A1       		.byte	0xa1
 10413 3a0d E20A0000 		.4byte	0xae2
 10414 3a11 2008     		.2byte	0x820
 10415 3a13 13       		.uleb128 0x13
 10416 3a14 65050000 		.4byte	.LASF795
 10417 3a18 37       		.byte	0x37
 10418 3a19 A2       		.byte	0xa2
 10419 3a1a E20A0000 		.4byte	0xae2
 10420 3a1e 2408     		.2byte	0x824
 10421 3a20 13       		.uleb128 0x13
 10422 3a21 C91B0000 		.4byte	.LASF796
 10423 3a25 37       		.byte	0x37
 10424 3a26 A3       		.byte	0xa3
 10425 3a27 E20A0000 		.4byte	0xae2
 10426 3a2b 2808     		.2byte	0x828
 10427 3a2d 13       		.uleb128 0x13
 10428 3a2e 3B0F0000 		.4byte	.LASF797
 10429 3a32 37       		.byte	0x37
 10430 3a33 A5       		.byte	0xa5
 10431 3a34 E20A0000 		.4byte	0xae2
 10432 3a38 2C08     		.2byte	0x82c
 10433 3a3a 13       		.uleb128 0x13
 10434 3a3b EA060000 		.4byte	.LASF798
 10435 3a3f 37       		.byte	0x37
 10436 3a40 A7       		.byte	0xa7
 10437 3a41 E20A0000 		.4byte	0xae2
 10438 3a45 3008     		.2byte	0x830
 10439 3a47 13       		.uleb128 0x13
 10440 3a48 4F0E0000 		.4byte	.LASF799
 10441 3a4c 37       		.byte	0x37
 10442 3a4d A8       		.byte	0xa8
 10443 3a4e E20A0000 		.4byte	0xae2
 10444 3a52 3408     		.2byte	0x834
 10445 3a54 13       		.uleb128 0x13
 10446 3a55 F8060000 		.4byte	.LASF800
 10447 3a59 37       		.byte	0x37
 10448 3a5a AA       		.byte	0xaa
 10449 3a5b E20A0000 		.4byte	0xae2
 10450 3a5f 3808     		.2byte	0x838
 10451 3a61 13       		.uleb128 0x13
 10452 3a62 10070000 		.4byte	.LASF801
 10453 3a66 37       		.byte	0x37
 10454 3a67 AB       		.byte	0xab
 10455 3a68 E20A0000 		.4byte	0xae2
 10456 3a6c 3C08     		.2byte	0x83c
 10457 3a6e 13       		.uleb128 0x13
 10458 3a6f A2070000 		.4byte	.LASF802
 10459 3a73 37       		.byte	0x37
 10460 3a74 AC       		.byte	0xac
 10461 3a75 6B3B0000 		.4byte	0x3b6b
ARM GAS  /var/folders/qd/4mxf5pkd0zdf0b9dd1hp39180000gn/T//cc7TiL7h.s 			page 185


 10462 3a79 4008     		.2byte	0x840
 10463 3a7b 13       		.uleb128 0x13
 10464 3a7c E60D0000 		.4byte	.LASF803
 10465 3a80 37       		.byte	0x37
 10466 3a81 AD       		.byte	0xad
 10467 3a82 6B3B0000 		.4byte	0x3b6b
 10468 3a86 8008     		.2byte	0x880
 10469 3a88 13       		.uleb128 0x13
 10470 3a89 04130000 		.4byte	.LASF804
 10471 3a8d 37       		.byte	0x37
 10472 3a8e AE       		.byte	0xae
 10473 3a8f 6B3B0000 		.4byte	0x3b6b
 10474 3a93 C008     		.2byte	0x8c0
 10475 3a95 2F       		.uleb128 0x2f
 10476 3a96 696500   		.ascii	"ie\000"
 10477 3a99 37       		.byte	0x37
 10478 3a9a AF       		.byte	0xaf
 10479 3a9b 703B0000 		.4byte	0x3b70
 10480 3a9f 0009     		.2byte	0x900
 10481 3aa1 2F       		.uleb128 0x2f
 10482 3aa2 6F6500   		.ascii	"oe\000"
 10483 3aa5 37       		.byte	0x37
 10484 3aa6 B0       		.byte	0xb0
 10485 3aa7 803B0000 		.4byte	0x3b80
 10486 3aab 000B     		.2byte	0xb00
 10487 3aad 13       		.uleb128 0x13
 10488 3aae 8A0B0000 		.4byte	.LASF805
 10489 3ab2 37       		.byte	0x37
 10490 3ab3 B1       		.byte	0xb1
 10491 3ab4 563B0000 		.4byte	0x3b56
 10492 3ab8 000D     		.2byte	0xd00
 10493 3aba 13       		.uleb128 0x13
 10494 3abb CC230000 		.4byte	.LASF806
 10495 3abf 37       		.byte	0x37
 10496 3ac0 B2       		.byte	0xb2
 10497 3ac1 E20A0000 		.4byte	0xae2
 10498 3ac5 000E     		.2byte	0xe00
 10499 3ac7 13       		.uleb128 0x13
 10500 3ac8 1B190000 		.4byte	.LASF807
 10501 3acc 37       		.byte	0x37
 10502 3acd B4       		.byte	0xb4
 10503 3ace A03B0000 		.4byte	0x3ba0
 10504 3ad2 040E     		.2byte	0xe04
 10505 3ad4 13       		.uleb128 0x13
 10506 3ad5 95090000 		.4byte	.LASF310
 10507 3ad9 37       		.byte	0x37
 10508 3ada B5       		.byte	0xb5
 10509 3adb BC3B0000 		.4byte	0x3bbc
 10510 3adf 0010     		.2byte	0x1000
 10511 3ae1 00       		.byte	0
 10512 3ae2 0A       		.uleb128 0xa
 10513 3ae3 E20A0000 		.4byte	0xae2
 10514 3ae7 F23A0000 		.4byte	0x3af2
 10515 3aeb 0B       		.uleb128 0xb
 10516 3aec 3E000000 		.4byte	0x3e
 10517 3af0 2F       		.byte	0x2f
 10518 3af1 00       		.byte	0
ARM GAS  /var/folders/qd/4mxf5pkd0zdf0b9dd1hp39180000gn/T//cc7TiL7h.s 			page 186


 10519 3af2 1A       		.uleb128 0x1a
 10520 3af3 E23A0000 		.4byte	0x3ae2
 10521 3af7 0A       		.uleb128 0xa
 10522 3af8 E20A0000 		.4byte	0xae2
 10523 3afc 073B0000 		.4byte	0x3b07
 10524 3b00 0B       		.uleb128 0xb
 10525 3b01 3E000000 		.4byte	0x3e
 10526 3b05 AF       		.byte	0xaf
 10527 3b06 00       		.byte	0
 10528 3b07 1A       		.uleb128 0x1a
 10529 3b08 F73A0000 		.4byte	0x3af7
 10530 3b0c 0A       		.uleb128 0xa
 10531 3b0d E20A0000 		.4byte	0xae2
 10532 3b11 1C3B0000 		.4byte	0x3b1c
 10533 3b15 0B       		.uleb128 0xb
 10534 3b16 3E000000 		.4byte	0x3e
 10535 3b1a 08       		.byte	0x8
 10536 3b1b 00       		.byte	0
 10537 3b1c 1A       		.uleb128 0x1a
 10538 3b1d 0C3B0000 		.4byte	0x3b0c
 10539 3b21 0A       		.uleb128 0xa
 10540 3b22 E20A0000 		.4byte	0xae2
 10541 3b26 313B0000 		.4byte	0x3b31
 10542 3b2a 0B       		.uleb128 0xb
 10543 3b2b 3E000000 		.4byte	0x3e
 10544 3b2f 2E       		.byte	0x2e
 10545 3b30 00       		.byte	0
 10546 3b31 1A       		.uleb128 0x1a
 10547 3b32 213B0000 		.4byte	0x3b21
 10548 3b36 0A       		.uleb128 0xa
 10549 3b37 12370000 		.4byte	0x3712
 10550 3b3b 463B0000 		.4byte	0x3b46
 10551 3b3f 0B       		.uleb128 0xb
 10552 3b40 3E000000 		.4byte	0x3e
 10553 3b44 0F       		.byte	0xf
 10554 3b45 00       		.byte	0
 10555 3b46 0A       		.uleb128 0xa
 10556 3b47 E20A0000 		.4byte	0xae2
 10557 3b4b 563B0000 		.4byte	0x3b56
 10558 3b4f 0B       		.uleb128 0xb
 10559 3b50 3E000000 		.4byte	0x3e
 10560 3b54 3F       		.byte	0x3f
 10561 3b55 00       		.byte	0
 10562 3b56 1A       		.uleb128 0x1a
 10563 3b57 463B0000 		.4byte	0x3b46
 10564 3b5b 0A       		.uleb128 0xa
 10565 3b5c E20A0000 		.4byte	0xae2
 10566 3b60 6B3B0000 		.4byte	0x3b6b
 10567 3b64 0B       		.uleb128 0xb
 10568 3b65 3E000000 		.4byte	0x3e
 10569 3b69 0F       		.byte	0xf
 10570 3b6a 00       		.byte	0
 10571 3b6b 1A       		.uleb128 0x1a
 10572 3b6c 5B3B0000 		.4byte	0x3b5b
 10573 3b70 0A       		.uleb128 0xa
 10574 3b71 86370000 		.4byte	0x3786
 10575 3b75 803B0000 		.4byte	0x3b80
ARM GAS  /var/folders/qd/4mxf5pkd0zdf0b9dd1hp39180000gn/T//cc7TiL7h.s 			page 187


 10576 3b79 0B       		.uleb128 0xb
 10577 3b7a 3E000000 		.4byte	0x3e
 10578 3b7e 0F       		.byte	0xf
 10579 3b7f 00       		.byte	0
 10580 3b80 0A       		.uleb128 0xa
 10581 3b81 FA370000 		.4byte	0x37fa
 10582 3b85 903B0000 		.4byte	0x3b90
 10583 3b89 0B       		.uleb128 0xb
 10584 3b8a 3E000000 		.4byte	0x3e
 10585 3b8e 0F       		.byte	0xf
 10586 3b8f 00       		.byte	0
 10587 3b90 0A       		.uleb128 0xa
 10588 3b91 E20A0000 		.4byte	0xae2
 10589 3b95 A03B0000 		.4byte	0x3ba0
 10590 3b99 0B       		.uleb128 0xb
 10591 3b9a 3E000000 		.4byte	0x3e
 10592 3b9e 7E       		.byte	0x7e
 10593 3b9f 00       		.byte	0
 10594 3ba0 1A       		.uleb128 0x1a
 10595 3ba1 903B0000 		.4byte	0x3b90
 10596 3ba5 0A       		.uleb128 0xa
 10597 3ba6 E20A0000 		.4byte	0xae2
 10598 3baa BC3B0000 		.4byte	0x3bbc
 10599 3bae 0B       		.uleb128 0xb
 10600 3baf 3E000000 		.4byte	0x3e
 10601 3bb3 0F       		.byte	0xf
 10602 3bb4 30       		.uleb128 0x30
 10603 3bb5 3E000000 		.4byte	0x3e
 10604 3bb9 FF03     		.2byte	0x3ff
 10605 3bbb 00       		.byte	0
 10606 3bbc 1A       		.uleb128 0x1a
 10607 3bbd A53B0000 		.4byte	0x3ba5
 10608 3bc1 04       		.uleb128 0x4
 10609 3bc2 D5250000 		.4byte	.LASF808
 10610 3bc6 37       		.byte	0x37
 10611 3bc7 B6       		.byte	0xb6
 10612 3bc8 05380000 		.4byte	0x3805
 10613 3bcc 0C       		.uleb128 0xc
 10614 3bcd 0C       		.byte	0xc
 10615 3bce 36       		.byte	0x36
 10616 3bcf C6       		.byte	0xc6
 10617 3bd0 F93B0000 		.4byte	0x3bf9
 10618 3bd4 0D       		.uleb128 0xd
 10619 3bd5 11090000 		.4byte	.LASF809
 10620 3bd9 36       		.byte	0x36
 10621 3bda C7       		.byte	0xc7
 10622 3bdb D70A0000 		.4byte	0xad7
 10623 3bdf 00       		.byte	0
 10624 3be0 0D       		.uleb128 0xd
 10625 3be1 560B0000 		.4byte	.LASF810
 10626 3be5 36       		.byte	0x36
 10627 3be6 C8       		.byte	0xc8
 10628 3be7 D70A0000 		.4byte	0xad7
 10629 3beb 04       		.byte	0x4
 10630 3bec 0D       		.uleb128 0xd
 10631 3bed 950F0000 		.4byte	.LASF811
 10632 3bf1 36       		.byte	0x36
ARM GAS  /var/folders/qd/4mxf5pkd0zdf0b9dd1hp39180000gn/T//cc7TiL7h.s 			page 188


 10633 3bf2 C9       		.byte	0xc9
 10634 3bf3 D70A0000 		.4byte	0xad7
 10635 3bf7 08       		.byte	0x8
 10636 3bf8 00       		.byte	0
 10637 3bf9 04       		.uleb128 0x4
 10638 3bfa 770B0000 		.4byte	.LASF812
 10639 3bfe 36       		.byte	0x36
 10640 3bff CA       		.byte	0xca
 10641 3c00 CC3B0000 		.4byte	0x3bcc
 10642 3c04 0F       		.uleb128 0xf
 10643 3c05 F93B0000 		.4byte	0x3bf9
 10644 3c09 0C       		.uleb128 0xc
 10645 3c0a 04       		.byte	0x4
 10646 3c0b 36       		.byte	0x36
 10647 3c0c DD       		.byte	0xdd
 10648 3c0d 1E3C0000 		.4byte	0x3c1e
 10649 3c11 0D       		.uleb128 0xd
 10650 3c12 C6230000 		.4byte	.LASF813
 10651 3c16 36       		.byte	0x36
 10652 3c17 E1       		.byte	0xe1
 10653 3c18 CE1C0000 		.4byte	0x1cce
 10654 3c1c 00       		.byte	0
 10655 3c1d 00       		.byte	0
 10656 3c1e 0C       		.uleb128 0xc
 10657 3c1f 04       		.byte	0x4
 10658 3c20 36       		.byte	0x36
 10659 3c21 E3       		.byte	0xe3
 10660 3c22 333C0000 		.4byte	0x3c33
 10661 3c26 0D       		.uleb128 0xd
 10662 3c27 A4090000 		.4byte	.LASF499
 10663 3c2b 36       		.byte	0x36
 10664 3c2c E7       		.byte	0xe7
 10665 3c2d 333C0000 		.4byte	0x3c33
 10666 3c31 00       		.byte	0
 10667 3c32 00       		.byte	0
 10668 3c33 05       		.uleb128 0x5
 10669 3c34 04       		.byte	0x4
 10670 3c35 AA1C0000 		.4byte	0x1caa
 10671 3c39 08       		.uleb128 0x8
 10672 3c3a 04       		.byte	0x4
 10673 3c3b 36       		.byte	0x36
 10674 3c3c DC       		.byte	0xdc
 10675 3c3d 583C0000 		.4byte	0x3c58
 10676 3c41 09       		.uleb128 0x9
 10677 3c42 33200000 		.4byte	.LASF814
 10678 3c46 36       		.byte	0x36
 10679 3c47 E2       		.byte	0xe2
 10680 3c48 093C0000 		.4byte	0x3c09
 10681 3c4c 09       		.uleb128 0x9
 10682 3c4d 1A1F0000 		.4byte	.LASF815
 10683 3c51 36       		.byte	0x36
 10684 3c52 E8       		.byte	0xe8
 10685 3c53 1E3C0000 		.4byte	0x3c1e
 10686 3c57 00       		.byte	0
 10687 3c58 0C       		.uleb128 0xc
 10688 3c59 14       		.byte	0x14
 10689 3c5a 36       		.byte	0x36
ARM GAS  /var/folders/qd/4mxf5pkd0zdf0b9dd1hp39180000gn/T//cc7TiL7h.s 			page 189


 10690 3c5b CF       		.byte	0xcf
 10691 3c5c 9D3C0000 		.4byte	0x3c9d
 10692 3c60 0D       		.uleb128 0xd
 10693 3c61 DF070000 		.4byte	.LASF816
 10694 3c65 36       		.byte	0x36
 10695 3c66 D3       		.byte	0xd3
 10696 3c67 7F0A0000 		.4byte	0xa7f
 10697 3c6b 00       		.byte	0
 10698 3c6c 0D       		.uleb128 0xd
 10699 3c6d 4B140000 		.4byte	.LASF817
 10700 3c71 36       		.byte	0x36
 10701 3c72 D7       		.byte	0xd7
 10702 3c73 33000000 		.4byte	0x33
 10703 3c77 04       		.byte	0x4
 10704 3c78 0D       		.uleb128 0xd
 10705 3c79 1D0B0000 		.4byte	.LASF818
 10706 3c7d 36       		.byte	0x36
 10707 3c7e DB       		.byte	0xdb
 10708 3c7f 33000000 		.4byte	0x33
 10709 3c83 08       		.byte	0x8
 10710 3c84 0D       		.uleb128 0xd
 10711 3c85 8E080000 		.4byte	.LASF545
 10712 3c89 36       		.byte	0x36
 10713 3c8a E9       		.byte	0xe9
 10714 3c8b 393C0000 		.4byte	0x3c39
 10715 3c8f 0C       		.byte	0xc
 10716 3c90 0D       		.uleb128 0xd
 10717 3c91 AD0F0000 		.4byte	.LASF819
 10718 3c95 36       		.byte	0x36
 10719 3c96 ED       		.byte	0xed
 10720 3c97 33000000 		.4byte	0x33
 10721 3c9b 10       		.byte	0x10
 10722 3c9c 00       		.byte	0
 10723 3c9d 04       		.uleb128 0x4
 10724 3c9e F1110000 		.4byte	.LASF820
 10725 3ca2 36       		.byte	0x36
 10726 3ca3 EE       		.byte	0xee
 10727 3ca4 583C0000 		.4byte	0x3c58
 10728 3ca8 1C       		.uleb128 0x1c
 10729 3ca9 04       		.byte	0x4
 10730 3caa 36       		.byte	0x36
 10731 3cab 0101     		.2byte	0x101
 10732 3cad BF3C0000 		.4byte	0x3cbf
 10733 3cb1 18       		.uleb128 0x18
 10734 3cb2 9A0B0000 		.4byte	.LASF821
 10735 3cb6 36       		.byte	0x36
 10736 3cb7 0501     		.2byte	0x105
 10737 3cb9 991C0000 		.4byte	0x1c99
 10738 3cbd 00       		.byte	0
 10739 3cbe 00       		.byte	0
 10740 3cbf 1C       		.uleb128 0x1c
 10741 3cc0 04       		.byte	0x4
 10742 3cc1 36       		.byte	0x36
 10743 3cc2 0701     		.2byte	0x107
 10744 3cc4 D63C0000 		.4byte	0x3cd6
 10745 3cc8 18       		.uleb128 0x18
 10746 3cc9 E31F0000 		.4byte	.LASF500
ARM GAS  /var/folders/qd/4mxf5pkd0zdf0b9dd1hp39180000gn/T//cc7TiL7h.s 			page 190


 10747 3ccd 36       		.byte	0x36
 10748 3cce 0B01     		.2byte	0x10b
 10749 3cd0 D63C0000 		.4byte	0x3cd6
 10750 3cd4 00       		.byte	0
 10751 3cd5 00       		.byte	0
 10752 3cd6 05       		.uleb128 0x5
 10753 3cd7 04       		.byte	0x4
 10754 3cd8 9F1C0000 		.4byte	0x1c9f
 10755 3cdc 1D       		.uleb128 0x1d
 10756 3cdd 04       		.byte	0x4
 10757 3cde 36       		.byte	0x36
 10758 3cdf 0001     		.2byte	0x100
 10759 3ce1 FE3C0000 		.4byte	0x3cfe
 10760 3ce5 1E       		.uleb128 0x1e
 10761 3ce6 33200000 		.4byte	.LASF814
 10762 3cea 36       		.byte	0x36
 10763 3ceb 0601     		.2byte	0x106
 10764 3ced A83C0000 		.4byte	0x3ca8
 10765 3cf1 1E       		.uleb128 0x1e
 10766 3cf2 1A1F0000 		.4byte	.LASF815
 10767 3cf6 36       		.byte	0x36
 10768 3cf7 0C01     		.2byte	0x10c
 10769 3cf9 BF3C0000 		.4byte	0x3cbf
 10770 3cfd 00       		.byte	0
 10771 3cfe 0C       		.uleb128 0xc
 10772 3cff 14       		.byte	0x14
 10773 3d00 36       		.byte	0x36
 10774 3d01 F3       		.byte	0xf3
 10775 3d02 453D0000 		.4byte	0x3d45
 10776 3d06 0D       		.uleb128 0xd
 10777 3d07 2C060000 		.4byte	.LASF822
 10778 3d0b 36       		.byte	0x36
 10779 3d0c F7       		.byte	0xf7
 10780 3d0d 7F0A0000 		.4byte	0xa7f
 10781 3d11 00       		.byte	0
 10782 3d12 0D       		.uleb128 0xd
 10783 3d13 33150000 		.4byte	.LASF823
 10784 3d17 36       		.byte	0x36
 10785 3d18 FB       		.byte	0xfb
 10786 3d19 33000000 		.4byte	0x33
 10787 3d1d 04       		.byte	0x4
 10788 3d1e 0D       		.uleb128 0xd
 10789 3d1f 69080000 		.4byte	.LASF824
 10790 3d23 36       		.byte	0x36
 10791 3d24 FF       		.byte	0xff
 10792 3d25 33000000 		.4byte	0x33
 10793 3d29 08       		.byte	0x8
 10794 3d2a 18       		.uleb128 0x18
 10795 3d2b 8E080000 		.4byte	.LASF545
 10796 3d2f 36       		.byte	0x36
 10797 3d30 0D01     		.2byte	0x10d
 10798 3d32 DC3C0000 		.4byte	0x3cdc
 10799 3d36 0C       		.byte	0xc
 10800 3d37 18       		.uleb128 0x18
 10801 3d38 AD0F0000 		.4byte	.LASF819
 10802 3d3c 36       		.byte	0x36
 10803 3d3d 1101     		.2byte	0x111
ARM GAS  /var/folders/qd/4mxf5pkd0zdf0b9dd1hp39180000gn/T//cc7TiL7h.s 			page 191


 10804 3d3f 33000000 		.4byte	0x33
 10805 3d43 10       		.byte	0x10
 10806 3d44 00       		.byte	0
 10807 3d45 07       		.uleb128 0x7
 10808 3d46 381E0000 		.4byte	.LASF825
 10809 3d4a 36       		.byte	0x36
 10810 3d4b 1201     		.2byte	0x112
 10811 3d4d FE3C0000 		.4byte	0x3cfe
 10812 3d51 1C       		.uleb128 0x1c
 10813 3d52 24       		.byte	0x24
 10814 3d53 36       		.byte	0x36
 10815 3d54 1801     		.2byte	0x118
 10816 3d56 DD3D0000 		.4byte	0x3ddd
 10817 3d5a 18       		.uleb128 0x18
 10818 3d5b E8180000 		.4byte	.LASF826
 10819 3d5f 36       		.byte	0x36
 10820 3d60 1C01     		.2byte	0x11c
 10821 3d62 D70A0000 		.4byte	0xad7
 10822 3d66 00       		.byte	0
 10823 3d67 18       		.uleb128 0x18
 10824 3d68 6D090000 		.4byte	.LASF827
 10825 3d6c 36       		.byte	0x36
 10826 3d6d 2701     		.2byte	0x127
 10827 3d6f 0E360000 		.4byte	0x360e
 10828 3d73 04       		.byte	0x4
 10829 3d74 18       		.uleb128 0x18
 10830 3d75 DA190000 		.4byte	.LASF828
 10831 3d79 36       		.byte	0x36
 10832 3d7a 2D01     		.2byte	0x12d
 10833 3d7c 0E360000 		.4byte	0x360e
 10834 3d80 08       		.byte	0x8
 10835 3d81 18       		.uleb128 0x18
 10836 3d82 7E0C0000 		.4byte	.LASF829
 10837 3d86 36       		.byte	0x36
 10838 3d87 3301     		.2byte	0x133
 10839 3d89 0E360000 		.4byte	0x360e
 10840 3d8d 0C       		.byte	0xc
 10841 3d8e 18       		.uleb128 0x18
 10842 3d8f 08260000 		.4byte	.LASF830
 10843 3d93 36       		.byte	0x36
 10844 3d94 3901     		.2byte	0x139
 10845 3d96 BC0A0000 		.4byte	0xabc
 10846 3d9a 10       		.byte	0x10
 10847 3d9b 18       		.uleb128 0x18
 10848 3d9c DA0C0000 		.4byte	.LASF831
 10849 3da0 36       		.byte	0x36
 10850 3da1 3F01     		.2byte	0x13f
 10851 3da3 BC0A0000 		.4byte	0xabc
 10852 3da7 12       		.byte	0x12
 10853 3da8 18       		.uleb128 0x18
 10854 3da9 9C240000 		.4byte	.LASF832
 10855 3dad 36       		.byte	0x36
 10856 3dae 4401     		.2byte	0x144
 10857 3db0 DD3D0000 		.4byte	0x3ddd
 10858 3db4 14       		.byte	0x14
 10859 3db5 18       		.uleb128 0x18
 10860 3db6 980E0000 		.4byte	.LASF833
ARM GAS  /var/folders/qd/4mxf5pkd0zdf0b9dd1hp39180000gn/T//cc7TiL7h.s 			page 192


 10861 3dba 36       		.byte	0x36
 10862 3dbb 4901     		.2byte	0x149
 10863 3dbd E33D0000 		.4byte	0x3de3
 10864 3dc1 18       		.byte	0x18
 10865 3dc2 18       		.uleb128 0x18
 10866 3dc3 8E130000 		.4byte	.LASF834
 10867 3dc7 36       		.byte	0x36
 10868 3dc8 5001     		.2byte	0x150
 10869 3dca BC0A0000 		.4byte	0xabc
 10870 3dce 1C       		.byte	0x1c
 10871 3dcf 18       		.uleb128 0x18
 10872 3dd0 00240000 		.4byte	.LASF835
 10873 3dd4 36       		.byte	0x36
 10874 3dd5 5601     		.2byte	0x156
 10875 3dd7 991C0000 		.4byte	0x1c99
 10876 3ddb 20       		.byte	0x20
 10877 3ddc 00       		.byte	0
 10878 3ddd 05       		.uleb128 0x5
 10879 3dde 04       		.byte	0x4
 10880 3ddf 9D3C0000 		.4byte	0x3c9d
 10881 3de3 05       		.uleb128 0x5
 10882 3de4 04       		.byte	0x4
 10883 3de5 453D0000 		.4byte	0x3d45
 10884 3de9 07       		.uleb128 0x7
 10885 3dea B31F0000 		.4byte	.LASF836
 10886 3dee 36       		.byte	0x36
 10887 3def 5701     		.2byte	0x157
 10888 3df1 513D0000 		.4byte	0x3d51
 10889 3df5 0F       		.uleb128 0xf
 10890 3df6 E93D0000 		.4byte	0x3de9
 10891 3dfa 1C       		.uleb128 0x1c
 10892 3dfb 10       		.byte	0x10
 10893 3dfc 36       		.byte	0x36
 10894 3dfd 5C01     		.2byte	0x15c
 10895 3dff 383E0000 		.4byte	0x3e38
 10896 3e03 18       		.uleb128 0x18
 10897 3e04 02050000 		.4byte	.LASF837
 10898 3e08 36       		.byte	0x36
 10899 3e09 6101     		.2byte	0x161
 10900 3e0b 30360000 		.4byte	0x3630
 10901 3e0f 00       		.byte	0
 10902 3e10 18       		.uleb128 0x18
 10903 3e11 65230000 		.4byte	.LASF838
 10904 3e15 36       		.byte	0x36
 10905 3e16 6601     		.2byte	0x166
 10906 3e18 73360000 		.4byte	0x3673
 10907 3e1c 04       		.byte	0x4
 10908 3e1d 18       		.uleb128 0x18
 10909 3e1e 17140000 		.4byte	.LASF839
 10910 3e22 36       		.byte	0x36
 10911 3e23 6C01     		.2byte	0x16c
 10912 3e25 52360000 		.4byte	0x3652
 10913 3e29 08       		.byte	0x8
 10914 3e2a 18       		.uleb128 0x18
 10915 3e2b 07020000 		.4byte	.LASF840
 10916 3e2f 36       		.byte	0x36
 10917 3e30 7001     		.2byte	0x170
ARM GAS  /var/folders/qd/4mxf5pkd0zdf0b9dd1hp39180000gn/T//cc7TiL7h.s 			page 193


 10918 3e32 EB350000 		.4byte	0x35eb
 10919 3e36 0C       		.byte	0xc
 10920 3e37 00       		.byte	0
 10921 3e38 07       		.uleb128 0x7
 10922 3e39 0D130000 		.4byte	.LASF841
 10923 3e3d 36       		.byte	0x36
 10924 3e3e 7201     		.2byte	0x172
 10925 3e40 FA3D0000 		.4byte	0x3dfa
 10926 3e44 0F       		.uleb128 0xf
 10927 3e45 383E0000 		.4byte	0x3e38
 10928 3e49 05       		.uleb128 0x5
 10929 3e4a 04       		.byte	0x4
 10930 3e4b 443E0000 		.4byte	0x3e44
 10931 3e4f 0A       		.uleb128 0xa
 10932 3e50 5F3E0000 		.4byte	0x3e5f
 10933 3e54 5F3E0000 		.4byte	0x3e5f
 10934 3e58 0B       		.uleb128 0xb
 10935 3e59 3E000000 		.4byte	0x3e
 10936 3e5d 03       		.byte	0x3
 10937 3e5e 00       		.byte	0
 10938 3e5f 05       		.uleb128 0x5
 10939 3e60 04       		.byte	0x4
 10940 3e61 F53D0000 		.4byte	0x3df5
 10941 3e65 0A       		.uleb128 0xa
 10942 3e66 64010000 		.4byte	0x164
 10943 3e6a 753E0000 		.4byte	0x3e75
 10944 3e6e 0B       		.uleb128 0xb
 10945 3e6f 3E000000 		.4byte	0x3e
 10946 3e73 02       		.byte	0x2
 10947 3e74 00       		.byte	0
 10948 3e75 05       		.uleb128 0x5
 10949 3e76 04       		.byte	0x4
 10950 3e77 C13B0000 		.4byte	0x3bc1
 10951 3e7b 05       		.uleb128 0x5
 10952 3e7c 04       		.byte	0x4
 10953 3e7d 043C0000 		.4byte	0x3c04
 10954 3e81 0A       		.uleb128 0xa
 10955 3e82 BC160000 		.4byte	0x16bc
 10956 3e86 913E0000 		.4byte	0x3e91
 10957 3e8a 0B       		.uleb128 0xb
 10958 3e8b 3E000000 		.4byte	0x3e
 10959 3e8f 3E       		.byte	0x3e
 10960 3e90 00       		.byte	0
 10961 3e91 20       		.uleb128 0x20
 10962 3e92 CF160000 		.4byte	.LASF842
 10963 3e96 36       		.byte	0x36
 10964 3e97 0602     		.2byte	0x206
 10965 3e99 B7330000 		.4byte	0x33b7
 10966 3e9d 26       		.uleb128 0x26
 10967 3e9e 46010000 		.4byte	.LASF843
 10968 3ea2 38       		.byte	0x38
 10969 3ea3 63       		.byte	0x63
 10970 3ea4 66010000 		.4byte	0x166
 10971 3ea8 31       		.uleb128 0x31
 10972 3ea9 511F0000 		.4byte	.LASF852
 10973 3ead 01       		.byte	0x1
 10974 3eae 22       		.byte	0x22
ARM GAS  /var/folders/qd/4mxf5pkd0zdf0b9dd1hp39180000gn/T//cc7TiL7h.s 			page 194


 10975 3eaf 8A090000 		.4byte	0x98a
 10976 3eb3 05       		.uleb128 0x5
 10977 3eb4 03       		.byte	0x3
 10978 3eb5 00000000 		.4byte	robotActualPosition
 10979 3eb9 0C       		.uleb128 0xc
 10980 3eba 10       		.byte	0x10
 10981 3ebb 01       		.byte	0x1
 10982 3ebc 34       		.byte	0x34
 10983 3ebd EE3E0000 		.4byte	0x3eee
 10984 3ec1 11       		.uleb128 0x11
 10985 3ec2 783000   		.ascii	"x0\000"
 10986 3ec5 01       		.byte	0x1
 10987 3ec6 35       		.byte	0x35
 10988 3ec7 2C000000 		.4byte	0x2c
 10989 3ecb 00       		.byte	0
 10990 3ecc 11       		.uleb128 0x11
 10991 3ecd 783200   		.ascii	"x2\000"
 10992 3ed0 01       		.byte	0x1
 10993 3ed1 36       		.byte	0x36
 10994 3ed2 2C000000 		.4byte	0x2c
 10995 3ed6 04       		.byte	0x4
 10996 3ed7 11       		.uleb128 0x11
 10997 3ed8 793100   		.ascii	"y1\000"
 10998 3edb 01       		.byte	0x1
 10999 3edc 37       		.byte	0x37
 11000 3edd 2C000000 		.4byte	0x2c
 11001 3ee1 08       		.byte	0x8
 11002 3ee2 11       		.uleb128 0x11
 11003 3ee3 793300   		.ascii	"y3\000"
 11004 3ee6 01       		.byte	0x1
 11005 3ee7 38       		.byte	0x38
 11006 3ee8 2C000000 		.4byte	0x2c
 11007 3eec 0C       		.byte	0xc
 11008 3eed 00       		.byte	0
 11009 3eee 04       		.uleb128 0x4
 11010 3eef 13050000 		.4byte	.LASF844
 11011 3ef3 01       		.byte	0x1
 11012 3ef4 39       		.byte	0x39
 11013 3ef5 B93E0000 		.4byte	0x3eb9
 11014 3ef9 32       		.uleb128 0x32
 11015 3efa 7F0A0000 		.4byte	.LASF845
 11016 3efe 01       		.byte	0x1
 11017 3eff 3B       		.byte	0x3b
 11018 3f00 EE3E0000 		.4byte	0x3eee
 11019 3f04 05       		.uleb128 0x5
 11020 3f05 03       		.byte	0x3
 11021 3f06 00000000 		.4byte	wall
 11022 3f0a 32       		.uleb128 0x32
 11023 3f0b 0F200000 		.4byte	.LASF846
 11024 3f0f 01       		.byte	0x1
 11025 3f10 3D       		.byte	0x3d
 11026 3f11 1B3F0000 		.4byte	0x3f1b
 11027 3f15 05       		.uleb128 0x5
 11028 3f16 03       		.byte	0x3
 11029 3f17 00000000 		.4byte	objectList
 11030 3f1b 05       		.uleb128 0x5
 11031 3f1c 04       		.byte	0x4
ARM GAS  /var/folders/qd/4mxf5pkd0zdf0b9dd1hp39180000gn/T//cc7TiL7h.s 			page 195


 11032 3f1d B7090000 		.4byte	0x9b7
 11033 3f21 32       		.uleb128 0x32
 11034 3f22 2C110000 		.4byte	.LASF847
 11035 3f26 01       		.byte	0x1
 11036 3f27 3E       		.byte	0x3e
 11037 3f28 2C000000 		.4byte	0x2c
 11038 3f2c 05       		.uleb128 0x5
 11039 3f2d 03       		.byte	0x3
 11040 3f2e 00000000 		.4byte	objectListSize
 11041 3f32 33       		.uleb128 0x33
 11042 3f33 A51A0000 		.4byte	.LASF921
 11043 3f37 01       		.byte	0x1
 11044 3f38 9D01     		.2byte	0x19d
 11045 3f3a 00000000 		.4byte	.LFB280
 11046 3f3e 20000000 		.4byte	.LFE280-.LFB280
 11047 3f42 01       		.uleb128 0x1
 11048 3f43 9C       		.byte	0x9c
 11049 3f44 523F0000 		.4byte	0x3f52
 11050 3f48 34       		.uleb128 0x34
 11051 3f49 1C000000 		.4byte	.LVL362
 11052 3f4d FE4C0000 		.4byte	0x4cfe
 11053 3f51 00       		.byte	0
 11054 3f52 35       		.uleb128 0x35
 11055 3f53 5A020000 		.4byte	.LASF857
 11056 3f57 01       		.byte	0x1
 11057 3f58 9801     		.2byte	0x198
 11058 3f5a B7090000 		.4byte	0x9b7
 11059 3f5e 00000000 		.4byte	.LFB279
 11060 3f62 24000000 		.4byte	.LFE279-.LFB279
 11061 3f66 01       		.uleb128 0x1
 11062 3f67 9C       		.byte	0x9c
 11063 3f68 853F0000 		.4byte	0x3f85
 11064 3f6c 36       		.uleb128 0x36
 11065 3f6d 6C130000 		.4byte	.LASF848
 11066 3f71 01       		.byte	0x1
 11067 3f72 9801     		.2byte	0x198
 11068 3f74 B7090000 		.4byte	0x9b7
 11069 3f78 02       		.uleb128 0x2
 11070 3f79 91       		.byte	0x91
 11071 3f7a 60       		.sleb128 -32
 11072 3f7b 34       		.uleb128 0x34
 11073 3f7c 20000000 		.4byte	.LVL361
 11074 3f80 FE4C0000 		.4byte	0x4cfe
 11075 3f84 00       		.byte	0
 11076 3f85 37       		.uleb128 0x37
 11077 3f86 1A050000 		.4byte	.LASF859
 11078 3f8a 01       		.byte	0x1
 11079 3f8b 6E01     		.2byte	0x16e
 11080 3f8d 00000000 		.4byte	.LFB278
 11081 3f91 7C010000 		.4byte	.LFE278-.LFB278
 11082 3f95 01       		.uleb128 0x1
 11083 3f96 9C       		.byte	0x9c
 11084 3f97 C9400000 		.4byte	0x40c9
 11085 3f9b 38       		.uleb128 0x38
 11086 3f9c 8F000000 		.4byte	.LASF849
 11087 3fa0 01       		.byte	0x1
 11088 3fa1 6E01     		.2byte	0x16e
ARM GAS  /var/folders/qd/4mxf5pkd0zdf0b9dd1hp39180000gn/T//cc7TiL7h.s 			page 196


 11089 3fa3 C9400000 		.4byte	0x40c9
 11090 3fa7 00000000 		.4byte	.LLST53
 11091 3fab 38       		.uleb128 0x38
 11092 3fac B2220000 		.4byte	.LASF850
 11093 3fb0 01       		.byte	0x1
 11094 3fb1 6E01     		.2byte	0x16e
 11095 3fb3 2C000000 		.4byte	0x2c
 11096 3fb7 2C000000 		.4byte	.LLST54
 11097 3fbb 38       		.uleb128 0x38
 11098 3fbc 00000000 		.4byte	.LASF851
 11099 3fc0 01       		.byte	0x1
 11100 3fc1 6E01     		.2byte	0x16e
 11101 3fc3 CF400000 		.4byte	0x40cf
 11102 3fc7 63000000 		.4byte	.LLST55
 11103 3fcb 39       		.uleb128 0x39
 11104 3fcc 6C130000 		.4byte	.LASF848
 11105 3fd0 01       		.byte	0x1
 11106 3fd1 6F01     		.2byte	0x16f
 11107 3fd3 1B3F0000 		.4byte	0x3f1b
 11108 3fd7 9A000000 		.4byte	.LLST56
 11109 3fdb 3A       		.uleb128 0x3a
 11110 3fdc 2E000000 		.4byte	.LBB61
 11111 3fe0 10000000 		.4byte	.LBE61-.LBB61
 11112 3fe4 F73F0000 		.4byte	0x3ff7
 11113 3fe8 3B       		.uleb128 0x3b
 11114 3fe9 6900     		.ascii	"i\000"
 11115 3feb 01       		.byte	0x1
 11116 3fec 7401     		.2byte	0x174
 11117 3fee 2C000000 		.4byte	0x2c
 11118 3ff2 CE000000 		.4byte	.LLST60
 11119 3ff6 00       		.byte	0
 11120 3ff7 3C       		.uleb128 0x3c
 11121 3ff8 B8000000 		.4byte	.Ldebug_ranges0+0xb8
 11122 3ffc 82400000 		.4byte	0x4082
 11123 4000 3B       		.uleb128 0x3b
 11124 4001 6900     		.ascii	"i\000"
 11125 4003 01       		.byte	0x1
 11126 4004 7801     		.2byte	0x178
 11127 4006 2C000000 		.4byte	0x2c
 11128 400a 12010000 		.4byte	.LLST57
 11129 400e 3D       		.uleb128 0x3d
 11130 400f D5400000 		.4byte	0x40d5
 11131 4013 D6000000 		.4byte	.LBB55
 11132 4017 4C000000 		.4byte	.LBE55-.LBB55
 11133 401b 01       		.byte	0x1
 11134 401c 8401     		.2byte	0x184
 11135 401e 5E400000 		.4byte	0x405e
 11136 4022 3E       		.uleb128 0x3e
 11137 4023 E6400000 		.4byte	0x40e6
 11138 4027 3F       		.uleb128 0x3f
 11139 4028 BE4C0000 		.4byte	0x4cbe
 11140 402c D6000000 		.4byte	.LBB56
 11141 4030 4C000000 		.4byte	.LBE56-.LBB56
 11142 4034 40       		.uleb128 0x40
 11143 4035 C74C0000 		.4byte	0x4cc7
 11144 4039 41       		.uleb128 0x41
 11145 403a FF400000 		.4byte	0x40ff
ARM GAS  /var/folders/qd/4mxf5pkd0zdf0b9dd1hp39180000gn/T//cc7TiL7h.s 			page 197


 11146 403e E8000000 		.4byte	.LBB57
 11147 4042 D8000000 		.4byte	.Ldebug_ranges0+0xd8
 11148 4046 01       		.byte	0x1
 11149 4047 6801     		.2byte	0x168
 11150 4049 42       		.uleb128 0x42
 11151 404a 1C410000 		.4byte	0x411c
 11152 404e 3C010000 		.4byte	.LLST58
 11153 4052 42       		.uleb128 0x42
 11154 4053 10410000 		.4byte	0x4110
 11155 4057 96010000 		.4byte	.LLST59
 11156 405b 00       		.byte	0
 11157 405c 00       		.byte	0
 11158 405d 00       		.byte	0
 11159 405e 43       		.uleb128 0x43
 11160 405f 64000000 		.4byte	.LVL343
 11161 4063 FF490000 		.4byte	0x49ff
 11162 4067 78400000 		.4byte	0x4078
 11163 406b 44       		.uleb128 0x44
 11164 406c 01       		.uleb128 0x1
 11165 406d 50       		.byte	0x50
 11166 406e 02       		.uleb128 0x2
 11167 406f 74       		.byte	0x74
 11168 4070 00       		.sleb128 0
 11169 4071 44       		.uleb128 0x44
 11170 4072 01       		.uleb128 0x1
 11171 4073 51       		.byte	0x51
 11172 4074 02       		.uleb128 0x2
 11173 4075 76       		.byte	0x76
 11174 4076 00       		.sleb128 0
 11175 4077 00       		.byte	0
 11176 4078 34       		.uleb128 0x34
 11177 4079 6C000000 		.4byte	.LVL344
 11178 407d 29410000 		.4byte	0x4129
 11179 4081 00       		.byte	0
 11180 4082 43       		.uleb128 0x43
 11181 4083 18000000 		.4byte	.LVL332
 11182 4087 074D0000 		.4byte	0x4d07
 11183 408b 98400000 		.4byte	0x4098
 11184 408f 44       		.uleb128 0x44
 11185 4090 01       		.uleb128 0x1
 11186 4091 50       		.byte	0x50
 11187 4092 04       		.uleb128 0x4
 11188 4093 77       		.byte	0x77
 11189 4094 00       		.sleb128 0
 11190 4095 33       		.byte	0x33
 11191 4096 24       		.byte	0x24
 11192 4097 00       		.byte	0
 11193 4098 43       		.uleb128 0x43
 11194 4099 28000000 		.4byte	.LVL334
 11195 409d 124D0000 		.4byte	0x4d12
 11196 40a1 B6400000 		.4byte	0x40b6
 11197 40a5 44       		.uleb128 0x44
 11198 40a6 01       		.uleb128 0x1
 11199 40a7 50       		.byte	0x50
 11200 40a8 0C       		.uleb128 0xc
 11201 40a9 31       		.byte	0x31
 11202 40aa 7A       		.byte	0x7a
ARM GAS  /var/folders/qd/4mxf5pkd0zdf0b9dd1hp39180000gn/T//cc7TiL7h.s 			page 198


 11203 40ab 00       		.sleb128 0
 11204 40ac 7A       		.byte	0x7a
 11205 40ad 00       		.sleb128 0
 11206 40ae 30       		.byte	0x30
 11207 40af 2E       		.byte	0x2e
 11208 40b0 28       		.byte	0x28
 11209 40b1 0100     		.2byte	0x1
 11210 40b3 16       		.byte	0x16
 11211 40b4 13       		.byte	0x13
 11212 40b5 00       		.byte	0
 11213 40b6 45       		.uleb128 0x45
 11214 40b7 B0000000 		.4byte	.LVL348
 11215 40bb 1D4D0000 		.4byte	0x4d1d
 11216 40bf 34       		.uleb128 0x34
 11217 40c0 6A010000 		.4byte	.LVL359
 11218 40c4 FE4C0000 		.4byte	0x4cfe
 11219 40c8 00       		.byte	0
 11220 40c9 05       		.uleb128 0x5
 11221 40ca 04       		.byte	0x4
 11222 40cb E3090000 		.4byte	0x9e3
 11223 40cf 05       		.uleb128 0x5
 11224 40d0 04       		.byte	0x4
 11225 40d1 960A0000 		.4byte	0xa96
 11226 40d5 46       		.uleb128 0x46
 11227 40d6 630B0000 		.4byte	.LASF853
 11228 40da 01       		.byte	0x1
 11229 40db 6601     		.2byte	0x166
 11230 40dd 7F0A0000 		.4byte	0xa7f
 11231 40e1 01       		.byte	0x1
 11232 40e2 FF400000 		.4byte	0x40ff
 11233 40e6 47       		.uleb128 0x47
 11234 40e7 7A040000 		.4byte	.LASF855
 11235 40eb 01       		.byte	0x1
 11236 40ec 6601     		.2byte	0x166
 11237 40ee B7090000 		.4byte	0x9b7
 11238 40f2 48       		.uleb128 0x48
 11239 40f3 49       		.uleb128 0x49
 11240 40f4 6900     		.ascii	"i\000"
 11241 40f6 01       		.byte	0x1
 11242 40f7 6701     		.2byte	0x167
 11243 40f9 2C000000 		.4byte	0x2c
 11244 40fd 00       		.byte	0
 11245 40fe 00       		.byte	0
 11246 40ff 46       		.uleb128 0x46
 11247 4100 08040000 		.4byte	.LASF854
 11248 4104 01       		.byte	0x1
 11249 4105 6001     		.2byte	0x160
 11250 4107 7F0A0000 		.4byte	0xa7f
 11251 410b 01       		.byte	0x1
 11252 410c 29410000 		.4byte	0x4129
 11253 4110 47       		.uleb128 0x47
 11254 4111 6C130000 		.4byte	.LASF848
 11255 4115 01       		.byte	0x1
 11256 4116 6001     		.2byte	0x160
 11257 4118 B7090000 		.4byte	0x9b7
 11258 411c 47       		.uleb128 0x47
 11259 411d BA160000 		.4byte	.LASF856
ARM GAS  /var/folders/qd/4mxf5pkd0zdf0b9dd1hp39180000gn/T//cc7TiL7h.s 			page 199


 11260 4121 01       		.byte	0x1
 11261 4122 6001     		.2byte	0x160
 11262 4124 B7090000 		.4byte	0x9b7
 11263 4128 00       		.byte	0
 11264 4129 4A       		.uleb128 0x4a
 11265 412a 73040000 		.4byte	.LASF858
 11266 412e 01       		.byte	0x1
 11267 412f 5901     		.2byte	0x159
 11268 4131 7F0A0000 		.4byte	0xa7f
 11269 4135 00000000 		.4byte	.LFB275
 11270 4139 5C000000 		.4byte	.LFE275-.LFB275
 11271 413d 01       		.uleb128 0x1
 11272 413e 9C       		.byte	0x9c
 11273 413f 8C410000 		.4byte	0x418c
 11274 4143 36       		.uleb128 0x36
 11275 4144 6C130000 		.4byte	.LASF848
 11276 4148 01       		.byte	0x1
 11277 4149 5901     		.2byte	0x159
 11278 414b B7090000 		.4byte	0x9b7
 11279 414f 02       		.uleb128 0x2
 11280 4150 91       		.byte	0x91
 11281 4151 68       		.sleb128 -24
 11282 4152 4B       		.uleb128 0x4b
 11283 4153 CA410000 		.4byte	0x41ca
 11284 4157 0E000000 		.4byte	.LBB41
 11285 415b 58000000 		.4byte	.Ldebug_ranges0+0x58
 11286 415f 01       		.byte	0x1
 11287 4160 5A01     		.2byte	0x15a
 11288 4162 82410000 		.4byte	0x4182
 11289 4166 42       		.uleb128 0x42
 11290 4167 E7410000 		.4byte	0x41e7
 11291 416b BE010000 		.4byte	.LLST45
 11292 416f 42       		.uleb128 0x42
 11293 4170 DB410000 		.4byte	0x41db
 11294 4174 D6010000 		.4byte	.LLST46
 11295 4178 34       		.uleb128 0x34
 11296 4179 32000000 		.4byte	.LVL306
 11297 417d 284D0000 		.4byte	0x4d28
 11298 4181 00       		.byte	0
 11299 4182 34       		.uleb128 0x34
 11300 4183 52000000 		.4byte	.LVL310
 11301 4187 FE4C0000 		.4byte	0x4cfe
 11302 418b 00       		.byte	0
 11303 418c 37       		.uleb128 0x37
 11304 418d 27120000 		.4byte	.LASF860
 11305 4191 01       		.byte	0x1
 11306 4192 5501     		.2byte	0x155
 11307 4194 00000000 		.4byte	.LFB274
 11308 4198 2C000000 		.4byte	.LFE274-.LFB274
 11309 419c 01       		.uleb128 0x1
 11310 419d 9C       		.byte	0x9c
 11311 419e CA410000 		.4byte	0x41ca
 11312 41a2 36       		.uleb128 0x36
 11313 41a3 61200000 		.4byte	.LASF861
 11314 41a7 01       		.byte	0x1
 11315 41a8 5501     		.2byte	0x155
 11316 41aa B7090000 		.4byte	0x9b7
ARM GAS  /var/folders/qd/4mxf5pkd0zdf0b9dd1hp39180000gn/T//cc7TiL7h.s 			page 200


 11317 41ae 02       		.uleb128 0x2
 11318 41af 91       		.byte	0x91
 11319 41b0 58       		.sleb128 -40
 11320 41b1 36       		.uleb128 0x36
 11321 41b2 68200000 		.4byte	.LASF862
 11322 41b6 01       		.byte	0x1
 11323 41b7 5501     		.2byte	0x155
 11324 41b9 B7090000 		.4byte	0x9b7
 11325 41bd 02       		.uleb128 0x2
 11326 41be 91       		.byte	0x91
 11327 41bf 50       		.sleb128 -48
 11328 41c0 34       		.uleb128 0x34
 11329 41c1 26000000 		.4byte	.LVL303
 11330 41c5 FE4C0000 		.4byte	0x4cfe
 11331 41c9 00       		.byte	0
 11332 41ca 46       		.uleb128 0x46
 11333 41cb 33240000 		.4byte	.LASF863
 11334 41cf 01       		.byte	0x1
 11335 41d0 5101     		.2byte	0x151
 11336 41d2 2C000000 		.4byte	0x2c
 11337 41d6 01       		.byte	0x1
 11338 41d7 F4410000 		.4byte	0x41f4
 11339 41db 47       		.uleb128 0x47
 11340 41dc 61200000 		.4byte	.LASF861
 11341 41e0 01       		.byte	0x1
 11342 41e1 5101     		.2byte	0x151
 11343 41e3 B7090000 		.4byte	0x9b7
 11344 41e7 47       		.uleb128 0x47
 11345 41e8 68200000 		.4byte	.LASF862
 11346 41ec 01       		.byte	0x1
 11347 41ed 5101     		.2byte	0x151
 11348 41ef B7090000 		.4byte	0x9b7
 11349 41f3 00       		.byte	0
 11350 41f4 35       		.uleb128 0x35
 11351 41f5 43250000 		.4byte	.LASF864
 11352 41f9 01       		.byte	0x1
 11353 41fa 4D01     		.2byte	0x14d
 11354 41fc 8A090000 		.4byte	0x98a
 11355 4200 00000000 		.4byte	.LFB272
 11356 4204 30000000 		.4byte	.LFE272-.LFB272
 11357 4208 01       		.uleb128 0x1
 11358 4209 9C       		.byte	0x9c
 11359 420a 18420000 		.4byte	0x4218
 11360 420e 34       		.uleb128 0x34
 11361 420f 26000000 		.4byte	.LVL295
 11362 4213 FE4C0000 		.4byte	0x4cfe
 11363 4217 00       		.byte	0
 11364 4218 4A       		.uleb128 0x4a
 11365 4219 370D0000 		.4byte	.LASF865
 11366 421d 01       		.byte	0x1
 11367 421e 4001     		.2byte	0x140
 11368 4220 25000000 		.4byte	0x25
 11369 4224 00000000 		.4byte	.LFB271
 11370 4228 F4000000 		.4byte	.LFE271-.LFB271
 11371 422c 01       		.uleb128 0x1
 11372 422d 9C       		.byte	0x9c
 11373 422e A2420000 		.4byte	0x42a2
ARM GAS  /var/folders/qd/4mxf5pkd0zdf0b9dd1hp39180000gn/T//cc7TiL7h.s 			page 201


 11374 4232 38       		.uleb128 0x38
 11375 4233 B0010000 		.4byte	.LASF866
 11376 4237 01       		.byte	0x1
 11377 4238 4001     		.2byte	0x140
 11378 423a F4080000 		.4byte	0x8f4
 11379 423e 12020000 		.4byte	.LLST41
 11380 4242 39       		.uleb128 0x39
 11381 4243 8D1D0000 		.4byte	.LASF867
 11382 4247 01       		.byte	0x1
 11383 4248 4101     		.2byte	0x141
 11384 424a 25000000 		.4byte	0x25
 11385 424e 3C020000 		.4byte	.LLST42
 11386 4252 4C       		.uleb128 0x4c
 11387 4253 3A1A0000 		.4byte	.LASF868
 11388 4257 01       		.byte	0x1
 11389 4258 4601     		.2byte	0x146
 11390 425a A2420000 		.4byte	0x42a2
 11391 425e 03       		.uleb128 0x3
 11392 425f 91       		.byte	0x91
 11393 4260 A87F     		.sleb128 -88
 11394 4262 43       		.uleb128 0x43
 11395 4263 A8000000 		.4byte	.LVL288
 11396 4267 334D0000 		.4byte	0x4d33
 11397 426b 7F420000 		.4byte	0x427f
 11398 426f 44       		.uleb128 0x44
 11399 4270 01       		.uleb128 0x1
 11400 4271 50       		.byte	0x50
 11401 4272 02       		.uleb128 0x2
 11402 4273 7D       		.byte	0x7d
 11403 4274 00       		.sleb128 0
 11404 4275 44       		.uleb128 0x44
 11405 4276 01       		.uleb128 0x1
 11406 4277 51       		.byte	0x51
 11407 4278 05       		.uleb128 0x5
 11408 4279 03       		.byte	0x3
 11409 427a 00000000 		.4byte	.LC4
 11410 427e 00       		.byte	0
 11411 427f 43       		.uleb128 0x43
 11412 4280 B0000000 		.4byte	.LVL289
 11413 4284 3E4D0000 		.4byte	0x4d3e
 11414 4288 98420000 		.4byte	0x4298
 11415 428c 44       		.uleb128 0x44
 11416 428d 01       		.uleb128 0x1
 11417 428e 50       		.byte	0x50
 11418 428f 02       		.uleb128 0x2
 11419 4290 7D       		.byte	0x7d
 11420 4291 00       		.sleb128 0
 11421 4292 44       		.uleb128 0x44
 11422 4293 01       		.uleb128 0x1
 11423 4294 51       		.byte	0x51
 11424 4295 01       		.uleb128 0x1
 11425 4296 33       		.byte	0x33
 11426 4297 00       		.byte	0
 11427 4298 34       		.uleb128 0x34
 11428 4299 C8000000 		.4byte	.LVL291
 11429 429d FE4C0000 		.4byte	0x4cfe
 11430 42a1 00       		.byte	0
ARM GAS  /var/folders/qd/4mxf5pkd0zdf0b9dd1hp39180000gn/T//cc7TiL7h.s 			page 202


 11431 42a2 0A       		.uleb128 0xa
 11432 42a3 6C010000 		.4byte	0x16c
 11433 42a7 B2420000 		.4byte	0x42b2
 11434 42ab 0B       		.uleb128 0xb
 11435 42ac 3E000000 		.4byte	0x3e
 11436 42b0 31       		.byte	0x31
 11437 42b1 00       		.byte	0
 11438 42b2 4A       		.uleb128 0x4a
 11439 42b3 FF000000 		.4byte	.LASF869
 11440 42b7 01       		.byte	0x1
 11441 42b8 2C01     		.2byte	0x12c
 11442 42ba 1F0A0000 		.4byte	0xa1f
 11443 42be 00000000 		.4byte	.LFB270
 11444 42c2 A4010000 		.4byte	.LFE270-.LFB270
 11445 42c6 01       		.uleb128 0x1
 11446 42c7 9C       		.byte	0x9c
 11447 42c8 C8430000 		.4byte	0x43c8
 11448 42cc 38       		.uleb128 0x38
 11449 42cd 03140000 		.4byte	.LASF870
 11450 42d1 01       		.byte	0x1
 11451 42d2 2C01     		.2byte	0x12c
 11452 42d4 C8430000 		.4byte	0x43c8
 11453 42d8 74020000 		.4byte	.LLST37
 11454 42dc 39       		.uleb128 0x39
 11455 42dd DE130000 		.4byte	.LASF871
 11456 42e1 01       		.byte	0x1
 11457 42e2 2D01     		.2byte	0x12d
 11458 42e4 1F0A0000 		.4byte	0xa1f
 11459 42e8 A0020000 		.4byte	.LLST38
 11460 42ec 4C       		.uleb128 0x4c
 11461 42ed 12210000 		.4byte	.LASF872
 11462 42f1 01       		.byte	0x1
 11463 42f2 2F01     		.2byte	0x12f
 11464 42f4 2C000000 		.4byte	0x2c
 11465 42f8 01       		.uleb128 0x1
 11466 42f9 57       		.byte	0x57
 11467 42fa 39       		.uleb128 0x39
 11468 42fb DB090000 		.4byte	.LASF873
 11469 42ff 01       		.byte	0x1
 11470 4300 3001     		.2byte	0x130
 11471 4302 2C000000 		.4byte	0x2c
 11472 4306 CE030000 		.4byte	.LLST39
 11473 430a 39       		.uleb128 0x39
 11474 430b EB200000 		.4byte	.LASF874
 11475 430f 01       		.byte	0x1
 11476 4310 3101     		.2byte	0x131
 11477 4312 25000000 		.4byte	0x25
 11478 4316 E1030000 		.4byte	.LLST40
 11479 431a 4C       		.uleb128 0x4c
 11480 431b 3A1A0000 		.4byte	.LASF868
 11481 431f 01       		.byte	0x1
 11482 4320 3901     		.2byte	0x139
 11483 4322 CE430000 		.4byte	0x43ce
 11484 4326 03       		.uleb128 0x3
 11485 4327 91       		.byte	0x91
 11486 4328 F07E     		.sleb128 -144
 11487 432a 4B       		.uleb128 0x4b
ARM GAS  /var/folders/qd/4mxf5pkd0zdf0b9dd1hp39180000gn/T//cc7TiL7h.s 			page 203


 11488 432b E04B0000 		.4byte	0x4be0
 11489 432f 84000000 		.4byte	.LBB35
 11490 4333 40000000 		.4byte	.Ldebug_ranges0+0x40
 11491 4337 01       		.byte	0x1
 11492 4338 3601     		.2byte	0x136
 11493 433a 4B430000 		.4byte	0x434b
 11494 433e 4D       		.uleb128 0x4d
 11495 433f EC4B0000 		.4byte	0x4bec
 11496 4343 06       		.uleb128 0x6
 11497 4344 F2       		.byte	0xf2
 11498 4345 DC420000 		.4byte	.Ldebug_info0+17116
 11499 4349 08       		.sleb128 8
 11500 434a 00       		.byte	0
 11501 434b 3D       		.uleb128 0x3d
 11502 434c E04B0000 		.4byte	0x4be0
 11503 4350 E8000000 		.4byte	.LBB39
 11504 4354 62000000 		.4byte	.LBE39-.LBB39
 11505 4358 01       		.byte	0x1
 11506 4359 3701     		.2byte	0x137
 11507 435b 65430000 		.4byte	0x4365
 11508 435f 3E       		.uleb128 0x3e
 11509 4360 EC4B0000 		.4byte	0x4bec
 11510 4364 00       		.byte	0
 11511 4365 34       		.uleb128 0x34
 11512 4366 2E000000 		.4byte	.LVL233
 11513 436a 494D0000 		.4byte	0x4d49
 11514 436e 34       		.uleb128 0x34
 11515 436f 7C000000 		.4byte	.LVL244
 11516 4373 284D0000 		.4byte	0x4d28
 11517 4377 43       		.uleb128 0x43
 11518 4378 5E010000 		.4byte	.LVL268
 11519 437c 334D0000 		.4byte	0x4d33
 11520 4380 A4430000 		.4byte	0x43a4
 11521 4384 44       		.uleb128 0x44
 11522 4385 01       		.uleb128 0x1
 11523 4386 50       		.byte	0x50
 11524 4387 03       		.uleb128 0x3
 11525 4388 91       		.byte	0x91
 11526 4389 F07E     		.sleb128 -144
 11527 438b 44       		.uleb128 0x44
 11528 438c 01       		.uleb128 0x1
 11529 438d 51       		.byte	0x51
 11530 438e 05       		.uleb128 0x5
 11531 438f 03       		.byte	0x3
 11532 4390 00000000 		.4byte	.LC3
 11533 4394 44       		.uleb128 0x44
 11534 4395 02       		.uleb128 0x2
 11535 4396 7D       		.byte	0x7d
 11536 4397 00       		.sleb128 0
 11537 4398 02       		.uleb128 0x2
 11538 4399 7B       		.byte	0x7b
 11539 439a 00       		.sleb128 0
 11540 439b 44       		.uleb128 0x44
 11541 439c 02       		.uleb128 0x2
 11542 439d 7D       		.byte	0x7d
 11543 439e 08       		.sleb128 8
 11544 439f 03       		.uleb128 0x3
ARM GAS  /var/folders/qd/4mxf5pkd0zdf0b9dd1hp39180000gn/T//cc7TiL7h.s 			page 204


 11545 43a0 F5       		.byte	0xf5
 11546 43a1 08       		.uleb128 0x8
 11547 43a2 25       		.uleb128 0x25
 11548 43a3 00       		.byte	0
 11549 43a4 43       		.uleb128 0x43
 11550 43a5 66010000 		.4byte	.LVL269
 11551 43a9 3E4D0000 		.4byte	0x4d3e
 11552 43ad BE430000 		.4byte	0x43be
 11553 43b1 44       		.uleb128 0x44
 11554 43b2 01       		.uleb128 0x1
 11555 43b3 50       		.byte	0x50
 11556 43b4 03       		.uleb128 0x3
 11557 43b5 91       		.byte	0x91
 11558 43b6 F07E     		.sleb128 -144
 11559 43b8 44       		.uleb128 0x44
 11560 43b9 01       		.uleb128 0x1
 11561 43ba 51       		.byte	0x51
 11562 43bb 01       		.uleb128 0x1
 11563 43bc 33       		.byte	0x33
 11564 43bd 00       		.byte	0
 11565 43be 34       		.uleb128 0x34
 11566 43bf 88010000 		.4byte	.LVL273
 11567 43c3 FE4C0000 		.4byte	0x4cfe
 11568 43c7 00       		.byte	0
 11569 43c8 05       		.uleb128 0x5
 11570 43c9 04       		.byte	0x4
 11571 43ca 95090000 		.4byte	0x995
 11572 43ce 0A       		.uleb128 0xa
 11573 43cf 6C010000 		.4byte	0x16c
 11574 43d3 DE430000 		.4byte	0x43de
 11575 43d7 0B       		.uleb128 0xb
 11576 43d8 3E000000 		.4byte	0x3e
 11577 43dc 63       		.byte	0x63
 11578 43dd 00       		.byte	0
 11579 43de 37       		.uleb128 0x37
 11580 43df 6E1E0000 		.4byte	.LASF875
 11581 43e3 01       		.byte	0x1
 11582 43e4 2101     		.2byte	0x121
 11583 43e6 00000000 		.4byte	.LFB269
 11584 43ea 6C000000 		.4byte	.LFE269-.LFB269
 11585 43ee 01       		.uleb128 0x1
 11586 43ef 9C       		.byte	0x9c
 11587 43f0 53440000 		.4byte	0x4453
 11588 43f4 36       		.uleb128 0x36
 11589 43f5 5B0C0000 		.4byte	.LASF142
 11590 43f9 01       		.byte	0x1
 11591 43fa 2101     		.2byte	0x121
 11592 43fc E3090000 		.4byte	0x9e3
 11593 4400 03       		.uleb128 0x3
 11594 4401 91       		.byte	0x91
 11595 4402 B07F     		.sleb128 -80
 11596 4404 36       		.uleb128 0x36
 11597 4405 AF000000 		.4byte	.LASF876
 11598 4409 01       		.byte	0x1
 11599 440a 2101     		.2byte	0x121
 11600 440c 2C000000 		.4byte	0x2c
 11601 4410 02       		.uleb128 0x2
ARM GAS  /var/folders/qd/4mxf5pkd0zdf0b9dd1hp39180000gn/T//cc7TiL7h.s 			page 205


 11602 4411 91       		.byte	0x91
 11603 4412 08       		.sleb128 8
 11604 4413 43       		.uleb128 0x43
 11605 4414 46000000 		.4byte	.LVL226
 11606 4418 FF490000 		.4byte	0x49ff
 11607 441c 2E440000 		.4byte	0x442e
 11608 4420 44       		.uleb128 0x44
 11609 4421 01       		.uleb128 0x1
 11610 4422 50       		.byte	0x50
 11611 4423 03       		.uleb128 0x3
 11612 4424 91       		.byte	0x91
 11613 4425 B47F     		.sleb128 -76
 11614 4427 44       		.uleb128 0x44
 11615 4428 01       		.uleb128 0x1
 11616 4429 51       		.byte	0x51
 11617 442a 02       		.uleb128 0x2
 11618 442b 7D       		.byte	0x7d
 11619 442c 00       		.sleb128 0
 11620 442d 00       		.byte	0
 11621 442e 43       		.uleb128 0x43
 11622 442f 56000000 		.4byte	.LVL227
 11623 4433 FF490000 		.4byte	0x49ff
 11624 4437 49440000 		.4byte	0x4449
 11625 443b 44       		.uleb128 0x44
 11626 443c 01       		.uleb128 0x1
 11627 443d 50       		.byte	0x50
 11628 443e 03       		.uleb128 0x3
 11629 443f 91       		.byte	0x91
 11630 4440 AC7F     		.sleb128 -84
 11631 4442 44       		.uleb128 0x44
 11632 4443 01       		.uleb128 0x1
 11633 4444 51       		.byte	0x51
 11634 4445 02       		.uleb128 0x2
 11635 4446 7D       		.byte	0x7d
 11636 4447 00       		.sleb128 0
 11637 4448 00       		.byte	0
 11638 4449 34       		.uleb128 0x34
 11639 444a 62000000 		.4byte	.LVL228
 11640 444e FE4C0000 		.4byte	0x4cfe
 11641 4452 00       		.byte	0
 11642 4453 4E       		.uleb128 0x4e
 11643 4454 52140000 		.4byte	.LASF877
 11644 4458 01       		.byte	0x1
 11645 4459 9C       		.byte	0x9c
 11646 445a 7F0A0000 		.4byte	0xa7f
 11647 445e 00000000 		.4byte	.LFB268
 11648 4462 C0020000 		.4byte	.LFE268-.LFB268
 11649 4466 01       		.uleb128 0x1
 11650 4467 9C       		.byte	0x9c
 11651 4468 65470000 		.4byte	0x4765
 11652 446c 4F       		.uleb128 0x4f
 11653 446d 8F000000 		.4byte	.LASF849
 11654 4471 01       		.byte	0x1
 11655 4472 9C       		.byte	0x9c
 11656 4473 C9400000 		.4byte	0x40c9
 11657 4477 F9030000 		.4byte	.LLST24
 11658 447b 4F       		.uleb128 0x4f
ARM GAS  /var/folders/qd/4mxf5pkd0zdf0b9dd1hp39180000gn/T//cc7TiL7h.s 			page 206


 11659 447c F90A0000 		.4byte	.LASF878
 11660 4480 01       		.byte	0x1
 11661 4481 9C       		.byte	0x9c
 11662 4482 2C000000 		.4byte	0x2c
 11663 4486 33040000 		.4byte	.LLST25
 11664 448a 50       		.uleb128 0x50
 11665 448b 6900     		.ascii	"i\000"
 11666 448d 01       		.byte	0x1
 11667 448e 9D       		.byte	0x9d
 11668 448f 2C000000 		.4byte	0x2c
 11669 4493 54040000 		.4byte	.LLST26
 11670 4497 51       		.uleb128 0x51
 11671 4498 01150000 		.4byte	.LASF879
 11672 449c 01       		.byte	0x1
 11673 449d 9E       		.byte	0x9e
 11674 449e 2C000000 		.4byte	0x2c
 11675 44a2 97040000 		.4byte	.LLST27
 11676 44a6 51       		.uleb128 0x51
 11677 44a7 66040000 		.4byte	.LASF880
 11678 44ab 01       		.byte	0x1
 11679 44ac 9F       		.byte	0x9f
 11680 44ad 2C000000 		.4byte	0x2c
 11681 44b1 43050000 		.4byte	.LLST28
 11682 44b5 2A       		.uleb128 0x2a
 11683 44b6 07       		.byte	0x7
 11684 44b7 01       		.byte	0x1
 11685 44b8 65000000 		.4byte	0x65
 11686 44bc 01       		.byte	0x1
 11687 44bd A1       		.byte	0xa1
 11688 44be D5440000 		.4byte	0x44d5
 11689 44c2 23       		.uleb128 0x23
 11690 44c3 81120000 		.4byte	.LASF881
 11691 44c7 00       		.byte	0
 11692 44c8 23       		.uleb128 0x23
 11693 44c9 8B240000 		.4byte	.LASF882
 11694 44cd 01       		.byte	0x1
 11695 44ce 23       		.uleb128 0x23
 11696 44cf 55010000 		.4byte	.LASF883
 11697 44d3 02       		.byte	0x2
 11698 44d4 00       		.byte	0
 11699 44d5 04       		.uleb128 0x4
 11700 44d6 AD0E0000 		.4byte	.LASF884
 11701 44da 01       		.byte	0x1
 11702 44db A5       		.byte	0xa5
 11703 44dc B5440000 		.4byte	0x44b5
 11704 44e0 0C       		.uleb128 0xc
 11705 44e1 88       		.byte	0x88
 11706 44e2 01       		.byte	0x1
 11707 44e3 A7       		.byte	0xa7
 11708 44e4 0D450000 		.4byte	0x450d
 11709 44e8 0D       		.uleb128 0xd
 11710 44e9 8F000000 		.4byte	.LASF849
 11711 44ed 01       		.byte	0x1
 11712 44ee A8       		.byte	0xa8
 11713 44ef 65470000 		.4byte	0x4765
 11714 44f3 00       		.byte	0
 11715 44f4 0D       		.uleb128 0xd
ARM GAS  /var/folders/qd/4mxf5pkd0zdf0b9dd1hp39180000gn/T//cc7TiL7h.s 			page 207


 11716 44f5 4D090000 		.4byte	.LASF885
 11717 44f9 01       		.byte	0x1
 11718 44fa A9       		.byte	0xa9
 11719 44fb D5440000 		.4byte	0x44d5
 11720 44ff 80       		.byte	0x80
 11721 4500 0D       		.uleb128 0xd
 11722 4501 54050000 		.4byte	.LASF886
 11723 4505 01       		.byte	0x1
 11724 4506 AA       		.byte	0xaa
 11725 4507 2C000000 		.4byte	0x2c
 11726 450b 84       		.byte	0x84
 11727 450c 00       		.byte	0
 11728 450d 04       		.uleb128 0x4
 11729 450e B00D0000 		.4byte	.LASF887
 11730 4512 01       		.byte	0x1
 11731 4513 AB       		.byte	0xab
 11732 4514 E0440000 		.4byte	0x44e0
 11733 4518 51       		.uleb128 0x51
 11734 4519 941B0000 		.4byte	.LASF888
 11735 451d 01       		.byte	0x1
 11736 451e AD       		.byte	0xad
 11737 451f 27450000 		.4byte	0x4527
 11738 4523 6D050000 		.4byte	.LLST29
 11739 4527 05       		.uleb128 0x5
 11740 4528 04       		.byte	0x4
 11741 4529 0D450000 		.4byte	0x450d
 11742 452d 50       		.uleb128 0x50
 11743 452e 6A00     		.ascii	"j\000"
 11744 4530 01       		.byte	0x1
 11745 4531 ED       		.byte	0xed
 11746 4532 2C000000 		.4byte	0x2c
 11747 4536 CE050000 		.4byte	.LLST30
 11748 453a 50       		.uleb128 0x50
 11749 453b 6B00     		.ascii	"k\000"
 11750 453d 01       		.byte	0x1
 11751 453e ED       		.byte	0xed
 11752 453f 2C000000 		.4byte	0x2c
 11753 4543 ED050000 		.4byte	.LLST31
 11754 4547 50       		.uleb128 0x50
 11755 4548 6C00     		.ascii	"l\000"
 11756 454a 01       		.byte	0x1
 11757 454b ED       		.byte	0xed
 11758 454c 2C000000 		.4byte	0x2c
 11759 4550 1B060000 		.4byte	.LLST32
 11760 4554 51       		.uleb128 0x51
 11761 4555 B4170000 		.4byte	.LASF889
 11762 4559 01       		.byte	0x1
 11763 455a EE       		.byte	0xee
 11764 455b 1B3F0000 		.4byte	0x3f1b
 11765 455f 52060000 		.4byte	.LLST33
 11766 4563 51       		.uleb128 0x51
 11767 4564 BA170000 		.4byte	.LASF890
 11768 4568 01       		.byte	0x1
 11769 4569 EF       		.byte	0xef
 11770 456a 1B3F0000 		.4byte	0x3f1b
 11771 456e 92060000 		.4byte	.LLST34
 11772 4572 4C       		.uleb128 0x4c
ARM GAS  /var/folders/qd/4mxf5pkd0zdf0b9dd1hp39180000gn/T//cc7TiL7h.s 			page 208


 11773 4573 A5240000 		.4byte	.LASF891
 11774 4577 01       		.byte	0x1
 11775 4578 0701     		.2byte	0x107
 11776 457a 0F0A0000 		.4byte	0xa0f
 11777 457e 03       		.uleb128 0x3
 11778 457f 91       		.byte	0x91
 11779 4580 B07F     		.sleb128 -80
 11780 4582 4C       		.uleb128 0x4c
 11781 4583 33180000 		.4byte	.LASF892
 11782 4587 01       		.byte	0x1
 11783 4588 0701     		.2byte	0x107
 11784 458a 0F0A0000 		.4byte	0xa0f
 11785 458e 02       		.uleb128 0x2
 11786 458f 91       		.byte	0x91
 11787 4590 40       		.sleb128 -64
 11788 4591 39       		.uleb128 0x39
 11789 4592 A2030000 		.4byte	.LASF893
 11790 4596 01       		.byte	0x1
 11791 4597 1201     		.2byte	0x112
 11792 4599 B7090000 		.4byte	0x9b7
 11793 459d D2060000 		.4byte	.LLST35
 11794 45a1 39       		.uleb128 0x39
 11795 45a2 29180000 		.4byte	.LASF894
 11796 45a6 01       		.byte	0x1
 11797 45a7 1601     		.2byte	0x116
 11798 45a9 25000000 		.4byte	0x25
 11799 45ad F8060000 		.4byte	.LLST36
 11800 45b1 43       		.uleb128 0x43
 11801 45b2 16000000 		.4byte	.LVL153
 11802 45b6 074D0000 		.4byte	0x4d07
 11803 45ba C6450000 		.4byte	0x45c6
 11804 45be 44       		.uleb128 0x44
 11805 45bf 01       		.uleb128 0x1
 11806 45c0 50       		.byte	0x50
 11807 45c1 03       		.uleb128 0x3
 11808 45c2 0A       		.byte	0xa
 11809 45c3 2002     		.2byte	0x220
 11810 45c5 00       		.byte	0
 11811 45c6 43       		.uleb128 0x43
 11812 45c7 22000000 		.4byte	.LVL155
 11813 45cb 124D0000 		.4byte	0x4d12
 11814 45cf E4450000 		.4byte	0x45e4
 11815 45d3 44       		.uleb128 0x44
 11816 45d4 01       		.uleb128 0x1
 11817 45d5 50       		.byte	0x50
 11818 45d6 0C       		.uleb128 0xc
 11819 45d7 31       		.byte	0x31
 11820 45d8 74       		.byte	0x74
 11821 45d9 00       		.sleb128 0
 11822 45da 74       		.byte	0x74
 11823 45db 00       		.sleb128 0
 11824 45dc 30       		.byte	0x30
 11825 45dd 2E       		.byte	0x2e
 11826 45de 28       		.byte	0x28
 11827 45df 0100     		.2byte	0x1
 11828 45e1 16       		.byte	0x16
 11829 45e2 13       		.byte	0x13
ARM GAS  /var/folders/qd/4mxf5pkd0zdf0b9dd1hp39180000gn/T//cc7TiL7h.s 			page 209


 11830 45e3 00       		.byte	0
 11831 45e4 43       		.uleb128 0x43
 11832 45e5 28010000 		.4byte	.LVL178
 11833 45e9 074D0000 		.4byte	0x4d07
 11834 45ed F7450000 		.4byte	0x45f7
 11835 45f1 44       		.uleb128 0x44
 11836 45f2 01       		.uleb128 0x1
 11837 45f3 50       		.byte	0x50
 11838 45f4 01       		.uleb128 0x1
 11839 45f5 38       		.byte	0x38
 11840 45f6 00       		.byte	0
 11841 45f7 43       		.uleb128 0x43
 11842 45f8 30010000 		.4byte	.LVL181
 11843 45fc 074D0000 		.4byte	0x4d07
 11844 4600 0A460000 		.4byte	0x460a
 11845 4604 44       		.uleb128 0x44
 11846 4605 01       		.uleb128 0x1
 11847 4606 50       		.byte	0x50
 11848 4607 01       		.uleb128 0x1
 11849 4608 38       		.byte	0x38
 11850 4609 00       		.byte	0
 11851 460a 43       		.uleb128 0x43
 11852 460b 60010000 		.4byte	.LVL185
 11853 460f 544D0000 		.4byte	0x4d54
 11854 4613 24460000 		.4byte	0x4624
 11855 4617 44       		.uleb128 0x44
 11856 4618 01       		.uleb128 0x1
 11857 4619 50       		.byte	0x50
 11858 461a 02       		.uleb128 0x2
 11859 461b 7A       		.byte	0x7a
 11860 461c 00       		.sleb128 0
 11861 461d 44       		.uleb128 0x44
 11862 461e 01       		.uleb128 0x1
 11863 461f 51       		.byte	0x51
 11864 4620 02       		.uleb128 0x2
 11865 4621 75       		.byte	0x75
 11866 4622 00       		.sleb128 0
 11867 4623 00       		.byte	0
 11868 4624 43       		.uleb128 0x43
 11869 4625 6C010000 		.4byte	.LVL187
 11870 4629 124D0000 		.4byte	0x4d12
 11871 462d 42460000 		.4byte	0x4642
 11872 4631 44       		.uleb128 0x44
 11873 4632 01       		.uleb128 0x1
 11874 4633 50       		.byte	0x50
 11875 4634 0C       		.uleb128 0xc
 11876 4635 31       		.byte	0x31
 11877 4636 7A       		.byte	0x7a
 11878 4637 00       		.sleb128 0
 11879 4638 7A       		.byte	0x7a
 11880 4639 00       		.sleb128 0
 11881 463a 30       		.byte	0x30
 11882 463b 2E       		.byte	0x2e
 11883 463c 28       		.byte	0x28
 11884 463d 0100     		.2byte	0x1
 11885 463f 16       		.byte	0x16
 11886 4640 13       		.byte	0x13
ARM GAS  /var/folders/qd/4mxf5pkd0zdf0b9dd1hp39180000gn/T//cc7TiL7h.s 			page 210


 11887 4641 00       		.byte	0
 11888 4642 43       		.uleb128 0x43
 11889 4643 74010000 		.4byte	.LVL188
 11890 4647 FF490000 		.4byte	0x49ff
 11891 464b 5C460000 		.4byte	0x465c
 11892 464f 44       		.uleb128 0x44
 11893 4650 01       		.uleb128 0x1
 11894 4651 50       		.byte	0x50
 11895 4652 02       		.uleb128 0x2
 11896 4653 76       		.byte	0x76
 11897 4654 00       		.sleb128 0
 11898 4655 44       		.uleb128 0x44
 11899 4656 01       		.uleb128 0x1
 11900 4657 51       		.byte	0x51
 11901 4658 02       		.uleb128 0x2
 11902 4659 77       		.byte	0x77
 11903 465a 00       		.sleb128 0
 11904 465b 00       		.byte	0
 11905 465c 43       		.uleb128 0x43
 11906 465d A2010000 		.4byte	.LVL193
 11907 4661 544D0000 		.4byte	0x4d54
 11908 4665 76460000 		.4byte	0x4676
 11909 4669 44       		.uleb128 0x44
 11910 466a 01       		.uleb128 0x1
 11911 466b 50       		.byte	0x50
 11912 466c 02       		.uleb128 0x2
 11913 466d 7B       		.byte	0x7b
 11914 466e 00       		.sleb128 0
 11915 466f 44       		.uleb128 0x44
 11916 4670 01       		.uleb128 0x1
 11917 4671 51       		.byte	0x51
 11918 4672 02       		.uleb128 0x2
 11919 4673 75       		.byte	0x75
 11920 4674 00       		.sleb128 0
 11921 4675 00       		.byte	0
 11922 4676 43       		.uleb128 0x43
 11923 4677 AE010000 		.4byte	.LVL195
 11924 467b 124D0000 		.4byte	0x4d12
 11925 467f 94460000 		.4byte	0x4694
 11926 4683 44       		.uleb128 0x44
 11927 4684 01       		.uleb128 0x1
 11928 4685 50       		.byte	0x50
 11929 4686 0C       		.uleb128 0xc
 11930 4687 31       		.byte	0x31
 11931 4688 7B       		.byte	0x7b
 11932 4689 00       		.sleb128 0
 11933 468a 7B       		.byte	0x7b
 11934 468b 00       		.sleb128 0
 11935 468c 30       		.byte	0x30
 11936 468d 2E       		.byte	0x2e
 11937 468e 28       		.byte	0x28
 11938 468f 0100     		.2byte	0x1
 11939 4691 16       		.byte	0x16
 11940 4692 13       		.byte	0x13
 11941 4693 00       		.byte	0
 11942 4694 43       		.uleb128 0x43
 11943 4695 B6010000 		.4byte	.LVL196
ARM GAS  /var/folders/qd/4mxf5pkd0zdf0b9dd1hp39180000gn/T//cc7TiL7h.s 			page 211


 11944 4699 FF490000 		.4byte	0x49ff
 11945 469d AE460000 		.4byte	0x46ae
 11946 46a1 44       		.uleb128 0x44
 11947 46a2 01       		.uleb128 0x1
 11948 46a3 50       		.byte	0x50
 11949 46a4 02       		.uleb128 0x2
 11950 46a5 76       		.byte	0x76
 11951 46a6 00       		.sleb128 0
 11952 46a7 44       		.uleb128 0x44
 11953 46a8 01       		.uleb128 0x1
 11954 46a9 51       		.byte	0x51
 11955 46aa 02       		.uleb128 0x2
 11956 46ab 77       		.byte	0x77
 11957 46ac 00       		.sleb128 0
 11958 46ad 00       		.byte	0
 11959 46ae 43       		.uleb128 0x43
 11960 46af E0010000 		.4byte	.LVL201
 11961 46b3 1D4D0000 		.4byte	0x4d1d
 11962 46b7 C2460000 		.4byte	0x46c2
 11963 46bb 44       		.uleb128 0x44
 11964 46bc 01       		.uleb128 0x1
 11965 46bd 50       		.byte	0x50
 11966 46be 02       		.uleb128 0x2
 11967 46bf 74       		.byte	0x74
 11968 46c0 00       		.sleb128 0
 11969 46c1 00       		.byte	0
 11970 46c2 43       		.uleb128 0x43
 11971 46c3 EA010000 		.4byte	.LVL202
 11972 46c7 7A480000 		.4byte	0x487a
 11973 46cb E5460000 		.4byte	0x46e5
 11974 46cf 44       		.uleb128 0x44
 11975 46d0 01       		.uleb128 0x1
 11976 46d1 50       		.byte	0x50
 11977 46d2 02       		.uleb128 0x2
 11978 46d3 7A       		.byte	0x7a
 11979 46d4 00       		.sleb128 0
 11980 46d5 44       		.uleb128 0x44
 11981 46d6 01       		.uleb128 0x1
 11982 46d7 51       		.byte	0x51
 11983 46d8 04       		.uleb128 0x4
 11984 46d9 91       		.byte	0x91
 11985 46da 987F     		.sleb128 -104
 11986 46dc 06       		.byte	0x6
 11987 46dd 44       		.uleb128 0x44
 11988 46de 01       		.uleb128 0x1
 11989 46df 52       		.byte	0x52
 11990 46e0 03       		.uleb128 0x3
 11991 46e1 91       		.byte	0x91
 11992 46e2 B07F     		.sleb128 -80
 11993 46e4 00       		.byte	0
 11994 46e5 43       		.uleb128 0x43
 11995 46e6 F4010000 		.4byte	.LVL203
 11996 46ea 7A480000 		.4byte	0x487a
 11997 46ee 05470000 		.4byte	0x4705
 11998 46f2 44       		.uleb128 0x44
 11999 46f3 01       		.uleb128 0x1
 12000 46f4 50       		.byte	0x50
ARM GAS  /var/folders/qd/4mxf5pkd0zdf0b9dd1hp39180000gn/T//cc7TiL7h.s 			page 212


 12001 46f5 02       		.uleb128 0x2
 12002 46f6 7B       		.byte	0x7b
 12003 46f7 00       		.sleb128 0
 12004 46f8 44       		.uleb128 0x44
 12005 46f9 01       		.uleb128 0x1
 12006 46fa 51       		.byte	0x51
 12007 46fb 02       		.uleb128 0x2
 12008 46fc 78       		.byte	0x78
 12009 46fd 00       		.sleb128 0
 12010 46fe 44       		.uleb128 0x44
 12011 46ff 01       		.uleb128 0x1
 12012 4700 52       		.byte	0x52
 12013 4701 02       		.uleb128 0x2
 12014 4702 91       		.byte	0x91
 12015 4703 40       		.sleb128 -64
 12016 4704 00       		.byte	0
 12017 4705 43       		.uleb128 0x43
 12018 4706 FA010000 		.4byte	.LVL204
 12019 470a 1D4D0000 		.4byte	0x4d1d
 12020 470e 19470000 		.4byte	0x4719
 12021 4712 44       		.uleb128 0x44
 12022 4713 01       		.uleb128 0x1
 12023 4714 50       		.byte	0x50
 12024 4715 02       		.uleb128 0x2
 12025 4716 7A       		.byte	0x7a
 12026 4717 00       		.sleb128 0
 12027 4718 00       		.byte	0
 12028 4719 43       		.uleb128 0x43
 12029 471a 00020000 		.4byte	.LVL205
 12030 471e 1D4D0000 		.4byte	0x4d1d
 12031 4722 2D470000 		.4byte	0x472d
 12032 4726 44       		.uleb128 0x44
 12033 4727 01       		.uleb128 0x1
 12034 4728 50       		.byte	0x50
 12035 4729 02       		.uleb128 0x2
 12036 472a 7B       		.byte	0x7b
 12037 472b 00       		.sleb128 0
 12038 472c 00       		.byte	0
 12039 472d 34       		.uleb128 0x34
 12040 472e 68020000 		.4byte	.LVL217
 12041 4732 494D0000 		.4byte	0x4d49
 12042 4736 43       		.uleb128 0x43
 12043 4737 78020000 		.4byte	.LVL219
 12044 473b 494D0000 		.4byte	0x4d49
 12045 473f 52470000 		.4byte	0x4752
 12046 4743 44       		.uleb128 0x44
 12047 4744 08       		.uleb128 0x8
 12048 4745 90       		.byte	0x90
 12049 4746 40       		.uleb128 0x40
 12050 4747 93       		.byte	0x93
 12051 4748 04       		.uleb128 0x4
 12052 4749 90       		.byte	0x90
 12053 474a 41       		.uleb128 0x41
 12054 474b 93       		.byte	0x93
 12055 474c 04       		.uleb128 0x4
 12056 474d 03       		.uleb128 0x3
 12057 474e F5       		.byte	0xf5
ARM GAS  /var/folders/qd/4mxf5pkd0zdf0b9dd1hp39180000gn/T//cc7TiL7h.s 			page 213


 12058 474f 04       		.uleb128 0x4
 12059 4750 25       		.uleb128 0x25
 12060 4751 00       		.byte	0
 12061 4752 34       		.uleb128 0x34
 12062 4753 9E020000 		.4byte	.LVL222
 12063 4757 11490000 		.4byte	0x4911
 12064 475b 34       		.uleb128 0x34
 12065 475c AE020000 		.4byte	.LVL224
 12066 4760 FE4C0000 		.4byte	0x4cfe
 12067 4764 00       		.byte	0
 12068 4765 0A       		.uleb128 0xa
 12069 4766 C9400000 		.4byte	0x40c9
 12070 476a 75470000 		.4byte	0x4775
 12071 476e 0B       		.uleb128 0xb
 12072 476f 3E000000 		.4byte	0x3e
 12073 4773 1F       		.byte	0x1f
 12074 4774 00       		.byte	0
 12075 4775 52       		.uleb128 0x52
 12076 4776 C0170000 		.4byte	.LASF895
 12077 477a 01       		.byte	0x1
 12078 477b 97       		.byte	0x97
 12079 477c 00000000 		.4byte	.LFB267
 12080 4780 3C000000 		.4byte	.LFE267-.LFB267
 12081 4784 01       		.uleb128 0x1
 12082 4785 9C       		.byte	0x9c
 12083 4786 DA470000 		.4byte	0x47da
 12084 478a 4F       		.uleb128 0x4f
 12085 478b E2090000 		.4byte	.LASF896
 12086 478f 01       		.byte	0x1
 12087 4790 97       		.byte	0x97
 12088 4791 DA470000 		.4byte	0x47da
 12089 4795 20070000 		.4byte	.LLST22
 12090 4799 4F       		.uleb128 0x4f
 12091 479a 560C0000 		.4byte	.LASF897
 12092 479e 01       		.byte	0x1
 12093 479f 97       		.byte	0x97
 12094 47a0 2C000000 		.4byte	0x2c
 12095 47a4 4C070000 		.4byte	.LLST23
 12096 47a8 43       		.uleb128 0x43
 12097 47a9 1A000000 		.4byte	.LVL148
 12098 47ad CB4A0000 		.4byte	0x4acb
 12099 47b1 D0470000 		.4byte	0x47d0
 12100 47b5 44       		.uleb128 0x44
 12101 47b6 01       		.uleb128 0x1
 12102 47b7 50       		.byte	0x50
 12103 47b8 02       		.uleb128 0x2
 12104 47b9 75       		.byte	0x75
 12105 47ba 00       		.sleb128 0
 12106 47bb 44       		.uleb128 0x44
 12107 47bc 01       		.uleb128 0x1
 12108 47bd 51       		.byte	0x51
 12109 47be 02       		.uleb128 0x2
 12110 47bf 74       		.byte	0x74
 12111 47c0 00       		.sleb128 0
 12112 47c1 44       		.uleb128 0x44
 12113 47c2 01       		.uleb128 0x1
 12114 47c3 52       		.byte	0x52
ARM GAS  /var/folders/qd/4mxf5pkd0zdf0b9dd1hp39180000gn/T//cc7TiL7h.s 			page 214


 12115 47c4 03       		.uleb128 0x3
 12116 47c5 F3       		.byte	0xf3
 12117 47c6 01       		.uleb128 0x1
 12118 47c7 50       		.byte	0x50
 12119 47c8 44       		.uleb128 0x44
 12120 47c9 01       		.uleb128 0x1
 12121 47ca 53       		.byte	0x53
 12122 47cb 03       		.uleb128 0x3
 12123 47cc F3       		.byte	0xf3
 12124 47cd 01       		.uleb128 0x1
 12125 47ce 51       		.byte	0x51
 12126 47cf 00       		.byte	0
 12127 47d0 34       		.uleb128 0x34
 12128 47d1 32000000 		.4byte	.LVL149
 12129 47d5 FE4C0000 		.4byte	0x4cfe
 12130 47d9 00       		.byte	0
 12131 47da 05       		.uleb128 0x5
 12132 47db 04       		.byte	0x4
 12133 47dc 5C090000 		.4byte	0x95c
 12134 47e0 53       		.uleb128 0x53
 12135 47e1 41040000 		.4byte	.LASF898
 12136 47e5 01       		.byte	0x1
 12137 47e6 93       		.byte	0x93
 12138 47e7 00000000 		.4byte	.LFB266
 12139 47eb 34000000 		.4byte	.LFE266-.LFB266
 12140 47ef 01       		.uleb128 0x1
 12141 47f0 9C       		.byte	0x9c
 12142 47f1 28480000 		.4byte	0x4828
 12143 47f5 54       		.uleb128 0x54
 12144 47f6 7800     		.ascii	"x\000"
 12145 47f8 01       		.byte	0x1
 12146 47f9 93       		.byte	0x93
 12147 47fa 2C000000 		.4byte	0x2c
 12148 47fe 78070000 		.4byte	.LLST19
 12149 4802 54       		.uleb128 0x54
 12150 4803 7900     		.ascii	"y\000"
 12151 4805 01       		.byte	0x1
 12152 4806 93       		.byte	0x93
 12153 4807 2C000000 		.4byte	0x2c
 12154 480b A4070000 		.4byte	.LLST20
 12155 480f 4F       		.uleb128 0x4f
 12156 4810 45140000 		.4byte	.LASF138
 12157 4814 01       		.byte	0x1
 12158 4815 93       		.byte	0x93
 12159 4816 2C000000 		.4byte	0x2c
 12160 481a C5070000 		.4byte	.LLST21
 12161 481e 34       		.uleb128 0x34
 12162 481f 2C000000 		.4byte	.LVL144
 12163 4823 FE4C0000 		.4byte	0x4cfe
 12164 4827 00       		.byte	0
 12165 4828 55       		.uleb128 0x55
 12166 4829 AF0B0000 		.4byte	.LASF922
 12167 482d 01       		.byte	0x1
 12168 482e 8F       		.byte	0x8f
 12169 482f 01       		.byte	0x1
 12170 4830 52       		.uleb128 0x52
 12171 4831 28020000 		.4byte	.LASF899
ARM GAS  /var/folders/qd/4mxf5pkd0zdf0b9dd1hp39180000gn/T//cc7TiL7h.s 			page 215


 12172 4835 01       		.byte	0x1
 12173 4836 87       		.byte	0x87
 12174 4837 00000000 		.4byte	.LFB264
 12175 483b 4C000000 		.4byte	.LFE264-.LFB264
 12176 483f 01       		.uleb128 0x1
 12177 4840 9C       		.byte	0x9c
 12178 4841 7A480000 		.4byte	0x487a
 12179 4845 56       		.uleb128 0x56
 12180 4846 28480000 		.4byte	0x4828
 12181 484a 04000000 		.4byte	.LBB27
 12182 484e 18000000 		.4byte	.Ldebug_ranges0+0x18
 12183 4852 01       		.byte	0x1
 12184 4853 89       		.byte	0x89
 12185 4854 43       		.uleb128 0x43
 12186 4855 20000000 		.4byte	.LVL137
 12187 4859 074D0000 		.4byte	0x4d07
 12188 485d 67480000 		.4byte	0x4867
 12189 4861 44       		.uleb128 0x44
 12190 4862 01       		.uleb128 0x1
 12191 4863 50       		.byte	0x50
 12192 4864 01       		.uleb128 0x1
 12193 4865 38       		.byte	0x38
 12194 4866 00       		.byte	0
 12195 4867 45       		.uleb128 0x45
 12196 4868 3C000000 		.4byte	.LVL138
 12197 486c 124D0000 		.4byte	0x4d12
 12198 4870 34       		.uleb128 0x34
 12199 4871 40000000 		.4byte	.LVL139
 12200 4875 FE4C0000 		.4byte	0x4cfe
 12201 4879 00       		.byte	0
 12202 487a 53       		.uleb128 0x53
 12203 487b 7A250000 		.4byte	.LASF900
 12204 487f 01       		.byte	0x1
 12205 4880 73       		.byte	0x73
 12206 4881 00000000 		.4byte	.LFB263
 12207 4885 F8000000 		.4byte	.LFE263-.LFB263
 12208 4889 01       		.uleb128 0x1
 12209 488a 9C       		.byte	0x9c
 12210 488b 0B490000 		.4byte	0x490b
 12211 488f 4F       		.uleb128 0x4f
 12212 4890 6C130000 		.4byte	.LASF848
 12213 4894 01       		.byte	0x1
 12214 4895 73       		.byte	0x73
 12215 4896 1B3F0000 		.4byte	0x3f1b
 12216 489a E6070000 		.4byte	.LLST11
 12217 489e 4F       		.uleb128 0x4f
 12218 489f 8C090000 		.4byte	.LASF901
 12219 48a3 01       		.byte	0x1
 12220 48a4 73       		.byte	0x73
 12221 48a5 2C000000 		.4byte	0x2c
 12222 48a9 20080000 		.4byte	.LLST12
 12223 48ad 54       		.uleb128 0x54
 12224 48ae 746F7400 		.ascii	"tot\000"
 12225 48b2 01       		.byte	0x1
 12226 48b3 73       		.byte	0x73
 12227 48b4 0B490000 		.4byte	0x490b
 12228 48b8 56080000 		.4byte	.LLST13
ARM GAS  /var/folders/qd/4mxf5pkd0zdf0b9dd1hp39180000gn/T//cc7TiL7h.s 			page 216


 12229 48bc 50       		.uleb128 0x50
 12230 48bd 6D00     		.ascii	"m\000"
 12231 48bf 01       		.byte	0x1
 12232 48c0 74       		.byte	0x74
 12233 48c1 25000000 		.4byte	0x25
 12234 48c5 8C080000 		.4byte	.LLST14
 12235 48c9 50       		.uleb128 0x50
 12236 48ca 7000     		.ascii	"p\000"
 12237 48cc 01       		.byte	0x1
 12238 48cd 74       		.byte	0x74
 12239 48ce 25000000 		.4byte	0x25
 12240 48d2 A4080000 		.4byte	.LLST15
 12241 48d6 51       		.uleb128 0x51
 12242 48d7 051A0000 		.4byte	.LASF902
 12243 48db 01       		.byte	0x1
 12244 48dc 74       		.byte	0x74
 12245 48dd 25000000 		.4byte	0x25
 12246 48e1 C8080000 		.4byte	.LLST16
 12247 48e5 51       		.uleb128 0x51
 12248 48e6 280D0000 		.4byte	.LASF903
 12249 48ea 01       		.byte	0x1
 12250 48eb 74       		.byte	0x74
 12251 48ec 25000000 		.4byte	0x25
 12252 48f0 20090000 		.4byte	.LLST17
 12253 48f4 50       		.uleb128 0x50
 12254 48f5 6900     		.ascii	"i\000"
 12255 48f7 01       		.byte	0x1
 12256 48f8 75       		.byte	0x75
 12257 48f9 2C000000 		.4byte	0x2c
 12258 48fd 70090000 		.4byte	.LLST18
 12259 4901 34       		.uleb128 0x34
 12260 4902 F4000000 		.4byte	.LVL136
 12261 4906 FE4C0000 		.4byte	0x4cfe
 12262 490a 00       		.byte	0
 12263 490b 05       		.uleb128 0x5
 12264 490c 04       		.byte	0x4
 12265 490d 25000000 		.4byte	0x25
 12266 4911 53       		.uleb128 0x53
 12267 4912 8E180000 		.4byte	.LASF904
 12268 4916 01       		.byte	0x1
 12269 4917 62       		.byte	0x62
 12270 4918 00000000 		.4byte	.LFB262
 12271 491c D8010000 		.4byte	.LFE262-.LFB262
 12272 4920 01       		.uleb128 0x1
 12273 4921 9C       		.byte	0x9c
 12274 4922 FF490000 		.4byte	0x49ff
 12275 4926 4F       		.uleb128 0x4f
 12276 4927 A2030000 		.4byte	.LASF893
 12277 492b 01       		.byte	0x1
 12278 492c 62       		.byte	0x62
 12279 492d B7090000 		.4byte	0x9b7
 12280 4931 90090000 		.4byte	.LLST8
 12281 4935 4F       		.uleb128 0x4f
 12282 4936 29180000 		.4byte	.LASF894
 12283 493a 01       		.byte	0x1
 12284 493b 62       		.byte	0x62
 12285 493c 25000000 		.4byte	0x25
ARM GAS  /var/folders/qd/4mxf5pkd0zdf0b9dd1hp39180000gn/T//cc7TiL7h.s 			page 217


 12286 4940 BF090000 		.4byte	.LLST9
 12287 4944 31       		.uleb128 0x31
 12288 4945 3A1A0000 		.4byte	.LASF868
 12289 4949 01       		.byte	0x1
 12290 494a 6E       		.byte	0x6e
 12291 494b CE430000 		.4byte	0x43ce
 12292 494f 03       		.uleb128 0x3
 12293 4950 91       		.byte	0x91
 12294 4951 E87E     		.sleb128 -152
 12295 4953 3A       		.uleb128 0x3a
 12296 4954 10010000 		.4byte	.LBB26
 12297 4958 40000000 		.4byte	.LBE26-.LBB26
 12298 495c 6F490000 		.4byte	0x496f
 12299 4960 50       		.uleb128 0x50
 12300 4961 6E6200   		.ascii	"nb\000"
 12301 4964 01       		.byte	0x1
 12302 4965 67       		.byte	0x67
 12303 4966 2C000000 		.4byte	0x2c
 12304 496a 0D0A0000 		.4byte	.LLST10
 12305 496e 00       		.byte	0
 12306 496f 43       		.uleb128 0x43
 12307 4970 26000000 		.4byte	.LVL79
 12308 4974 5F4D0000 		.4byte	0x4d5f
 12309 4978 8B490000 		.4byte	0x498b
 12310 497c 44       		.uleb128 0x44
 12311 497d 08       		.uleb128 0x8
 12312 497e 90       		.byte	0x90
 12313 497f 40       		.uleb128 0x40
 12314 4980 93       		.byte	0x93
 12315 4981 04       		.uleb128 0x4
 12316 4982 90       		.byte	0x90
 12317 4983 41       		.uleb128 0x41
 12318 4984 93       		.byte	0x93
 12319 4985 04       		.uleb128 0x4
 12320 4986 03       		.uleb128 0x3
 12321 4987 F5       		.byte	0xf5
 12322 4988 50       		.uleb128 0x50
 12323 4989 25       		.uleb128 0x25
 12324 498a 00       		.byte	0
 12325 498b 43       		.uleb128 0x43
 12326 498c 40000000 		.4byte	.LVL81
 12327 4990 6A4D0000 		.4byte	0x4d6a
 12328 4994 A7490000 		.4byte	0x49a7
 12329 4998 44       		.uleb128 0x44
 12330 4999 08       		.uleb128 0x8
 12331 499a 90       		.byte	0x90
 12332 499b 40       		.uleb128 0x40
 12333 499c 93       		.byte	0x93
 12334 499d 04       		.uleb128 0x4
 12335 499e 90       		.byte	0x90
 12336 499f 41       		.uleb128 0x41
 12337 49a0 93       		.byte	0x93
 12338 49a1 04       		.uleb128 0x4
 12339 49a2 03       		.uleb128 0x3
 12340 49a3 F5       		.byte	0xf5
 12341 49a4 50       		.uleb128 0x50
 12342 49a5 25       		.uleb128 0x25
ARM GAS  /var/folders/qd/4mxf5pkd0zdf0b9dd1hp39180000gn/T//cc7TiL7h.s 			page 218


 12343 49a6 00       		.byte	0
 12344 49a7 43       		.uleb128 0x43
 12345 49a8 98010000 		.4byte	.LVL107
 12346 49ac 334D0000 		.4byte	0x4d33
 12347 49b0 DB490000 		.4byte	0x49db
 12348 49b4 44       		.uleb128 0x44
 12349 49b5 01       		.uleb128 0x1
 12350 49b6 50       		.byte	0x50
 12351 49b7 03       		.uleb128 0x3
 12352 49b8 91       		.byte	0x91
 12353 49b9 E87E     		.sleb128 -152
 12354 49bb 44       		.uleb128 0x44
 12355 49bc 01       		.uleb128 0x1
 12356 49bd 51       		.byte	0x51
 12357 49be 05       		.uleb128 0x5
 12358 49bf 03       		.byte	0x3
 12359 49c0 00000000 		.4byte	.LC2
 12360 49c4 44       		.uleb128 0x44
 12361 49c5 01       		.uleb128 0x1
 12362 49c6 52       		.byte	0x52
 12363 49c7 04       		.uleb128 0x4
 12364 49c8 91       		.byte	0x91
 12365 49c9 D87E     		.sleb128 -168
 12366 49cb 06       		.byte	0x6
 12367 49cc 44       		.uleb128 0x44
 12368 49cd 01       		.uleb128 0x1
 12369 49ce 53       		.byte	0x53
 12370 49cf 02       		.uleb128 0x2
 12371 49d0 7B       		.byte	0x7b
 12372 49d1 00       		.sleb128 0
 12373 49d2 44       		.uleb128 0x44
 12374 49d3 02       		.uleb128 0x2
 12375 49d4 7D       		.byte	0x7d
 12376 49d5 00       		.sleb128 0
 12377 49d6 03       		.uleb128 0x3
 12378 49d7 F5       		.byte	0xf5
 12379 49d8 08       		.uleb128 0x8
 12380 49d9 25       		.uleb128 0x25
 12381 49da 00       		.byte	0
 12382 49db 43       		.uleb128 0x43
 12383 49dc A0010000 		.4byte	.LVL108
 12384 49e0 3E4D0000 		.4byte	0x4d3e
 12385 49e4 F5490000 		.4byte	0x49f5
 12386 49e8 44       		.uleb128 0x44
 12387 49e9 01       		.uleb128 0x1
 12388 49ea 50       		.byte	0x50
 12389 49eb 03       		.uleb128 0x3
 12390 49ec 91       		.byte	0x91
 12391 49ed E87E     		.sleb128 -152
 12392 49ef 44       		.uleb128 0x44
 12393 49f0 01       		.uleb128 0x1
 12394 49f1 51       		.byte	0x51
 12395 49f2 01       		.uleb128 0x1
 12396 49f3 33       		.byte	0x33
 12397 49f4 00       		.byte	0
 12398 49f5 34       		.uleb128 0x34
 12399 49f6 B8010000 		.4byte	.LVL111
ARM GAS  /var/folders/qd/4mxf5pkd0zdf0b9dd1hp39180000gn/T//cc7TiL7h.s 			page 219


 12400 49fa FE4C0000 		.4byte	0x4cfe
 12401 49fe 00       		.byte	0
 12402 49ff 4E       		.uleb128 0x4e
 12403 4a00 0D1C0000 		.4byte	.LASF905
 12404 4a04 01       		.byte	0x1
 12405 4a05 56       		.byte	0x56
 12406 4a06 B7090000 		.4byte	0x9b7
 12407 4a0a 00000000 		.4byte	.LFB261
 12408 4a0e D8000000 		.4byte	.LFE261-.LFB261
 12409 4a12 01       		.uleb128 0x1
 12410 4a13 9C       		.byte	0x9c
 12411 4a14 CB4A0000 		.4byte	0x4acb
 12412 4a18 4F       		.uleb128 0x4f
 12413 4a19 8F000000 		.4byte	.LASF849
 12414 4a1d 01       		.byte	0x1
 12415 4a1e 56       		.byte	0x56
 12416 4a1f C9400000 		.4byte	0x40c9
 12417 4a23 330A0000 		.4byte	.LLST6
 12418 4a27 51       		.uleb128 0x51
 12419 4a28 6C130000 		.4byte	.LASF848
 12420 4a2c 01       		.byte	0x1
 12421 4a2d 57       		.byte	0x57
 12422 4a2e B7090000 		.4byte	0x9b7
 12423 4a32 5F0A0000 		.4byte	.LLST7
 12424 4a36 31       		.uleb128 0x31
 12425 4a37 3A1A0000 		.4byte	.LASF868
 12426 4a3b 01       		.byte	0x1
 12427 4a3c 5B       		.byte	0x5b
 12428 4a3d CE430000 		.4byte	0x43ce
 12429 4a41 03       		.uleb128 0x3
 12430 4a42 91       		.byte	0x91
 12431 4a43 F07E     		.sleb128 -144
 12432 4a45 43       		.uleb128 0x43
 12433 4a46 28000000 		.4byte	.LVL55
 12434 4a4a 6A4D0000 		.4byte	0x4d6a
 12435 4a4e 614A0000 		.4byte	0x4a61
 12436 4a52 44       		.uleb128 0x44
 12437 4a53 08       		.uleb128 0x8
 12438 4a54 90       		.byte	0x90
 12439 4a55 40       		.uleb128 0x40
 12440 4a56 93       		.byte	0x93
 12441 4a57 04       		.uleb128 0x4
 12442 4a58 90       		.byte	0x90
 12443 4a59 41       		.uleb128 0x41
 12444 4a5a 93       		.byte	0x93
 12445 4a5b 04       		.uleb128 0x4
 12446 4a5c 03       		.uleb128 0x3
 12447 4a5d F5       		.byte	0xf5
 12448 4a5e 50       		.uleb128 0x50
 12449 4a5f 25       		.uleb128 0x25
 12450 4a60 00       		.byte	0
 12451 4a61 43       		.uleb128 0x43
 12452 4a62 6C000000 		.4byte	.LVL62
 12453 4a66 5F4D0000 		.4byte	0x4d5f
 12454 4a6a 7D4A0000 		.4byte	0x4a7d
 12455 4a6e 44       		.uleb128 0x44
 12456 4a6f 08       		.uleb128 0x8
ARM GAS  /var/folders/qd/4mxf5pkd0zdf0b9dd1hp39180000gn/T//cc7TiL7h.s 			page 220


 12457 4a70 90       		.byte	0x90
 12458 4a71 40       		.uleb128 0x40
 12459 4a72 93       		.byte	0x93
 12460 4a73 04       		.uleb128 0x4
 12461 4a74 90       		.byte	0x90
 12462 4a75 41       		.uleb128 0x41
 12463 4a76 93       		.byte	0x93
 12464 4a77 04       		.uleb128 0x4
 12465 4a78 03       		.uleb128 0x3
 12466 4a79 F5       		.byte	0xf5
 12467 4a7a 50       		.uleb128 0x50
 12468 4a7b 25       		.uleb128 0x25
 12469 4a7c 00       		.byte	0
 12470 4a7d 43       		.uleb128 0x43
 12471 4a7e AC000000 		.4byte	.LVL70
 12472 4a82 334D0000 		.4byte	0x4d33
 12473 4a86 A74A0000 		.4byte	0x4aa7
 12474 4a8a 44       		.uleb128 0x44
 12475 4a8b 01       		.uleb128 0x1
 12476 4a8c 50       		.byte	0x50
 12477 4a8d 03       		.uleb128 0x3
 12478 4a8e 91       		.byte	0x91
 12479 4a8f F07E     		.sleb128 -144
 12480 4a91 44       		.uleb128 0x44
 12481 4a92 01       		.uleb128 0x1
 12482 4a93 51       		.byte	0x51
 12483 4a94 05       		.uleb128 0x5
 12484 4a95 03       		.byte	0x3
 12485 4a96 00000000 		.4byte	.LC1
 12486 4a9a 44       		.uleb128 0x44
 12487 4a9b 01       		.uleb128 0x1
 12488 4a9c 52       		.byte	0x52
 12489 4a9d 02       		.uleb128 0x2
 12490 4a9e 76       		.byte	0x76
 12491 4a9f 00       		.sleb128 0
 12492 4aa0 44       		.uleb128 0x44
 12493 4aa1 01       		.uleb128 0x1
 12494 4aa2 53       		.byte	0x53
 12495 4aa3 02       		.uleb128 0x2
 12496 4aa4 74       		.byte	0x74
 12497 4aa5 00       		.sleb128 0
 12498 4aa6 00       		.byte	0
 12499 4aa7 43       		.uleb128 0x43
 12500 4aa8 B4000000 		.4byte	.LVL71
 12501 4aac 3E4D0000 		.4byte	0x4d3e
 12502 4ab0 C14A0000 		.4byte	0x4ac1
 12503 4ab4 44       		.uleb128 0x44
 12504 4ab5 01       		.uleb128 0x1
 12505 4ab6 50       		.byte	0x50
 12506 4ab7 03       		.uleb128 0x3
 12507 4ab8 91       		.byte	0x91
 12508 4ab9 F07E     		.sleb128 -144
 12509 4abb 44       		.uleb128 0x44
 12510 4abc 01       		.uleb128 0x1
 12511 4abd 51       		.byte	0x51
 12512 4abe 01       		.uleb128 0x1
 12513 4abf 33       		.byte	0x33
ARM GAS  /var/folders/qd/4mxf5pkd0zdf0b9dd1hp39180000gn/T//cc7TiL7h.s 			page 221


 12514 4ac0 00       		.byte	0
 12515 4ac1 34       		.uleb128 0x34
 12516 4ac2 D0000000 		.4byte	.LVL74
 12517 4ac6 FE4C0000 		.4byte	0x4cfe
 12518 4aca 00       		.byte	0
 12519 4acb 4E       		.uleb128 0x4e
 12520 4acc 260A0000 		.4byte	.LASF906
 12521 4ad0 01       		.byte	0x1
 12522 4ad1 47       		.byte	0x47
 12523 4ad2 8A090000 		.4byte	0x98a
 12524 4ad6 00000000 		.4byte	.LFB260
 12525 4ada C4010000 		.4byte	.LFE260-.LFB260
 12526 4ade 01       		.uleb128 0x1
 12527 4adf 9C       		.byte	0x9c
 12528 4ae0 DA4B0000 		.4byte	0x4bda
 12529 4ae4 4F       		.uleb128 0x4f
 12530 4ae5 7F210000 		.4byte	.LASF907
 12531 4ae9 01       		.byte	0x1
 12532 4aea 47       		.byte	0x47
 12533 4aeb DA4B0000 		.4byte	0x4bda
 12534 4aef B50A0000 		.4byte	.LLST1
 12535 4af3 4F       		.uleb128 0x4f
 12536 4af4 E2090000 		.4byte	.LASF896
 12537 4af8 01       		.byte	0x1
 12538 4af9 48       		.byte	0x48
 12539 4afa DA470000 		.4byte	0x47da
 12540 4afe E10A0000 		.4byte	.LLST2
 12541 4b02 4F       		.uleb128 0x4f
 12542 4b03 560C0000 		.4byte	.LASF897
 12543 4b07 01       		.byte	0x1
 12544 4b08 48       		.byte	0x48
 12545 4b09 2C000000 		.4byte	0x2c
 12546 4b0d 0D0B0000 		.4byte	.LLST3
 12547 4b11 51       		.uleb128 0x51
 12548 4b12 431C0000 		.4byte	.LASF908
 12549 4b16 01       		.byte	0x1
 12550 4b17 49       		.byte	0x49
 12551 4b18 8A090000 		.4byte	0x98a
 12552 4b1c 390B0000 		.4byte	.LLST4
 12553 4b20 31       		.uleb128 0x31
 12554 4b21 3A1A0000 		.4byte	.LASF868
 12555 4b25 01       		.byte	0x1
 12556 4b26 4F       		.byte	0x4f
 12557 4b27 CE430000 		.4byte	0x43ce
 12558 4b2b 03       		.uleb128 0x3
 12559 4b2c 91       		.byte	0x91
 12560 4b2d E87E     		.sleb128 -152
 12561 4b2f 57       		.uleb128 0x57
 12562 4b30 E04B0000 		.4byte	0x4be0
 12563 4b34 02010000 		.4byte	.LBB22
 12564 4b38 00000000 		.4byte	.Ldebug_ranges0+0
 12565 4b3c 01       		.byte	0x1
 12566 4b3d 4D       		.byte	0x4d
 12567 4b3e 4C4B0000 		.4byte	0x4b4c
 12568 4b42 42       		.uleb128 0x42
 12569 4b43 EC4B0000 		.4byte	0x4bec
 12570 4b47 F50B0000 		.4byte	.LLST5
ARM GAS  /var/folders/qd/4mxf5pkd0zdf0b9dd1hp39180000gn/T//cc7TiL7h.s 			page 222


 12571 4b4b 00       		.byte	0
 12572 4b4c 43       		.uleb128 0x43
 12573 4b4d 5C000000 		.4byte	.LVL16
 12574 4b51 5F4D0000 		.4byte	0x4d5f
 12575 4b55 684B0000 		.4byte	0x4b68
 12576 4b59 44       		.uleb128 0x44
 12577 4b5a 08       		.uleb128 0x8
 12578 4b5b 90       		.byte	0x90
 12579 4b5c 40       		.uleb128 0x40
 12580 4b5d 93       		.byte	0x93
 12581 4b5e 04       		.uleb128 0x4
 12582 4b5f 90       		.byte	0x90
 12583 4b60 41       		.uleb128 0x41
 12584 4b61 93       		.byte	0x93
 12585 4b62 04       		.uleb128 0x4
 12586 4b63 03       		.uleb128 0x3
 12587 4b64 F5       		.byte	0xf5
 12588 4b65 50       		.uleb128 0x50
 12589 4b66 25       		.uleb128 0x25
 12590 4b67 00       		.byte	0
 12591 4b68 43       		.uleb128 0x43
 12592 4b69 A2000000 		.4byte	.LVL24
 12593 4b6d 6A4D0000 		.4byte	0x4d6a
 12594 4b71 844B0000 		.4byte	0x4b84
 12595 4b75 44       		.uleb128 0x44
 12596 4b76 08       		.uleb128 0x8
 12597 4b77 90       		.byte	0x90
 12598 4b78 40       		.uleb128 0x40
 12599 4b79 93       		.byte	0x93
 12600 4b7a 04       		.uleb128 0x4
 12601 4b7b 90       		.byte	0x90
 12602 4b7c 41       		.uleb128 0x41
 12603 4b7d 93       		.byte	0x93
 12604 4b7e 04       		.uleb128 0x4
 12605 4b7f 03       		.uleb128 0x3
 12606 4b80 F5       		.byte	0xf5
 12607 4b81 50       		.uleb128 0x50
 12608 4b82 25       		.uleb128 0x25
 12609 4b83 00       		.byte	0
 12610 4b84 43       		.uleb128 0x43
 12611 4b85 7A010000 		.4byte	.LVL49
 12612 4b89 334D0000 		.4byte	0x4d33
 12613 4b8d B64B0000 		.4byte	0x4bb6
 12614 4b91 44       		.uleb128 0x44
 12615 4b92 01       		.uleb128 0x1
 12616 4b93 50       		.byte	0x50
 12617 4b94 03       		.uleb128 0x3
 12618 4b95 91       		.byte	0x91
 12619 4b96 E87E     		.sleb128 -152
 12620 4b98 44       		.uleb128 0x44
 12621 4b99 01       		.uleb128 0x1
 12622 4b9a 51       		.byte	0x51
 12623 4b9b 05       		.uleb128 0x5
 12624 4b9c 03       		.byte	0x3
 12625 4b9d 00000000 		.4byte	.LC0
 12626 4ba1 44       		.uleb128 0x44
 12627 4ba2 01       		.uleb128 0x1
ARM GAS  /var/folders/qd/4mxf5pkd0zdf0b9dd1hp39180000gn/T//cc7TiL7h.s 			page 223


 12628 4ba3 52       		.byte	0x52
 12629 4ba4 02       		.uleb128 0x2
 12630 4ba5 7B       		.byte	0x7b
 12631 4ba6 00       		.sleb128 0
 12632 4ba7 44       		.uleb128 0x44
 12633 4ba8 01       		.uleb128 0x1
 12634 4ba9 53       		.byte	0x53
 12635 4baa 02       		.uleb128 0x2
 12636 4bab 74       		.byte	0x74
 12637 4bac 00       		.sleb128 0
 12638 4bad 44       		.uleb128 0x44
 12639 4bae 02       		.uleb128 0x2
 12640 4baf 7D       		.byte	0x7d
 12641 4bb0 00       		.sleb128 0
 12642 4bb1 03       		.uleb128 0x3
 12643 4bb2 F5       		.byte	0xf5
 12644 4bb3 08       		.uleb128 0x8
 12645 4bb4 25       		.uleb128 0x25
 12646 4bb5 00       		.byte	0
 12647 4bb6 43       		.uleb128 0x43
 12648 4bb7 82010000 		.4byte	.LVL50
 12649 4bbb 3E4D0000 		.4byte	0x4d3e
 12650 4bbf D04B0000 		.4byte	0x4bd0
 12651 4bc3 44       		.uleb128 0x44
 12652 4bc4 01       		.uleb128 0x1
 12653 4bc5 50       		.byte	0x50
 12654 4bc6 03       		.uleb128 0x3
 12655 4bc7 91       		.byte	0x91
 12656 4bc8 E87E     		.sleb128 -152
 12657 4bca 44       		.uleb128 0x44
 12658 4bcb 01       		.uleb128 0x1
 12659 4bcc 51       		.byte	0x51
 12660 4bcd 01       		.uleb128 0x1
 12661 4bce 33       		.byte	0x33
 12662 4bcf 00       		.byte	0
 12663 4bd0 34       		.uleb128 0x34
 12664 4bd1 A8010000 		.4byte	.LVL53
 12665 4bd5 FE4C0000 		.4byte	0x4cfe
 12666 4bd9 00       		.byte	0
 12667 4bda 05       		.uleb128 0x5
 12668 4bdb 04       		.byte	0x4
 12669 4bdc 8A090000 		.4byte	0x98a
 12670 4be0 58       		.uleb128 0x58
 12671 4be1 4D000000 		.4byte	.LASF923
 12672 4be5 01       		.byte	0x1
 12673 4be6 42       		.byte	0x42
 12674 4be7 01       		.byte	0x1
 12675 4be8 F84B0000 		.4byte	0x4bf8
 12676 4bec 59       		.uleb128 0x59
 12677 4bed B0010000 		.4byte	.LASF866
 12678 4bf1 01       		.byte	0x1
 12679 4bf2 42       		.byte	0x42
 12680 4bf3 0B490000 		.4byte	0x490b
 12681 4bf7 00       		.byte	0
 12682 4bf8 5A       		.uleb128 0x5a
 12683 4bf9 E04B0000 		.4byte	0x4be0
 12684 4bfd 00000000 		.4byte	.LFB259
ARM GAS  /var/folders/qd/4mxf5pkd0zdf0b9dd1hp39180000gn/T//cc7TiL7h.s 			page 224


 12685 4c01 AC000000 		.4byte	.LFE259-.LFB259
 12686 4c05 01       		.uleb128 0x1
 12687 4c06 9C       		.byte	0x9c
 12688 4c07 1E4C0000 		.4byte	0x4c1e
 12689 4c0b 42       		.uleb128 0x42
 12690 4c0c EC4B0000 		.4byte	0x4bec
 12691 4c10 0D0C0000 		.4byte	.LLST0
 12692 4c14 34       		.uleb128 0x34
 12693 4c15 9A000000 		.4byte	.LVL9
 12694 4c19 FE4C0000 		.4byte	0x4cfe
 12695 4c1d 00       		.byte	0
 12696 4c1e 5B       		.uleb128 0x5b
 12697 4c1f 28480000 		.4byte	0x4828
 12698 4c23 00000000 		.4byte	.LFB265
 12699 4c27 34000000 		.4byte	.LFE265-.LFB265
 12700 4c2b 01       		.uleb128 0x1
 12701 4c2c 9C       		.byte	0x9c
 12702 4c2d 3B4C0000 		.4byte	0x4c3b
 12703 4c31 34       		.uleb128 0x34
 12704 4c32 2A000000 		.4byte	.LVL140
 12705 4c36 FE4C0000 		.4byte	0x4cfe
 12706 4c3a 00       		.byte	0
 12707 4c3b 5A       		.uleb128 0x5a
 12708 4c3c CA410000 		.4byte	0x41ca
 12709 4c40 00000000 		.4byte	.LFB273
 12710 4c44 50000000 		.4byte	.LFE273-.LFB273
 12711 4c48 01       		.uleb128 0x1
 12712 4c49 9C       		.byte	0x9c
 12713 4c4a 734C0000 		.4byte	0x4c73
 12714 4c4e 42       		.uleb128 0x42
 12715 4c4f DB410000 		.4byte	0x41db
 12716 4c53 2B0C0000 		.4byte	.LLST43
 12717 4c57 42       		.uleb128 0x42
 12718 4c58 E7410000 		.4byte	0x41e7
 12719 4c5c 570C0000 		.4byte	.LLST44
 12720 4c60 34       		.uleb128 0x34
 12721 4c61 34000000 		.4byte	.LVL298
 12722 4c65 284D0000 		.4byte	0x4d28
 12723 4c69 34       		.uleb128 0x34
 12724 4c6a 4C000000 		.4byte	.LVL302
 12725 4c6e FE4C0000 		.4byte	0x4cfe
 12726 4c72 00       		.byte	0
 12727 4c73 5B       		.uleb128 0x5b
 12728 4c74 FF400000 		.4byte	0x40ff
 12729 4c78 00000000 		.4byte	.LFB276
 12730 4c7c 44000000 		.4byte	.LFE276-.LFB276
 12731 4c80 01       		.uleb128 0x1
 12732 4c81 9C       		.byte	0x9c
 12733 4c82 A24C0000 		.4byte	0x4ca2
 12734 4c86 42       		.uleb128 0x42
 12735 4c87 10410000 		.4byte	0x4110
 12736 4c8b A60C0000 		.4byte	.LLST47
 12737 4c8f 42       		.uleb128 0x42
 12738 4c90 1C410000 		.4byte	0x411c
 12739 4c94 F30C0000 		.4byte	.LLST48
 12740 4c98 34       		.uleb128 0x34
 12741 4c99 40000000 		.4byte	.LVL317
ARM GAS  /var/folders/qd/4mxf5pkd0zdf0b9dd1hp39180000gn/T//cc7TiL7h.s 			page 225


 12742 4c9d FE4C0000 		.4byte	0x4cfe
 12743 4ca1 00       		.byte	0
 12744 4ca2 5B       		.uleb128 0x5b
 12745 4ca3 D5400000 		.4byte	0x40d5
 12746 4ca7 00000000 		.4byte	.LFB277
 12747 4cab 78000000 		.4byte	.LFE277-.LFB277
 12748 4caf 01       		.uleb128 0x1
 12749 4cb0 9C       		.byte	0x9c
 12750 4cb1 FE4C0000 		.4byte	0x4cfe
 12751 4cb5 42       		.uleb128 0x42
 12752 4cb6 E6400000 		.4byte	0x40e6
 12753 4cba 3E0D0000 		.4byte	.LLST49
 12754 4cbe 3C       		.uleb128 0x3c
 12755 4cbf 70000000 		.4byte	.Ldebug_ranges0+0x70
 12756 4cc3 F44C0000 		.4byte	0x4cf4
 12757 4cc7 5C       		.uleb128 0x5c
 12758 4cc8 F3400000 		.4byte	0x40f3
 12759 4ccc BC0D0000 		.4byte	.LLST50
 12760 4cd0 41       		.uleb128 0x41
 12761 4cd1 FF400000 		.4byte	0x40ff
 12762 4cd5 1E000000 		.4byte	.LBB46
 12763 4cd9 A0000000 		.4byte	.Ldebug_ranges0+0xa0
 12764 4cdd 01       		.byte	0x1
 12765 4cde 6801     		.2byte	0x168
 12766 4ce0 42       		.uleb128 0x42
 12767 4ce1 1C410000 		.4byte	0x411c
 12768 4ce5 DB0D0000 		.4byte	.LLST51
 12769 4ce9 42       		.uleb128 0x42
 12770 4cea 10410000 		.4byte	0x4110
 12771 4cee 350E0000 		.4byte	.LLST52
 12772 4cf2 00       		.byte	0
 12773 4cf3 00       		.byte	0
 12774 4cf4 34       		.uleb128 0x34
 12775 4cf5 6C000000 		.4byte	.LVL329
 12776 4cf9 FE4C0000 		.4byte	0x4cfe
 12777 4cfd 00       		.byte	0
 12778 4cfe 5D       		.uleb128 0x5d
 12779 4cff 64060000 		.4byte	.LASF924
 12780 4d03 64060000 		.4byte	.LASF924
 12781 4d07 5E       		.uleb128 0x5e
 12782 4d08 5F090000 		.4byte	.LASF909
 12783 4d0c 5F090000 		.4byte	.LASF909
 12784 4d10 38       		.byte	0x38
 12785 4d11 68       		.byte	0x68
 12786 4d12 5E       		.uleb128 0x5e
 12787 4d13 8F160000 		.4byte	.LASF910
 12788 4d17 8F160000 		.4byte	.LASF910
 12789 4d1b 39       		.byte	0x39
 12790 4d1c 11       		.byte	0x11
 12791 4d1d 5E       		.uleb128 0x5e
 12792 4d1e 5A050000 		.4byte	.LASF911
 12793 4d22 5A050000 		.4byte	.LASF911
 12794 4d26 38       		.byte	0x38
 12795 4d27 5D       		.byte	0x5d
 12796 4d28 5E       		.uleb128 0x5e
 12797 4d29 A3250000 		.4byte	.LASF912
 12798 4d2d A3250000 		.4byte	.LASF912
ARM GAS  /var/folders/qd/4mxf5pkd0zdf0b9dd1hp39180000gn/T//cc7TiL7h.s 			page 226


 12799 4d31 07       		.byte	0x7
 12800 4d32 70       		.byte	0x70
 12801 4d33 5E       		.uleb128 0x5e
 12802 4d34 1E080000 		.4byte	.LASF913
 12803 4d38 1E080000 		.4byte	.LASF913
 12804 4d3c 3A       		.byte	0x3a
 12805 4d3d F4       		.byte	0xf4
 12806 4d3e 5E       		.uleb128 0x5e
 12807 4d3f EE170000 		.4byte	.LASF914
 12808 4d43 EE170000 		.4byte	.LASF914
 12809 4d47 3B       		.byte	0x3b
 12810 4d48 2C       		.byte	0x2c
 12811 4d49 5E       		.uleb128 0x5e
 12812 4d4a 06220000 		.4byte	.LASF915
 12813 4d4e 06220000 		.4byte	.LASF915
 12814 4d52 07       		.byte	0x7
 12815 4d53 56       		.byte	0x56
 12816 4d54 5E       		.uleb128 0x5e
 12817 4d55 B41B0000 		.4byte	.LASF916
 12818 4d59 B41B0000 		.4byte	.LASF916
 12819 4d5d 38       		.byte	0x38
 12820 4d5e 8D       		.byte	0x8d
 12821 4d5f 5F       		.uleb128 0x5f
 12822 4d60 636F7300 		.ascii	"cos\000"
 12823 4d64 636F7300 		.ascii	"cos\000"
 12824 4d68 07       		.byte	0x7
 12825 4d69 57       		.byte	0x57
 12826 4d6a 5F       		.uleb128 0x5f
 12827 4d6b 73696E00 		.ascii	"sin\000"
 12828 4d6f 73696E00 		.ascii	"sin\000"
 12829 4d73 07       		.byte	0x7
 12830 4d74 58       		.byte	0x58
 12831 4d75 00       		.byte	0
 12832              		.section	.debug_abbrev,"",%progbits
 12833              	.Ldebug_abbrev0:
 12834 0000 01       		.uleb128 0x1
 12835 0001 11       		.uleb128 0x11
 12836 0002 01       		.byte	0x1
 12837 0003 25       		.uleb128 0x25
 12838 0004 0E       		.uleb128 0xe
 12839 0005 13       		.uleb128 0x13
 12840 0006 0B       		.uleb128 0xb
 12841 0007 03       		.uleb128 0x3
 12842 0008 0E       		.uleb128 0xe
 12843 0009 1B       		.uleb128 0x1b
 12844 000a 0E       		.uleb128 0xe
 12845 000b 55       		.uleb128 0x55
 12846 000c 17       		.uleb128 0x17
 12847 000d 11       		.uleb128 0x11
 12848 000e 01       		.uleb128 0x1
 12849 000f 10       		.uleb128 0x10
 12850 0010 17       		.uleb128 0x17
 12851 0011 00       		.byte	0
 12852 0012 00       		.byte	0
 12853 0013 02       		.uleb128 0x2
 12854 0014 24       		.uleb128 0x24
 12855 0015 00       		.byte	0
ARM GAS  /var/folders/qd/4mxf5pkd0zdf0b9dd1hp39180000gn/T//cc7TiL7h.s 			page 227


 12856 0016 0B       		.uleb128 0xb
 12857 0017 0B       		.uleb128 0xb
 12858 0018 3E       		.uleb128 0x3e
 12859 0019 0B       		.uleb128 0xb
 12860 001a 03       		.uleb128 0x3
 12861 001b 0E       		.uleb128 0xe
 12862 001c 00       		.byte	0
 12863 001d 00       		.byte	0
 12864 001e 03       		.uleb128 0x3
 12865 001f 24       		.uleb128 0x24
 12866 0020 00       		.byte	0
 12867 0021 0B       		.uleb128 0xb
 12868 0022 0B       		.uleb128 0xb
 12869 0023 3E       		.uleb128 0x3e
 12870 0024 0B       		.uleb128 0xb
 12871 0025 03       		.uleb128 0x3
 12872 0026 08       		.uleb128 0x8
 12873 0027 00       		.byte	0
 12874 0028 00       		.byte	0
 12875 0029 04       		.uleb128 0x4
 12876 002a 16       		.uleb128 0x16
 12877 002b 00       		.byte	0
 12878 002c 03       		.uleb128 0x3
 12879 002d 0E       		.uleb128 0xe
 12880 002e 3A       		.uleb128 0x3a
 12881 002f 0B       		.uleb128 0xb
 12882 0030 3B       		.uleb128 0x3b
 12883 0031 0B       		.uleb128 0xb
 12884 0032 49       		.uleb128 0x49
 12885 0033 13       		.uleb128 0x13
 12886 0034 00       		.byte	0
 12887 0035 00       		.byte	0
 12888 0036 05       		.uleb128 0x5
 12889 0037 0F       		.uleb128 0xf
 12890 0038 00       		.byte	0
 12891 0039 0B       		.uleb128 0xb
 12892 003a 0B       		.uleb128 0xb
 12893 003b 49       		.uleb128 0x49
 12894 003c 13       		.uleb128 0x13
 12895 003d 00       		.byte	0
 12896 003e 00       		.byte	0
 12897 003f 06       		.uleb128 0x6
 12898 0040 13       		.uleb128 0x13
 12899 0041 00       		.byte	0
 12900 0042 03       		.uleb128 0x3
 12901 0043 0E       		.uleb128 0xe
 12902 0044 3C       		.uleb128 0x3c
 12903 0045 19       		.uleb128 0x19
 12904 0046 00       		.byte	0
 12905 0047 00       		.byte	0
 12906 0048 07       		.uleb128 0x7
 12907 0049 16       		.uleb128 0x16
 12908 004a 00       		.byte	0
 12909 004b 03       		.uleb128 0x3
 12910 004c 0E       		.uleb128 0xe
 12911 004d 3A       		.uleb128 0x3a
 12912 004e 0B       		.uleb128 0xb
ARM GAS  /var/folders/qd/4mxf5pkd0zdf0b9dd1hp39180000gn/T//cc7TiL7h.s 			page 228


 12913 004f 3B       		.uleb128 0x3b
 12914 0050 05       		.uleb128 0x5
 12915 0051 49       		.uleb128 0x49
 12916 0052 13       		.uleb128 0x13
 12917 0053 00       		.byte	0
 12918 0054 00       		.byte	0
 12919 0055 08       		.uleb128 0x8
 12920 0056 17       		.uleb128 0x17
 12921 0057 01       		.byte	0x1
 12922 0058 0B       		.uleb128 0xb
 12923 0059 0B       		.uleb128 0xb
 12924 005a 3A       		.uleb128 0x3a
 12925 005b 0B       		.uleb128 0xb
 12926 005c 3B       		.uleb128 0x3b
 12927 005d 0B       		.uleb128 0xb
 12928 005e 01       		.uleb128 0x1
 12929 005f 13       		.uleb128 0x13
 12930 0060 00       		.byte	0
 12931 0061 00       		.byte	0
 12932 0062 09       		.uleb128 0x9
 12933 0063 0D       		.uleb128 0xd
 12934 0064 00       		.byte	0
 12935 0065 03       		.uleb128 0x3
 12936 0066 0E       		.uleb128 0xe
 12937 0067 3A       		.uleb128 0x3a
 12938 0068 0B       		.uleb128 0xb
 12939 0069 3B       		.uleb128 0x3b
 12940 006a 0B       		.uleb128 0xb
 12941 006b 49       		.uleb128 0x49
 12942 006c 13       		.uleb128 0x13
 12943 006d 00       		.byte	0
 12944 006e 00       		.byte	0
 12945 006f 0A       		.uleb128 0xa
 12946 0070 01       		.uleb128 0x1
 12947 0071 01       		.byte	0x1
 12948 0072 49       		.uleb128 0x49
 12949 0073 13       		.uleb128 0x13
 12950 0074 01       		.uleb128 0x1
 12951 0075 13       		.uleb128 0x13
 12952 0076 00       		.byte	0
 12953 0077 00       		.byte	0
 12954 0078 0B       		.uleb128 0xb
 12955 0079 21       		.uleb128 0x21
 12956 007a 00       		.byte	0
 12957 007b 49       		.uleb128 0x49
 12958 007c 13       		.uleb128 0x13
 12959 007d 2F       		.uleb128 0x2f
 12960 007e 0B       		.uleb128 0xb
 12961 007f 00       		.byte	0
 12962 0080 00       		.byte	0
 12963 0081 0C       		.uleb128 0xc
 12964 0082 13       		.uleb128 0x13
 12965 0083 01       		.byte	0x1
 12966 0084 0B       		.uleb128 0xb
 12967 0085 0B       		.uleb128 0xb
 12968 0086 3A       		.uleb128 0x3a
 12969 0087 0B       		.uleb128 0xb
ARM GAS  /var/folders/qd/4mxf5pkd0zdf0b9dd1hp39180000gn/T//cc7TiL7h.s 			page 229


 12970 0088 3B       		.uleb128 0x3b
 12971 0089 0B       		.uleb128 0xb
 12972 008a 01       		.uleb128 0x1
 12973 008b 13       		.uleb128 0x13
 12974 008c 00       		.byte	0
 12975 008d 00       		.byte	0
 12976 008e 0D       		.uleb128 0xd
 12977 008f 0D       		.uleb128 0xd
 12978 0090 00       		.byte	0
 12979 0091 03       		.uleb128 0x3
 12980 0092 0E       		.uleb128 0xe
 12981 0093 3A       		.uleb128 0x3a
 12982 0094 0B       		.uleb128 0xb
 12983 0095 3B       		.uleb128 0x3b
 12984 0096 0B       		.uleb128 0xb
 12985 0097 49       		.uleb128 0x49
 12986 0098 13       		.uleb128 0x13
 12987 0099 38       		.uleb128 0x38
 12988 009a 0B       		.uleb128 0xb
 12989 009b 00       		.byte	0
 12990 009c 00       		.byte	0
 12991 009d 0E       		.uleb128 0xe
 12992 009e 0F       		.uleb128 0xf
 12993 009f 00       		.byte	0
 12994 00a0 0B       		.uleb128 0xb
 12995 00a1 0B       		.uleb128 0xb
 12996 00a2 00       		.byte	0
 12997 00a3 00       		.byte	0
 12998 00a4 0F       		.uleb128 0xf
 12999 00a5 26       		.uleb128 0x26
 13000 00a6 00       		.byte	0
 13001 00a7 49       		.uleb128 0x49
 13002 00a8 13       		.uleb128 0x13
 13003 00a9 00       		.byte	0
 13004 00aa 00       		.byte	0
 13005 00ab 10       		.uleb128 0x10
 13006 00ac 13       		.uleb128 0x13
 13007 00ad 01       		.byte	0x1
 13008 00ae 03       		.uleb128 0x3
 13009 00af 0E       		.uleb128 0xe
 13010 00b0 0B       		.uleb128 0xb
 13011 00b1 0B       		.uleb128 0xb
 13012 00b2 3A       		.uleb128 0x3a
 13013 00b3 0B       		.uleb128 0xb
 13014 00b4 3B       		.uleb128 0x3b
 13015 00b5 0B       		.uleb128 0xb
 13016 00b6 01       		.uleb128 0x1
 13017 00b7 13       		.uleb128 0x13
 13018 00b8 00       		.byte	0
 13019 00b9 00       		.byte	0
 13020 00ba 11       		.uleb128 0x11
 13021 00bb 0D       		.uleb128 0xd
 13022 00bc 00       		.byte	0
 13023 00bd 03       		.uleb128 0x3
 13024 00be 08       		.uleb128 0x8
 13025 00bf 3A       		.uleb128 0x3a
 13026 00c0 0B       		.uleb128 0xb
ARM GAS  /var/folders/qd/4mxf5pkd0zdf0b9dd1hp39180000gn/T//cc7TiL7h.s 			page 230


 13027 00c1 3B       		.uleb128 0x3b
 13028 00c2 0B       		.uleb128 0xb
 13029 00c3 49       		.uleb128 0x49
 13030 00c4 13       		.uleb128 0x13
 13031 00c5 38       		.uleb128 0x38
 13032 00c6 0B       		.uleb128 0xb
 13033 00c7 00       		.byte	0
 13034 00c8 00       		.byte	0
 13035 00c9 12       		.uleb128 0x12
 13036 00ca 13       		.uleb128 0x13
 13037 00cb 01       		.byte	0x1
 13038 00cc 03       		.uleb128 0x3
 13039 00cd 0E       		.uleb128 0xe
 13040 00ce 0B       		.uleb128 0xb
 13041 00cf 05       		.uleb128 0x5
 13042 00d0 3A       		.uleb128 0x3a
 13043 00d1 0B       		.uleb128 0xb
 13044 00d2 3B       		.uleb128 0x3b
 13045 00d3 0B       		.uleb128 0xb
 13046 00d4 01       		.uleb128 0x1
 13047 00d5 13       		.uleb128 0x13
 13048 00d6 00       		.byte	0
 13049 00d7 00       		.byte	0
 13050 00d8 13       		.uleb128 0x13
 13051 00d9 0D       		.uleb128 0xd
 13052 00da 00       		.byte	0
 13053 00db 03       		.uleb128 0x3
 13054 00dc 0E       		.uleb128 0xe
 13055 00dd 3A       		.uleb128 0x3a
 13056 00de 0B       		.uleb128 0xb
 13057 00df 3B       		.uleb128 0x3b
 13058 00e0 0B       		.uleb128 0xb
 13059 00e1 49       		.uleb128 0x49
 13060 00e2 13       		.uleb128 0x13
 13061 00e3 38       		.uleb128 0x38
 13062 00e4 05       		.uleb128 0x5
 13063 00e5 00       		.byte	0
 13064 00e6 00       		.byte	0
 13065 00e7 14       		.uleb128 0x14
 13066 00e8 15       		.uleb128 0x15
 13067 00e9 00       		.byte	0
 13068 00ea 27       		.uleb128 0x27
 13069 00eb 19       		.uleb128 0x19
 13070 00ec 00       		.byte	0
 13071 00ed 00       		.byte	0
 13072 00ee 15       		.uleb128 0x15
 13073 00ef 15       		.uleb128 0x15
 13074 00f0 01       		.byte	0x1
 13075 00f1 27       		.uleb128 0x27
 13076 00f2 19       		.uleb128 0x19
 13077 00f3 49       		.uleb128 0x49
 13078 00f4 13       		.uleb128 0x13
 13079 00f5 01       		.uleb128 0x1
 13080 00f6 13       		.uleb128 0x13
 13081 00f7 00       		.byte	0
 13082 00f8 00       		.byte	0
 13083 00f9 16       		.uleb128 0x16
ARM GAS  /var/folders/qd/4mxf5pkd0zdf0b9dd1hp39180000gn/T//cc7TiL7h.s 			page 231


 13084 00fa 05       		.uleb128 0x5
 13085 00fb 00       		.byte	0
 13086 00fc 49       		.uleb128 0x49
 13087 00fd 13       		.uleb128 0x13
 13088 00fe 00       		.byte	0
 13089 00ff 00       		.byte	0
 13090 0100 17       		.uleb128 0x17
 13091 0101 13       		.uleb128 0x13
 13092 0102 01       		.byte	0x1
 13093 0103 03       		.uleb128 0x3
 13094 0104 0E       		.uleb128 0xe
 13095 0105 0B       		.uleb128 0xb
 13096 0106 05       		.uleb128 0x5
 13097 0107 3A       		.uleb128 0x3a
 13098 0108 0B       		.uleb128 0xb
 13099 0109 3B       		.uleb128 0x3b
 13100 010a 05       		.uleb128 0x5
 13101 010b 01       		.uleb128 0x1
 13102 010c 13       		.uleb128 0x13
 13103 010d 00       		.byte	0
 13104 010e 00       		.byte	0
 13105 010f 18       		.uleb128 0x18
 13106 0110 0D       		.uleb128 0xd
 13107 0111 00       		.byte	0
 13108 0112 03       		.uleb128 0x3
 13109 0113 0E       		.uleb128 0xe
 13110 0114 3A       		.uleb128 0x3a
 13111 0115 0B       		.uleb128 0xb
 13112 0116 3B       		.uleb128 0x3b
 13113 0117 05       		.uleb128 0x5
 13114 0118 49       		.uleb128 0x49
 13115 0119 13       		.uleb128 0x13
 13116 011a 38       		.uleb128 0x38
 13117 011b 0B       		.uleb128 0xb
 13118 011c 00       		.byte	0
 13119 011d 00       		.byte	0
 13120 011e 19       		.uleb128 0x19
 13121 011f 0D       		.uleb128 0xd
 13122 0120 00       		.byte	0
 13123 0121 03       		.uleb128 0x3
 13124 0122 0E       		.uleb128 0xe
 13125 0123 3A       		.uleb128 0x3a
 13126 0124 0B       		.uleb128 0xb
 13127 0125 3B       		.uleb128 0x3b
 13128 0126 05       		.uleb128 0x5
 13129 0127 49       		.uleb128 0x49
 13130 0128 13       		.uleb128 0x13
 13131 0129 38       		.uleb128 0x38
 13132 012a 05       		.uleb128 0x5
 13133 012b 00       		.byte	0
 13134 012c 00       		.byte	0
 13135 012d 1A       		.uleb128 0x1a
 13136 012e 35       		.uleb128 0x35
 13137 012f 00       		.byte	0
 13138 0130 49       		.uleb128 0x49
 13139 0131 13       		.uleb128 0x13
 13140 0132 00       		.byte	0
ARM GAS  /var/folders/qd/4mxf5pkd0zdf0b9dd1hp39180000gn/T//cc7TiL7h.s 			page 232


 13141 0133 00       		.byte	0
 13142 0134 1B       		.uleb128 0x1b
 13143 0135 13       		.uleb128 0x13
 13144 0136 01       		.byte	0x1
 13145 0137 03       		.uleb128 0x3
 13146 0138 0E       		.uleb128 0xe
 13147 0139 0B       		.uleb128 0xb
 13148 013a 0B       		.uleb128 0xb
 13149 013b 3A       		.uleb128 0x3a
 13150 013c 0B       		.uleb128 0xb
 13151 013d 3B       		.uleb128 0x3b
 13152 013e 05       		.uleb128 0x5
 13153 013f 01       		.uleb128 0x1
 13154 0140 13       		.uleb128 0x13
 13155 0141 00       		.byte	0
 13156 0142 00       		.byte	0
 13157 0143 1C       		.uleb128 0x1c
 13158 0144 13       		.uleb128 0x13
 13159 0145 01       		.byte	0x1
 13160 0146 0B       		.uleb128 0xb
 13161 0147 0B       		.uleb128 0xb
 13162 0148 3A       		.uleb128 0x3a
 13163 0149 0B       		.uleb128 0xb
 13164 014a 3B       		.uleb128 0x3b
 13165 014b 05       		.uleb128 0x5
 13166 014c 01       		.uleb128 0x1
 13167 014d 13       		.uleb128 0x13
 13168 014e 00       		.byte	0
 13169 014f 00       		.byte	0
 13170 0150 1D       		.uleb128 0x1d
 13171 0151 17       		.uleb128 0x17
 13172 0152 01       		.byte	0x1
 13173 0153 0B       		.uleb128 0xb
 13174 0154 0B       		.uleb128 0xb
 13175 0155 3A       		.uleb128 0x3a
 13176 0156 0B       		.uleb128 0xb
 13177 0157 3B       		.uleb128 0x3b
 13178 0158 05       		.uleb128 0x5
 13179 0159 01       		.uleb128 0x1
 13180 015a 13       		.uleb128 0x13
 13181 015b 00       		.byte	0
 13182 015c 00       		.byte	0
 13183 015d 1E       		.uleb128 0x1e
 13184 015e 0D       		.uleb128 0xd
 13185 015f 00       		.byte	0
 13186 0160 03       		.uleb128 0x3
 13187 0161 0E       		.uleb128 0xe
 13188 0162 3A       		.uleb128 0x3a
 13189 0163 0B       		.uleb128 0xb
 13190 0164 3B       		.uleb128 0x3b
 13191 0165 05       		.uleb128 0x5
 13192 0166 49       		.uleb128 0x49
 13193 0167 13       		.uleb128 0x13
 13194 0168 00       		.byte	0
 13195 0169 00       		.byte	0
 13196 016a 1F       		.uleb128 0x1f
 13197 016b 15       		.uleb128 0x15
ARM GAS  /var/folders/qd/4mxf5pkd0zdf0b9dd1hp39180000gn/T//cc7TiL7h.s 			page 233


 13198 016c 01       		.byte	0x1
 13199 016d 27       		.uleb128 0x27
 13200 016e 19       		.uleb128 0x19
 13201 016f 01       		.uleb128 0x1
 13202 0170 13       		.uleb128 0x13
 13203 0171 00       		.byte	0
 13204 0172 00       		.byte	0
 13205 0173 20       		.uleb128 0x20
 13206 0174 34       		.uleb128 0x34
 13207 0175 00       		.byte	0
 13208 0176 03       		.uleb128 0x3
 13209 0177 0E       		.uleb128 0xe
 13210 0178 3A       		.uleb128 0x3a
 13211 0179 0B       		.uleb128 0xb
 13212 017a 3B       		.uleb128 0x3b
 13213 017b 05       		.uleb128 0x5
 13214 017c 49       		.uleb128 0x49
 13215 017d 13       		.uleb128 0x13
 13216 017e 3F       		.uleb128 0x3f
 13217 017f 19       		.uleb128 0x19
 13218 0180 3C       		.uleb128 0x3c
 13219 0181 19       		.uleb128 0x19
 13220 0182 00       		.byte	0
 13221 0183 00       		.byte	0
 13222 0184 21       		.uleb128 0x21
 13223 0185 04       		.uleb128 0x4
 13224 0186 01       		.byte	0x1
 13225 0187 03       		.uleb128 0x3
 13226 0188 0E       		.uleb128 0xe
 13227 0189 3E       		.uleb128 0x3e
 13228 018a 0B       		.uleb128 0xb
 13229 018b 0B       		.uleb128 0xb
 13230 018c 0B       		.uleb128 0xb
 13231 018d 49       		.uleb128 0x49
 13232 018e 13       		.uleb128 0x13
 13233 018f 3A       		.uleb128 0x3a
 13234 0190 0B       		.uleb128 0xb
 13235 0191 3B       		.uleb128 0x3b
 13236 0192 05       		.uleb128 0x5
 13237 0193 01       		.uleb128 0x1
 13238 0194 13       		.uleb128 0x13
 13239 0195 00       		.byte	0
 13240 0196 00       		.byte	0
 13241 0197 22       		.uleb128 0x22
 13242 0198 28       		.uleb128 0x28
 13243 0199 00       		.byte	0
 13244 019a 03       		.uleb128 0x3
 13245 019b 0E       		.uleb128 0xe
 13246 019c 1C       		.uleb128 0x1c
 13247 019d 0D       		.uleb128 0xd
 13248 019e 00       		.byte	0
 13249 019f 00       		.byte	0
 13250 01a0 23       		.uleb128 0x23
 13251 01a1 28       		.uleb128 0x28
 13252 01a2 00       		.byte	0
 13253 01a3 03       		.uleb128 0x3
 13254 01a4 0E       		.uleb128 0xe
ARM GAS  /var/folders/qd/4mxf5pkd0zdf0b9dd1hp39180000gn/T//cc7TiL7h.s 			page 234


 13255 01a5 1C       		.uleb128 0x1c
 13256 01a6 0B       		.uleb128 0xb
 13257 01a7 00       		.byte	0
 13258 01a8 00       		.byte	0
 13259 01a9 24       		.uleb128 0x24
 13260 01aa 0D       		.uleb128 0xd
 13261 01ab 00       		.byte	0
 13262 01ac 03       		.uleb128 0x3
 13263 01ad 08       		.uleb128 0x8
 13264 01ae 3A       		.uleb128 0x3a
 13265 01af 0B       		.uleb128 0xb
 13266 01b0 3B       		.uleb128 0x3b
 13267 01b1 05       		.uleb128 0x5
 13268 01b2 49       		.uleb128 0x49
 13269 01b3 13       		.uleb128 0x13
 13270 01b4 38       		.uleb128 0x38
 13271 01b5 0B       		.uleb128 0xb
 13272 01b6 00       		.byte	0
 13273 01b7 00       		.byte	0
 13274 01b8 25       		.uleb128 0x25
 13275 01b9 0D       		.uleb128 0xd
 13276 01ba 00       		.byte	0
 13277 01bb 03       		.uleb128 0x3
 13278 01bc 08       		.uleb128 0x8
 13279 01bd 3A       		.uleb128 0x3a
 13280 01be 0B       		.uleb128 0xb
 13281 01bf 3B       		.uleb128 0x3b
 13282 01c0 05       		.uleb128 0x5
 13283 01c1 49       		.uleb128 0x49
 13284 01c2 13       		.uleb128 0x13
 13285 01c3 38       		.uleb128 0x38
 13286 01c4 05       		.uleb128 0x5
 13287 01c5 00       		.byte	0
 13288 01c6 00       		.byte	0
 13289 01c7 26       		.uleb128 0x26
 13290 01c8 34       		.uleb128 0x34
 13291 01c9 00       		.byte	0
 13292 01ca 03       		.uleb128 0x3
 13293 01cb 0E       		.uleb128 0xe
 13294 01cc 3A       		.uleb128 0x3a
 13295 01cd 0B       		.uleb128 0xb
 13296 01ce 3B       		.uleb128 0x3b
 13297 01cf 0B       		.uleb128 0xb
 13298 01d0 49       		.uleb128 0x49
 13299 01d1 13       		.uleb128 0x13
 13300 01d2 3F       		.uleb128 0x3f
 13301 01d3 19       		.uleb128 0x19
 13302 01d4 3C       		.uleb128 0x3c
 13303 01d5 19       		.uleb128 0x19
 13304 01d6 00       		.byte	0
 13305 01d7 00       		.byte	0
 13306 01d8 27       		.uleb128 0x27
 13307 01d9 13       		.uleb128 0x13
 13308 01da 01       		.byte	0x1
 13309 01db 0B       		.uleb128 0xb
 13310 01dc 05       		.uleb128 0x5
 13311 01dd 3A       		.uleb128 0x3a
ARM GAS  /var/folders/qd/4mxf5pkd0zdf0b9dd1hp39180000gn/T//cc7TiL7h.s 			page 235


 13312 01de 0B       		.uleb128 0xb
 13313 01df 3B       		.uleb128 0x3b
 13314 01e0 05       		.uleb128 0x5
 13315 01e1 01       		.uleb128 0x1
 13316 01e2 13       		.uleb128 0x13
 13317 01e3 00       		.byte	0
 13318 01e4 00       		.byte	0
 13319 01e5 28       		.uleb128 0x28
 13320 01e6 13       		.uleb128 0x13
 13321 01e7 01       		.byte	0x1
 13322 01e8 0B       		.uleb128 0xb
 13323 01e9 05       		.uleb128 0x5
 13324 01ea 3A       		.uleb128 0x3a
 13325 01eb 0B       		.uleb128 0xb
 13326 01ec 3B       		.uleb128 0x3b
 13327 01ed 0B       		.uleb128 0xb
 13328 01ee 01       		.uleb128 0x1
 13329 01ef 13       		.uleb128 0x13
 13330 01f0 00       		.byte	0
 13331 01f1 00       		.byte	0
 13332 01f2 29       		.uleb128 0x29
 13333 01f3 34       		.uleb128 0x34
 13334 01f4 00       		.byte	0
 13335 01f5 03       		.uleb128 0x3
 13336 01f6 08       		.uleb128 0x8
 13337 01f7 3A       		.uleb128 0x3a
 13338 01f8 0B       		.uleb128 0xb
 13339 01f9 3B       		.uleb128 0x3b
 13340 01fa 05       		.uleb128 0x5
 13341 01fb 49       		.uleb128 0x49
 13342 01fc 13       		.uleb128 0x13
 13343 01fd 3F       		.uleb128 0x3f
 13344 01fe 19       		.uleb128 0x19
 13345 01ff 3C       		.uleb128 0x3c
 13346 0200 19       		.uleb128 0x19
 13347 0201 00       		.byte	0
 13348 0202 00       		.byte	0
 13349 0203 2A       		.uleb128 0x2a
 13350 0204 04       		.uleb128 0x4
 13351 0205 01       		.byte	0x1
 13352 0206 3E       		.uleb128 0x3e
 13353 0207 0B       		.uleb128 0xb
 13354 0208 0B       		.uleb128 0xb
 13355 0209 0B       		.uleb128 0xb
 13356 020a 49       		.uleb128 0x49
 13357 020b 13       		.uleb128 0x13
 13358 020c 3A       		.uleb128 0x3a
 13359 020d 0B       		.uleb128 0xb
 13360 020e 3B       		.uleb128 0x3b
 13361 020f 0B       		.uleb128 0xb
 13362 0210 01       		.uleb128 0x1
 13363 0211 13       		.uleb128 0x13
 13364 0212 00       		.byte	0
 13365 0213 00       		.byte	0
 13366 0214 2B       		.uleb128 0x2b
 13367 0215 0D       		.uleb128 0xd
 13368 0216 00       		.byte	0
ARM GAS  /var/folders/qd/4mxf5pkd0zdf0b9dd1hp39180000gn/T//cc7TiL7h.s 			page 236


 13369 0217 03       		.uleb128 0x3
 13370 0218 08       		.uleb128 0x8
 13371 0219 3A       		.uleb128 0x3a
 13372 021a 0B       		.uleb128 0xb
 13373 021b 3B       		.uleb128 0x3b
 13374 021c 0B       		.uleb128 0xb
 13375 021d 49       		.uleb128 0x49
 13376 021e 13       		.uleb128 0x13
 13377 021f 00       		.byte	0
 13378 0220 00       		.byte	0
 13379 0221 2C       		.uleb128 0x2c
 13380 0222 04       		.uleb128 0x4
 13381 0223 01       		.byte	0x1
 13382 0224 3E       		.uleb128 0x3e
 13383 0225 0B       		.uleb128 0xb
 13384 0226 0B       		.uleb128 0xb
 13385 0227 0B       		.uleb128 0xb
 13386 0228 49       		.uleb128 0x49
 13387 0229 13       		.uleb128 0x13
 13388 022a 3A       		.uleb128 0x3a
 13389 022b 0B       		.uleb128 0xb
 13390 022c 3B       		.uleb128 0x3b
 13391 022d 05       		.uleb128 0x5
 13392 022e 01       		.uleb128 0x1
 13393 022f 13       		.uleb128 0x13
 13394 0230 00       		.byte	0
 13395 0231 00       		.byte	0
 13396 0232 2D       		.uleb128 0x2d
 13397 0233 26       		.uleb128 0x26
 13398 0234 00       		.byte	0
 13399 0235 00       		.byte	0
 13400 0236 00       		.byte	0
 13401 0237 2E       		.uleb128 0x2e
 13402 0238 13       		.uleb128 0x13
 13403 0239 01       		.byte	0x1
 13404 023a 0B       		.uleb128 0xb
 13405 023b 06       		.uleb128 0x6
 13406 023c 3A       		.uleb128 0x3a
 13407 023d 0B       		.uleb128 0xb
 13408 023e 3B       		.uleb128 0x3b
 13409 023f 0B       		.uleb128 0xb
 13410 0240 01       		.uleb128 0x1
 13411 0241 13       		.uleb128 0x13
 13412 0242 00       		.byte	0
 13413 0243 00       		.byte	0
 13414 0244 2F       		.uleb128 0x2f
 13415 0245 0D       		.uleb128 0xd
 13416 0246 00       		.byte	0
 13417 0247 03       		.uleb128 0x3
 13418 0248 08       		.uleb128 0x8
 13419 0249 3A       		.uleb128 0x3a
 13420 024a 0B       		.uleb128 0xb
 13421 024b 3B       		.uleb128 0x3b
 13422 024c 0B       		.uleb128 0xb
 13423 024d 49       		.uleb128 0x49
 13424 024e 13       		.uleb128 0x13
 13425 024f 38       		.uleb128 0x38
ARM GAS  /var/folders/qd/4mxf5pkd0zdf0b9dd1hp39180000gn/T//cc7TiL7h.s 			page 237


 13426 0250 05       		.uleb128 0x5
 13427 0251 00       		.byte	0
 13428 0252 00       		.byte	0
 13429 0253 30       		.uleb128 0x30
 13430 0254 21       		.uleb128 0x21
 13431 0255 00       		.byte	0
 13432 0256 49       		.uleb128 0x49
 13433 0257 13       		.uleb128 0x13
 13434 0258 2F       		.uleb128 0x2f
 13435 0259 05       		.uleb128 0x5
 13436 025a 00       		.byte	0
 13437 025b 00       		.byte	0
 13438 025c 31       		.uleb128 0x31
 13439 025d 34       		.uleb128 0x34
 13440 025e 00       		.byte	0
 13441 025f 03       		.uleb128 0x3
 13442 0260 0E       		.uleb128 0xe
 13443 0261 3A       		.uleb128 0x3a
 13444 0262 0B       		.uleb128 0xb
 13445 0263 3B       		.uleb128 0x3b
 13446 0264 0B       		.uleb128 0xb
 13447 0265 49       		.uleb128 0x49
 13448 0266 13       		.uleb128 0x13
 13449 0267 02       		.uleb128 0x2
 13450 0268 18       		.uleb128 0x18
 13451 0269 00       		.byte	0
 13452 026a 00       		.byte	0
 13453 026b 32       		.uleb128 0x32
 13454 026c 34       		.uleb128 0x34
 13455 026d 00       		.byte	0
 13456 026e 03       		.uleb128 0x3
 13457 026f 0E       		.uleb128 0xe
 13458 0270 3A       		.uleb128 0x3a
 13459 0271 0B       		.uleb128 0xb
 13460 0272 3B       		.uleb128 0x3b
 13461 0273 0B       		.uleb128 0xb
 13462 0274 49       		.uleb128 0x49
 13463 0275 13       		.uleb128 0x13
 13464 0276 3F       		.uleb128 0x3f
 13465 0277 19       		.uleb128 0x19
 13466 0278 02       		.uleb128 0x2
 13467 0279 18       		.uleb128 0x18
 13468 027a 00       		.byte	0
 13469 027b 00       		.byte	0
 13470 027c 33       		.uleb128 0x33
 13471 027d 2E       		.uleb128 0x2e
 13472 027e 01       		.byte	0x1
 13473 027f 3F       		.uleb128 0x3f
 13474 0280 19       		.uleb128 0x19
 13475 0281 03       		.uleb128 0x3
 13476 0282 0E       		.uleb128 0xe
 13477 0283 3A       		.uleb128 0x3a
 13478 0284 0B       		.uleb128 0xb
 13479 0285 3B       		.uleb128 0x3b
 13480 0286 05       		.uleb128 0x5
 13481 0287 11       		.uleb128 0x11
 13482 0288 01       		.uleb128 0x1
ARM GAS  /var/folders/qd/4mxf5pkd0zdf0b9dd1hp39180000gn/T//cc7TiL7h.s 			page 238


 13483 0289 12       		.uleb128 0x12
 13484 028a 06       		.uleb128 0x6
 13485 028b 40       		.uleb128 0x40
 13486 028c 18       		.uleb128 0x18
 13487 028d 9742     		.uleb128 0x2117
 13488 028f 19       		.uleb128 0x19
 13489 0290 01       		.uleb128 0x1
 13490 0291 13       		.uleb128 0x13
 13491 0292 00       		.byte	0
 13492 0293 00       		.byte	0
 13493 0294 34       		.uleb128 0x34
 13494 0295 898201   		.uleb128 0x4109
 13495 0298 00       		.byte	0
 13496 0299 11       		.uleb128 0x11
 13497 029a 01       		.uleb128 0x1
 13498 029b 31       		.uleb128 0x31
 13499 029c 13       		.uleb128 0x13
 13500 029d 00       		.byte	0
 13501 029e 00       		.byte	0
 13502 029f 35       		.uleb128 0x35
 13503 02a0 2E       		.uleb128 0x2e
 13504 02a1 01       		.byte	0x1
 13505 02a2 3F       		.uleb128 0x3f
 13506 02a3 19       		.uleb128 0x19
 13507 02a4 03       		.uleb128 0x3
 13508 02a5 0E       		.uleb128 0xe
 13509 02a6 3A       		.uleb128 0x3a
 13510 02a7 0B       		.uleb128 0xb
 13511 02a8 3B       		.uleb128 0x3b
 13512 02a9 05       		.uleb128 0x5
 13513 02aa 27       		.uleb128 0x27
 13514 02ab 19       		.uleb128 0x19
 13515 02ac 49       		.uleb128 0x49
 13516 02ad 13       		.uleb128 0x13
 13517 02ae 11       		.uleb128 0x11
 13518 02af 01       		.uleb128 0x1
 13519 02b0 12       		.uleb128 0x12
 13520 02b1 06       		.uleb128 0x6
 13521 02b2 40       		.uleb128 0x40
 13522 02b3 18       		.uleb128 0x18
 13523 02b4 9742     		.uleb128 0x2117
 13524 02b6 19       		.uleb128 0x19
 13525 02b7 01       		.uleb128 0x1
 13526 02b8 13       		.uleb128 0x13
 13527 02b9 00       		.byte	0
 13528 02ba 00       		.byte	0
 13529 02bb 36       		.uleb128 0x36
 13530 02bc 05       		.uleb128 0x5
 13531 02bd 00       		.byte	0
 13532 02be 03       		.uleb128 0x3
 13533 02bf 0E       		.uleb128 0xe
 13534 02c0 3A       		.uleb128 0x3a
 13535 02c1 0B       		.uleb128 0xb
 13536 02c2 3B       		.uleb128 0x3b
 13537 02c3 05       		.uleb128 0x5
 13538 02c4 49       		.uleb128 0x49
 13539 02c5 13       		.uleb128 0x13
ARM GAS  /var/folders/qd/4mxf5pkd0zdf0b9dd1hp39180000gn/T//cc7TiL7h.s 			page 239


 13540 02c6 02       		.uleb128 0x2
 13541 02c7 18       		.uleb128 0x18
 13542 02c8 00       		.byte	0
 13543 02c9 00       		.byte	0
 13544 02ca 37       		.uleb128 0x37
 13545 02cb 2E       		.uleb128 0x2e
 13546 02cc 01       		.byte	0x1
 13547 02cd 3F       		.uleb128 0x3f
 13548 02ce 19       		.uleb128 0x19
 13549 02cf 03       		.uleb128 0x3
 13550 02d0 0E       		.uleb128 0xe
 13551 02d1 3A       		.uleb128 0x3a
 13552 02d2 0B       		.uleb128 0xb
 13553 02d3 3B       		.uleb128 0x3b
 13554 02d4 05       		.uleb128 0x5
 13555 02d5 27       		.uleb128 0x27
 13556 02d6 19       		.uleb128 0x19
 13557 02d7 11       		.uleb128 0x11
 13558 02d8 01       		.uleb128 0x1
 13559 02d9 12       		.uleb128 0x12
 13560 02da 06       		.uleb128 0x6
 13561 02db 40       		.uleb128 0x40
 13562 02dc 18       		.uleb128 0x18
 13563 02dd 9742     		.uleb128 0x2117
 13564 02df 19       		.uleb128 0x19
 13565 02e0 01       		.uleb128 0x1
 13566 02e1 13       		.uleb128 0x13
 13567 02e2 00       		.byte	0
 13568 02e3 00       		.byte	0
 13569 02e4 38       		.uleb128 0x38
 13570 02e5 05       		.uleb128 0x5
 13571 02e6 00       		.byte	0
 13572 02e7 03       		.uleb128 0x3
 13573 02e8 0E       		.uleb128 0xe
 13574 02e9 3A       		.uleb128 0x3a
 13575 02ea 0B       		.uleb128 0xb
 13576 02eb 3B       		.uleb128 0x3b
 13577 02ec 05       		.uleb128 0x5
 13578 02ed 49       		.uleb128 0x49
 13579 02ee 13       		.uleb128 0x13
 13580 02ef 02       		.uleb128 0x2
 13581 02f0 17       		.uleb128 0x17
 13582 02f1 00       		.byte	0
 13583 02f2 00       		.byte	0
 13584 02f3 39       		.uleb128 0x39
 13585 02f4 34       		.uleb128 0x34
 13586 02f5 00       		.byte	0
 13587 02f6 03       		.uleb128 0x3
 13588 02f7 0E       		.uleb128 0xe
 13589 02f8 3A       		.uleb128 0x3a
 13590 02f9 0B       		.uleb128 0xb
 13591 02fa 3B       		.uleb128 0x3b
 13592 02fb 05       		.uleb128 0x5
 13593 02fc 49       		.uleb128 0x49
 13594 02fd 13       		.uleb128 0x13
 13595 02fe 02       		.uleb128 0x2
 13596 02ff 17       		.uleb128 0x17
ARM GAS  /var/folders/qd/4mxf5pkd0zdf0b9dd1hp39180000gn/T//cc7TiL7h.s 			page 240


 13597 0300 00       		.byte	0
 13598 0301 00       		.byte	0
 13599 0302 3A       		.uleb128 0x3a
 13600 0303 0B       		.uleb128 0xb
 13601 0304 01       		.byte	0x1
 13602 0305 11       		.uleb128 0x11
 13603 0306 01       		.uleb128 0x1
 13604 0307 12       		.uleb128 0x12
 13605 0308 06       		.uleb128 0x6
 13606 0309 01       		.uleb128 0x1
 13607 030a 13       		.uleb128 0x13
 13608 030b 00       		.byte	0
 13609 030c 00       		.byte	0
 13610 030d 3B       		.uleb128 0x3b
 13611 030e 34       		.uleb128 0x34
 13612 030f 00       		.byte	0
 13613 0310 03       		.uleb128 0x3
 13614 0311 08       		.uleb128 0x8
 13615 0312 3A       		.uleb128 0x3a
 13616 0313 0B       		.uleb128 0xb
 13617 0314 3B       		.uleb128 0x3b
 13618 0315 05       		.uleb128 0x5
 13619 0316 49       		.uleb128 0x49
 13620 0317 13       		.uleb128 0x13
 13621 0318 02       		.uleb128 0x2
 13622 0319 17       		.uleb128 0x17
 13623 031a 00       		.byte	0
 13624 031b 00       		.byte	0
 13625 031c 3C       		.uleb128 0x3c
 13626 031d 0B       		.uleb128 0xb
 13627 031e 01       		.byte	0x1
 13628 031f 55       		.uleb128 0x55
 13629 0320 17       		.uleb128 0x17
 13630 0321 01       		.uleb128 0x1
 13631 0322 13       		.uleb128 0x13
 13632 0323 00       		.byte	0
 13633 0324 00       		.byte	0
 13634 0325 3D       		.uleb128 0x3d
 13635 0326 1D       		.uleb128 0x1d
 13636 0327 01       		.byte	0x1
 13637 0328 31       		.uleb128 0x31
 13638 0329 13       		.uleb128 0x13
 13639 032a 11       		.uleb128 0x11
 13640 032b 01       		.uleb128 0x1
 13641 032c 12       		.uleb128 0x12
 13642 032d 06       		.uleb128 0x6
 13643 032e 58       		.uleb128 0x58
 13644 032f 0B       		.uleb128 0xb
 13645 0330 59       		.uleb128 0x59
 13646 0331 05       		.uleb128 0x5
 13647 0332 01       		.uleb128 0x1
 13648 0333 13       		.uleb128 0x13
 13649 0334 00       		.byte	0
 13650 0335 00       		.byte	0
 13651 0336 3E       		.uleb128 0x3e
 13652 0337 05       		.uleb128 0x5
 13653 0338 00       		.byte	0
ARM GAS  /var/folders/qd/4mxf5pkd0zdf0b9dd1hp39180000gn/T//cc7TiL7h.s 			page 241


 13654 0339 31       		.uleb128 0x31
 13655 033a 13       		.uleb128 0x13
 13656 033b 00       		.byte	0
 13657 033c 00       		.byte	0
 13658 033d 3F       		.uleb128 0x3f
 13659 033e 0B       		.uleb128 0xb
 13660 033f 01       		.byte	0x1
 13661 0340 31       		.uleb128 0x31
 13662 0341 13       		.uleb128 0x13
 13663 0342 11       		.uleb128 0x11
 13664 0343 01       		.uleb128 0x1
 13665 0344 12       		.uleb128 0x12
 13666 0345 06       		.uleb128 0x6
 13667 0346 00       		.byte	0
 13668 0347 00       		.byte	0
 13669 0348 40       		.uleb128 0x40
 13670 0349 34       		.uleb128 0x34
 13671 034a 00       		.byte	0
 13672 034b 31       		.uleb128 0x31
 13673 034c 13       		.uleb128 0x13
 13674 034d 00       		.byte	0
 13675 034e 00       		.byte	0
 13676 034f 41       		.uleb128 0x41
 13677 0350 1D       		.uleb128 0x1d
 13678 0351 01       		.byte	0x1
 13679 0352 31       		.uleb128 0x31
 13680 0353 13       		.uleb128 0x13
 13681 0354 52       		.uleb128 0x52
 13682 0355 01       		.uleb128 0x1
 13683 0356 55       		.uleb128 0x55
 13684 0357 17       		.uleb128 0x17
 13685 0358 58       		.uleb128 0x58
 13686 0359 0B       		.uleb128 0xb
 13687 035a 59       		.uleb128 0x59
 13688 035b 05       		.uleb128 0x5
 13689 035c 00       		.byte	0
 13690 035d 00       		.byte	0
 13691 035e 42       		.uleb128 0x42
 13692 035f 05       		.uleb128 0x5
 13693 0360 00       		.byte	0
 13694 0361 31       		.uleb128 0x31
 13695 0362 13       		.uleb128 0x13
 13696 0363 02       		.uleb128 0x2
 13697 0364 17       		.uleb128 0x17
 13698 0365 00       		.byte	0
 13699 0366 00       		.byte	0
 13700 0367 43       		.uleb128 0x43
 13701 0368 898201   		.uleb128 0x4109
 13702 036b 01       		.byte	0x1
 13703 036c 11       		.uleb128 0x11
 13704 036d 01       		.uleb128 0x1
 13705 036e 31       		.uleb128 0x31
 13706 036f 13       		.uleb128 0x13
 13707 0370 01       		.uleb128 0x1
 13708 0371 13       		.uleb128 0x13
 13709 0372 00       		.byte	0
 13710 0373 00       		.byte	0
ARM GAS  /var/folders/qd/4mxf5pkd0zdf0b9dd1hp39180000gn/T//cc7TiL7h.s 			page 242


 13711 0374 44       		.uleb128 0x44
 13712 0375 8A8201   		.uleb128 0x410a
 13713 0378 00       		.byte	0
 13714 0379 02       		.uleb128 0x2
 13715 037a 18       		.uleb128 0x18
 13716 037b 9142     		.uleb128 0x2111
 13717 037d 18       		.uleb128 0x18
 13718 037e 00       		.byte	0
 13719 037f 00       		.byte	0
 13720 0380 45       		.uleb128 0x45
 13721 0381 898201   		.uleb128 0x4109
 13722 0384 00       		.byte	0
 13723 0385 11       		.uleb128 0x11
 13724 0386 01       		.uleb128 0x1
 13725 0387 9542     		.uleb128 0x2115
 13726 0389 19       		.uleb128 0x19
 13727 038a 31       		.uleb128 0x31
 13728 038b 13       		.uleb128 0x13
 13729 038c 00       		.byte	0
 13730 038d 00       		.byte	0
 13731 038e 46       		.uleb128 0x46
 13732 038f 2E       		.uleb128 0x2e
 13733 0390 01       		.byte	0x1
 13734 0391 3F       		.uleb128 0x3f
 13735 0392 19       		.uleb128 0x19
 13736 0393 03       		.uleb128 0x3
 13737 0394 0E       		.uleb128 0xe
 13738 0395 3A       		.uleb128 0x3a
 13739 0396 0B       		.uleb128 0xb
 13740 0397 3B       		.uleb128 0x3b
 13741 0398 05       		.uleb128 0x5
 13742 0399 27       		.uleb128 0x27
 13743 039a 19       		.uleb128 0x19
 13744 039b 49       		.uleb128 0x49
 13745 039c 13       		.uleb128 0x13
 13746 039d 20       		.uleb128 0x20
 13747 039e 0B       		.uleb128 0xb
 13748 039f 01       		.uleb128 0x1
 13749 03a0 13       		.uleb128 0x13
 13750 03a1 00       		.byte	0
 13751 03a2 00       		.byte	0
 13752 03a3 47       		.uleb128 0x47
 13753 03a4 05       		.uleb128 0x5
 13754 03a5 00       		.byte	0
 13755 03a6 03       		.uleb128 0x3
 13756 03a7 0E       		.uleb128 0xe
 13757 03a8 3A       		.uleb128 0x3a
 13758 03a9 0B       		.uleb128 0xb
 13759 03aa 3B       		.uleb128 0x3b
 13760 03ab 05       		.uleb128 0x5
 13761 03ac 49       		.uleb128 0x49
 13762 03ad 13       		.uleb128 0x13
 13763 03ae 00       		.byte	0
 13764 03af 00       		.byte	0
 13765 03b0 48       		.uleb128 0x48
 13766 03b1 0B       		.uleb128 0xb
 13767 03b2 01       		.byte	0x1
ARM GAS  /var/folders/qd/4mxf5pkd0zdf0b9dd1hp39180000gn/T//cc7TiL7h.s 			page 243


 13768 03b3 00       		.byte	0
 13769 03b4 00       		.byte	0
 13770 03b5 49       		.uleb128 0x49
 13771 03b6 34       		.uleb128 0x34
 13772 03b7 00       		.byte	0
 13773 03b8 03       		.uleb128 0x3
 13774 03b9 08       		.uleb128 0x8
 13775 03ba 3A       		.uleb128 0x3a
 13776 03bb 0B       		.uleb128 0xb
 13777 03bc 3B       		.uleb128 0x3b
 13778 03bd 05       		.uleb128 0x5
 13779 03be 49       		.uleb128 0x49
 13780 03bf 13       		.uleb128 0x13
 13781 03c0 00       		.byte	0
 13782 03c1 00       		.byte	0
 13783 03c2 4A       		.uleb128 0x4a
 13784 03c3 2E       		.uleb128 0x2e
 13785 03c4 01       		.byte	0x1
 13786 03c5 3F       		.uleb128 0x3f
 13787 03c6 19       		.uleb128 0x19
 13788 03c7 03       		.uleb128 0x3
 13789 03c8 0E       		.uleb128 0xe
 13790 03c9 3A       		.uleb128 0x3a
 13791 03ca 0B       		.uleb128 0xb
 13792 03cb 3B       		.uleb128 0x3b
 13793 03cc 05       		.uleb128 0x5
 13794 03cd 27       		.uleb128 0x27
 13795 03ce 19       		.uleb128 0x19
 13796 03cf 49       		.uleb128 0x49
 13797 03d0 13       		.uleb128 0x13
 13798 03d1 11       		.uleb128 0x11
 13799 03d2 01       		.uleb128 0x1
 13800 03d3 12       		.uleb128 0x12
 13801 03d4 06       		.uleb128 0x6
 13802 03d5 40       		.uleb128 0x40
 13803 03d6 18       		.uleb128 0x18
 13804 03d7 9642     		.uleb128 0x2116
 13805 03d9 19       		.uleb128 0x19
 13806 03da 01       		.uleb128 0x1
 13807 03db 13       		.uleb128 0x13
 13808 03dc 00       		.byte	0
 13809 03dd 00       		.byte	0
 13810 03de 4B       		.uleb128 0x4b
 13811 03df 1D       		.uleb128 0x1d
 13812 03e0 01       		.byte	0x1
 13813 03e1 31       		.uleb128 0x31
 13814 03e2 13       		.uleb128 0x13
 13815 03e3 52       		.uleb128 0x52
 13816 03e4 01       		.uleb128 0x1
 13817 03e5 55       		.uleb128 0x55
 13818 03e6 17       		.uleb128 0x17
 13819 03e7 58       		.uleb128 0x58
 13820 03e8 0B       		.uleb128 0xb
 13821 03e9 59       		.uleb128 0x59
 13822 03ea 05       		.uleb128 0x5
 13823 03eb 01       		.uleb128 0x1
 13824 03ec 13       		.uleb128 0x13
ARM GAS  /var/folders/qd/4mxf5pkd0zdf0b9dd1hp39180000gn/T//cc7TiL7h.s 			page 244


 13825 03ed 00       		.byte	0
 13826 03ee 00       		.byte	0
 13827 03ef 4C       		.uleb128 0x4c
 13828 03f0 34       		.uleb128 0x34
 13829 03f1 00       		.byte	0
 13830 03f2 03       		.uleb128 0x3
 13831 03f3 0E       		.uleb128 0xe
 13832 03f4 3A       		.uleb128 0x3a
 13833 03f5 0B       		.uleb128 0xb
 13834 03f6 3B       		.uleb128 0x3b
 13835 03f7 05       		.uleb128 0x5
 13836 03f8 49       		.uleb128 0x49
 13837 03f9 13       		.uleb128 0x13
 13838 03fa 02       		.uleb128 0x2
 13839 03fb 18       		.uleb128 0x18
 13840 03fc 00       		.byte	0
 13841 03fd 00       		.byte	0
 13842 03fe 4D       		.uleb128 0x4d
 13843 03ff 05       		.uleb128 0x5
 13844 0400 00       		.byte	0
 13845 0401 31       		.uleb128 0x31
 13846 0402 13       		.uleb128 0x13
 13847 0403 02       		.uleb128 0x2
 13848 0404 18       		.uleb128 0x18
 13849 0405 00       		.byte	0
 13850 0406 00       		.byte	0
 13851 0407 4E       		.uleb128 0x4e
 13852 0408 2E       		.uleb128 0x2e
 13853 0409 01       		.byte	0x1
 13854 040a 3F       		.uleb128 0x3f
 13855 040b 19       		.uleb128 0x19
 13856 040c 03       		.uleb128 0x3
 13857 040d 0E       		.uleb128 0xe
 13858 040e 3A       		.uleb128 0x3a
 13859 040f 0B       		.uleb128 0xb
 13860 0410 3B       		.uleb128 0x3b
 13861 0411 0B       		.uleb128 0xb
 13862 0412 27       		.uleb128 0x27
 13863 0413 19       		.uleb128 0x19
 13864 0414 49       		.uleb128 0x49
 13865 0415 13       		.uleb128 0x13
 13866 0416 11       		.uleb128 0x11
 13867 0417 01       		.uleb128 0x1
 13868 0418 12       		.uleb128 0x12
 13869 0419 06       		.uleb128 0x6
 13870 041a 40       		.uleb128 0x40
 13871 041b 18       		.uleb128 0x18
 13872 041c 9642     		.uleb128 0x2116
 13873 041e 19       		.uleb128 0x19
 13874 041f 01       		.uleb128 0x1
 13875 0420 13       		.uleb128 0x13
 13876 0421 00       		.byte	0
 13877 0422 00       		.byte	0
 13878 0423 4F       		.uleb128 0x4f
 13879 0424 05       		.uleb128 0x5
 13880 0425 00       		.byte	0
 13881 0426 03       		.uleb128 0x3
ARM GAS  /var/folders/qd/4mxf5pkd0zdf0b9dd1hp39180000gn/T//cc7TiL7h.s 			page 245


 13882 0427 0E       		.uleb128 0xe
 13883 0428 3A       		.uleb128 0x3a
 13884 0429 0B       		.uleb128 0xb
 13885 042a 3B       		.uleb128 0x3b
 13886 042b 0B       		.uleb128 0xb
 13887 042c 49       		.uleb128 0x49
 13888 042d 13       		.uleb128 0x13
 13889 042e 02       		.uleb128 0x2
 13890 042f 17       		.uleb128 0x17
 13891 0430 00       		.byte	0
 13892 0431 00       		.byte	0
 13893 0432 50       		.uleb128 0x50
 13894 0433 34       		.uleb128 0x34
 13895 0434 00       		.byte	0
 13896 0435 03       		.uleb128 0x3
 13897 0436 08       		.uleb128 0x8
 13898 0437 3A       		.uleb128 0x3a
 13899 0438 0B       		.uleb128 0xb
 13900 0439 3B       		.uleb128 0x3b
 13901 043a 0B       		.uleb128 0xb
 13902 043b 49       		.uleb128 0x49
 13903 043c 13       		.uleb128 0x13
 13904 043d 02       		.uleb128 0x2
 13905 043e 17       		.uleb128 0x17
 13906 043f 00       		.byte	0
 13907 0440 00       		.byte	0
 13908 0441 51       		.uleb128 0x51
 13909 0442 34       		.uleb128 0x34
 13910 0443 00       		.byte	0
 13911 0444 03       		.uleb128 0x3
 13912 0445 0E       		.uleb128 0xe
 13913 0446 3A       		.uleb128 0x3a
 13914 0447 0B       		.uleb128 0xb
 13915 0448 3B       		.uleb128 0x3b
 13916 0449 0B       		.uleb128 0xb
 13917 044a 49       		.uleb128 0x49
 13918 044b 13       		.uleb128 0x13
 13919 044c 02       		.uleb128 0x2
 13920 044d 17       		.uleb128 0x17
 13921 044e 00       		.byte	0
 13922 044f 00       		.byte	0
 13923 0450 52       		.uleb128 0x52
 13924 0451 2E       		.uleb128 0x2e
 13925 0452 01       		.byte	0x1
 13926 0453 3F       		.uleb128 0x3f
 13927 0454 19       		.uleb128 0x19
 13928 0455 03       		.uleb128 0x3
 13929 0456 0E       		.uleb128 0xe
 13930 0457 3A       		.uleb128 0x3a
 13931 0458 0B       		.uleb128 0xb
 13932 0459 3B       		.uleb128 0x3b
 13933 045a 0B       		.uleb128 0xb
 13934 045b 27       		.uleb128 0x27
 13935 045c 19       		.uleb128 0x19
 13936 045d 11       		.uleb128 0x11
 13937 045e 01       		.uleb128 0x1
 13938 045f 12       		.uleb128 0x12
ARM GAS  /var/folders/qd/4mxf5pkd0zdf0b9dd1hp39180000gn/T//cc7TiL7h.s 			page 246


 13939 0460 06       		.uleb128 0x6
 13940 0461 40       		.uleb128 0x40
 13941 0462 18       		.uleb128 0x18
 13942 0463 9742     		.uleb128 0x2117
 13943 0465 19       		.uleb128 0x19
 13944 0466 01       		.uleb128 0x1
 13945 0467 13       		.uleb128 0x13
 13946 0468 00       		.byte	0
 13947 0469 00       		.byte	0
 13948 046a 53       		.uleb128 0x53
 13949 046b 2E       		.uleb128 0x2e
 13950 046c 01       		.byte	0x1
 13951 046d 3F       		.uleb128 0x3f
 13952 046e 19       		.uleb128 0x19
 13953 046f 03       		.uleb128 0x3
 13954 0470 0E       		.uleb128 0xe
 13955 0471 3A       		.uleb128 0x3a
 13956 0472 0B       		.uleb128 0xb
 13957 0473 3B       		.uleb128 0x3b
 13958 0474 0B       		.uleb128 0xb
 13959 0475 27       		.uleb128 0x27
 13960 0476 19       		.uleb128 0x19
 13961 0477 11       		.uleb128 0x11
 13962 0478 01       		.uleb128 0x1
 13963 0479 12       		.uleb128 0x12
 13964 047a 06       		.uleb128 0x6
 13965 047b 40       		.uleb128 0x40
 13966 047c 18       		.uleb128 0x18
 13967 047d 9642     		.uleb128 0x2116
 13968 047f 19       		.uleb128 0x19
 13969 0480 01       		.uleb128 0x1
 13970 0481 13       		.uleb128 0x13
 13971 0482 00       		.byte	0
 13972 0483 00       		.byte	0
 13973 0484 54       		.uleb128 0x54
 13974 0485 05       		.uleb128 0x5
 13975 0486 00       		.byte	0
 13976 0487 03       		.uleb128 0x3
 13977 0488 08       		.uleb128 0x8
 13978 0489 3A       		.uleb128 0x3a
 13979 048a 0B       		.uleb128 0xb
 13980 048b 3B       		.uleb128 0x3b
 13981 048c 0B       		.uleb128 0xb
 13982 048d 49       		.uleb128 0x49
 13983 048e 13       		.uleb128 0x13
 13984 048f 02       		.uleb128 0x2
 13985 0490 17       		.uleb128 0x17
 13986 0491 00       		.byte	0
 13987 0492 00       		.byte	0
 13988 0493 55       		.uleb128 0x55
 13989 0494 2E       		.uleb128 0x2e
 13990 0495 00       		.byte	0
 13991 0496 3F       		.uleb128 0x3f
 13992 0497 19       		.uleb128 0x19
 13993 0498 03       		.uleb128 0x3
 13994 0499 0E       		.uleb128 0xe
 13995 049a 3A       		.uleb128 0x3a
ARM GAS  /var/folders/qd/4mxf5pkd0zdf0b9dd1hp39180000gn/T//cc7TiL7h.s 			page 247


 13996 049b 0B       		.uleb128 0xb
 13997 049c 3B       		.uleb128 0x3b
 13998 049d 0B       		.uleb128 0xb
 13999 049e 27       		.uleb128 0x27
 14000 049f 19       		.uleb128 0x19
 14001 04a0 20       		.uleb128 0x20
 14002 04a1 0B       		.uleb128 0xb
 14003 04a2 00       		.byte	0
 14004 04a3 00       		.byte	0
 14005 04a4 56       		.uleb128 0x56
 14006 04a5 1D       		.uleb128 0x1d
 14007 04a6 00       		.byte	0
 14008 04a7 31       		.uleb128 0x31
 14009 04a8 13       		.uleb128 0x13
 14010 04a9 52       		.uleb128 0x52
 14011 04aa 01       		.uleb128 0x1
 14012 04ab 55       		.uleb128 0x55
 14013 04ac 17       		.uleb128 0x17
 14014 04ad 58       		.uleb128 0x58
 14015 04ae 0B       		.uleb128 0xb
 14016 04af 59       		.uleb128 0x59
 14017 04b0 0B       		.uleb128 0xb
 14018 04b1 00       		.byte	0
 14019 04b2 00       		.byte	0
 14020 04b3 57       		.uleb128 0x57
 14021 04b4 1D       		.uleb128 0x1d
 14022 04b5 01       		.byte	0x1
 14023 04b6 31       		.uleb128 0x31
 14024 04b7 13       		.uleb128 0x13
 14025 04b8 52       		.uleb128 0x52
 14026 04b9 01       		.uleb128 0x1
 14027 04ba 55       		.uleb128 0x55
 14028 04bb 17       		.uleb128 0x17
 14029 04bc 58       		.uleb128 0x58
 14030 04bd 0B       		.uleb128 0xb
 14031 04be 59       		.uleb128 0x59
 14032 04bf 0B       		.uleb128 0xb
 14033 04c0 01       		.uleb128 0x1
 14034 04c1 13       		.uleb128 0x13
 14035 04c2 00       		.byte	0
 14036 04c3 00       		.byte	0
 14037 04c4 58       		.uleb128 0x58
 14038 04c5 2E       		.uleb128 0x2e
 14039 04c6 01       		.byte	0x1
 14040 04c7 3F       		.uleb128 0x3f
 14041 04c8 19       		.uleb128 0x19
 14042 04c9 03       		.uleb128 0x3
 14043 04ca 0E       		.uleb128 0xe
 14044 04cb 3A       		.uleb128 0x3a
 14045 04cc 0B       		.uleb128 0xb
 14046 04cd 3B       		.uleb128 0x3b
 14047 04ce 0B       		.uleb128 0xb
 14048 04cf 27       		.uleb128 0x27
 14049 04d0 19       		.uleb128 0x19
 14050 04d1 20       		.uleb128 0x20
 14051 04d2 0B       		.uleb128 0xb
 14052 04d3 01       		.uleb128 0x1
ARM GAS  /var/folders/qd/4mxf5pkd0zdf0b9dd1hp39180000gn/T//cc7TiL7h.s 			page 248


 14053 04d4 13       		.uleb128 0x13
 14054 04d5 00       		.byte	0
 14055 04d6 00       		.byte	0
 14056 04d7 59       		.uleb128 0x59
 14057 04d8 05       		.uleb128 0x5
 14058 04d9 00       		.byte	0
 14059 04da 03       		.uleb128 0x3
 14060 04db 0E       		.uleb128 0xe
 14061 04dc 3A       		.uleb128 0x3a
 14062 04dd 0B       		.uleb128 0xb
 14063 04de 3B       		.uleb128 0x3b
 14064 04df 0B       		.uleb128 0xb
 14065 04e0 49       		.uleb128 0x49
 14066 04e1 13       		.uleb128 0x13
 14067 04e2 00       		.byte	0
 14068 04e3 00       		.byte	0
 14069 04e4 5A       		.uleb128 0x5a
 14070 04e5 2E       		.uleb128 0x2e
 14071 04e6 01       		.byte	0x1
 14072 04e7 31       		.uleb128 0x31
 14073 04e8 13       		.uleb128 0x13
 14074 04e9 11       		.uleb128 0x11
 14075 04ea 01       		.uleb128 0x1
 14076 04eb 12       		.uleb128 0x12
 14077 04ec 06       		.uleb128 0x6
 14078 04ed 40       		.uleb128 0x40
 14079 04ee 18       		.uleb128 0x18
 14080 04ef 9642     		.uleb128 0x2116
 14081 04f1 19       		.uleb128 0x19
 14082 04f2 01       		.uleb128 0x1
 14083 04f3 13       		.uleb128 0x13
 14084 04f4 00       		.byte	0
 14085 04f5 00       		.byte	0
 14086 04f6 5B       		.uleb128 0x5b
 14087 04f7 2E       		.uleb128 0x2e
 14088 04f8 01       		.byte	0x1
 14089 04f9 31       		.uleb128 0x31
 14090 04fa 13       		.uleb128 0x13
 14091 04fb 11       		.uleb128 0x11
 14092 04fc 01       		.uleb128 0x1
 14093 04fd 12       		.uleb128 0x12
 14094 04fe 06       		.uleb128 0x6
 14095 04ff 40       		.uleb128 0x40
 14096 0500 18       		.uleb128 0x18
 14097 0501 9742     		.uleb128 0x2117
 14098 0503 19       		.uleb128 0x19
 14099 0504 01       		.uleb128 0x1
 14100 0505 13       		.uleb128 0x13
 14101 0506 00       		.byte	0
 14102 0507 00       		.byte	0
 14103 0508 5C       		.uleb128 0x5c
 14104 0509 34       		.uleb128 0x34
 14105 050a 00       		.byte	0
 14106 050b 31       		.uleb128 0x31
 14107 050c 13       		.uleb128 0x13
 14108 050d 02       		.uleb128 0x2
 14109 050e 17       		.uleb128 0x17
ARM GAS  /var/folders/qd/4mxf5pkd0zdf0b9dd1hp39180000gn/T//cc7TiL7h.s 			page 249


 14110 050f 00       		.byte	0
 14111 0510 00       		.byte	0
 14112 0511 5D       		.uleb128 0x5d
 14113 0512 2E       		.uleb128 0x2e
 14114 0513 00       		.byte	0
 14115 0514 3F       		.uleb128 0x3f
 14116 0515 19       		.uleb128 0x19
 14117 0516 3C       		.uleb128 0x3c
 14118 0517 19       		.uleb128 0x19
 14119 0518 6E       		.uleb128 0x6e
 14120 0519 0E       		.uleb128 0xe
 14121 051a 03       		.uleb128 0x3
 14122 051b 0E       		.uleb128 0xe
 14123 051c 00       		.byte	0
 14124 051d 00       		.byte	0
 14125 051e 5E       		.uleb128 0x5e
 14126 051f 2E       		.uleb128 0x2e
 14127 0520 00       		.byte	0
 14128 0521 3F       		.uleb128 0x3f
 14129 0522 19       		.uleb128 0x19
 14130 0523 3C       		.uleb128 0x3c
 14131 0524 19       		.uleb128 0x19
 14132 0525 6E       		.uleb128 0x6e
 14133 0526 0E       		.uleb128 0xe
 14134 0527 03       		.uleb128 0x3
 14135 0528 0E       		.uleb128 0xe
 14136 0529 3A       		.uleb128 0x3a
 14137 052a 0B       		.uleb128 0xb
 14138 052b 3B       		.uleb128 0x3b
 14139 052c 0B       		.uleb128 0xb
 14140 052d 00       		.byte	0
 14141 052e 00       		.byte	0
 14142 052f 5F       		.uleb128 0x5f
 14143 0530 2E       		.uleb128 0x2e
 14144 0531 00       		.byte	0
 14145 0532 3F       		.uleb128 0x3f
 14146 0533 19       		.uleb128 0x19
 14147 0534 3C       		.uleb128 0x3c
 14148 0535 19       		.uleb128 0x19
 14149 0536 6E       		.uleb128 0x6e
 14150 0537 08       		.uleb128 0x8
 14151 0538 03       		.uleb128 0x3
 14152 0539 08       		.uleb128 0x8
 14153 053a 3A       		.uleb128 0x3a
 14154 053b 0B       		.uleb128 0xb
 14155 053c 3B       		.uleb128 0x3b
 14156 053d 0B       		.uleb128 0xb
 14157 053e 00       		.byte	0
 14158 053f 00       		.byte	0
 14159 0540 00       		.byte	0
 14160              		.section	.debug_loc,"",%progbits
 14161              	.Ldebug_loc0:
 14162              	.LLST53:
 14163 0000 00000000 		.4byte	.LVL330
 14164 0004 10000000 		.4byte	.LVL331
 14165 0008 0100     		.2byte	0x1
 14166 000a 50       		.byte	0x50
ARM GAS  /var/folders/qd/4mxf5pkd0zdf0b9dd1hp39180000gn/T//cc7TiL7h.s 			page 250


 14167 000b 10000000 		.4byte	.LVL331
 14168 000f 48000000 		.4byte	.LVL340
 14169 0013 0100     		.2byte	0x1
 14170 0015 56       		.byte	0x56
 14171 0016 48000000 		.4byte	.LVL340
 14172 001a 7C010000 		.4byte	.LFE278
 14173 001e 0400     		.2byte	0x4
 14174 0020 F3       		.byte	0xf3
 14175 0021 01       		.uleb128 0x1
 14176 0022 50       		.byte	0x50
 14177 0023 9F       		.byte	0x9f
 14178 0024 00000000 		.4byte	0
 14179 0028 00000000 		.4byte	0
 14180              	.LLST54:
 14181 002c 00000000 		.4byte	.LVL330
 14182 0030 17000000 		.4byte	.LVL332-1
 14183 0034 0100     		.2byte	0x1
 14184 0036 51       		.byte	0x51
 14185 0037 17000000 		.4byte	.LVL332-1
 14186 003b AC000000 		.4byte	.LVL347
 14187 003f 0100     		.2byte	0x1
 14188 0041 57       		.byte	0x57
 14189 0042 AC000000 		.4byte	.LVL347
 14190 0046 B0000000 		.4byte	.LVL348
 14191 004a 0400     		.2byte	0x4
 14192 004c F3       		.byte	0xf3
 14193 004d 01       		.uleb128 0x1
 14194 004e 51       		.byte	0x51
 14195 004f 9F       		.byte	0x9f
 14196 0050 B0000000 		.4byte	.LVL348
 14197 0054 7C010000 		.4byte	.LFE278
 14198 0058 0100     		.2byte	0x1
 14199 005a 57       		.byte	0x57
 14200 005b 00000000 		.4byte	0
 14201 005f 00000000 		.4byte	0
 14202              	.LLST55:
 14203 0063 00000000 		.4byte	.LVL330
 14204 0067 17000000 		.4byte	.LVL332-1
 14205 006b 0100     		.2byte	0x1
 14206 006d 52       		.byte	0x52
 14207 006e 17000000 		.4byte	.LVL332-1
 14208 0072 AC000000 		.4byte	.LVL347
 14209 0076 0100     		.2byte	0x1
 14210 0078 58       		.byte	0x58
 14211 0079 AC000000 		.4byte	.LVL347
 14212 007d B0000000 		.4byte	.LVL348
 14213 0081 0400     		.2byte	0x4
 14214 0083 F3       		.byte	0xf3
 14215 0084 01       		.uleb128 0x1
 14216 0085 52       		.byte	0x52
 14217 0086 9F       		.byte	0x9f
 14218 0087 B0000000 		.4byte	.LVL348
 14219 008b 7C010000 		.4byte	.LFE278
 14220 008f 0100     		.2byte	0x1
 14221 0091 58       		.byte	0x58
 14222 0092 00000000 		.4byte	0
 14223 0096 00000000 		.4byte	0
ARM GAS  /var/folders/qd/4mxf5pkd0zdf0b9dd1hp39180000gn/T//cc7TiL7h.s 			page 251


 14224              	.LLST56:
 14225 009a 18000000 		.4byte	.LVL332
 14226 009e 1C000000 		.4byte	.LVL333
 14227 00a2 0100     		.2byte	0x1
 14228 00a4 50       		.byte	0x50
 14229 00a5 1C000000 		.4byte	.LVL333
 14230 00a9 AC000000 		.4byte	.LVL347
 14231 00ad 0100     		.2byte	0x1
 14232 00af 5A       		.byte	0x5a
 14233 00b0 AC000000 		.4byte	.LVL347
 14234 00b4 AF000000 		.4byte	.LVL348-1
 14235 00b8 0100     		.2byte	0x1
 14236 00ba 50       		.byte	0x50
 14237 00bb B0000000 		.4byte	.LVL348
 14238 00bf 7C010000 		.4byte	.LFE278
 14239 00c3 0100     		.2byte	0x1
 14240 00c5 5A       		.byte	0x5a
 14241 00c6 00000000 		.4byte	0
 14242 00ca 00000000 		.4byte	0
 14243              	.LLST60:
 14244 00ce 2E000000 		.4byte	.LVL335
 14245 00d2 32000000 		.4byte	.LVL336
 14246 00d6 0200     		.2byte	0x2
 14247 00d8 30       		.byte	0x30
 14248 00d9 9F       		.byte	0x9f
 14249 00da 32000000 		.4byte	.LVL336
 14250 00de 36000000 		.4byte	.LVL337
 14251 00e2 0200     		.2byte	0x2
 14252 00e4 31       		.byte	0x31
 14253 00e5 9F       		.byte	0x9f
 14254 00e6 36000000 		.4byte	.LVL337
 14255 00ea 3A000000 		.4byte	.LVL338
 14256 00ee 0200     		.2byte	0x2
 14257 00f0 32       		.byte	0x32
 14258 00f1 9F       		.byte	0x9f
 14259 00f2 3A000000 		.4byte	.LVL338
 14260 00f6 3E000000 		.4byte	.LVL339
 14261 00fa 0200     		.2byte	0x2
 14262 00fc 33       		.byte	0x33
 14263 00fd 9F       		.byte	0x9f
 14264 00fe 3E000000 		.4byte	.LVL339
 14265 0102 7C010000 		.4byte	.LFE278
 14266 0106 0200     		.2byte	0x2
 14267 0108 34       		.byte	0x34
 14268 0109 9F       		.byte	0x9f
 14269 010a 00000000 		.4byte	0
 14270 010e 00000000 		.4byte	0
 14271              	.LLST57:
 14272 0112 3E000000 		.4byte	.LVL339
 14273 0116 48000000 		.4byte	.LVL340
 14274 011a 0200     		.2byte	0x2
 14275 011c 30       		.byte	0x30
 14276 011d 9F       		.byte	0x9f
 14277 011e 48000000 		.4byte	.LVL340
 14278 0122 9A000000 		.4byte	.LVL346
 14279 0126 0100     		.2byte	0x1
 14280 0128 55       		.byte	0x55
ARM GAS  /var/folders/qd/4mxf5pkd0zdf0b9dd1hp39180000gn/T//cc7TiL7h.s 			page 252


 14281 0129 B0000000 		.4byte	.LVL348
 14282 012d 66010000 		.4byte	.LVL358
 14283 0131 0100     		.2byte	0x1
 14284 0133 55       		.byte	0x55
 14285 0134 00000000 		.4byte	0
 14286 0138 00000000 		.4byte	0
 14287              	.LLST58:
 14288 013c E8000000 		.4byte	.LVL350
 14289 0140 02010000 		.4byte	.LVL351
 14290 0144 0800     		.2byte	0x8
 14291 0146 7E       		.byte	0x7e
 14292 0147 00       		.sleb128 0
 14293 0148 93       		.byte	0x93
 14294 0149 04       		.uleb128 0x4
 14295 014a 7E       		.byte	0x7e
 14296 014b 04       		.sleb128 4
 14297 014c 93       		.byte	0x93
 14298 014d 04       		.uleb128 0x4
 14299 014e 02010000 		.4byte	.LVL351
 14300 0152 18010000 		.4byte	.LVL352
 14301 0156 0800     		.2byte	0x8
 14302 0158 7E       		.byte	0x7e
 14303 0159 08       		.sleb128 8
 14304 015a 93       		.byte	0x93
 14305 015b 04       		.uleb128 0x4
 14306 015c 7E       		.byte	0x7e
 14307 015d 0C       		.sleb128 12
 14308 015e 93       		.byte	0x93
 14309 015f 04       		.uleb128 0x4
 14310 0160 18010000 		.4byte	.LVL352
 14311 0164 1A010000 		.4byte	.LVL353
 14312 0168 0800     		.2byte	0x8
 14313 016a 7E       		.byte	0x7e
 14314 016b 00       		.sleb128 0
 14315 016c 93       		.byte	0x93
 14316 016d 04       		.uleb128 0x4
 14317 016e 7E       		.byte	0x7e
 14318 016f 04       		.sleb128 4
 14319 0170 93       		.byte	0x93
 14320 0171 04       		.uleb128 0x4
 14321 0172 1A010000 		.4byte	.LVL353
 14322 0176 22010000 		.4byte	.LVL355
 14323 017a 1200     		.2byte	0x12
 14324 017c 03       		.byte	0x3
 14325 017d 00000000 		.4byte	objectList
 14326 0181 06       		.byte	0x6
 14327 0182 93       		.byte	0x93
 14328 0183 04       		.uleb128 0x4
 14329 0184 03       		.byte	0x3
 14330 0185 00000000 		.4byte	objectList
 14331 0189 06       		.byte	0x6
 14332 018a 23       		.byte	0x23
 14333 018b 04       		.uleb128 0x4
 14334 018c 93       		.byte	0x93
 14335 018d 04       		.uleb128 0x4
 14336 018e 00000000 		.4byte	0
 14337 0192 00000000 		.4byte	0
ARM GAS  /var/folders/qd/4mxf5pkd0zdf0b9dd1hp39180000gn/T//cc7TiL7h.s 			page 253


 14338              	.LLST59:
 14339 0196 E8000000 		.4byte	.LVL350
 14340 019a 02010000 		.4byte	.LVL351
 14341 019e 0600     		.2byte	0x6
 14342 01a0 51       		.byte	0x51
 14343 01a1 93       		.byte	0x93
 14344 01a2 04       		.uleb128 0x4
 14345 01a3 50       		.byte	0x50
 14346 01a4 93       		.byte	0x93
 14347 01a5 04       		.uleb128 0x4
 14348 01a6 02010000 		.4byte	.LVL351
 14349 01aa 1A010000 		.4byte	.LVL353
 14350 01ae 0600     		.2byte	0x6
 14351 01b0 51       		.byte	0x51
 14352 01b1 93       		.byte	0x93
 14353 01b2 04       		.uleb128 0x4
 14354 01b3 50       		.byte	0x50
 14355 01b4 93       		.byte	0x93
 14356 01b5 04       		.uleb128 0x4
 14357 01b6 00000000 		.4byte	0
 14358 01ba 00000000 		.4byte	0
 14359              	.LLST45:
 14360 01be 26000000 		.4byte	.LVL304
 14361 01c2 29000000 		.4byte	.LVL305-1
 14362 01c6 0600     		.2byte	0x6
 14363 01c8 52       		.byte	0x52
 14364 01c9 93       		.byte	0x93
 14365 01ca 04       		.uleb128 0x4
 14366 01cb 51       		.byte	0x51
 14367 01cc 93       		.byte	0x93
 14368 01cd 04       		.uleb128 0x4
 14369 01ce 00000000 		.4byte	0
 14370 01d2 00000000 		.4byte	0
 14371              	.LLST46:
 14372 01d6 26000000 		.4byte	.LVL304
 14373 01da 32000000 		.4byte	.LVL306
 14374 01de 0800     		.2byte	0x8
 14375 01e0 7D       		.byte	0x7d
 14376 01e1 00       		.sleb128 0
 14377 01e2 93       		.byte	0x93
 14378 01e3 04       		.uleb128 0x4
 14379 01e4 91       		.byte	0x91
 14380 01e5 6C       		.sleb128 -20
 14381 01e6 93       		.byte	0x93
 14382 01e7 04       		.uleb128 0x4
 14383 01e8 4C000000 		.4byte	.LVL308
 14384 01ec 4E000000 		.4byte	.LVL309
 14385 01f0 0600     		.2byte	0x6
 14386 01f2 91       		.byte	0x91
 14387 01f3 68       		.sleb128 -24
 14388 01f4 93       		.byte	0x93
 14389 01f5 04       		.uleb128 0x4
 14390 01f6 93       		.byte	0x93
 14391 01f7 04       		.uleb128 0x4
 14392 01f8 4E000000 		.4byte	.LVL309
 14393 01fc 5C000000 		.4byte	.LFE275
 14394 0200 0800     		.2byte	0x8
ARM GAS  /var/folders/qd/4mxf5pkd0zdf0b9dd1hp39180000gn/T//cc7TiL7h.s 			page 254


 14395 0202 7D       		.byte	0x7d
 14396 0203 00       		.sleb128 0
 14397 0204 93       		.byte	0x93
 14398 0205 04       		.uleb128 0x4
 14399 0206 91       		.byte	0x91
 14400 0207 6C       		.sleb128 -20
 14401 0208 93       		.byte	0x93
 14402 0209 04       		.uleb128 0x4
 14403 020a 00000000 		.4byte	0
 14404 020e 00000000 		.4byte	0
 14405              	.LLST41:
 14406 0212 00000000 		.4byte	.LVL274
 14407 0216 1D000000 		.4byte	.LVL275-1
 14408 021a 0800     		.2byte	0x8
 14409 021c 90       		.byte	0x90
 14410 021d 40       		.uleb128 0x40
 14411 021e 93       		.byte	0x93
 14412 021f 04       		.uleb128 0x4
 14413 0220 90       		.byte	0x90
 14414 0221 41       		.uleb128 0x41
 14415 0222 93       		.byte	0x93
 14416 0223 04       		.uleb128 0x4
 14417 0224 1D000000 		.4byte	.LVL275-1
 14418 0228 F4000000 		.4byte	.LFE271
 14419 022c 0600     		.2byte	0x6
 14420 022e F3       		.byte	0xf3
 14421 022f 03       		.uleb128 0x3
 14422 0230 F5       		.byte	0xf5
 14423 0231 40       		.uleb128 0x40
 14424 0232 25       		.uleb128 0x25
 14425 0233 9F       		.byte	0x9f
 14426 0234 00000000 		.4byte	0
 14427 0238 00000000 		.4byte	0
 14428              	.LLST42:
 14429 023c 32000000 		.4byte	.LVL277
 14430 0240 58000000 		.4byte	.LVL280
 14431 0244 0600     		.2byte	0x6
 14432 0246 54       		.byte	0x54
 14433 0247 93       		.byte	0x93
 14434 0248 04       		.uleb128 0x4
 14435 0249 55       		.byte	0x55
 14436 024a 93       		.byte	0x93
 14437 024b 04       		.uleb128 0x4
 14438 024c 5A000000 		.4byte	.LVL281
 14439 0250 92000000 		.4byte	.LVL285
 14440 0254 0600     		.2byte	0x6
 14441 0256 54       		.byte	0x54
 14442 0257 93       		.byte	0x93
 14443 0258 04       		.uleb128 0x4
 14444 0259 55       		.byte	0x55
 14445 025a 93       		.byte	0x93
 14446 025b 04       		.uleb128 0x4
 14447 025c 94000000 		.4byte	.LVL286
 14448 0260 F4000000 		.4byte	.LFE271
 14449 0264 0600     		.2byte	0x6
 14450 0266 54       		.byte	0x54
 14451 0267 93       		.byte	0x93
ARM GAS  /var/folders/qd/4mxf5pkd0zdf0b9dd1hp39180000gn/T//cc7TiL7h.s 			page 255


 14452 0268 04       		.uleb128 0x4
 14453 0269 55       		.byte	0x55
 14454 026a 93       		.byte	0x93
 14455 026b 04       		.uleb128 0x4
 14456 026c 00000000 		.4byte	0
 14457 0270 00000000 		.4byte	0
 14458              	.LLST37:
 14459 0274 00000000 		.4byte	.LVL229
 14460 0278 25000000 		.4byte	.LVL232-1
 14461 027c 0100     		.2byte	0x1
 14462 027e 51       		.byte	0x51
 14463 027f 25000000 		.4byte	.LVL232-1
 14464 0283 8C000000 		.4byte	.LVL246
 14465 0287 0100     		.2byte	0x1
 14466 0289 5B       		.byte	0x5b
 14467 028a 8C000000 		.4byte	.LVL246
 14468 028e A4010000 		.4byte	.LFE270
 14469 0292 0400     		.2byte	0x4
 14470 0294 F3       		.byte	0xf3
 14471 0295 01       		.uleb128 0x1
 14472 0296 51       		.byte	0x51
 14473 0297 9F       		.byte	0x9f
 14474 0298 00000000 		.4byte	0
 14475 029c 00000000 		.4byte	0
 14476              	.LLST38:
 14477 02a0 52000000 		.4byte	.LVL237
 14478 02a4 70000000 		.4byte	.LVL242
 14479 02a8 0A00     		.2byte	0xa
 14480 02aa 93       		.byte	0x93
 14481 02ab 08       		.uleb128 0x8
 14482 02ac 54       		.byte	0x54
 14483 02ad 93       		.byte	0x93
 14484 02ae 04       		.uleb128 0x4
 14485 02af 55       		.byte	0x55
 14486 02b0 93       		.byte	0x93
 14487 02b1 04       		.uleb128 0x4
 14488 02b2 93       		.byte	0x93
 14489 02b3 08       		.uleb128 0x8
 14490 02b4 70000000 		.4byte	.LVL242
 14491 02b8 8C000000 		.4byte	.LVL246
 14492 02bc 0E00     		.2byte	0xe
 14493 02be 93       		.byte	0x93
 14494 02bf 08       		.uleb128 0x8
 14495 02c0 54       		.byte	0x54
 14496 02c1 93       		.byte	0x93
 14497 02c2 04       		.uleb128 0x4
 14498 02c3 55       		.byte	0x55
 14499 02c4 93       		.byte	0x93
 14500 02c5 04       		.uleb128 0x4
 14501 02c6 58       		.byte	0x58
 14502 02c7 93       		.byte	0x93
 14503 02c8 04       		.uleb128 0x4
 14504 02c9 59       		.byte	0x59
 14505 02ca 93       		.byte	0x93
 14506 02cb 04       		.uleb128 0x4
 14507 02cc 8C000000 		.4byte	.LVL246
 14508 02d0 90000000 		.4byte	.LVL247
ARM GAS  /var/folders/qd/4mxf5pkd0zdf0b9dd1hp39180000gn/T//cc7TiL7h.s 			page 256


 14509 02d4 1100     		.2byte	0x11
 14510 02d6 50       		.byte	0x50
 14511 02d7 93       		.byte	0x93
 14512 02d8 04       		.uleb128 0x4
 14513 02d9 93       		.byte	0x93
 14514 02da 04       		.uleb128 0x4
 14515 02db 54       		.byte	0x54
 14516 02dc 93       		.byte	0x93
 14517 02dd 04       		.uleb128 0x4
 14518 02de 55       		.byte	0x55
 14519 02df 93       		.byte	0x93
 14520 02e0 04       		.uleb128 0x4
 14521 02e1 58       		.byte	0x58
 14522 02e2 93       		.byte	0x93
 14523 02e3 04       		.uleb128 0x4
 14524 02e4 59       		.byte	0x59
 14525 02e5 93       		.byte	0x93
 14526 02e6 04       		.uleb128 0x4
 14527 02e7 90000000 		.4byte	.LVL247
 14528 02eb AE000000 		.4byte	.LVL250
 14529 02ef 1100     		.2byte	0x11
 14530 02f1 5B       		.byte	0x5b
 14531 02f2 93       		.byte	0x93
 14532 02f3 04       		.uleb128 0x4
 14533 02f4 93       		.byte	0x93
 14534 02f5 04       		.uleb128 0x4
 14535 02f6 54       		.byte	0x54
 14536 02f7 93       		.byte	0x93
 14537 02f8 04       		.uleb128 0x4
 14538 02f9 55       		.byte	0x55
 14539 02fa 93       		.byte	0x93
 14540 02fb 04       		.uleb128 0x4
 14541 02fc 58       		.byte	0x58
 14542 02fd 93       		.byte	0x93
 14543 02fe 04       		.uleb128 0x4
 14544 02ff 59       		.byte	0x59
 14545 0300 93       		.byte	0x93
 14546 0301 04       		.uleb128 0x4
 14547 0302 AE000000 		.4byte	.LVL250
 14548 0306 B0000000 		.4byte	.LVL251
 14549 030a 0B00     		.2byte	0xb
 14550 030c 5B       		.byte	0x5b
 14551 030d 93       		.byte	0x93
 14552 030e 04       		.uleb128 0x4
 14553 030f 93       		.byte	0x93
 14554 0310 0C       		.uleb128 0xc
 14555 0311 58       		.byte	0x58
 14556 0312 93       		.byte	0x93
 14557 0313 04       		.uleb128 0x4
 14558 0314 59       		.byte	0x59
 14559 0315 93       		.byte	0x93
 14560 0316 04       		.uleb128 0x4
 14561 0317 B0000000 		.4byte	.LVL251
 14562 031b DE000000 		.4byte	.LVL255
 14563 031f 1100     		.2byte	0x11
 14564 0321 5B       		.byte	0x5b
 14565 0322 93       		.byte	0x93
ARM GAS  /var/folders/qd/4mxf5pkd0zdf0b9dd1hp39180000gn/T//cc7TiL7h.s 			page 257


 14566 0323 04       		.uleb128 0x4
 14567 0324 93       		.byte	0x93
 14568 0325 04       		.uleb128 0x4
 14569 0326 54       		.byte	0x54
 14570 0327 93       		.byte	0x93
 14571 0328 04       		.uleb128 0x4
 14572 0329 55       		.byte	0x55
 14573 032a 93       		.byte	0x93
 14574 032b 04       		.uleb128 0x4
 14575 032c 58       		.byte	0x58
 14576 032d 93       		.byte	0x93
 14577 032e 04       		.uleb128 0x4
 14578 032f 59       		.byte	0x59
 14579 0330 93       		.byte	0x93
 14580 0331 04       		.uleb128 0x4
 14581 0332 DE000000 		.4byte	.LVL255
 14582 0336 E0000000 		.4byte	.LVL256
 14583 033a 0B00     		.2byte	0xb
 14584 033c 5B       		.byte	0x5b
 14585 033d 93       		.byte	0x93
 14586 033e 04       		.uleb128 0x4
 14587 033f 93       		.byte	0x93
 14588 0340 0C       		.uleb128 0xc
 14589 0341 58       		.byte	0x58
 14590 0342 93       		.byte	0x93
 14591 0343 04       		.uleb128 0x4
 14592 0344 59       		.byte	0x59
 14593 0345 93       		.byte	0x93
 14594 0346 04       		.uleb128 0x4
 14595 0347 E0000000 		.4byte	.LVL256
 14596 034b 10010000 		.4byte	.LVL260
 14597 034f 1100     		.2byte	0x11
 14598 0351 5B       		.byte	0x5b
 14599 0352 93       		.byte	0x93
 14600 0353 04       		.uleb128 0x4
 14601 0354 93       		.byte	0x93
 14602 0355 04       		.uleb128 0x4
 14603 0356 54       		.byte	0x54
 14604 0357 93       		.byte	0x93
 14605 0358 04       		.uleb128 0x4
 14606 0359 55       		.byte	0x55
 14607 035a 93       		.byte	0x93
 14608 035b 04       		.uleb128 0x4
 14609 035c 58       		.byte	0x58
 14610 035d 93       		.byte	0x93
 14611 035e 04       		.uleb128 0x4
 14612 035f 59       		.byte	0x59
 14613 0360 93       		.byte	0x93
 14614 0361 04       		.uleb128 0x4
 14615 0362 10010000 		.4byte	.LVL260
 14616 0366 12010000 		.4byte	.LVL261
 14617 036a 0D00     		.2byte	0xd
 14618 036c 5B       		.byte	0x5b
 14619 036d 93       		.byte	0x93
 14620 036e 04       		.uleb128 0x4
 14621 036f 93       		.byte	0x93
 14622 0370 04       		.uleb128 0x4
ARM GAS  /var/folders/qd/4mxf5pkd0zdf0b9dd1hp39180000gn/T//cc7TiL7h.s 			page 258


 14623 0371 54       		.byte	0x54
 14624 0372 93       		.byte	0x93
 14625 0373 04       		.uleb128 0x4
 14626 0374 55       		.byte	0x55
 14627 0375 93       		.byte	0x93
 14628 0376 04       		.uleb128 0x4
 14629 0377 93       		.byte	0x93
 14630 0378 08       		.uleb128 0x8
 14631 0379 12010000 		.4byte	.LVL261
 14632 037d 40010000 		.4byte	.LVL265
 14633 0381 1100     		.2byte	0x11
 14634 0383 5B       		.byte	0x5b
 14635 0384 93       		.byte	0x93
 14636 0385 04       		.uleb128 0x4
 14637 0386 93       		.byte	0x93
 14638 0387 04       		.uleb128 0x4
 14639 0388 54       		.byte	0x54
 14640 0389 93       		.byte	0x93
 14641 038a 04       		.uleb128 0x4
 14642 038b 55       		.byte	0x55
 14643 038c 93       		.byte	0x93
 14644 038d 04       		.uleb128 0x4
 14645 038e 58       		.byte	0x58
 14646 038f 93       		.byte	0x93
 14647 0390 04       		.uleb128 0x4
 14648 0391 59       		.byte	0x59
 14649 0392 93       		.byte	0x93
 14650 0393 04       		.uleb128 0x4
 14651 0394 40010000 		.4byte	.LVL265
 14652 0398 42010000 		.4byte	.LVL266
 14653 039c 0D00     		.2byte	0xd
 14654 039e 5B       		.byte	0x5b
 14655 039f 93       		.byte	0x93
 14656 03a0 04       		.uleb128 0x4
 14657 03a1 93       		.byte	0x93
 14658 03a2 04       		.uleb128 0x4
 14659 03a3 54       		.byte	0x54
 14660 03a4 93       		.byte	0x93
 14661 03a5 04       		.uleb128 0x4
 14662 03a6 55       		.byte	0x55
 14663 03a7 93       		.byte	0x93
 14664 03a8 04       		.uleb128 0x4
 14665 03a9 93       		.byte	0x93
 14666 03aa 08       		.uleb128 0x8
 14667 03ab 42010000 		.4byte	.LVL266
 14668 03af 7A010000 		.4byte	.LVL270
 14669 03b3 1100     		.2byte	0x11
 14670 03b5 5B       		.byte	0x5b
 14671 03b6 93       		.byte	0x93
 14672 03b7 04       		.uleb128 0x4
 14673 03b8 93       		.byte	0x93
 14674 03b9 04       		.uleb128 0x4
 14675 03ba 54       		.byte	0x54
 14676 03bb 93       		.byte	0x93
 14677 03bc 04       		.uleb128 0x4
 14678 03bd 55       		.byte	0x55
 14679 03be 93       		.byte	0x93
ARM GAS  /var/folders/qd/4mxf5pkd0zdf0b9dd1hp39180000gn/T//cc7TiL7h.s 			page 259


 14680 03bf 04       		.uleb128 0x4
 14681 03c0 58       		.byte	0x58
 14682 03c1 93       		.byte	0x93
 14683 03c2 04       		.uleb128 0x4
 14684 03c3 59       		.byte	0x59
 14685 03c4 93       		.byte	0x93
 14686 03c5 04       		.uleb128 0x4
 14687 03c6 00000000 		.4byte	0
 14688 03ca 00000000 		.4byte	0
 14689              	.LLST39:
 14690 03ce 16000000 		.4byte	.LVL230
 14691 03d2 68000000 		.4byte	.LVL240
 14692 03d6 0100     		.2byte	0x1
 14693 03d8 56       		.byte	0x56
 14694 03d9 00000000 		.4byte	0
 14695 03dd 00000000 		.4byte	0
 14696              	.LLST40:
 14697 03e1 32000000 		.4byte	.LVL234
 14698 03e5 6A000000 		.4byte	.LVL241
 14699 03e9 0600     		.2byte	0x6
 14700 03eb 58       		.byte	0x58
 14701 03ec 93       		.byte	0x93
 14702 03ed 04       		.uleb128 0x4
 14703 03ee 59       		.byte	0x59
 14704 03ef 93       		.byte	0x93
 14705 03f0 04       		.uleb128 0x4
 14706 03f1 00000000 		.4byte	0
 14707 03f5 00000000 		.4byte	0
 14708              	.LLST24:
 14709 03f9 00000000 		.4byte	.LVL150
 14710 03fd 12000000 		.4byte	.LVL152
 14711 0401 0100     		.2byte	0x1
 14712 0403 50       		.byte	0x50
 14713 0404 12000000 		.4byte	.LVL152
 14714 0408 3E000000 		.4byte	.LVL158
 14715 040c 0100     		.2byte	0x1
 14716 040e 55       		.byte	0x55
 14717 040f 3E000000 		.4byte	.LVL158
 14718 0413 B0000000 		.4byte	.LVL166
 14719 0417 0400     		.2byte	0x4
 14720 0419 7E       		.byte	0x7e
 14721 041a 807A     		.sleb128 -768
 14722 041c 9F       		.byte	0x9f
 14723 041d B0000000 		.4byte	.LVL166
 14724 0421 C0020000 		.4byte	.LFE268
 14725 0425 0400     		.2byte	0x4
 14726 0427 F3       		.byte	0xf3
 14727 0428 01       		.uleb128 0x1
 14728 0429 50       		.byte	0x50
 14729 042a 9F       		.byte	0x9f
 14730 042b 00000000 		.4byte	0
 14731 042f 00000000 		.4byte	0
 14732              	.LLST25:
 14733 0433 00000000 		.4byte	.LVL150
 14734 0437 15000000 		.4byte	.LVL153-1
 14735 043b 0100     		.2byte	0x1
 14736 043d 51       		.byte	0x51
ARM GAS  /var/folders/qd/4mxf5pkd0zdf0b9dd1hp39180000gn/T//cc7TiL7h.s 			page 260


 14737 043e 15000000 		.4byte	.LVL153-1
 14738 0442 C0020000 		.4byte	.LFE268
 14739 0446 0400     		.2byte	0x4
 14740 0448 F3       		.byte	0xf3
 14741 0449 01       		.uleb128 0x1
 14742 044a 51       		.byte	0x51
 14743 044b 9F       		.byte	0x9f
 14744 044c 00000000 		.4byte	0
 14745 0450 00000000 		.4byte	0
 14746              	.LLST26:
 14747 0454 2A000000 		.4byte	.LVL156
 14748 0458 3E000000 		.4byte	.LVL158
 14749 045c 0200     		.2byte	0x2
 14750 045e 30       		.byte	0x30
 14751 045f 9F       		.byte	0x9f
 14752 0460 30010000 		.4byte	.LVL181
 14753 0464 44010000 		.4byte	.LVL182
 14754 0468 0200     		.2byte	0x2
 14755 046a 30       		.byte	0x30
 14756 046b 9F       		.byte	0x9f
 14757 046c 44010000 		.4byte	.LVL182
 14758 0470 50010000 		.4byte	.LVL183
 14759 0474 0200     		.2byte	0x2
 14760 0476 7D       		.byte	0x7d
 14761 0477 00       		.sleb128 0
 14762 0478 D2010000 		.4byte	.LVL200
 14763 047c DF010000 		.4byte	.LVL201-1
 14764 0480 0100     		.2byte	0x1
 14765 0482 53       		.byte	0x53
 14766 0483 DF010000 		.4byte	.LVL201-1
 14767 0487 74020000 		.4byte	.LVL218
 14768 048b 0200     		.2byte	0x2
 14769 048d 7D       		.byte	0x7d
 14770 048e 00       		.sleb128 0
 14771 048f 00000000 		.4byte	0
 14772 0493 00000000 		.4byte	0
 14773              	.LLST27:
 14774 0497 0C000000 		.4byte	.LVL151
 14775 049b 3E000000 		.4byte	.LVL158
 14776 049f 0200     		.2byte	0x2
 14777 04a1 30       		.byte	0x30
 14778 04a2 9F       		.byte	0x9f
 14779 04a3 3E000000 		.4byte	.LVL158
 14780 04a7 58000000 		.4byte	.LVL159
 14781 04ab 0100     		.2byte	0x1
 14782 04ad 54       		.byte	0x54
 14783 04ae 58000000 		.4byte	.LVL159
 14784 04b2 6C000000 		.4byte	.LVL160
 14785 04b6 0200     		.2byte	0x2
 14786 04b8 30       		.byte	0x30
 14787 04b9 9F       		.byte	0x9f
 14788 04ba 70000000 		.4byte	.LVL161
 14789 04be AC000000 		.4byte	.LVL165
 14790 04c2 0100     		.2byte	0x1
 14791 04c4 54       		.byte	0x54
 14792 04c5 AC000000 		.4byte	.LVL165
 14793 04c9 B0000000 		.4byte	.LVL166
ARM GAS  /var/folders/qd/4mxf5pkd0zdf0b9dd1hp39180000gn/T//cc7TiL7h.s 			page 261


 14794 04cd 0100     		.2byte	0x1
 14795 04cf 5C       		.byte	0x5c
 14796 04d0 C2000000 		.4byte	.LVL167
 14797 04d4 C8000000 		.4byte	.LVL168
 14798 04d8 0100     		.2byte	0x1
 14799 04da 54       		.byte	0x54
 14800 04db C8000000 		.4byte	.LVL168
 14801 04df CA000000 		.4byte	.LVL169
 14802 04e3 0300     		.2byte	0x3
 14803 04e5 74       		.byte	0x74
 14804 04e6 7F       		.sleb128 -1
 14805 04e7 9F       		.byte	0x9f
 14806 04e8 CA000000 		.4byte	.LVL169
 14807 04ec DE000000 		.4byte	.LVL170
 14808 04f0 0100     		.2byte	0x1
 14809 04f2 54       		.byte	0x54
 14810 04f3 DE000000 		.4byte	.LVL170
 14811 04f7 E0000000 		.4byte	.LVL171
 14812 04fb 0300     		.2byte	0x3
 14813 04fd 74       		.byte	0x74
 14814 04fe 7F       		.sleb128 -1
 14815 04ff 9F       		.byte	0x9f
 14816 0500 E0000000 		.4byte	.LVL171
 14817 0504 F2000000 		.4byte	.LVL172
 14818 0508 0100     		.2byte	0x1
 14819 050a 54       		.byte	0x54
 14820 050b F2000000 		.4byte	.LVL172
 14821 050f 0C010000 		.4byte	.LVL173
 14822 0513 0200     		.2byte	0x2
 14823 0515 30       		.byte	0x30
 14824 0516 9F       		.byte	0x9f
 14825 0517 0C010000 		.4byte	.LVL173
 14826 051b 18010000 		.4byte	.LVL174
 14827 051f 0100     		.2byte	0x1
 14828 0521 54       		.byte	0x54
 14829 0522 18010000 		.4byte	.LVL174
 14830 0526 1A010000 		.4byte	.LVL175
 14831 052a 0300     		.2byte	0x3
 14832 052c 74       		.byte	0x74
 14833 052d 7F       		.sleb128 -1
 14834 052e 9F       		.byte	0x9f
 14835 052f 1A010000 		.4byte	.LVL175
 14836 0533 22010000 		.4byte	.LVL177
 14837 0537 0200     		.2byte	0x2
 14838 0539 30       		.byte	0x30
 14839 053a 9F       		.byte	0x9f
 14840 053b 00000000 		.4byte	0
 14841 053f 00000000 		.4byte	0
 14842              	.LLST28:
 14843 0543 0C000000 		.4byte	.LVL151
 14844 0547 3E000000 		.4byte	.LVL158
 14845 054b 0200     		.2byte	0x2
 14846 054d 30       		.byte	0x30
 14847 054e 9F       		.byte	0x9f
 14848 054f 3E000000 		.4byte	.LVL158
 14849 0553 B0000000 		.4byte	.LVL166
 14850 0557 0100     		.2byte	0x1
ARM GAS  /var/folders/qd/4mxf5pkd0zdf0b9dd1hp39180000gn/T//cc7TiL7h.s 			page 262


 14851 0559 51       		.byte	0x51
 14852 055a C2000000 		.4byte	.LVL167
 14853 055e 1E010000 		.4byte	.LVL176
 14854 0562 0100     		.2byte	0x1
 14855 0564 51       		.byte	0x51
 14856 0565 00000000 		.4byte	0
 14857 0569 00000000 		.4byte	0
 14858              	.LLST29:
 14859 056d 16000000 		.4byte	.LVL153
 14860 0571 1A000000 		.4byte	.LVL154
 14861 0575 0100     		.2byte	0x1
 14862 0577 50       		.byte	0x50
 14863 0578 1A000000 		.4byte	.LVL154
 14864 057c 3A000000 		.4byte	.LVL157
 14865 0580 0100     		.2byte	0x1
 14866 0582 54       		.byte	0x54
 14867 0583 3A000000 		.4byte	.LVL157
 14868 0587 3E000000 		.4byte	.LVL158
 14869 058b 0100     		.2byte	0x1
 14870 058d 53       		.byte	0x53
 14871 058e 3E000000 		.4byte	.LVL158
 14872 0592 A6000000 		.4byte	.LVL164
 14873 0596 0100     		.2byte	0x1
 14874 0598 5C       		.byte	0x5c
 14875 0599 A6000000 		.4byte	.LVL164
 14876 059d B0000000 		.4byte	.LVL166
 14877 05a1 0100     		.2byte	0x1
 14878 05a3 52       		.byte	0x52
 14879 05a4 C2000000 		.4byte	.LVL167
 14880 05a8 22010000 		.4byte	.LVL177
 14881 05ac 0100     		.2byte	0x1
 14882 05ae 5C       		.byte	0x5c
 14883 05af 22010000 		.4byte	.LVL177
 14884 05b3 44010000 		.4byte	.LVL182
 14885 05b7 0100     		.2byte	0x1
 14886 05b9 54       		.byte	0x54
 14887 05ba E0010000 		.4byte	.LVL201
 14888 05be AA020000 		.4byte	.LVL223
 14889 05c2 0200     		.2byte	0x2
 14890 05c4 30       		.byte	0x30
 14891 05c5 9F       		.byte	0x9f
 14892 05c6 00000000 		.4byte	0
 14893 05ca 00000000 		.4byte	0
 14894              	.LLST30:
 14895 05ce 44010000 		.4byte	.LVL182
 14896 05d2 50010000 		.4byte	.LVL183
 14897 05d6 0200     		.2byte	0x2
 14898 05d8 30       		.byte	0x30
 14899 05d9 9F       		.byte	0x9f
 14900 05da 50010000 		.4byte	.LVL183
 14901 05de CA010000 		.4byte	.LVL199
 14902 05e2 0100     		.2byte	0x1
 14903 05e4 54       		.byte	0x54
 14904 05e5 00000000 		.4byte	0
 14905 05e9 00000000 		.4byte	0
 14906              	.LLST31:
 14907 05ed 22010000 		.4byte	.LVL177
ARM GAS  /var/folders/qd/4mxf5pkd0zdf0b9dd1hp39180000gn/T//cc7TiL7h.s 			page 263


 14908 05f1 44010000 		.4byte	.LVL182
 14909 05f5 0200     		.2byte	0x2
 14910 05f7 30       		.byte	0x30
 14911 05f8 9F       		.byte	0x9f
 14912 05f9 44010000 		.4byte	.LVL182
 14913 05fd 5C010000 		.4byte	.LVL184
 14914 0601 0300     		.2byte	0x3
 14915 0603 91       		.byte	0x91
 14916 0604 987F     		.sleb128 -104
 14917 0606 7E010000 		.4byte	.LVL189
 14918 060a AA020000 		.4byte	.LVL223
 14919 060e 0300     		.2byte	0x3
 14920 0610 91       		.byte	0x91
 14921 0611 987F     		.sleb128 -104
 14922 0613 00000000 		.4byte	0
 14923 0617 00000000 		.4byte	0
 14924              	.LLST32:
 14925 061b 22010000 		.4byte	.LVL177
 14926 061f 44010000 		.4byte	.LVL182
 14927 0623 0200     		.2byte	0x2
 14928 0625 30       		.byte	0x30
 14929 0626 9F       		.byte	0x9f
 14930 0627 44010000 		.4byte	.LVL182
 14931 062b 96010000 		.4byte	.LVL192
 14932 062f 0100     		.2byte	0x1
 14933 0631 58       		.byte	0x58
 14934 0632 96010000 		.4byte	.LVL192
 14935 0636 C0010000 		.4byte	.LVL197
 14936 063a 0300     		.2byte	0x3
 14937 063c 78       		.byte	0x78
 14938 063d 7F       		.sleb128 -1
 14939 063e 9F       		.byte	0x9f
 14940 063f C0010000 		.4byte	.LVL197
 14941 0643 18020000 		.4byte	.LVL207
 14942 0647 0100     		.2byte	0x1
 14943 0649 58       		.byte	0x58
 14944 064a 00000000 		.4byte	0
 14945 064e 00000000 		.4byte	0
 14946              	.LLST33:
 14947 0652 2A010000 		.4byte	.LVL179
 14948 0656 2C010000 		.4byte	.LVL180
 14949 065a 0100     		.2byte	0x1
 14950 065c 50       		.byte	0x50
 14951 065d 2C010000 		.4byte	.LVL180
 14952 0661 60010000 		.4byte	.LVL185
 14953 0665 0100     		.2byte	0x1
 14954 0667 5A       		.byte	0x5a
 14955 0668 60010000 		.4byte	.LVL185
 14956 066c 64010000 		.4byte	.LVL186
 14957 0670 0100     		.2byte	0x1
 14958 0672 50       		.byte	0x50
 14959 0673 64010000 		.4byte	.LVL186
 14960 0677 FA010000 		.4byte	.LVL204
 14961 067b 0100     		.2byte	0x1
 14962 067d 5A       		.byte	0x5a
 14963 067e FA010000 		.4byte	.LVL204
 14964 0682 AA020000 		.4byte	.LVL223
ARM GAS  /var/folders/qd/4mxf5pkd0zdf0b9dd1hp39180000gn/T//cc7TiL7h.s 			page 264


 14965 0686 0200     		.2byte	0x2
 14966 0688 30       		.byte	0x30
 14967 0689 9F       		.byte	0x9f
 14968 068a 00000000 		.4byte	0
 14969 068e 00000000 		.4byte	0
 14970              	.LLST34:
 14971 0692 30010000 		.4byte	.LVL181
 14972 0696 44010000 		.4byte	.LVL182
 14973 069a 0100     		.2byte	0x1
 14974 069c 50       		.byte	0x50
 14975 069d 44010000 		.4byte	.LVL182
 14976 06a1 A2010000 		.4byte	.LVL193
 14977 06a5 0100     		.2byte	0x1
 14978 06a7 5B       		.byte	0x5b
 14979 06a8 A2010000 		.4byte	.LVL193
 14980 06ac A6010000 		.4byte	.LVL194
 14981 06b0 0100     		.2byte	0x1
 14982 06b2 50       		.byte	0x50
 14983 06b3 A6010000 		.4byte	.LVL194
 14984 06b7 00020000 		.4byte	.LVL205
 14985 06bb 0100     		.2byte	0x1
 14986 06bd 5B       		.byte	0x5b
 14987 06be 00020000 		.4byte	.LVL205
 14988 06c2 AA020000 		.4byte	.LVL223
 14989 06c6 0200     		.2byte	0x2
 14990 06c8 30       		.byte	0x30
 14991 06c9 9F       		.byte	0x9f
 14992 06ca 00000000 		.4byte	0
 14993 06ce 00000000 		.4byte	0
 14994              	.LLST35:
 14995 06d2 3A020000 		.4byte	.LVL211
 14996 06d6 3D020000 		.4byte	.LVL212-1
 14997 06da 0500     		.2byte	0x5
 14998 06dc 50       		.byte	0x50
 14999 06dd 93       		.byte	0x93
 15000 06de 04       		.uleb128 0x4
 15001 06df 93       		.byte	0x93
 15002 06e0 04       		.uleb128 0x4
 15003 06e1 3D020000 		.4byte	.LVL212-1
 15004 06e5 AA020000 		.4byte	.LVL223
 15005 06e9 0500     		.2byte	0x5
 15006 06eb 5A       		.byte	0x5a
 15007 06ec 93       		.byte	0x93
 15008 06ed 04       		.uleb128 0x4
 15009 06ee 93       		.byte	0x93
 15010 06ef 04       		.uleb128 0x4
 15011 06f0 00000000 		.4byte	0
 15012 06f4 00000000 		.4byte	0
 15013              	.LLST36:
 15014 06f8 78020000 		.4byte	.LVL219
 15015 06fc 89020000 		.4byte	.LVL220-1
 15016 0700 1600     		.2byte	0x16
 15017 0702 7D       		.byte	0x7d
 15018 0703 00       		.sleb128 0
 15019 0704 F6       		.byte	0xf6
 15020 0705 08       		.byte	0x8
 15021 0706 25       		.uleb128 0x25
ARM GAS  /var/folders/qd/4mxf5pkd0zdf0b9dd1hp39180000gn/T//cc7TiL7h.s 			page 265


 15022 0707 F5       		.byte	0xf5
 15023 0708 40       		.uleb128 0x40
 15024 0709 25       		.uleb128 0x25
 15025 070a 1C       		.byte	0x1c
 15026 070b F4       		.byte	0xf4
 15027 070c 25       		.uleb128 0x25
 15028 070d 08       		.byte	0x8
 15029 070e 00000000 		.4byte	0
 15030 0712 0000E03F 		.4byte	0x3fe00000
 15031 0716 1E       		.byte	0x1e
 15032 0717 9F       		.byte	0x9f
 15033 0718 00000000 		.4byte	0
 15034 071c 00000000 		.4byte	0
 15035              	.LLST22:
 15036 0720 00000000 		.4byte	.LVL145
 15037 0724 12000000 		.4byte	.LVL146
 15038 0728 0100     		.2byte	0x1
 15039 072a 50       		.byte	0x50
 15040 072b 12000000 		.4byte	.LVL146
 15041 072f 19000000 		.4byte	.LVL148-1
 15042 0733 0100     		.2byte	0x1
 15043 0735 52       		.byte	0x52
 15044 0736 19000000 		.4byte	.LVL148-1
 15045 073a 3C000000 		.4byte	.LFE267
 15046 073e 0400     		.2byte	0x4
 15047 0740 F3       		.byte	0xf3
 15048 0741 01       		.uleb128 0x1
 15049 0742 50       		.byte	0x50
 15050 0743 9F       		.byte	0x9f
 15051 0744 00000000 		.4byte	0
 15052 0748 00000000 		.4byte	0
 15053              	.LLST23:
 15054 074c 00000000 		.4byte	.LVL145
 15055 0750 16000000 		.4byte	.LVL147
 15056 0754 0100     		.2byte	0x1
 15057 0756 51       		.byte	0x51
 15058 0757 16000000 		.4byte	.LVL147
 15059 075b 19000000 		.4byte	.LVL148-1
 15060 075f 0100     		.2byte	0x1
 15061 0761 53       		.byte	0x53
 15062 0762 19000000 		.4byte	.LVL148-1
 15063 0766 3C000000 		.4byte	.LFE267
 15064 076a 0400     		.2byte	0x4
 15065 076c F3       		.byte	0xf3
 15066 076d 01       		.uleb128 0x1
 15067 076e 51       		.byte	0x51
 15068 076f 9F       		.byte	0x9f
 15069 0770 00000000 		.4byte	0
 15070 0774 00000000 		.4byte	0
 15071              	.LLST19:
 15072 0778 00000000 		.4byte	.LVL141
 15073 077c 14000000 		.4byte	.LVL142
 15074 0780 0100     		.2byte	0x1
 15075 0782 50       		.byte	0x50
 15076 0783 14000000 		.4byte	.LVL142
 15077 0787 17000000 		.4byte	.LVL143-1
 15078 078b 0100     		.2byte	0x1
ARM GAS  /var/folders/qd/4mxf5pkd0zdf0b9dd1hp39180000gn/T//cc7TiL7h.s 			page 266


 15079 078d 53       		.byte	0x53
 15080 078e 17000000 		.4byte	.LVL143-1
 15081 0792 34000000 		.4byte	.LFE266
 15082 0796 0400     		.2byte	0x4
 15083 0798 F3       		.byte	0xf3
 15084 0799 01       		.uleb128 0x1
 15085 079a 50       		.byte	0x50
 15086 079b 9F       		.byte	0x9f
 15087 079c 00000000 		.4byte	0
 15088 07a0 00000000 		.4byte	0
 15089              	.LLST20:
 15090 07a4 00000000 		.4byte	.LVL141
 15091 07a8 17000000 		.4byte	.LVL143-1
 15092 07ac 0100     		.2byte	0x1
 15093 07ae 51       		.byte	0x51
 15094 07af 17000000 		.4byte	.LVL143-1
 15095 07b3 34000000 		.4byte	.LFE266
 15096 07b7 0400     		.2byte	0x4
 15097 07b9 F3       		.byte	0xf3
 15098 07ba 01       		.uleb128 0x1
 15099 07bb 51       		.byte	0x51
 15100 07bc 9F       		.byte	0x9f
 15101 07bd 00000000 		.4byte	0
 15102 07c1 00000000 		.4byte	0
 15103              	.LLST21:
 15104 07c5 00000000 		.4byte	.LVL141
 15105 07c9 17000000 		.4byte	.LVL143-1
 15106 07cd 0100     		.2byte	0x1
 15107 07cf 52       		.byte	0x52
 15108 07d0 17000000 		.4byte	.LVL143-1
 15109 07d4 34000000 		.4byte	.LFE266
 15110 07d8 0400     		.2byte	0x4
 15111 07da F3       		.byte	0xf3
 15112 07db 01       		.uleb128 0x1
 15113 07dc 52       		.byte	0x52
 15114 07dd 9F       		.byte	0x9f
 15115 07de 00000000 		.4byte	0
 15116 07e2 00000000 		.4byte	0
 15117              	.LLST11:
 15118 07e6 00000000 		.4byte	.LVL112
 15119 07ea 2C000000 		.4byte	.LVL114
 15120 07ee 0100     		.2byte	0x1
 15121 07f0 50       		.byte	0x50
 15122 07f1 2C000000 		.4byte	.LVL114
 15123 07f5 E2000000 		.4byte	.LVL134
 15124 07f9 0400     		.2byte	0x4
 15125 07fb F3       		.byte	0xf3
 15126 07fc 01       		.uleb128 0x1
 15127 07fd 50       		.byte	0x50
 15128 07fe 9F       		.byte	0x9f
 15129 07ff E2000000 		.4byte	.LVL134
 15130 0803 F0000000 		.4byte	.LVL135
 15131 0807 0100     		.2byte	0x1
 15132 0809 50       		.byte	0x50
 15133 080a F0000000 		.4byte	.LVL135
 15134 080e F8000000 		.4byte	.LFE263
 15135 0812 0400     		.2byte	0x4
ARM GAS  /var/folders/qd/4mxf5pkd0zdf0b9dd1hp39180000gn/T//cc7TiL7h.s 			page 267


 15136 0814 F3       		.byte	0xf3
 15137 0815 01       		.uleb128 0x1
 15138 0816 50       		.byte	0x50
 15139 0817 9F       		.byte	0x9f
 15140 0818 00000000 		.4byte	0
 15141 081c 00000000 		.4byte	0
 15142              	.LLST12:
 15143 0820 00000000 		.4byte	.LVL112
 15144 0824 2C000000 		.4byte	.LVL114
 15145 0828 0100     		.2byte	0x1
 15146 082a 51       		.byte	0x51
 15147 082b 2C000000 		.4byte	.LVL114
 15148 082f E2000000 		.4byte	.LVL134
 15149 0833 0200     		.2byte	0x2
 15150 0835 91       		.byte	0x91
 15151 0836 4C       		.sleb128 -52
 15152 0837 E2000000 		.4byte	.LVL134
 15153 083b F0000000 		.4byte	.LVL135
 15154 083f 0100     		.2byte	0x1
 15155 0841 51       		.byte	0x51
 15156 0842 F0000000 		.4byte	.LVL135
 15157 0846 F8000000 		.4byte	.LFE263
 15158 084a 0200     		.2byte	0x2
 15159 084c 91       		.byte	0x91
 15160 084d 4C       		.sleb128 -52
 15161 084e 00000000 		.4byte	0
 15162 0852 00000000 		.4byte	0
 15163              	.LLST13:
 15164 0856 00000000 		.4byte	.LVL112
 15165 085a 2C000000 		.4byte	.LVL114
 15166 085e 0100     		.2byte	0x1
 15167 0860 52       		.byte	0x52
 15168 0861 2C000000 		.4byte	.LVL114
 15169 0865 E2000000 		.4byte	.LVL134
 15170 0869 0200     		.2byte	0x2
 15171 086b 91       		.byte	0x91
 15172 086c 48       		.sleb128 -56
 15173 086d E2000000 		.4byte	.LVL134
 15174 0871 F0000000 		.4byte	.LVL135
 15175 0875 0100     		.2byte	0x1
 15176 0877 52       		.byte	0x52
 15177 0878 F0000000 		.4byte	.LVL135
 15178 087c F8000000 		.4byte	.LFE263
 15179 0880 0200     		.2byte	0x2
 15180 0882 91       		.byte	0x91
 15181 0883 48       		.sleb128 -56
 15182 0884 00000000 		.4byte	0
 15183 0888 00000000 		.4byte	0
 15184              	.LLST14:
 15185 088c 5C000000 		.4byte	.LVL118
 15186 0890 B0000000 		.4byte	.LVL131
 15187 0894 0600     		.2byte	0x6
 15188 0896 56       		.byte	0x56
 15189 0897 93       		.byte	0x93
 15190 0898 04       		.uleb128 0x4
 15191 0899 57       		.byte	0x57
 15192 089a 93       		.byte	0x93
ARM GAS  /var/folders/qd/4mxf5pkd0zdf0b9dd1hp39180000gn/T//cc7TiL7h.s 			page 268


 15193 089b 04       		.uleb128 0x4
 15194 089c 00000000 		.4byte	0
 15195 08a0 00000000 		.4byte	0
 15196              	.LLST15:
 15197 08a4 5C000000 		.4byte	.LVL118
 15198 08a8 70000000 		.4byte	.LVL123
 15199 08ac 1200     		.2byte	0x12
 15200 08ae 78       		.byte	0x78
 15201 08af 00       		.sleb128 0
 15202 08b0 F7       		.byte	0xf7
 15203 08b1 2C       		.uleb128 0x2c
 15204 08b2 F7       		.byte	0xf7
 15205 08b3 25       		.uleb128 0x25
 15206 08b4 75       		.byte	0x75
 15207 08b5 00       		.sleb128 0
 15208 08b6 F7       		.byte	0xf7
 15209 08b7 2C       		.uleb128 0x2c
 15210 08b8 F7       		.byte	0xf7
 15211 08b9 25       		.uleb128 0x25
 15212 08ba F5       		.byte	0xf5
 15213 08bb 06       		.uleb128 0x6
 15214 08bc 25       		.uleb128 0x25
 15215 08bd 1E       		.byte	0x1e
 15216 08be 1C       		.byte	0x1c
 15217 08bf 9F       		.byte	0x9f
 15218 08c0 00000000 		.4byte	0
 15219 08c4 00000000 		.4byte	0
 15220              	.LLST16:
 15221 08c8 10000000 		.4byte	.LVL113
 15222 08cc 2C000000 		.4byte	.LVL114
 15223 08d0 0A00     		.2byte	0xa
 15224 08d2 9E       		.byte	0x9e
 15225 08d3 08       		.uleb128 0x8
 15226 08d4 00000000 		.4byte	0
 15227 08d8 00000000 		.4byte	0
 15228 08dc 2C000000 		.4byte	.LVL114
 15229 08e0 68000000 		.4byte	.LVL120
 15230 08e4 0200     		.2byte	0x2
 15231 08e6 7D       		.byte	0x7d
 15232 08e7 00       		.sleb128 0
 15233 08e8 68000000 		.4byte	.LVL120
 15234 08ec 6A000000 		.4byte	.LVL121
 15235 08f0 0600     		.2byte	0x6
 15236 08f2 50       		.byte	0x50
 15237 08f3 93       		.byte	0x93
 15238 08f4 04       		.uleb128 0x4
 15239 08f5 51       		.byte	0x51
 15240 08f6 93       		.byte	0x93
 15241 08f7 04       		.uleb128 0x4
 15242 08f8 6A000000 		.4byte	.LVL121
 15243 08fc B0000000 		.4byte	.LVL131
 15244 0900 0200     		.2byte	0x2
 15245 0902 7D       		.byte	0x7d
 15246 0903 00       		.sleb128 0
 15247 0904 E2000000 		.4byte	.LVL134
 15248 0908 F0000000 		.4byte	.LVL135
 15249 090c 0A00     		.2byte	0xa
ARM GAS  /var/folders/qd/4mxf5pkd0zdf0b9dd1hp39180000gn/T//cc7TiL7h.s 			page 269


 15250 090e 9E       		.byte	0x9e
 15251 090f 08       		.uleb128 0x8
 15252 0910 00000000 		.4byte	0
 15253 0914 00000000 		.4byte	0
 15254 0918 00000000 		.4byte	0
 15255 091c 00000000 		.4byte	0
 15256              	.LLST17:
 15257 0920 10000000 		.4byte	.LVL113
 15258 0924 2C000000 		.4byte	.LVL114
 15259 0928 0A00     		.2byte	0xa
 15260 092a 9E       		.byte	0x9e
 15261 092b 08       		.uleb128 0x8
 15262 092c 00000000 		.4byte	0
 15263 0930 00000000 		.4byte	0
 15264 0934 2C000000 		.4byte	.LVL114
 15265 0938 A0000000 		.4byte	.LVL128
 15266 093c 0600     		.2byte	0x6
 15267 093e 5A       		.byte	0x5a
 15268 093f 93       		.byte	0x93
 15269 0940 04       		.uleb128 0x4
 15270 0941 5B       		.byte	0x5b
 15271 0942 93       		.byte	0x93
 15272 0943 04       		.uleb128 0x4
 15273 0944 A2000000 		.4byte	.LVL129
 15274 0948 B0000000 		.4byte	.LVL131
 15275 094c 0600     		.2byte	0x6
 15276 094e 5A       		.byte	0x5a
 15277 094f 93       		.byte	0x93
 15278 0950 04       		.uleb128 0x4
 15279 0951 5B       		.byte	0x5b
 15280 0952 93       		.byte	0x93
 15281 0953 04       		.uleb128 0x4
 15282 0954 E2000000 		.4byte	.LVL134
 15283 0958 F0000000 		.4byte	.LVL135
 15284 095c 0A00     		.2byte	0xa
 15285 095e 9E       		.byte	0x9e
 15286 095f 08       		.uleb128 0x8
 15287 0960 00000000 		.4byte	0
 15288 0964 00000000 		.4byte	0
 15289 0968 00000000 		.4byte	0
 15290 096c 00000000 		.4byte	0
 15291              	.LLST18:
 15292 0970 10000000 		.4byte	.LVL113
 15293 0974 2C000000 		.4byte	.LVL114
 15294 0978 0200     		.2byte	0x2
 15295 097a 30       		.byte	0x30
 15296 097b 9F       		.byte	0x9f
 15297 097c E2000000 		.4byte	.LVL134
 15298 0980 F0000000 		.4byte	.LVL135
 15299 0984 0200     		.2byte	0x2
 15300 0986 30       		.byte	0x30
 15301 0987 9F       		.byte	0x9f
 15302 0988 00000000 		.4byte	0
 15303 098c 00000000 		.4byte	0
 15304              	.LLST8:
 15305 0990 1C000000 		.4byte	.LVL76
 15306 0994 1E000000 		.4byte	.LVL77
ARM GAS  /var/folders/qd/4mxf5pkd0zdf0b9dd1hp39180000gn/T//cc7TiL7h.s 			page 270


 15307 0998 0A00     		.2byte	0xa
 15308 099a 91       		.byte	0x91
 15309 099b E07E     		.sleb128 -160
 15310 099d 93       		.byte	0x93
 15311 099e 04       		.uleb128 0x4
 15312 099f 91       		.byte	0x91
 15313 09a0 E47E     		.sleb128 -156
 15314 09a2 93       		.byte	0x93
 15315 09a3 04       		.uleb128 0x4
 15316 09a4 1E000000 		.4byte	.LVL77
 15317 09a8 22000000 		.4byte	.LVL78
 15318 09ac 0900     		.2byte	0x9
 15319 09ae 73       		.byte	0x73
 15320 09af 00       		.sleb128 0
 15321 09b0 93       		.byte	0x93
 15322 09b1 04       		.uleb128 0x4
 15323 09b2 91       		.byte	0x91
 15324 09b3 E47E     		.sleb128 -156
 15325 09b5 93       		.byte	0x93
 15326 09b6 04       		.uleb128 0x4
 15327 09b7 00000000 		.4byte	0
 15328 09bb 00000000 		.4byte	0
 15329              	.LLST9:
 15330 09bf 00000000 		.4byte	.LVL75
 15331 09c3 25000000 		.4byte	.LVL79-1
 15332 09c7 0800     		.2byte	0x8
 15333 09c9 90       		.byte	0x90
 15334 09ca 40       		.uleb128 0x40
 15335 09cb 93       		.byte	0x93
 15336 09cc 04       		.uleb128 0x4
 15337 09cd 90       		.byte	0x90
 15338 09ce 41       		.uleb128 0x41
 15339 09cf 93       		.byte	0x93
 15340 09d0 04       		.uleb128 0x4
 15341 09d1 25000000 		.4byte	.LVL79-1
 15342 09d5 B0010000 		.4byte	.LVL109
 15343 09d9 0800     		.2byte	0x8
 15344 09db 90       		.byte	0x90
 15345 09dc 50       		.uleb128 0x50
 15346 09dd 93       		.byte	0x93
 15347 09de 04       		.uleb128 0x4
 15348 09df 90       		.byte	0x90
 15349 09e0 51       		.uleb128 0x51
 15350 09e1 93       		.byte	0x93
 15351 09e2 04       		.uleb128 0x4
 15352 09e3 B0010000 		.4byte	.LVL109
 15353 09e7 B4010000 		.4byte	.LVL110
 15354 09eb 0600     		.2byte	0x6
 15355 09ed F3       		.byte	0xf3
 15356 09ee 03       		.uleb128 0x3
 15357 09ef F5       		.byte	0xf5
 15358 09f0 40       		.uleb128 0x40
 15359 09f1 25       		.uleb128 0x25
 15360 09f2 9F       		.byte	0x9f
 15361 09f3 B4010000 		.4byte	.LVL110
 15362 09f7 D8010000 		.4byte	.LFE262
 15363 09fb 0800     		.2byte	0x8
ARM GAS  /var/folders/qd/4mxf5pkd0zdf0b9dd1hp39180000gn/T//cc7TiL7h.s 			page 271


 15364 09fd 90       		.byte	0x90
 15365 09fe 50       		.uleb128 0x50
 15366 09ff 93       		.byte	0x93
 15367 0a00 04       		.uleb128 0x4
 15368 0a01 90       		.byte	0x90
 15369 0a02 51       		.uleb128 0x51
 15370 0a03 93       		.byte	0x93
 15371 0a04 04       		.uleb128 0x4
 15372 0a05 00000000 		.4byte	0
 15373 0a09 00000000 		.4byte	0
 15374              	.LLST10:
 15375 0a0d 10010000 		.4byte	.LVL98
 15376 0a11 4A010000 		.4byte	.LVL103
 15377 0a15 1400     		.2byte	0x14
 15378 0a17 F5       		.byte	0xf5
 15379 0a18 08       		.uleb128 0x8
 15380 0a19 25       		.uleb128 0x25
 15381 0a1a F4       		.byte	0xf4
 15382 0a1b 25       		.uleb128 0x25
 15383 0a1c 08       		.byte	0x8
 15384 0a1d 00000060 		.4byte	0x60000000
 15385 0a21 FB211940 		.4byte	0x401921fb
 15386 0a25 1B       		.byte	0x1b
 15387 0a26 F7       		.byte	0xf7
 15388 0a27 2C       		.uleb128 0x2c
 15389 0a28 F7       		.byte	0xf7
 15390 0a29 00       		.uleb128 0
 15391 0a2a 9F       		.byte	0x9f
 15392 0a2b 00000000 		.4byte	0
 15393 0a2f 00000000 		.4byte	0
 15394              	.LLST6:
 15395 0a33 00000000 		.4byte	.LVL54
 15396 0a37 27000000 		.4byte	.LVL55-1
 15397 0a3b 0100     		.2byte	0x1
 15398 0a3d 51       		.byte	0x51
 15399 0a3e 27000000 		.4byte	.LVL55-1
 15400 0a42 A4000000 		.4byte	.LVL68
 15401 0a46 0100     		.2byte	0x1
 15402 0a48 54       		.byte	0x54
 15403 0a49 A4000000 		.4byte	.LVL68
 15404 0a4d D8000000 		.4byte	.LFE261
 15405 0a51 0400     		.2byte	0x4
 15406 0a53 F3       		.byte	0xf3
 15407 0a54 01       		.uleb128 0x1
 15408 0a55 51       		.byte	0x51
 15409 0a56 9F       		.byte	0x9f
 15410 0a57 00000000 		.4byte	0
 15411 0a5b 00000000 		.4byte	0
 15412              	.LLST7:
 15413 0a5f 68000000 		.4byte	.LVL61
 15414 0a63 6B000000 		.4byte	.LVL62-1
 15415 0a67 0500     		.2byte	0x5
 15416 0a69 50       		.byte	0x50
 15417 0a6a 93       		.byte	0x93
 15418 0a6b 04       		.uleb128 0x4
 15419 0a6c 93       		.byte	0x93
 15420 0a6d 04       		.uleb128 0x4
ARM GAS  /var/folders/qd/4mxf5pkd0zdf0b9dd1hp39180000gn/T//cc7TiL7h.s 			page 272


 15421 0a6e 6B000000 		.4byte	.LVL62-1
 15422 0a72 A4000000 		.4byte	.LVL68
 15423 0a76 0500     		.2byte	0x5
 15424 0a78 56       		.byte	0x56
 15425 0a79 93       		.byte	0x93
 15426 0a7a 04       		.uleb128 0x4
 15427 0a7b 93       		.byte	0x93
 15428 0a7c 04       		.uleb128 0x4
 15429 0a7d A4000000 		.4byte	.LVL68
 15430 0a81 A8000000 		.4byte	.LVL69
 15431 0a85 0600     		.2byte	0x6
 15432 0a87 56       		.byte	0x56
 15433 0a88 93       		.byte	0x93
 15434 0a89 04       		.uleb128 0x4
 15435 0a8a 50       		.byte	0x50
 15436 0a8b 93       		.byte	0x93
 15437 0a8c 04       		.uleb128 0x4
 15438 0a8d A8000000 		.4byte	.LVL69
 15439 0a91 AB000000 		.4byte	.LVL70-1
 15440 0a95 0600     		.2byte	0x6
 15441 0a97 56       		.byte	0x56
 15442 0a98 93       		.byte	0x93
 15443 0a99 04       		.uleb128 0x4
 15444 0a9a 53       		.byte	0x53
 15445 0a9b 93       		.byte	0x93
 15446 0a9c 04       		.uleb128 0x4
 15447 0a9d AB000000 		.4byte	.LVL70-1
 15448 0aa1 BE000000 		.4byte	.LVL72
 15449 0aa5 0600     		.2byte	0x6
 15450 0aa7 56       		.byte	0x56
 15451 0aa8 93       		.byte	0x93
 15452 0aa9 04       		.uleb128 0x4
 15453 0aaa 54       		.byte	0x54
 15454 0aab 93       		.byte	0x93
 15455 0aac 04       		.uleb128 0x4
 15456 0aad 00000000 		.4byte	0
 15457 0ab1 00000000 		.4byte	0
 15458              	.LLST1:
 15459 0ab5 00000000 		.4byte	.LVL10
 15460 0ab9 1B000000 		.4byte	.LVL13-1
 15461 0abd 0100     		.2byte	0x1
 15462 0abf 51       		.byte	0x51
 15463 0ac0 1B000000 		.4byte	.LVL13-1
 15464 0ac4 0A010000 		.4byte	.LVL36
 15465 0ac8 0100     		.2byte	0x1
 15466 0aca 58       		.byte	0x58
 15467 0acb 0A010000 		.4byte	.LVL36
 15468 0acf C4010000 		.4byte	.LFE260
 15469 0ad3 0400     		.2byte	0x4
 15470 0ad5 F3       		.byte	0xf3
 15471 0ad6 01       		.uleb128 0x1
 15472 0ad7 51       		.byte	0x51
 15473 0ad8 9F       		.byte	0x9f
 15474 0ad9 00000000 		.4byte	0
 15475 0add 00000000 		.4byte	0
 15476              	.LLST2:
 15477 0ae1 00000000 		.4byte	.LVL10
ARM GAS  /var/folders/qd/4mxf5pkd0zdf0b9dd1hp39180000gn/T//cc7TiL7h.s 			page 273


 15478 0ae5 1B000000 		.4byte	.LVL13-1
 15479 0ae9 0100     		.2byte	0x1
 15480 0aeb 52       		.byte	0x52
 15481 0aec 1B000000 		.4byte	.LVL13-1
 15482 0af0 72000000 		.4byte	.LVL18
 15483 0af4 0100     		.2byte	0x1
 15484 0af6 54       		.byte	0x54
 15485 0af7 72000000 		.4byte	.LVL18
 15486 0afb C4010000 		.4byte	.LFE260
 15487 0aff 0400     		.2byte	0x4
 15488 0b01 F3       		.byte	0xf3
 15489 0b02 01       		.uleb128 0x1
 15490 0b03 52       		.byte	0x52
 15491 0b04 9F       		.byte	0x9f
 15492 0b05 00000000 		.4byte	0
 15493 0b09 00000000 		.4byte	0
 15494              	.LLST3:
 15495 0b0d 00000000 		.4byte	.LVL10
 15496 0b11 0E000000 		.4byte	.LVL12
 15497 0b15 0100     		.2byte	0x1
 15498 0b17 53       		.byte	0x53
 15499 0b18 0E000000 		.4byte	.LVL12
 15500 0b1c 1B000000 		.4byte	.LVL13-1
 15501 0b20 0100     		.2byte	0x1
 15502 0b22 50       		.byte	0x50
 15503 0b23 1B000000 		.4byte	.LVL13-1
 15504 0b27 C4010000 		.4byte	.LFE260
 15505 0b2b 0400     		.2byte	0x4
 15506 0b2d F3       		.byte	0xf3
 15507 0b2e 01       		.uleb128 0x1
 15508 0b2f 53       		.byte	0x53
 15509 0b30 9F       		.byte	0x9f
 15510 0b31 00000000 		.4byte	0
 15511 0b35 00000000 		.4byte	0
 15512              	.LLST4:
 15513 0b39 9E000000 		.4byte	.LVL23
 15514 0b3d A1000000 		.4byte	.LVL24-1
 15515 0b41 0500     		.2byte	0x5
 15516 0b43 50       		.byte	0x50
 15517 0b44 93       		.byte	0x93
 15518 0b45 04       		.uleb128 0x4
 15519 0b46 93       		.byte	0x93
 15520 0b47 0C       		.uleb128 0xc
 15521 0b48 A1000000 		.4byte	.LVL24-1
 15522 0b4c E0000000 		.4byte	.LVL30
 15523 0b50 0500     		.2byte	0x5
 15524 0b52 5B       		.byte	0x5b
 15525 0b53 93       		.byte	0x93
 15526 0b54 04       		.uleb128 0x4
 15527 0b55 93       		.byte	0x93
 15528 0b56 0C       		.uleb128 0xc
 15529 0b57 E0000000 		.4byte	.LVL30
 15530 0b5b E4000000 		.4byte	.LVL31
 15531 0b5f 0800     		.2byte	0x8
 15532 0b61 5B       		.byte	0x5b
 15533 0b62 93       		.byte	0x93
 15534 0b63 04       		.uleb128 0x4
ARM GAS  /var/folders/qd/4mxf5pkd0zdf0b9dd1hp39180000gn/T//cc7TiL7h.s 			page 274


 15535 0b64 50       		.byte	0x50
 15536 0b65 93       		.byte	0x93
 15537 0b66 04       		.uleb128 0x4
 15538 0b67 93       		.byte	0x93
 15539 0b68 08       		.uleb128 0x8
 15540 0b69 E4000000 		.4byte	.LVL31
 15541 0b6d 0C010000 		.4byte	.LVL37
 15542 0b71 0A00     		.2byte	0xa
 15543 0b73 5B       		.byte	0x5b
 15544 0b74 93       		.byte	0x93
 15545 0b75 04       		.uleb128 0x4
 15546 0b76 91       		.byte	0x91
 15547 0b77 E07E     		.sleb128 -160
 15548 0b79 93       		.byte	0x93
 15549 0b7a 04       		.uleb128 0x4
 15550 0b7b 93       		.byte	0x93
 15551 0b7c 08       		.uleb128 0x8
 15552 0b7d 0C010000 		.4byte	.LVL37
 15553 0b81 2A010000 		.4byte	.LVL40
 15554 0b85 0E00     		.2byte	0xe
 15555 0b87 5B       		.byte	0x5b
 15556 0b88 93       		.byte	0x93
 15557 0b89 04       		.uleb128 0x4
 15558 0b8a 91       		.byte	0x91
 15559 0b8b E07E     		.sleb128 -160
 15560 0b8d 93       		.byte	0x93
 15561 0b8e 04       		.uleb128 0x4
 15562 0b8f 58       		.byte	0x58
 15563 0b90 93       		.byte	0x93
 15564 0b91 04       		.uleb128 0x4
 15565 0b92 59       		.byte	0x59
 15566 0b93 93       		.byte	0x93
 15567 0b94 04       		.uleb128 0x4
 15568 0b95 2A010000 		.4byte	.LVL40
 15569 0b99 2C010000 		.4byte	.LVL41
 15570 0b9d 0A00     		.2byte	0xa
 15571 0b9f 5B       		.byte	0x5b
 15572 0ba0 93       		.byte	0x93
 15573 0ba1 04       		.uleb128 0x4
 15574 0ba2 91       		.byte	0x91
 15575 0ba3 E07E     		.sleb128 -160
 15576 0ba5 93       		.byte	0x93
 15577 0ba6 04       		.uleb128 0x4
 15578 0ba7 93       		.byte	0x93
 15579 0ba8 08       		.uleb128 0x8
 15580 0ba9 2C010000 		.4byte	.LVL41
 15581 0bad 5E010000 		.4byte	.LVL45
 15582 0bb1 0E00     		.2byte	0xe
 15583 0bb3 5B       		.byte	0x5b
 15584 0bb4 93       		.byte	0x93
 15585 0bb5 04       		.uleb128 0x4
 15586 0bb6 91       		.byte	0x91
 15587 0bb7 E07E     		.sleb128 -160
 15588 0bb9 93       		.byte	0x93
 15589 0bba 04       		.uleb128 0x4
 15590 0bbb 58       		.byte	0x58
 15591 0bbc 93       		.byte	0x93
ARM GAS  /var/folders/qd/4mxf5pkd0zdf0b9dd1hp39180000gn/T//cc7TiL7h.s 			page 275


 15592 0bbd 04       		.uleb128 0x4
 15593 0bbe 59       		.byte	0x59
 15594 0bbf 93       		.byte	0x93
 15595 0bc0 04       		.uleb128 0x4
 15596 0bc1 5E010000 		.4byte	.LVL45
 15597 0bc5 60010000 		.4byte	.LVL46
 15598 0bc9 0A00     		.2byte	0xa
 15599 0bcb 5B       		.byte	0x5b
 15600 0bcc 93       		.byte	0x93
 15601 0bcd 04       		.uleb128 0x4
 15602 0bce 91       		.byte	0x91
 15603 0bcf E07E     		.sleb128 -160
 15604 0bd1 93       		.byte	0x93
 15605 0bd2 04       		.uleb128 0x4
 15606 0bd3 93       		.byte	0x93
 15607 0bd4 08       		.uleb128 0x8
 15608 0bd5 60010000 		.4byte	.LVL46
 15609 0bd9 96010000 		.4byte	.LVL51
 15610 0bdd 0E00     		.2byte	0xe
 15611 0bdf 5B       		.byte	0x5b
 15612 0be0 93       		.byte	0x93
 15613 0be1 04       		.uleb128 0x4
 15614 0be2 91       		.byte	0x91
 15615 0be3 E07E     		.sleb128 -160
 15616 0be5 93       		.byte	0x93
 15617 0be6 04       		.uleb128 0x4
 15618 0be7 58       		.byte	0x58
 15619 0be8 93       		.byte	0x93
 15620 0be9 04       		.uleb128 0x4
 15621 0bea 59       		.byte	0x59
 15622 0beb 93       		.byte	0x93
 15623 0bec 04       		.uleb128 0x4
 15624 0bed 00000000 		.4byte	0
 15625 0bf1 00000000 		.4byte	0
 15626              	.LLST5:
 15627 0bf5 0C010000 		.4byte	.LVL37
 15628 0bf9 68010000 		.4byte	.LVL48
 15629 0bfd 0600     		.2byte	0x6
 15630 0bff F2       		.byte	0xf2
 15631 0c00 114B0000 		.4byte	.Ldebug_info0+19217
 15632 0c04 08       		.sleb128 8
 15633 0c05 00000000 		.4byte	0
 15634 0c09 00000000 		.4byte	0
 15635              	.LLST0:
 15636 0c0d 00000000 		.4byte	.LVL0
 15637 0c11 1A000000 		.4byte	.LVL1
 15638 0c15 0100     		.2byte	0x1
 15639 0c17 50       		.byte	0x50
 15640 0c18 1A000000 		.4byte	.LVL1
 15641 0c1c AC000000 		.4byte	.LFE259
 15642 0c20 0100     		.2byte	0x1
 15643 0c22 5B       		.byte	0x5b
 15644 0c23 00000000 		.4byte	0
 15645 0c27 00000000 		.4byte	0
 15646              	.LLST43:
 15647 0c2b 28000000 		.4byte	.LVL296
 15648 0c2f 48000000 		.4byte	.LVL301
ARM GAS  /var/folders/qd/4mxf5pkd0zdf0b9dd1hp39180000gn/T//cc7TiL7h.s 			page 276


 15649 0c33 0800     		.2byte	0x8
 15650 0c35 75       		.byte	0x75
 15651 0c36 00       		.sleb128 0
 15652 0c37 93       		.byte	0x93
 15653 0c38 04       		.uleb128 0x4
 15654 0c39 91       		.byte	0x91
 15655 0c3a 64       		.sleb128 -28
 15656 0c3b 93       		.byte	0x93
 15657 0c3c 04       		.uleb128 0x4
 15658 0c3d 48000000 		.4byte	.LVL301
 15659 0c41 50000000 		.4byte	.LFE273
 15660 0c45 0800     		.2byte	0x8
 15661 0c47 75       		.byte	0x75
 15662 0c48 00       		.sleb128 0
 15663 0c49 93       		.byte	0x93
 15664 0c4a 04       		.uleb128 0x4
 15665 0c4b 91       		.byte	0x91
 15666 0c4c 64       		.sleb128 -28
 15667 0c4d 93       		.byte	0x93
 15668 0c4e 04       		.uleb128 0x4
 15669 0c4f 00000000 		.4byte	0
 15670 0c53 00000000 		.4byte	0
 15671              	.LLST44:
 15672 0c57 28000000 		.4byte	.LVL296
 15673 0c5b 2B000000 		.4byte	.LVL297-1
 15674 0c5f 0700     		.2byte	0x7
 15675 0c61 52       		.byte	0x52
 15676 0c62 93       		.byte	0x93
 15677 0c63 04       		.uleb128 0x4
 15678 0c64 91       		.byte	0x91
 15679 0c65 5C       		.sleb128 -36
 15680 0c66 93       		.byte	0x93
 15681 0c67 04       		.uleb128 0x4
 15682 0c68 2B000000 		.4byte	.LVL297-1
 15683 0c6c 46000000 		.4byte	.LVL300
 15684 0c70 0800     		.2byte	0x8
 15685 0c72 7D       		.byte	0x7d
 15686 0c73 00       		.sleb128 0
 15687 0c74 93       		.byte	0x93
 15688 0c75 04       		.uleb128 0x4
 15689 0c76 91       		.byte	0x91
 15690 0c77 5C       		.sleb128 -36
 15691 0c78 93       		.byte	0x93
 15692 0c79 04       		.uleb128 0x4
 15693 0c7a 46000000 		.4byte	.LVL300
 15694 0c7e 48000000 		.4byte	.LVL301
 15695 0c82 0800     		.2byte	0x8
 15696 0c84 91       		.byte	0x91
 15697 0c85 58       		.sleb128 -40
 15698 0c86 93       		.byte	0x93
 15699 0c87 04       		.uleb128 0x4
 15700 0c88 91       		.byte	0x91
 15701 0c89 5C       		.sleb128 -36
 15702 0c8a 93       		.byte	0x93
 15703 0c8b 04       		.uleb128 0x4
 15704 0c8c 48000000 		.4byte	.LVL301
 15705 0c90 50000000 		.4byte	.LFE273
ARM GAS  /var/folders/qd/4mxf5pkd0zdf0b9dd1hp39180000gn/T//cc7TiL7h.s 			page 277


 15706 0c94 0800     		.2byte	0x8
 15707 0c96 7D       		.byte	0x7d
 15708 0c97 00       		.sleb128 0
 15709 0c98 93       		.byte	0x93
 15710 0c99 04       		.uleb128 0x4
 15711 0c9a 91       		.byte	0x91
 15712 0c9b 5C       		.sleb128 -36
 15713 0c9c 93       		.byte	0x93
 15714 0c9d 04       		.uleb128 0x4
 15715 0c9e 00000000 		.4byte	0
 15716 0ca2 00000000 		.4byte	0
 15717              	.LLST47:
 15718 0ca6 1C000000 		.4byte	.LVL311
 15719 0caa 1E000000 		.4byte	.LVL312
 15720 0cae 0600     		.2byte	0x6
 15721 0cb0 50       		.byte	0x50
 15722 0cb1 93       		.byte	0x93
 15723 0cb2 04       		.uleb128 0x4
 15724 0cb3 53       		.byte	0x53
 15725 0cb4 93       		.byte	0x93
 15726 0cb5 04       		.uleb128 0x4
 15727 0cb6 1E000000 		.4byte	.LVL312
 15728 0cba 20000000 		.4byte	.LVL313
 15729 0cbe 0700     		.2byte	0x7
 15730 0cc0 50       		.byte	0x50
 15731 0cc1 93       		.byte	0x93
 15732 0cc2 04       		.uleb128 0x4
 15733 0cc3 91       		.byte	0x91
 15734 0cc4 64       		.sleb128 -28
 15735 0cc5 93       		.byte	0x93
 15736 0cc6 04       		.uleb128 0x4
 15737 0cc7 20000000 		.4byte	.LVL313
 15738 0ccb 3C000000 		.4byte	.LVL316
 15739 0ccf 0800     		.2byte	0x8
 15740 0cd1 91       		.byte	0x91
 15741 0cd2 60       		.sleb128 -32
 15742 0cd3 93       		.byte	0x93
 15743 0cd4 04       		.uleb128 0x4
 15744 0cd5 91       		.byte	0x91
 15745 0cd6 64       		.sleb128 -28
 15746 0cd7 93       		.byte	0x93
 15747 0cd8 04       		.uleb128 0x4
 15748 0cd9 3C000000 		.4byte	.LVL316
 15749 0cdd 44000000 		.4byte	.LFE276
 15750 0ce1 0800     		.2byte	0x8
 15751 0ce3 91       		.byte	0x91
 15752 0ce4 60       		.sleb128 -32
 15753 0ce5 93       		.byte	0x93
 15754 0ce6 04       		.uleb128 0x4
 15755 0ce7 91       		.byte	0x91
 15756 0ce8 64       		.sleb128 -28
 15757 0ce9 93       		.byte	0x93
 15758 0cea 04       		.uleb128 0x4
 15759 0ceb 00000000 		.4byte	0
 15760 0cef 00000000 		.4byte	0
 15761              	.LLST48:
 15762 0cf3 1C000000 		.4byte	.LVL311
ARM GAS  /var/folders/qd/4mxf5pkd0zdf0b9dd1hp39180000gn/T//cc7TiL7h.s 			page 278


 15763 0cf7 2A000000 		.4byte	.LVL314
 15764 0cfb 0600     		.2byte	0x6
 15765 0cfd 51       		.byte	0x51
 15766 0cfe 93       		.byte	0x93
 15767 0cff 04       		.uleb128 0x4
 15768 0d00 54       		.byte	0x54
 15769 0d01 93       		.byte	0x93
 15770 0d02 04       		.uleb128 0x4
 15771 0d03 2A000000 		.4byte	.LVL314
 15772 0d07 3A000000 		.4byte	.LVL315
 15773 0d0b 0700     		.2byte	0x7
 15774 0d0d 7D       		.byte	0x7d
 15775 0d0e 00       		.sleb128 0
 15776 0d0f 93       		.byte	0x93
 15777 0d10 04       		.uleb128 0x4
 15778 0d11 54       		.byte	0x54
 15779 0d12 93       		.byte	0x93
 15780 0d13 04       		.uleb128 0x4
 15781 0d14 3A000000 		.4byte	.LVL315
 15782 0d18 3C000000 		.4byte	.LVL316
 15783 0d1c 0700     		.2byte	0x7
 15784 0d1e 91       		.byte	0x91
 15785 0d1f 58       		.sleb128 -40
 15786 0d20 93       		.byte	0x93
 15787 0d21 04       		.uleb128 0x4
 15788 0d22 54       		.byte	0x54
 15789 0d23 93       		.byte	0x93
 15790 0d24 04       		.uleb128 0x4
 15791 0d25 3C000000 		.4byte	.LVL316
 15792 0d29 44000000 		.4byte	.LFE276
 15793 0d2d 0700     		.2byte	0x7
 15794 0d2f 7D       		.byte	0x7d
 15795 0d30 00       		.sleb128 0
 15796 0d31 93       		.byte	0x93
 15797 0d32 04       		.uleb128 0x4
 15798 0d33 54       		.byte	0x54
 15799 0d34 93       		.byte	0x93
 15800 0d35 04       		.uleb128 0x4
 15801 0d36 00000000 		.4byte	0
 15802 0d3a 00000000 		.4byte	0
 15803              	.LLST49:
 15804 0d3e 16000000 		.4byte	.LVL318
 15805 0d42 1E000000 		.4byte	.LVL319
 15806 0d46 0600     		.2byte	0x6
 15807 0d48 50       		.byte	0x50
 15808 0d49 93       		.byte	0x93
 15809 0d4a 04       		.uleb128 0x4
 15810 0d4b 51       		.byte	0x51
 15811 0d4c 93       		.byte	0x93
 15812 0d4d 04       		.uleb128 0x4
 15813 0d4e 1E000000 		.4byte	.LVL319
 15814 0d52 36000000 		.4byte	.LVL320
 15815 0d56 0600     		.2byte	0x6
 15816 0d58 50       		.byte	0x50
 15817 0d59 93       		.byte	0x93
 15818 0d5a 04       		.uleb128 0x4
 15819 0d5b 55       		.byte	0x55
ARM GAS  /var/folders/qd/4mxf5pkd0zdf0b9dd1hp39180000gn/T//cc7TiL7h.s 			page 279


 15820 0d5c 93       		.byte	0x93
 15821 0d5d 04       		.uleb128 0x4
 15822 0d5e 36000000 		.4byte	.LVL320
 15823 0d62 56000000 		.4byte	.LVL325
 15824 0d66 0600     		.2byte	0x6
 15825 0d68 57       		.byte	0x57
 15826 0d69 93       		.byte	0x93
 15827 0d6a 04       		.uleb128 0x4
 15828 0d6b 55       		.byte	0x55
 15829 0d6c 93       		.byte	0x93
 15830 0d6d 04       		.uleb128 0x4
 15831 0d6e 56000000 		.4byte	.LVL325
 15832 0d72 62000000 		.4byte	.LVL326
 15833 0d76 0800     		.2byte	0x8
 15834 0d78 7D       		.byte	0x7d
 15835 0d79 00       		.sleb128 0
 15836 0d7a 93       		.byte	0x93
 15837 0d7b 04       		.uleb128 0x4
 15838 0d7c 7D       		.byte	0x7d
 15839 0d7d 04       		.sleb128 4
 15840 0d7e 93       		.byte	0x93
 15841 0d7f 04       		.uleb128 0x4
 15842 0d80 62000000 		.4byte	.LVL326
 15843 0d84 64000000 		.4byte	.LVL327
 15844 0d88 0800     		.2byte	0x8
 15845 0d8a 91       		.byte	0x91
 15846 0d8b 58       		.sleb128 -40
 15847 0d8c 93       		.byte	0x93
 15848 0d8d 04       		.uleb128 0x4
 15849 0d8e 91       		.byte	0x91
 15850 0d8f 5C       		.sleb128 -36
 15851 0d90 93       		.byte	0x93
 15852 0d91 04       		.uleb128 0x4
 15853 0d92 64000000 		.4byte	.LVL327
 15854 0d96 68000000 		.4byte	.LVL328
 15855 0d9a 0600     		.2byte	0x6
 15856 0d9c 57       		.byte	0x57
 15857 0d9d 93       		.byte	0x93
 15858 0d9e 04       		.uleb128 0x4
 15859 0d9f 55       		.byte	0x55
 15860 0da0 93       		.byte	0x93
 15861 0da1 04       		.uleb128 0x4
 15862 0da2 68000000 		.4byte	.LVL328
 15863 0da6 78000000 		.4byte	.LFE277
 15864 0daa 0800     		.2byte	0x8
 15865 0dac 7D       		.byte	0x7d
 15866 0dad 00       		.sleb128 0
 15867 0dae 93       		.byte	0x93
 15868 0daf 04       		.uleb128 0x4
 15869 0db0 7D       		.byte	0x7d
 15870 0db1 04       		.sleb128 4
 15871 0db2 93       		.byte	0x93
 15872 0db3 04       		.uleb128 0x4
 15873 0db4 00000000 		.4byte	0
 15874 0db8 00000000 		.4byte	0
 15875              	.LLST50:
 15876 0dbc 16000000 		.4byte	.LVL318
ARM GAS  /var/folders/qd/4mxf5pkd0zdf0b9dd1hp39180000gn/T//cc7TiL7h.s 			page 280


 15877 0dc0 38000000 		.4byte	.LVL321
 15878 0dc4 0200     		.2byte	0x2
 15879 0dc6 30       		.byte	0x30
 15880 0dc7 9F       		.byte	0x9f
 15881 0dc8 38000000 		.4byte	.LVL321
 15882 0dcc 56000000 		.4byte	.LVL325
 15883 0dd0 0100     		.2byte	0x1
 15884 0dd2 50       		.byte	0x50
 15885 0dd3 00000000 		.4byte	0
 15886 0dd7 00000000 		.4byte	0
 15887              	.LLST51:
 15888 0ddb 1E000000 		.4byte	.LVL319
 15889 0ddf 38000000 		.4byte	.LVL321
 15890 0de3 0800     		.2byte	0x8
 15891 0de5 71       		.byte	0x71
 15892 0de6 00       		.sleb128 0
 15893 0de7 93       		.byte	0x93
 15894 0de8 04       		.uleb128 0x4
 15895 0de9 71       		.byte	0x71
 15896 0dea 04       		.sleb128 4
 15897 0deb 93       		.byte	0x93
 15898 0dec 04       		.uleb128 0x4
 15899 0ded 38000000 		.4byte	.LVL321
 15900 0df1 4E000000 		.4byte	.LVL322
 15901 0df5 0800     		.2byte	0x8
 15902 0df7 71       		.byte	0x71
 15903 0df8 08       		.sleb128 8
 15904 0df9 93       		.byte	0x93
 15905 0dfa 04       		.uleb128 0x4
 15906 0dfb 71       		.byte	0x71
 15907 0dfc 0C       		.sleb128 12
 15908 0dfd 93       		.byte	0x93
 15909 0dfe 04       		.uleb128 0x4
 15910 0dff 4E000000 		.4byte	.LVL322
 15911 0e03 50000000 		.4byte	.LVL323
 15912 0e07 0800     		.2byte	0x8
 15913 0e09 71       		.byte	0x71
 15914 0e0a 00       		.sleb128 0
 15915 0e0b 93       		.byte	0x93
 15916 0e0c 04       		.uleb128 0x4
 15917 0e0d 71       		.byte	0x71
 15918 0e0e 04       		.sleb128 4
 15919 0e0f 93       		.byte	0x93
 15920 0e10 04       		.uleb128 0x4
 15921 0e11 50000000 		.4byte	.LVL323
 15922 0e15 56000000 		.4byte	.LVL325
 15923 0e19 1200     		.2byte	0x12
 15924 0e1b 03       		.byte	0x3
 15925 0e1c 00000000 		.4byte	objectList
 15926 0e20 06       		.byte	0x6
 15927 0e21 93       		.byte	0x93
 15928 0e22 04       		.uleb128 0x4
 15929 0e23 03       		.byte	0x3
 15930 0e24 00000000 		.4byte	objectList
 15931 0e28 06       		.byte	0x6
 15932 0e29 23       		.byte	0x23
 15933 0e2a 04       		.uleb128 0x4
ARM GAS  /var/folders/qd/4mxf5pkd0zdf0b9dd1hp39180000gn/T//cc7TiL7h.s 			page 281


 15934 0e2b 93       		.byte	0x93
 15935 0e2c 04       		.uleb128 0x4
 15936 0e2d 00000000 		.4byte	0
 15937 0e31 00000000 		.4byte	0
 15938              	.LLST52:
 15939 0e35 1E000000 		.4byte	.LVL319
 15940 0e39 36000000 		.4byte	.LVL320
 15941 0e3d 0600     		.2byte	0x6
 15942 0e3f 50       		.byte	0x50
 15943 0e40 93       		.byte	0x93
 15944 0e41 04       		.uleb128 0x4
 15945 0e42 55       		.byte	0x55
 15946 0e43 93       		.byte	0x93
 15947 0e44 04       		.uleb128 0x4
 15948 0e45 36000000 		.4byte	.LVL320
 15949 0e49 38000000 		.4byte	.LVL321
 15950 0e4d 0600     		.2byte	0x6
 15951 0e4f 57       		.byte	0x57
 15952 0e50 93       		.byte	0x93
 15953 0e51 04       		.uleb128 0x4
 15954 0e52 55       		.byte	0x55
 15955 0e53 93       		.byte	0x93
 15956 0e54 04       		.uleb128 0x4
 15957 0e55 38000000 		.4byte	.LVL321
 15958 0e59 50000000 		.4byte	.LVL323
 15959 0e5d 0600     		.2byte	0x6
 15960 0e5f 57       		.byte	0x57
 15961 0e60 93       		.byte	0x93
 15962 0e61 04       		.uleb128 0x4
 15963 0e62 55       		.byte	0x55
 15964 0e63 93       		.byte	0x93
 15965 0e64 04       		.uleb128 0x4
 15966 0e65 64000000 		.4byte	.LVL327
 15967 0e69 68000000 		.4byte	.LVL328
 15968 0e6d 0600     		.2byte	0x6
 15969 0e6f 57       		.byte	0x57
 15970 0e70 93       		.byte	0x93
 15971 0e71 04       		.uleb128 0x4
 15972 0e72 55       		.byte	0x55
 15973 0e73 93       		.byte	0x93
 15974 0e74 04       		.uleb128 0x4
 15975 0e75 00000000 		.4byte	0
 15976 0e79 00000000 		.4byte	0
 15977              		.section	.debug_aranges,"",%progbits
 15978 0000 C4000000 		.4byte	0xc4
 15979 0004 0200     		.2byte	0x2
 15980 0006 00000000 		.4byte	.Ldebug_info0
 15981 000a 04       		.byte	0x4
 15982 000b 00       		.byte	0
 15983 000c 0000     		.2byte	0
 15984 000e 0000     		.2byte	0
 15985 0010 00000000 		.4byte	.LFB259
 15986 0014 AC000000 		.4byte	.LFE259-.LFB259
 15987 0018 00000000 		.4byte	.LFB260
 15988 001c C4010000 		.4byte	.LFE260-.LFB260
 15989 0020 00000000 		.4byte	.LFB261
 15990 0024 D8000000 		.4byte	.LFE261-.LFB261
ARM GAS  /var/folders/qd/4mxf5pkd0zdf0b9dd1hp39180000gn/T//cc7TiL7h.s 			page 282


 15991 0028 00000000 		.4byte	.LFB262
 15992 002c D8010000 		.4byte	.LFE262-.LFB262
 15993 0030 00000000 		.4byte	.LFB263
 15994 0034 F8000000 		.4byte	.LFE263-.LFB263
 15995 0038 00000000 		.4byte	.LFB264
 15996 003c 4C000000 		.4byte	.LFE264-.LFB264
 15997 0040 00000000 		.4byte	.LFB265
 15998 0044 34000000 		.4byte	.LFE265-.LFB265
 15999 0048 00000000 		.4byte	.LFB266
 16000 004c 34000000 		.4byte	.LFE266-.LFB266
 16001 0050 00000000 		.4byte	.LFB267
 16002 0054 3C000000 		.4byte	.LFE267-.LFB267
 16003 0058 00000000 		.4byte	.LFB268
 16004 005c C0020000 		.4byte	.LFE268-.LFB268
 16005 0060 00000000 		.4byte	.LFB269
 16006 0064 6C000000 		.4byte	.LFE269-.LFB269
 16007 0068 00000000 		.4byte	.LFB270
 16008 006c A4010000 		.4byte	.LFE270-.LFB270
 16009 0070 00000000 		.4byte	.LFB271
 16010 0074 F4000000 		.4byte	.LFE271-.LFB271
 16011 0078 00000000 		.4byte	.LFB272
 16012 007c 30000000 		.4byte	.LFE272-.LFB272
 16013 0080 00000000 		.4byte	.LFB273
 16014 0084 50000000 		.4byte	.LFE273-.LFB273
 16015 0088 00000000 		.4byte	.LFB274
 16016 008c 2C000000 		.4byte	.LFE274-.LFB274
 16017 0090 00000000 		.4byte	.LFB275
 16018 0094 5C000000 		.4byte	.LFE275-.LFB275
 16019 0098 00000000 		.4byte	.LFB276
 16020 009c 44000000 		.4byte	.LFE276-.LFB276
 16021 00a0 00000000 		.4byte	.LFB277
 16022 00a4 78000000 		.4byte	.LFE277-.LFB277
 16023 00a8 00000000 		.4byte	.LFB278
 16024 00ac 7C010000 		.4byte	.LFE278-.LFB278
 16025 00b0 00000000 		.4byte	.LFB279
 16026 00b4 24000000 		.4byte	.LFE279-.LFB279
 16027 00b8 00000000 		.4byte	.LFB280
 16028 00bc 20000000 		.4byte	.LFE280-.LFB280
 16029 00c0 00000000 		.4byte	0
 16030 00c4 00000000 		.4byte	0
 16031              		.section	.debug_ranges,"",%progbits
 16032              	.Ldebug_ranges0:
 16033 0000 02010000 		.4byte	.LBB22
 16034 0004 08010000 		.4byte	.LBE22
 16035 0008 0C010000 		.4byte	.LBB25
 16036 000c 68010000 		.4byte	.LBE25
 16037 0010 00000000 		.4byte	0
 16038 0014 00000000 		.4byte	0
 16039 0018 04000000 		.4byte	.LBB27
 16040 001c 06000000 		.4byte	.LBE27
 16041 0020 0A000000 		.4byte	.LBB32
 16042 0024 0C000000 		.4byte	.LBE32
 16043 0028 0E000000 		.4byte	.LBB33
 16044 002c 12000000 		.4byte	.LBE33
 16045 0030 14000000 		.4byte	.LBB34
 16046 0034 1C000000 		.4byte	.LBE34
 16047 0038 00000000 		.4byte	0
ARM GAS  /var/folders/qd/4mxf5pkd0zdf0b9dd1hp39180000gn/T//cc7TiL7h.s 			page 283


 16048 003c 00000000 		.4byte	0
 16049 0040 84000000 		.4byte	.LBB35
 16050 0044 8A000000 		.4byte	.LBE35
 16051 0048 8C000000 		.4byte	.LBB38
 16052 004c E8000000 		.4byte	.LBE38
 16053 0050 00000000 		.4byte	0
 16054 0054 00000000 		.4byte	0
 16055 0058 0E000000 		.4byte	.LBB41
 16056 005c 22000000 		.4byte	.LBE41
 16057 0060 26000000 		.4byte	.LBB44
 16058 0064 3A000000 		.4byte	.LBE44
 16059 0068 00000000 		.4byte	0
 16060 006c 00000000 		.4byte	0
 16061 0070 02000000 		.4byte	.LBB45
 16062 0074 04000000 		.4byte	.LBE45
 16063 0078 06000000 		.4byte	.LBB50
 16064 007c 08000000 		.4byte	.LBE50
 16065 0080 0E000000 		.4byte	.LBB51
 16066 0084 10000000 		.4byte	.LBE51
 16067 0088 16000000 		.4byte	.LBB52
 16068 008c 56000000 		.4byte	.LBE52
 16069 0090 64000000 		.4byte	.LBB53
 16070 0094 68000000 		.4byte	.LBE53
 16071 0098 00000000 		.4byte	0
 16072 009c 00000000 		.4byte	0
 16073 00a0 1E000000 		.4byte	.LBB46
 16074 00a4 34000000 		.4byte	.LBE46
 16075 00a8 38000000 		.4byte	.LBB49
 16076 00ac 50000000 		.4byte	.LBE49
 16077 00b0 00000000 		.4byte	0
 16078 00b4 00000000 		.4byte	0
 16079 00b8 28000000 		.4byte	.LBB54
 16080 00bc 2A000000 		.4byte	.LBE54
 16081 00c0 3E000000 		.4byte	.LBB62
 16082 00c4 9A000000 		.4byte	.LBE62
 16083 00c8 B0000000 		.4byte	.LBB63
 16084 00cc 66010000 		.4byte	.LBE63
 16085 00d0 00000000 		.4byte	0
 16086 00d4 00000000 		.4byte	0
 16087 00d8 E8000000 		.4byte	.LBB57
 16088 00dc FC000000 		.4byte	.LBE57
 16089 00e0 02010000 		.4byte	.LBB60
 16090 00e4 1A010000 		.4byte	.LBE60
 16091 00e8 00000000 		.4byte	0
 16092 00ec 00000000 		.4byte	0
 16093 00f0 00000000 		.4byte	.LFB259
 16094 00f4 AC000000 		.4byte	.LFE259
 16095 00f8 00000000 		.4byte	.LFB260
 16096 00fc C4010000 		.4byte	.LFE260
 16097 0100 00000000 		.4byte	.LFB261
 16098 0104 D8000000 		.4byte	.LFE261
 16099 0108 00000000 		.4byte	.LFB262
 16100 010c D8010000 		.4byte	.LFE262
 16101 0110 00000000 		.4byte	.LFB263
 16102 0114 F8000000 		.4byte	.LFE263
 16103 0118 00000000 		.4byte	.LFB264
 16104 011c 4C000000 		.4byte	.LFE264
ARM GAS  /var/folders/qd/4mxf5pkd0zdf0b9dd1hp39180000gn/T//cc7TiL7h.s 			page 284


 16105 0120 00000000 		.4byte	.LFB265
 16106 0124 34000000 		.4byte	.LFE265
 16107 0128 00000000 		.4byte	.LFB266
 16108 012c 34000000 		.4byte	.LFE266
 16109 0130 00000000 		.4byte	.LFB267
 16110 0134 3C000000 		.4byte	.LFE267
 16111 0138 00000000 		.4byte	.LFB268
 16112 013c C0020000 		.4byte	.LFE268
 16113 0140 00000000 		.4byte	.LFB269
 16114 0144 6C000000 		.4byte	.LFE269
 16115 0148 00000000 		.4byte	.LFB270
 16116 014c A4010000 		.4byte	.LFE270
 16117 0150 00000000 		.4byte	.LFB271
 16118 0154 F4000000 		.4byte	.LFE271
 16119 0158 00000000 		.4byte	.LFB272
 16120 015c 30000000 		.4byte	.LFE272
 16121 0160 00000000 		.4byte	.LFB273
 16122 0164 50000000 		.4byte	.LFE273
 16123 0168 00000000 		.4byte	.LFB274
 16124 016c 2C000000 		.4byte	.LFE274
 16125 0170 00000000 		.4byte	.LFB275
 16126 0174 5C000000 		.4byte	.LFE275
 16127 0178 00000000 		.4byte	.LFB276
 16128 017c 44000000 		.4byte	.LFE276
 16129 0180 00000000 		.4byte	.LFB277
 16130 0184 78000000 		.4byte	.LFE277
 16131 0188 00000000 		.4byte	.LFB278
 16132 018c 7C010000 		.4byte	.LFE278
 16133 0190 00000000 		.4byte	.LFB279
 16134 0194 24000000 		.4byte	.LFE279
 16135 0198 00000000 		.4byte	.LFB280
 16136 019c 20000000 		.4byte	.LFE280
 16137 01a0 00000000 		.4byte	0
 16138 01a4 00000000 		.4byte	0
 16139              		.section	.debug_line,"",%progbits
 16140              	.Ldebug_line0:
 16141 0000 980C0000 		.section	.debug_str,"MS",%progbits,1
 16141      0200BC08 
 16141      00000201 
 16141      FB0E0D00 
 16141      01010101 
 16142              	.LASF851:
 16143 0000 656E7669 		.ascii	"environmentObstacles\000"
 16143      726F6E6D 
 16143      656E744F 
 16143      62737461 
 16143      636C6573 
 16144              	.LASF707:
 16145 0015 5553425F 		.ascii	"USB_STOP\000"
 16145      53544F50 
 16145      00
 16146              	.LASF323:
 16147 001e 706F7274 		.ascii	"port_intctx\000"
 16147      5F696E74 
 16147      63747800 
 16148              	.LASF332:
 16149 002a 63685F74 		.ascii	"ch_trace_buffer_t\000"
ARM GAS  /var/folders/qd/4mxf5pkd0zdf0b9dd1hp39180000gn/T//cc7TiL7h.s 			page 285


 16149      72616365 
 16149      5F627566 
 16149      6665725F 
 16149      7400
 16150              	.LASF364:
 16151 003c 63685F70 		.ascii	"ch_ptrsize\000"
 16151      74727369 
 16151      7A6500
 16152              	.LASF643:
 16153 0047 6576656E 		.ascii	"event\000"
 16153      7400
 16154              	.LASF923:
 16155 004d 63686563 		.ascii	"checkAngle\000"
 16155      6B416E67 
 16155      6C6500
 16156              	.LASF494:
 16157 0058 43414E5F 		.ascii	"CAN_STARTING\000"
 16157      53544152 
 16157      54494E47 
 16157      00
 16158              	.LASF167:
 16159 0065 6D73675F 		.ascii	"msg_t\000"
 16159      7400
 16160              	.LASF439:
 16161 006b 61667268 		.ascii	"afrh\000"
 16161      00
 16162              	.LASF586:
 16163 0070 4F504D4F 		.ascii	"OPMODE_SMBUS_DEVICE\000"
 16163      44455F53 
 16163      4D425553 
 16163      5F444556 
 16163      49434500 
 16164              	.LASF343:
 16165 0084 6D5F6372 		.ascii	"m_crit_isr\000"
 16165      69745F69 
 16165      737200
 16166              	.LASF849:
 16167 008f 6D656173 		.ascii	"measurement\000"
 16167      7572656D 
 16167      656E7400 
 16168              	.LASF659:
 16169 009b 73646366 		.ascii	"sdcflags_t\000"
 16169      6C616773 
 16169      5F7400
 16170              	.LASF766:
 16171 00a6 44494550 		.ascii	"DIEPTXF0\000"
 16171      54584630 
 16171      00
 16172              	.LASF876:
 16173 00af 77616C6C 		.ascii	"wallNum\000"
 16173      4E756D00 
 16174              	.LASF132:
 16175 00b7 5F5F6664 		.ascii	"__fdlibm_xopen\000"
 16175      6C69626D 
 16175      5F786F70 
 16175      656E00
 16176              	.LASF493:
ARM GAS  /var/folders/qd/4mxf5pkd0zdf0b9dd1hp39180000gn/T//cc7TiL7h.s 			page 286


 16177 00c6 43414E5F 		.ascii	"CAN_STOP\000"
 16177      53544F50 
 16177      00
 16178              	.LASF177:
 16179 00cf 705F7072 		.ascii	"p_prio\000"
 16179      696F00
 16180              	.LASF377:
 16181 00d6 63665F6F 		.ascii	"cf_off_time\000"
 16181      66665F74 
 16181      696D6500 
 16182              	.LASF226:
 16183 00e2 63685F73 		.ascii	"ch_system_t\000"
 16183      79737465 
 16183      6D5F7400 
 16184              	.LASF6:
 16185 00ee 5F5F7569 		.ascii	"__uint8_t\000"
 16185      6E74385F 
 16185      7400
 16186              	.LASF349:
 16187 00f8 77747365 		.ascii	"wtsemp\000"
 16187      6D7000
 16188              	.LASF869:
 16189 00ff 6D6F645F 		.ascii	"mod_mapping_getRobotDisplacement\000"
 16189      6D617070 
 16189      696E675F 
 16189      67657452 
 16189      6F626F74 
 16190              	.LASF152:
 16191 0120 5F426F6F 		.ascii	"_Bool\000"
 16191      6C00
 16192              	.LASF535:
 16193 0126 64617461 		.ascii	"datamode\000"
 16193      6D6F6465 
 16193      00
 16194              	.LASF602:
 16195 012f 646D6172 		.ascii	"dmarx\000"
 16195      7800
 16196              	.LASF71:
 16197 0135 5F6D6273 		.ascii	"_mbstate\000"
 16197      74617465 
 16197      00
 16198              	.LASF50:
 16199 013e 5F617465 		.ascii	"_atexit\000"
 16199      78697400 
 16200              	.LASF843:
 16201 0146 7375626F 		.ascii	"suboptarg\000"
 16201      70746172 
 16201      6700
 16202              	.LASF483:
 16203 0150 73717231 		.ascii	"sqr1\000"
 16203      00
 16204              	.LASF883:
 16205 0155 4E4F5448 		.ascii	"NOTHING\000"
 16205      494E4700 
 16206              	.LASF411:
 16207 015d 424C4B5F 		.ascii	"BLK_UNINIT\000"
 16207      554E494E 
ARM GAS  /var/folders/qd/4mxf5pkd0zdf0b9dd1hp39180000gn/T//cc7TiL7h.s 			page 287


 16207      495400
 16208              	.LASF614:
 16209 0168 72785F62 		.ascii	"rx_buffer\000"
 16209      75666665 
 16209      7200
 16210              	.LASF598:
 16211 0172 6572726F 		.ascii	"errors\000"
 16211      727300
 16212              	.LASF336:
 16213 0179 776F7273 		.ascii	"worst\000"
 16213      7400
 16214              	.LASF219:
 16215 017f 76745F73 		.ascii	"vt_systime\000"
 16215      79737469 
 16215      6D6500
 16216              	.LASF285:
 16217 018a 444F5231 		.ascii	"DOR1\000"
 16217      00
 16218              	.LASF286:
 16219 018f 444F5232 		.ascii	"DOR2\000"
 16219      00
 16220              	.LASF613:
 16221 0194 74785F62 		.ascii	"tx_buffer\000"
 16221      75666665 
 16221      7200
 16222              	.LASF40:
 16223 019e 5F5F746D 		.ascii	"__tm_mon\000"
 16223      5F6D6F6E 
 16223      00
 16224              	.LASF48:
 16225 01a7 5F666E74 		.ascii	"_fntypes\000"
 16225      79706573 
 16225      00
 16226              	.LASF866:
 16227 01b0 616E676C 		.ascii	"angle\000"
 16227      6500
 16228              	.LASF358:
 16229 01b6 6D5F6E65 		.ascii	"m_next\000"
 16229      787400
 16230              	.LASF443:
 16231 01bd 50434461 		.ascii	"PCData\000"
 16231      746100
 16232              	.LASF78:
 16233 01c4 5F696E63 		.ascii	"_inc\000"
 16233      00
 16234              	.LASF51:
 16235 01c9 5F696E64 		.ascii	"_ind\000"
 16235      00
 16236              	.LASF308:
 16237 01ce 4D41534B 		.ascii	"MASK\000"
 16237      00
 16238              	.LASF468:
 16239 01d3 73616D70 		.ascii	"samples\000"
 16239      6C657300 
 16240              	.LASF770:
 16241 01db 47434346 		.ascii	"GCCFG\000"
 16241      4700
ARM GAS  /var/folders/qd/4mxf5pkd0zdf0b9dd1hp39180000gn/T//cc7TiL7h.s 			page 288


 16242              	.LASF564:
 16243 01e1 42445452 		.ascii	"BDTR\000"
 16243      00
 16244              	.LASF517:
 16245 01e6 7265676D 		.ascii	"regmask\000"
 16245      61736B00 
 16246              	.LASF596:
 16247 01ee 49324343 		.ascii	"I2CConfig\000"
 16247      6F6E6669 
 16247      6700
 16248              	.LASF156:
 16249 01f8 75696E74 		.ascii	"uint16_t\000"
 16249      31365F74 
 16249      00
 16250              	.LASF603:
 16251 0201 646D6174 		.ascii	"dmatx\000"
 16251      7800
 16252              	.LASF840:
 16253 0207 736F665F 		.ascii	"sof_cb\000"
 16253      636200
 16254              	.LASF540:
 16255 020e 4558545F 		.ascii	"EXT_ACTIVE\000"
 16255      41435449 
 16255      564500
 16256              	.LASF57:
 16257 0219 5F666C61 		.ascii	"_flags\000"
 16257      677300
 16258              	.LASF436:
 16259 0220 6F737065 		.ascii	"ospeedr\000"
 16259      65647200 
 16260              	.LASF899:
 16261 0228 6D6F645F 		.ascii	"mod_mapping_init\000"
 16261      6D617070 
 16261      696E675F 
 16261      696E6974 
 16261      00
 16262              	.LASF773:
 16263 0239 44494550 		.ascii	"DIEPTXF\000"
 16263      54584600 
 16264              	.LASF383:
 16265 0241 656C5F6E 		.ascii	"el_next\000"
 16265      65787400 
 16266              	.LASF463:
 16267 0249 4144435F 		.ascii	"ADC_ERR_OVERFLOW\000"
 16267      4552525F 
 16267      4F564552 
 16267      464C4F57 
 16267      00
 16268              	.LASF857:
 16269 025a 67657445 		.ascii	"getEmplacementForPicture\000"
 16269      6D706C61 
 16269      63656D65 
 16269      6E74466F 
 16269      72506963 
 16270              	.LASF88:
 16271 0273 5F637674 		.ascii	"_cvtlen\000"
 16271      6C656E00 
ARM GAS  /var/folders/qd/4mxf5pkd0zdf0b9dd1hp39180000gn/T//cc7TiL7h.s 			page 289


 16272              	.LASF224:
 16273 027b 6C6F636B 		.ascii	"lock_cnt\000"
 16273      5F636E74 
 16273      00
 16274              	.LASF200:
 16275 0284 63685F74 		.ascii	"ch_threads_queue\000"
 16275      68726561 
 16275      64735F71 
 16275      75657565 
 16275      00
 16276              	.LASF131:
 16277 0295 5F5F6664 		.ascii	"__fdlibm_svid\000"
 16277      6C69626D 
 16277      5F737669 
 16277      6400
 16278              	.LASF92:
 16279 02a3 5F736967 		.ascii	"_sig_func\000"
 16279      5F66756E 
 16279      6300
 16280              	.LASF179:
 16281 02ad 705F6E65 		.ascii	"p_newer\000"
 16281      77657200 
 16282              	.LASF783:
 16283 02b5 48505254 		.ascii	"HPRT\000"
 16283      00
 16284              	.LASF737:
 16285 02ba 4843494E 		.ascii	"HCINT\000"
 16285      5400
 16286              	.LASF146:
 16287 02c0 726F626F 		.ascii	"robotDistance_t\000"
 16287      74446973 
 16287      74616E63 
 16287      655F7400 
 16288              	.LASF235:
 16289 02d0 534D5052 		.ascii	"SMPR1\000"
 16289      3100
 16290              	.LASF236:
 16291 02d6 534D5052 		.ascii	"SMPR2\000"
 16291      3200
 16292              	.LASF374:
 16293 02dc 63665F6F 		.ascii	"cf_off_flags\000"
 16293      66665F66 
 16293      6C616773 
 16293      00
 16294              	.LASF70:
 16295 02e9 5F6C6F63 		.ascii	"_lock\000"
 16295      6B00
 16296              	.LASF66:
 16297 02ef 5F6E6275 		.ascii	"_nbuf\000"
 16297      6600
 16298              	.LASF676:
 16299 02f5 5350495F 		.ascii	"SPI_STOP\000"
 16299      53544F50 
 16299      00
 16300              	.LASF124:
 16301 02fe 5F756E75 		.ascii	"_unused\000"
 16301      73656400 
ARM GAS  /var/folders/qd/4mxf5pkd0zdf0b9dd1hp39180000gn/T//cc7TiL7h.s 			page 290


 16302              	.LASF442:
 16303 0306 50424461 		.ascii	"PBData\000"
 16303      746100
 16304              	.LASF362:
 16305 030d 63685F73 		.ascii	"ch_size\000"
 16305      697A6500 
 16306              	.LASF779:
 16307 0315 48505458 		.ascii	"HPTXSTS\000"
 16307      53545300 
 16308              	.LASF435:
 16309 031d 6F747970 		.ascii	"otyper\000"
 16309      657200
 16310              	.LASF426:
 16311 0324 4F545950 		.ascii	"OTYPER\000"
 16311      455200
 16312              	.LASF519:
 16313 032b 64616370 		.ascii	"dacparams_t\000"
 16313      6172616D 
 16313      735F7400 
 16314              	.LASF654:
 16315 0337 5344435F 		.ascii	"SDC_MODE_1BIT\000"
 16315      4D4F4445 
 16315      5F314249 
 16315      5400
 16316              	.LASF735:
 16317 0345 48434348 		.ascii	"HCCHAR\000"
 16317      415200
 16318              	.LASF143:
 16319 034c 6D656173 		.ascii	"measurement_t\000"
 16319      7572656D 
 16319      656E745F 
 16319      7400
 16320              	.LASF173:
 16321 035a 74687265 		.ascii	"thread_t\000"
 16321      61645F74 
 16321      00
 16322              	.LASF385:
 16323 0363 656C5F65 		.ascii	"el_events\000"
 16323      76656E74 
 16323      7300
 16324              	.LASF623:
 16325 036d 70776D73 		.ascii	"pwmstate_t\000"
 16325      74617465 
 16325      5F7400
 16326              	.LASF504:
 16327 0378 736C6565 		.ascii	"sleep_event\000"
 16327      705F6576 
 16327      656E7400 
 16328              	.LASF218:
 16329 0384 63685F76 		.ascii	"ch_virtual_timers_list\000"
 16329      69727475 
 16329      616C5F74 
 16329      696D6572 
 16329      735F6C69 
 16330              	.LASF408:
 16331 039b 76656374 		.ascii	"vector\000"
 16331      6F7200
ARM GAS  /var/folders/qd/4mxf5pkd0zdf0b9dd1hp39180000gn/T//cc7TiL7h.s 			page 291


 16332              	.LASF893:
 16333 03a2 696E7465 		.ascii	"intersection\000"
 16333      72736563 
 16333      74696F6E 
 16333      00
 16334              	.LASF761:
 16335 03af 47494E54 		.ascii	"GINTSTS\000"
 16335      53545300 
 16336              	.LASF157:
 16337 03b7 696E7433 		.ascii	"int32_t\000"
 16337      325F7400 
 16338              	.LASF594:
 16339 03bf 636C6F63 		.ascii	"clock_speed\000"
 16339      6B5F7370 
 16339      65656400 
 16340              	.LASF172:
 16341 03cb 73797374 		.ascii	"systime_t\000"
 16341      696D655F 
 16341      7400
 16342              	.LASF537:
 16343 03d5 44414344 		.ascii	"DACD2\000"
 16343      3200
 16344              	.LASF506:
 16345 03db 43414E44 		.ascii	"CANDriver\000"
 16345      72697665 
 16345      7200
 16346              	.LASF102:
 16347 03e5 5F616464 		.ascii	"_add\000"
 16347      00
 16348              	.LASF289:
 16349 03ea 4D304152 		.ascii	"M0AR\000"
 16349      00
 16350              	.LASF742:
 16351 03ef 72657376 		.ascii	"resvd1c\000"
 16351      64316300 
 16352              	.LASF584:
 16353 03f7 69326366 		.ascii	"i2cflags_t\000"
 16353      6C616773 
 16353      5F7400
 16354              	.LASF780:
 16355 0402 4841494E 		.ascii	"HAINT\000"
 16355      5400
 16356              	.LASF854:
 16357 0408 63686563 		.ascii	"checkIfPointInCircle\000"
 16357      6B496650 
 16357      6F696E74 
 16357      496E4369 
 16357      72636C65 
 16358              	.LASF153:
 16359 041d 61637475 		.ascii	"actualEnvironement_t\000"
 16359      616C456E 
 16359      7669726F 
 16359      6E656D65 
 16359      6E745F74 
 16360              	.LASF638:
 16361 0432 53445F55 		.ascii	"SD_UNINIT\000"
 16361      4E494E49 
ARM GAS  /var/folders/qd/4mxf5pkd0zdf0b9dd1hp39180000gn/T//cc7TiL7h.s 			page 292


 16361      5400
 16362              	.LASF271:
 16363 043c 46413152 		.ascii	"FA1R\000"
 16363      00
 16364              	.LASF898:
 16365 0441 6D6F645F 		.ascii	"mod_mapping_adaptCoordinatesToOrigin\000"
 16365      6D617070 
 16365      696E675F 
 16365      61646170 
 16365      74436F6F 
 16366              	.LASF880:
 16367 0466 63757272 		.ascii	"currentTable\000"
 16367      656E7454 
 16367      61626C65 
 16367      00
 16368              	.LASF858:
 16369 0473 69734E65 		.ascii	"isNear\000"
 16369      617200
 16370              	.LASF855:
 16371 047a 6F626A65 		.ascii	"object\000"
 16371      637400
 16372              	.LASF777:
 16373 0481 48464E55 		.ascii	"HFNUM\000"
 16373      4D00
 16374              	.LASF401:
 16375 0487 716E6F74 		.ascii	"qnotify_t\000"
 16375      6966795F 
 16375      7400
 16376              	.LASF459:
 16377 0491 61646373 		.ascii	"adcstate_t\000"
 16377      74617465 
 16377      5F7400
 16378              	.LASF662:
 16379 049c 63617264 		.ascii	"cardmode\000"
 16379      6D6F6465 
 16379      00
 16380              	.LASF406:
 16381 04a5 69736869 		.ascii	"ishift\000"
 16381      667400
 16382              	.LASF554:
 16383 04ac 4750545F 		.ascii	"GPT_ONESHOT\000"
 16383      4F4E4553 
 16383      484F5400 
 16384              	.LASF396:
 16385 04b8 715F746F 		.ascii	"q_top\000"
 16385      7000
 16386              	.LASF59:
 16387 04be 5F6C6266 		.ascii	"_lbfsize\000"
 16387      73697A65 
 16387      00
 16388              	.LASF728:
 16389 04c7 75645F73 		.ascii	"ud_string\000"
 16389      7472696E 
 16389      6700
 16390              	.LASF597:
 16391 04d1 49324344 		.ascii	"I2CDriver\000"
 16391      72697665 
ARM GAS  /var/folders/qd/4mxf5pkd0zdf0b9dd1hp39180000gn/T//cc7TiL7h.s 			page 293


 16391      7200
 16392              	.LASF579:
 16393 04db 4932435F 		.ascii	"I2C_ACTIVE_TX\000"
 16393      41435449 
 16393      56455F54 
 16393      5800
 16394              	.LASF649:
 16395 04e9 72656164 		.ascii	"read\000"
 16395      00
 16396              	.LASF585:
 16397 04ee 4F504D4F 		.ascii	"OPMODE_I2C\000"
 16397      44455F49 
 16397      324300
 16398              	.LASF789:
 16399 04f9 72657376 		.ascii	"resvd80C\000"
 16399      64383043 
 16399      00
 16400              	.LASF837:
 16401 0502 6576656E 		.ascii	"event_cb\000"
 16401      745F6362 
 16401      00
 16402              	.LASF756:
 16403 050b 474F5447 		.ascii	"GOTGCTL\000"
 16403      43544C00 
 16404              	.LASF844:
 16405 0513 77616C6C 		.ascii	"wall_t\000"
 16405      5F7400
 16406              	.LASF859:
 16407 051a 6D6F645F 		.ascii	"mod_mapping_checkEnvironment\000"
 16407      6D617070 
 16407      696E675F 
 16407      63686563 
 16407      6B456E76 
 16408              	.LASF731:
 16409 0537 75736265 		.ascii	"usbepcallback_t\000"
 16409      7063616C 
 16409      6C626163 
 16409      6B5F7400 
 16410              	.LASF69:
 16411 0547 5F646174 		.ascii	"_data\000"
 16411      6100
 16412              	.LASF229:
 16413 054d 76746C69 		.ascii	"vtlist\000"
 16413      737400
 16414              	.LASF886:
 16415 0554 746F7461 		.ascii	"total\000"
 16415      6C00
 16416              	.LASF911:
 16417 055a 66726565 		.ascii	"free\000"
 16417      00
 16418              	.LASF294:
 16419 055f 54524953 		.ascii	"TRISE\000"
 16419      4500
 16420              	.LASF795:
 16421 0565 72657376 		.ascii	"resvd824\000"
 16421      64383234 
 16421      00
ARM GAS  /var/folders/qd/4mxf5pkd0zdf0b9dd1hp39180000gn/T//cc7TiL7h.s 			page 294


 16422              	.LASF188:
 16423 056e 705F7761 		.ascii	"p_waiting\000"
 16423      6974696E 
 16423      6700
 16424              	.LASF344:
 16425 0578 6B65726E 		.ascii	"kernel_stats_t\000"
 16425      656C5F73 
 16425      74617473 
 16425      5F7400
 16426              	.LASF393:
 16427 0587 715F7761 		.ascii	"q_waiting\000"
 16427      6974696E 
 16427      6700
 16428              	.LASF253:
 16429 0591 43414E5F 		.ascii	"CAN_TxMailBox_TypeDef\000"
 16429      54784D61 
 16429      696C426F 
 16429      785F5479 
 16429      70654465 
 16430              	.LASF228:
 16431 05a7 726C6973 		.ascii	"rlist\000"
 16431      7400
 16432              	.LASF197:
 16433 05ad 74687265 		.ascii	"threads_list_t\000"
 16433      6164735F 
 16433      6C697374 
 16433      5F7400
 16434              	.LASF334:
 16435 05bc 746D5F63 		.ascii	"tm_calibration_t\000"
 16435      616C6962 
 16435      72617469 
 16435      6F6E5F74 
 16435      00
 16436              	.LASF402:
 16437 05cd 696E7075 		.ascii	"input_queue_t\000"
 16437      745F7175 
 16437      6575655F 
 16437      7400
 16438              	.LASF486:
 16439 05db 41444343 		.ascii	"ADCConversionGroup\000"
 16439      6F6E7665 
 16439      7273696F 
 16439      6E47726F 
 16439      757000
 16440              	.LASF788:
 16441 05ee 44535453 		.ascii	"DSTS\000"
 16441      00
 16442              	.LASF125:
 16443 05f3 5F5F6C6F 		.ascii	"__lock\000"
 16443      636B00
 16444              	.LASF589:
 16445 05fa 5354445F 		.ascii	"STD_DUTY_CYCLE\000"
 16445      44555459 
 16445      5F435943 
 16445      4C4500
 16446              	.LASF73:
 16447 0609 5F726565 		.ascii	"_reent\000"
ARM GAS  /var/folders/qd/4mxf5pkd0zdf0b9dd1hp39180000gn/T//cc7TiL7h.s 			page 295


 16447      6E7400
 16448              	.LASF370:
 16449 0610 63665F6F 		.ascii	"cf_off_older\000"
 16449      66665F6F 
 16449      6C646572 
 16449      00
 16450              	.LASF161:
 16451 061d 72747469 		.ascii	"rttime_t\000"
 16451      6D655F74 
 16451      00
 16452              	.LASF549:
 16453 0626 45585444 		.ascii	"EXTD1\000"
 16453      3100
 16454              	.LASF822:
 16455 062c 72787175 		.ascii	"rxqueued\000"
 16455      65756564 
 16455      00
 16456              	.LASF497:
 16457 0635 63616E73 		.ascii	"canstate_t\000"
 16457      74617465 
 16457      5F7400
 16458              	.LASF273:
 16459 0640 7346696C 		.ascii	"sFilterRegister\000"
 16459      74657252 
 16459      65676973 
 16459      74657200 
 16460              	.LASF94:
 16461 0650 5F5F7366 		.ascii	"__sf\000"
 16461      00
 16462              	.LASF794:
 16463 0655 72657376 		.ascii	"resvd820\000"
 16463      64383230 
 16463      00
 16464              	.LASF54:
 16465 065e 5F626173 		.ascii	"_base\000"
 16465      6500
 16466              	.LASF924:
 16467 0664 5F5F7374 		.ascii	"__stack_chk_fail\000"
 16467      61636B5F 
 16467      63686B5F 
 16467      6661696C 
 16467      00
 16468              	.LASF300:
 16469 0675 52455350 		.ascii	"RESP1\000"
 16469      3100
 16470              	.LASF301:
 16471 067b 52455350 		.ascii	"RESP2\000"
 16471      3200
 16472              	.LASF302:
 16473 0681 52455350 		.ascii	"RESP3\000"
 16473      3300
 16474              	.LASF303:
 16475 0687 52455350 		.ascii	"RESP4\000"
 16475      3400
 16476              	.LASF111:
 16477 068d 5F6D6274 		.ascii	"_mbtowc_state\000"
 16477      6F77635F 
ARM GAS  /var/folders/qd/4mxf5pkd0zdf0b9dd1hp39180000gn/T//cc7TiL7h.s 			page 296


 16477      73746174 
 16477      6500
 16478              	.LASF576:
 16479 069b 4932435F 		.ascii	"I2C_UNINIT\000"
 16479      554E494E 
 16479      495400
 16480              	.LASF733:
 16481 06a6 75736272 		.ascii	"usbreqhandler_t\000"
 16481      65716861 
 16481      6E646C65 
 16481      725F7400 
 16482              	.LASF457:
 16483 06b6 4144435F 		.ascii	"ADC_COMPLETE\000"
 16483      434F4D50 
 16483      4C455445 
 16483      00
 16484              	.LASF573:
 16485 06c3 47505443 		.ascii	"GPTConfig\000"
 16485      6F6E6669 
 16485      6700
 16486              	.LASF145:
 16487 06cd 726F7461 		.ascii	"rotation\000"
 16487      74696F6E 
 16487      00
 16488              	.LASF166:
 16489 06d6 74707269 		.ascii	"tprio_t\000"
 16489      6F5F7400 
 16490              	.LASF340:
 16491 06de 6E5F6972 		.ascii	"n_irq\000"
 16491      7100
 16492              	.LASF617:
 16493 06e4 69327370 		.ascii	"i2spr\000"
 16493      7200
 16494              	.LASF798:
 16495 06ea 72657376 		.ascii	"resvd830\000"
 16495      64383330 
 16495      00
 16496              	.LASF35:
 16497 06f3 5F5F746D 		.ascii	"__tm\000"
 16497      00
 16498              	.LASF800:
 16499 06f8 72657376 		.ascii	"resvd838\000"
 16499      64383338 
 16499      00
 16500              	.LASF592:
 16501 0701 69326364 		.ascii	"i2cdutycycle_t\000"
 16501      75747963 
 16501      79636C65 
 16501      5F7400
 16502              	.LASF801:
 16503 0710 72657376 		.ascii	"resvd83C\000"
 16503      64383343 
 16503      00
 16504              	.LASF471:
 16505 0719 74687265 		.ascii	"thread\000"
 16505      616400
 16506              	.LASF516:
ARM GAS  /var/folders/qd/4mxf5pkd0zdf0b9dd1hp39180000gn/T//cc7TiL7h.s 			page 297


 16507 0720 72656773 		.ascii	"regshift\000"
 16507      68696674 
 16507      00
 16508              	.LASF696:
 16509 0729 73657475 		.ascii	"setup\000"
 16509      7000
 16510              	.LASF675:
 16511 072f 5350495F 		.ascii	"SPI_UNINIT\000"
 16511      554E494E 
 16511      495400
 16512              	.LASF749:
 16513 073a 44545846 		.ascii	"DTXFSTS\000"
 16513      53545300 
 16514              	.LASF421:
 16515 0742 626C6B5F 		.ascii	"blk_size\000"
 16515      73697A65 
 16515      00
 16516              	.LASF578:
 16517 074b 4932435F 		.ascii	"I2C_READY\000"
 16517      52454144 
 16517      5900
 16518              	.LASF43:
 16519 0755 5F5F746D 		.ascii	"__tm_yday\000"
 16519      5F796461 
 16519      7900
 16520              	.LASF690:
 16521 075f 696E5F70 		.ascii	"in_params\000"
 16521      6172616D 
 16521      7300
 16522              	.LASF563:
 16523 0769 43434552 		.ascii	"CCER\000"
 16523      00
 16524              	.LASF316:
 16525 076e 49325350 		.ascii	"I2SPR\000"
 16525      5200
 16526              	.LASF620:
 16527 0774 50574D5F 		.ascii	"PWM_UNINIT\000"
 16527      554E494E 
 16527      495400
 16528              	.LASF335:
 16529 077f 62657374 		.ascii	"best\000"
 16529      00
 16530              	.LASF758:
 16531 0784 47414842 		.ascii	"GAHBCFG\000"
 16531      43464700 
 16532              	.LASF526:
 16533 078c 64616363 		.ascii	"daccallback_t\000"
 16533      616C6C62 
 16533      61636B5F 
 16533      7400
 16534              	.LASF18:
 16535 079a 5F4C4F43 		.ascii	"_LOCK_T\000"
 16535      4B5F5400 
 16536              	.LASF802:
 16537 07a2 72657376 		.ascii	"resvd840\000"
 16537      64383430 
 16537      00
ARM GAS  /var/folders/qd/4mxf5pkd0zdf0b9dd1hp39180000gn/T//cc7TiL7h.s 			page 298


 16538              	.LASF312:
 16539 07ab 43524350 		.ascii	"CRCPR\000"
 16539      5200
 16540              	.LASF416:
 16541 07b1 424C4B5F 		.ascii	"BLK_READY\000"
 16541      52454144 
 16541      5900
 16542              	.LASF8:
 16543 07bb 5F5F696E 		.ascii	"__int16_t\000"
 16543      7431365F 
 16543      7400
 16544              	.LASF10:
 16545 07c5 5F5F7569 		.ascii	"__uint16_t\000"
 16545      6E743136 
 16545      5F7400
 16546              	.LASF553:
 16547 07d0 4750545F 		.ascii	"GPT_CONTINUOUS\000"
 16547      434F4E54 
 16547      494E554F 
 16547      555300
 16548              	.LASF816:
 16549 07df 74787175 		.ascii	"txqueued\000"
 16549      65756564 
 16549      00
 16550              	.LASF190:
 16551 07e8 705F6D73 		.ascii	"p_msg\000"
 16551      6700
 16552              	.LASF103:
 16553 07ee 5F756E75 		.ascii	"_unused_rand\000"
 16553      7365645F 
 16553      72616E64 
 16553      00
 16554              	.LASF755:
 16555 07fb 73746D33 		.ascii	"stm32_otg_out_ep_t\000"
 16555      325F6F74 
 16555      675F6F75 
 16555      745F6570 
 16555      5F7400
 16556              	.LASF764:
 16557 080e 47525853 		.ascii	"GRXSTSP\000"
 16557      54535000 
 16558              	.LASF763:
 16559 0816 47525853 		.ascii	"GRXSTSR\000"
 16559      54535200 
 16560              	.LASF913:
 16561 081e 73707269 		.ascii	"sprintf\000"
 16561      6E746600 
 16562              	.LASF346:
 16563 0826 65786974 		.ascii	"exitcode\000"
 16563      636F6465 
 16563      00
 16564              	.LASF290:
 16565 082f 4D314152 		.ascii	"M1AR\000"
 16565      00
 16566              	.LASF703:
 16567 0834 77616974 		.ascii	"wait\000"
 16567      00
ARM GAS  /var/folders/qd/4mxf5pkd0zdf0b9dd1hp39180000gn/T//cc7TiL7h.s 			page 299


 16568              	.LASF291:
 16569 0839 444D415F 		.ascii	"DMA_Stream_TypeDef\000"
 16569      53747265 
 16569      616D5F54 
 16569      79706544 
 16569      656600
 16570              	.LASF710:
 16571 084c 5553425F 		.ascii	"USB_ACTIVE\000"
 16571      41435449 
 16571      564500
 16572              	.LASF751:
 16573 0857 73746D33 		.ascii	"stm32_otg_in_ep_t\000"
 16573      325F6F74 
 16573      675F696E 
 16573      5F65705F 
 16573      7400
 16574              	.LASF824:
 16575 0869 7278636E 		.ascii	"rxcnt\000"
 16575      7400
 16576              	.LASF453:
 16577 086f 4144435F 		.ascii	"ADC_UNINIT\000"
 16577      554E494E 
 16577      495400
 16578              	.LASF600:
 16579 087a 7278646D 		.ascii	"rxdmamode\000"
 16579      616D6F64 
 16579      6500
 16580              	.LASF85:
 16581 0884 5F726573 		.ascii	"_result_k\000"
 16581      756C745F 
 16581      6B00
 16582              	.LASF545:
 16583 088e 6D6F6465 		.ascii	"mode\000"
 16583      00
 16584              	.LASF77:
 16585 0893 5F737464 		.ascii	"_stderr\000"
 16585      65727200 
 16586              	.LASF84:
 16587 089b 5F726573 		.ascii	"_result\000"
 16587      756C7400 
 16588              	.LASF359:
 16589 08a3 6D5F636E 		.ascii	"m_cnt\000"
 16589      7400
 16590              	.LASF542:
 16591 08a9 45585444 		.ascii	"EXTDriver\000"
 16591      72697665 
 16591      7200
 16592              	.LASF47:
 16593 08b3 5F64736F 		.ascii	"_dso_handle\000"
 16593      5F68616E 
 16593      646C6500 
 16594              	.LASF612:
 16595 08bf 69327363 		.ascii	"i2scallback_t\000"
 16595      616C6C62 
 16595      61636B5F 
 16595      7400
 16596              	.LASF684:
ARM GAS  /var/folders/qd/4mxf5pkd0zdf0b9dd1hp39180000gn/T//cc7TiL7h.s 			page 300


 16597 08cd 73737061 		.ascii	"sspad\000"
 16597      6400
 16598              	.LASF601:
 16599 08d3 7478646D 		.ascii	"txdmamode\000"
 16599      616D6F64 
 16599      6500
 16600              	.LASF569:
 16601 08dd 67707466 		.ascii	"gptfreq_t\000"
 16601      7265715F 
 16601      7400
 16602              	.LASF42:
 16603 08e7 5F5F746D 		.ascii	"__tm_wday\000"
 16603      5F776461 
 16603      7900
 16604              	.LASF44:
 16605 08f1 5F5F746D 		.ascii	"__tm_isdst\000"
 16605      5F697364 
 16605      737400
 16606              	.LASF151:
 16607 08fc 6B6E6F77 		.ascii	"knownObjectsLocation\000"
 16607      6E4F626A 
 16607      65637473 
 16607      4C6F6361 
 16607      74696F6E 
 16608              	.LASF809:
 16609 0911 72785F66 		.ascii	"rx_fifo_size\000"
 16609      69666F5F 
 16609      73697A65 
 16609      00
 16610              	.LASF134:
 16611 091e 5F5F6664 		.ascii	"__fdlib_version\000"
 16611      6C69625F 
 16611      76657273 
 16611      696F6E00 
 16612              	.LASF524:
 16613 092e 4441435F 		.ascii	"DAC_ERR_UNDERFLOW\000"
 16613      4552525F 
 16613      554E4445 
 16613      52464C4F 
 16613      5700
 16614              	.LASF505:
 16615 0940 77616B65 		.ascii	"wakeup_event\000"
 16615      75705F65 
 16615      76656E74 
 16615      00
 16616              	.LASF885:
 16617 094d 64697265 		.ascii	"direction\000"
 16617      6374696F 
 16617      6E00
 16618              	.LASF213:
 16619 0957 76745F70 		.ascii	"vt_prev\000"
 16619      72657600 
 16620              	.LASF909:
 16621 095f 6D616C6C 		.ascii	"malloc\000"
 16621      6F6300
 16622              	.LASF479:
 16623 0966 656E645F 		.ascii	"end_cb\000"
ARM GAS  /var/folders/qd/4mxf5pkd0zdf0b9dd1hp39180000gn/T//cc7TiL7h.s 			page 301


 16623      636200
 16624              	.LASF827:
 16625 096d 73657475 		.ascii	"setup_cb\000"
 16625      705F6362 
 16625      00
 16626              	.LASF7:
 16627 0976 756E7369 		.ascii	"unsigned char\000"
 16627      676E6564 
 16627      20636861 
 16627      7200
 16628              	.LASF76:
 16629 0984 5F737464 		.ascii	"_stdout\000"
 16629      6F757400 
 16630              	.LASF901:
 16631 098c 6E62506F 		.ascii	"nbPoints\000"
 16631      696E7473 
 16631      00
 16632              	.LASF310:
 16633 0995 4649464F 		.ascii	"FIFO\000"
 16633      00
 16634              	.LASF331:
 16635 099a 74625F62 		.ascii	"tb_buffer\000"
 16635      75666665 
 16635      7200
 16636              	.LASF499:
 16637 09a4 74787175 		.ascii	"txqueue\000"
 16637      65756500 
 16638              	.LASF354:
 16639 09ac 735F636E 		.ascii	"s_cnt\000"
 16639      7400
 16640              	.LASF201:
 16641 09b2 72656164 		.ascii	"ready_list_t\000"
 16641      795F6C69 
 16641      73745F74 
 16641      00
 16642              	.LASF174:
 16643 09bf 63685F74 		.ascii	"ch_thread\000"
 16643      68726561 
 16643      6400
 16644              	.LASF587:
 16645 09c9 4F504D4F 		.ascii	"OPMODE_SMBUS_HOST\000"
 16645      44455F53 
 16645      4D425553 
 16645      5F484F53 
 16645      5400
 16646              	.LASF873:
 16647 09db 64656C74 		.ascii	"deltaY\000"
 16647      615900
 16648              	.LASF896:
 16649 09e2 77686565 		.ascii	"wheelSpeed\000"
 16649      6C537065 
 16649      656400
 16650              	.LASF118:
 16651 09ed 5F6D6273 		.ascii	"_mbsrtowcs_state\000"
 16651      72746F77 
 16651      63735F73 
 16651      74617465 
ARM GAS  /var/folders/qd/4mxf5pkd0zdf0b9dd1hp39180000gn/T//cc7TiL7h.s 			page 302


 16651      00
 16652              	.LASF705:
 16653 09fe 75736265 		.ascii	"usbep_t\000"
 16653      705F7400 
 16654              	.LASF33:
 16655 0a06 5F776473 		.ascii	"_wds\000"
 16655      00
 16656              	.LASF129:
 16657 0a0b 666C6F61 		.ascii	"float\000"
 16657      7400
 16658              	.LASF538:
 16659 0a11 4558545F 		.ascii	"EXT_UNINIT\000"
 16659      554E494E 
 16659      495400
 16660              	.LASF496:
 16661 0a1c 43414E5F 		.ascii	"CAN_SLEEP\000"
 16661      534C4545 
 16661      5000
 16662              	.LASF906:
 16663 0a26 6E657741 		.ascii	"newAbsolutePositionWheelSpeedType\000"
 16663      62736F6C 
 16663      75746550 
 16663      6F736974 
 16663      696F6E57 
 16664              	.LASF327:
 16665 0a48 73655F73 		.ascii	"se_state\000"
 16665      74617465 
 16665      00
 16666              	.LASF55:
 16667 0a51 5F73697A 		.ascii	"_size\000"
 16667      6500
 16668              	.LASF674:
 16669 0a57 53444344 		.ascii	"SDCD1\000"
 16669      3100
 16670              	.LASF220:
 16671 0a5d 73797374 		.ascii	"system_debug_t\000"
 16671      656D5F64 
 16671      65627567 
 16671      5F7400
 16672              	.LASF278:
 16673 0a6c 44485238 		.ascii	"DHR8R1\000"
 16673      523100
 16674              	.LASF281:
 16675 0a73 44485238 		.ascii	"DHR8R2\000"
 16675      523200
 16676              	.LASF560:
 16677 0a7a 44494552 		.ascii	"DIER\000"
 16677      00
 16678              	.LASF845:
 16679 0a7f 77616C6C 		.ascii	"wall\000"
 16679      00
 16680              	.LASF178:
 16681 0a84 705F6374 		.ascii	"p_ctx\000"
 16681      7800
 16682              	.LASF216:
 16683 0a8a 76745F70 		.ascii	"vt_par\000"
 16683      617200
ARM GAS  /var/folders/qd/4mxf5pkd0zdf0b9dd1hp39180000gn/T//cc7TiL7h.s 			page 303


 16684              	.LASF237:
 16685 0a91 4A4F4652 		.ascii	"JOFR1\000"
 16685      3100
 16686              	.LASF238:
 16687 0a97 4A4F4652 		.ascii	"JOFR2\000"
 16687      3200
 16688              	.LASF240:
 16689 0a9d 4A4F4652 		.ascii	"JOFR4\000"
 16689      3400
 16690              	.LASF137:
 16691 0aa3 77686565 		.ascii	"wheelSpeed_t\000"
 16691      6C537065 
 16691      65645F74 
 16691      00
 16692              	.LASF62:
 16693 0ab0 5F777269 		.ascii	"_write\000"
 16693      746500
 16694              	.LASF314:
 16695 0ab7 54584352 		.ascii	"TXCRCR\000"
 16695      435200
 16696              	.LASF531:
 16697 0abe 64616364 		.ascii	"dacdhrmode_t\000"
 16697      68726D6F 
 16697      64655F74 
 16697      00
 16698              	.LASF473:
 16699 0acb 646D6173 		.ascii	"dmastp\000"
 16699      747000
 16700              	.LASF591:
 16701 0ad2 46415354 		.ascii	"FAST_DUTY_CYCLE_16_9\000"
 16701      5F445554 
 16701      595F4359 
 16701      434C455F 
 16701      31365F39 
 16702              	.LASF159:
 16703 0ae7 75696E74 		.ascii	"uint64_t\000"
 16703      36345F74 
 16703      00
 16704              	.LASF341:
 16705 0af0 6E5F6374 		.ascii	"n_ctxswc\000"
 16705      78737763 
 16705      00
 16706              	.LASF878:
 16707 0af9 6E756D62 		.ascii	"number\000"
 16707      657200
 16708              	.LASF379:
 16709 0b00 63685F64 		.ascii	"ch_debug\000"
 16709      65627567 
 16709      00
 16710              	.LASF534:
 16711 0b09 696E6974 		.ascii	"init\000"
 16711      00
 16712              	.LASF265:
 16713 0b0e 464D3152 		.ascii	"FM1R\000"
 16713      00
 16714              	.LASF450:
 16715 0b13 50414C43 		.ascii	"PALConfig\000"
ARM GAS  /var/folders/qd/4mxf5pkd0zdf0b9dd1hp39180000gn/T//cc7TiL7h.s 			page 304


 16715      6F6E6669 
 16715      6700
 16716              	.LASF818:
 16717 0b1d 7478636E 		.ascii	"txcnt\000"
 16717      7400
 16718              	.LASF732:
 16719 0b23 75736265 		.ascii	"usbeventcb_t\000"
 16719      76656E74 
 16719      63625F74 
 16719      00
 16720              	.LASF413:
 16721 0b30 424C4B5F 		.ascii	"BLK_ACTIVE\000"
 16721      41435449 
 16721      564500
 16722              	.LASF41:
 16723 0b3b 5F5F746D 		.ascii	"__tm_year\000"
 16723      5F796561 
 16723      7200
 16724              	.LASF381:
 16725 0b45 6576656E 		.ascii	"event_listener_t\000"
 16725      745F6C69 
 16725      7374656E 
 16725      65725F74 
 16725      00
 16726              	.LASF810:
 16727 0b56 6F74675F 		.ascii	"otg_ram_size\000"
 16727      72616D5F 
 16727      73697A65 
 16727      00
 16728              	.LASF853:
 16729 0b63 63686563 		.ascii	"checkIfObjectExists\000"
 16729      6B49664F 
 16729      626A6563 
 16729      74457869 
 16729      73747300 
 16730              	.LASF812:
 16731 0b77 73746D33 		.ascii	"stm32_otg_params_t\000"
 16731      325F6F74 
 16731      675F7061 
 16731      72616D73 
 16731      5F7400
 16732              	.LASF805:
 16733 0b8a 72657376 		.ascii	"resvdD00\000"
 16733      64443030 
 16733      00
 16734              	.LASF313:
 16735 0b93 52584352 		.ascii	"RXCRCR\000"
 16735      435200
 16736              	.LASF821:
 16737 0b9a 72786275 		.ascii	"rxbuf\000"
 16737      6600
 16738              	.LASF101:
 16739 0ba0 5F6D756C 		.ascii	"_mult\000"
 16739      7400
 16740              	.LASF355:
 16741 0ba6 63685F6D 		.ascii	"ch_mutex\000"
 16741      75746578 
ARM GAS  /var/folders/qd/4mxf5pkd0zdf0b9dd1hp39180000gn/T//cc7TiL7h.s 			page 305


 16741      00
 16742              	.LASF922:
 16743 0baf 6D6F645F 		.ascii	"mod_mapping_resetCoordinates\000"
 16743      6D617070 
 16743      696E675F 
 16743      72657365 
 16743      74436F6F 
 16744              	.LASF919:
 16745 0bcc 2F557365 		.ascii	"/Users/nicolas/Library/Mobile Documents/com~apple~C"
 16745      72732F6E 
 16745      69636F6C 
 16745      61732F4C 
 16745      69627261 
 16746 0bff 6C6F7564 		.ascii	"loudDocs/Projects/Cours/epuck_project/Sources\000"
 16746      446F6373 
 16746      2F50726F 
 16746      6A656374 
 16746      732F436F 
 16747              	.LASF624:
 16748 0c2d 50574D44 		.ascii	"PWMDriver\000"
 16748      72697665 
 16748      7200
 16749              	.LASF447:
 16750 0c37 50474461 		.ascii	"PGData\000"
 16750      746100
 16751              	.LASF633:
 16752 0c3e 50574D43 		.ascii	"PWMConfig\000"
 16752      6F6E6669 
 16752      6700
 16753              	.LASF116:
 16754 0c48 5F6D6272 		.ascii	"_mbrlen_state\000"
 16754      6C656E5F 
 16754      73746174 
 16754      6500
 16755              	.LASF897:
 16756 0c56 74696D65 		.ascii	"time\000"
 16756      00
 16757              	.LASF142:
 16758 0c5b 76616C75 		.ascii	"value\000"
 16758      6500
 16759              	.LASF369:
 16760 0c61 63665F6F 		.ascii	"cf_off_newer\000"
 16760      66665F6E 
 16760      65776572 
 16760      00
 16761              	.LASF790:
 16762 0c6e 44494550 		.ascii	"DIEPMSK\000"
 16762      4D534B00 
 16763              	.LASF757:
 16764 0c76 474F5447 		.ascii	"GOTGINT\000"
 16764      494E5400 
 16765              	.LASF829:
 16766 0c7e 6F75745F 		.ascii	"out_cb\000"
 16766      636200
 16767              	.LASF781:
 16768 0c85 4841494E 		.ascii	"HAINTMSK\000"
 16768      544D534B 
ARM GAS  /var/folders/qd/4mxf5pkd0zdf0b9dd1hp39180000gn/T//cc7TiL7h.s 			page 306


 16768      00
 16769              	.LASF691:
 16770 0c8e 6F75745F 		.ascii	"out_params\000"
 16770      70617261 
 16770      6D7300
 16771              	.LASF326:
 16772 0c99 73655F77 		.ascii	"se_wtobjp\000"
 16772      746F626A 
 16772      7000
 16773              	.LASF244:
 16774 0ca3 4A535152 		.ascii	"JSQR\000"
 16774      00
 16775              	.LASF75:
 16776 0ca8 5F737464 		.ascii	"_stdin\000"
 16776      696E00
 16777              	.LASF123:
 16778 0caf 5F6E6D61 		.ascii	"_nmalloc\000"
 16778      6C6C6F63 
 16778      00
 16779              	.LASF572:
 16780 0cb8 64696572 		.ascii	"dier\000"
 16780      00
 16781              	.LASF669:
 16782 0cbd 69735F70 		.ascii	"is_protected\000"
 16782      726F7465 
 16782      63746564 
 16782      00
 16783              	.LASF210:
 16784 0cca 76697274 		.ascii	"virtual_timer_t\000"
 16784      75616C5F 
 16784      74696D65 
 16784      725F7400 
 16785              	.LASF831:
 16786 0cda 6F75745F 		.ascii	"out_maxsize\000"
 16786      6D617873 
 16786      697A6500 
 16787              	.LASF205:
 16788 0ce6 725F6374 		.ascii	"r_ctx\000"
 16788      7800
 16789              	.LASF212:
 16790 0cec 76745F6E 		.ascii	"vt_next\000"
 16790      65787400 
 16791              	.LASF606:
 16792 0cf4 4932535F 		.ascii	"I2S_STOP\000"
 16792      53544F50 
 16792      00
 16793              	.LASF246:
 16794 0cfd 4A445232 		.ascii	"JDR2\000"
 16794      00
 16795              	.LASF621:
 16796 0d02 50574D5F 		.ascii	"PWM_STOP\000"
 16796      53544F50 
 16796      00
 16797              	.LASF160:
 16798 0d0b 7274636E 		.ascii	"rtcnt_t\000"
 16798      745F7400 
 16799              	.LASF472:
ARM GAS  /var/folders/qd/4mxf5pkd0zdf0b9dd1hp39180000gn/T//cc7TiL7h.s 			page 307


 16800 0d13 6D757465 		.ascii	"mutex\000"
 16800      7800
 16801              	.LASF615:
 16802 0d19 73697A65 		.ascii	"size\000"
 16802      00
 16803              	.LASF520:
 16804 0d1e 44414344 		.ascii	"DACDriver\000"
 16804      72697665 
 16804      7200
 16805              	.LASF903:
 16806 0d28 70746F74 		.ascii	"ptot\000"
 16806      00
 16807              	.LASF536:
 16808 0d2d 44414343 		.ascii	"DACConfig\000"
 16808      6F6E6669 
 16808      6700
 16809              	.LASF865:
 16810 0d37 6D6F645F 		.ascii	"mod_mapping_getAngleForTranslation\000"
 16810      6D617070 
 16810      696E675F 
 16810      67657441 
 16810      6E676C65 
 16811              	.LASF136:
 16812 0d5a 72696768 		.ascii	"right\000"
 16812      7400
 16813              	.LASF702:
 16814 0d60 74787065 		.ascii	"txpending\000"
 16814      6E64696E 
 16814      6700
 16815              	.LASF557:
 16816 0d6a 636C6F63 		.ascii	"clock\000"
 16816      6B00
 16817              	.LASF424:
 16818 0d70 636C6561 		.ascii	"clear\000"
 16818      7200
 16819              	.LASF567:
 16820 0d76 43435852 		.ascii	"CCXR\000"
 16820      00
 16821              	.LASF274:
 16822 0d7b 43414E5F 		.ascii	"CAN_TypeDef\000"
 16822      54797065 
 16822      44656600 
 16823              	.LASF19:
 16824 0d87 5F6F6666 		.ascii	"_off_t\000"
 16824      5F7400
 16825              	.LASF321:
 16826 0d8e 73746B61 		.ascii	"stkalign_t\000"
 16826      6C69676E 
 16826      5F7400
 16827              	.LASF328:
 16828 0d99 63685F73 		.ascii	"ch_swc_event_t\000"
 16828      77635F65 
 16828      76656E74 
 16828      5F7400
 16829              	.LASF639:
 16830 0da8 53445F53 		.ascii	"SD_STOP\000"
 16830      544F5000 
ARM GAS  /var/folders/qd/4mxf5pkd0zdf0b9dd1hp39180000gn/T//cc7TiL7h.s 			page 308


 16831              	.LASF887:
 16832 0db0 6D656173 		.ascii	"measurementsVariations_t\000"
 16832      7572656D 
 16832      656E7473 
 16832      56617269 
 16832      6174696F 
 16833              	.LASF736:
 16834 0dc9 72657376 		.ascii	"resvd8\000"
 16834      643800
 16835              	.LASF5:
 16836 0dd0 73697A65 		.ascii	"size_t\000"
 16836      5F7400
 16837              	.LASF106:
 16838 0dd7 5F6C6F63 		.ascii	"_localtime_buf\000"
 16838      616C7469 
 16838      6D655F62 
 16838      756600
 16839              	.LASF803:
 16840 0de6 72657376 		.ascii	"resvd880\000"
 16840      64383830 
 16840      00
 16841              	.LASF24:
 16842 0def 5F5F636F 		.ascii	"__count\000"
 16842      756E7400 
 16843              	.LASF154:
 16844 0df7 75696E74 		.ascii	"uint8_t\000"
 16844      385F7400 
 16845              	.LASF740:
 16846 0dff 72657376 		.ascii	"resvd14\000"
 16846      64313400 
 16847              	.LASF492:
 16848 0e07 43414E5F 		.ascii	"CAN_UNINIT\000"
 16848      554E494E 
 16848      495400
 16849              	.LASF741:
 16850 0e12 72657376 		.ascii	"resvd18\000"
 16850      64313800 
 16851              	.LASF207:
 16852 0e1a 725F6F6C 		.ascii	"r_older\000"
 16852      64657200 
 16853              	.LASF176:
 16854 0e22 705F7072 		.ascii	"p_prev\000"
 16854      657600
 16855              	.LASF371:
 16856 0e29 63665F6F 		.ascii	"cf_off_name\000"
 16856      66665F6E 
 16856      616D6500 
 16857              	.LASF632:
 16858 0e35 50574D43 		.ascii	"PWMChannelConfig\000"
 16858      68616E6E 
 16858      656C436F 
 16858      6E666967 
 16858      00
 16859              	.LASF631:
 16860 0e46 70776D63 		.ascii	"pwmcnt_t\000"
 16860      6E745F74 
 16860      00
ARM GAS  /var/folders/qd/4mxf5pkd0zdf0b9dd1hp39180000gn/T//cc7TiL7h.s 			page 309


 16861              	.LASF799:
 16862 0e4f 44494550 		.ascii	"DIEPEMPMSK\000"
 16862      454D504D 
 16862      534B00
 16863              	.LASF744:
 16864 0e5a 44494550 		.ascii	"DIEPCTL\000"
 16864      43544C00 
 16865              	.LASF387:
 16866 0e62 656C5F77 		.ascii	"el_wflags\000"
 16866      666C6167 
 16866      7300
 16867              	.LASF700:
 16868 0e6c 6F746770 		.ascii	"otgparams\000"
 16868      6172616D 
 16868      7300
 16869              	.LASF329:
 16870 0e76 74625F73 		.ascii	"tb_size\000"
 16870      697A6500 
 16871              	.LASF444:
 16872 0e7e 50444461 		.ascii	"PDData\000"
 16872      746100
 16873              	.LASF664:
 16874 0e85 73637261 		.ascii	"scratchpad\000"
 16874      74636870 
 16874      616400
 16875              	.LASF89:
 16876 0e90 5F637674 		.ascii	"_cvtbuf\000"
 16876      62756600 
 16877              	.LASF833:
 16878 0e98 6F75745F 		.ascii	"out_state\000"
 16878      73746174 
 16878      6500
 16879              	.LASF391:
 16880 0ea2 696F5F71 		.ascii	"io_queue_t\000"
 16880      75657565 
 16880      5F7400
 16881              	.LASF884:
 16882 0ead 64697265 		.ascii	"direction_t\000"
 16882      6374696F 
 16882      6E5F7400 
 16883              	.LASF680:
 16884 0eb9 73706973 		.ascii	"spistate_t\000"
 16884      74617465 
 16884      5F7400
 16885              	.LASF577:
 16886 0ec4 4932435F 		.ascii	"I2C_STOP\000"
 16886      53544F50 
 16886      00
 16887              	.LASF599:
 16888 0ecd 61646472 		.ascii	"addr\000"
 16888      00
 16889              	.LASF259:
 16890 0ed2 52463052 		.ascii	"RF0R\000"
 16890      00
 16891              	.LASF462:
 16892 0ed7 4144435F 		.ascii	"ADC_ERR_DMAFAILURE\000"
 16892      4552525F 
ARM GAS  /var/folders/qd/4mxf5pkd0zdf0b9dd1hp39180000gn/T//cc7TiL7h.s 			page 310


 16892      444D4146 
 16892      41494C55 
 16892      524500
 16893              	.LASF678:
 16894 0eea 5350495F 		.ascii	"SPI_ACTIVE\000"
 16894      41435449 
 16894      564500
 16895              	.LASF318:
 16896 0ef5 47545052 		.ascii	"GTPR\000"
 16896      00
 16897              	.LASF546:
 16898 0efa 45585443 		.ascii	"EXTChannelConfig\000"
 16898      68616E6E 
 16898      656C436F 
 16898      6E666967 
 16898      00
 16899              	.LASF427:
 16900 0f0b 4F535045 		.ascii	"OSPEEDR\000"
 16900      45445200 
 16901              	.LASF510:
 16902 0f13 4441435F 		.ascii	"DAC_READY\000"
 16902      52454144 
 16902      5900
 16903              	.LASF768:
 16904 0f1d 72657376 		.ascii	"resvd30\000"
 16904      64333000 
 16905              	.LASF23:
 16906 0f25 5F5F7763 		.ascii	"__wchb\000"
 16906      686200
 16907              	.LASF117:
 16908 0f2c 5F6D6272 		.ascii	"_mbrtowc_state\000"
 16908      746F7763 
 16908      5F737461 
 16908      746500
 16909              	.LASF797:
 16910 0f3b 44564255 		.ascii	"DVBUSPULSE\000"
 16910      5350554C 
 16910      534500
 16911              	.LASF38:
 16912 0f46 5F5F746D 		.ascii	"__tm_hour\000"
 16912      5F686F75 
 16912      7200
 16913              	.LASF412:
 16914 0f50 424C4B5F 		.ascii	"BLK_STOP\000"
 16914      53544F50 
 16914      00
 16915              	.LASF647:
 16916 0f59 53657269 		.ascii	"SerialDriverVMT\000"
 16916      616C4472 
 16916      69766572 
 16916      564D5400 
 16917              	.LASF718:
 16918 0f69 5553425F 		.ascii	"USB_EP0_ERROR\000"
 16918      4550305F 
 16918      4552524F 
 16918      5200
 16919              	.LASF21:
ARM GAS  /var/folders/qd/4mxf5pkd0zdf0b9dd1hp39180000gn/T//cc7TiL7h.s 			page 311


 16920 0f77 77696E74 		.ascii	"wint_t\000"
 16920      5F7400
 16921              	.LASF670:
 16922 0f7e 636F6E6E 		.ascii	"connect\000"
 16922      65637400 
 16923              	.LASF90:
 16924 0f86 5F6E6577 		.ascii	"_new\000"
 16924      00
 16925              	.LASF465:
 16926 0f8b 41444344 		.ascii	"ADCDriver\000"
 16926      72697665 
 16926      7200
 16927              	.LASF811:
 16928 0f95 6E756D5F 		.ascii	"num_endpoints\000"
 16928      656E6470 
 16928      6F696E74 
 16928      7300
 16929              	.LASF488:
 16930 0fa3 41444343 		.ascii	"ADCConfig\000"
 16930      6F6E6669 
 16930      6700
 16931              	.LASF819:
 16932 0fad 746F7473 		.ascii	"totsize\000"
 16932      697A6500 
 16933              	.LASF97:
 16934 0fb5 5F6E696F 		.ascii	"_niobs\000"
 16934      627300
 16935              	.LASF372:
 16936 0fbc 63665F6F 		.ascii	"cf_off_stklimit\000"
 16936      66665F73 
 16936      746B6C69 
 16936      6D697400 
 16937              	.LASF640:
 16938 0fcc 53445F52 		.ascii	"SD_READY\000"
 16938      45414459 
 16938      00
 16939              	.LASF734:
 16940 0fd5 75736267 		.ascii	"usbgetdescriptor_t\000"
 16940      65746465 
 16940      73637269 
 16940      70746F72 
 16940      5F7400
 16941              	.LASF917:
 16942 0fe8 474E5520 		.ascii	"GNU C11 7.2.1 20170904 (release) [ARM/embedded-7-br"
 16942      43313120 
 16942      372E322E 
 16942      31203230 
 16942      31373039 
 16943 101b 616E6368 		.ascii	"anch revision 255204] -mcpu=cortex-m4 -mfloat-abi=h"
 16943      20726576 
 16943      6973696F 
 16943      6E203235 
 16943      35323034 
 16944 104e 61726420 		.ascii	"ard -mfpu=fpv4-sp-d16 -mno-thumb-interwork -mthumb "
 16944      2D6D6670 
 16944      753D6670 
 16944      76342D73 
ARM GAS  /var/folders/qd/4mxf5pkd0zdf0b9dd1hp39180000gn/T//cc7TiL7h.s 			page 312


 16944      702D6431 
 16945 1081 2D676764 		.ascii	"-ggdb -O2 -fomit-frame-pointer -falign-functions=16"
 16945      62202D4F 
 16945      32202D66 
 16945      6F6D6974 
 16945      2D667261 
 16946 10b4 202D666E 		.ascii	" -fno-strict-aliasing -fstack-protector-all -ffunct"
 16946      6F2D7374 
 16946      72696374 
 16946      2D616C69 
 16946      6173696E 
 16947 10e7 696F6E2D 		.ascii	"ion-sections -fdata-sections -fno-common -fsingle-p"
 16947      73656374 
 16947      696F6E73 
 16947      202D6664 
 16947      6174612D 
 16948 111a 72656369 		.ascii	"recision-constant\000"
 16948      73696F6E 
 16948      2D636F6E 
 16948      7374616E 
 16948      7400
 16949              	.LASF847:
 16950 112c 6F626A65 		.ascii	"objectListSize\000"
 16950      63744C69 
 16950      73745369 
 16950      7A6500
 16951              	.LASF513:
 16952 113b 4441435F 		.ascii	"DAC_ERROR\000"
 16952      4552524F 
 16952      5200
 16953              	.LASF208:
 16954 1145 725F6375 		.ascii	"r_current\000"
 16954      7272656E 
 16954      7400
 16955              	.LASF74:
 16956 114f 5F657272 		.ascii	"_errno\000"
 16956      6E6F00
 16957              	.LASF713:
 16958 1156 5553425F 		.ascii	"USB_EP0_TX\000"
 16958      4550305F 
 16958      545800
 16959              	.LASF692:
 16960 1161 65703073 		.ascii	"ep0state\000"
 16960      74617465 
 16960      00
 16961              	.LASF39:
 16962 116a 5F5F746D 		.ascii	"__tm_mday\000"
 16962      5F6D6461 
 16962      7900
 16963              	.LASF405:
 16964 1174 69666372 		.ascii	"ifcr\000"
 16964      00
 16965              	.LASF605:
 16966 1179 4932535F 		.ascii	"I2S_UNINIT\000"
 16966      554E494E 
 16966      495400
 16967              	.LASF433:
ARM GAS  /var/folders/qd/4mxf5pkd0zdf0b9dd1hp39180000gn/T//cc7TiL7h.s 			page 313


 16968 1184 73746D33 		.ascii	"stm32_gpio_t\000"
 16968      325F6770 
 16968      696F5F74 
 16968      00
 16969              	.LASF345:
 16970 1191 7264796D 		.ascii	"rdymsg\000"
 16970      736700
 16971              	.LASF46:
 16972 1198 5F666E61 		.ascii	"_fnargs\000"
 16972      72677300 
 16973              	.LASF622:
 16974 11a0 50574D5F 		.ascii	"PWM_READY\000"
 16974      52454144 
 16974      5900
 16975              	.LASF250:
 16976 11aa 54445452 		.ascii	"TDTR\000"
 16976      00
 16977              	.LASF258:
 16978 11af 43414E5F 		.ascii	"CAN_FilterRegister_TypeDef\000"
 16978      46696C74 
 16978      65725265 
 16978      67697374 
 16978      65725F54 
 16979              	.LASF503:
 16980 11ca 6572726F 		.ascii	"error_event\000"
 16980      725F6576 
 16980      656E7400 
 16981              	.LASF478:
 16982 11d6 6E756D5F 		.ascii	"num_channels\000"
 16982      6368616E 
 16982      6E656C73 
 16982      00
 16983              	.LASF239:
 16984 11e3 4A4F4652 		.ascii	"JOFR3\000"
 16984      3300
 16985              	.LASF771:
 16986 11e9 72657376 		.ascii	"resvd58\000"
 16986      64353800 
 16987              	.LASF820:
 16988 11f1 55534249 		.ascii	"USBInEndpointState\000"
 16988      6E456E64 
 16988      706F696E 
 16988      74537461 
 16988      746500
 16989              	.LASF140:
 16990 1204 706F696E 		.ascii	"point_t\000"
 16990      745F7400 
 16991              	.LASF392:
 16992 120c 696F5F71 		.ascii	"io_queue\000"
 16992      75657565 
 16992      00
 16993              	.LASF441:
 16994 1215 50414461 		.ascii	"PAData\000"
 16994      746100
 16995              	.LASF16:
 16996 121c 5F5F7569 		.ascii	"__uint64_t\000"
 16996      6E743634 
ARM GAS  /var/folders/qd/4mxf5pkd0zdf0b9dd1hp39180000gn/T//cc7TiL7h.s 			page 314


 16996      5F7400
 16997              	.LASF860:
 16998 1227 636F6D70 		.ascii	"computeObjectRelativeDirection\000"
 16998      7574654F 
 16998      626A6563 
 16998      7452656C 
 16998      61746976 
 16999              	.LASF30:
 17000 1246 5F6E6578 		.ascii	"_next\000"
 17000      7400
 17001              	.LASF627:
 17002 124c 70776D63 		.ascii	"pwmcallback_t\000"
 17002      616C6C62 
 17002      61636B5F 
 17002      7400
 17003              	.LASF521:
 17004 125a 70617261 		.ascii	"params\000"
 17004      6D7300
 17005              	.LASF717:
 17006 1261 5553425F 		.ascii	"USB_EP0_SENDING_STS\000"
 17006      4550305F 
 17006      53454E44 
 17006      494E475F 
 17006      53545300 
 17007              	.LASF114:
 17008 1275 5F736967 		.ascii	"_signal_buf\000"
 17008      6E616C5F 
 17008      62756600 
 17009              	.LASF881:
 17010 1281 494E4352 		.ascii	"INCREASING\000"
 17010      45415349 
 17010      4E4700
 17011              	.LASF582:
 17012 128c 69326373 		.ascii	"i2cstate_t\000"
 17012      74617465 
 17012      5F7400
 17013              	.LASF60:
 17014 1297 5F636F6F 		.ascii	"_cookie\000"
 17014      6B696500 
 17015              	.LASF719:
 17016 129f 75736265 		.ascii	"usbep0state_t\000"
 17016      70307374 
 17016      6174655F 
 17016      7400
 17017              	.LASF525:
 17018 12ad 64616365 		.ascii	"dacerror_t\000"
 17018      72726F72 
 17018      5F7400
 17019              	.LASF262:
 17020 12b8 7354784D 		.ascii	"sTxMailBox\000"
 17020      61696C42 
 17020      6F7800
 17021              	.LASF460:
 17022 12c3 61646373 		.ascii	"adcsample_t\000"
 17022      616D706C 
 17022      655F7400 
 17023              	.LASF558:
ARM GAS  /var/folders/qd/4mxf5pkd0zdf0b9dd1hp39180000gn/T//cc7TiL7h.s 			page 315


 17024 12cf 67707463 		.ascii	"gptcallback_t\000"
 17024      616C6C62 
 17024      61636B5F 
 17024      7400
 17025              	.LASF395:
 17026 12dd 715F6275 		.ascii	"q_buffer\000"
 17026      66666572 
 17026      00
 17027              	.LASF175:
 17028 12e6 705F6E65 		.ascii	"p_next\000"
 17028      787400
 17029              	.LASF604:
 17030 12ed 49324344 		.ascii	"I2CD1\000"
 17030      3100
 17031              	.LASF745:
 17032 12f3 72657376 		.ascii	"resvd4\000"
 17032      643400
 17033              	.LASF687:
 17034 12fa 55534244 		.ascii	"USBDriver\000"
 17034      72697665 
 17034      7200
 17035              	.LASF804:
 17036 1304 72657376 		.ascii	"resvd8C0\000"
 17036      64384330 
 17036      00
 17037              	.LASF841:
 17038 130d 55534243 		.ascii	"USBConfig\000"
 17038      6F6E6669 
 17038      6700
 17039              	.LASF747:
 17040 1317 72657376 		.ascii	"resvdC\000"
 17040      644300
 17041              	.LASF634:
 17042 131e 50574D44 		.ascii	"PWMD2\000"
 17042      3200
 17043              	.LASF635:
 17044 1324 50574D44 		.ascii	"PWMD3\000"
 17044      3300
 17045              	.LASF636:
 17046 132a 50574D44 		.ascii	"PWMD4\000"
 17046      3400
 17047              	.LASF637:
 17048 1330 50574D44 		.ascii	"PWMD5\000"
 17048      3500
 17049              	.LASF150:
 17050 1336 6E65774F 		.ascii	"newObjectsLocation\000"
 17050      626A6563 
 17050      74734C6F 
 17050      63617469 
 17050      6F6E00
 17051              	.LASF645:
 17052 1349 6F717565 		.ascii	"oqueue\000"
 17052      756500
 17053              	.LASF164:
 17054 1350 74726566 		.ascii	"trefs_t\000"
 17054      735F7400 
 17055              	.LASF194:
ARM GAS  /var/folders/qd/4mxf5pkd0zdf0b9dd1hp39180000gn/T//cc7TiL7h.s 			page 316


 17056 1358 705F6D70 		.ascii	"p_mpool\000"
 17056      6F6F6C00 
 17057              	.LASF296:
 17058 1360 4932435F 		.ascii	"I2C_TypeDef\000"
 17058      54797065 
 17058      44656600 
 17059              	.LASF848:
 17060 136c 706F696E 		.ascii	"point\000"
 17060      7400
 17061              	.LASF533:
 17062 1372 44414343 		.ascii	"DACConversionGroup\000"
 17062      6F6E7665 
 17062      7273696F 
 17062      6E47726F 
 17062      757000
 17063              	.LASF36:
 17064 1385 5F5F746D 		.ascii	"__tm_sec\000"
 17064      5F736563 
 17064      00
 17065              	.LASF834:
 17066 138e 696E5F6D 		.ascii	"in_multiplier\000"
 17066      756C7469 
 17066      706C6965 
 17066      7200
 17067              	.LASF458:
 17068 139c 4144435F 		.ascii	"ADC_ERROR\000"
 17068      4552524F 
 17068      5200
 17069              	.LASF45:
 17070 13a6 5F6F6E5F 		.ascii	"_on_exit_args\000"
 17070      65786974 
 17070      5F617267 
 17070      7300
 17071              	.LASF322:
 17072 13b4 636F6E74 		.ascii	"context\000"
 17072      65787400 
 17073              	.LASF162:
 17074 13bc 746D6F64 		.ascii	"tmode_t\000"
 17074      655F7400 
 17075              	.LASF456:
 17076 13c4 4144435F 		.ascii	"ADC_ACTIVE\000"
 17076      41435449 
 17076      564500
 17077              	.LASF241:
 17078 13cf 53515231 		.ascii	"SQR1\000"
 17078      00
 17079              	.LASF242:
 17080 13d4 53515232 		.ascii	"SQR2\000"
 17080      00
 17081              	.LASF243:
 17082 13d9 53515233 		.ascii	"SQR3\000"
 17082      00
 17083              	.LASF871:
 17084 13de 64697370 		.ascii	"displacement\000"
 17084      6C616365 
 17084      6D656E74 
 17084      00
ARM GAS  /var/folders/qd/4mxf5pkd0zdf0b9dd1hp39180000gn/T//cc7TiL7h.s 			page 317


 17085              	.LASF429:
 17086 13eb 42535252 		.ascii	"BSRR\000"
 17086      00
 17087              	.LASF409:
 17088 13f0 73746D33 		.ascii	"stm32_dma_stream_t\000"
 17088      325F646D 
 17088      615F7374 
 17088      7265616D 
 17088      5F7400
 17089              	.LASF870:
 17090 1403 6E657741 		.ascii	"newAbsolutePosition\000"
 17090      62736F6C 
 17090      75746550 
 17090      6F736974 
 17090      696F6E00 
 17091              	.LASF839:
 17092 1417 72657175 		.ascii	"requests_hook_cb\000"
 17092      65737473 
 17092      5F686F6F 
 17092      6B5F6362 
 17092      00
 17093              	.LASF119:
 17094 1428 5F776372 		.ascii	"_wcrtomb_state\000"
 17094      746F6D62 
 17094      5F737461 
 17094      746500
 17095              	.LASF656:
 17096 1437 5344435F 		.ascii	"SDC_MODE_8BIT\000"
 17096      4D4F4445 
 17096      5F384249 
 17096      5400
 17097              	.LASF138:
 17098 1445 74686574 		.ascii	"theta\000"
 17098      6100
 17099              	.LASF817:
 17100 144b 74787369 		.ascii	"txsize\000"
 17100      7A6500
 17101              	.LASF877:
 17102 1452 6D6F645F 		.ascii	"mod_mapping_computeWallLocation\000"
 17102      6D617070 
 17102      696E675F 
 17102      636F6D70 
 17102      75746557 
 17103              	.LASF139:
 17104 1472 726F626F 		.ascii	"robotPosition_t\000"
 17104      74506F73 
 17104      6974696F 
 17104      6E5F7400 
 17105              	.LASF529:
 17106 1482 4441435F 		.ascii	"DAC_DHRM_12BIT_LEFT\000"
 17106      4448524D 
 17106      5F313242 
 17106      49545F4C 
 17106      45465400 
 17107              	.LASF625:
 17108 1496 70657269 		.ascii	"period\000"
 17108      6F6400
ARM GAS  /var/folders/qd/4mxf5pkd0zdf0b9dd1hp39180000gn/T//cc7TiL7h.s 			page 318


 17109              	.LASF356:
 17110 149d 6D5F7175 		.ascii	"m_queue\000"
 17110      65756500 
 17111              	.LASF581:
 17112 14a5 4932435F 		.ascii	"I2C_LOCKED\000"
 17112      4C4F434B 
 17112      454400
 17113              	.LASF223:
 17114 14b0 6973725F 		.ascii	"isr_cnt\000"
 17114      636E7400 
 17115              	.LASF708:
 17116 14b8 5553425F 		.ascii	"USB_READY\000"
 17116      52454144 
 17116      5900
 17117              	.LASF653:
 17118 14c2 72656164 		.ascii	"readt\000"
 17118      7400
 17119              	.LASF760:
 17120 14c8 47525354 		.ascii	"GRSTCTL\000"
 17120      43544C00 
 17121              	.LASF555:
 17122 14d0 67707473 		.ascii	"gptstate_t\000"
 17122      74617465 
 17122      5F7400
 17123              	.LASF29:
 17124 14db 5F5F554C 		.ascii	"__ULong\000"
 17124      6F6E6700 
 17125              	.LASF222:
 17126 14e3 70616E69 		.ascii	"panic_msg\000"
 17126      635F6D73 
 17126      6700
 17127              	.LASF679:
 17128 14ed 5350495F 		.ascii	"SPI_COMPLETE\000"
 17128      434F4D50 
 17128      4C455445 
 17128      00
 17129              	.LASF304:
 17130 14fa 4454494D 		.ascii	"DTIMER\000"
 17130      455200
 17131              	.LASF879:
 17132 1501 6D656173 		.ascii	"measureNumber\000"
 17132      7572654E 
 17132      756D6265 
 17132      7200
 17133              	.LASF206:
 17134 150f 725F6E65 		.ascii	"r_newer\000"
 17134      77657200 
 17135              	.LASF725:
 17136 1517 5553425F 		.ascii	"USB_EVENT_STALLED\000"
 17136      4556454E 
 17136      545F5354 
 17136      414C4C45 
 17136      4400
 17137              	.LASF378:
 17138 1529 63686465 		.ascii	"chdebug_t\000"
 17138      6275675F 
 17138      7400
ARM GAS  /var/folders/qd/4mxf5pkd0zdf0b9dd1hp39180000gn/T//cc7TiL7h.s 			page 319


 17139              	.LASF823:
 17140 1533 72787369 		.ascii	"rxsize\000"
 17140      7A6500
 17141              	.LASF739:
 17142 153a 48435453 		.ascii	"HCTSIZ\000"
 17142      495A00
 17143              	.LASF722:
 17144 1541 5553425F 		.ascii	"USB_EVENT_CONFIGURED\000"
 17144      4556454E 
 17144      545F434F 
 17144      4E464947 
 17144      55524544 
 17145              	.LASF671:
 17146 1556 64697363 		.ascii	"disconnect\000"
 17146      6F6E6E65 
 17146      637400
 17147              	.LASF650:
 17148 1561 70757474 		.ascii	"putt\000"
 17148      00
 17149              	.LASF165:
 17150 1566 74736C69 		.ascii	"tslices_t\000"
 17150      6365735F 
 17150      7400
 17151              	.LASF104:
 17152 1570 5F737472 		.ascii	"_strtok_last\000"
 17152      746F6B5F 
 17152      6C617374 
 17152      00
 17153              	.LASF365:
 17154 157d 63685F74 		.ascii	"ch_timesize\000"
 17154      696D6573 
 17154      697A6500 
 17155              	.LASF580:
 17156 1589 4932435F 		.ascii	"I2C_ACTIVE_RX\000"
 17156      41435449 
 17156      56455F52 
 17156      5800
 17157              	.LASF704:
 17158 1597 77615F70 		.ascii	"wa_pump\000"
 17158      756D7000 
 17159              	.LASF309:
 17160 159f 4649464F 		.ascii	"FIFOCNT\000"
 17160      434E5400 
 17161              	.LASF390:
 17162 15a7 6576656E 		.ascii	"event_source_t\000"
 17162      745F736F 
 17162      75726365 
 17162      5F7400
 17163              	.LASF774:
 17164 15b6 72657376 		.ascii	"resvd140\000"
 17164      64313430 
 17164      00
 17165              	.LASF214:
 17166 15bf 76745F64 		.ascii	"vt_delta\000"
 17166      656C7461 
 17166      00
 17167              	.LASF100:
ARM GAS  /var/folders/qd/4mxf5pkd0zdf0b9dd1hp39180000gn/T//cc7TiL7h.s 			page 320


 17168 15c8 5F736565 		.ascii	"_seed\000"
 17168      6400
 17169              	.LASF330:
 17170 15ce 74625F70 		.ascii	"tb_ptr\000"
 17170      747200
 17171              	.LASF532:
 17172 15d5 74726967 		.ascii	"trigger\000"
 17172      67657200 
 17173              	.LASF63:
 17174 15dd 5F736565 		.ascii	"_seek\000"
 17174      6B00
 17175              	.LASF723:
 17176 15e3 5553425F 		.ascii	"USB_EVENT_SUSPEND\000"
 17176      4556454E 
 17176      545F5355 
 17176      5350454E 
 17176      4400
 17177              	.LASF155:
 17178 15f5 696E7431 		.ascii	"int16_t\000"
 17178      365F7400 
 17179              	.LASF551:
 17180 15fd 4750545F 		.ascii	"GPT_STOP\000"
 17180      53544F50 
 17180      00
 17181              	.LASF249:
 17182 1606 4144435F 		.ascii	"ADC_TypeDef\000"
 17182      54797065 
 17182      44656600 
 17183              	.LASF752:
 17184 1612 444F4550 		.ascii	"DOEPCTL\000"
 17184      43544C00 
 17185              	.LASF11:
 17186 161a 73686F72 		.ascii	"short unsigned int\000"
 17186      7420756E 
 17186      7369676E 
 17186      65642069 
 17186      6E7400
 17187              	.LASF593:
 17188 162d 6F705F6D 		.ascii	"op_mode\000"
 17188      6F646500 
 17189              	.LASF4:
 17190 1635 7369676E 		.ascii	"signed char\000"
 17190      65642063 
 17190      68617200 
 17191              	.LASF630:
 17192 1641 70776D63 		.ascii	"pwmchnmsk_t\000"
 17192      686E6D73 
 17192      6B5F7400 
 17193              	.LASF186:
 17194 164d 705F7072 		.ascii	"p_preempt\000"
 17194      65656D70 
 17194      7400
 17195              	.LASF607:
 17196 1657 4932535F 		.ascii	"I2S_READY\000"
 17196      52454144 
 17196      5900
 17197              	.LASF171:
ARM GAS  /var/folders/qd/4mxf5pkd0zdf0b9dd1hp39180000gn/T//cc7TiL7h.s 			page 321


 17198 1661 75636E74 		.ascii	"ucnt_t\000"
 17198      5F7400
 17199              	.LASF252:
 17200 1668 54444852 		.ascii	"TDHR\000"
 17200      00
 17201              	.LASF454:
 17202 166d 4144435F 		.ascii	"ADC_STOP\000"
 17202      53544F50 
 17202      00
 17203              	.LASF716:
 17204 1676 5553425F 		.ascii	"USB_EP0_RX\000"
 17204      4550305F 
 17204      525800
 17205              	.LASF130:
 17206 1681 5F5F6664 		.ascii	"__fdlibm_ieee\000"
 17206      6C69626D 
 17206      5F696565 
 17206      6500
 17207              	.LASF910:
 17208 168f 61737365 		.ascii	"assert\000"
 17208      727400
 17209              	.LASF628:
 17210 1696 70776D6D 		.ascii	"pwmmode_t\000"
 17210      6F64655F 
 17210      7400
 17211              	.LASF697:
 17212 16a0 73746174 		.ascii	"status\000"
 17212      757300
 17213              	.LASF305:
 17214 16a7 444C454E 		.ascii	"DLEN\000"
 17214      00
 17215              	.LASF655:
 17216 16ac 5344435F 		.ascii	"SDC_MODE_4BIT\000"
 17216      4D4F4445 
 17216      5F344249 
 17216      5400
 17217              	.LASF856:
 17218 16ba 63697263 		.ascii	"circle\000"
 17218      6C6500
 17219              	.LASF729:
 17220 16c1 55534244 		.ascii	"USBDescriptor\000"
 17220      65736372 
 17220      6970746F 
 17220      7200
 17221              	.LASF842:
 17222 16cf 55534244 		.ascii	"USBD1\000"
 17222      3100
 17223              	.LASF682:
 17224 16d5 73706963 		.ascii	"spicallback_t\000"
 17224      616C6C62 
 17224      61636B5F 
 17224      7400
 17225              	.LASF87:
 17226 16e3 5F667265 		.ascii	"_freelist\000"
 17226      656C6973 
 17226      7400
 17227              	.LASF698:
ARM GAS  /var/folders/qd/4mxf5pkd0zdf0b9dd1hp39180000gn/T//cc7TiL7h.s 			page 322


 17228 16ed 61646472 		.ascii	"address\000"
 17228      65737300 
 17229              	.LASF189:
 17230 16f5 705F6D73 		.ascii	"p_msgqueue\000"
 17230      67717565 
 17230      756500
 17231              	.LASF375:
 17232 1700 63665F6F 		.ascii	"cf_off_refs\000"
 17232      66665F72 
 17232      65667300 
 17233              	.LASF373:
 17234 170c 63665F6F 		.ascii	"cf_off_state\000"
 17234      66665F73 
 17234      74617465 
 17234      00
 17235              	.LASF357:
 17236 1719 6D5F6F77 		.ascii	"m_owner\000"
 17236      6E657200 
 17237              	.LASF68:
 17238 1721 5F6F6666 		.ascii	"_offset\000"
 17238      73657400 
 17239              	.LASF234:
 17240 1729 53797374 		.ascii	"SystemCoreClock\000"
 17240      656D436F 
 17240      7265436C 
 17240      6F636B00 
 17241              	.LASF476:
 17242 1739 61646365 		.ascii	"adcerrorcallback_t\000"
 17242      72726F72 
 17242      63616C6C 
 17242      6261636B 
 17242      5F7400
 17243              	.LASF511:
 17244 174c 4441435F 		.ascii	"DAC_ACTIVE\000"
 17244      41435449 
 17244      564500
 17245              	.LASF149:
 17246 1757 6E756D62 		.ascii	"numberOfknownObjects\000"
 17246      65724F66 
 17246      6B6E6F77 
 17246      6E4F626A 
 17246      65637473 
 17247              	.LASF466:
 17248 176c 73746174 		.ascii	"state\000"
 17248      6500
 17249              	.LASF363:
 17250 1772 63685F76 		.ascii	"ch_version\000"
 17250      65727369 
 17250      6F6E00
 17251              	.LASF53:
 17252 177d 5F5F7362 		.ascii	"__sbuf\000"
 17252      756600
 17253              	.LASF663:
 17254 1784 7364696F 		.ascii	"sdio\000"
 17254      00
 17255              	.LASF275:
 17256 1789 53575452 		.ascii	"SWTRIGR\000"
ARM GAS  /var/folders/qd/4mxf5pkd0zdf0b9dd1hp39180000gn/T//cc7TiL7h.s 			page 323


 17256      49475200 
 17257              	.LASF715:
 17258 1791 5553425F 		.ascii	"USB_EP0_WAITING_STS\000"
 17258      4550305F 
 17258      57414954 
 17258      494E475F 
 17258      53545300 
 17259              	.LASF113:
 17260 17a5 5F6C3634 		.ascii	"_l64a_buf\000"
 17260      615F6275 
 17260      6600
 17261              	.LASF256:
 17262 17af 52444852 		.ascii	"RDHR\000"
 17262      00
 17263              	.LASF889:
 17264 17b4 77616C6C 		.ascii	"wall1\000"
 17264      3100
 17265              	.LASF890:
 17266 17ba 77616C6C 		.ascii	"wall2\000"
 17266      3200
 17267              	.LASF895:
 17268 17c0 6D6F645F 		.ascii	"mod_mapping_updatePositionWheelSpeedType\000"
 17268      6D617070 
 17268      696E675F 
 17268      75706461 
 17268      7465506F 
 17269              	.LASF565:
 17270 17e9 444D4152 		.ascii	"DMAR\000"
 17270      00
 17271              	.LASF914:
 17272 17ee 6D6F645F 		.ascii	"mod_com_writeMessage\000"
 17272      636F6D5F 
 17272      77726974 
 17272      654D6573 
 17272      73616765 
 17273              	.LASF571:
 17274 1803 63616C6C 		.ascii	"callback\000"
 17274      6261636B 
 17274      00
 17275              	.LASF227:
 17276 180c 63685F73 		.ascii	"ch_system\000"
 17276      79737465 
 17276      6D00
 17277              	.LASF297:
 17278 1816 504F5745 		.ascii	"POWER\000"
 17278      5200
 17279              	.LASF225:
 17280 181c 74726163 		.ascii	"trace_buffer\000"
 17280      655F6275 
 17280      66666572 
 17280      00
 17281              	.LASF894:
 17282 1829 74686574 		.ascii	"thetaWall\000"
 17282      6157616C 
 17282      6C00
 17283              	.LASF892:
 17284 1833 636F6566 		.ascii	"coefsWall2\000"
ARM GAS  /var/folders/qd/4mxf5pkd0zdf0b9dd1hp39180000gn/T//cc7TiL7h.s 			page 324


 17284      7357616C 
 17284      6C3200
 17285              	.LASF105:
 17286 183e 5F617363 		.ascii	"_asctime_buf\000"
 17286      74696D65 
 17286      5F627566 
 17286      00
 17287              	.LASF530:
 17288 184b 4441435F 		.ascii	"DAC_DHRM_8BIT_RIGHT\000"
 17288      4448524D 
 17288      5F384249 
 17288      545F5249 
 17288      47485400 
 17289              	.LASF550:
 17290 185f 4750545F 		.ascii	"GPT_UNINIT\000"
 17290      554E494E 
 17290      495400
 17291              	.LASF22:
 17292 186a 5F5F7763 		.ascii	"__wch\000"
 17292      6800
 17293              	.LASF352:
 17294 1870 63685F73 		.ascii	"ch_semaphore\000"
 17294      656D6170 
 17294      686F7265 
 17294      00
 17295              	.LASF120:
 17296 187d 5F776373 		.ascii	"_wcsrtombs_state\000"
 17296      72746F6D 
 17296      62735F73 
 17296      74617465 
 17296      00
 17297              	.LASF904:
 17298 188e 6D6F7665 		.ascii	"moveOrigin\000"
 17298      4F726967 
 17298      696E00
 17299              	.LASF748:
 17300 1899 44494550 		.ascii	"DIEPTSIZ\000"
 17300      5453495A 
 17300      00
 17301              	.LASF481:
 17302 18a2 736D7072 		.ascii	"smpr1\000"
 17302      3100
 17303              	.LASF482:
 17304 18a8 736D7072 		.ascii	"smpr2\000"
 17304      3200
 17305              	.LASF199:
 17306 18ae 74687265 		.ascii	"threads_queue_t\000"
 17306      6164735F 
 17306      71756575 
 17306      655F7400 
 17307              	.LASF420:
 17308 18be 626C6B73 		.ascii	"blkstate_t\000"
 17308      74617465 
 17308      5F7400
 17309              	.LASF920:
 17310 18c9 5F5F6664 		.ascii	"__fdlibm_version\000"
 17310      6C69626D 
ARM GAS  /var/folders/qd/4mxf5pkd0zdf0b9dd1hp39180000gn/T//cc7TiL7h.s 			page 325


 17310      5F766572 
 17310      73696F6E 
 17310      00
 17311              	.LASF187:
 17312 18da 705F7469 		.ascii	"p_time\000"
 17312      6D6500
 17313              	.LASF185:
 17314 18e1 705F7265 		.ascii	"p_refs\000"
 17314      667300
 17315              	.LASF826:
 17316 18e8 65705F6D 		.ascii	"ep_mode\000"
 17316      6F646500 
 17317              	.LASF629:
 17318 18f0 70776D63 		.ascii	"pwmchannel_t\000"
 17318      68616E6E 
 17318      656C5F74 
 17318      00
 17319              	.LASF251:
 17320 18fd 54444C52 		.ascii	"TDLR\000"
 17320      00
 17321              	.LASF13:
 17322 1902 6C6F6E67 		.ascii	"long int\000"
 17322      20696E74 
 17322      00
 17323              	.LASF230:
 17324 190b 6D61696E 		.ascii	"mainthread\000"
 17324      74687265 
 17324      616400
 17325              	.LASF694:
 17326 1916 6570306E 		.ascii	"ep0n\000"
 17326      00
 17327              	.LASF807:
 17328 191b 72657376 		.ascii	"resvdE04\000"
 17328      64453034 
 17328      00
 17329              	.LASF583:
 17330 1924 69326361 		.ascii	"i2caddr_t\000"
 17330      6464725F 
 17330      7400
 17331              	.LASF112:
 17332 192e 5F776374 		.ascii	"_wctomb_state\000"
 17332      6F6D625F 
 17332      73746174 
 17332      6500
 17333              	.LASF518:
 17334 193c 646D6169 		.ascii	"dmairqprio\000"
 17334      72717072 
 17334      696F00
 17335              	.LASF556:
 17336 1947 47505444 		.ascii	"GPTDriver\000"
 17336      72697665 
 17336      7200
 17337              	.LASF394:
 17338 1951 715F636F 		.ascii	"q_counter\000"
 17338      756E7465 
 17338      7200
 17339              	.LASF448:
ARM GAS  /var/folders/qd/4mxf5pkd0zdf0b9dd1hp39180000gn/T//cc7TiL7h.s 			page 326


 17340 195b 50484461 		.ascii	"PHData\000"
 17340      746100
 17341              	.LASF451:
 17342 1962 696F706F 		.ascii	"ioportid_t\000"
 17342      72746964 
 17342      5F7400
 17343              	.LASF489:
 17344 196d 41444344 		.ascii	"ADCD1\000"
 17344      3100
 17345              	.LASF490:
 17346 1973 41444344 		.ascii	"ADCD2\000"
 17346      3200
 17347              	.LASF491:
 17348 1979 41444344 		.ascii	"ADCD3\000"
 17348      3300
 17349              	.LASF775:
 17350 197f 48434647 		.ascii	"HCFG\000"
 17350      00
 17351              	.LASF474:
 17352 1984 646D616D 		.ascii	"dmamode\000"
 17352      6F646500 
 17353              	.LASF338:
 17354 198c 63756D75 		.ascii	"cumulative\000"
 17354      6C617469 
 17354      766500
 17355              	.LASF98:
 17356 1997 5F696F62 		.ascii	"_iobs\000"
 17356      7300
 17357              	.LASF79:
 17358 199d 5F656D65 		.ascii	"_emergency\000"
 17358      7267656E 
 17358      637900
 17359              	.LASF651:
 17360 19a8 67657474 		.ascii	"gett\000"
 17360      00
 17361              	.LASF348:
 17362 19ad 77747472 		.ascii	"wttrp\000"
 17362      7000
 17363              	.LASF398:
 17364 19b3 715F7264 		.ascii	"q_rdptr\000"
 17364      70747200 
 17365              	.LASF122:
 17366 19bb 5F6E6578 		.ascii	"_nextf\000"
 17366      746600
 17367              	.LASF648:
 17368 19c2 77726974 		.ascii	"write\000"
 17368      6500
 17369              	.LASF108:
 17370 19c8 5F72616E 		.ascii	"_rand_next\000"
 17370      645F6E65 
 17370      787400
 17371              	.LASF644:
 17372 19d3 69717565 		.ascii	"iqueue\000"
 17372      756500
 17373              	.LASF828:
 17374 19da 696E5F63 		.ascii	"in_cb\000"
 17374      6200
ARM GAS  /var/folders/qd/4mxf5pkd0zdf0b9dd1hp39180000gn/T//cc7TiL7h.s 			page 327


 17375              	.LASF753:
 17376 19e0 444F4550 		.ascii	"DOEPINT\000"
 17376      494E5400 
 17377              	.LASF337:
 17378 19e8 6C617374 		.ascii	"last\000"
 17378      00
 17379              	.LASF430:
 17380 19ed 4C434B52 		.ascii	"LCKR\000"
 17380      00
 17381              	.LASF641:
 17382 19f2 73647374 		.ascii	"sdstate_t\000"
 17382      6174655F 
 17382      7400
 17383              	.LASF158:
 17384 19fc 75696E74 		.ascii	"uint32_t\000"
 17384      33325F74 
 17384      00
 17385              	.LASF902:
 17386 1a05 6D746F74 		.ascii	"mtot\000"
 17386      00
 17387              	.LASF515:
 17388 1a0a 64617461 		.ascii	"dataoffset\000"
 17388      6F666673 
 17388      657400
 17389              	.LASF31:
 17390 1a15 5F6D6178 		.ascii	"_maxwds\000"
 17390      77647300 
 17391              	.LASF418:
 17392 1a1d 424C4B5F 		.ascii	"BLK_WRITING\000"
 17392      57524954 
 17392      494E4700 
 17393              	.LASF255:
 17394 1a29 52444C52 		.ascii	"RDLR\000"
 17394      00
 17395              	.LASF144:
 17396 1a2e 7472616E 		.ascii	"translation\000"
 17396      736C6174 
 17396      696F6E00 
 17397              	.LASF868:
 17398 1a3a 746F5365 		.ascii	"toSend\000"
 17398      6E6400
 17399              	.LASF3:
 17400 1a41 6C6F6E67 		.ascii	"long double\000"
 17400      20646F75 
 17400      626C6500 
 17401              	.LASF320:
 17402 1a4d 72656761 		.ascii	"regarm_t\000"
 17402      726D5F74 
 17402      00
 17403              	.LASF168:
 17404 1a56 6576656E 		.ascii	"eventmask_t\000"
 17404      746D6173 
 17404      6B5F7400 
 17405              	.LASF469:
 17406 1a62 64657074 		.ascii	"depth\000"
 17406      6800
 17407              	.LASF141:
ARM GAS  /var/folders/qd/4mxf5pkd0zdf0b9dd1hp39180000gn/T//cc7TiL7h.s 			page 328


 17408 1a68 706F7369 		.ascii	"position\000"
 17408      74696F6E 
 17408      00
 17409              	.LASF269:
 17410 1a71 46464131 		.ascii	"FFA1R\000"
 17410      5200
 17411              	.LASF260:
 17412 1a77 52463152 		.ascii	"RF1R\000"
 17412      00
 17413              	.LASF709:
 17414 1a7c 5553425F 		.ascii	"USB_SELECTED\000"
 17414      53454C45 
 17414      43544544 
 17414      00
 17415              	.LASF495:
 17416 1a89 43414E5F 		.ascii	"CAN_READY\000"
 17416      52454144 
 17416      5900
 17417              	.LASF15:
 17418 1a93 6C6F6E67 		.ascii	"long unsigned int\000"
 17418      20756E73 
 17418      69676E65 
 17418      6420696E 
 17418      7400
 17419              	.LASF921:
 17420 1aa5 67657450 		.ascii	"getPathTo\000"
 17420      61746854 
 17420      6F00
 17421              	.LASF608:
 17422 1aaf 4932535F 		.ascii	"I2S_ACTIVE\000"
 17422      41435449 
 17422      564500
 17423              	.LASF552:
 17424 1aba 4750545F 		.ascii	"GPT_READY\000"
 17424      52454144 
 17424      5900
 17425              	.LASF514:
 17426 1ac4 64616373 		.ascii	"dacstate_t\000"
 17426      74617465 
 17426      5F7400
 17427              	.LASF325:
 17428 1acf 73655F74 		.ascii	"se_tp\000"
 17428      7000
 17429              	.LASF397:
 17430 1ad5 715F7772 		.ascii	"q_wrptr\000"
 17430      70747200 
 17431              	.LASF522:
 17432 1add 64616373 		.ascii	"dacsample_t\000"
 17432      616D706C 
 17432      655F7400 
 17433              	.LASF721:
 17434 1ae9 5553425F 		.ascii	"USB_EVENT_ADDRESS\000"
 17434      4556454E 
 17434      545F4144 
 17434      44524553 
 17434      5300
 17435              	.LASF616:
ARM GAS  /var/folders/qd/4mxf5pkd0zdf0b9dd1hp39180000gn/T//cc7TiL7h.s 			page 329


 17436 1afb 69327363 		.ascii	"i2scfgr\000"
 17436      66677200 
 17437              	.LASF299:
 17438 1b03 52455350 		.ascii	"RESPCMD\000"
 17438      434D4400 
 17439              	.LASF501:
 17440 1b0b 72786675 		.ascii	"rxfull_event\000"
 17440      6C6C5F65 
 17440      76656E74 
 17440      00
 17441              	.LASF502:
 17442 1b18 7478656D 		.ascii	"txempty_event\000"
 17442      7074795F 
 17442      6576656E 
 17442      7400
 17443              	.LASF726:
 17444 1b26 75736265 		.ascii	"usbevent_t\000"
 17444      76656E74 
 17444      5F7400
 17445              	.LASF64:
 17446 1b31 5F636C6F 		.ascii	"_close\000"
 17446      736500
 17447              	.LASF28:
 17448 1b38 63686172 		.ascii	"char\000"
 17448      00
 17449              	.LASF498:
 17450 1b3d 43414E43 		.ascii	"CANConfig\000"
 17450      6F6E6669 
 17450      6700
 17451              	.LASF445:
 17452 1b47 50454461 		.ascii	"PEData\000"
 17452      746100
 17453              	.LASF203:
 17454 1b4e 725F7175 		.ascii	"r_queue\000"
 17454      65756500 
 17455              	.LASF96:
 17456 1b56 5F676C75 		.ascii	"_glue\000"
 17456      6500
 17457              	.LASF666:
 17458 1b5c 53444343 		.ascii	"SDCConfig\000"
 17458      6F6E6669 
 17458      6700
 17459              	.LASF626:
 17460 1b66 656E6162 		.ascii	"enabled\000"
 17460      6C656400 
 17461              	.LASF523:
 17462 1b6e 4441435F 		.ascii	"DAC_ERR_DMAFAILURE\000"
 17462      4552525F 
 17462      444D4146 
 17462      41494C55 
 17462      524500
 17463              	.LASF765:
 17464 1b81 47525846 		.ascii	"GRXFSIZ\000"
 17464      53495A00 
 17465              	.LASF672:
 17466 1b89 73796E63 		.ascii	"sync\000"
 17466      00
ARM GAS  /var/folders/qd/4mxf5pkd0zdf0b9dd1hp39180000gn/T//cc7TiL7h.s 			page 330


 17467              	.LASF646:
 17468 1b8e 75736172 		.ascii	"usart\000"
 17468      7400
 17469              	.LASF888:
 17470 1b94 7461626C 		.ascii	"table\000"
 17470      6500
 17471              	.LASF658:
 17472 1b9a 7364636D 		.ascii	"sdcmode_t\000"
 17472      6F64655F 
 17472      7400
 17473              	.LASF400:
 17474 1ba4 715F6C69 		.ascii	"q_link\000"
 17474      6E6B00
 17475              	.LASF147:
 17476 1bab 6E656172 		.ascii	"nearWall\000"
 17476      57616C6C 
 17476      00
 17477              	.LASF916:
 17478 1bb4 7265616C 		.ascii	"realloc\000"
 17478      6C6F6300 
 17479              	.LASF786:
 17480 1bbc 44434647 		.ascii	"DCFG\000"
 17480      00
 17481              	.LASF34:
 17482 1bc1 5F426967 		.ascii	"_Bigint\000"
 17482      696E7400 
 17483              	.LASF796:
 17484 1bc9 44564255 		.ascii	"DVBUSDIS\000"
 17484      53444953 
 17484      00
 17485              	.LASF762:
 17486 1bd2 47494E54 		.ascii	"GINTMSK\000"
 17486      4D534B00 
 17487              	.LASF767:
 17488 1bda 484E5054 		.ascii	"HNPTXSTS\000"
 17488      58535453 
 17488      00
 17489              	.LASF699:
 17490 1be3 636F6E66 		.ascii	"configuration\000"
 17490      69677572 
 17490      6174696F 
 17490      6E00
 17491              	.LASF91:
 17492 1bf1 5F617465 		.ascii	"_atexit0\000"
 17492      78697430 
 17492      00
 17493              	.LASF440:
 17494 1bfa 73746D33 		.ascii	"stm32_gpio_setup_t\000"
 17494      325F6770 
 17494      696F5F73 
 17494      65747570 
 17494      5F7400
 17495              	.LASF905:
 17496 1c0d 6D656173 		.ascii	"measurementToPoint\000"
 17496      7572656D 
 17496      656E7454 
 17496      6F506F69 
ARM GAS  /var/folders/qd/4mxf5pkd0zdf0b9dd1hp39180000gn/T//cc7TiL7h.s 			page 331


 17496      6E7400
 17497              	.LASF410:
 17498 1c20 5F73746D 		.ascii	"_stm32_dma_streams\000"
 17498      33325F64 
 17498      6D615F73 
 17498      74726561 
 17498      6D7300
 17499              	.LASF277:
 17500 1c33 44485231 		.ascii	"DHR12L1\000"
 17500      324C3100 
 17501              	.LASF280:
 17502 1c3b 44485231 		.ascii	"DHR12L2\000"
 17502      324C3200 
 17503              	.LASF908:
 17504 1c43 6E657750 		.ascii	"newPosition\000"
 17504      6F736974 
 17504      696F6E00 
 17505              	.LASF115:
 17506 1c4f 5F676574 		.ascii	"_getdate_err\000"
 17506      64617465 
 17506      5F657272 
 17506      00
 17507              	.LASF657:
 17508 1c5c 73646362 		.ascii	"sdcbusmode_t\000"
 17508      75736D6F 
 17508      64655F74 
 17508      00
 17509              	.LASF283:
 17510 1c69 44485231 		.ascii	"DHR12LD\000"
 17510      324C4400 
 17511              	.LASF231:
 17512 1c71 6B65726E 		.ascii	"kernel_stats\000"
 17512      656C5F73 
 17512      74617473 
 17512      00
 17513              	.LASF475:
 17514 1c7e 61646363 		.ascii	"adccallback_t\000"
 17514      616C6C62 
 17514      61636B5F 
 17514      7400
 17515              	.LASF182:
 17516 1c8c 705F7374 		.ascii	"p_stklimit\000"
 17516      6B6C696D 
 17516      697400
 17517              	.LASF170:
 17518 1c97 636E745F 		.ascii	"cnt_t\000"
 17518      7400
 17519              	.LASF541:
 17520 1c9d 65787473 		.ascii	"extstate_t\000"
 17520      74617465 
 17520      5F7400
 17521              	.LASF714:
 17522 1ca8 5553425F 		.ascii	"USB_EP0_WAITING_TX0\000"
 17522      4550305F 
 17522      57414954 
 17522      494E475F 
 17522      54583000 
ARM GAS  /var/folders/qd/4mxf5pkd0zdf0b9dd1hp39180000gn/T//cc7TiL7h.s 			page 332


 17523              	.LASF693:
 17524 1cbc 6570306E 		.ascii	"ep0next\000"
 17524      65787400 
 17525              	.LASF743:
 17526 1cc4 73746D33 		.ascii	"stm32_otg_host_chn_t\000"
 17526      325F6F74 
 17526      675F686F 
 17526      73745F63 
 17526      686E5F74 
 17527              	.LASF432:
 17528 1cd9 41465248 		.ascii	"AFRH\000"
 17528      00
 17529              	.LASF431:
 17530 1cde 4146524C 		.ascii	"AFRL\000"
 17530      00
 17531              	.LASF918:
 17532 1ce3 2E2F6D6F 		.ascii	"./modules/mod_mapping.c\000"
 17532      64756C65 
 17532      732F6D6F 
 17532      645F6D61 
 17532      7070696E 
 17533              	.LASF127:
 17534 1cfb 5F696D70 		.ascii	"_impure_ptr\000"
 17534      7572655F 
 17534      70747200 
 17535              	.LASF376:
 17536 1d07 63665F6F 		.ascii	"cf_off_preempt\000"
 17536      66665F70 
 17536      7265656D 
 17536      707400
 17537              	.LASF512:
 17538 1d16 4441435F 		.ascii	"DAC_COMPLETE\000"
 17538      434F4D50 
 17538      4C455445 
 17538      00
 17539              	.LASF67:
 17540 1d23 5F626C6B 		.ascii	"_blksize\000"
 17540      73697A65 
 17540      00
 17541              	.LASF738:
 17542 1d2c 4843494E 		.ascii	"HCINTMSK\000"
 17542      544D534B 
 17542      00
 17543              	.LASF65:
 17544 1d35 5F756275 		.ascii	"_ubuf\000"
 17544      6600
 17545              	.LASF467:
 17546 1d3b 636F6E66 		.ascii	"config\000"
 17546      696700
 17547              	.LASF575:
 17548 1d42 47505444 		.ascii	"GPTD11\000"
 17548      313100
 17549              	.LASF110:
 17550 1d49 5F6D626C 		.ascii	"_mblen_state\000"
 17550      656E5F73 
 17550      74617465 
 17550      00
ARM GAS  /var/folders/qd/4mxf5pkd0zdf0b9dd1hp39180000gn/T//cc7TiL7h.s 			page 333


 17551              	.LASF93:
 17552 1d56 5F5F7367 		.ascii	"__sglue\000"
 17552      6C756500 
 17553              	.LASF126:
 17554 1d5e 5F5F6C6F 		.ascii	"__locale_t\000"
 17554      63616C65 
 17554      5F7400
 17555              	.LASF414:
 17556 1d69 424C4B5F 		.ascii	"BLK_CONNECTING\000"
 17556      434F4E4E 
 17556      45435449 
 17556      4E4700
 17557              	.LASF83:
 17558 1d78 5F5F636C 		.ascii	"__cleanup\000"
 17558      65616E75 
 17558      7000
 17559              	.LASF508:
 17560 1d82 4441435F 		.ascii	"DAC_UNINIT\000"
 17560      554E494E 
 17560      495400
 17561              	.LASF867:
 17562 1d8d 6E657741 		.ascii	"newAngle\000"
 17562      6E676C65 
 17562      00
 17563              	.LASF461:
 17564 1d96 6164635F 		.ascii	"adc_channels_num_t\000"
 17564      6368616E 
 17564      6E656C73 
 17564      5F6E756D 
 17564      5F7400
 17565              	.LASF209:
 17566 1da9 76746675 		.ascii	"vtfunc_t\000"
 17566      6E635F74 
 17566      00
 17567              	.LASF257:
 17568 1db2 43414E5F 		.ascii	"CAN_FIFOMailBox_TypeDef\000"
 17568      4649464F 
 17568      4D61696C 
 17568      426F785F 
 17568      54797065 
 17569              	.LASF287:
 17570 1dca 4441435F 		.ascii	"DAC_TypeDef\000"
 17570      54797065 
 17570      44656600 
 17571              	.LASF347:
 17572 1dd6 77746F62 		.ascii	"wtobjp\000"
 17572      6A7000
 17573              	.LASF20:
 17574 1ddd 5F66706F 		.ascii	"_fpos_t\000"
 17574      735F7400 
 17575              	.LASF528:
 17576 1de5 4441435F 		.ascii	"DAC_DHRM_12BIT_RIGHT\000"
 17576      4448524D 
 17576      5F313242 
 17576      49545F52 
 17576      49474854 
 17577              	.LASF58:
ARM GAS  /var/folders/qd/4mxf5pkd0zdf0b9dd1hp39180000gn/T//cc7TiL7h.s 			page 334


 17578 1dfa 5F66696C 		.ascii	"_file\000"
 17578      6500
 17579              	.LASF193:
 17580 1e00 705F7265 		.ascii	"p_realprio\000"
 17580      616C7072 
 17580      696F00
 17581              	.LASF661:
 17582 1e0b 63617061 		.ascii	"capacity\000"
 17582      63697479 
 17582      00
 17583              	.LASF399:
 17584 1e14 715F6E6F 		.ascii	"q_notify\000"
 17584      74696679 
 17584      00
 17585              	.LASF350:
 17586 1e1d 77746D74 		.ascii	"wtmtxp\000"
 17586      787000
 17587              	.LASF56:
 17588 1e24 5F5F7346 		.ascii	"__sFILE\000"
 17588      494C4500 
 17589              	.LASF0:
 17590 1e2c 646F7562 		.ascii	"double\000"
 17590      6C6500
 17591              	.LASF52:
 17592 1e33 5F666E73 		.ascii	"_fns\000"
 17592      00
 17593              	.LASF825:
 17594 1e38 5553424F 		.ascii	"USBOutEndpointState\000"
 17594      7574456E 
 17594      64706F69 
 17594      6E745374 
 17594      61746500 
 17595              	.LASF782:
 17596 1e4c 72657376 		.ascii	"resvd41C\000"
 17596      64343143 
 17596      00
 17597              	.LASF26:
 17598 1e55 5F6D6273 		.ascii	"_mbstate_t\000"
 17598      74617465 
 17598      5F7400
 17599              	.LASF121:
 17600 1e60 5F685F65 		.ascii	"_h_errno\000"
 17600      72726E6F 
 17600      00
 17601              	.LASF254:
 17602 1e69 52445452 		.ascii	"RDTR\000"
 17602      00
 17603              	.LASF875:
 17604 1e6e 6D6F645F 		.ascii	"mod_map_saveWall\000"
 17604      6D61705F 
 17604      73617665 
 17604      57616C6C 
 17604      00
 17605              	.LASF422:
 17606 1e7f 626C6B5F 		.ascii	"blk_num\000"
 17606      6E756D00 
 17607              	.LASF720:
ARM GAS  /var/folders/qd/4mxf5pkd0zdf0b9dd1hp39180000gn/T//cc7TiL7h.s 			page 335


 17608 1e87 5553425F 		.ascii	"USB_EVENT_RESET\000"
 17608      4556454E 
 17608      545F5245 
 17608      53455400 
 17609              	.LASF202:
 17610 1e97 63685F72 		.ascii	"ch_ready_list\000"
 17610      65616479 
 17610      5F6C6973 
 17610      7400
 17611              	.LASF428:
 17612 1ea5 50555044 		.ascii	"PUPDR\000"
 17612      5200
 17613              	.LASF12:
 17614 1eab 5F5F696E 		.ascii	"__int32_t\000"
 17614      7433325F 
 17614      7400
 17615              	.LASF14:
 17616 1eb5 5F5F7569 		.ascii	"__uint32_t\000"
 17616      6E743332 
 17616      5F7400
 17617              	.LASF221:
 17618 1ec0 63685F73 		.ascii	"ch_system_debug\000"
 17618      79737465 
 17618      6D5F6465 
 17618      62756700 
 17619              	.LASF793:
 17620 1ed0 4441494E 		.ascii	"DAINTMSK\000"
 17620      544D534B 
 17620      00
 17621              	.LASF548:
 17622 1ed9 45585443 		.ascii	"EXTConfig\000"
 17622      6F6E6669 
 17622      6700
 17623              	.LASF25:
 17624 1ee3 5F5F7661 		.ascii	"__value\000"
 17624      6C756500 
 17625              	.LASF712:
 17626 1eeb 5553425F 		.ascii	"USB_EP0_WAITING_SETUP\000"
 17626      4550305F 
 17626      57414954 
 17626      494E475F 
 17626      53455455 
 17627              	.LASF49:
 17628 1f01 5F69735F 		.ascii	"_is_cxa\000"
 17628      63786100 
 17629              	.LASF417:
 17630 1f09 424C4B5F 		.ascii	"BLK_READING\000"
 17630      52454144 
 17630      494E4700 
 17631              	.LASF438:
 17632 1f15 6166726C 		.ascii	"afrl\000"
 17632      00
 17633              	.LASF815:
 17634 1f1a 71756575 		.ascii	"queue\000"
 17634      6500
 17635              	.LASF695:
 17636 1f20 65703065 		.ascii	"ep0endcb\000"
ARM GAS  /var/folders/qd/4mxf5pkd0zdf0b9dd1hp39180000gn/T//cc7TiL7h.s 			page 336


 17636      6E646362 
 17636      00
 17637              	.LASF407:
 17638 1f29 73656C66 		.ascii	"selfindex\000"
 17638      696E6465 
 17638      7800
 17639              	.LASF380:
 17640 1f33 6D757465 		.ascii	"mutex_t\000"
 17640      785F7400 
 17641              	.LASF86:
 17642 1f3b 5F703573 		.ascii	"_p5s\000"
 17642      00
 17643              	.LASF191:
 17644 1f40 705F6570 		.ascii	"p_epending\000"
 17644      656E6469 
 17644      6E6700
 17645              	.LASF425:
 17646 1f4b 4D4F4445 		.ascii	"MODER\000"
 17646      5200
 17647              	.LASF852:
 17648 1f51 726F626F 		.ascii	"robotActualPosition\000"
 17648      74416374 
 17648      75616C50 
 17648      6F736974 
 17648      696F6E00 
 17649              	.LASF609:
 17650 1f65 4932535F 		.ascii	"I2S_COMPLETE\000"
 17650      434F4D50 
 17650      4C455445 
 17650      00
 17651              	.LASF135:
 17652 1f72 6C656674 		.ascii	"left\000"
 17652      00
 17653              	.LASF261:
 17654 1f77 52455345 		.ascii	"RESERVED0\000"
 17654      52564544 
 17654      3000
 17655              	.LASF264:
 17656 1f81 52455345 		.ascii	"RESERVED1\000"
 17656      52564544 
 17656      3100
 17657              	.LASF266:
 17658 1f8b 52455345 		.ascii	"RESERVED2\000"
 17658      52564544 
 17658      3200
 17659              	.LASF268:
 17660 1f95 52455345 		.ascii	"RESERVED3\000"
 17660      52564544 
 17660      3300
 17661              	.LASF270:
 17662 1f9f 52455345 		.ascii	"RESERVED4\000"
 17662      52564544 
 17662      3400
 17663              	.LASF272:
 17664 1fa9 52455345 		.ascii	"RESERVED5\000"
 17664      52564544 
 17664      3500
ARM GAS  /var/folders/qd/4mxf5pkd0zdf0b9dd1hp39180000gn/T//cc7TiL7h.s 			page 337


 17665              	.LASF836:
 17666 1fb3 55534245 		.ascii	"USBEndpointConfig\000"
 17666      6E64706F 
 17666      696E7443 
 17666      6F6E6669 
 17666      6700
 17667              	.LASF276:
 17668 1fc5 44485231 		.ascii	"DHR12R1\000"
 17668      32523100 
 17669              	.LASF279:
 17670 1fcd 44485231 		.ascii	"DHR12R2\000"
 17670      32523200 
 17671              	.LASF544:
 17672 1fd5 65787463 		.ascii	"extcallback_t\000"
 17672      616C6C62 
 17672      61636B5F 
 17672      7400
 17673              	.LASF500:
 17674 1fe3 72787175 		.ascii	"rxqueue\000"
 17674      65756500 
 17675              	.LASF324:
 17676 1feb 73655F74 		.ascii	"se_time\000"
 17676      696D6500 
 17677              	.LASF784:
 17678 1ff3 72657376 		.ascii	"resvd444\000"
 17678      64343434 
 17678      00
 17679              	.LASF452:
 17680 1ffc 70616C5F 		.ascii	"pal_default_config\000"
 17680      64656661 
 17680      756C745F 
 17680      636F6E66 
 17680      696700
 17681              	.LASF846:
 17682 200f 6F626A65 		.ascii	"objectList\000"
 17682      63744C69 
 17682      737400
 17683              	.LASF470:
 17684 201a 67727070 		.ascii	"grpp\000"
 17684      00
 17685              	.LASF282:
 17686 201f 44485231 		.ascii	"DHR12RD\000"
 17686      32524400 
 17687              	.LASF384:
 17688 2027 656C5F6C 		.ascii	"el_listener\000"
 17688      69737465 
 17688      6E657200 
 17689              	.LASF814:
 17690 2033 6C696E65 		.ascii	"linear\000"
 17690      617200
 17691              	.LASF568:
 17692 203a 73746D33 		.ascii	"stm32_tim_t\000"
 17692      325F7469 
 17692      6D5F7400 
 17693              	.LASF204:
 17694 2046 725F7072 		.ascii	"r_prio\000"
 17694      696F00
ARM GAS  /var/folders/qd/4mxf5pkd0zdf0b9dd1hp39180000gn/T//cc7TiL7h.s 			page 338


 17695              	.LASF701:
 17696 204d 706D6E65 		.ascii	"pmnext\000"
 17696      787400
 17697              	.LASF233:
 17698 2054 49544D5F 		.ascii	"ITM_RxBuffer\000"
 17698      52784275 
 17698      66666572 
 17698      00
 17699              	.LASF861:
 17700 2061 706F696E 		.ascii	"point1\000"
 17700      743100
 17701              	.LASF862:
 17702 2068 706F696E 		.ascii	"point2\000"
 17702      743200
 17703              	.LASF423:
 17704 206f 426C6F63 		.ascii	"BlockDeviceInfo\000"
 17704      6B446576 
 17704      69636549 
 17704      6E666F00 
 17705              	.LASF17:
 17706 207f 6C6F6E67 		.ascii	"long long unsigned int\000"
 17706      206C6F6E 
 17706      6720756E 
 17706      7369676E 
 17706      65642069 
 17707              	.LASF311:
 17708 2096 5344494F 		.ascii	"SDIO_TypeDef\000"
 17708      5F547970 
 17708      65446566 
 17708      00
 17709              	.LASF333:
 17710 20a3 6F666673 		.ascii	"offset\000"
 17710      657400
 17711              	.LASF686:
 17712 20aa 53504944 		.ascii	"SPID1\000"
 17712      3100
 17713              	.LASF288:
 17714 20b0 4E445452 		.ascii	"NDTR\000"
 17714      00
 17715              	.LASF389:
 17716 20b5 65735F6E 		.ascii	"es_next\000"
 17716      65787400 
 17717              	.LASF107:
 17718 20bd 5F67616D 		.ascii	"_gamma_signgam\000"
 17718      6D615F73 
 17718      69676E67 
 17718      616D00
 17719              	.LASF750:
 17720 20cc 72657376 		.ascii	"resvd1C\000"
 17720      64314300 
 17721              	.LASF232:
 17722 20d4 69646C65 		.ascii	"idle_thread_wa\000"
 17722      5F746872 
 17722      6561645F 
 17722      776100
 17723              	.LASF746:
 17724 20e3 44494550 		.ascii	"DIEPINT\000"
ARM GAS  /var/folders/qd/4mxf5pkd0zdf0b9dd1hp39180000gn/T//cc7TiL7h.s 			page 339


 17724      494E5400 
 17725              	.LASF874:
 17726 20eb 6D6F7665 		.ascii	"movementAngle\000"
 17726      6D656E74 
 17726      416E676C 
 17726      6500
 17727              	.LASF317:
 17728 20f9 5350495F 		.ascii	"SPI_TypeDef\000"
 17728      54797065 
 17728      44656600 
 17729              	.LASF215:
 17730 2105 76745F66 		.ascii	"vt_func\000"
 17730      756E6300 
 17731              	.LASF559:
 17732 210d 534D4352 		.ascii	"SMCR\000"
 17732      00
 17733              	.LASF872:
 17734 2112 64656C74 		.ascii	"deltaX\000"
 17734      615800
 17735              	.LASF791:
 17736 2119 444F4550 		.ascii	"DOEPMSK\000"
 17736      4D534B00 
 17737              	.LASF211:
 17738 2121 63685F76 		.ascii	"ch_virtual_timer\000"
 17738      69727475 
 17738      616C5F74 
 17738      696D6572 
 17738      00
 17739              	.LASF184:
 17740 2132 705F666C 		.ascii	"p_flags\000"
 17740      61677300 
 17741              	.LASF351:
 17742 213a 65776D61 		.ascii	"ewmask\000"
 17742      736B00
 17743              	.LASF386:
 17744 2141 656C5F66 		.ascii	"el_flags\000"
 17744      6C616773 
 17744      00
 17745              	.LASF388:
 17746 214a 6576656E 		.ascii	"event_source\000"
 17746      745F736F 
 17746      75726365 
 17746      00
 17747              	.LASF192:
 17748 2157 705F6D74 		.ascii	"p_mtxlist\000"
 17748      786C6973 
 17748      7400
 17749              	.LASF148:
 17750 2161 6E756D62 		.ascii	"numberOfnewObjects\000"
 17750      65724F66 
 17750      6E65774F 
 17750      626A6563 
 17750      747300
 17751              	.LASF507:
 17752 2174 43414E44 		.ascii	"CAND1\000"
 17752      3100
 17753              	.LASF267:
ARM GAS  /var/folders/qd/4mxf5pkd0zdf0b9dd1hp39180000gn/T//cc7TiL7h.s 			page 340


 17754 217a 46533152 		.ascii	"FS1R\000"
 17754      00
 17755              	.LASF907:
 17756 217f 6C617374 		.ascii	"lastPosition\000"
 17756      506F7369 
 17756      74696F6E 
 17756      00
 17757              	.LASF163:
 17758 218c 74737461 		.ascii	"tstate_t\000"
 17758      74655F74 
 17758      00
 17759              	.LASF128:
 17760 2195 5F676C6F 		.ascii	"_global_impure_ptr\000"
 17760      62616C5F 
 17760      696D7075 
 17760      72655F70 
 17760      747200
 17761              	.LASF792:
 17762 21a8 4441494E 		.ascii	"DAINT\000"
 17762      5400
 17763              	.LASF685:
 17764 21ae 53504943 		.ascii	"SPIConfig\000"
 17764      6F6E6669 
 17764      6700
 17765              	.LASF80:
 17766 21b8 5F756E73 		.ascii	"_unspecified_locale_info\000"
 17766      70656369 
 17766      66696564 
 17766      5F6C6F63 
 17766      616C655F 
 17767              	.LASF437:
 17768 21d1 70757064 		.ascii	"pupdr\000"
 17768      7200
 17769              	.LASF527:
 17770 21d7 64616365 		.ascii	"dacerrorcallback_t\000"
 17770      72726F72 
 17770      63616C6C 
 17770      6261636B 
 17770      5F7400
 17771              	.LASF688:
 17772 21ea 7472616E 		.ascii	"transmitting\000"
 17772      736D6974 
 17772      74696E67 
 17772      00
 17773              	.LASF547:
 17774 21f7 6368616E 		.ascii	"channels\000"
 17774      6E656C73 
 17774      00
 17775              	.LASF298:
 17776 2200 434C4B43 		.ascii	"CLKCR\000"
 17776      5200
 17777              	.LASF915:
 17778 2206 6174616E 		.ascii	"atan\000"
 17778      00
 17779              	.LASF660:
 17780 220b 53444344 		.ascii	"SDCDriver\000"
 17780      72697665 
ARM GAS  /var/folders/qd/4mxf5pkd0zdf0b9dd1hp39180000gn/T//cc7TiL7h.s 			page 341


 17780      7200
 17781              	.LASF181:
 17782 2215 705F6E61 		.ascii	"p_name\000"
 17782      6D6500
 17783              	.LASF82:
 17784 221c 5F5F7364 		.ascii	"__sdidinit\000"
 17784      6964696E 
 17784      697400
 17785              	.LASF642:
 17786 2227 53657269 		.ascii	"SerialDriver\000"
 17786      616C4472 
 17786      69766572 
 17786      00
 17787              	.LASF245:
 17788 2234 4A445231 		.ascii	"JDR1\000"
 17788      00
 17789              	.LASF133:
 17790 2239 5F5F6664 		.ascii	"__fdlibm_posix\000"
 17790      6C69626D 
 17790      5F706F73 
 17790      697800
 17791              	.LASF247:
 17792 2248 4A445233 		.ascii	"JDR3\000"
 17792      00
 17793              	.LASF248:
 17794 224d 4A445234 		.ascii	"JDR4\000"
 17794      00
 17795              	.LASF754:
 17796 2252 444F4550 		.ascii	"DOEPTSIZ\000"
 17796      5453495A 
 17796      00
 17797              	.LASF455:
 17798 225b 4144435F 		.ascii	"ADC_READY\000"
 17798      52454144 
 17798      5900
 17799              	.LASF368:
 17800 2265 63665F6F 		.ascii	"cf_off_ctx\000"
 17800      66665F63 
 17800      747800
 17801              	.LASF27:
 17802 2270 5F666C6F 		.ascii	"_flock_t\000"
 17802      636B5F74 
 17802      00
 17803              	.LASF217:
 17804 2279 76697274 		.ascii	"virtual_timers_list_t\000"
 17804      75616C5F 
 17804      74696D65 
 17804      72735F6C 
 17804      6973745F 
 17805              	.LASF778:
 17806 228f 72657376 		.ascii	"resvd40C\000"
 17806      64343043 
 17806      00
 17807              	.LASF477:
 17808 2298 63697263 		.ascii	"circular\000"
 17808      756C6172 
 17808      00
ARM GAS  /var/folders/qd/4mxf5pkd0zdf0b9dd1hp39180000gn/T//cc7TiL7h.s 			page 342


 17809              	.LASF610:
 17810 22a1 69327373 		.ascii	"i2sstate_t\000"
 17810      74617465 
 17810      5F7400
 17811              	.LASF434:
 17812 22ac 6D6F6465 		.ascii	"moder\000"
 17812      7200
 17813              	.LASF850:
 17814 22b2 6E756D62 		.ascii	"numberOfMeasurements\000"
 17814      65724F66 
 17814      4D656173 
 17814      7572656D 
 17814      656E7473 
 17815              	.LASF681:
 17816 22c7 53504944 		.ascii	"SPIDriver\000"
 17816      72697665 
 17816      7200
 17817              	.LASF353:
 17818 22d1 735F7175 		.ascii	"s_queue\000"
 17818      65756500 
 17819              	.LASF342:
 17820 22d9 6D5F6372 		.ascii	"m_crit_thd\000"
 17820      69745F74 
 17820      686400
 17821              	.LASF509:
 17822 22e4 4441435F 		.ascii	"DAC_STOP\000"
 17822      53544F50 
 17822      00
 17823              	.LASF785:
 17824 22ed 72657376 		.ascii	"resvd700\000"
 17824      64373030 
 17824      00
 17825              	.LASF315:
 17826 22f6 49325343 		.ascii	"I2SCFGR\000"
 17826      46475200 
 17827              	.LASF360:
 17828 22fe 63685F69 		.ascii	"ch_identifier\000"
 17828      64656E74 
 17828      69666965 
 17828      7200
 17829              	.LASF652:
 17830 230c 77726974 		.ascii	"writet\000"
 17830      657400
 17831              	.LASF2:
 17832 2313 6C6F6E67 		.ascii	"long long int\000"
 17832      206C6F6E 
 17832      6720696E 
 17832      7400
 17833              	.LASF772:
 17834 2321 48505458 		.ascii	"HPTXFSIZ\000"
 17834      4653495A 
 17834      00
 17835              	.LASF367:
 17836 232a 63665F6F 		.ascii	"cf_off_prio\000"
 17836      66665F70 
 17836      72696F00 
 17837              	.LASF72:
ARM GAS  /var/folders/qd/4mxf5pkd0zdf0b9dd1hp39180000gn/T//cc7TiL7h.s 			page 343


 17838 2336 5F666C61 		.ascii	"_flags2\000"
 17838      67733200 
 17839              	.LASF339:
 17840 233e 74696D65 		.ascii	"time_measurement_t\000"
 17840      5F6D6561 
 17840      73757265 
 17840      6D656E74 
 17840      5F7400
 17841              	.LASF673:
 17842 2351 6765745F 		.ascii	"get_info\000"
 17842      696E666F 
 17842      00
 17843              	.LASF464:
 17844 235a 61646365 		.ascii	"adcerror_t\000"
 17844      72726F72 
 17844      5F7400
 17845              	.LASF838:
 17846 2365 6765745F 		.ascii	"get_descriptor_cb\000"
 17846      64657363 
 17846      72697074 
 17846      6F725F63 
 17846      6200
 17847              	.LASF81:
 17848 2377 5F6C6F63 		.ascii	"_locale\000"
 17848      616C6500 
 17849              	.LASF169:
 17850 237f 6576656E 		.ascii	"eventflags_t\000"
 17850      74666C61 
 17850      67735F74 
 17850      00
 17851              	.LASF677:
 17852 238c 5350495F 		.ascii	"SPI_READY\000"
 17852      52454144 
 17852      5900
 17853              	.LASF263:
 17854 2396 73464946 		.ascii	"sFIFOMailBox\000"
 17854      4F4D6169 
 17854      6C426F78 
 17854      00
 17855              	.LASF665:
 17856 23a3 6275735F 		.ascii	"bus_width\000"
 17856      77696474 
 17856      6800
 17857              	.LASF284:
 17858 23ad 44485238 		.ascii	"DHR8RD\000"
 17858      524400
 17859              	.LASF787:
 17860 23b4 4443544C 		.ascii	"DCTL\000"
 17860      00
 17861              	.LASF667:
 17862 23b9 53444344 		.ascii	"SDCDriverVMT\000"
 17862      72697665 
 17862      72564D54 
 17862      00
 17863              	.LASF813:
 17864 23c6 74786275 		.ascii	"txbuf\000"
 17864      6600
ARM GAS  /var/folders/qd/4mxf5pkd0zdf0b9dd1hp39180000gn/T//cc7TiL7h.s 			page 344


 17865              	.LASF806:
 17866 23cc 50434743 		.ascii	"PCGCCTL\000"
 17866      43544C00 
 17867              	.LASF724:
 17868 23d4 5553425F 		.ascii	"USB_EVENT_WAKEUP\000"
 17868      4556454E 
 17868      545F5741 
 17868      4B455550 
 17868      00
 17869              	.LASF180:
 17870 23e5 705F6F6C 		.ascii	"p_older\000"
 17870      64657200 
 17871              	.LASF419:
 17872 23ed 424C4B5F 		.ascii	"BLK_SYNCING\000"
 17872      53594E43 
 17872      494E4700 
 17873              	.LASF449:
 17874 23f9 50494461 		.ascii	"PIData\000"
 17874      746100
 17875              	.LASF835:
 17876 2400 73657475 		.ascii	"setup_buf\000"
 17876      705F6275 
 17876      6600
 17877              	.LASF769:
 17878 240a 72657376 		.ascii	"resvd34\000"
 17878      64333400 
 17879              	.LASF574:
 17880 2412 47505444 		.ascii	"GPTD6\000"
 17880      3600
 17881              	.LASF480:
 17882 2418 6572726F 		.ascii	"error_cb\000"
 17882      725F6362 
 17882      00
 17883              	.LASF415:
 17884 2421 424C4B5F 		.ascii	"BLK_DISCONNECTING\000"
 17884      44495343 
 17884      4F4E4E45 
 17884      4354494E 
 17884      4700
 17885              	.LASF863:
 17886 2433 636F6D70 		.ascii	"computeObjectDistance\000"
 17886      7574654F 
 17886      626A6563 
 17886      74446973 
 17886      74616E63 
 17887              	.LASF683:
 17888 2449 7373706F 		.ascii	"ssport\000"
 17888      727400
 17889              	.LASF196:
 17890 2450 74687265 		.ascii	"thread_reference_t\000"
 17890      61645F72 
 17890      65666572 
 17890      656E6365 
 17890      5F7400
 17891              	.LASF543:
 17892 2463 65787063 		.ascii	"expchannel_t\000"
 17892      68616E6E 
ARM GAS  /var/folders/qd/4mxf5pkd0zdf0b9dd1hp39180000gn/T//cc7TiL7h.s 			page 345


 17892      656C5F74 
 17892      00
 17893              	.LASF689:
 17894 2470 72656365 		.ascii	"receiving\000"
 17894      6976696E 
 17894      6700
 17895              	.LASF95:
 17896 247a 5F5F4649 		.ascii	"__FILE\000"
 17896      4C4500
 17897              	.LASF570:
 17898 2481 66726571 		.ascii	"frequency\000"
 17898      75656E63 
 17898      7900
 17899              	.LASF882:
 17900 248b 44454352 		.ascii	"DECREASING\000"
 17900      45415349 
 17900      4E4700
 17901              	.LASF32:
 17902 2496 5F736967 		.ascii	"_sign\000"
 17902      6E00
 17903              	.LASF832:
 17904 249c 696E5F73 		.ascii	"in_state\000"
 17904      74617465 
 17904      00
 17905              	.LASF891:
 17906 24a5 636F6566 		.ascii	"coefsWall1\000"
 17906      7357616C 
 17906      6C3100
 17907              	.LASF37:
 17908 24b0 5F5F746D 		.ascii	"__tm_min\000"
 17908      5F6D696E 
 17908      00
 17909              	.LASF361:
 17910 24b9 63685F7A 		.ascii	"ch_zero\000"
 17910      65726F00 
 17911              	.LASF590:
 17912 24c1 46415354 		.ascii	"FAST_DUTY_CYCLE_2\000"
 17912      5F445554 
 17912      595F4359 
 17912      434C455F 
 17912      3200
 17913              	.LASF306:
 17914 24d3 44435452 		.ascii	"DCTRL\000"
 17914      4C00
 17915              	.LASF366:
 17916 24d9 63685F74 		.ascii	"ch_threadsize\000"
 17916      68726561 
 17916      6473697A 
 17916      6500
 17917              	.LASF295:
 17918 24e7 464C5452 		.ascii	"FLTR\000"
 17918      00
 17919              	.LASF561:
 17920 24ec 43434D52 		.ascii	"CCMR1\000"
 17920      3100
 17921              	.LASF562:
 17922 24f2 43434D52 		.ascii	"CCMR2\000"
ARM GAS  /var/folders/qd/4mxf5pkd0zdf0b9dd1hp39180000gn/T//cc7TiL7h.s 			page 346


 17922      3200
 17923              	.LASF566:
 17924 24f8 43434D52 		.ascii	"CCMR3\000"
 17924      3300
 17925              	.LASF1:
 17926 24fe 756E7369 		.ascii	"unsigned int\000"
 17926      676E6564 
 17926      20696E74 
 17926      00
 17927              	.LASF484:
 17928 250b 73717232 		.ascii	"sqr2\000"
 17928      00
 17929              	.LASF485:
 17930 2510 73717233 		.ascii	"sqr3\000"
 17930      00
 17931              	.LASF109:
 17932 2515 5F723438 		.ascii	"_r48\000"
 17932      00
 17933              	.LASF776:
 17934 251a 48464952 		.ascii	"HFIR\000"
 17934      00
 17935              	.LASF706:
 17936 251f 5553425F 		.ascii	"USB_UNINIT\000"
 17936      554E494E 
 17936      495400
 17937              	.LASF404:
 17938 252a 73747265 		.ascii	"stream\000"
 17938      616D00
 17939              	.LASF487:
 17940 2531 64756D6D 		.ascii	"dummy\000"
 17940      7900
 17941              	.LASF588:
 17942 2537 6932636F 		.ascii	"i2copmode_t\000"
 17942      706D6F64 
 17942      655F7400 
 17943              	.LASF864:
 17944 2543 6D6F645F 		.ascii	"mod_mapping_getActualPosition\000"
 17944      6D617070 
 17944      696E675F 
 17944      67657441 
 17944      63747561 
 17945              	.LASF382:
 17946 2561 6576656E 		.ascii	"event_listener\000"
 17946      745F6C69 
 17946      7374656E 
 17946      657200
 17947              	.LASF9:
 17948 2570 73686F72 		.ascii	"short int\000"
 17948      7420696E 
 17948      7400
 17949              	.LASF900:
 17950 257a 636F6D70 		.ascii	"computeCoefDirecteur\000"
 17950      75746543 
 17950      6F656644 
 17950      69726563 
 17950      74657572 
 17951              	.LASF730:
ARM GAS  /var/folders/qd/4mxf5pkd0zdf0b9dd1hp39180000gn/T//cc7TiL7h.s 			page 347


 17952 258f 75736263 		.ascii	"usbcallback_t\000"
 17952      616C6C62 
 17952      61636B5F 
 17952      7400
 17953              	.LASF61:
 17954 259d 5F726561 		.ascii	"_read\000"
 17954      6400
 17955              	.LASF912:
 17956 25a3 73717274 		.ascii	"sqrt\000"
 17956      00
 17957              	.LASF759:
 17958 25a8 47555342 		.ascii	"GUSBCFG\000"
 17958      43464700 
 17959              	.LASF319:
 17960 25b0 55534152 		.ascii	"USART_TypeDef\000"
 17960      545F5479 
 17960      70654465 
 17960      6600
 17961              	.LASF403:
 17962 25be 6F757470 		.ascii	"output_queue_t\000"
 17962      75745F71 
 17962      75657565 
 17962      5F7400
 17963              	.LASF99:
 17964 25cd 5F72616E 		.ascii	"_rand48\000"
 17964      64343800 
 17965              	.LASF808:
 17966 25d5 73746D33 		.ascii	"stm32_otg_t\000"
 17966      325F6F74 
 17966      675F7400 
 17967              	.LASF611:
 17968 25e1 49325344 		.ascii	"I2SDriver\000"
 17968      72697665 
 17968      7200
 17969              	.LASF595:
 17970 25eb 64757479 		.ascii	"duty_cycle\000"
 17970      5F637963 
 17970      6C6500
 17971              	.LASF618:
 17972 25f6 49325343 		.ascii	"I2SConfig\000"
 17972      6F6E6669 
 17972      6700
 17973              	.LASF727:
 17974 2600 75645F73 		.ascii	"ud_size\000"
 17974      697A6500 
 17975              	.LASF830:
 17976 2608 696E5F6D 		.ascii	"in_maxsize\000"
 17976      61787369 
 17976      7A6500
 17977              	.LASF446:
 17978 2613 50464461 		.ascii	"PFData\000"
 17978      746100
 17979              	.LASF539:
 17980 261a 4558545F 		.ascii	"EXT_STOP\000"
 17980      53544F50 
 17980      00
 17981              	.LASF183:
ARM GAS  /var/folders/qd/4mxf5pkd0zdf0b9dd1hp39180000gn/T//cc7TiL7h.s 			page 348


 17982 2623 705F7374 		.ascii	"p_state\000"
 17982      61746500 
 17983              	.LASF619:
 17984 262b 49325344 		.ascii	"I2SD2\000"
 17984      3200
 17985              	.LASF668:
 17986 2631 69735F69 		.ascii	"is_inserted\000"
 17986      6E736572 
 17986      74656400 
 17987              	.LASF198:
 17988 263d 63685F74 		.ascii	"ch_threads_list\000"
 17988      68726561 
 17988      64735F6C 
 17988      69737400 
 17989              	.LASF307:
 17990 264d 44434F55 		.ascii	"DCOUNT\000"
 17990      4E5400
 17991              	.LASF292:
 17992 2654 4F415231 		.ascii	"OAR1\000"
 17992      00
 17993              	.LASF293:
 17994 2659 4F415232 		.ascii	"OAR2\000"
 17994      00
 17995              	.LASF195:
 17996 265e 705F7374 		.ascii	"p_stats\000"
 17996      61747300 
 17997              	.LASF711:
 17998 2666 75736273 		.ascii	"usbstate_t\000"
 17998      74617465 
 17998      5F7400
 17999              		.ident	"GCC: (GNU Tools for Arm Embedded Processors 7-2017-q4-major) 7.2.1 20170904 (release) [ARM
ARM GAS  /var/folders/qd/4mxf5pkd0zdf0b9dd1hp39180000gn/T//cc7TiL7h.s 			page 349


DEFINED SYMBOLS
                            *ABS*:0000000000000000 mod_mapping.c
/var/folders/qd/4mxf5pkd0zdf0b9dd1hp39180000gn/T//cc7TiL7h.s:22     .text.checkAngle:0000000000000000 $t
/var/folders/qd/4mxf5pkd0zdf0b9dd1hp39180000gn/T//cc7TiL7h.s:30     .text.checkAngle:0000000000000000 checkAngle
/var/folders/qd/4mxf5pkd0zdf0b9dd1hp39180000gn/T//cc7TiL7h.s:136    .text.checkAngle:00000000000000a0 $d
/var/folders/qd/4mxf5pkd0zdf0b9dd1hp39180000gn/T//cc7TiL7h.s:147    .text.newAbsolutePositionWheelSpeedType:0000000000000000 $t
/var/folders/qd/4mxf5pkd0zdf0b9dd1hp39180000gn/T//cc7TiL7h.s:155    .text.newAbsolutePositionWheelSpeedType:0000000000000000 newAbsolutePositionWheelSpeedType
/var/folders/qd/4mxf5pkd0zdf0b9dd1hp39180000gn/T//cc7TiL7h.s:411    .text.newAbsolutePositionWheelSpeedType:00000000000001a8 $d
/var/folders/qd/4mxf5pkd0zdf0b9dd1hp39180000gn/T//cc7TiL7h.s:422    .text.measurementToPoint:0000000000000000 $t
/var/folders/qd/4mxf5pkd0zdf0b9dd1hp39180000gn/T//cc7TiL7h.s:430    .text.measurementToPoint:0000000000000000 measurementToPoint
/var/folders/qd/4mxf5pkd0zdf0b9dd1hp39180000gn/T//cc7TiL7h.s:568    .text.measurementToPoint:00000000000000d0 $d
/var/folders/qd/4mxf5pkd0zdf0b9dd1hp39180000gn/T//cc7TiL7h.s:575    .text.moveOrigin:0000000000000000 $t
/var/folders/qd/4mxf5pkd0zdf0b9dd1hp39180000gn/T//cc7TiL7h.s:583    .text.moveOrigin:0000000000000000 moveOrigin
/var/folders/qd/4mxf5pkd0zdf0b9dd1hp39180000gn/T//cc7TiL7h.s:834    .text.moveOrigin:00000000000001b8 $d
/var/folders/qd/4mxf5pkd0zdf0b9dd1hp39180000gn/T//cc7TiL7h.s:846    .text.computeCoefDirecteur:0000000000000000 $t
/var/folders/qd/4mxf5pkd0zdf0b9dd1hp39180000gn/T//cc7TiL7h.s:854    .text.computeCoefDirecteur:0000000000000000 computeCoefDirecteur
/var/folders/qd/4mxf5pkd0zdf0b9dd1hp39180000gn/T//cc7TiL7h.s:1027   .text.computeCoefDirecteur:00000000000000f4 $d
/var/folders/qd/4mxf5pkd0zdf0b9dd1hp39180000gn/T//cc7TiL7h.s:1032   .text.mod_mapping_init:0000000000000000 $t
/var/folders/qd/4mxf5pkd0zdf0b9dd1hp39180000gn/T//cc7TiL7h.s:1040   .text.mod_mapping_init:0000000000000000 mod_mapping_init
/var/folders/qd/4mxf5pkd0zdf0b9dd1hp39180000gn/T//cc7TiL7h.s:1125   .text.mod_mapping_init:0000000000000040 $d
/var/folders/qd/4mxf5pkd0zdf0b9dd1hp39180000gn/T//cc7TiL7h.s:1132   .text.mod_mapping_resetCoordinates:0000000000000000 $t
/var/folders/qd/4mxf5pkd0zdf0b9dd1hp39180000gn/T//cc7TiL7h.s:1140   .text.mod_mapping_resetCoordinates:0000000000000000 mod_mapping_resetCoordinates
/var/folders/qd/4mxf5pkd0zdf0b9dd1hp39180000gn/T//cc7TiL7h.s:1187   .text.mod_mapping_resetCoordinates:000000000000002c $d
/var/folders/qd/4mxf5pkd0zdf0b9dd1hp39180000gn/T//cc7TiL7h.s:1193   .text.mod_mapping_adaptCoordinatesToOrigin:0000000000000000 $t
/var/folders/qd/4mxf5pkd0zdf0b9dd1hp39180000gn/T//cc7TiL7h.s:1201   .text.mod_mapping_adaptCoordinatesToOrigin:0000000000000000 mod_mapping_adaptCoordinatesToOrigin
/var/folders/qd/4mxf5pkd0zdf0b9dd1hp39180000gn/T//cc7TiL7h.s:1252   .text.mod_mapping_adaptCoordinatesToOrigin:000000000000002c $d
/var/folders/qd/4mxf5pkd0zdf0b9dd1hp39180000gn/T//cc7TiL7h.s:1258   .text.mod_mapping_updatePositionWheelSpeedType:0000000000000000 $t
/var/folders/qd/4mxf5pkd0zdf0b9dd1hp39180000gn/T//cc7TiL7h.s:1266   .text.mod_mapping_updatePositionWheelSpeedType:0000000000000000 mod_mapping_updatePositionWheelSpeedType
/var/folders/qd/4mxf5pkd0zdf0b9dd1hp39180000gn/T//cc7TiL7h.s:1321   .text.mod_mapping_updatePositionWheelSpeedType:0000000000000034 $d
/var/folders/qd/4mxf5pkd0zdf0b9dd1hp39180000gn/T//cc7TiL7h.s:1327   .text.mod_mapping_computeWallLocation:0000000000000000 $t
/var/folders/qd/4mxf5pkd0zdf0b9dd1hp39180000gn/T//cc7TiL7h.s:1335   .text.mod_mapping_computeWallLocation:0000000000000000 mod_mapping_computeWallLocation
/var/folders/qd/4mxf5pkd0zdf0b9dd1hp39180000gn/T//cc7TiL7h.s:1786   .text.mod_mapping_computeWallLocation:00000000000002b0 $d
/var/folders/qd/4mxf5pkd0zdf0b9dd1hp39180000gn/T//cc7TiL7h.s:1794   .text.mod_map_saveWall:0000000000000000 $t
/var/folders/qd/4mxf5pkd0zdf0b9dd1hp39180000gn/T//cc7TiL7h.s:1802   .text.mod_map_saveWall:0000000000000000 mod_map_saveWall
/var/folders/qd/4mxf5pkd0zdf0b9dd1hp39180000gn/T//cc7TiL7h.s:1888   .text.mod_map_saveWall:0000000000000064 $d
/var/folders/qd/4mxf5pkd0zdf0b9dd1hp39180000gn/T//cc7TiL7h.s:1894   .text.mod_mapping_getRobotDisplacement:0000000000000000 $t
/var/folders/qd/4mxf5pkd0zdf0b9dd1hp39180000gn/T//cc7TiL7h.s:1902   .text.mod_mapping_getRobotDisplacement:0000000000000000 mod_mapping_getRobotDisplacement
/var/folders/qd/4mxf5pkd0zdf0b9dd1hp39180000gn/T//cc7TiL7h.s:2171   .text.mod_mapping_getRobotDisplacement:0000000000000188 $d
/var/folders/qd/4mxf5pkd0zdf0b9dd1hp39180000gn/T//cc7TiL7h.s:2183   .text.mod_mapping_getAngleForTranslation:0000000000000000 $t
/var/folders/qd/4mxf5pkd0zdf0b9dd1hp39180000gn/T//cc7TiL7h.s:2191   .text.mod_mapping_getAngleForTranslation:0000000000000000 mod_mapping_getAngleForTranslation
/var/folders/qd/4mxf5pkd0zdf0b9dd1hp39180000gn/T//cc7TiL7h.s:2323   .text.mod_mapping_getAngleForTranslation:00000000000000c8 $d
/var/folders/qd/4mxf5pkd0zdf0b9dd1hp39180000gn/T//cc7TiL7h.s:2338   .text.mod_mapping_getActualPosition:0000000000000000 $t
/var/folders/qd/4mxf5pkd0zdf0b9dd1hp39180000gn/T//cc7TiL7h.s:2346   .text.mod_mapping_getActualPosition:0000000000000000 mod_mapping_getActualPosition
/var/folders/qd/4mxf5pkd0zdf0b9dd1hp39180000gn/T//cc7TiL7h.s:2394   .text.mod_mapping_getActualPosition:0000000000000028 $d
/var/folders/qd/4mxf5pkd0zdf0b9dd1hp39180000gn/T//cc7TiL7h.s:2400   .text.computeObjectDistance:0000000000000000 $t
/var/folders/qd/4mxf5pkd0zdf0b9dd1hp39180000gn/T//cc7TiL7h.s:2408   .text.computeObjectDistance:0000000000000000 computeObjectDistance
/var/folders/qd/4mxf5pkd0zdf0b9dd1hp39180000gn/T//cc7TiL7h.s:2471   .text.computeObjectDistance:000000000000004c $d
/var/folders/qd/4mxf5pkd0zdf0b9dd1hp39180000gn/T//cc7TiL7h.s:2476   .text.computeObjectRelativeDirection:0000000000000000 $t
/var/folders/qd/4mxf5pkd0zdf0b9dd1hp39180000gn/T//cc7TiL7h.s:2484   .text.computeObjectRelativeDirection:0000000000000000 computeObjectRelativeDirection
/var/folders/qd/4mxf5pkd0zdf0b9dd1hp39180000gn/T//cc7TiL7h.s:2528   .text.computeObjectRelativeDirection:0000000000000028 $d
/var/folders/qd/4mxf5pkd0zdf0b9dd1hp39180000gn/T//cc7TiL7h.s:2533   .text.isNear:0000000000000000 $t
/var/folders/qd/4mxf5pkd0zdf0b9dd1hp39180000gn/T//cc7TiL7h.s:2541   .text.isNear:0000000000000000 isNear
/var/folders/qd/4mxf5pkd0zdf0b9dd1hp39180000gn/T//cc7TiL7h.s:2612   .text.isNear:0000000000000054 $d
/var/folders/qd/4mxf5pkd0zdf0b9dd1hp39180000gn/T//cc7TiL7h.s:2618   .text.checkIfPointInCircle:0000000000000000 $t
/var/folders/qd/4mxf5pkd0zdf0b9dd1hp39180000gn/T//cc7TiL7h.s:2626   .text.checkIfPointInCircle:0000000000000000 checkIfPointInCircle
/var/folders/qd/4mxf5pkd0zdf0b9dd1hp39180000gn/T//cc7TiL7h.s:2685   .text.checkIfPointInCircle:0000000000000040 $d
/var/folders/qd/4mxf5pkd0zdf0b9dd1hp39180000gn/T//cc7TiL7h.s:2690   .text.checkIfObjectExists:0000000000000000 $t
ARM GAS  /var/folders/qd/4mxf5pkd0zdf0b9dd1hp39180000gn/T//cc7TiL7h.s 			page 350


/var/folders/qd/4mxf5pkd0zdf0b9dd1hp39180000gn/T//cc7TiL7h.s:2698   .text.checkIfObjectExists:0000000000000000 checkIfObjectExists
/var/folders/qd/4mxf5pkd0zdf0b9dd1hp39180000gn/T//cc7TiL7h.s:2816   .text.checkIfObjectExists:000000000000006c $d
/var/folders/qd/4mxf5pkd0zdf0b9dd1hp39180000gn/T//cc7TiL7h.s:2823   .text.mod_mapping_checkEnvironment:0000000000000000 $t
/var/folders/qd/4mxf5pkd0zdf0b9dd1hp39180000gn/T//cc7TiL7h.s:2831   .text.mod_mapping_checkEnvironment:0000000000000000 mod_mapping_checkEnvironment
/var/folders/qd/4mxf5pkd0zdf0b9dd1hp39180000gn/T//cc7TiL7h.s:3100   .text.mod_mapping_checkEnvironment:000000000000016c $d
/var/folders/qd/4mxf5pkd0zdf0b9dd1hp39180000gn/T//cc7TiL7h.s:3108   .text.getEmplacementForPicture:0000000000000000 $t
/var/folders/qd/4mxf5pkd0zdf0b9dd1hp39180000gn/T//cc7TiL7h.s:3116   .text.getEmplacementForPicture:0000000000000000 getEmplacementForPicture
/var/folders/qd/4mxf5pkd0zdf0b9dd1hp39180000gn/T//cc7TiL7h.s:3158   .text.getEmplacementForPicture:0000000000000020 $d
/var/folders/qd/4mxf5pkd0zdf0b9dd1hp39180000gn/T//cc7TiL7h.s:3163   .text.getPathTo:0000000000000000 $t
/var/folders/qd/4mxf5pkd0zdf0b9dd1hp39180000gn/T//cc7TiL7h.s:3171   .text.getPathTo:0000000000000000 getPathTo
/var/folders/qd/4mxf5pkd0zdf0b9dd1hp39180000gn/T//cc7TiL7h.s:3203   .text.getPathTo:000000000000001c $d
/var/folders/qd/4mxf5pkd0zdf0b9dd1hp39180000gn/T//cc7TiL7h.s:3222   .bss.objectListSize:0000000000000000 objectListSize
/var/folders/qd/4mxf5pkd0zdf0b9dd1hp39180000gn/T//cc7TiL7h.s:3215   .bss.objectList:0000000000000000 objectList
/var/folders/qd/4mxf5pkd0zdf0b9dd1hp39180000gn/T//cc7TiL7h.s:3236   .bss.wall:0000000000000000 wall
/var/folders/qd/4mxf5pkd0zdf0b9dd1hp39180000gn/T//cc7TiL7h.s:3211   .bss.objectList:0000000000000000 $d
/var/folders/qd/4mxf5pkd0zdf0b9dd1hp39180000gn/T//cc7TiL7h.s:3218   .bss.objectListSize:0000000000000000 $d
/var/folders/qd/4mxf5pkd0zdf0b9dd1hp39180000gn/T//cc7TiL7h.s:3225   .bss.robotActualPosition:0000000000000000 $d
/var/folders/qd/4mxf5pkd0zdf0b9dd1hp39180000gn/T//cc7TiL7h.s:3229   .bss.robotActualPosition:0000000000000000 robotActualPosition
/var/folders/qd/4mxf5pkd0zdf0b9dd1hp39180000gn/T//cc7TiL7h.s:3232   .bss.wall:0000000000000000 $d
/var/folders/qd/4mxf5pkd0zdf0b9dd1hp39180000gn/T//cc7TiL7h.s:3239   .rodata.measurementToPoint.str1.4:0000000000000000 $d
/var/folders/qd/4mxf5pkd0zdf0b9dd1hp39180000gn/T//cc7TiL7h.s:3243   .rodata.mod_mapping_getAngleForTranslation.str1.4:0000000000000000 $d
/var/folders/qd/4mxf5pkd0zdf0b9dd1hp39180000gn/T//cc7TiL7h.s:3247   .rodata.mod_mapping_getRobotDisplacement.str1.4:0000000000000000 $d
/var/folders/qd/4mxf5pkd0zdf0b9dd1hp39180000gn/T//cc7TiL7h.s:3251   .rodata.moveOrigin.str1.4:0000000000000000 $d
/var/folders/qd/4mxf5pkd0zdf0b9dd1hp39180000gn/T//cc7TiL7h.s:3255   .rodata.newAbsolutePositionWheelSpeedType.str1.4:0000000000000000 $d

UNDEFINED SYMBOLS
__aeabi_dcmpge
__aeabi_dsub
__aeabi_dcmplt
__aeabi_dadd
__stack_chk_fail
__stack_chk_guard
__aeabi_i2d
__aeabi_dmul
__aeabi_ddiv
__aeabi_d2iz
cos
sin
sprintf
mod_com_writeMessage
__aeabi_f2d
malloc
assert
realloc
free
atan
sqrt
__aeabi_dcmpgt
