ARM GAS  /var/folders/qd/4mxf5pkd0zdf0b9dd1hp39180000gn/T//ccMOb0xg.s 			page 1


   1              		.cpu cortex-m4
   2              		.eabi_attribute 27, 1
   3              		.eabi_attribute 28, 1
   4              		.eabi_attribute 20, 1
   5              		.eabi_attribute 21, 1
   6              		.eabi_attribute 23, 3
   7              		.eabi_attribute 24, 1
   8              		.eabi_attribute 25, 1
   9              		.eabi_attribute 26, 1
  10              		.eabi_attribute 30, 2
  11              		.eabi_attribute 34, 1
  12              		.eabi_attribute 18, 4
  13              		.file	"mod_motors.c"
  14              		.text
  15              	.Ltext0:
  16              		.cfi_sections	.debug_frame
  17              		.section	.text.mod_motors_init,"ax",%progbits
  18              		.align	1
  19              		.p2align 4,,15
  20              		.global	mod_motors_init
  21              		.syntax unified
  22              		.thumb
  23              		.thumb_func
  24              		.fpu fpv4-sp-d16
  25              		.type	mod_motors_init, %function
  26              	mod_motors_init:
  27              	.LFB292:
  28              		.file 1 "./modules/mod_motors.c"
  29              		.loc 1 23 0
  30              		.cfi_startproc
  31              		@ args = 0, pretend = 0, frame = 8
  32              		@ frame_needed = 0, uses_anonymous_args = 0
  33 0000 00B5     		push	{lr}
  34              		.cfi_def_cfa_offset 4
  35              		.cfi_offset 14, -4
  36 0002 074B     		ldr	r3, .L7
  37 0004 83B0     		sub	sp, sp, #12
  38              		.cfi_def_cfa_offset 16
  39              		.loc 1 23 0
  40 0006 1A68     		ldr	r2, [r3]
  41 0008 0192     		str	r2, [sp, #4]
  42              		.loc 1 24 0
  43 000a 019A     		ldr	r2, [sp, #4]
  44 000c 1B68     		ldr	r3, [r3]
  45 000e 9A42     		cmp	r2, r3
  46 0010 04D1     		bne	.L6
  47              		.loc 1 25 0
  48 0012 03B0     		add	sp, sp, #12
  49              		.cfi_remember_state
  50              		.cfi_def_cfa_offset 4
  51              		@ sp needed
  52 0014 5DF804EB 		ldr	lr, [sp], #4
  53              		.cfi_restore 14
  54              		.cfi_def_cfa_offset 0
  55              		.loc 1 24 0
  56 0018 FFF7FEBF 		b	motors_init
  57              	.LVL0:
ARM GAS  /var/folders/qd/4mxf5pkd0zdf0b9dd1hp39180000gn/T//ccMOb0xg.s 			page 2


  58              	.L6:
  59              		.cfi_restore_state
  60 001c FFF7FEFF 		bl	__stack_chk_fail
  61              	.LVL1:
  62              	.L8:
  63              		.align	2
  64              	.L7:
  65 0020 00000000 		.word	__stack_chk_guard
  66              		.cfi_endproc
  67              	.LFE292:
  68              		.size	mod_motors_init, .-mod_motors_init
  69              		.section	.text.mod_motors_convertRobotSpeedToWheelspeed,"ax",%progbits
  70              		.align	1
  71              		.p2align 4,,15
  72              		.global	mod_motors_convertRobotSpeedToWheelspeed
  73              		.syntax unified
  74              		.thumb
  75              		.thumb_func
  76              		.fpu fpv4-sp-d16
  77              		.type	mod_motors_convertRobotSpeedToWheelspeed, %function
  78              	mod_motors_convertRobotSpeedToWheelspeed:
  79              	.LFB293:
  80              		.loc 1 27 0
  81              		.cfi_startproc
  82              		@ args = 0, pretend = 0, frame = 16
  83              		@ frame_needed = 0, uses_anonymous_args = 0
  84              	.LVL2:
  85 0000 00B5     		push	{lr}
  86              		.cfi_def_cfa_offset 4
  87              		.cfi_offset 14, -4
  88 0002 85B0     		sub	sp, sp, #20
  89              		.cfi_def_cfa_offset 24
  90              		.loc 1 27 0
  91 0004 6B46     		mov	r3, sp
  92 0006 83E80600 		stm	r3, {r1, r2}
  93              		.loc 1 28 0
  94 000a 07EE901A 		vmov	s15, r1	@ int
  95 000e 9DED017A 		vldr.32	s14, [sp, #4]
  96              		.loc 1 27 0
  97 0012 114A     		ldr	r2, .L13
  98              		.loc 1 28 0
  99 0014 F3EE0B6A 		vmov.f32	s13, #2.7e+1
 100 0018 F8EEE77A 		vcvt.f32.s32	s15, s15
 101 001c 27EE267A 		vmul.f32	s14, s14, s13
 102 0020 B6EE006A 		vmov.f32	s12, #5.0e-1
 103 0024 F0EE676A 		vmov.f32	s13, s15
 104 0028 E7EE066A 		vfma.f32	s13, s14, s12
 105              		.loc 1 27 0
 106 002c 1368     		ldr	r3, [r2]
 107 002e 0393     		str	r3, [sp, #12]
 108              	.LVL3:
 109              		.loc 1 29 0
 110 0030 E7EE467A 		vfms.f32	s15, s14, s12
 111              		.loc 1 30 0
 112 0034 0399     		ldr	r1, [sp, #12]
 113              	.LVL4:
 114 0036 1268     		ldr	r2, [r2]
ARM GAS  /var/folders/qd/4mxf5pkd0zdf0b9dd1hp39180000gn/T//ccMOb0xg.s 			page 3


 115              		.loc 1 28 0
 116 0038 FDEEE66A 		vcvt.s32.f32	s13, s13
 117 003c FDEEE77A 		vcvt.s32.f32	s15, s15
 118              		.loc 1 30 0
 119 0040 9142     		cmp	r1, r2
 120              		.loc 1 28 0
 121 0042 C0ED006A 		vstr.32	s13, [r0]	@ int
 122 0046 C0ED017A 		vstr.32	s15, [r0, #4]	@ int
 123              		.loc 1 30 0
 124 004a 02D1     		bne	.L12
 125 004c 05B0     		add	sp, sp, #20
 126              		.cfi_remember_state
 127              		.cfi_def_cfa_offset 4
 128              	.LVL5:
 129              		@ sp needed
 130 004e 5DF804FB 		ldr	pc, [sp], #4
 131              	.LVL6:
 132              	.L12:
 133              		.cfi_restore_state
 134 0052 FFF7FEFF 		bl	__stack_chk_fail
 135              	.LVL7:
 136              	.L14:
 137 0056 00BF     		.align	2
 138              	.L13:
 139 0058 00000000 		.word	__stack_chk_guard
 140              		.cfi_endproc
 141              	.LFE293:
 142              		.size	mod_motors_convertRobotSpeedToWheelspeed, .-mod_motors_convertRobotSpeedToWheelspeed
 143              		.section	.text.mod_motors_convertWheelSpeedToMotorspeed,"ax",%progbits
 144              		.align	1
 145              		.p2align 4,,15
 146              		.global	mod_motors_convertWheelSpeedToMotorspeed
 147              		.syntax unified
 148              		.thumb
 149              		.thumb_func
 150              		.fpu fpv4-sp-d16
 151              		.type	mod_motors_convertWheelSpeedToMotorspeed, %function
 152              	mod_motors_convertWheelSpeedToMotorspeed:
 153              	.LFB294:
 154              		.loc 1 32 0
 155              		.cfi_startproc
 156              		@ args = 0, pretend = 0, frame = 16
 157              		@ frame_needed = 0, uses_anonymous_args = 0
 158              	.LVL8:
 159 0000 30B5     		push	{r4, r5, lr}
 160              		.cfi_def_cfa_offset 12
 161              		.cfi_offset 4, -12
 162              		.cfi_offset 5, -8
 163              		.cfi_offset 14, -4
 164 0002 85B0     		sub	sp, sp, #20
 165              		.cfi_def_cfa_offset 32
 166              		.loc 1 32 0
 167 0004 6B46     		mov	r3, sp
 168 0006 83E80600 		stm	r3, {r1, r2}
 169 000a 0B46     		mov	r3, r1
 170              	.LVL9:
 171              		.loc 1 34 0
ARM GAS  /var/folders/qd/4mxf5pkd0zdf0b9dd1hp39180000gn/T//ccMOb0xg.s 			page 4


 172 000c 0E49     		ldr	r1, .L19
 173              	.LVL10:
 174              		.loc 1 32 0
 175 000e 0F4C     		ldr	r4, .L19+4
 176 0010 1546     		mov	r5, r2
 177              	.LVL11:
 178              		.loc 1 34 0
 179 0012 D21A     		subs	r2, r2, r3
 180              	.LVL12:
 181 0014 81FB02C1 		smull	ip, r1, r1, r2
 182 0018 D217     		asrs	r2, r2, #31
 183 001a C2EBE102 		rsb	r2, r2, r1, asr #3
 184              		.loc 1 32 0
 185 001e 2168     		ldr	r1, [r4]
 186 0020 0391     		str	r1, [sp, #12]
 187              		.loc 1 33 0
 188 0022 07EE902A 		vmov	s15, r2	@ int
 189 0026 2B44     		add	r3, r3, r5
 190              	.LVL13:
 191              		.loc 1 36 0
 192 0028 039D     		ldr	r5, [sp, #12]
 193              	.LVL14:
 194 002a 2268     		ldr	r2, [r4]
 195              		.loc 1 33 0
 196 002c 03EBD373 		add	r3, r3, r3, lsr #31
 197 0030 F8EEE77A 		vcvt.f32.s32	s15, s15
 198 0034 5B10     		asrs	r3, r3, #1
 199              		.loc 1 36 0
 200 0036 9542     		cmp	r5, r2
 201              		.loc 1 33 0
 202 0038 C0ED017A 		vstr.32	s15, [r0, #4]
 203 003c 0360     		str	r3, [r0]
 204              		.loc 1 36 0
 205 003e 01D1     		bne	.L18
 206 0040 05B0     		add	sp, sp, #20
 207              		.cfi_remember_state
 208              		.cfi_def_cfa_offset 12
 209              	.LVL15:
 210              		@ sp needed
 211 0042 30BD     		pop	{r4, r5, pc}
 212              	.LVL16:
 213              	.L18:
 214              		.cfi_restore_state
 215 0044 FFF7FEFF 		bl	__stack_chk_fail
 216              	.LVL17:
 217              	.L20:
 218              		.align	2
 219              	.L19:
 220 0048 F712DA4B 		.word	1272582903
 221 004c 00000000 		.word	__stack_chk_guard
 222              		.cfi_endproc
 223              	.LFE294:
 224              		.size	mod_motors_convertWheelSpeedToMotorspeed, .-mod_motors_convertWheelSpeedToMotorspeed
 225              		.section	.text.mod_motors_initCalibration,"ax",%progbits
 226              		.align	1
 227              		.p2align 4,,15
 228              		.global	mod_motors_initCalibration
ARM GAS  /var/folders/qd/4mxf5pkd0zdf0b9dd1hp39180000gn/T//ccMOb0xg.s 			page 5


 229              		.syntax unified
 230              		.thumb
 231              		.thumb_func
 232              		.fpu fpv4-sp-d16
 233              		.type	mod_motors_initCalibration, %function
 234              	mod_motors_initCalibration:
 235              	.LFB295:
 236              		.loc 1 39 0
 237              		.cfi_startproc
 238              		@ args = 0, pretend = 0, frame = 8
 239              		@ frame_needed = 0, uses_anonymous_args = 0
 240 0000 00B5     		push	{lr}
 241              		.cfi_def_cfa_offset 4
 242              		.cfi_offset 14, -4
 243 0002 084B     		ldr	r3, .L25
 244              		.loc 1 41 0
 245 0004 0849     		ldr	r1, .L25+4
 246              		.loc 1 39 0
 247 0006 1A68     		ldr	r2, [r3]
 248 0008 83B0     		sub	sp, sp, #12
 249              		.cfi_def_cfa_offset 16
 250              		.loc 1 41 0
 251 000a 0120     		movs	r0, #1
 252              		.loc 1 39 0
 253 000c 0192     		str	r2, [sp, #4]
 254              		.loc 1 42 0
 255 000e 019A     		ldr	r2, [sp, #4]
 256 0010 1B68     		ldr	r3, [r3]
 257              		.loc 1 41 0
 258 0012 0860     		str	r0, [r1]
 259              		.loc 1 42 0
 260 0014 9A42     		cmp	r2, r3
 261 0016 02D1     		bne	.L24
 262 0018 03B0     		add	sp, sp, #12
 263              		.cfi_remember_state
 264              		.cfi_def_cfa_offset 4
 265              		@ sp needed
 266 001a 5DF804FB 		ldr	pc, [sp], #4
 267              	.L24:
 268              		.cfi_restore_state
 269 001e FFF7FEFF 		bl	__stack_chk_fail
 270              	.LVL18:
 271              	.L26:
 272 0022 00BF     		.align	2
 273              	.L25:
 274 0024 00000000 		.word	__stack_chk_guard
 275 0028 00000000 		.word	.LANCHOR0
 276              		.cfi_endproc
 277              	.LFE295:
 278              		.size	mod_motors_initCalibration, .-mod_motors_initCalibration
 279              		.section	.text.mod_motor_angleCalibration,"ax",%progbits
 280              		.align	1
 281              		.p2align 4,,15
 282              		.global	mod_motor_angleCalibration
 283              		.syntax unified
 284              		.thumb
 285              		.thumb_func
ARM GAS  /var/folders/qd/4mxf5pkd0zdf0b9dd1hp39180000gn/T//ccMOb0xg.s 			page 6


 286              		.fpu fpv4-sp-d16
 287              		.type	mod_motor_angleCalibration, %function
 288              	mod_motor_angleCalibration:
 289              	.LFB296:
 290              		.loc 1 43 0
 291              		.cfi_startproc
 292              		@ args = 0, pretend = 0, frame = 16
 293              		@ frame_needed = 0, uses_anonymous_args = 0
 294              	.LVL19:
 295 0000 10B5     		push	{r4, lr}
 296              		.cfi_def_cfa_offset 8
 297              		.cfi_offset 4, -8
 298              		.cfi_offset 14, -4
 299 0002 074B     		ldr	r3, .L31
 300 0004 84B0     		sub	sp, sp, #16
 301              		.cfi_def_cfa_offset 24
 302              		.loc 1 43 0
 303 0006 1A68     		ldr	r2, [r3]
 304              	.LVL20:
 305 0008 0392     		str	r2, [sp, #12]
 306              		.loc 1 45 0
 307 000a 039C     		ldr	r4, [sp, #12]
 308 000c 1A68     		ldr	r2, [r3]
 309              		.loc 1 43 0
 310 000e 6B46     		mov	r3, sp
 311              		.loc 1 45 0
 312 0010 9442     		cmp	r4, r2
 313              		.loc 1 43 0
 314 0012 83E80300 		stm	r3, {r0, r1}
 315              		.loc 1 45 0
 316 0016 01D1     		bne	.L30
 317 0018 04B0     		add	sp, sp, #16
 318              		.cfi_remember_state
 319              		.cfi_def_cfa_offset 8
 320              		@ sp needed
 321 001a 10BD     		pop	{r4, pc}
 322              	.L30:
 323              		.cfi_restore_state
 324 001c FFF7FEFF 		bl	__stack_chk_fail
 325              	.LVL21:
 326              	.L32:
 327              		.align	2
 328              	.L31:
 329 0020 00000000 		.word	__stack_chk_guard
 330              		.cfi_endproc
 331              	.LFE296:
 332              		.size	mod_motor_angleCalibration, .-mod_motor_angleCalibration
 333              		.section	.text.mod_motor_distanceCalibration,"ax",%progbits
 334              		.align	1
 335              		.p2align 4,,15
 336              		.global	mod_motor_distanceCalibration
 337              		.syntax unified
 338              		.thumb
 339              		.thumb_func
 340              		.fpu fpv4-sp-d16
 341              		.type	mod_motor_distanceCalibration, %function
 342              	mod_motor_distanceCalibration:
ARM GAS  /var/folders/qd/4mxf5pkd0zdf0b9dd1hp39180000gn/T//ccMOb0xg.s 			page 7


 343              	.LFB297:
 344              		.loc 1 47 0
 345              		.cfi_startproc
 346              		@ args = 0, pretend = 0, frame = 112
 347              		@ frame_needed = 0, uses_anonymous_args = 0
 348              	.LVL22:
 349 0000 2DE9F041 		push	{r4, r5, r6, r7, r8, lr}
 350              		.cfi_def_cfa_offset 24
 351              		.cfi_offset 4, -24
 352              		.cfi_offset 5, -20
 353              		.cfi_offset 6, -16
 354              		.cfi_offset 7, -12
 355              		.cfi_offset 8, -8
 356              		.cfi_offset 14, -4
 357              		.loc 1 51 0
 358 0004 244C     		ldr	r4, .L40
 359              		.loc 1 47 0
 360 0006 254D     		ldr	r5, .L40+4
 361              		.loc 1 51 0
 362 0008 94F80080 		ldrb	r8, [r4]	@ zero_extendqisi2
 363              		.loc 1 47 0
 364 000c 2E68     		ldr	r6, [r5]
 365 000e 9EB0     		sub	sp, sp, #120
 366              		.cfi_def_cfa_offset 144
 367              		.loc 1 47 0
 368 0010 1D96     		str	r6, [sp, #116]
 369              	.LVL23:
 370 0012 02AE     		add	r6, sp, #8
 371 0014 86E80600 		stm	r6, {r1, r2}
 372              	.LVL24:
 373              		.loc 1 51 0
 374 0018 B8F1000F 		cmp	r8, #0
 375 001c 2CD0     		beq	.L38
 376              	.LBB4:
 377              		.loc 1 59 0
 378 001e DDE90216 		ldrd	r1, r6, [sp, #8]
 379 0022 1F46     		mov	r7, r3
 380              		.loc 1 58 0
 381 0024 1E4B     		ldr	r3, .L40+8
 382              	.LVL25:
 383              		.loc 1 60 0
 384 0026 DFF888C0 		ldr	ip, .L40+24
 385              		.loc 1 58 0
 386 002a 1B68     		ldr	r3, [r3]
 387              	.LVL26:
 388              		.loc 1 62 0
 389 002c 0090     		str	r0, [sp]
 390              		.loc 1 59 0
 391 002e 3144     		add	r1, r1, r6
 392              	.LVL27:
 393              		.loc 1 58 0
 394 0030 181A     		subs	r0, r3, r0
 395              	.LVL28:
 396 0032 4FF47A72 		mov	r2, #1000
 397              		.loc 1 59 0
 398 0036 01EBD171 		add	r1, r1, r1, lsr #31
 399              		.loc 1 58 0
ARM GAS  /var/folders/qd/4mxf5pkd0zdf0b9dd1hp39180000gn/T//ccMOb0xg.s 			page 8


 400 003a 02FB00F0 		mul	r0, r2, r0
 401              		.loc 1 62 0
 402 003e 0196     		str	r6, [sp, #4]
 403              		.loc 1 58 0
 404 0040 90FBF7F0 		sdiv	r0, r0, r7
 405              	.LVL29:
 406              		.loc 1 59 0
 407 0044 4910     		asrs	r1, r1, #1
 408              		.loc 1 60 0
 409 0046 91FBF0F1 		sdiv	r1, r1, r0
 410              		.loc 1 62 0
 411 004a 04A8     		add	r0, sp, #16
 412              	.LVL30:
 413 004c 0A46     		mov	r2, r1
 414              		.loc 1 60 0
 415 004e CCF80010 		str	r1, [ip]
 416              		.loc 1 62 0
 417 0052 1449     		ldr	r1, .L40+12
 418 0054 FFF7FEFF 		bl	sprintf
 419              	.LVL31:
 420              		.loc 1 63 0
 421 0058 04A8     		add	r0, sp, #16
 422 005a 0022     		movs	r2, #0
 423 005c 1249     		ldr	r1, .L40+16
 424 005e FFF7FEFF 		bl	mod_com_writeDatas
 425              	.LVL32:
 426              	.L35:
 427              	.LBE4:
 428              		.loc 1 65 0
 429 0062 2378     		ldrb	r3, [r4]	@ zero_extendqisi2
 430              		.loc 1 66 0
 431 0064 1D99     		ldr	r1, [sp, #116]
 432 0066 2A68     		ldr	r2, [r5]
 433              		.loc 1 65 0
 434 0068 83F00103 		eor	r3, r3, #1
 435              		.loc 1 66 0
 436 006c 9142     		cmp	r1, r2
 437              		.loc 1 65 0
 438 006e 2370     		strb	r3, [r4]
 439              		.loc 1 66 0
 440 0070 0FD1     		bne	.L39
 441 0072 1EB0     		add	sp, sp, #120
 442              		.cfi_remember_state
 443              		.cfi_def_cfa_offset 24
 444              		@ sp needed
 445 0074 BDE8F081 		pop	{r4, r5, r6, r7, r8, pc}
 446              	.LVL33:
 447              	.L38:
 448              		.cfi_restore_state
 449              	.LBB5:
 450              		.loc 1 52 0
 451 0078 094B     		ldr	r3, .L40+8
 452              	.LVL34:
 453              		.loc 1 54 0
 454 007a 0C49     		ldr	r1, .L40+20
 455              		.loc 1 52 0
 456 007c 1860     		str	r0, [r3]
ARM GAS  /var/folders/qd/4mxf5pkd0zdf0b9dd1hp39180000gn/T//ccMOb0xg.s 			page 9


 457              		.loc 1 54 0
 458 007e 0246     		mov	r2, r0
 459 0080 04A8     		add	r0, sp, #16
 460              	.LVL35:
 461 0082 FFF7FEFF 		bl	sprintf
 462              	.LVL36:
 463              		.loc 1 55 0
 464 0086 4246     		mov	r2, r8
 465 0088 04A8     		add	r0, sp, #16
 466 008a 0749     		ldr	r1, .L40+16
 467 008c FFF7FEFF 		bl	mod_com_writeDatas
 468              	.LVL37:
 469              	.LBE5:
 470 0090 E7E7     		b	.L35
 471              	.L39:
 472              		.loc 1 66 0
 473 0092 FFF7FEFF 		bl	__stack_chk_fail
 474              	.LVL38:
 475              	.L41:
 476 0096 00BF     		.align	2
 477              	.L40:
 478 0098 00000000 		.word	.LANCHOR1
 479 009c 00000000 		.word	__stack_chk_guard
 480 00a0 00000000 		.word	.LANCHOR2
 481 00a4 14000000 		.word	.LC2
 482 00a8 0C000000 		.word	.LC1
 483 00ac 00000000 		.word	.LC0
 484 00b0 00000000 		.word	.LANCHOR0
 485              		.cfi_endproc
 486              	.LFE297:
 487              		.size	mod_motor_distanceCalibration, .-mod_motor_distanceCalibration
 488              		.section	.text.mod_motors_changeStateWheelSpeedType,"ax",%progbits
 489              		.align	1
 490              		.p2align 4,,15
 491              		.global	mod_motors_changeStateWheelSpeedType
 492              		.syntax unified
 493              		.thumb
 494              		.thumb_func
 495              		.fpu fpv4-sp-d16
 496              		.type	mod_motors_changeStateWheelSpeedType, %function
 497              	mod_motors_changeStateWheelSpeedType:
 498              	.LFB298:
 499              		.loc 1 70 0
 500              		.cfi_startproc
 501              		@ args = 0, pretend = 0, frame = 16
 502              		@ frame_needed = 0, uses_anonymous_args = 0
 503 0000 30B5     		push	{r4, r5, lr}
 504              		.cfi_def_cfa_offset 12
 505              		.cfi_offset 4, -12
 506              		.cfi_offset 5, -8
 507              		.cfi_offset 14, -4
 508              		.loc 1 71 0
 509 0002 0E4D     		ldr	r5, .L47
 510              		.loc 1 70 0
 511 0004 0E4C     		ldr	r4, .L47+4
 512 0006 85B0     		sub	sp, sp, #20
 513              		.cfi_def_cfa_offset 32
ARM GAS  /var/folders/qd/4mxf5pkd0zdf0b9dd1hp39180000gn/T//ccMOb0xg.s 			page 10


 514              		.loc 1 70 0
 515 0008 6B46     		mov	r3, sp
 516 000a 83E80300 		stm	r3, {r0, r1}
 517              		.loc 1 71 0
 518 000e 0346     		mov	r3, r0
 519 0010 2868     		ldr	r0, [r5]
 520 0012 00FB03F0 		mul	r0, r0, r3
 521              		.loc 1 70 0
 522 0016 2368     		ldr	r3, [r4]
 523 0018 0393     		str	r3, [sp, #12]
 524              		.loc 1 71 0
 525 001a FFF7FEFF 		bl	left_motor_set_speed
 526              	.LVL39:
 527              		.loc 1 72 0
 528 001e 039A     		ldr	r2, [sp, #12]
 529 0020 2368     		ldr	r3, [r4]
 530 0022 9A42     		cmp	r2, r3
 531 0024 08D1     		bne	.L46
 532 0026 2868     		ldr	r0, [r5]
 533 0028 019B     		ldr	r3, [sp, #4]
 534 002a 00FB03F0 		mul	r0, r0, r3
 535              		.loc 1 73 0
 536 002e 05B0     		add	sp, sp, #20
 537              		.cfi_remember_state
 538              		.cfi_def_cfa_offset 12
 539              		@ sp needed
 540 0030 BDE83040 		pop	{r4, r5, lr}
 541              		.cfi_restore 14
 542              		.cfi_restore 5
 543              		.cfi_restore 4
 544              		.cfi_def_cfa_offset 0
 545              		.loc 1 72 0
 546 0034 FFF7FEBF 		b	right_motor_set_speed
 547              	.LVL40:
 548              	.L46:
 549              		.cfi_restore_state
 550 0038 FFF7FEFF 		bl	__stack_chk_fail
 551              	.LVL41:
 552              	.L48:
 553              		.align	2
 554              	.L47:
 555 003c 00000000 		.word	.LANCHOR0
 556 0040 00000000 		.word	__stack_chk_guard
 557              		.cfi_endproc
 558              	.LFE298:
 559              		.size	mod_motors_changeStateWheelSpeedType, .-mod_motors_changeStateWheelSpeedType
 560              		.section	.text.mod_motors_changeStateRobotSpeedType,"ax",%progbits
 561              		.align	1
 562              		.p2align 4,,15
 563              		.global	mod_motors_changeStateRobotSpeedType
 564              		.syntax unified
 565              		.thumb
 566              		.thumb_func
 567              		.fpu fpv4-sp-d16
 568              		.type	mod_motors_changeStateRobotSpeedType, %function
 569              	mod_motors_changeStateRobotSpeedType:
 570              	.LFB299:
ARM GAS  /var/folders/qd/4mxf5pkd0zdf0b9dd1hp39180000gn/T//ccMOb0xg.s 			page 11


 571              		.loc 1 75 0
 572              		.cfi_startproc
 573              		@ args = 0, pretend = 0, frame = 24
 574              		@ frame_needed = 0, uses_anonymous_args = 0
 575 0000 00B5     		push	{lr}
 576              		.cfi_def_cfa_offset 4
 577              		.cfi_offset 14, -4
 578 0002 87B0     		sub	sp, sp, #28
 579              		.cfi_def_cfa_offset 32
 580              		.loc 1 75 0
 581 0004 6B46     		mov	r3, sp
 582 0006 83E80300 		stm	r3, {r0, r1}
 583              	.LBB6:
 584              	.LBB7:
 585              		.loc 1 28 0
 586 000a 07EE900A 		vmov	s15, r0	@ int
 587 000e 9DED017A 		vldr.32	s14, [sp, #4]
 588              	.LBE7:
 589              	.LBE6:
 590              		.loc 1 75 0
 591 0012 134B     		ldr	r3, .L54
 592              	.LBB12:
 593              	.LBB8:
 594              		.loc 1 28 0
 595 0014 F3EE0B6A 		vmov.f32	s13, #2.7e+1
 596 0018 F8EEE77A 		vcvt.f32.s32	s15, s15
 597 001c 27EE267A 		vmul.f32	s14, s14, s13
 598 0020 B6EE006A 		vmov.f32	s12, #5.0e-1
 599 0024 F0EE676A 		vmov.f32	s13, s15
 600 0028 E7EE066A 		vfma.f32	s13, s14, s12
 601              	.LBE8:
 602              	.LBE12:
 603              		.loc 1 75 0
 604 002c 1A68     		ldr	r2, [r3]
 605 002e 0592     		str	r2, [sp, #20]
 606              	.LVL42:
 607              	.LBB13:
 608              	.LBB9:
 609              		.loc 1 29 0
 610 0030 E7EE467A 		vfms.f32	s15, s14, s12
 611              	.LBE9:
 612              	.LBE13:
 613              		.loc 1 76 0
 614 0034 059A     		ldr	r2, [sp, #20]
 615 0036 1B68     		ldr	r3, [r3]
 616              	.LBB14:
 617              	.LBB10:
 618              		.loc 1 28 0
 619 0038 FDEEE66A 		vcvt.s32.f32	s13, s13
 620 003c FDEEE77A 		vcvt.s32.f32	s15, s15
 621              	.LBE10:
 622              	.LBE14:
 623              		.loc 1 76 0
 624 0040 9A42     		cmp	r2, r3
 625              	.LBB15:
 626              	.LBB11:
 627              		.loc 1 28 0
ARM GAS  /var/folders/qd/4mxf5pkd0zdf0b9dd1hp39180000gn/T//ccMOb0xg.s 			page 12


 628 0042 CDED036A 		vstr.32	s13, [sp, #12]	@ int
 629 0046 CDED047A 		vstr.32	s15, [sp, #16]	@ int
 630              	.LVL43:
 631              	.LBE11:
 632              	.LBE15:
 633              		.loc 1 76 0
 634 004a 07D1     		bne	.L53
 635 004c 03AB     		add	r3, sp, #12
 636 004e 93E80300 		ldm	r3, {r0, r1}
 637              	.LVL44:
 638              		.loc 1 77 0
 639 0052 07B0     		add	sp, sp, #28
 640              		.cfi_remember_state
 641              		.cfi_def_cfa_offset 4
 642              	.LVL45:
 643              		@ sp needed
 644 0054 5DF804EB 		ldr	lr, [sp], #4
 645              		.cfi_restore 14
 646              		.cfi_def_cfa_offset 0
 647              	.LVL46:
 648              		.loc 1 76 0
 649 0058 FFF7FEBF 		b	mod_motors_changeStateWheelSpeedType
 650              	.LVL47:
 651              	.L53:
 652              		.cfi_restore_state
 653 005c FFF7FEFF 		bl	__stack_chk_fail
 654              	.LVL48:
 655              	.L55:
 656              		.align	2
 657              	.L54:
 658 0060 00000000 		.word	__stack_chk_guard
 659              		.cfi_endproc
 660              	.LFE299:
 661              		.size	mod_motors_changeStateRobotSpeedType, .-mod_motors_changeStateRobotSpeedType
 662              		.section	.text.mod_motors_stop,"ax",%progbits
 663              		.align	1
 664              		.p2align 4,,15
 665              		.global	mod_motors_stop
 666              		.syntax unified
 667              		.thumb
 668              		.thumb_func
 669              		.fpu fpv4-sp-d16
 670              		.type	mod_motors_stop, %function
 671              	mod_motors_stop:
 672              	.LFB300:
 673              		.loc 1 80 0
 674              		.cfi_startproc
 675              		@ args = 0, pretend = 0, frame = 16
 676              		@ frame_needed = 0, uses_anonymous_args = 0
 677 0000 00B5     		push	{lr}
 678              		.cfi_def_cfa_offset 4
 679              		.cfi_offset 14, -4
 680 0002 0A4B     		ldr	r3, .L61
 681 0004 85B0     		sub	sp, sp, #20
 682              		.cfi_def_cfa_offset 24
 683              		.loc 1 80 0
 684 0006 1A68     		ldr	r2, [r3]
ARM GAS  /var/folders/qd/4mxf5pkd0zdf0b9dd1hp39180000gn/T//ccMOb0xg.s 			page 13


 685 0008 0392     		str	r2, [sp, #12]
 686              		.loc 1 81 0
 687 000a 0399     		ldr	r1, [sp, #12]
 688 000c 1A68     		ldr	r2, [r3]
 689 000e 0023     		movs	r3, #0
 690 0010 9142     		cmp	r1, r2
 691 0012 CDE90133 		strd	r3, r3, [sp, #4]
 692 0016 07D1     		bne	.L60
 693 0018 01AB     		add	r3, sp, #4
 694 001a 93E80300 		ldm	r3, {r0, r1}
 695              		.loc 1 82 0
 696 001e 05B0     		add	sp, sp, #20
 697              		.cfi_remember_state
 698              		.cfi_def_cfa_offset 4
 699              		@ sp needed
 700 0020 5DF804EB 		ldr	lr, [sp], #4
 701              		.cfi_restore 14
 702              		.cfi_def_cfa_offset 0
 703              		.loc 1 81 0
 704 0024 FFF7FEBF 		b	mod_motors_changeStateWheelSpeedType
 705              	.LVL49:
 706              	.L60:
 707              		.cfi_restore_state
 708 0028 FFF7FEFF 		bl	__stack_chk_fail
 709              	.LVL50:
 710              	.L62:
 711              		.align	2
 712              	.L61:
 713 002c 00000000 		.word	__stack_chk_guard
 714              		.cfi_endproc
 715              	.LFE300:
 716              		.size	mod_motors_stop, .-mod_motors_stop
 717              		.section	.bss.i.14137,"aw",%nobits
 718              		.set	.LANCHOR1,. + 0
 719              		.type	i.14137, %object
 720              		.size	i.14137, 1
 721              	i.14137:
 722 0000 00       		.space	1
 723              		.section	.bss.previousValue.14138,"aw",%nobits
 724              		.align	2
 725              		.set	.LANCHOR2,. + 0
 726              		.type	previousValue.14138, %object
 727              		.size	previousValue.14138, 4
 728              	previousValue.14138:
 729 0000 00000000 		.space	4
 730              		.section	.data.straight_const,"aw",%progbits
 731              		.align	2
 732              		.set	.LANCHOR0,. + 0
 733              		.type	straight_const, %object
 734              		.size	straight_const, 4
 735              	straight_const:
 736 0000 1F000000 		.word	31
 737              		.section	.rodata.mod_motor_distanceCalibration.str1.4,"aMS",%progbits,1
 738              		.align	2
 739              	.LC0:
 740 0000 70726576 		.ascii	"prev1 : %d\000"
 740      31203A20 
ARM GAS  /var/folders/qd/4mxf5pkd0zdf0b9dd1hp39180000gn/T//ccMOb0xg.s 			page 14


 740      256400
 741 000b 00       		.space	1
 742              	.LC1:
 743 000c 48414841 		.ascii	"HAHA\000"
 743      00
 744 0011 000000   		.space	3
 745              	.LC2:
 746 0014 53747261 		.ascii	"Straight const : %d preval : %d distWwall : %d disp"
 746      69676874 
 746      20636F6E 
 746      7374203A 
 746      20256420 
 747 0047 6C203A20 		.ascii	"l : %d\000"
 747      256400
 748              		.text
 749              	.Letext0:
 750              		.file 2 "modules/headers/structs.h"
 751              		.file 3 "/Applications/Eclipse_e-puck2.app/Contents/Eclipse_e-puck2/Tools/gcc-arm-none-eabi-7-2017
 752              		.file 4 "/Applications/Eclipse_e-puck2.app/Contents/Eclipse_e-puck2/Tools/gcc-arm-none-eabi-7-2017
 753              		.file 5 "/Applications/Eclipse_e-puck2.app/Contents/Eclipse_e-puck2/Tools/gcc-arm-none-eabi-7-2017
 754              		.file 6 "lib/e-puck2_main-processor/ChibiOS//os/rt/ports/ARMCMx/compilers/GCC/chtypes.h"
 755              		.file 7 "lib/e-puck2_main-processor/ChibiOS//os/rt/include/chsystypes.h"
 756              		.file 8 "lib/e-puck2_main-processor/ChibiOS//os/rt/include/chschd.h"
 757              		.file 9 "lib/e-puck2_main-processor/ChibiOS//os/ext/CMSIS/include/core_cm4.h"
 758              		.file 10 "lib/e-puck2_main-processor/ChibiOS//os/ext/CMSIS/ST/system_stm32f4xx.h"
 759              		.file 11 "lib/e-puck2_main-processor/ChibiOS//os/ext/CMSIS/ST/stm32f407xx.h"
 760              		.file 12 "lib/e-puck2_main-processor/ChibiOS//os/rt/ports/ARMCMx/chcore.h"
 761              		.file 13 "lib/e-puck2_main-processor/ChibiOS//os/rt/ports/ARMCMx/chcore_v7m.h"
 762              		.file 14 "lib/e-puck2_main-processor/ChibiOS//os/rt/include/chdebug.h"
 763              		.file 15 "lib/e-puck2_main-processor/ChibiOS//os/rt/include/chtm.h"
 764              		.file 16 "lib/e-puck2_main-processor/ChibiOS//os/rt/include/chstats.h"
 765              		.file 17 "lib/e-puck2_main-processor/ChibiOS//os/rt/include/chsem.h"
 766              		.file 18 "lib/e-puck2_main-processor/ChibiOS//os/rt/include/chmtx.h"
 767              		.file 19 "lib/e-puck2_main-processor/ChibiOS//os/rt/include/chregistry.h"
 768              		.file 20 "lib/e-puck2_main-processor/ChibiOS//os/rt/include/chevents.h"
 769              		.file 21 "lib/e-puck2_main-processor/ChibiOS//os/rt/include/chqueues.h"
 770              		.file 22 "lib/e-puck2_main-processor/ChibiOS//os/hal/ports/STM32/STM32F4xx/stm32_dma.h"
 771              		.file 23 "lib/e-puck2_main-processor/ChibiOS//os/hal/include/hal_ioblock.h"
 772              		.file 24 "lib/e-puck2_main-processor/ChibiOS//os/hal/ports/STM32/LLD/GPIOv2/pal_lld.h"
 773              		.file 25 "lib/e-puck2_main-processor/ChibiOS//os/hal/include/adc.h"
 774              		.file 26 "lib/e-puck2_main-processor/ChibiOS//os/hal/ports/STM32/STM32F4xx/adc_lld.h"
 775              		.file 27 "lib/e-puck2_main-processor/ChibiOS//os/hal/include/can.h"
 776              		.file 28 "lib/e-puck2_main-processor/ChibiOS//os/hal/ports/STM32/LLD/can_lld.h"
 777              		.file 29 "lib/e-puck2_main-processor/ChibiOS//os/hal/include/dac.h"
 778              		.file 30 "lib/e-puck2_main-processor/ChibiOS//os/hal/ports/STM32/LLD/DACv1/dac_lld.h"
 779              		.file 31 "lib/e-puck2_main-processor/ChibiOS//os/hal/include/ext.h"
 780              		.file 32 "lib/e-puck2_main-processor/ChibiOS//os/hal/ports/STM32/LLD/ext_lld.h"
 781              		.file 33 "lib/e-puck2_main-processor/ChibiOS//os/hal/include/gpt.h"
 782              		.file 34 "lib/e-puck2_main-processor/ChibiOS//os/hal/ports/STM32/LLD/TIMv1/gpt_lld.h"
 783              		.file 35 "lib/e-puck2_main-processor/ChibiOS//os/hal/ports/STM32/LLD/TIMv1/stm32_tim.h"
 784              		.file 36 "lib/e-puck2_main-processor/ChibiOS//os/hal/include/i2c.h"
 785              		.file 37 "lib/e-puck2_main-processor/ChibiOS//os/hal/ports/STM32/LLD/I2Cv1/i2c_lld.h"
 786              		.file 38 "lib/e-puck2_main-processor/ChibiOS//os/hal/include/i2s.h"
 787              		.file 39 "lib/e-puck2_main-processor/ChibiOS//os/hal/ports/STM32/LLD/SPIv1/i2s_lld.h"
 788              		.file 40 "lib/e-puck2_main-processor/ChibiOS//os/hal/include/pwm.h"
 789              		.file 41 "lib/e-puck2_main-processor/ChibiOS//os/hal/ports/STM32/LLD/TIMv1/pwm_lld.h"
 790              		.file 42 "lib/e-puck2_main-processor/ChibiOS//os/hal/include/serial.h"
ARM GAS  /var/folders/qd/4mxf5pkd0zdf0b9dd1hp39180000gn/T//ccMOb0xg.s 			page 15


 791              		.file 43 "lib/e-puck2_main-processor/ChibiOS//os/hal/ports/STM32/LLD/USARTv1/serial_lld.h"
 792              		.file 44 "lib/e-puck2_main-processor/ChibiOS//os/hal/include/sdc.h"
 793              		.file 45 "lib/e-puck2_main-processor/ChibiOS//os/hal/ports/STM32/LLD/sdc_lld.h"
 794              		.file 46 "lib/e-puck2_main-processor/ChibiOS//os/hal/include/spi.h"
 795              		.file 47 "lib/e-puck2_main-processor/ChibiOS//os/hal/ports/STM32/LLD/SPIv1/spi_lld.h"
 796              		.file 48 "lib/e-puck2_main-processor/ChibiOS//os/hal/include/usb.h"
 797              		.file 49 "lib/e-puck2_main-processor/ChibiOS//os/hal/ports/STM32/LLD/OTGv1/usb_lld.h"
 798              		.file 50 "lib/e-puck2_main-processor/ChibiOS//os/hal/ports/STM32/LLD/OTGv1/stm32_otg.h"
 799              		.file 51 "/Applications/Eclipse_e-puck2.app/Contents/Eclipse_e-puck2/Tools/gcc-arm-none-eabi-7-201
 800              		.file 52 "/Applications/Eclipse_e-puck2.app/Contents/Eclipse_e-puck2/Tools/gcc-arm-none-eabi-7-201
 801              		.file 53 "/Applications/Eclipse_e-puck2.app/Contents/Eclipse_e-puck2/Tools/gcc-arm-none-eabi-7-201
 802              		.file 54 "/Applications/Eclipse_e-puck2.app/Contents/Eclipse_e-puck2/Tools/gcc-arm-none-eabi-7-201
 803              		.file 55 "/Applications/Eclipse_e-puck2.app/Contents/Eclipse_e-puck2/Tools/gcc-arm-none-eabi-7-201
 804              		.file 56 "lib/e-puck2_main-processor/src/motors.h"
 805              		.file 57 "/Applications/Eclipse_e-puck2.app/Contents/Eclipse_e-puck2/Tools/gcc-arm-none-eabi-7-201
 806              		.file 58 "modules/headers/mod_communication.h"