ARM GAS  /var/folders/qd/4mxf5pkd0zdf0b9dd1hp39180000gn/T//ccn3RVaQ.s 			page 1


   1              		.cpu cortex-m4
   2              		.eabi_attribute 27, 1
   3              		.eabi_attribute 28, 1
   4              		.eabi_attribute 20, 1
   5              		.eabi_attribute 21, 1
   6              		.eabi_attribute 23, 3
   7              		.eabi_attribute 24, 1
   8              		.eabi_attribute 25, 1
   9              		.eabi_attribute 26, 1
  10              		.eabi_attribute 30, 2
  11              		.eabi_attribute 34, 1
  12              		.eabi_attribute 18, 4
  13              		.file	"mod_exploration.c"
  14              		.text
  15              	.Ltext0:
  16              		.cfi_sections	.debug_frame
  17              		.section	.text.changeMotorsStateAsync,"ax",%progbits
  18              		.align	1
  19              		.p2align 4,,15
  20              		.syntax unified
  21              		.thumb
  22              		.thumb_func
  23              		.fpu fpv4-sp-d16
  24              		.type	changeMotorsStateAsync, %function
  25              	changeMotorsStateAsync:
  26              	.LFB259:
  27              		.file 1 "./modules/mod_exploration.c"
  28              		.loc 1 211 0
  29              		.cfi_startproc
  30              		@ args = 0, pretend = 0, frame = 16
  31              		@ frame_needed = 0, uses_anonymous_args = 0
  32              	.LVL0:
  33 0000 2DE9F04F 		push	{r4, r5, r6, r7, r8, r9, r10, fp, lr}
  34              		.cfi_def_cfa_offset 36
  35              		.cfi_offset 4, -36
  36              		.cfi_offset 5, -32
  37              		.cfi_offset 6, -28
  38              		.cfi_offset 7, -24
  39              		.cfi_offset 8, -20
  40              		.cfi_offset 9, -16
  41              		.cfi_offset 10, -12
  42              		.cfi_offset 11, -8
  43              		.cfi_offset 14, -4
  44 0004 654B     		ldr	r3, .L18
  45 0006 DFF8B491 		ldr	r9, .L18+32
  46 000a 1B68     		ldr	r3, [r3]
  47 000c 644F     		ldr	r7, .L18+4
  48 000e DFF8B0B1 		ldr	fp, .L18+36
  49 0012 85B0     		sub	sp, sp, #20
  50              		.cfi_def_cfa_offset 56
  51              	.LBB188:
  52              	.LBB189:
  53              	.LBB190:
  54              	.LBB191:
  55              	.LBB192:
  56              	.LBB193:
  57              	.LBB194:
ARM GAS  /var/folders/qd/4mxf5pkd0zdf0b9dd1hp39180000gn/T//ccn3RVaQ.s 			page 2


  58              	.LBB195:
  59              		.file 2 "lib/e-puck2_main-processor/ChibiOS//os/ext/CMSIS/include/core_cmFunc.h"
  60              		.loc 2 546 0
  61 0014 4FF0000A 		mov	r10, #0
  62              	.LBE195:
  63              	.LBE194:
  64              	.LBE193:
  65              	.LBE192:
  66              	.LBE191:
  67              	.LBE190:
  68              	.LBE189:
  69              	.LBE188:
  70              		.loc 1 211 0
  71 0018 0393     		str	r3, [sp, #12]
  72 001a 6BE0     		b	.L11
  73              	.LVL1:
  74              	.L16:
  75              	.LBB263:
  76              	.LBB209:
  77              	.LBB210:
  78              	.LBB211:
  79              	.LBB212:
  80              	.LBB213:
  81              	.LBB214:
  82              	.LBB215:
  83              	.LBB216:
  84              		.loc 2 546 0
  85 001c 2023     		movs	r3, #32
  86              		.syntax unified
  87              	@ 546 "lib/e-puck2_main-processor/ChibiOS//os/ext/CMSIS/include/core_cmFunc.h" 1
  88 001e 83F31188 		MSR basepri, r3
  89              	@ 0 "" 2
  90              	.LVL2:
  91              		.thumb
  92              		.syntax unified
  93              	.LBE216:
  94              	.LBE215:
  95              	.LBE214:
  96              		.file 3 "lib/e-puck2_main-processor/ChibiOS//os/rt/include/chsys.h"
  97              		.loc 3 349 0
  98 0022 FFF7FEFF 		bl	_stats_start_measure_crit_thd
  99              	.LVL3:
 100              		.loc 3 350 0
 101 0026 FFF7FEFF 		bl	_dbg_check_lock
 102              	.LVL4:
 103              	.LBE213:
 104              	.LBE212:
 105              	.LBB217:
 106              	.LBB218:
 107              		.file 4 "lib/e-puck2_main-processor/ChibiOS//os/rt/include/chvt.h"
 108              		.loc 4 231 0
 109 002a BE6A     		ldr	r6, [r7, #40]
 110              	.LBE218:
 111              	.LBE217:
 112              	.LBB219:
 113              	.LBB220:
 114              		.loc 3 360 0
ARM GAS  /var/folders/qd/4mxf5pkd0zdf0b9dd1hp39180000gn/T//ccn3RVaQ.s 			page 3


 115 002c FFF7FEFF 		bl	_dbg_check_unlock
 116              	.LVL5:
 117              		.loc 3 361 0
 118 0030 FFF7FEFF 		bl	_stats_stop_measure_crit_thd
 119              	.LVL6:
 120              		.loc 3 367 0
 121 0034 3B68     		ldr	r3, [r7]
 122 0036 BB42     		cmp	r3, r7
 123 0038 07D0     		beq	.L3
 124 003a BA69     		ldr	r2, [r7, #24]
 125 003c 9B68     		ldr	r3, [r3, #8]
 126 003e 9268     		ldr	r2, [r2, #8]
 127 0040 9A42     		cmp	r2, r3
 128 0042 02D2     		bcs	.L3
 129 0044 5748     		ldr	r0, .L18+8
 130 0046 FFF7FEFF 		bl	chSysHalt
 131              	.LVL7:
 132              	.L3:
 133              	.LBB221:
 134              	.LBB222:
 135              	.LBB223:
 136              		.loc 2 546 0
 137              		.syntax unified
 138              	@ 546 "lib/e-puck2_main-processor/ChibiOS//os/ext/CMSIS/include/core_cmFunc.h" 1
 139 004a 8AF31188 		MSR basepri, r10
 140              	@ 0 "" 2
 141              	.LVL8:
 142              		.thumb
 143              		.syntax unified
 144              	.LBE223:
 145              	.LBE222:
 146              	.LBE221:
 147              	.LBE220:
 148              	.LBE219:
 149              	.LBE211:
 150              	.LBE210:
 151              	.LBB224:
 152              	.LBB225:
 153              	.LBB226:
 154              	.LBB227:
 155              	.LBB228:
 156              	.LBB229:
 157              	.LBB230:
 158 004e 2023     		movs	r3, #32
 159 0050 0136     		adds	r6, r6, #1
 160              	.LBE230:
 161              	.LBE229:
 162              	.LBE228:
 163              	.LBE227:
 164              	.LBE226:
 165              	.LBE225:
 166              	.LBE224:
 167              		.loc 1 220 0
 168 0052 DBF80080 		ldr	r8, [fp]
 169              	.LVL9:
 170              	.LBB244:
 171              	.LBB243:
ARM GAS  /var/folders/qd/4mxf5pkd0zdf0b9dd1hp39180000gn/T//ccn3RVaQ.s 			page 4


 172              	.LBB235:
 173              	.LBB234:
 174              	.LBB233:
 175              	.LBB232:
 176              	.LBB231:
 177              		.loc 2 546 0
 178              		.syntax unified
 179              	@ 546 "lib/e-puck2_main-processor/ChibiOS//os/ext/CMSIS/include/core_cmFunc.h" 1
 180 0056 83F31188 		MSR basepri, r3
 181              	@ 0 "" 2
 182              	.LVL10:
 183              		.thumb
 184              		.syntax unified
 185              	.LBE231:
 186              	.LBE232:
 187              	.LBE233:
 188              		.loc 3 349 0
 189 005a FFF7FEFF 		bl	_stats_start_measure_crit_thd
 190              	.LVL11:
 191              		.loc 3 350 0
 192 005e FFF7FEFF 		bl	_dbg_check_lock
 193              	.LVL12:
 194              	.LBE234:
 195              	.LBE235:
 196              	.LBB236:
 197              	.LBB237:
 198              		.loc 4 231 0
 199 0062 BB6A     		ldr	r3, [r7, #40]
 200 0064 0193     		str	r3, [sp, #4]
 201              	.LBE237:
 202              	.LBE236:
 203              	.LBB238:
 204              	.LBB239:
 205              		.loc 3 360 0
 206 0066 FFF7FEFF 		bl	_dbg_check_unlock
 207              	.LVL13:
 208              		.loc 3 361 0
 209 006a FFF7FEFF 		bl	_stats_stop_measure_crit_thd
 210              	.LVL14:
 211              		.loc 3 367 0
 212 006e 3B68     		ldr	r3, [r7]
 213 0070 BB42     		cmp	r3, r7
 214 0072 07D0     		beq	.L4
 215 0074 BA69     		ldr	r2, [r7, #24]
 216 0076 9B68     		ldr	r3, [r3, #8]
 217 0078 9268     		ldr	r2, [r2, #8]
 218 007a 9A42     		cmp	r2, r3
 219 007c 02D2     		bcs	.L4
 220 007e 4948     		ldr	r0, .L18+8
 221 0080 FFF7FEFF 		bl	chSysHalt
 222              	.LVL15:
 223              	.L4:
 224              	.LBB240:
 225              	.LBB241:
 226              	.LBB242:
 227              		.loc 2 546 0
 228              		.syntax unified
ARM GAS  /var/folders/qd/4mxf5pkd0zdf0b9dd1hp39180000gn/T//ccn3RVaQ.s 			page 5


 229              	@ 546 "lib/e-puck2_main-processor/ChibiOS//os/ext/CMSIS/include/core_cmFunc.h" 1
 230 0084 8AF31188 		MSR basepri, r10
 231              	@ 0 "" 2
 232              	.LVL16:
 233              		.thumb
 234              		.syntax unified
 235              	.LBE242:
 236              	.LBE241:
 237              	.LBE240:
 238              	.LBE239:
 239              	.LBE238:
 240              	.LBE243:
 241              	.LBE244:
 242              		.loc 1 221 0
 243 0088 019B     		ldr	r3, [sp, #4]
 244              		.loc 1 222 0
 245 008a 94ED000A 		vldr.32	s0, [r4]
 246 008e D4ED010A 		vldr.32	s1, [r4, #4]
 247              		.loc 1 221 0
 248 0092 CBF80030 		str	r3, [fp]
 249              		.loc 1 223 0
 250 0096 A6EB0806 		sub	r6, r6, r8
 251              		.loc 1 222 0
 252 009a FFF7FEFF 		bl	mod_motors_changeStateWheelSpeedType
 253              	.LVL17:
 254              		.loc 1 223 0
 255 009e 4FF47A71 		mov	r1, #1000
 256 00a2 01FB06F1 		mul	r1, r1, r6
 257 00a6 404B     		ldr	r3, .L18+12
 258 00a8 4048     		ldr	r0, .L18+16
 259 00aa 0139     		subs	r1, r1, #1
 260 00ac A3FB0131 		umull	r3, r1, r3, r1
 261 00b0 8909     		lsrs	r1, r1, #6
 262 00b2 FFF7FEFF 		bl	mod_mapping_updatePositionWheelSpeedType
 263              	.LVL18:
 264              	.L5:
 265              	.LBE209:
 266              		.loc 1 230 0
 267 00b6 D4ED007A 		vldr.32	s15, [r4]
 268 00ba F5EE407A 		vcmp.f32	s15, #0
 269 00be F1EE10FA 		vmrs	APSR_nzcv, FPSCR
 270              		.loc 1 231 0
 271 00c2 4FF00001 		mov	r1, #0
 272              		.loc 1 230 0
 273 00c6 06D1     		bne	.L7
 274              		.loc 1 230 0 is_stmt 0 discriminator 1
 275 00c8 D4ED017A 		vldr.32	s15, [r4, #4]
 276 00cc F5EE407A 		vcmp.f32	s15, #0
 277 00d0 F1EE10FA 		vmrs	APSR_nzcv, FPSCR
 278 00d4 38D0     		beq	.L15
 279              	.L7:
 280              		.loc 1 236 0 is_stmt 1
 281 00d6 3648     		ldr	r0, .L18+20
 282 00d8 FFF7FEFF 		bl	mod_com_writeMessage
 283              	.LVL19:
 284              		.loc 1 238 0
 285 00dc 94E80300 		ldm	r4, {r0, r1}
ARM GAS  /var/folders/qd/4mxf5pkd0zdf0b9dd1hp39180000gn/T//ccn3RVaQ.s 			page 6


 286 00e0 324B     		ldr	r3, .L18+16
 287 00e2 83E80300 		stm	r3, {r0, r1}
 288              		.loc 1 237 0
 289 00e6 0123     		movs	r3, #1
 290 00e8 89F80030 		strb	r3, [r9]
 291              	.L10:
 292              		.loc 1 240 0
 293 00ec 2846     		mov	r0, r5
 294 00ee 0021     		movs	r1, #0
 295 00f0 FFF7FEFF 		bl	chMsgRelease
 296              	.LVL20:
 297              	.L11:
 298              		.loc 1 216 0
 299 00f4 FFF7FEFF 		bl	chMsgWait
 300              	.LVL21:
 301              		.loc 1 219 0
 302 00f8 99F80030 		ldrb	r3, [r9]	@ zero_extendqisi2
 303              		.loc 1 217 0
 304 00fc 846B     		ldr	r4, [r0, #56]
 305              		.loc 1 216 0
 306 00fe 0546     		mov	r5, r0
 307              	.LVL22:
 308              		.loc 1 219 0
 309 0100 002B     		cmp	r3, #0
 310 0102 8BD1     		bne	.L16
 311              	.LVL23:
 312              	.LBB245:
 313              	.LBB208:
 314              	.LBB200:
 315              	.LBB201:
 316              	.LBB202:
 317              	.LBB203:
 318              	.LBB204:
 319              		.loc 2 546 0
 320 0104 2023     		movs	r3, #32
 321              		.syntax unified
 322              	@ 546 "lib/e-puck2_main-processor/ChibiOS//os/ext/CMSIS/include/core_cmFunc.h" 1
 323 0106 83F31188 		MSR basepri, r3
 324              	@ 0 "" 2
 325              	.LVL24:
 326              		.thumb
 327              		.syntax unified
 328              	.LBE204:
 329              	.LBE203:
 330              	.LBE202:
 331              		.loc 3 349 0
 332 010a FFF7FEFF 		bl	_stats_start_measure_crit_thd
 333              	.LVL25:
 334              		.loc 3 350 0
 335 010e FFF7FEFF 		bl	_dbg_check_lock
 336              	.LVL26:
 337              	.LBE201:
 338              	.LBE200:
 339              	.LBB205:
 340              	.LBB206:
 341              		.loc 4 231 0
 342 0112 BE6A     		ldr	r6, [r7, #40]
ARM GAS  /var/folders/qd/4mxf5pkd0zdf0b9dd1hp39180000gn/T//ccn3RVaQ.s 			page 7


 343              	.LBE206:
 344              	.LBE205:
 345              	.LBB207:
 346              	.LBB199:
 347              		.loc 3 360 0
 348 0114 FFF7FEFF 		bl	_dbg_check_unlock
 349              	.LVL27:
 350              		.loc 3 361 0
 351 0118 FFF7FEFF 		bl	_stats_stop_measure_crit_thd
 352              	.LVL28:
 353              		.loc 3 367 0
 354 011c 3B68     		ldr	r3, [r7]
 355 011e BB42     		cmp	r3, r7
 356 0120 07D0     		beq	.L6
 357 0122 BA69     		ldr	r2, [r7, #24]
 358 0124 9B68     		ldr	r3, [r3, #8]
 359 0126 9268     		ldr	r2, [r2, #8]
 360 0128 9A42     		cmp	r2, r3
 361 012a 02D2     		bcs	.L6
 362 012c 1D48     		ldr	r0, .L18+8
 363 012e FFF7FEFF 		bl	chSysHalt
 364              	.LVL29:
 365              	.L6:
 366              	.LBB198:
 367              	.LBB197:
 368              	.LBB196:
 369              		.loc 2 546 0
 370              		.syntax unified
 371              	@ 546 "lib/e-puck2_main-processor/ChibiOS//os/ext/CMSIS/include/core_cmFunc.h" 1
 372 0132 8AF31188 		MSR basepri, r10
 373              	@ 0 "" 2
 374              	.LVL30:
 375              		.thumb
 376              		.syntax unified
 377              	.LBE196:
 378              	.LBE197:
 379              	.LBE198:
 380              	.LBE199:
 381              	.LBE207:
 382              	.LBE208:
 383              	.LBE245:
 384              		.loc 1 227 0
 385 0136 94ED000A 		vldr.32	s0, [r4]
 386 013a D4ED010A 		vldr.32	s1, [r4, #4]
 387              		.loc 1 226 0
 388 013e CBF80060 		str	r6, [fp]
 389              		.loc 1 227 0
 390 0142 FFF7FEFF 		bl	mod_motors_changeStateWheelSpeedType
 391              	.LVL31:
 392 0146 B6E7     		b	.L5
 393              	.L15:
 394              		.loc 1 231 0
 395 0148 1A48     		ldr	r0, .L18+24
 396 014a FFF7FEFF 		bl	mod_com_writeMessage
 397              	.LVL32:
 398              		.loc 1 232 0
 399 014e 89F800A0 		strb	r10, [r9]
ARM GAS  /var/folders/qd/4mxf5pkd0zdf0b9dd1hp39180000gn/T//ccn3RVaQ.s 			page 8


 400              	.LVL33:
 401              	.LBB246:
 402              	.LBB247:
 403              	.LBB248:
 404              	.LBB249:
 405              	.LBB250:
 406              	.LBB251:
 407              	.LBB252:
 408              	.LBB253:
 409              		.loc 2 546 0
 410 0152 2023     		movs	r3, #32
 411              		.syntax unified
 412              	@ 546 "lib/e-puck2_main-processor/ChibiOS//os/ext/CMSIS/include/core_cmFunc.h" 1
 413 0154 83F31188 		MSR basepri, r3
 414              	@ 0 "" 2
 415              	.LVL34:
 416              		.thumb
 417              		.syntax unified
 418              	.LBE253:
 419              	.LBE252:
 420              	.LBE251:
 421              		.loc 3 349 0
 422 0158 FFF7FEFF 		bl	_stats_start_measure_crit_thd
 423              	.LVL35:
 424              		.loc 3 350 0
 425 015c FFF7FEFF 		bl	_dbg_check_lock
 426              	.LVL36:
 427              	.LBE250:
 428              	.LBE249:
 429              	.LBB254:
 430              	.LBB255:
 431              		.file 5 "lib/e-puck2_main-processor/ChibiOS//os/rt/include/chbsem.h"
 432              		.loc 5 268 0
 433 0160 FFF7FEFF 		bl	chDbgCheckClassI
 434              	.LVL37:
 435              		.loc 5 270 0
 436 0164 144B     		ldr	r3, .L18+28
 437 0166 9B68     		ldr	r3, [r3, #8]
 438 0168 002B     		cmp	r3, #0
 439 016a 13DD     		ble	.L17
 440              	.L8:
 441              	.LVL38:
 442              	.LBE255:
 443              	.LBE254:
 444              		.loc 5 286 0
 445 016c FFF7FEFF 		bl	chSchRescheduleS
 446              	.LVL39:
 447              	.LBB257:
 448              	.LBB258:
 449              		.loc 3 360 0
 450 0170 FFF7FEFF 		bl	_dbg_check_unlock
 451              	.LVL40:
 452              		.loc 3 361 0
 453 0174 FFF7FEFF 		bl	_stats_stop_measure_crit_thd
 454              	.LVL41:
 455              		.loc 3 367 0
 456 0178 3B68     		ldr	r3, [r7]
ARM GAS  /var/folders/qd/4mxf5pkd0zdf0b9dd1hp39180000gn/T//ccn3RVaQ.s 			page 9


 457 017a BB42     		cmp	r3, r7
 458 017c 07D0     		beq	.L9
 459 017e BA69     		ldr	r2, [r7, #24]
 460 0180 9B68     		ldr	r3, [r3, #8]
 461 0182 9268     		ldr	r2, [r2, #8]
 462 0184 9A42     		cmp	r2, r3
 463 0186 02D2     		bcs	.L9
 464 0188 0648     		ldr	r0, .L18+8
 465 018a FFF7FEFF 		bl	chSysHalt
 466              	.LVL42:
 467              	.L9:
 468              	.LBB259:
 469              	.LBB260:
 470              	.LBB261:
 471              		.loc 2 546 0
 472              		.syntax unified
 473              	@ 546 "lib/e-puck2_main-processor/ChibiOS//os/ext/CMSIS/include/core_cmFunc.h" 1
 474 018e 8AF31188 		MSR basepri, r10
 475              	@ 0 "" 2
 476              	.LVL43:
 477              		.thumb
 478              		.syntax unified
 479 0192 ABE7     		b	.L10
 480              	.LVL44:
 481              	.L17:
 482              	.LBE261:
 483              	.LBE260:
 484              	.LBE259:
 485              	.LBE258:
 486              	.LBE257:
 487              	.LBB262:
 488              	.LBB256:
 489              		.loc 5 271 0
 490 0194 0848     		ldr	r0, .L18+28
 491 0196 FFF7FEFF 		bl	chSemSignalI
 492              	.LVL45:
 493 019a E7E7     		b	.L8
 494              	.L19:
 495              		.align	2
 496              	.L18:
 497 019c 00000000 		.word	__stack_chk_guard
 498 01a0 00000000 		.word	ch
 499 01a4 00000000 		.word	.LANCHOR1
 500 01a8 D34D6210 		.word	274877907
 501 01ac 00000000 		.word	.LANCHOR3
 502 01b0 14000000 		.word	.LC1
 503 01b4 00000000 		.word	.LC0
 504 01b8 00000000 		.word	.LANCHOR4
 505 01bc 00000000 		.word	.LANCHOR0
 506 01c0 00000000 		.word	.LANCHOR2
 507              	.LBE256:
 508              	.LBE262:
 509              	.LBE248:
 510              	.LBE247:
 511              	.LBE246:
 512              	.LBE263:
 513              		.cfi_endproc
ARM GAS  /var/folders/qd/4mxf5pkd0zdf0b9dd1hp39180000gn/T//ccn3RVaQ.s 			page 10


 514              	.LFE259:
 515              		.size	changeMotorsStateAsync, .-changeMotorsStateAsync
 516              		.section	.text.changeMotorsState,"ax",%progbits
 517              		.align	1
 518              		.p2align 4,,15
 519              		.global	changeMotorsState
 520              		.syntax unified
 521              		.thumb
 522              		.thumb_func
 523              		.fpu fpv4-sp-d16
 524              		.type	changeMotorsState, %function
 525              	changeMotorsState:
 526              	.LFB260:
 527              		.loc 1 245 0
 528              		.cfi_startproc
 529              		@ args = 0, pretend = 0, frame = 16
 530              		@ frame_needed = 0, uses_anonymous_args = 0
 531 0000 10B5     		push	{r4, lr}
 532              		.cfi_def_cfa_offset 8
 533              		.cfi_offset 4, -8
 534              		.cfi_offset 14, -4
 535              		.loc 1 246 0
 536 0002 0A4A     		ldr	r2, .L24
 537              		.loc 1 245 0
 538 0004 0A4C     		ldr	r4, .L24+4
 539              		.loc 1 246 0
 540 0006 1068     		ldr	r0, [r2]
 541              		.loc 1 245 0
 542 0008 2368     		ldr	r3, [r4]
 543 000a 84B0     		sub	sp, sp, #16
 544              		.cfi_def_cfa_offset 24
 545              		.loc 1 246 0
 546 000c 6946     		mov	r1, sp
 547              		.loc 1 245 0
 548 000e 0393     		str	r3, [sp, #12]
 549 0010 8DED000A 		vstr.32	s0, [sp]
 550 0014 CDED010A 		vstr.32	s1, [sp, #4]
 551              		.loc 1 246 0
 552 0018 FFF7FEFF 		bl	chMsgSend
 553              	.LVL46:
 554              		.loc 1 247 0
 555 001c 039A     		ldr	r2, [sp, #12]
 556 001e 2368     		ldr	r3, [r4]
 557 0020 9A42     		cmp	r2, r3
 558 0022 01D1     		bne	.L23
 559 0024 04B0     		add	sp, sp, #16
 560              		.cfi_remember_state
 561              		.cfi_def_cfa_offset 8
 562              		@ sp needed
 563 0026 10BD     		pop	{r4, pc}
 564              	.L23:
 565              		.cfi_restore_state
 566 0028 FFF7FEFF 		bl	__stack_chk_fail
 567              	.LVL47:
 568              	.L25:
 569              		.align	2
 570              	.L24:
ARM GAS  /var/folders/qd/4mxf5pkd0zdf0b9dd1hp39180000gn/T//ccn3RVaQ.s 			page 11


 571 002c 00000000 		.word	.LANCHOR5
 572 0030 00000000 		.word	__stack_chk_guard
 573              		.cfi_endproc
 574              	.LFE260:
 575              		.size	changeMotorsState, .-changeMotorsState
 576              		.section	.text.stopMotors,"ax",%progbits
 577              		.align	1
 578              		.p2align 4,,15
 579              		.global	stopMotors
 580              		.syntax unified
 581              		.thumb
 582              		.thumb_func
 583              		.fpu fpv4-sp-d16
 584              		.type	stopMotors, %function
 585              	stopMotors:
 586              	.LFB261:
 587              		.loc 1 250 0
 588              		.cfi_startproc
 589              		@ args = 0, pretend = 0, frame = 16
 590              		@ frame_needed = 0, uses_anonymous_args = 0
 591 0000 10B5     		push	{r4, lr}
 592              		.cfi_def_cfa_offset 8
 593              		.cfi_offset 4, -8
 594              		.cfi_offset 14, -4
 595              	.LBB264:
 596              	.LBB265:
 597              		.loc 1 246 0
 598 0002 0A49     		ldr	r1, .L30
 599              	.LBE265:
 600              	.LBE264:
 601              		.loc 1 250 0
 602 0004 0A4C     		ldr	r4, .L30+4
 603              	.LBB269:
 604              	.LBB266:
 605              		.loc 1 246 0
 606 0006 0868     		ldr	r0, [r1]
 607              	.LBE266:
 608              	.LBE269:
 609              		.loc 1 250 0
 610 0008 2268     		ldr	r2, [r4]
 611 000a 84B0     		sub	sp, sp, #16
 612              		.cfi_def_cfa_offset 24
 613 000c 0023     		movs	r3, #0
 614              	.LBB270:
 615              	.LBB267:
 616              		.loc 1 246 0
 617 000e 01A9     		add	r1, sp, #4
 618              	.LBE267:
 619              	.LBE270:
 620              		.loc 1 250 0
 621 0010 0392     		str	r2, [sp, #12]
 622 0012 0193     		str	r3, [sp, #4]	@ float
 623 0014 0293     		str	r3, [sp, #8]	@ float
 624              	.LBB271:
 625              	.LBB268:
 626              		.loc 1 246 0
 627 0016 FFF7FEFF 		bl	chMsgSend
ARM GAS  /var/folders/qd/4mxf5pkd0zdf0b9dd1hp39180000gn/T//ccn3RVaQ.s 			page 12


 628              	.LVL48:
 629              	.LBE268:
 630              	.LBE271:
 631              		.loc 1 252 0
 632 001a 039A     		ldr	r2, [sp, #12]
 633 001c 2368     		ldr	r3, [r4]
 634 001e 9A42     		cmp	r2, r3
 635 0020 01D1     		bne	.L29
 636 0022 04B0     		add	sp, sp, #16
 637              		.cfi_remember_state
 638              		.cfi_def_cfa_offset 8
 639              		@ sp needed
 640 0024 10BD     		pop	{r4, pc}
 641              	.L29:
 642              		.cfi_restore_state
 643 0026 FFF7FEFF 		bl	__stack_chk_fail
 644              	.LVL49:
 645              	.L31:
 646 002a 00BF     		.align	2
 647              	.L30:
 648 002c 00000000 		.word	.LANCHOR5
 649 0030 00000000 		.word	__stack_chk_guard
 650              		.cfi_endproc
 651              	.LFE261:
 652              		.size	stopMotors, .-stopMotors
 653              		.section	.text.moveAndComputePositionWheelSpeedType,"ax",%progbits
 654              		.align	1
 655              		.p2align 4,,15
 656              		.global	moveAndComputePositionWheelSpeedType
 657              		.syntax unified
 658              		.thumb
 659              		.thumb_func
 660              		.fpu fpv4-sp-d16
 661              		.type	moveAndComputePositionWheelSpeedType, %function
 662              	moveAndComputePositionWheelSpeedType:
 663              	.LFB262:
 664              		.loc 1 255 0
 665              		.cfi_startproc
 666              		@ args = 0, pretend = 0, frame = 24
 667              		@ frame_needed = 0, uses_anonymous_args = 0
 668              	.LVL50:
 669 0000 F0B5     		push	{r4, r5, r6, r7, lr}
 670              		.cfi_def_cfa_offset 20
 671              		.cfi_offset 4, -20
 672              		.cfi_offset 5, -16
 673              		.cfi_offset 6, -12
 674              		.cfi_offset 7, -8
 675              		.cfi_offset 14, -4
 676 0002 2DED028B 		vpush.64	{d8}
 677              		.cfi_def_cfa_offset 28
 678              		.cfi_offset 80, -28
 679              		.cfi_offset 81, -24
 680 0006 2B4D     		ldr	r5, .L38
 681              	.LBB294:
 682              	.LBB295:
 683              		.loc 1 246 0
 684 0008 2B4E     		ldr	r6, .L38+4
ARM GAS  /var/folders/qd/4mxf5pkd0zdf0b9dd1hp39180000gn/T//ccn3RVaQ.s 			page 13


 685              	.LBE295:
 686              	.LBE294:
 687              		.loc 1 255 0
 688 000a 2B68     		ldr	r3, [r5]
 689 000c 87B0     		sub	sp, sp, #28
 690              		.cfi_def_cfa_offset 56
 691              		.loc 1 255 0
 692 000e 08EE101A 		vmov	s16, r1	@ int
 693 0012 03C8     		ldm	r0, {r0, r1}
 694              	.LVL51:
 695 0014 0593     		str	r3, [sp, #20]
 696 0016 03AB     		add	r3, sp, #12
 697 0018 83E80300 		stm	r3, {r0, r1}
 698              	.LBB297:
 699              	.LBB296:
 700              		.loc 1 246 0
 701 001c 1946     		mov	r1, r3
 702 001e 3068     		ldr	r0, [r6]
 703 0020 FFF7FEFF 		bl	chMsgSend
 704              	.LVL52:
 705              	.LBE296:
 706              	.LBE297:
 707              	.LBB298:
 708              	.LBB299:
 709              	.LBB300:
 710              	.LBB301:
 711              	.LBB302:
 712              	.LBB303:
 713              	.LBB304:
 714              		.loc 2 546 0
 715 0024 2023     		movs	r3, #32
 716              		.syntax unified
 717              	@ 546 "lib/e-puck2_main-processor/ChibiOS//os/ext/CMSIS/include/core_cmFunc.h" 1
 718 0026 83F31188 		MSR basepri, r3
 719              	@ 0 "" 2
 720              	.LVL53:
 721              		.thumb
 722              		.syntax unified
 723              	.LBE304:
 724              	.LBE303:
 725              	.LBE302:
 726              	.LBE301:
 727              	.LBE300:
 728              	.LBB306:
 729              	.LBB307:
 730              		.loc 4 231 0
 731 002a 244C     		ldr	r4, .L38+8
 732              	.LBE307:
 733              	.LBE306:
 734              	.LBB309:
 735              	.LBB305:
 736              		.loc 3 349 0
 737 002c FFF7FEFF 		bl	_stats_start_measure_crit_thd
 738              	.LVL54:
 739              		.loc 3 350 0
 740 0030 FFF7FEFF 		bl	_dbg_check_lock
 741              	.LVL55:
ARM GAS  /var/folders/qd/4mxf5pkd0zdf0b9dd1hp39180000gn/T//ccn3RVaQ.s 			page 14


 742              	.LBE305:
 743              	.LBE309:
 744              	.LBB310:
 745              	.LBB308:
 746              		.loc 4 231 0
 747 0034 A76A     		ldr	r7, [r4, #40]
 748              	.LBE308:
 749              	.LBE310:
 750              	.LBB311:
 751              	.LBB312:
 752              		.loc 3 360 0
 753 0036 FFF7FEFF 		bl	_dbg_check_unlock
 754              	.LVL56:
 755              		.loc 3 361 0
 756 003a FFF7FEFF 		bl	_stats_stop_measure_crit_thd
 757              	.LVL57:
 758              		.loc 3 367 0
 759 003e 2368     		ldr	r3, [r4]
 760 0040 A342     		cmp	r3, r4
 761 0042 04D0     		beq	.L33
 762 0044 A269     		ldr	r2, [r4, #24]
 763 0046 9B68     		ldr	r3, [r3, #8]
 764 0048 9268     		ldr	r2, [r2, #8]
 765 004a 9A42     		cmp	r2, r3
 766 004c 2CD3     		bcc	.L36
 767              	.L33:
 768              	.LVL58:
 769              	.LBB313:
 770              	.LBB314:
 771              	.LBB315:
 772              		.loc 2 546 0
 773 004e 0023     		movs	r3, #0
 774              		.syntax unified
 775              	@ 546 "lib/e-puck2_main-processor/ChibiOS//os/ext/CMSIS/include/core_cmFunc.h" 1
 776 0050 83F31188 		MSR basepri, r3
 777              	@ 0 "" 2
 778              	.LVL59:
 779              		.thumb
 780              		.syntax unified
 781              	.LBE315:
 782              	.LBE314:
 783              	.LBE313:
 784              	.LBE312:
 785              	.LBE311:
 786              	.LBE299:
 787              	.LBE298:
 788              		.loc 1 259 0
 789 0054 DFED1A7A 		vldr.32	s15, .L38+12
 790 0058 1A4A     		ldr	r2, .L38+16
 791 005a B8EEC88A 		vcvt.f32.s32	s16, s16
 792              	.LVL60:
 793 005e 4FF47A73 		mov	r3, #1000
 794 0062 28EE278A 		vmul.f32	s16, s16, s15
 795 0066 3846     		mov	r0, r7
 796 0068 FCEEC87A 		vcvt.u32.f32	s15, s16
 797 006c 17EE901A 		vmov	r1, s15	@ int
 798 0070 03FB01F1 		mul	r1, r3, r1
ARM GAS  /var/folders/qd/4mxf5pkd0zdf0b9dd1hp39180000gn/T//ccn3RVaQ.s 			page 15


 799 0074 01F2E731 		addw	r1, r1, #999
 800 0078 A2FB0131 		umull	r3, r1, r2, r1
 801 007c 07EB9111 		add	r1, r7, r1, lsr #6
 802 0080 FFF7FEFF 		bl	chThdSleepUntilWindowed
 803              	.LVL61:
 804 0084 0023     		movs	r3, #0
 805              	.LBB319:
 806              	.LBB320:
 807              	.LBB321:
 808              		.loc 1 246 0
 809 0086 01A9     		add	r1, sp, #4
 810 0088 3068     		ldr	r0, [r6]
 811 008a 0193     		str	r3, [sp, #4]	@ float
 812 008c 0293     		str	r3, [sp, #8]	@ float
 813 008e FFF7FEFF 		bl	chMsgSend
 814              	.LVL62:
 815              	.LBE321:
 816              	.LBE320:
 817              	.LBE319:
 818              	.LBB322:
 819              	.LBB323:
 820              	.LBB324:
 821              		.loc 5 143 0
 822 0092 0D48     		ldr	r0, .L38+20
 823 0094 FFF7FEFF 		bl	chSemWait
 824              	.LVL63:
 825              	.LBE324:
 826              	.LBE323:
 827              	.LBE322:
 828              		.loc 1 262 0
 829 0098 059A     		ldr	r2, [sp, #20]
 830 009a 2B68     		ldr	r3, [r5]
 831 009c 9A42     		cmp	r2, r3
 832 009e 07D1     		bne	.L37
 833 00a0 07B0     		add	sp, sp, #28
 834              		.cfi_remember_state
 835              		.cfi_def_cfa_offset 28
 836              		@ sp needed
 837 00a2 BDEC028B 		vldm	sp!, {d8}
 838              		.cfi_restore 80
 839              		.cfi_restore 81
 840              		.cfi_def_cfa_offset 20
 841 00a6 F0BD     		pop	{r4, r5, r6, r7, pc}
 842              	.LVL64:
 843              	.L36:
 844              		.cfi_restore_state
 845              	.LBB325:
 846              	.LBB318:
 847              	.LBB317:
 848              	.LBB316:
 849              		.loc 3 367 0
 850 00a8 0848     		ldr	r0, .L38+24
 851 00aa FFF7FEFF 		bl	chSysHalt
 852              	.LVL65:
 853 00ae CEE7     		b	.L33
 854              	.LVL66:
 855              	.L37:
ARM GAS  /var/folders/qd/4mxf5pkd0zdf0b9dd1hp39180000gn/T//ccn3RVaQ.s 			page 16


 856              	.LBE316:
 857              	.LBE317:
 858              	.LBE318:
 859              	.LBE325:
 860              		.loc 1 262 0
 861 00b0 FFF7FEFF 		bl	__stack_chk_fail
 862              	.LVL67:
 863              	.L39:
 864              		.align	2
 865              	.L38:
 866 00b4 00000000 		.word	__stack_chk_guard
 867 00b8 00000000 		.word	.LANCHOR5
 868 00bc 00000000 		.word	ch
 869 00c0 E5D0823F 		.word	1065537765
 870 00c4 D34D6210 		.word	274877907
 871 00c8 00000000 		.word	.LANCHOR4
 872 00cc 00000000 		.word	.LANCHOR1
 873              		.cfi_endproc
 874              	.LFE262:
 875              		.size	moveAndComputePositionWheelSpeedType, .-moveAndComputePositionWheelSpeedType
 876              		.section	.text.moveAndComputePositionRobotSpeedType,"ax",%progbits
 877              		.align	1
 878              		.p2align 4,,15
 879              		.global	moveAndComputePositionRobotSpeedType
 880              		.syntax unified
 881              		.thumb
 882              		.thumb_func
 883              		.fpu fpv4-sp-d16
 884              		.type	moveAndComputePositionRobotSpeedType, %function
 885              	moveAndComputePositionRobotSpeedType:
 886              	.LFB263:
 887              		.loc 1 265 0
 888              		.cfi_startproc
 889              		@ args = 0, pretend = 0, frame = 16
 890              		@ frame_needed = 0, uses_anonymous_args = 0
 891              	.LVL68:
 892 0000 30B5     		push	{r4, r5, lr}
 893              		.cfi_def_cfa_offset 12
 894              		.cfi_offset 4, -12
 895              		.cfi_offset 5, -8
 896              		.cfi_offset 14, -4
 897 0002 0C4C     		ldr	r4, .L44
 898 0004 85B0     		sub	sp, sp, #20
 899              		.cfi_def_cfa_offset 32
 900              		.loc 1 265 0
 901 0006 2368     		ldr	r3, [r4]
 902 0008 0393     		str	r3, [sp, #12]
 903 000a 0D46     		mov	r5, r1
 904              		.loc 1 266 0
 905 000c 03C8     		ldm	r0, {r0, r1}
 906              	.LVL69:
 907 000e FFF7FEFF 		bl	mod_motors_convertRobotSpeedToWheelspeed
 908              	.LVL70:
 909              		.loc 1 267 0
 910 0012 2946     		mov	r1, r5
 911 0014 01A8     		add	r0, sp, #4
 912              		.loc 1 266 0
ARM GAS  /var/folders/qd/4mxf5pkd0zdf0b9dd1hp39180000gn/T//ccn3RVaQ.s 			page 17


 913 0016 8DED010A 		vstr.32	s0, [sp, #4]
 914 001a CDED020A 		vstr.32	s1, [sp, #8]
 915              		.loc 1 267 0
 916 001e FFF7FEFF 		bl	moveAndComputePositionWheelSpeedType
 917              	.LVL71:
 918              		.loc 1 268 0
 919 0022 039A     		ldr	r2, [sp, #12]
 920 0024 2368     		ldr	r3, [r4]
 921 0026 9A42     		cmp	r2, r3
 922 0028 01D1     		bne	.L43
 923 002a 05B0     		add	sp, sp, #20
 924              		.cfi_remember_state
 925              		.cfi_def_cfa_offset 12
 926              		@ sp needed
 927 002c 30BD     		pop	{r4, r5, pc}
 928              	.LVL72:
 929              	.L43:
 930              		.cfi_restore_state
 931 002e FFF7FEFF 		bl	__stack_chk_fail
 932              	.LVL73:
 933              	.L45:
 934 0032 00BF     		.align	2
 935              	.L44:
 936 0034 00000000 		.word	__stack_chk_guard
 937              		.cfi_endproc
 938              	.LFE263:
 939              		.size	moveAndComputePositionRobotSpeedType, .-moveAndComputePositionRobotSpeedType
 940              		.section	.text.moveWheelSpeedType,"ax",%progbits
 941              		.align	1
 942              		.p2align 4,,15
 943              		.global	moveWheelSpeedType
 944              		.syntax unified
 945              		.thumb
 946              		.thumb_func
 947              		.fpu fpv4-sp-d16
 948              		.type	moveWheelSpeedType, %function
 949              	moveWheelSpeedType:
 950              	.LFB264:
 951              		.loc 1 271 0
 952              		.cfi_startproc
 953              		@ args = 0, pretend = 0, frame = 8
 954              		@ frame_needed = 0, uses_anonymous_args = 0
 955              	.LVL74:
 956 0000 F0B5     		push	{r4, r5, r6, r7, lr}
 957              		.cfi_def_cfa_offset 20
 958              		.cfi_offset 4, -20
 959              		.cfi_offset 5, -16
 960              		.cfi_offset 6, -12
 961              		.cfi_offset 7, -8
 962              		.cfi_offset 14, -4
 963 0002 224D     		ldr	r5, .L53
 964 0004 83B0     		sub	sp, sp, #12
 965              		.cfi_def_cfa_offset 32
 966              		.loc 1 271 0
 967 0006 2B68     		ldr	r3, [r5]
 968 0008 0193     		str	r3, [sp, #4]
 969 000a 0446     		mov	r4, r0
ARM GAS  /var/folders/qd/4mxf5pkd0zdf0b9dd1hp39180000gn/T//ccn3RVaQ.s 			page 18


 970 000c 0F46     		mov	r7, r1
 971              		.loc 1 272 0
 972 000e 2048     		ldr	r0, .L53+4
 973              	.LVL75:
 974 0010 0521     		movs	r1, #5
 975              	.LVL76:
 976 0012 FFF7FEFF 		bl	mod_com_writeMessage
 977              	.LVL77:
 978              		.loc 1 273 0
 979 0016 94ED000A 		vldr.32	s0, [r4]
 980 001a D4ED010A 		vldr.32	s1, [r4, #4]
 981 001e FFF7FEFF 		bl	mod_motors_changeStateWheelSpeedType
 982              	.LVL78:
 983              	.LBB340:
 984              	.LBB341:
 985              	.LBB342:
 986              	.LBB343:
 987              	.LBB344:
 988              	.LBB345:
 989              	.LBB346:
 990              		.loc 2 546 0
 991 0022 2023     		movs	r3, #32
 992              		.syntax unified
 993              	@ 546 "lib/e-puck2_main-processor/ChibiOS//os/ext/CMSIS/include/core_cmFunc.h" 1
 994 0024 83F31188 		MSR basepri, r3
 995              	@ 0 "" 2
 996              	.LVL79:
 997              		.thumb
 998              		.syntax unified
 999              	.LBE346:
 1000              	.LBE345:
 1001              	.LBE344:
 1002              	.LBE343:
 1003              	.LBE342:
 1004              	.LBB348:
 1005              	.LBB349:
 1006              		.loc 4 231 0
 1007 0028 1A4C     		ldr	r4, .L53+8
 1008              	.LVL80:
 1009              	.LBE349:
 1010              	.LBE348:
 1011              	.LBB351:
 1012              	.LBB347:
 1013              		.loc 3 349 0
 1014 002a FFF7FEFF 		bl	_stats_start_measure_crit_thd
 1015              	.LVL81:
 1016              		.loc 3 350 0
 1017 002e FFF7FEFF 		bl	_dbg_check_lock
 1018              	.LVL82:
 1019              	.LBE347:
 1020              	.LBE351:
 1021              	.LBB352:
 1022              	.LBB350:
 1023              		.loc 4 231 0
 1024 0032 A66A     		ldr	r6, [r4, #40]
 1025              	.LBE350:
 1026              	.LBE352:
ARM GAS  /var/folders/qd/4mxf5pkd0zdf0b9dd1hp39180000gn/T//ccn3RVaQ.s 			page 19


 1027              	.LBB353:
 1028              	.LBB354:
 1029              		.loc 3 360 0
 1030 0034 FFF7FEFF 		bl	_dbg_check_unlock
 1031              	.LVL83:
 1032              		.loc 3 361 0
 1033 0038 FFF7FEFF 		bl	_stats_stop_measure_crit_thd
 1034              	.LVL84:
 1035              		.loc 3 367 0
 1036 003c 2368     		ldr	r3, [r4]
 1037 003e A342     		cmp	r3, r4
 1038 0040 04D0     		beq	.L47
 1039 0042 A269     		ldr	r2, [r4, #24]
 1040 0044 9B68     		ldr	r3, [r3, #8]
 1041 0046 9268     		ldr	r2, [r2, #8]
 1042 0048 9A42     		cmp	r2, r3
 1043 004a 19D3     		bcc	.L51
 1044              	.L47:
 1045              	.LVL85:
 1046              	.LBB355:
 1047              	.LBB356:
 1048              	.LBB357:
 1049              		.loc 2 546 0
 1050 004c 0023     		movs	r3, #0
 1051              		.syntax unified
 1052              	@ 546 "lib/e-puck2_main-processor/ChibiOS//os/ext/CMSIS/include/core_cmFunc.h" 1
 1053 004e 83F31188 		MSR basepri, r3
 1054              	@ 0 "" 2
 1055              	.LVL86:
 1056              		.thumb
 1057              		.syntax unified
 1058              	.LBE357:
 1059              	.LBE356:
 1060              	.LBE355:
 1061              	.LBE354:
 1062              	.LBE353:
 1063              	.LBE341:
 1064              	.LBE340:
 1065              		.loc 1 275 0
 1066 0052 4FF47A71 		mov	r1, #1000
 1067 0056 104B     		ldr	r3, .L53+12
 1068 0058 01FB07F1 		mul	r1, r1, r7
 1069 005c 01F2E731 		addw	r1, r1, #999
 1070 0060 A3FB0131 		umull	r3, r1, r3, r1
 1071 0064 06EB9111 		add	r1, r6, r1, lsr #6
 1072 0068 3046     		mov	r0, r6
 1073 006a FFF7FEFF 		bl	chThdSleepUntilWindowed
 1074              	.LVL87:
 1075              		.loc 1 276 0
 1076 006e 019A     		ldr	r2, [sp, #4]
 1077 0070 2B68     		ldr	r3, [r5]
 1078 0072 9A42     		cmp	r2, r3
 1079 0074 08D1     		bne	.L52
 1080              		.loc 1 277 0
 1081 0076 03B0     		add	sp, sp, #12
 1082              		.cfi_remember_state
 1083              		.cfi_def_cfa_offset 20
ARM GAS  /var/folders/qd/4mxf5pkd0zdf0b9dd1hp39180000gn/T//ccn3RVaQ.s 			page 20


 1084              		@ sp needed
 1085 0078 BDE8F040 		pop	{r4, r5, r6, r7, lr}
 1086              		.cfi_restore 14
 1087              		.cfi_restore 7
 1088              		.cfi_restore 6
 1089              		.cfi_restore 5
 1090              		.cfi_restore 4
 1091              		.cfi_def_cfa_offset 0
 1092              	.LVL88:
 1093              		.loc 1 276 0
 1094 007c FFF7FEBF 		b	mod_motors_stop
 1095              	.LVL89:
 1096              	.L51:
 1097              		.cfi_restore_state
 1098              	.LBB361:
 1099              	.LBB360:
 1100              	.LBB359:
 1101              	.LBB358:
 1102              		.loc 3 367 0
 1103 0080 0648     		ldr	r0, .L53+16
 1104 0082 FFF7FEFF 		bl	chSysHalt
 1105              	.LVL90:
 1106 0086 E1E7     		b	.L47
 1107              	.L52:
 1108              	.LBE358:
 1109              	.LBE359:
 1110              	.LBE360:
 1111              	.LBE361:
 1112              		.loc 1 276 0
 1113 0088 FFF7FEFF 		bl	__stack_chk_fail
 1114              	.LVL91:
 1115              	.L54:
 1116              		.align	2
 1117              	.L53:
 1118 008c 00000000 		.word	__stack_chk_guard
 1119 0090 00000000 		.word	.LC2
 1120 0094 00000000 		.word	ch
 1121 0098 D34D6210 		.word	274877907
 1122 009c 00000000 		.word	.LANCHOR1
 1123              		.cfi_endproc
 1124              	.LFE264:
 1125              		.size	moveWheelSpeedType, .-moveWheelSpeedType
 1126              		.section	.text.moveRobotSpeedType,"ax",%progbits
 1127              		.align	1
 1128              		.p2align 4,,15
 1129              		.global	moveRobotSpeedType
 1130              		.syntax unified
 1131              		.thumb
 1132              		.thumb_func
 1133              		.fpu fpv4-sp-d16
 1134              		.type	moveRobotSpeedType, %function
 1135              	moveRobotSpeedType:
 1136              	.LFB265:
 1137              		.loc 1 280 0
 1138              		.cfi_startproc
 1139              		@ args = 0, pretend = 0, frame = 16
 1140              		@ frame_needed = 0, uses_anonymous_args = 0
ARM GAS  /var/folders/qd/4mxf5pkd0zdf0b9dd1hp39180000gn/T//ccn3RVaQ.s 			page 21


 1141              	.LVL92:
 1142 0000 70B5     		push	{r4, r5, r6, lr}
 1143              		.cfi_def_cfa_offset 16
 1144              		.cfi_offset 4, -16
 1145              		.cfi_offset 5, -12
 1146              		.cfi_offset 6, -8
 1147              		.cfi_offset 14, -4
 1148 0002 0F4C     		ldr	r4, .L59
 1149 0004 84B0     		sub	sp, sp, #16
 1150              		.cfi_def_cfa_offset 32
 1151              		.loc 1 280 0
 1152 0006 2368     		ldr	r3, [r4]
 1153 0008 0393     		str	r3, [sp, #12]
 1154 000a 0546     		mov	r5, r0
 1155 000c 0E46     		mov	r6, r1
 1156              		.loc 1 281 0
 1157 000e 0D48     		ldr	r0, .L59+4
 1158              	.LVL93:
 1159 0010 0521     		movs	r1, #5
 1160              	.LVL94:
 1161 0012 FFF7FEFF 		bl	mod_com_writeMessage
 1162              	.LVL95:
 1163              		.loc 1 282 0
 1164 0016 95E80300 		ldm	r5, {r0, r1}
 1165 001a FFF7FEFF 		bl	mod_motors_convertRobotSpeedToWheelspeed
 1166              	.LVL96:
 1167              		.loc 1 283 0
 1168 001e 3146     		mov	r1, r6
 1169 0020 01A8     		add	r0, sp, #4
 1170              		.loc 1 282 0
 1171 0022 8DED010A 		vstr.32	s0, [sp, #4]
 1172 0026 CDED020A 		vstr.32	s1, [sp, #8]
 1173              		.loc 1 283 0
 1174 002a FFF7FEFF 		bl	moveWheelSpeedType
 1175              	.LVL97:
 1176              		.loc 1 284 0
 1177 002e 039A     		ldr	r2, [sp, #12]
 1178 0030 2368     		ldr	r3, [r4]
 1179 0032 9A42     		cmp	r2, r3
 1180 0034 01D1     		bne	.L58
 1181 0036 04B0     		add	sp, sp, #16
 1182              		.cfi_remember_state
 1183              		.cfi_def_cfa_offset 16
 1184              		@ sp needed
 1185 0038 70BD     		pop	{r4, r5, r6, pc}
 1186              	.LVL98:
 1187              	.L58:
 1188              		.cfi_restore_state
 1189 003a FFF7FEFF 		bl	__stack_chk_fail
 1190              	.LVL99:
 1191              	.L60:
 1192 003e 00BF     		.align	2
 1193              	.L59:
 1194 0040 00000000 		.word	__stack_chk_guard
 1195 0044 00000000 		.word	.LC2
 1196              		.cfi_endproc
 1197              	.LFE265:
ARM GAS  /var/folders/qd/4mxf5pkd0zdf0b9dd1hp39180000gn/T//ccn3RVaQ.s 			page 22


 1198              		.size	moveRobotSpeedType, .-moveRobotSpeedType
 1199              		.global	__aeabi_f2d
 1200              		.global	__aeabi_dmul
 1201              		.global	__aeabi_ddiv
 1202              		.global	__aeabi_d2iz
 1203              		.section	.text.moveInAbsoluteDirection,"ax",%progbits
 1204              		.align	1
 1205              		.p2align 4,,15
 1206              		.global	moveInAbsoluteDirection
 1207              		.syntax unified
 1208              		.thumb
 1209              		.thumb_func
 1210              		.fpu fpv4-sp-d16
 1211              		.type	moveInAbsoluteDirection, %function
 1212              	moveInAbsoluteDirection:
 1213              	.LFB267:
 1214              		.loc 1 293 0
 1215              		.cfi_startproc
 1216              		@ args = 0, pretend = 0, frame = 40
 1217              		@ frame_needed = 0, uses_anonymous_args = 0
 1218              	.LVL100:
 1219 0000 30B5     		push	{r4, r5, lr}
 1220              		.cfi_def_cfa_offset 12
 1221              		.cfi_offset 4, -12
 1222              		.cfi_offset 5, -8
 1223              		.cfi_offset 14, -4
 1224 0002 2DED028B 		vpush.64	{d8}
 1225              		.cfi_def_cfa_offset 20
 1226              		.cfi_offset 80, -20
 1227              		.cfi_offset 81, -16
 1228 0006 2C4C     		ldr	r4, .L67+8
 1229              		.loc 1 294 0
 1230 0008 2C48     		ldr	r0, .L67+12
 1231              		.loc 1 293 0
 1232 000a 2368     		ldr	r3, [r4]
 1233 000c 8BB0     		sub	sp, sp, #44
 1234              		.cfi_def_cfa_offset 64
 1235              		.loc 1 294 0
 1236 000e 0521     		movs	r1, #5
 1237              		.loc 1 293 0
 1238 0010 B0EE408A 		vmov.f32	s16, s0
 1239 0014 0993     		str	r3, [sp, #36]
 1240              		.loc 1 294 0
 1241 0016 FFF7FEFF 		bl	mod_com_writeMessage
 1242              	.LVL101:
 1243              		.loc 1 295 0
 1244 001a B0EE480A 		vmov.f32	s0, s16
 1245 001e FFF7FEFF 		bl	mod_mapping_getRelativeAngle
 1246              	.LVL102:
 1247              		.loc 1 296 0
 1248 0022 9FED277A 		vldr.32	s14, .L67+16
 1249 0026 DFED277A 		vldr.32	s15, .L67+20
 1250 002a B5EEC00A 		vcmpe.f32	s0, #0
 1251 002e F1EE10FA 		vmrs	APSR_nzcv, FPSCR
 1252 0032 58BF     		it	pl
 1253 0034 F0EE477A 		vmovpl.f32	s15, s14
 1254 0038 B0EEC07A 		vabs.f32	s14, s0
ARM GAS  /var/folders/qd/4mxf5pkd0zdf0b9dd1hp39180000gn/T//ccn3RVaQ.s 			page 23


 1255 003c 17EE100A 		vmov	r0, s14
 1256 0040 0023     		movs	r3, #0
 1257 0042 CDED027A 		vstr.32	s15, [sp, #8]
 1258 0046 0193     		str	r3, [sp, #4]
 1259 0048 FFF7FEFF 		bl	__aeabi_f2d
 1260              	.LVL103:
 1261 004c 0022     		movs	r2, #0
 1262 004e 1E4B     		ldr	r3, .L67+24
 1263 0050 FFF7FEFF 		bl	__aeabi_dmul
 1264              	.LVL104:
 1265 0054 16A3     		adr	r3, .L67
 1266 0056 D3E90023 		ldrd	r2, [r3]
 1267 005a FFF7FEFF 		bl	__aeabi_ddiv
 1268              	.LVL105:
 1269 005e FFF7FEFF 		bl	__aeabi_d2iz
 1270              	.LVL106:
 1271 0062 0146     		mov	r1, r0
 1272 0064 01A8     		add	r0, sp, #4
 1273 0066 FFF7FEFF 		bl	moveAndComputePositionRobotSpeedType
 1274              	.LVL107:
 1275 006a 0025     		movs	r5, #0
 1276              		.loc 1 297 0
 1277 006c 2823     		movs	r3, #40
 1278 006e 0393     		str	r3, [sp, #12]
 1279 0070 0495     		str	r5, [sp, #16]	@ float
 1280 0072 03AB     		add	r3, sp, #12
 1281 0074 93E80300 		ldm	r3, {r0, r1}
 1282 0078 FFF7FEFF 		bl	mod_motors_convertRobotSpeedToWheelspeed
 1283              	.LVL108:
 1284 007c 05AB     		add	r3, sp, #20
 1285 007e 8DED050A 		vstr.32	s0, [sp, #20]
 1286 0082 CDED060A 		vstr.32	s1, [sp, #24]
 1287 0086 93E80300 		ldm	r3, {r0, r1}
 1288              	.LBB362:
 1289              	.LBB363:
 1290              		.loc 1 246 0
 1291 008a 104A     		ldr	r2, .L67+28
 1292 008c 07AB     		add	r3, sp, #28
 1293 008e 83E80300 		stm	r3, {r0, r1}
 1294 0092 1946     		mov	r1, r3
 1295 0094 1068     		ldr	r0, [r2]
 1296 0096 FFF7FEFF 		bl	chMsgSend
 1297              	.LVL109:
 1298              	.LBE363:
 1299              	.LBE362:
 1300              		.loc 1 298 0
 1301 009a 099A     		ldr	r2, [sp, #36]
 1302 009c 2368     		ldr	r3, [r4]
 1303 009e 9A42     		cmp	r2, r3
 1304 00a0 03D1     		bne	.L66
 1305 00a2 0BB0     		add	sp, sp, #44
 1306              		.cfi_remember_state
 1307              		.cfi_def_cfa_offset 20
 1308              		@ sp needed
 1309 00a4 BDEC028B 		vldm	sp!, {d8}
 1310              		.cfi_restore 80
 1311              		.cfi_restore 81
ARM GAS  /var/folders/qd/4mxf5pkd0zdf0b9dd1hp39180000gn/T//ccn3RVaQ.s 			page 24


 1312              		.cfi_def_cfa_offset 12
 1313              	.LVL110:
 1314 00a8 30BD     		pop	{r4, r5, pc}
 1315              	.LVL111:
 1316              	.L66:
 1317              		.cfi_restore_state
 1318 00aa FFF7FEFF 		bl	__stack_chk_fail
 1319              	.LVL112:
 1320              	.L68:
 1321 00ae 00BF     		.align	3
 1322              	.L67:
 1323 00b0 000000A0 		.word	2684354560
 1324 00b4 9999D93F 		.word	1071225241
 1325 00b8 00000000 		.word	__stack_chk_guard
 1326 00bc 00000000 		.word	.LC3
 1327 00c0 CDCCCC3E 		.word	1053609165
 1328 00c4 CDCCCCBE 		.word	3201092813
 1329 00c8 00408F40 		.word	1083129856
 1330 00cc 00000000 		.word	.LANCHOR5
 1331              		.cfi_endproc
 1332              	.LFE267:
 1333              		.size	moveInAbsoluteDirection, .-moveInAbsoluteDirection
 1334              		.section	.text.changeAngleRelative,"ax",%progbits
 1335              		.align	1
 1336              		.p2align 4,,15
 1337              		.global	changeAngleRelative
 1338              		.syntax unified
 1339              		.thumb
 1340              		.thumb_func
 1341              		.fpu fpv4-sp-d16
 1342              		.type	changeAngleRelative, %function
 1343              	changeAngleRelative:
 1344              	.LFB268:
 1345              		.loc 1 301 0
 1346              		.cfi_startproc
 1347              		@ args = 0, pretend = 0, frame = 16
 1348              		@ frame_needed = 0, uses_anonymous_args = 0
 1349              	.LVL113:
 1350 0000 10B5     		push	{r4, lr}
 1351              		.cfi_def_cfa_offset 8
 1352              		.cfi_offset 4, -8
 1353              		.cfi_offset 14, -4
 1354              		.loc 1 302 0
 1355 0002 9FED1B7A 		vldr.32	s14, .L75+8
 1356 0006 DFED1B7A 		vldr.32	s15, .L75+12
 1357              		.loc 1 301 0
 1358 000a 1B4C     		ldr	r4, .L75+16
 1359              		.loc 1 302 0
 1360 000c B5EEC00A 		vcmpe.f32	s0, #0
 1361 0010 F1EE10FA 		vmrs	APSR_nzcv, FPSCR
 1362              		.loc 1 301 0
 1363 0014 84B0     		sub	sp, sp, #16
 1364              		.cfi_def_cfa_offset 24
 1365              		.loc 1 302 0
 1366 0016 58BF     		it	pl
 1367 0018 F0EE477A 		vmovpl.f32	s15, s14
 1368 001c CDED027A 		vstr.32	s15, [sp, #8]
ARM GAS  /var/folders/qd/4mxf5pkd0zdf0b9dd1hp39180000gn/T//ccn3RVaQ.s 			page 25


 1369 0020 F0EEC07A 		vabs.f32	s15, s0
 1370 0024 17EE900A 		vmov	r0, s15
 1371              		.loc 1 301 0
 1372 0028 2268     		ldr	r2, [r4]
 1373 002a 0392     		str	r2, [sp, #12]
 1374              		.loc 1 302 0
 1375 002c 0023     		movs	r3, #0
 1376 002e 0193     		str	r3, [sp, #4]
 1377 0030 FFF7FEFF 		bl	__aeabi_f2d
 1378              	.LVL114:
 1379 0034 0022     		movs	r2, #0
 1380 0036 114B     		ldr	r3, .L75+20
 1381 0038 FFF7FEFF 		bl	__aeabi_dmul
 1382              	.LVL115:
 1383 003c 0AA3     		adr	r3, .L75
 1384 003e D3E90023 		ldrd	r2, [r3]
 1385 0042 FFF7FEFF 		bl	__aeabi_ddiv
 1386              	.LVL116:
 1387 0046 FFF7FEFF 		bl	__aeabi_d2iz
 1388              	.LVL117:
 1389 004a 0146     		mov	r1, r0
 1390 004c 01A8     		add	r0, sp, #4
 1391 004e FFF7FEFF 		bl	moveAndComputePositionRobotSpeedType
 1392              	.LVL118:
 1393              		.loc 1 303 0
 1394 0052 039A     		ldr	r2, [sp, #12]
 1395 0054 2368     		ldr	r3, [r4]
 1396 0056 9A42     		cmp	r2, r3
 1397 0058 01D1     		bne	.L74
 1398 005a 04B0     		add	sp, sp, #16
 1399              		.cfi_remember_state
 1400              		.cfi_def_cfa_offset 8
 1401              		@ sp needed
 1402 005c 10BD     		pop	{r4, pc}
 1403              	.L74:
 1404              		.cfi_restore_state
 1405 005e FFF7FEFF 		bl	__stack_chk_fail
 1406              	.LVL119:
 1407              	.L76:
 1408 0062 00BFAFF3 		.align	3
 1408      0080
 1409              	.L75:
 1410 0068 000000A0 		.word	2684354560
 1411 006c 9999D93F 		.word	1071225241
 1412 0070 CDCCCC3E 		.word	1053609165
 1413 0074 CDCCCCBE 		.word	3201092813
 1414 0078 00000000 		.word	__stack_chk_guard
 1415 007c 00408F40 		.word	1083129856
 1416              		.cfi_endproc
 1417              	.LFE268:
 1418              		.size	changeAngleRelative, .-changeAngleRelative
 1419              		.global	__aeabi_i2d
 1420              		.section	.text.moveAndComputePositionDistanceType,"ax",%progbits
 1421              		.align	1
 1422              		.p2align 4,,15
 1423              		.global	moveAndComputePositionDistanceType
 1424              		.syntax unified
ARM GAS  /var/folders/qd/4mxf5pkd0zdf0b9dd1hp39180000gn/T//ccn3RVaQ.s 			page 26


 1425              		.thumb
 1426              		.thumb_func
 1427              		.fpu fpv4-sp-d16
 1428              		.type	moveAndComputePositionDistanceType, %function
 1429              	moveAndComputePositionDistanceType:
 1430              	.LFB266:
 1431              		.loc 1 287 0
 1432              		.cfi_startproc
 1433              		@ args = 0, pretend = 0, frame = 16
 1434              		@ frame_needed = 0, uses_anonymous_args = 0
 1435              	.LVL120:
 1436 0000 30B5     		push	{r4, r5, lr}
 1437              		.cfi_def_cfa_offset 12
 1438              		.cfi_offset 4, -12
 1439              		.cfi_offset 5, -8
 1440              		.cfi_offset 14, -4
 1441 0002 184C     		ldr	r4, .L83
 1442              		.loc 1 288 0
 1443 0004 90ED010A 		vldr.32	s0, [r0, #4]
 1444              		.loc 1 287 0
 1445 0008 2368     		ldr	r3, [r4]
 1446 000a 85B0     		sub	sp, sp, #20
 1447              		.cfi_def_cfa_offset 32
 1448              		.loc 1 287 0
 1449 000c 0546     		mov	r5, r0
 1450 000e 0393     		str	r3, [sp, #12]
 1451              		.loc 1 288 0
 1452 0010 FFF7FEFF 		bl	changeAngleRelative
 1453              	.LVL121:
 1454              		.loc 1 289 0
 1455 0014 2B68     		ldr	r3, [r5]
 1456 0016 1448     		ldr	r0, .L83+4
 1457 0018 002B     		cmp	r3, #0
 1458 001a 80FB0310 		smull	r1, r0, r0, r3
 1459 001e 4FEAE373 		asr	r3, r3, #31
 1460 0022 B4BF     		ite	lt
 1461 0024 6FF02701 		mvnlt	r1, #39
 1462 0028 2821     		movge	r1, #40
 1463 002a 0022     		movs	r2, #0
 1464 002c C3EB2010 		rsb	r0, r3, r0, asr #4
 1465 0030 0292     		str	r2, [sp, #8]	@ float
 1466 0032 0191     		str	r1, [sp, #4]
 1467 0034 FFF7FEFF 		bl	__aeabi_i2d
 1468              	.LVL122:
 1469 0038 21F00043 		bic	r3, r1, #-2147483648
 1470 003c 0022     		movs	r2, #0
 1471 003e 1946     		mov	r1, r3
 1472 0040 0A4B     		ldr	r3, .L83+8
 1473 0042 FFF7FEFF 		bl	__aeabi_dmul
 1474              	.LVL123:
 1475 0046 FFF7FEFF 		bl	__aeabi_d2iz
 1476              	.LVL124:
 1477 004a 0146     		mov	r1, r0
 1478 004c 01A8     		add	r0, sp, #4
 1479 004e FFF7FEFF 		bl	moveAndComputePositionRobotSpeedType
 1480              	.LVL125:
 1481              		.loc 1 290 0
ARM GAS  /var/folders/qd/4mxf5pkd0zdf0b9dd1hp39180000gn/T//ccn3RVaQ.s 			page 27


 1482 0052 039A     		ldr	r2, [sp, #12]
 1483 0054 2368     		ldr	r3, [r4]
 1484 0056 9A42     		cmp	r2, r3
 1485 0058 01D1     		bne	.L82
 1486 005a 05B0     		add	sp, sp, #20
 1487              		.cfi_remember_state
 1488              		.cfi_def_cfa_offset 12
 1489              		@ sp needed
 1490 005c 30BD     		pop	{r4, r5, pc}
 1491              	.LVL126:
 1492              	.L82:
 1493              		.cfi_restore_state
 1494 005e FFF7FEFF 		bl	__stack_chk_fail
 1495              	.LVL127:
 1496              	.L84:
 1497 0062 00BF     		.align	2
 1498              	.L83:
 1499 0064 00000000 		.word	__stack_chk_guard
 1500 0068 67666666 		.word	1717986919
 1501 006c 00408F40 		.word	1083129856
 1502              		.cfi_endproc
 1503              	.LFE266:
 1504              		.size	moveAndComputePositionDistanceType, .-moveAndComputePositionDistanceType
 1505              		.section	.text.changeAngleAbsolute,"ax",%progbits
 1506              		.align	1
 1507              		.p2align 4,,15
 1508              		.global	changeAngleAbsolute
 1509              		.syntax unified
 1510              		.thumb
 1511              		.thumb_func
 1512              		.fpu fpv4-sp-d16
 1513              		.type	changeAngleAbsolute, %function
 1514              	changeAngleAbsolute:
 1515              	.LFB269:
 1516              		.loc 1 306 0
 1517              		.cfi_startproc
 1518              		@ args = 0, pretend = 0, frame = 8
 1519              		@ frame_needed = 0, uses_anonymous_args = 0
 1520              	.LVL128:
 1521 0000 10B5     		push	{r4, lr}
 1522              		.cfi_def_cfa_offset 8
 1523              		.cfi_offset 4, -8
 1524              		.cfi_offset 14, -4
 1525 0002 084C     		ldr	r4, .L90
 1526 0004 82B0     		sub	sp, sp, #8
 1527              		.cfi_def_cfa_offset 16
 1528              		.loc 1 306 0
 1529 0006 2368     		ldr	r3, [r4]
 1530 0008 0193     		str	r3, [sp, #4]
 1531              		.loc 1 307 0
 1532 000a FFF7FEFF 		bl	mod_mapping_getRelativeAngle
 1533              	.LVL129:
 1534 000e 019A     		ldr	r2, [sp, #4]
 1535 0010 2368     		ldr	r3, [r4]
 1536 0012 9A42     		cmp	r2, r3
 1537 0014 04D1     		bne	.L89
 1538              		.loc 1 308 0
ARM GAS  /var/folders/qd/4mxf5pkd0zdf0b9dd1hp39180000gn/T//ccn3RVaQ.s 			page 28


 1539 0016 02B0     		add	sp, sp, #8
 1540              		.cfi_remember_state
 1541              		.cfi_def_cfa_offset 8
 1542              		@ sp needed
 1543 0018 BDE81040 		pop	{r4, lr}
 1544              		.cfi_restore 14
 1545              		.cfi_restore 4
 1546              		.cfi_def_cfa_offset 0
 1547              		.loc 1 307 0
 1548 001c FFF7FEBF 		b	changeAngleRelative
 1549              	.LVL130:
 1550              	.L89:
 1551              		.cfi_restore_state
 1552 0020 FFF7FEFF 		bl	__stack_chk_fail
 1553              	.LVL131:
 1554              	.L91:
 1555              		.align	2
 1556              	.L90:
 1557 0024 00000000 		.word	__stack_chk_guard
 1558              		.cfi_endproc
 1559              	.LFE269:
 1560              		.size	changeAngleAbsolute, .-changeAngleAbsolute
 1561              		.section	.text.goTo,"ax",%progbits
 1562              		.align	1
 1563              		.p2align 4,,15
 1564              		.global	goTo
 1565              		.syntax unified
 1566              		.thumb
 1567              		.thumb_func
 1568              		.fpu fpv4-sp-d16
 1569              		.type	goTo, %function
 1570              	goTo:
 1571              	.LFB270:
 1572              		.loc 1 311 0
 1573              		.cfi_startproc
 1574              		@ args = 0, pretend = 0, frame = 16
 1575              		@ frame_needed = 0, uses_anonymous_args = 0
 1576              	.LVL132:
 1577 0000 10B5     		push	{r4, lr}
 1578              		.cfi_def_cfa_offset 8
 1579              		.cfi_offset 4, -8
 1580              		.cfi_offset 14, -4
 1581 0002 094C     		ldr	r4, .L96
 1582 0004 84B0     		sub	sp, sp, #16
 1583              		.cfi_def_cfa_offset 24
 1584              		.loc 1 311 0
 1585 0006 2368     		ldr	r3, [r4]
 1586 0008 0393     		str	r3, [sp, #12]
 1587              		.loc 1 312 0
 1588 000a 0146     		mov	r1, r0
 1589 000c 01A8     		add	r0, sp, #4
 1590              	.LVL133:
 1591 000e FFF7FEFF 		bl	mod_mapping_getRobotDisplacement
 1592              	.LVL134:
 1593              		.loc 1 313 0
 1594 0012 01A8     		add	r0, sp, #4
 1595 0014 FFF7FEFF 		bl	moveAndComputePositionDistanceType
ARM GAS  /var/folders/qd/4mxf5pkd0zdf0b9dd1hp39180000gn/T//ccn3RVaQ.s 			page 29


 1596              	.LVL135:
 1597              		.loc 1 314 0
 1598 0018 039A     		ldr	r2, [sp, #12]
 1599 001a 2368     		ldr	r3, [r4]
 1600 001c 9A42     		cmp	r2, r3
 1601 001e 01D1     		bne	.L95
 1602 0020 04B0     		add	sp, sp, #16
 1603              		.cfi_remember_state
 1604              		.cfi_def_cfa_offset 8
 1605              		@ sp needed
 1606 0022 10BD     		pop	{r4, pc}
 1607              	.L95:
 1608              		.cfi_restore_state
 1609 0024 FFF7FEFF 		bl	__stack_chk_fail
 1610              	.LVL136:
 1611              	.L97:
 1612              		.align	2
 1613              	.L96:
 1614 0028 00000000 		.word	__stack_chk_guard
 1615              		.cfi_endproc
 1616              	.LFE270:
 1617              		.size	goTo, .-goTo
 1618              		.section	.text.signalEndOfWork,"ax",%progbits
 1619              		.align	1
 1620              		.p2align 4,,15
 1621              		.global	signalEndOfWork
 1622              		.syntax unified
 1623              		.thumb
 1624              		.thumb_func
 1625              		.fpu fpv4-sp-d16
 1626              		.type	signalEndOfWork, %function
 1627              	signalEndOfWork:
 1628              	.LFB271:
 1629              		.loc 1 319 0
 1630              		.cfi_startproc
 1631              		@ args = 0, pretend = 0, frame = 8
 1632              		@ frame_needed = 0, uses_anonymous_args = 0
 1633 0000 10B5     		push	{r4, lr}
 1634              		.cfi_def_cfa_offset 8
 1635              		.cfi_offset 4, -8
 1636              		.cfi_offset 14, -4
 1637 0002 194C     		ldr	r4, .L106
 1638 0004 82B0     		sub	sp, sp, #8
 1639              		.cfi_def_cfa_offset 16
 1640              		.loc 1 319 0
 1641 0006 2368     		ldr	r3, [r4]
 1642 0008 0193     		str	r3, [sp, #4]
 1643              	.LVL137:
 1644              	.LBB378:
 1645              	.LBB379:
 1646              	.LBB380:
 1647              	.LBB381:
 1648              	.LBB382:
 1649              	.LBB383:
 1650              	.LBB384:
 1651              		.loc 2 546 0
 1652 000a 2023     		movs	r3, #32
ARM GAS  /var/folders/qd/4mxf5pkd0zdf0b9dd1hp39180000gn/T//ccn3RVaQ.s 			page 30


 1653              		.syntax unified
 1654              	@ 546 "lib/e-puck2_main-processor/ChibiOS//os/ext/CMSIS/include/core_cmFunc.h" 1
 1655 000c 83F31188 		MSR basepri, r3
 1656              	@ 0 "" 2
 1657              	.LVL138:
 1658              		.thumb
 1659              		.syntax unified
 1660              	.LBE384:
 1661              	.LBE383:
 1662              	.LBE382:
 1663              		.loc 3 349 0
 1664 0010 FFF7FEFF 		bl	_stats_start_measure_crit_thd
 1665              	.LVL139:
 1666              		.loc 3 350 0
 1667 0014 FFF7FEFF 		bl	_dbg_check_lock
 1668              	.LVL140:
 1669              	.LBE381:
 1670              	.LBE380:
 1671              	.LBB385:
 1672              	.LBB386:
 1673              		.loc 5 268 0
 1674 0018 FFF7FEFF 		bl	chDbgCheckClassI
 1675              	.LVL141:
 1676              		.loc 5 270 0
 1677 001c 1348     		ldr	r0, .L106+4
 1678 001e 8368     		ldr	r3, [r0, #8]
 1679 0020 002B     		cmp	r3, #0
 1680 0022 1BDD     		ble	.L103
 1681              	.L99:
 1682              	.LVL142:
 1683              	.LBE386:
 1684              	.LBE385:
 1685              		.loc 5 286 0
 1686 0024 FFF7FEFF 		bl	chSchRescheduleS
 1687              	.LVL143:
 1688              	.LBB388:
 1689              	.LBB389:
 1690              		.loc 3 360 0
 1691 0028 FFF7FEFF 		bl	_dbg_check_unlock
 1692              	.LVL144:
 1693              		.loc 3 361 0
 1694 002c FFF7FEFF 		bl	_stats_stop_measure_crit_thd
 1695              	.LVL145:
 1696              		.loc 3 367 0
 1697 0030 0F4B     		ldr	r3, .L106+8
 1698 0032 1A68     		ldr	r2, [r3]
 1699 0034 9A42     		cmp	r2, r3
 1700 0036 04D0     		beq	.L100
 1701 0038 9969     		ldr	r1, [r3, #24]
 1702 003a 9368     		ldr	r3, [r2, #8]
 1703 003c 8A68     		ldr	r2, [r1, #8]
 1704 003e 9A42     		cmp	r2, r3
 1705 0040 08D3     		bcc	.L104
 1706              	.L100:
 1707              	.LVL146:
 1708              	.LBB390:
 1709              	.LBB391:
ARM GAS  /var/folders/qd/4mxf5pkd0zdf0b9dd1hp39180000gn/T//ccn3RVaQ.s 			page 31


 1710              	.LBB392:
 1711              		.loc 2 546 0
 1712 0042 0023     		movs	r3, #0
 1713              		.syntax unified
 1714              	@ 546 "lib/e-puck2_main-processor/ChibiOS//os/ext/CMSIS/include/core_cmFunc.h" 1
 1715 0044 83F31188 		MSR basepri, r3
 1716              	@ 0 "" 2
 1717              	.LVL147:
 1718              		.thumb
 1719              		.syntax unified
 1720              	.LBE392:
 1721              	.LBE391:
 1722              	.LBE390:
 1723              	.LBE389:
 1724              	.LBE388:
 1725              	.LBE379:
 1726              	.LBE378:
 1727              		.loc 1 321 0
 1728 0048 019A     		ldr	r2, [sp, #4]
 1729 004a 2368     		ldr	r3, [r4]
 1730 004c 9A42     		cmp	r2, r3
 1731 004e 08D1     		bne	.L105
 1732 0050 02B0     		add	sp, sp, #8
 1733              		.cfi_remember_state
 1734              		.cfi_def_cfa_offset 8
 1735              		@ sp needed
 1736 0052 10BD     		pop	{r4, pc}
 1737              	.LVL148:
 1738              	.L104:
 1739              		.cfi_restore_state
 1740              	.LBB397:
 1741              	.LBB396:
 1742              	.LBB394:
 1743              	.LBB393:
 1744              		.loc 3 367 0
 1745 0054 0748     		ldr	r0, .L106+12
 1746 0056 FFF7FEFF 		bl	chSysHalt
 1747              	.LVL149:
 1748 005a F2E7     		b	.L100
 1749              	.LVL150:
 1750              	.L103:
 1751              	.LBE393:
 1752              	.LBE394:
 1753              	.LBB395:
 1754              	.LBB387:
 1755              		.loc 5 271 0
 1756 005c FFF7FEFF 		bl	chSemSignalI
 1757              	.LVL151:
 1758 0060 E0E7     		b	.L99
 1759              	.LVL152:
 1760              	.L105:
 1761              	.LBE387:
 1762              	.LBE395:
 1763              	.LBE396:
 1764              	.LBE397:
 1765              		.loc 1 321 0
 1766 0062 FFF7FEFF 		bl	__stack_chk_fail
ARM GAS  /var/folders/qd/4mxf5pkd0zdf0b9dd1hp39180000gn/T//ccn3RVaQ.s 			page 32


 1767              	.LVL153:
 1768              	.L107:
 1769 0066 00BF     		.align	2
 1770              	.L106:
 1771 0068 00000000 		.word	__stack_chk_guard
 1772 006c 00000000 		.word	.LANCHOR6
 1773 0070 00000000 		.word	ch
 1774 0074 00000000 		.word	.LANCHOR1
 1775              		.cfi_endproc
 1776              	.LFE271:
 1777              		.size	signalEndOfWork, .-signalEndOfWork
 1778              		.section	.text.signalEndMovement,"ax",%progbits
 1779              		.align	1
 1780              		.p2align 4,,15
 1781              		.global	signalEndMovement
 1782              		.syntax unified
 1783              		.thumb
 1784              		.thumb_func
 1785              		.fpu fpv4-sp-d16
 1786              		.type	signalEndMovement, %function
 1787              	signalEndMovement:
 1788              	.LFB272:
 1789              		.loc 1 324 0
 1790              		.cfi_startproc
 1791              		@ args = 0, pretend = 0, frame = 8
 1792              		@ frame_needed = 0, uses_anonymous_args = 0
 1793 0000 10B5     		push	{r4, lr}
 1794              		.cfi_def_cfa_offset 8
 1795              		.cfi_offset 4, -8
 1796              		.cfi_offset 14, -4
 1797 0002 194C     		ldr	r4, .L116
 1798 0004 82B0     		sub	sp, sp, #8
 1799              		.cfi_def_cfa_offset 16
 1800              		.loc 1 324 0
 1801 0006 2368     		ldr	r3, [r4]
 1802 0008 0193     		str	r3, [sp, #4]
 1803              	.LVL154:
 1804              	.LBB412:
 1805              	.LBB413:
 1806              	.LBB414:
 1807              	.LBB415:
 1808              	.LBB416:
 1809              	.LBB417:
 1810              	.LBB418:
 1811              		.loc 2 546 0
 1812 000a 2023     		movs	r3, #32
 1813              		.syntax unified
 1814              	@ 546 "lib/e-puck2_main-processor/ChibiOS//os/ext/CMSIS/include/core_cmFunc.h" 1
 1815 000c 83F31188 		MSR basepri, r3
 1816              	@ 0 "" 2
 1817              	.LVL155:
 1818              		.thumb
 1819              		.syntax unified
 1820              	.LBE418:
 1821              	.LBE417:
 1822              	.LBE416:
 1823              		.loc 3 349 0
ARM GAS  /var/folders/qd/4mxf5pkd0zdf0b9dd1hp39180000gn/T//ccn3RVaQ.s 			page 33


 1824 0010 FFF7FEFF 		bl	_stats_start_measure_crit_thd
 1825              	.LVL156:
 1826              		.loc 3 350 0
 1827 0014 FFF7FEFF 		bl	_dbg_check_lock
 1828              	.LVL157:
 1829              	.LBE415:
 1830              	.LBE414:
 1831              	.LBB419:
 1832              	.LBB420:
 1833              		.loc 5 268 0
 1834 0018 FFF7FEFF 		bl	chDbgCheckClassI
 1835              	.LVL158:
 1836              		.loc 5 270 0
 1837 001c 1348     		ldr	r0, .L116+4
 1838 001e 8368     		ldr	r3, [r0, #8]
 1839 0020 002B     		cmp	r3, #0
 1840 0022 1BDD     		ble	.L113
 1841              	.L109:
 1842              	.LVL159:
 1843              	.LBE420:
 1844              	.LBE419:
 1845              		.loc 5 286 0
 1846 0024 FFF7FEFF 		bl	chSchRescheduleS
 1847              	.LVL160:
 1848              	.LBB422:
 1849              	.LBB423:
 1850              		.loc 3 360 0
 1851 0028 FFF7FEFF 		bl	_dbg_check_unlock
 1852              	.LVL161:
 1853              		.loc 3 361 0
 1854 002c FFF7FEFF 		bl	_stats_stop_measure_crit_thd
 1855              	.LVL162:
 1856              		.loc 3 367 0
 1857 0030 0F4B     		ldr	r3, .L116+8
 1858 0032 1A68     		ldr	r2, [r3]
 1859 0034 9A42     		cmp	r2, r3
 1860 0036 04D0     		beq	.L110
 1861 0038 9969     		ldr	r1, [r3, #24]
 1862 003a 9368     		ldr	r3, [r2, #8]
 1863 003c 8A68     		ldr	r2, [r1, #8]
 1864 003e 9A42     		cmp	r2, r3
 1865 0040 08D3     		bcc	.L114
 1866              	.L110:
 1867              	.LVL163:
 1868              	.LBB424:
 1869              	.LBB425:
 1870              	.LBB426:
 1871              		.loc 2 546 0
 1872 0042 0023     		movs	r3, #0
 1873              		.syntax unified
 1874              	@ 546 "lib/e-puck2_main-processor/ChibiOS//os/ext/CMSIS/include/core_cmFunc.h" 1
 1875 0044 83F31188 		MSR basepri, r3
 1876              	@ 0 "" 2
 1877              	.LVL164:
 1878              		.thumb
 1879              		.syntax unified
 1880              	.LBE426:
ARM GAS  /var/folders/qd/4mxf5pkd0zdf0b9dd1hp39180000gn/T//ccn3RVaQ.s 			page 34


 1881              	.LBE425:
 1882              	.LBE424:
 1883              	.LBE423:
 1884              	.LBE422:
 1885              	.LBE413:
 1886              	.LBE412:
 1887              		.loc 1 326 0
 1888 0048 019A     		ldr	r2, [sp, #4]
 1889 004a 2368     		ldr	r3, [r4]
 1890 004c 9A42     		cmp	r2, r3
 1891 004e 08D1     		bne	.L115
 1892 0050 02B0     		add	sp, sp, #8
 1893              		.cfi_remember_state
 1894              		.cfi_def_cfa_offset 8
 1895              		@ sp needed
 1896 0052 10BD     		pop	{r4, pc}
 1897              	.LVL165:
 1898              	.L114:
 1899              		.cfi_restore_state
 1900              	.LBB431:
 1901              	.LBB430:
 1902              	.LBB428:
 1903              	.LBB427:
 1904              		.loc 3 367 0
 1905 0054 0748     		ldr	r0, .L116+12
 1906 0056 FFF7FEFF 		bl	chSysHalt
 1907              	.LVL166:
 1908 005a F2E7     		b	.L110
 1909              	.LVL167:
 1910              	.L113:
 1911              	.LBE427:
 1912              	.LBE428:
 1913              	.LBB429:
 1914              	.LBB421:
 1915              		.loc 5 271 0
 1916 005c FFF7FEFF 		bl	chSemSignalI
 1917              	.LVL168:
 1918 0060 E0E7     		b	.L109
 1919              	.LVL169:
 1920              	.L115:
 1921              	.LBE421:
 1922              	.LBE429:
 1923              	.LBE430:
 1924              	.LBE431:
 1925              		.loc 1 326 0
 1926 0062 FFF7FEFF 		bl	__stack_chk_fail
 1927              	.LVL170:
 1928              	.L117:
 1929 0066 00BF     		.align	2
 1930              	.L116:
 1931 0068 00000000 		.word	__stack_chk_guard
 1932 006c 00000000 		.word	.LANCHOR4
 1933 0070 00000000 		.word	ch
 1934 0074 00000000 		.word	.LANCHOR1
 1935              		.cfi_endproc
 1936              	.LFE272:
 1937              		.size	signalEndMovement, .-signalEndMovement
ARM GAS  /var/folders/qd/4mxf5pkd0zdf0b9dd1hp39180000gn/T//ccn3RVaQ.s 			page 35


 1938              		.section	.text.waitForMovementEnd,"ax",%progbits
 1939              		.align	1
 1940              		.p2align 4,,15
 1941              		.global	waitForMovementEnd
 1942              		.syntax unified
 1943              		.thumb
 1944              		.thumb_func
 1945              		.fpu fpv4-sp-d16
 1946              		.type	waitForMovementEnd, %function
 1947              	waitForMovementEnd:
 1948              	.LFB273:
 1949              		.loc 1 329 0
 1950              		.cfi_startproc
 1951              		@ args = 0, pretend = 0, frame = 8
 1952              		@ frame_needed = 0, uses_anonymous_args = 0
 1953 0000 00B5     		push	{lr}
 1954              		.cfi_def_cfa_offset 4
 1955              		.cfi_offset 14, -4
 1956 0002 084B     		ldr	r3, .L123
 1957 0004 83B0     		sub	sp, sp, #12
 1958              		.cfi_def_cfa_offset 16
 1959              		.loc 1 329 0
 1960 0006 1A68     		ldr	r2, [r3]
 1961 0008 0192     		str	r2, [sp, #4]
 1962              	.LVL171:
 1963              	.LBB432:
 1964              	.LBB433:
 1965              		.loc 5 143 0
 1966 000a 019A     		ldr	r2, [sp, #4]
 1967 000c 1B68     		ldr	r3, [r3]
 1968 000e 9A42     		cmp	r2, r3
 1969 0010 05D1     		bne	.L122
 1970 0012 0548     		ldr	r0, .L123+4
 1971              	.LBE433:
 1972              	.LBE432:
 1973              		.loc 1 331 0
 1974 0014 03B0     		add	sp, sp, #12
 1975              		.cfi_remember_state
 1976              		.cfi_def_cfa_offset 4
 1977              		@ sp needed
 1978 0016 5DF804EB 		ldr	lr, [sp], #4
 1979              		.cfi_restore 14
 1980              		.cfi_def_cfa_offset 0
 1981              	.LBB435:
 1982              	.LBB434:
 1983              		.loc 5 143 0
 1984 001a FFF7FEBF 		b	chSemWait
 1985              	.LVL172:
 1986              	.L122:
 1987              		.cfi_restore_state
 1988 001e FFF7FEFF 		bl	__stack_chk_fail
 1989              	.LVL173:
 1990              	.L124:
 1991 0022 00BF     		.align	2
 1992              	.L123:
 1993 0024 00000000 		.word	__stack_chk_guard
 1994 0028 00000000 		.word	.LANCHOR4
ARM GAS  /var/folders/qd/4mxf5pkd0zdf0b9dd1hp39180000gn/T//ccn3RVaQ.s 			page 36


 1995              	.LBE434:
 1996              	.LBE435:
 1997              		.cfi_endproc
 1998              	.LFE273:
 1999              		.size	waitForMovementEnd, .-waitForMovementEnd
 2000              		.section	.text.storeFrontDistanceSensorValue,"ax",%progbits
 2001              		.align	1
 2002              		.p2align 4,,15
 2003              		.global	storeFrontDistanceSensorValue
 2004              		.syntax unified
 2005              		.thumb
 2006              		.thumb_func
 2007              		.fpu fpv4-sp-d16
 2008              		.type	storeFrontDistanceSensorValue, %function
 2009              	storeFrontDistanceSensorValue:
 2010              	.LFB274:
 2011              		.loc 1 335 0
 2012              		.cfi_startproc
 2013              		@ args = 0, pretend = 0, frame = 16
 2014              		@ frame_needed = 0, uses_anonymous_args = 0
 2015              	.LVL174:
 2016 0000 F0B5     		push	{r4, r5, r6, r7, lr}
 2017              		.cfi_def_cfa_offset 20
 2018              		.cfi_offset 4, -20
 2019              		.cfi_offset 5, -16
 2020              		.cfi_offset 6, -12
 2021              		.cfi_offset 7, -8
 2022              		.cfi_offset 14, -4
 2023 0002 0C4E     		ldr	r6, .L129
 2024 0004 85B0     		sub	sp, sp, #20
 2025              		.cfi_def_cfa_offset 40
 2026              		.loc 1 335 0
 2027 0006 3368     		ldr	r3, [r6]
 2028 0008 0393     		str	r3, [sp, #12]
 2029 000a 0446     		mov	r4, r0
 2030              		.loc 1 336 0
 2031 000c FFF7FEFF 		bl	mod_sensors_getValueTOF
 2032              	.LVL175:
 2033              		.loc 1 337 0
 2034 0010 6D46     		mov	r5, sp
 2035              		.loc 1 336 0
 2036 0012 0746     		mov	r7, r0
 2037              	.LVL176:
 2038              		.loc 1 337 0
 2039 0014 2846     		mov	r0, r5
 2040              	.LVL177:
 2041 0016 FFF7FEFF 		bl	mod_mapping_getActualPosition
 2042              	.LVL178:
 2043 001a 95E80700 		ldm	r5, {r0, r1, r2}
 2044 001e 84E80700 		stm	r4, {r0, r1, r2}
 2045              		.loc 1 338 0
 2046 0022 039A     		ldr	r2, [sp, #12]
 2047 0024 3368     		ldr	r3, [r6]
 2048              		.loc 1 337 0
 2049 0026 E760     		str	r7, [r4, #12]
 2050              		.loc 1 338 0
 2051 0028 9A42     		cmp	r2, r3
ARM GAS  /var/folders/qd/4mxf5pkd0zdf0b9dd1hp39180000gn/T//ccn3RVaQ.s 			page 37


 2052 002a 01D1     		bne	.L128
 2053 002c 05B0     		add	sp, sp, #20
 2054              		.cfi_remember_state
 2055              		.cfi_def_cfa_offset 20
 2056              		@ sp needed
 2057 002e F0BD     		pop	{r4, r5, r6, r7, pc}
 2058              	.LVL179:
 2059              	.L128:
 2060              		.cfi_restore_state
 2061 0030 FFF7FEFF 		bl	__stack_chk_fail
 2062              	.LVL180:
 2063              	.L130:
 2064              		.align	2
 2065              	.L129:
 2066 0034 00000000 		.word	__stack_chk_guard
 2067              		.cfi_endproc
 2068              	.LFE274:
 2069              		.size	storeFrontDistanceSensorValue, .-storeFrontDistanceSensorValue
 2070              		.section	.text.rotateAndMeasureWallsDistance,"ax",%progbits
 2071              		.align	1
 2072              		.p2align 4,,15
 2073              		.global	rotateAndMeasureWallsDistance
 2074              		.syntax unified
 2075              		.thumb
 2076              		.thumb_func
 2077              		.fpu fpv4-sp-d16
 2078              		.type	rotateAndMeasureWallsDistance, %function
 2079              	rotateAndMeasureWallsDistance:
 2080              	.LFB275:
 2081              		.loc 1 340 0
 2082              		.cfi_startproc
 2083              		@ args = 0, pretend = 0, frame = 16
 2084              		@ frame_needed = 0, uses_anonymous_args = 0
 2085              	.LVL181:
 2086 0000 2DE9F043 		push	{r4, r5, r6, r7, r8, r9, lr}
 2087              		.cfi_def_cfa_offset 28
 2088              		.cfi_offset 4, -28
 2089              		.cfi_offset 5, -24
 2090              		.cfi_offset 6, -20
 2091              		.cfi_offset 7, -16
 2092              		.cfi_offset 8, -12
 2093              		.cfi_offset 9, -8
 2094              		.cfi_offset 14, -4
 2095 0004 DFF85C90 		ldr	r9, .L138
 2096 0008 85B0     		sub	sp, sp, #20
 2097              		.cfi_def_cfa_offset 48
 2098              		.loc 1 341 0
 2099 000a 0446     		mov	r4, r0
 2100 000c 0030     		adds	r0, r0, #0
 2101              	.LVL182:
 2102              		.loc 1 340 0
 2103 000e 0E46     		mov	r6, r1
 2104 0010 D9F80030 		ldr	r3, [r9]
 2105 0014 0393     		str	r3, [sp, #12]
 2106              		.loc 1 341 0
 2107 0016 18BF     		it	ne
 2108 0018 0120     		movne	r0, #1
ARM GAS  /var/folders/qd/4mxf5pkd0zdf0b9dd1hp39180000gn/T//ccn3RVaQ.s 			page 38


 2109 001a FFF7FEFF 		bl	assert
 2110              	.LVL183:
 2111              		.loc 1 344 0
 2112 001e 002E     		cmp	r6, #0
 2113 0020 16DD     		ble	.L131
 2114 0022 0025     		movs	r5, #0
 2115              	.LBB436:
 2116              	.LBB437:
 2117              		.loc 1 302 0
 2118 0024 DFF84080 		ldr	r8, .L138+4
 2119 0028 2F46     		mov	r7, r5
 2120              	.LVL184:
 2121              	.L133:
 2122              	.LBE437:
 2123              	.LBE436:
 2124              		.loc 1 345 0 discriminator 3
 2125 002a C820     		movs	r0, #200
 2126 002c FFF7FEFF 		bl	chThdSleep
 2127              	.LVL185:
 2128              		.loc 1 346 0 discriminator 3
 2129 0030 2046     		mov	r0, r4
 2130 0032 FFF7FEFF 		bl	storeFrontDistanceSensorValue
 2131              	.LVL186:
 2132              		.loc 1 344 0 discriminator 3
 2133 0036 0135     		adds	r5, r5, #1
 2134              	.LVL187:
 2135              	.LBB439:
 2136              	.LBB438:
 2137              		.loc 1 302 0 discriminator 3
 2138 0038 40F20B21 		movw	r1, #523
 2139 003c 01A8     		add	r0, sp, #4
 2140 003e 0197     		str	r7, [sp, #4]
 2141 0040 CDF80880 		str	r8, [sp, #8]	@ float
 2142 0044 FFF7FEFF 		bl	moveAndComputePositionRobotSpeedType
 2143              	.LVL188:
 2144              	.LBE438:
 2145              	.LBE439:
 2146              		.loc 1 344 0 discriminator 3
 2147 0048 AE42     		cmp	r6, r5
 2148 004a 04F11004 		add	r4, r4, #16
 2149 004e ECD1     		bne	.L133
 2150              	.LVL189:
 2151              	.L131:
 2152              		.loc 1 349 0
 2153 0050 039A     		ldr	r2, [sp, #12]
 2154 0052 D9F80030 		ldr	r3, [r9]
 2155 0056 9A42     		cmp	r2, r3
 2156 0058 02D1     		bne	.L137
 2157 005a 05B0     		add	sp, sp, #20
 2158              		.cfi_remember_state
 2159              		.cfi_def_cfa_offset 28
 2160              		@ sp needed
 2161 005c BDE8F083 		pop	{r4, r5, r6, r7, r8, r9, pc}
 2162              	.LVL190:
 2163              	.L137:
 2164              		.cfi_restore_state
 2165 0060 FFF7FEFF 		bl	__stack_chk_fail
ARM GAS  /var/folders/qd/4mxf5pkd0zdf0b9dd1hp39180000gn/T//ccn3RVaQ.s 			page 39


 2166              	.LVL191:
 2167              	.L139:
 2168              		.align	2
 2169              	.L138:
 2170 0064 00000000 		.word	__stack_chk_guard
 2171 0068 CDCCCC3E 		.word	1053609165
 2172              		.cfi_endproc
 2173              	.LFE275:
 2174              		.size	rotateAndMeasureWallsDistance, .-rotateAndMeasureWallsDistance
 2175              		.section	.text.discover,"ax",%progbits
 2176              		.align	1
 2177              		.p2align 4,,15
 2178              		.syntax unified
 2179              		.thumb
 2180              		.thumb_func
 2181              		.fpu fpv4-sp-d16
 2182              		.type	discover, %function
 2183              	discover:
 2184              	.LFB278:
 2185              		.loc 1 411 0
 2186              		.cfi_startproc
 2187              		@ args = 0, pretend = 0, frame = 32
 2188              		@ frame_needed = 0, uses_anonymous_args = 0
 2189              	.LVL192:
 2190 0000 30B5     		push	{r4, r5, lr}
 2191              		.cfi_def_cfa_offset 12
 2192              		.cfi_offset 4, -12
 2193              		.cfi_offset 5, -8
 2194              		.cfi_offset 14, -4
 2195 0002 2D4D     		ldr	r5, .L148
 2196              	.LBB460:
 2197              	.LBB461:
 2198              		.loc 1 302 0
 2199 0004 2D4A     		ldr	r2, .L148+4
 2200              	.LBE461:
 2201              	.LBE460:
 2202              		.loc 1 411 0
 2203 0006 2B68     		ldr	r3, [r5]
 2204 0008 89B0     		sub	sp, sp, #36
 2205              		.cfi_def_cfa_offset 48
 2206              	.LBB464:
 2207              	.LBB462:
 2208              		.loc 1 302 0
 2209 000a 40F20B21 		movw	r1, #523
 2210 000e 05A8     		add	r0, sp, #20
 2211              	.LVL193:
 2212              	.LBE462:
 2213              	.LBE464:
 2214              		.loc 1 411 0
 2215 0010 0793     		str	r3, [sp, #28]
 2216              	.LVL194:
 2217              	.LBB465:
 2218              	.LBB463:
 2219              		.loc 1 302 0
 2220 0012 0023     		movs	r3, #0
 2221 0014 0593     		str	r3, [sp, #20]
 2222 0016 0692     		str	r2, [sp, #24]	@ float
ARM GAS  /var/folders/qd/4mxf5pkd0zdf0b9dd1hp39180000gn/T//ccn3RVaQ.s 			page 40


 2223 0018 FFF7FEFF 		bl	moveAndComputePositionRobotSpeedType
 2224              	.LVL195:
 2225              	.LBE463:
 2226              	.LBE465:
 2227              		.loc 1 416 0
 2228 001c FFF7FEFF 		bl	mod_mapping_resetCoordinates
 2229              	.LVL196:
 2230              		.loc 1 418 0
 2231 0020 4FF4F070 		mov	r0, #480
 2232 0024 FFF7FEFF 		bl	malloc
 2233              	.LVL197:
 2234              		.loc 1 419 0
 2235 0028 0446     		mov	r4, r0
 2236 002a 0030     		adds	r0, r0, #0
 2237              	.LVL198:
 2238 002c 18BF     		it	ne
 2239 002e 0120     		movne	r0, #1
 2240 0030 FFF7FEFF 		bl	assert
 2241              	.LVL199:
 2242              		.loc 1 420 0
 2243 0034 1E21     		movs	r1, #30
 2244 0036 2046     		mov	r0, r4
 2245 0038 FFF7FEFF 		bl	rotateAndMeasureWallsDistance
 2246              	.LVL200:
 2247              		.loc 1 421 0
 2248 003c 2046     		mov	r0, r4
 2249 003e FFF7FEFF 		bl	mod_mapping_computeWallLocation
 2250              	.LVL201:
 2251              		.loc 1 422 0
 2252 0042 2046     		mov	r0, r4
 2253 0044 FFF7FEFF 		bl	free
 2254              	.LVL202:
 2255              		.loc 1 424 0
 2256 0048 01A8     		add	r0, sp, #4
 2257 004a FFF7FEFF 		bl	mod_mapping_getAreaCenter
 2258              	.LVL203:
 2259              	.LBB466:
 2260              	.LBB467:
 2261              		.loc 1 312 0
 2262 004e 01A9     		add	r1, sp, #4
 2263              	.LVL204:
 2264 0050 03A8     		add	r0, sp, #12
 2265 0052 FFF7FEFF 		bl	mod_mapping_getRobotDisplacement
 2266              	.LVL205:
 2267              		.loc 1 313 0
 2268 0056 03A8     		add	r0, sp, #12
 2269 0058 FFF7FEFF 		bl	moveAndComputePositionDistanceType
 2270              	.LVL206:
 2271              	.LBE467:
 2272              	.LBE466:
 2273              	.LBB468:
 2274              	.LBB469:
 2275              	.LBB470:
 2276              	.LBB471:
 2277              	.LBB472:
 2278              	.LBB473:
 2279              	.LBB474:
ARM GAS  /var/folders/qd/4mxf5pkd0zdf0b9dd1hp39180000gn/T//ccn3RVaQ.s 			page 41


 2280              	.LBB475:
 2281              		.loc 2 546 0
 2282 005c 2023     		movs	r3, #32
 2283              		.syntax unified
 2284              	@ 546 "lib/e-puck2_main-processor/ChibiOS//os/ext/CMSIS/include/core_cmFunc.h" 1
 2285 005e 83F31188 		MSR basepri, r3
 2286              	@ 0 "" 2
 2287              	.LVL207:
 2288              		.thumb
 2289              		.syntax unified
 2290              	.LBE475:
 2291              	.LBE474:
 2292              	.LBE473:
 2293              		.loc 3 349 0
 2294 0062 FFF7FEFF 		bl	_stats_start_measure_crit_thd
 2295              	.LVL208:
 2296              		.loc 3 350 0
 2297 0066 FFF7FEFF 		bl	_dbg_check_lock
 2298              	.LVL209:
 2299              	.LBE472:
 2300              	.LBE471:
 2301              	.LBB476:
 2302              	.LBB477:
 2303              		.loc 5 268 0
 2304 006a FFF7FEFF 		bl	chDbgCheckClassI
 2305              	.LVL210:
 2306              		.loc 5 270 0
 2307 006e 1448     		ldr	r0, .L148+8
 2308 0070 8368     		ldr	r3, [r0, #8]
 2309 0072 002B     		cmp	r3, #0
 2310 0074 1BDD     		ble	.L145
 2311              	.L141:
 2312              	.LVL211:
 2313              	.LBE477:
 2314              	.LBE476:
 2315              		.loc 5 286 0
 2316 0076 FFF7FEFF 		bl	chSchRescheduleS
 2317              	.LVL212:
 2318              	.LBB479:
 2319              	.LBB480:
 2320              		.loc 3 360 0
 2321 007a FFF7FEFF 		bl	_dbg_check_unlock
 2322              	.LVL213:
 2323              		.loc 3 361 0
 2324 007e FFF7FEFF 		bl	_stats_stop_measure_crit_thd
 2325              	.LVL214:
 2326              		.loc 3 367 0
 2327 0082 104B     		ldr	r3, .L148+12
 2328 0084 1A68     		ldr	r2, [r3]
 2329 0086 9A42     		cmp	r2, r3
 2330 0088 04D0     		beq	.L142
 2331 008a 9969     		ldr	r1, [r3, #24]
 2332 008c 9368     		ldr	r3, [r2, #8]
 2333 008e 8A68     		ldr	r2, [r1, #8]
 2334 0090 9A42     		cmp	r2, r3
 2335 0092 08D3     		bcc	.L146
 2336              	.L142:
ARM GAS  /var/folders/qd/4mxf5pkd0zdf0b9dd1hp39180000gn/T//ccn3RVaQ.s 			page 42


 2337              	.LVL215:
 2338              	.LBB481:
 2339              	.LBB482:
 2340              	.LBB483:
 2341              		.loc 2 546 0
 2342 0094 0023     		movs	r3, #0
 2343              		.syntax unified
 2344              	@ 546 "lib/e-puck2_main-processor/ChibiOS//os/ext/CMSIS/include/core_cmFunc.h" 1
 2345 0096 83F31188 		MSR basepri, r3
 2346              	@ 0 "" 2
 2347              	.LVL216:
 2348              		.thumb
 2349              		.syntax unified
 2350              	.LBE483:
 2351              	.LBE482:
 2352              	.LBE481:
 2353              	.LBE480:
 2354              	.LBE479:
 2355              	.LBE470:
 2356              	.LBE469:
 2357              	.LBE468:
 2358              		.loc 1 428 0
 2359 009a 079A     		ldr	r2, [sp, #28]
 2360 009c 2B68     		ldr	r3, [r5]
 2361 009e 9A42     		cmp	r2, r3
 2362 00a0 08D1     		bne	.L147
 2363 00a2 09B0     		add	sp, sp, #36
 2364              		.cfi_remember_state
 2365              		.cfi_def_cfa_offset 12
 2366              		@ sp needed
 2367 00a4 30BD     		pop	{r4, r5, pc}
 2368              	.LVL217:
 2369              	.L146:
 2370              		.cfi_restore_state
 2371              	.LBB489:
 2372              	.LBB488:
 2373              	.LBB487:
 2374              	.LBB485:
 2375              	.LBB484:
 2376              		.loc 3 367 0
 2377 00a6 0848     		ldr	r0, .L148+16
 2378 00a8 FFF7FEFF 		bl	chSysHalt
 2379              	.LVL218:
 2380 00ac F2E7     		b	.L142
 2381              	.LVL219:
 2382              	.L145:
 2383              	.LBE484:
 2384              	.LBE485:
 2385              	.LBB486:
 2386              	.LBB478:
 2387              		.loc 5 271 0
 2388 00ae FFF7FEFF 		bl	chSemSignalI
 2389              	.LVL220:
 2390 00b2 E0E7     		b	.L141
 2391              	.LVL221:
 2392              	.L147:
 2393              	.LBE478:
ARM GAS  /var/folders/qd/4mxf5pkd0zdf0b9dd1hp39180000gn/T//ccn3RVaQ.s 			page 43


 2394              	.LBE486:
 2395              	.LBE487:
 2396              	.LBE488:
 2397              	.LBE489:
 2398              		.loc 1 428 0
 2399 00b4 FFF7FEFF 		bl	__stack_chk_fail
 2400              	.LVL222:
 2401              	.L149:
 2402              		.align	2
 2403              	.L148:
 2404 00b8 00000000 		.word	__stack_chk_guard
 2405 00bc CDCCCC3E 		.word	1053609165
 2406 00c0 00000000 		.word	.LANCHOR6
 2407 00c4 00000000 		.word	ch
 2408 00c8 00000000 		.word	.LANCHOR1
 2409              		.cfi_endproc
 2410              	.LFE278:
 2411              		.size	discover, .-discover
 2412              		.section	.text.scanInFront,"ax",%progbits
 2413              		.align	1
 2414              		.p2align 4,,15
 2415              		.global	scanInFront
 2416              		.syntax unified
 2417              		.thumb
 2418              		.thumb_func
 2419              		.fpu fpv4-sp-d16
 2420              		.type	scanInFront, %function
 2421              	scanInFront:
 2422              	.LFB276:
 2423              		.loc 1 352 0
 2424              		.cfi_startproc
 2425              		@ args = 0, pretend = 0, frame = 48
 2426              		@ frame_needed = 0, uses_anonymous_args = 0
 2427 0000 2DE9F04F 		push	{r4, r5, r6, r7, r8, r9, r10, fp, lr}
 2428              		.cfi_def_cfa_offset 36
 2429              		.cfi_offset 4, -36
 2430              		.cfi_offset 5, -32
 2431              		.cfi_offset 6, -28
 2432              		.cfi_offset 7, -24
 2433              		.cfi_offset 8, -20
 2434              		.cfi_offset 9, -16
 2435              		.cfi_offset 10, -12
 2436              		.cfi_offset 11, -8
 2437              		.cfi_offset 14, -4
 2438 0004 DFF814A1 		ldr	r10, .L161+8
 2439              	.LBB490:
 2440              	.LBB491:
 2441              	.LBB492:
 2442              		.loc 1 302 0
 2443 0008 DFF814B1 		ldr	fp, .L161+12
 2444              	.LBE492:
 2445              	.LBE491:
 2446              	.LBE490:
 2447              		.loc 1 352 0
 2448 000c DAF80030 		ldr	r3, [r10]
 2449 0010 8DB0     		sub	sp, sp, #52
 2450              		.cfi_def_cfa_offset 88
ARM GAS  /var/folders/qd/4mxf5pkd0zdf0b9dd1hp39180000gn/T//ccn3RVaQ.s 			page 44


 2451              		.loc 1 353 0
 2452 0012 A020     		movs	r0, #160
 2453              		.loc 1 352 0
 2454 0014 0B93     		str	r3, [sp, #44]
 2455              		.loc 1 353 0
 2456 0016 FFF7FEFF 		bl	malloc
 2457              	.LVL223:
 2458              	.LBB495:
 2459              	.LBB496:
 2460              		.loc 1 302 0
 2461 001a 0025     		movs	r5, #0
 2462              	.LBE496:
 2463              	.LBE495:
 2464              		.loc 1 353 0
 2465 001c 8146     		mov	r9, r0
 2466              	.LVL224:
 2467              	.LBB498:
 2468              	.LBB497:
 2469              		.loc 1 302 0
 2470 001e 3D4B     		ldr	r3, .L161
 2471 0020 0693     		str	r3, [sp, #24]	@ float
 2472 0022 40F2D531 		movw	r1, #981
 2473 0026 05A8     		add	r0, sp, #20
 2474              	.LVL225:
 2475 0028 0595     		str	r5, [sp, #20]
 2476 002a FFF7FEFF 		bl	moveAndComputePositionRobotSpeedType
 2477              	.LVL226:
 2478 002e 4C46     		mov	r4, r9
 2479 0030 09F1A008 		add	r8, r9, #160
 2480              	.LVL227:
 2481              	.L151:
 2482              	.LBE497:
 2483              	.LBE498:
 2484              	.LBB499:
 2485              		.loc 1 356 0 discriminator 3
 2486 0034 9620     		movs	r0, #150
 2487 0036 FFF7FEFF 		bl	chThdSleep
 2488              	.LVL228:
 2489              		.loc 1 357 0 discriminator 3
 2490 003a 2046     		mov	r0, r4
 2491 003c FFF7FEFF 		bl	storeFrontDistanceSensorValue
 2492              	.LVL229:
 2493 0040 1034     		adds	r4, r4, #16
 2494              	.LBB494:
 2495              	.LBB493:
 2496              		.loc 1 302 0 discriminator 3
 2497 0042 6221     		movs	r1, #98
 2498 0044 07A8     		add	r0, sp, #28
 2499 0046 0795     		str	r5, [sp, #28]
 2500 0048 CDF820B0 		str	fp, [sp, #32]	@ float
 2501 004c FFF7FEFF 		bl	moveAndComputePositionRobotSpeedType
 2502              	.LVL230:
 2503              	.LBE493:
 2504              	.LBE494:
 2505              		.loc 1 355 0 discriminator 3
 2506 0050 4445     		cmp	r4, r8
 2507 0052 EFD1     		bne	.L151
ARM GAS  /var/folders/qd/4mxf5pkd0zdf0b9dd1hp39180000gn/T//ccn3RVaQ.s 			page 45


 2508              	.LVL231:
 2509              	.LBE499:
 2510              	.LBB500:
 2511              	.LBB501:
 2512              		.loc 1 302 0
 2513 0054 40F2D531 		movw	r1, #981
 2514 0058 09A8     		add	r0, sp, #36
 2515              	.LBE501:
 2516              	.LBE500:
 2517              	.LBB503:
 2518              		.loc 1 363 0
 2519 005a DFF8C880 		ldr	r8, .L161+16
 2520              	.LBE503:
 2521              	.LBB506:
 2522              	.LBB502:
 2523              		.loc 1 302 0
 2524 005e 0995     		str	r5, [sp, #36]
 2525 0060 CDF828B0 		str	fp, [sp, #40]	@ float
 2526 0064 FFF7FEFF 		bl	moveAndComputePositionRobotSpeedType
 2527              	.LVL232:
 2528              	.LBE502:
 2529              	.LBE506:
 2530              		.loc 1 361 0
 2531 0068 4846     		mov	r0, r9
 2532 006a 0A21     		movs	r1, #10
 2533 006c FFF7FEFF 		bl	mod_mapping_checkEnvironment
 2534              	.LVL233:
 2535              	.LBB507:
 2536              		.loc 1 363 0
 2537 0070 D8F80430 		ldr	r3, [r8, #4]
 2538 0074 002B     		cmp	r3, #0
 2539 0076 43DD     		ble	.L150
 2540              	.LBB504:
 2541              		.loc 1 368 0
 2542 0078 DFF8AC90 		ldr	r9, .L161+20
 2543              	.LVL234:
 2544 007c 4FF0000B 		mov	fp, #0
 2545 0080 4546     		mov	r5, r8
 2546              	.LBE504:
 2547              		.loc 1 363 0
 2548 0082 0024     		movs	r4, #0
 2549              	.LVL235:
 2550              	.L154:
 2551              	.LBB505:
 2552              		.loc 1 364 0
 2553 0084 0134     		adds	r4, r4, #1
 2554              	.LVL236:
 2555 0086 08EBC403 		add	r3, r8, r4, lsl #3
 2556 008a 0433     		adds	r3, r3, #4
 2557 008c 93E80600 		ldm	r3, {r1, r2}
 2558 0090 01A8     		add	r0, sp, #4
 2559 0092 FFF7FEFF 		bl	mod_mapping_computeDistanceForPicture
 2560              	.LVL237:
 2561              		.loc 1 365 0
 2562 0096 01A8     		add	r0, sp, #4
 2563 0098 FFF7FEFF 		bl	moveAndComputePositionDistanceType
 2564              	.LVL238:
ARM GAS  /var/folders/qd/4mxf5pkd0zdf0b9dd1hp39180000gn/T//ccn3RVaQ.s 			page 46


 2565              		.loc 1 366 0
 2566 009c D5E90301 		ldrd	r0, r1, [r5, #12]
 2567 00a0 FFF7FEFF 		bl	mod_image_sendPicture
 2568              	.LVL239:
 2569              		.loc 1 367 0
 2570 00a4 4FF47A70 		mov	r0, #1000
 2571 00a8 FFF7FEFF 		bl	chThdSleep
 2572              	.LVL240:
 2573              		.loc 1 368 0
 2574 00ac 019B     		ldr	r3, [sp, #4]
 2575 00ae CDF810B0 		str	fp, [sp, #16]	@ float
 2576 00b2 002B     		cmp	r3, #0
 2577 00b4 89FB0320 		smull	r2, r0, r9, r3
 2578 00b8 4FEAE373 		asr	r3, r3, #31
 2579 00bc CCBF     		ite	gt
 2580 00be 6FF02702 		mvngt	r2, #39
 2581 00c2 2822     		movle	r2, #40
 2582 00c4 A3EB2010 		sub	r0, r3, r0, asr #4
 2583 00c8 0392     		str	r2, [sp, #12]
 2584 00ca FFF7FEFF 		bl	__aeabi_i2d
 2585              	.LVL241:
 2586 00ce 21F00047 		bic	r7, r1, #-2147483648
 2587 00d2 114B     		ldr	r3, .L161+4
 2588 00d4 0022     		movs	r2, #0
 2589 00d6 3946     		mov	r1, r7
 2590 00d8 FFF7FEFF 		bl	__aeabi_dmul
 2591              	.LVL242:
 2592 00dc FFF7FEFF 		bl	__aeabi_d2iz
 2593              	.LVL243:
 2594 00e0 0146     		mov	r1, r0
 2595 00e2 03A8     		add	r0, sp, #12
 2596 00e4 FFF7FEFF 		bl	moveAndComputePositionRobotSpeedType
 2597              	.LVL244:
 2598              		.loc 1 369 0
 2599 00e8 9DED020A 		vldr.32	s0, [sp, #8]
 2600 00ec B1EE400A 		vneg.f32	s0, s0
 2601 00f0 FFF7FEFF 		bl	changeAngleRelative
 2602              	.LVL245:
 2603              	.LBE505:
 2604              		.loc 1 363 0
 2605 00f4 D8F80430 		ldr	r3, [r8, #4]
 2606              	.LVL246:
 2607 00f8 A342     		cmp	r3, r4
 2608 00fa 05F10805 		add	r5, r5, #8
 2609 00fe C1DC     		bgt	.L154
 2610              	.LVL247:
 2611              	.L150:
 2612              	.LBE507:
 2613              		.loc 1 371 0
 2614 0100 0B9A     		ldr	r2, [sp, #44]
 2615 0102 DAF80030 		ldr	r3, [r10]
 2616 0106 9A42     		cmp	r2, r3
 2617 0108 02D1     		bne	.L160
 2618 010a 0DB0     		add	sp, sp, #52
 2619              		.cfi_remember_state
 2620              		.cfi_def_cfa_offset 36
 2621              		@ sp needed
ARM GAS  /var/folders/qd/4mxf5pkd0zdf0b9dd1hp39180000gn/T//ccn3RVaQ.s 			page 47


 2622 010c BDE8F08F 		pop	{r4, r5, r6, r7, r8, r9, r10, fp, pc}
 2623              	.L160:
 2624              		.cfi_restore_state
 2625 0110 FFF7FEFF 		bl	__stack_chk_fail
 2626              	.LVL248:
 2627              	.L162:
 2628              		.align	2
 2629              	.L161:
 2630 0114 CDCCCCBE 		.word	-1093874483
 2631 0118 00408F40 		.word	1083129856
 2632 011c 00000000 		.word	__stack_chk_guard
 2633 0120 CDCCCC3E 		.word	1053609165
 2634 0124 00000000 		.word	environment
 2635 0128 67666666 		.word	1717986919
 2636              		.cfi_endproc
 2637              	.LFE276:
 2638              		.size	scanInFront, .-scanInFront
 2639              		.section	.text.scan360,"ax",%progbits
 2640              		.align	1
 2641              		.p2align 4,,15
 2642              		.global	scan360
 2643              		.syntax unified
 2644              		.thumb
 2645              		.thumb_func
 2646              		.fpu fpv4-sp-d16
 2647              		.type	scan360, %function
 2648              	scan360:
 2649              	.LFB277:
 2650              		.loc 1 373 0
 2651              		.cfi_startproc
 2652              		@ args = 0, pretend = 0, frame = 272
 2653              		@ frame_needed = 0, uses_anonymous_args = 0
 2654 0000 2DE9F04F 		push	{r4, r5, r6, r7, r8, r9, r10, fp, lr}
 2655              		.cfi_def_cfa_offset 36
 2656              		.cfi_offset 4, -36
 2657              		.cfi_offset 5, -32
 2658              		.cfi_offset 6, -28
 2659              		.cfi_offset 7, -24
 2660              		.cfi_offset 8, -20
 2661              		.cfi_offset 9, -16
 2662              		.cfi_offset 10, -12
 2663              		.cfi_offset 11, -8
 2664              		.cfi_offset 14, -4
 2665 0004 2DED068B 		vpush.64	{d8, d9, d10}
 2666              		.cfi_def_cfa_offset 60
 2667              		.cfi_offset 80, -60
 2668              		.cfi_offset 81, -56
 2669              		.cfi_offset 82, -52
 2670              		.cfi_offset 83, -48
 2671              		.cfi_offset 84, -44
 2672              		.cfi_offset 85, -40
 2673 0008 DFF880B1 		ldr	fp, .L180+28
 2674 000c DFF880A1 		ldr	r10, .L180+32
 2675 0010 DBF80030 		ldr	r3, [fp]
 2676              	.LBB508:
 2677              	.LBB509:
 2678              	.LBB510:
ARM GAS  /var/folders/qd/4mxf5pkd0zdf0b9dd1hp39180000gn/T//ccn3RVaQ.s 			page 48


 2679              		.loc 1 302 0
 2680 0014 DFED568A 		vldr.32	s17, .L180
 2681              	.LBE510:
 2682              	.LBE509:
 2683              	.LBB512:
 2684              	.LBB513:
 2685              	.LBB514:
 2686 0018 9FED568A 		vldr.32	s16, .L180+4
 2687              	.LBE514:
 2688              	.LBE513:
 2689              	.LBE512:
 2690              		.loc 1 400 0
 2691 001c DFED569A 		vldr.32	s19, .L180+8
 2692              		.loc 1 401 0
 2693 0020 9FED569A 		vldr.32	s18, .L180+12
 2694              	.LBE508:
 2695              		.loc 1 377 0
 2696 0024 DFED56AA 		vldr.32	s21, .L180+16
 2697              		.loc 1 373 0
 2698 0028 C5B0     		sub	sp, sp, #276
 2699              		.cfi_def_cfa_offset 336
 2700              		.loc 1 375 0
 2701 002a 0EA8     		add	r0, sp, #56
 2702              		.loc 1 373 0
 2703 002c 4393     		str	r3, [sp, #268]
 2704              		.loc 1 376 0
 2705 002e 0027     		movs	r7, #0
 2706              		.loc 1 375 0
 2707 0030 FFF7FEFF 		bl	mod_mapping_getActualPosition
 2708              	.LVL249:
 2709 0034 9DED10AA 		vldr.32	s20, [sp, #64]
 2710              	.LVL250:
 2711 0038 0AE0     		b	.L164
 2712              	.LVL251:
 2713              	.L177:
 2714              	.LBB523:
 2715              	.LBB517:
 2716              	.LBB518:
 2717              		.loc 1 302 0
 2718 003a 0023     		movs	r3, #0
 2719 003c 4FF49D71 		mov	r1, #314
 2720 0040 06A8     		add	r0, sp, #24
 2721 0042 8DED078A 		vstr.32	s16, [sp, #28]
 2722 0046 0693     		str	r3, [sp, #24]
 2723 0048 FFF7FEFF 		bl	moveAndComputePositionRobotSpeedType
 2724              	.LVL252:
 2725              	.L170:
 2726              	.LBE518:
 2727              	.LBE517:
 2728              	.LBE523:
 2729              		.loc 1 377 0
 2730 004c 312F     		cmp	r7, #49
 2731 004e 63DC     		bgt	.L176
 2732              	.LVL253:
 2733              	.L164:
 2734              	.LBB524:
 2735              		.loc 1 378 0
ARM GAS  /var/folders/qd/4mxf5pkd0zdf0b9dd1hp39180000gn/T//ccn3RVaQ.s 			page 49


 2736 0050 9620     		movs	r0, #150
 2737 0052 FFF7FEFF 		bl	chThdSleep
 2738              	.LVL254:
 2739              		.loc 1 379 0
 2740 0056 17A8     		add	r0, sp, #92
 2741 0058 FFF7FEFF 		bl	storeFrontDistanceSensorValue
 2742              	.LVL255:
 2743              		.loc 1 381 0
 2744 005c 9AF80010 		ldrb	r1, [r10]	@ zero_extendqisi2
 2745 0060 17A8     		add	r0, sp, #92
 2746 0062 FFF7FEFF 		bl	mod_mapping_checkEnvironmentLimitsRobotReferencial
 2747              	.LVL256:
 2748              		.loc 1 380 0
 2749 0066 0137     		adds	r7, r7, #1
 2750              	.LVL257:
 2751              		.loc 1 381 0
 2752 0068 0546     		mov	r5, r0
 2753 006a 0028     		cmp	r0, #0
 2754 006c E5D1     		bne	.L177
 2755              	.LVL258:
 2756              	.LBB519:
 2757              	.LBB511:
 2758              		.loc 1 302 0
 2759 006e 4FF4F571 		mov	r1, #490
 2760 0072 08A8     		add	r0, sp, #32
 2761 0074 0895     		str	r5, [sp, #32]
 2762 0076 CDED098A 		vstr.32	s17, [sp, #36]
 2763 007a FFF7FEFF 		bl	moveAndComputePositionRobotSpeedType
 2764              	.LVL259:
 2765 007e 1BAC     		add	r4, sp, #108
 2766 0080 43AE     		add	r6, sp, #268
 2767              	.LVL260:
 2768              	.L167:
 2769              	.LBE511:
 2770              	.LBE519:
 2771              	.LBB520:
 2772              		.loc 1 388 0 discriminator 3
 2773 0082 9620     		movs	r0, #150
 2774 0084 FFF7FEFF 		bl	chThdSleep
 2775              	.LVL261:
 2776              		.loc 1 389 0 discriminator 3
 2777 0088 2046     		mov	r0, r4
 2778 008a FFF7FEFF 		bl	storeFrontDistanceSensorValue
 2779              	.LVL262:
 2780 008e 1034     		adds	r4, r4, #16
 2781              	.LBB516:
 2782              	.LBB515:
 2783              		.loc 1 302 0 discriminator 3
 2784 0090 6221     		movs	r1, #98
 2785 0092 0AA8     		add	r0, sp, #40
 2786 0094 0A95     		str	r5, [sp, #40]
 2787 0096 8DED0B8A 		vstr.32	s16, [sp, #44]
 2788 009a FFF7FEFF 		bl	moveAndComputePositionRobotSpeedType
 2789              	.LVL263:
 2790              	.LBE515:
 2791              	.LBE516:
 2792              		.loc 1 387 0 discriminator 3
ARM GAS  /var/folders/qd/4mxf5pkd0zdf0b9dd1hp39180000gn/T//ccn3RVaQ.s 			page 50


 2793 009e A642     		cmp	r6, r4
 2794 00a0 EFD1     		bne	.L167
 2795              	.LBE520:
 2796              		.loc 1 393 0
 2797 00a2 9AF80030 		ldrb	r3, [r10]	@ zero_extendqisi2
 2798 00a6 1BA9     		add	r1, sp, #108
 2799 00a8 02A8     		add	r0, sp, #8
 2800 00aa 6A46     		mov	r2, sp
 2801 00ac FFF7FEFF 		bl	mod_mapping_findObjectBestPosition
 2802              	.LVL264:
 2803              		.loc 1 394 0
 2804 00b0 009B     		ldr	r3, [sp]
 2805 00b2 0133     		adds	r3, r3, #1
 2806 00b4 02D1     		bne	.L168
 2807              		.loc 1 394 0 is_stmt 0 discriminator 1
 2808 00b6 019B     		ldr	r3, [sp, #4]
 2809 00b8 0133     		adds	r3, r3, #1
 2810 00ba 4DD0     		beq	.L178
 2811              	.L168:
 2812              		.loc 1 398 0 is_stmt 1
 2813 00bc 02A8     		add	r0, sp, #8
 2814 00be FFF7FEFF 		bl	moveAndComputePositionDistanceType
 2815              	.LVL265:
 2816              		.loc 1 399 0
 2817 00c2 DDE90001 		ldrd	r0, r1, [sp]
 2818 00c6 FFF7FEFF 		bl	mod_image_sendPicture
 2819              	.LVL266:
 2820              		.loc 1 400 0
 2821 00ca 029B     		ldr	r3, [sp, #8]
 2822 00cc 2D48     		ldr	r0, .L180+20
 2823 00ce CDED059A 		vstr.32	s19, [sp, #20]
 2824 00d2 002B     		cmp	r3, #0
 2825 00d4 80FB0320 		smull	r2, r0, r0, r3
 2826 00d8 4FEAE373 		asr	r3, r3, #31
 2827 00dc CCBF     		ite	gt
 2828 00de 6FF02702 		mvngt	r2, #39
 2829 00e2 2822     		movle	r2, #40
 2830 00e4 A3EB2010 		sub	r0, r3, r0, asr #4
 2831 00e8 0492     		str	r2, [sp, #16]
 2832 00ea FFF7FEFF 		bl	__aeabi_i2d
 2833              	.LVL267:
 2834 00ee 21F00049 		bic	r9, r1, #-2147483648
 2835 00f2 0022     		movs	r2, #0
 2836 00f4 244B     		ldr	r3, .L180+24
 2837 00f6 4946     		mov	r1, r9
 2838 00f8 FFF7FEFF 		bl	__aeabi_dmul
 2839              	.LVL268:
 2840 00fc FFF7FEFF 		bl	__aeabi_d2iz
 2841              	.LVL269:
 2842 0100 0146     		mov	r1, r0
 2843 0102 04A8     		add	r0, sp, #16
 2844 0104 FFF7FEFF 		bl	moveAndComputePositionRobotSpeedType
 2845              	.LVL270:
 2846              		.loc 1 401 0
 2847 0108 9DED030A 		vldr.32	s0, [sp, #12]
 2848 010c 39EE400A 		vsub.f32	s0, s18, s0
 2849 0110 FFF7FEFF 		bl	changeAngleRelative
ARM GAS  /var/folders/qd/4mxf5pkd0zdf0b9dd1hp39180000gn/T//ccn3RVaQ.s 			page 51


 2850              	.LVL271:
 2851              	.LBE524:
 2852              		.loc 1 377 0
 2853 0114 312F     		cmp	r7, #49
 2854 0116 9BDD     		ble	.L164
 2855              	.L176:
 2856              		.loc 1 377 0 is_stmt 0 discriminator 1
 2857 0118 11A8     		add	r0, sp, #68
 2858 011a FFF7FEFF 		bl	mod_mapping_getActualPosition
 2859              	.LVL272:
 2860 011e DDED137A 		vldr.32	s15, [sp, #76]
 2861 0122 F4EECA7A 		vcmpe.f32	s15, s20
 2862 0126 F1EE10FA 		vmrs	APSR_nzcv, FPSCR
 2863 012a 91D4     		bmi	.L164
 2864              		.loc 1 377 0 discriminator 2
 2865 012c 14A8     		add	r0, sp, #80
 2866 012e FFF7FEFF 		bl	mod_mapping_getActualPosition
 2867              	.LVL273:
 2868 0132 7AEE2A7A 		vadd.f32	s15, s20, s21
 2869 0136 9DED167A 		vldr.32	s14, [sp, #88]
 2870 013a B4EEE77A 		vcmpe.f32	s14, s15
 2871 013e F1EE10FA 		vmrs	APSR_nzcv, FPSCR
 2872 0142 85DC     		bgt	.L164
 2873              		.loc 1 403 0 is_stmt 1
 2874 0144 439A     		ldr	r2, [sp, #268]
 2875 0146 DBF80030 		ldr	r3, [fp]
 2876 014a 9A42     		cmp	r2, r3
 2877 014c 0DD1     		bne	.L179
 2878 014e 45B0     		add	sp, sp, #276
 2879              		.cfi_remember_state
 2880              		.cfi_def_cfa_offset 60
 2881              		@ sp needed
 2882 0150 BDEC068B 		vldm	sp!, {d8-d10}
 2883              		.cfi_restore 84
 2884              		.cfi_restore 85
 2885              		.cfi_restore 82
 2886              		.cfi_restore 83
 2887              		.cfi_restore 80
 2888              		.cfi_restore 81
 2889              		.cfi_def_cfa_offset 36
 2890              	.LVL274:
 2891 0154 BDE8F08F 		pop	{r4, r5, r6, r7, r8, r9, r10, fp, pc}
 2892              	.LVL275:
 2893              	.L178:
 2894              		.cfi_restore_state
 2895              	.LBB525:
 2896              	.LBB521:
 2897              	.LBB522:
 2898              		.loc 1 302 0
 2899 0158 4FF49D71 		mov	r1, #314
 2900 015c 0CA8     		add	r0, sp, #48
 2901 015e 0C95     		str	r5, [sp, #48]
 2902 0160 8DED0D8A 		vstr.32	s16, [sp, #52]
 2903 0164 FFF7FEFF 		bl	moveAndComputePositionRobotSpeedType
 2904              	.LVL276:
 2905              	.LBE522:
 2906              	.LBE521:
ARM GAS  /var/folders/qd/4mxf5pkd0zdf0b9dd1hp39180000gn/T//ccn3RVaQ.s 			page 52


 2907              		.loc 1 396 0
 2908 0168 70E7     		b	.L170
 2909              	.L179:
 2910              	.LBE525:
 2911              		.loc 1 403 0
 2912 016a FFF7FEFF 		bl	__stack_chk_fail
 2913              	.LVL277:
 2914              	.L181:
 2915 016e 00BF     		.align	2
 2916              	.L180:
 2917 0170 CDCCCCBE 		.word	3201092813
 2918 0174 CDCCCC3E 		.word	1053609165
 2919 0178 00000000 		.word	0
 2920 017c FDAD003E 		.word	1040231933
 2921 0180 DB0F4940 		.word	1078530011
 2922 0184 67666666 		.word	1717986919
 2923 0188 00408F40 		.word	1083129856
 2924 018c 00000000 		.word	__stack_chk_guard
 2925 0190 00000000 		.word	.LANCHOR7
 2926              		.cfi_endproc
 2927              	.LFE277:
 2928              		.size	scan360, .-scan360
 2929              		.section	.text.exploration,"ax",%progbits
 2930              		.align	1
 2931              		.p2align 4,,15
 2932              		.syntax unified
 2933              		.thumb
 2934              		.thumb_func
 2935              		.fpu fpv4-sp-d16
 2936              		.type	exploration, %function
 2937              	exploration:
 2938              	.LFB279:
 2939              		.loc 1 434 0
 2940              		.cfi_startproc
 2941              		@ args = 0, pretend = 0, frame = 8
 2942              		@ frame_needed = 0, uses_anonymous_args = 0
 2943              	.LVL278:
 2944 0000 10B5     		push	{r4, lr}
 2945              		.cfi_def_cfa_offset 8
 2946              		.cfi_offset 4, -8
 2947              		.cfi_offset 14, -4
 2948 0002 1C4C     		ldr	r4, .L190
 2949              		.loc 1 436 0
 2950 0004 1C48     		ldr	r0, .L190+4
 2951              	.LVL279:
 2952              		.loc 1 434 0
 2953 0006 2368     		ldr	r3, [r4]
 2954 0008 82B0     		sub	sp, sp, #8
 2955              		.cfi_def_cfa_offset 16
 2956              		.loc 1 436 0
 2957 000a 0321     		movs	r1, #3
 2958              		.loc 1 434 0
 2959 000c 0193     		str	r3, [sp, #4]
 2960              		.loc 1 436 0
 2961 000e FFF7FEFF 		bl	mod_com_writeMessage
 2962              	.LVL280:
 2963              		.loc 1 437 0
ARM GAS  /var/folders/qd/4mxf5pkd0zdf0b9dd1hp39180000gn/T//ccn3RVaQ.s 			page 53


 2964 0012 FFF7FEFF 		bl	scan360
 2965              	.LVL281:
 2966              	.LBB542:
 2967              	.LBB543:
 2968              	.LBB544:
 2969              	.LBB545:
 2970              	.LBB546:
 2971              	.LBB547:
 2972              	.LBB548:
 2973              	.LBB549:
 2974              		.loc 2 546 0
 2975 0016 2023     		movs	r3, #32
 2976              		.syntax unified
 2977              	@ 546 "lib/e-puck2_main-processor/ChibiOS//os/ext/CMSIS/include/core_cmFunc.h" 1
 2978 0018 83F31188 		MSR basepri, r3
 2979              	@ 0 "" 2
 2980              	.LVL282:
 2981              		.thumb
 2982              		.syntax unified
 2983              	.LBE549:
 2984              	.LBE548:
 2985              	.LBE547:
 2986              		.loc 3 349 0
 2987 001c FFF7FEFF 		bl	_stats_start_measure_crit_thd
 2988              	.LVL283:
 2989              		.loc 3 350 0
 2990 0020 FFF7FEFF 		bl	_dbg_check_lock
 2991              	.LVL284:
 2992              	.LBE546:
 2993              	.LBE545:
 2994              	.LBB550:
 2995              	.LBB551:
 2996              		.loc 5 268 0
 2997 0024 FFF7FEFF 		bl	chDbgCheckClassI
 2998              	.LVL285:
 2999              		.loc 5 270 0
 3000 0028 1448     		ldr	r0, .L190+8
 3001 002a 8368     		ldr	r3, [r0, #8]
 3002 002c 002B     		cmp	r3, #0
 3003 002e 1BDD     		ble	.L187
 3004              	.L183:
 3005              	.LVL286:
 3006              	.LBE551:
 3007              	.LBE550:
 3008              		.loc 5 286 0
 3009 0030 FFF7FEFF 		bl	chSchRescheduleS
 3010              	.LVL287:
 3011              	.LBB553:
 3012              	.LBB554:
 3013              		.loc 3 360 0
 3014 0034 FFF7FEFF 		bl	_dbg_check_unlock
 3015              	.LVL288:
 3016              		.loc 3 361 0
 3017 0038 FFF7FEFF 		bl	_stats_stop_measure_crit_thd
 3018              	.LVL289:
 3019              		.loc 3 367 0
 3020 003c 104B     		ldr	r3, .L190+12
ARM GAS  /var/folders/qd/4mxf5pkd0zdf0b9dd1hp39180000gn/T//ccn3RVaQ.s 			page 54


 3021 003e 1A68     		ldr	r2, [r3]
 3022 0040 9A42     		cmp	r2, r3
 3023 0042 04D0     		beq	.L184
 3024 0044 9969     		ldr	r1, [r3, #24]
 3025 0046 9368     		ldr	r3, [r2, #8]
 3026 0048 8A68     		ldr	r2, [r1, #8]
 3027 004a 9A42     		cmp	r2, r3
 3028 004c 08D3     		bcc	.L188
 3029              	.L184:
 3030              	.LVL290:
 3031              	.LBB555:
 3032              	.LBB556:
 3033              	.LBB557:
 3034              		.loc 2 546 0
 3035 004e 0023     		movs	r3, #0
 3036              		.syntax unified
 3037              	@ 546 "lib/e-puck2_main-processor/ChibiOS//os/ext/CMSIS/include/core_cmFunc.h" 1
 3038 0050 83F31188 		MSR basepri, r3
 3039              	@ 0 "" 2
 3040              	.LVL291:
 3041              		.thumb
 3042              		.syntax unified
 3043              	.LBE557:
 3044              	.LBE556:
 3045              	.LBE555:
 3046              	.LBE554:
 3047              	.LBE553:
 3048              	.LBE544:
 3049              	.LBE543:
 3050              	.LBE542:
 3051              		.loc 1 440 0
 3052 0054 019A     		ldr	r2, [sp, #4]
 3053 0056 2368     		ldr	r3, [r4]
 3054 0058 9A42     		cmp	r2, r3
 3055 005a 08D1     		bne	.L189
 3056 005c 02B0     		add	sp, sp, #8
 3057              		.cfi_remember_state
 3058              		.cfi_def_cfa_offset 8
 3059              		@ sp needed
 3060 005e 10BD     		pop	{r4, pc}
 3061              	.LVL292:
 3062              	.L188:
 3063              		.cfi_restore_state
 3064              	.LBB563:
 3065              	.LBB562:
 3066              	.LBB561:
 3067              	.LBB559:
 3068              	.LBB558:
 3069              		.loc 3 367 0
 3070 0060 0848     		ldr	r0, .L190+16
 3071 0062 FFF7FEFF 		bl	chSysHalt
 3072              	.LVL293:
 3073 0066 F2E7     		b	.L184
 3074              	.LVL294:
 3075              	.L187:
 3076              	.LBE558:
 3077              	.LBE559:
ARM GAS  /var/folders/qd/4mxf5pkd0zdf0b9dd1hp39180000gn/T//ccn3RVaQ.s 			page 55


 3078              	.LBB560:
 3079              	.LBB552:
 3080              		.loc 5 271 0
 3081 0068 FFF7FEFF 		bl	chSemSignalI
 3082              	.LVL295:
 3083 006c E0E7     		b	.L183
 3084              	.LVL296:
 3085              	.L189:
 3086              	.LBE552:
 3087              	.LBE560:
 3088              	.LBE561:
 3089              	.LBE562:
 3090              	.LBE563:
 3091              		.loc 1 440 0
 3092 006e FFF7FEFF 		bl	__stack_chk_fail
 3093              	.LVL297:
 3094              	.L191:
 3095 0072 00BF     		.align	2
 3096              	.L190:
 3097 0074 00000000 		.word	__stack_chk_guard
 3098 0078 00000000 		.word	.LC4
 3099 007c 00000000 		.word	.LANCHOR6
 3100 0080 00000000 		.word	ch
 3101 0084 00000000 		.word	.LANCHOR1
 3102              		.cfi_endproc
 3103              	.LFE279:
 3104              		.size	exploration, .-exploration
 3105              		.section	.text.mod_explo_initModule,"ax",%progbits
 3106              		.align	1
 3107              		.p2align 4,,15
 3108              		.global	mod_explo_initModule
 3109              		.syntax unified
 3110              		.thumb
 3111              		.thumb_func
 3112              		.fpu fpv4-sp-d16
 3113              		.type	mod_explo_initModule, %function
 3114              	mod_explo_initModule:
 3115              	.LFB280:
 3116              		.loc 1 449 0
 3117              		.cfi_startproc
 3118              		@ args = 0, pretend = 0, frame = 8
 3119              		@ frame_needed = 0, uses_anonymous_args = 0
 3120 0000 10B5     		push	{r4, lr}
 3121              		.cfi_def_cfa_offset 8
 3122              		.cfi_offset 4, -8
 3123              		.cfi_offset 14, -4
 3124 0002 0F4C     		ldr	r4, .L196
 3125 0004 84B0     		sub	sp, sp, #16
 3126              		.cfi_def_cfa_offset 24
 3127              		.loc 1 449 0
 3128 0006 2368     		ldr	r3, [r4]
 3129 0008 0393     		str	r3, [sp, #12]
 3130              		.loc 1 450 0
 3131 000a FFF7FEFF 		bl	mod_sensors_initSensors
 3132              	.LVL298:
 3133              		.loc 1 451 0
 3134 000e FFF7FEFF 		bl	mod_motors_init
ARM GAS  /var/folders/qd/4mxf5pkd0zdf0b9dd1hp39180000gn/T//ccn3RVaQ.s 			page 56


 3135              	.LVL299:
 3136              		.loc 1 452 0
 3137 0012 FFF7FEFF 		bl	mod_mapping_init
 3138              	.LVL300:
 3139              		.loc 1 453 0
 3140 0016 FFF7FEFF 		bl	mod_img_init
 3141              	.LVL301:
 3142              		.loc 1 457 0
 3143 001a 0023     		movs	r3, #0
 3144 001c 0093     		str	r3, [sp]
 3145 001e 4822     		movs	r2, #72
 3146 0020 084B     		ldr	r3, .L196+4
 3147 0022 0948     		ldr	r0, .L196+8
 3148 0024 4FF4AF61 		mov	r1, #1400
 3149 0028 FFF7FEFF 		bl	chThdCreateStatic
 3150              	.LVL302:
 3151              		.loc 1 458 0
 3152 002c 039A     		ldr	r2, [sp, #12]
 3153 002e 2368     		ldr	r3, [r4]
 3154              		.loc 1 457 0
 3155 0030 0649     		ldr	r1, .L196+12
 3156              		.loc 1 458 0
 3157 0032 9A42     		cmp	r2, r3
 3158              		.loc 1 457 0
 3159 0034 0860     		str	r0, [r1]
 3160              		.loc 1 458 0
 3161 0036 01D1     		bne	.L195
 3162 0038 04B0     		add	sp, sp, #16
 3163              		.cfi_remember_state
 3164              		.cfi_def_cfa_offset 8
 3165              		@ sp needed
 3166 003a 10BD     		pop	{r4, pc}
 3167              	.L195:
 3168              		.cfi_restore_state
 3169 003c FFF7FEFF 		bl	__stack_chk_fail
 3170              	.LVL303:
 3171              	.L197:
 3172              		.align	2
 3173              	.L196:
 3174 0040 00000000 		.word	__stack_chk_guard
 3175 0044 00000000 		.word	changeMotorsStateAsync
 3176 0048 00000000 		.word	.LANCHOR8
 3177 004c 00000000 		.word	.LANCHOR5
 3178              		.cfi_endproc
 3179              	.LFE280:
 3180              		.size	mod_explo_initModule, .-mod_explo_initModule
 3181              		.section	.text.mod_explo_discoverTheAreaOnThread,"ax",%progbits
 3182              		.align	1
 3183              		.p2align 4,,15
 3184              		.global	mod_explo_discoverTheAreaOnThread
 3185              		.syntax unified
 3186              		.thumb
 3187              		.thumb_func
 3188              		.fpu fpv4-sp-d16
 3189              		.type	mod_explo_discoverTheAreaOnThread, %function
 3190              	mod_explo_discoverTheAreaOnThread:
 3191              	.LFB281:
ARM GAS  /var/folders/qd/4mxf5pkd0zdf0b9dd1hp39180000gn/T//ccn3RVaQ.s 			page 57


 3192              		.loc 1 461 0
 3193              		.cfi_startproc
 3194              		@ args = 0, pretend = 0, frame = 8
 3195              		@ frame_needed = 0, uses_anonymous_args = 0
 3196 0000 10B5     		push	{r4, lr}
 3197              		.cfi_def_cfa_offset 8
 3198              		.cfi_offset 4, -8
 3199              		.cfi_offset 14, -4
 3200 0002 0A4C     		ldr	r4, .L202
 3201              		.loc 1 462 0
 3202 0004 0A4B     		ldr	r3, .L202+4
 3203              		.loc 1 461 0
 3204 0006 2268     		ldr	r2, [r4]
 3205              		.loc 1 462 0
 3206 0008 0A48     		ldr	r0, .L202+8
 3207              		.loc 1 461 0
 3208 000a 84B0     		sub	sp, sp, #16
 3209              		.cfi_def_cfa_offset 24
 3210              		.loc 1 462 0
 3211 000c 4FF4AF61 		mov	r1, #1400
 3212              		.loc 1 461 0
 3213 0010 0392     		str	r2, [sp, #12]
 3214              		.loc 1 462 0
 3215 0012 0022     		movs	r2, #0
 3216 0014 0092     		str	r2, [sp]
 3217 0016 4722     		movs	r2, #71
 3218 0018 FFF7FEFF 		bl	chThdCreateStatic
 3219              	.LVL304:
 3220              		.loc 1 464 0
 3221 001c 039A     		ldr	r2, [sp, #12]
 3222 001e 2368     		ldr	r3, [r4]
 3223 0020 9A42     		cmp	r2, r3
 3224 0022 01D1     		bne	.L201
 3225 0024 04B0     		add	sp, sp, #16
 3226              		.cfi_remember_state
 3227              		.cfi_def_cfa_offset 8
 3228              		@ sp needed
 3229 0026 10BD     		pop	{r4, pc}
 3230              	.L201:
 3231              		.cfi_restore_state
 3232 0028 FFF7FEFF 		bl	__stack_chk_fail
 3233              	.LVL305:
 3234              	.L203:
 3235              		.align	2
 3236              	.L202:
 3237 002c 00000000 		.word	__stack_chk_guard
 3238 0030 00000000 		.word	discover
 3239 0034 00000000 		.word	.LANCHOR9
 3240              		.cfi_endproc
 3241              	.LFE281:
 3242              		.size	mod_explo_discoverTheAreaOnThread, .-mod_explo_discoverTheAreaOnThread
 3243              		.section	.text.mod_explo_explorateTheAreaOnThread,"ax",%progbits
 3244              		.align	1
 3245              		.p2align 4,,15
 3246              		.global	mod_explo_explorateTheAreaOnThread
 3247              		.syntax unified
 3248              		.thumb
ARM GAS  /var/folders/qd/4mxf5pkd0zdf0b9dd1hp39180000gn/T//ccn3RVaQ.s 			page 58


 3249              		.thumb_func
 3250              		.fpu fpv4-sp-d16
 3251              		.type	mod_explo_explorateTheAreaOnThread, %function
 3252              	mod_explo_explorateTheAreaOnThread:
 3253              	.LFB282:
 3254              		.loc 1 466 0
 3255              		.cfi_startproc
 3256              		@ args = 0, pretend = 0, frame = 8
 3257              		@ frame_needed = 0, uses_anonymous_args = 0
 3258 0000 10B5     		push	{r4, lr}
 3259              		.cfi_def_cfa_offset 8
 3260              		.cfi_offset 4, -8
 3261              		.cfi_offset 14, -4
 3262 0002 0A4C     		ldr	r4, .L208
 3263              		.loc 1 467 0
 3264 0004 0A4B     		ldr	r3, .L208+4
 3265              		.loc 1 466 0
 3266 0006 2268     		ldr	r2, [r4]
 3267              		.loc 1 467 0
 3268 0008 0A48     		ldr	r0, .L208+8
 3269              		.loc 1 466 0
 3270 000a 84B0     		sub	sp, sp, #16
 3271              		.cfi_def_cfa_offset 24
 3272              		.loc 1 467 0
 3273 000c 4FF4AF61 		mov	r1, #1400
 3274              		.loc 1 466 0
 3275 0010 0392     		str	r2, [sp, #12]
 3276              		.loc 1 467 0
 3277 0012 0022     		movs	r2, #0
 3278 0014 0092     		str	r2, [sp]
 3279 0016 4222     		movs	r2, #66
 3280 0018 FFF7FEFF 		bl	chThdCreateStatic
 3281              	.LVL306:
 3282              		.loc 1 468 0
 3283 001c 039A     		ldr	r2, [sp, #12]
 3284 001e 2368     		ldr	r3, [r4]
 3285 0020 9A42     		cmp	r2, r3
 3286 0022 01D1     		bne	.L207
 3287 0024 04B0     		add	sp, sp, #16
 3288              		.cfi_remember_state
 3289              		.cfi_def_cfa_offset 8
 3290              		@ sp needed
 3291 0026 10BD     		pop	{r4, pc}
 3292              	.L207:
 3293              		.cfi_restore_state
 3294 0028 FFF7FEFF 		bl	__stack_chk_fail
 3295              	.LVL307:
 3296              	.L209:
 3297              		.align	2
 3298              	.L208:
 3299 002c 00000000 		.word	__stack_chk_guard
 3300 0030 00000000 		.word	exploration
 3301 0034 00000000 		.word	.LANCHOR10
 3302              		.cfi_endproc
 3303              	.LFE282:
 3304              		.size	mod_explo_explorateTheAreaOnThread, .-mod_explo_explorateTheAreaOnThread
 3305              		.section	.text.mod_explo_sendTheMap,"ax",%progbits
ARM GAS  /var/folders/qd/4mxf5pkd0zdf0b9dd1hp39180000gn/T//ccn3RVaQ.s 			page 59


 3306              		.align	1
 3307              		.p2align 4,,15
 3308              		.global	mod_explo_sendTheMap
 3309              		.syntax unified
 3310              		.thumb
 3311              		.thumb_func
 3312              		.fpu fpv4-sp-d16
 3313              		.type	mod_explo_sendTheMap, %function
 3314              	mod_explo_sendTheMap:
 3315              	.LFB283:
 3316              		.loc 1 471 0
 3317              		.cfi_startproc
 3318              		@ args = 0, pretend = 0, frame = 8
 3319              		@ frame_needed = 0, uses_anonymous_args = 0
 3320 0000 00B5     		push	{lr}
 3321              		.cfi_def_cfa_offset 4
 3322              		.cfi_offset 14, -4
 3323 0002 084B     		ldr	r3, .L215
 3324 0004 83B0     		sub	sp, sp, #12
 3325              		.cfi_def_cfa_offset 16
 3326              		.loc 1 471 0
 3327 0006 1A68     		ldr	r2, [r3]
 3328 0008 0192     		str	r2, [sp, #4]
 3329              		.loc 1 472 0
 3330 000a 019A     		ldr	r2, [sp, #4]
 3331 000c 1B68     		ldr	r3, [r3]
 3332 000e 9A42     		cmp	r2, r3
 3333 0010 05D1     		bne	.L214
 3334 0012 0020     		movs	r0, #0
 3335              		.loc 1 473 0
 3336 0014 03B0     		add	sp, sp, #12
 3337              		.cfi_remember_state
 3338              		.cfi_def_cfa_offset 4
 3339              		@ sp needed
 3340 0016 5DF804EB 		ldr	lr, [sp], #4
 3341              		.cfi_restore 14
 3342              		.cfi_def_cfa_offset 0
 3343              		.loc 1 472 0
 3344 001a FFF7FEBF 		b	mod_com_writeCommand
 3345              	.LVL308:
 3346              	.L214:
 3347              		.cfi_restore_state
 3348 001e FFF7FEFF 		bl	__stack_chk_fail
 3349              	.LVL309:
 3350              	.L216:
 3351 0022 00BF     		.align	2
 3352              	.L215:
 3353 0024 00000000 		.word	__stack_chk_guard
 3354              		.cfi_endproc
 3355              	.LFE283:
 3356              		.size	mod_explo_sendTheMap, .-mod_explo_sendTheMap
 3357              		.section	.text.mod_explo_waitUntilEndOfWork,"ax",%progbits
 3358              		.align	1
 3359              		.p2align 4,,15
 3360              		.global	mod_explo_waitUntilEndOfWork
 3361              		.syntax unified
 3362              		.thumb
ARM GAS  /var/folders/qd/4mxf5pkd0zdf0b9dd1hp39180000gn/T//ccn3RVaQ.s 			page 60


 3363              		.thumb_func
 3364              		.fpu fpv4-sp-d16
 3365              		.type	mod_explo_waitUntilEndOfWork, %function
 3366              	mod_explo_waitUntilEndOfWork:
 3367              	.LFB284:
 3368              		.loc 1 476 0
 3369              		.cfi_startproc
 3370              		@ args = 0, pretend = 0, frame = 8
 3371              		@ frame_needed = 0, uses_anonymous_args = 0
 3372 0000 00B5     		push	{lr}
 3373              		.cfi_def_cfa_offset 4
 3374              		.cfi_offset 14, -4
 3375 0002 084B     		ldr	r3, .L222
 3376 0004 83B0     		sub	sp, sp, #12
 3377              		.cfi_def_cfa_offset 16
 3378              		.loc 1 476 0
 3379 0006 1A68     		ldr	r2, [r3]
 3380 0008 0192     		str	r2, [sp, #4]
 3381              	.LVL310:
 3382              	.LBB564:
 3383              	.LBB565:
 3384              		.loc 5 143 0
 3385 000a 019A     		ldr	r2, [sp, #4]
 3386 000c 1B68     		ldr	r3, [r3]
 3387 000e 9A42     		cmp	r2, r3
 3388 0010 05D1     		bne	.L221
 3389 0012 0548     		ldr	r0, .L222+4
 3390              	.LBE565:
 3391              	.LBE564:
 3392              		.loc 1 478 0
 3393 0014 03B0     		add	sp, sp, #12
 3394              		.cfi_remember_state
 3395              		.cfi_def_cfa_offset 4
 3396              		@ sp needed
 3397 0016 5DF804EB 		ldr	lr, [sp], #4
 3398              		.cfi_restore 14
 3399              		.cfi_def_cfa_offset 0
 3400              	.LBB567:
 3401              	.LBB566:
 3402              		.loc 5 143 0
 3403 001a FFF7FEBF 		b	chSemWait
 3404              	.LVL311:
 3405              	.L221:
 3406              		.cfi_restore_state
 3407 001e FFF7FEFF 		bl	__stack_chk_fail
 3408              	.LVL312:
 3409              	.L223:
 3410 0022 00BF     		.align	2
 3411              	.L222:
 3412 0024 00000000 		.word	__stack_chk_guard
 3413 0028 00000000 		.word	.LANCHOR6
 3414              	.LBE566:
 3415              	.LBE567:
 3416              		.cfi_endproc
 3417              	.LFE284:
 3418              		.size	mod_explo_waitUntilEndOfWork, .-mod_explo_waitUntilEndOfWork
 3419              		.section	.text.mod_explo_doDefinedPath,"ax",%progbits
ARM GAS  /var/folders/qd/4mxf5pkd0zdf0b9dd1hp39180000gn/T//ccn3RVaQ.s 			page 61


 3420              		.align	1
 3421              		.p2align 4,,15
 3422              		.global	mod_explo_doDefinedPath
 3423              		.syntax unified
 3424              		.thumb
 3425              		.thumb_func
 3426              		.fpu fpv4-sp-d16
 3427              		.type	mod_explo_doDefinedPath, %function
 3428              	mod_explo_doDefinedPath:
 3429              	.LFB285:
 3430              		.loc 1 480 0
 3431              		.cfi_startproc
 3432              		@ args = 0, pretend = 0, frame = 8
 3433              		@ frame_needed = 0, uses_anonymous_args = 0
 3434 0000 00B5     		push	{lr}
 3435              		.cfi_def_cfa_offset 4
 3436              		.cfi_offset 14, -4
 3437 0002 064B     		ldr	r3, .L228
 3438 0004 83B0     		sub	sp, sp, #12
 3439              		.cfi_def_cfa_offset 16
 3440              		.loc 1 480 0
 3441 0006 1A68     		ldr	r2, [r3]
 3442 0008 0192     		str	r2, [sp, #4]
 3443              		.loc 1 491 0
 3444 000a 019A     		ldr	r2, [sp, #4]
 3445 000c 1B68     		ldr	r3, [r3]
 3446 000e 9A42     		cmp	r2, r3
 3447 0010 02D1     		bne	.L227
 3448 0012 03B0     		add	sp, sp, #12
 3449              		.cfi_remember_state
 3450              		.cfi_def_cfa_offset 4
 3451              		@ sp needed
 3452 0014 5DF804FB 		ldr	pc, [sp], #4
 3453              	.L227:
 3454              		.cfi_restore_state
 3455 0018 FFF7FEFF 		bl	__stack_chk_fail
 3456              	.LVL313:
 3457              	.L229:
 3458              		.align	2
 3459              	.L228:
 3460 001c 00000000 		.word	__stack_chk_guard
 3461              		.cfi_endproc
 3462              	.LFE285:
 3463              		.size	mod_explo_doDefinedPath, .-mod_explo_doDefinedPath
 3464              		.global	lastOrder
 3465              		.global	isMessage
 3466              		.global	wipEndMovingSignal_sem
 3467              		.global	wipEndSignal_sem
 3468              		.global	history
 3469              		.section	.bss.changeMotorsStateAsync_wa,"aw",%nobits
 3470              		.align	3
 3471              		.set	.LANCHOR8,. + 0
 3472              		.type	changeMotorsStateAsync_wa, %object
 3473              		.size	changeMotorsStateAsync_wa, 1400
 3474              	changeMotorsStateAsync_wa:
 3475 0000 00000000 		.space	1400
 3475      00000000 
ARM GAS  /var/folders/qd/4mxf5pkd0zdf0b9dd1hp39180000gn/T//ccn3RVaQ.s 			page 62


 3475      00000000 
 3475      00000000 
 3475      00000000 
 3476              		.section	.bss.discover_wa,"aw",%nobits
 3477              		.align	3
 3478              		.set	.LANCHOR9,. + 0
 3479              		.type	discover_wa, %object
 3480              		.size	discover_wa, 1400
 3481              	discover_wa:
 3482 0000 00000000 		.space	1400
 3482      00000000 
 3482      00000000 
 3482      00000000 
 3482      00000000 
 3483              		.section	.bss.exploration_wa,"aw",%nobits
 3484              		.align	3
 3485              		.set	.LANCHOR10,. + 0
 3486              		.type	exploration_wa, %object
 3487              		.size	exploration_wa, 1400
 3488              	exploration_wa:
 3489 0000 00000000 		.space	1400
 3489      00000000 
 3489      00000000 
 3489      00000000 
 3489      00000000 
 3490              		.section	.bss.history,"aw",%nobits
 3491              		.align	2
 3492              		.set	.LANCHOR7,. + 0
 3493              		.type	history, %object
 3494              		.size	history, 2
 3495              	history:
 3496 0000 0000     		.space	2
 3497              		.section	.bss.isMoving.11994,"aw",%nobits
 3498              		.set	.LANCHOR0,. + 0
 3499              		.type	isMoving.11994, %object
 3500              		.size	isMoving.11994, 1
 3501              	isMoving.11994:
 3502 0000 00       		.space	1
 3503              		.section	.bss.lastOrder,"aw",%nobits
 3504              		.align	2
 3505              		.set	.LANCHOR3,. + 0
 3506              		.type	lastOrder, %object
 3507              		.size	lastOrder, 8
 3508              	lastOrder:
 3509 0000 00000000 		.space	8
 3509      00000000 
 3510              		.section	.bss.lastOrderTime.11995,"aw",%nobits
 3511              		.align	2
 3512              		.set	.LANCHOR2,. + 0
 3513              		.type	lastOrderTime.11995, %object
 3514              		.size	lastOrderTime.11995, 4
 3515              	lastOrderTime.11995:
 3516 0000 00000000 		.space	4
 3517              		.section	.bss.motorsControlThread,"aw",%nobits
 3518              		.align	2
 3519              		.set	.LANCHOR5,. + 0
 3520              		.type	motorsControlThread, %object
ARM GAS  /var/folders/qd/4mxf5pkd0zdf0b9dd1hp39180000gn/T//ccn3RVaQ.s 			page 63


 3521              		.size	motorsControlThread, 4
 3522              	motorsControlThread:
 3523 0000 00000000 		.space	4
 3524              		.section	.data.isMessage,"aw",%progbits
 3525              		.align	2
 3526              		.type	isMessage, %object
 3527              		.size	isMessage, 12
 3528              	isMessage:
 3529 0000 00000000 		.word	isMessage
 3530 0004 00000000 		.word	isMessage
 3531 0008 00000000 		.word	0
 3532              		.section	.data.wipEndMovingSignal_sem,"aw",%progbits
 3533              		.align	2
 3534              		.set	.LANCHOR4,. + 0
 3535              		.type	wipEndMovingSignal_sem, %object
 3536              		.size	wipEndMovingSignal_sem, 12
 3537              	wipEndMovingSignal_sem:
 3538 0000 00000000 		.word	wipEndMovingSignal_sem
 3539 0004 00000000 		.word	wipEndMovingSignal_sem
 3540 0008 00000000 		.word	0
 3541              		.section	.data.wipEndSignal_sem,"aw",%progbits
 3542              		.align	2
 3543              		.set	.LANCHOR6,. + 0
 3544              		.type	wipEndSignal_sem, %object
 3545              		.size	wipEndSignal_sem, 12
 3546              	wipEndSignal_sem:
 3547 0000 00000000 		.word	wipEndSignal_sem
 3548 0004 00000000 		.word	wipEndSignal_sem
 3549 0008 00000000 		.word	0
 3550              		.section	.rodata.__func__.8398,"a",%progbits
 3551              		.align	2
 3552              		.set	.LANCHOR1,. + 0
 3553              		.type	__func__.8398, %object
 3554              		.size	__func__.8398, 12
 3555              	__func__.8398:
 3556 0000 63685379 		.ascii	"chSysUnlock\000"
 3556      73556E6C 
 3556      6F636B00 
 3557              		.section	.rodata.changeMotorsStateAsync.str1.4,"aMS",%progbits,1
 3558              		.align	2
 3559              	.LC0:
 3560 0000 526F626F 		.ascii	"Robot is not moving\000"
 3560      74206973 
 3560      206E6F74 
 3560      206D6F76 
 3560      696E6700 
 3561              	.LC1:
 3562 0014 526F626F 		.ascii	"Robot is moving\000"
 3562      74206973 
 3562      206D6F76 
 3562      696E6700 
 3563              		.section	.rodata.exploration.str1.4,"aMS",%progbits,1
 3564              		.align	2
 3565              	.LC4:
 3566 0000 456E7465 		.ascii	"Entering exploration thread\000"
 3566      72696E67 
 3566      20657870 
ARM GAS  /var/folders/qd/4mxf5pkd0zdf0b9dd1hp39180000gn/T//ccn3RVaQ.s 			page 64


 3566      6C6F7261 
 3566      74696F6E 
 3567              		.section	.rodata.moveInAbsoluteDirection.str1.4,"aMS",%progbits,1
 3568              		.align	2
 3569              	.LC3:
 3570 0000 5741524E 		.ascii	"WARNING : You're using a useless function\000"
 3570      494E4720 
 3570      3A20596F 
 3570      75277265 
 3570      20757369 
 3571              		.section	.rodata.moveWheelSpeedType.str1.4,"aMS",%progbits,1
 3572              		.align	2
 3573              	.LC2:
 3574 0000 5741524E 		.ascii	"WARNING : You're using a function that corrupts you"
 3574      494E4720 
 3574      3A20596F 
 3574      75277265 
 3574      20757369 
 3575 0033 7220636F 		.ascii	"r coordinates system\000"
 3575      6F726469 
 3575      6E617465 
 3575      73207379 
 3575      7374656D 
 3576              		.text
 3577              	.Letext0:
 3578              		.file 6 "modules/headers/mod_exploration.h"
 3579              		.file 7 "/Applications/Eclipse_e-puck2.app/Contents/Eclipse_e-puck2/Tools/gcc-arm-none-eabi-7-2017
 3580              		.file 8 "/Applications/Eclipse_e-puck2.app/Contents/Eclipse_e-puck2/Tools/gcc-arm-none-eabi-7-2017
 3581              		.file 9 "/Applications/Eclipse_e-puck2.app/Contents/Eclipse_e-puck2/Tools/gcc-arm-none-eabi-7-2017
 3582              		.file 10 "/Applications/Eclipse_e-puck2.app/Contents/Eclipse_e-puck2/Tools/gcc-arm-none-eabi-7-201
 3583              		.file 11 "/Applications/Eclipse_e-puck2.app/Contents/Eclipse_e-puck2/Tools/gcc-arm-none-eabi-7-201
 3584              		.file 12 "/Applications/Eclipse_e-puck2.app/Contents/Eclipse_e-puck2/Tools/gcc-arm-none-eabi-7-201
 3585              		.file 13 "modules/headers/structs.h"
 3586              		.file 14 "modules/headers/mod_mapping.h"
 3587              		.file 15 "/Applications/Eclipse_e-puck2.app/Contents/Eclipse_e-puck2/Tools/gcc-arm-none-eabi-7-201
 3588              		.file 16 "/Applications/Eclipse_e-puck2.app/Contents/Eclipse_e-puck2/Tools/gcc-arm-none-eabi-7-201
 3589              		.file 17 "lib/e-puck2_main-processor/ChibiOS//os/rt/ports/ARMCMx/compilers/GCC/chtypes.h"
 3590              		.file 18 "lib/e-puck2_main-processor/ChibiOS//os/rt/include/chsystypes.h"
 3591              		.file 19 "lib/e-puck2_main-processor/ChibiOS//os/rt/include/chschd.h"
 3592              		.file 20 "lib/e-puck2_main-processor/ChibiOS//os/ext/CMSIS/include/core_cm4.h"
 3593              		.file 21 "lib/e-puck2_main-processor/ChibiOS//os/ext/CMSIS/ST/system_stm32f4xx.h"
 3594              		.file 22 "lib/e-puck2_main-processor/ChibiOS//os/ext/CMSIS/ST/stm32f407xx.h"
 3595              		.file 23 "lib/e-puck2_main-processor/ChibiOS//os/rt/ports/ARMCMx/chcore.h"
 3596              		.file 24 "lib/e-puck2_main-processor/ChibiOS//os/rt/ports/ARMCMx/chcore_v7m.h"
 3597              		.file 25 "lib/e-puck2_main-processor/ChibiOS//os/rt/include/chdebug.h"
 3598              		.file 26 "lib/e-puck2_main-processor/ChibiOS//os/rt/include/chtm.h"
 3599              		.file 27 "lib/e-puck2_main-processor/ChibiOS//os/rt/include/chstats.h"
 3600              		.file 28 "lib/e-puck2_main-processor/ChibiOS//os/rt/include/chsem.h"
 3601              		.file 29 "lib/e-puck2_main-processor/ChibiOS//os/rt/include/chmtx.h"
 3602              		.file 30 "lib/e-puck2_main-processor/ChibiOS//os/rt/include/chregistry.h"
 3603              		.file 31 "lib/e-puck2_main-processor/ChibiOS//os/rt/include/chevents.h"
 3604              		.file 32 "lib/e-puck2_main-processor/ChibiOS//os/rt/include/chqueues.h"
 3605              		.file 33 "modules/headers/mod_sensors.h"
 3606              		.file 34 "lib/e-puck2_main-processor/ChibiOS//os/hal/ports/STM32/STM32F4xx/stm32_dma.h"
 3607              		.file 35 "modules/headers/mod_communication.h"
 3608              		.file 36 "lib/e-puck2_main-processor/ChibiOS//os/hal/include/hal_ioblock.h"
 3609              		.file 37 "lib/e-puck2_main-processor/ChibiOS//os/hal/ports/STM32/LLD/GPIOv2/pal_lld.h"
ARM GAS  /var/folders/qd/4mxf5pkd0zdf0b9dd1hp39180000gn/T//ccn3RVaQ.s 			page 65


 3610              		.file 38 "lib/e-puck2_main-processor/ChibiOS//os/hal/include/adc.h"
 3611              		.file 39 "lib/e-puck2_main-processor/ChibiOS//os/hal/ports/STM32/STM32F4xx/adc_lld.h"
 3612              		.file 40 "lib/e-puck2_main-processor/ChibiOS//os/hal/include/can.h"
 3613              		.file 41 "lib/e-puck2_main-processor/ChibiOS//os/hal/ports/STM32/LLD/can_lld.h"
 3614              		.file 42 "lib/e-puck2_main-processor/ChibiOS//os/hal/include/dac.h"
 3615              		.file 43 "lib/e-puck2_main-processor/ChibiOS//os/hal/ports/STM32/LLD/DACv1/dac_lld.h"
 3616              		.file 44 "lib/e-puck2_main-processor/ChibiOS//os/hal/include/ext.h"
 3617              		.file 45 "lib/e-puck2_main-processor/ChibiOS//os/hal/ports/STM32/LLD/ext_lld.h"
 3618              		.file 46 "lib/e-puck2_main-processor/ChibiOS//os/hal/include/gpt.h"
 3619              		.file 47 "lib/e-puck2_main-processor/ChibiOS//os/hal/ports/STM32/LLD/TIMv1/gpt_lld.h"
 3620              		.file 48 "lib/e-puck2_main-processor/ChibiOS//os/hal/ports/STM32/LLD/TIMv1/stm32_tim.h"
 3621              		.file 49 "lib/e-puck2_main-processor/ChibiOS//os/hal/include/i2c.h"
 3622              		.file 50 "lib/e-puck2_main-processor/ChibiOS//os/hal/ports/STM32/LLD/I2Cv1/i2c_lld.h"
 3623              		.file 51 "lib/e-puck2_main-processor/ChibiOS//os/hal/include/i2s.h"
 3624              		.file 52 "lib/e-puck2_main-processor/ChibiOS//os/hal/ports/STM32/LLD/SPIv1/i2s_lld.h"
 3625              		.file 53 "lib/e-puck2_main-processor/ChibiOS//os/hal/include/pwm.h"
 3626              		.file 54 "lib/e-puck2_main-processor/ChibiOS//os/hal/ports/STM32/LLD/TIMv1/pwm_lld.h"
 3627              		.file 55 "lib/e-puck2_main-processor/ChibiOS//os/hal/include/serial.h"
 3628              		.file 56 "lib/e-puck2_main-processor/ChibiOS//os/hal/ports/STM32/LLD/USARTv1/serial_lld.h"
 3629              		.file 57 "lib/e-puck2_main-processor/ChibiOS//os/hal/include/sdc.h"
 3630              		.file 58 "lib/e-puck2_main-processor/ChibiOS//os/hal/ports/STM32/LLD/sdc_lld.h"
 3631              		.file 59 "lib/e-puck2_main-processor/ChibiOS//os/hal/include/spi.h"
 3632              		.file 60 "lib/e-puck2_main-processor/ChibiOS//os/hal/ports/STM32/LLD/SPIv1/spi_lld.h"
 3633              		.file 61 "lib/e-puck2_main-processor/ChibiOS//os/hal/include/usb.h"
 3634              		.file 62 "lib/e-puck2_main-processor/ChibiOS//os/hal/ports/STM32/LLD/OTGv1/usb_lld.h"
 3635              		.file 63 "lib/e-puck2_main-processor/ChibiOS//os/hal/ports/STM32/LLD/OTGv1/stm32_otg.h"
 3636              		.file 64 "lib/e-puck2_main-processor/ChibiOS//os/rt/include/chmsg.h"
 3637              		.file 65 "lib/e-puck2_main-processor/ChibiOS//os/rt/include/chthreads.h"
 3638              		.file 66 "modules/headers/mod_motors.h"
 3639              		.file 67 "modules/headers/mod_image.h"
 3640              		.file 68 "modules/headers/mod_check.h"
 3641              		.section	.debug_info,"",%progbits
 3642              	.Ldebug_info0:
 3643 0000 1A5E0000 		.4byte	0x5e1a
 3644 0004 0400     		.2byte	0x4
 3645 0006 00000000 		.4byte	.Ldebug_abbrev0
 3646 000a 04       		.byte	0x4
 3647 000b 01       		.uleb128 0x1
 3648 000c B4100000 		.4byte	.LASF964
 3649 0010 0C       		.byte	0xc
 3650 0011 1D160000 		.4byte	.LASF965
 3651 0015 900C0000 		.4byte	.LASF966
 3652 0019 48040000 		.4byte	.Ldebug_ranges0+0x448
 3653 001d 00000000 		.4byte	0
 3654 0021 00000000 		.4byte	.Ldebug_line0
 3655 0025 02       		.uleb128 0x2
 3656 0026 08       		.byte	0x8
 3657 0027 07       		.byte	0x7
 3658 0028 E6230000 		.4byte	.LASF0
 3659 002c 02       		.uleb128 0x2
 3660 002d 04       		.byte	0x4
 3661 002e 07       		.byte	0x7
 3662 002f 3E290000 		.4byte	.LASF1
 3663 0033 02       		.uleb128 0x2
 3664 0034 04       		.byte	0x4
 3665 0035 04       		.byte	0x4
 3666 0036 FC0A0000 		.4byte	.LASF2
ARM GAS  /var/folders/qd/4mxf5pkd0zdf0b9dd1hp39180000gn/T//ccn3RVaQ.s 			page 66


 3667 003a 03       		.uleb128 0x3
 3668 003b 02       		.byte	0x2
 3669 003c 06       		.byte	0x6
 3670 003d 11       		.byte	0x11
 3671 003e 5B000000 		.4byte	0x5b
 3672 0042 04       		.uleb128 0x4
 3673 0043 AB050000 		.4byte	.LASF3
 3674 0047 06       		.byte	0x6
 3675 0048 12       		.byte	0x12
 3676 0049 5B000000 		.4byte	0x5b
 3677 004d 00       		.byte	0
 3678 004e 04       		.uleb128 0x4
 3679 004f 32240000 		.4byte	.LASF4
 3680 0053 06       		.byte	0x6
 3681 0054 13       		.byte	0x13
 3682 0055 5B000000 		.4byte	0x5b
 3683 0059 01       		.byte	0x1
 3684 005a 00       		.byte	0
 3685 005b 02       		.uleb128 0x2
 3686 005c 01       		.byte	0x1
 3687 005d 02       		.byte	0x2
 3688 005e 24010000 		.4byte	.LASF5
 3689 0062 05       		.uleb128 0x5
 3690 0063 DC160000 		.4byte	.LASF6
 3691 0067 06       		.byte	0x6
 3692 0068 14       		.byte	0x14
 3693 0069 3A000000 		.4byte	0x3a
 3694 006d 06       		.uleb128 0x6
 3695 006e 770E0000 		.4byte	.LASF131
 3696 0072 06       		.byte	0x6
 3697 0073 17       		.byte	0x17
 3698 0074 62000000 		.4byte	0x62
 3699 0078 07       		.uleb128 0x7
 3700 0079 04       		.byte	0x4
 3701 007a 05       		.byte	0x5
 3702 007b 696E7400 		.ascii	"int\000"
 3703 007f 05       		.uleb128 0x5
 3704 0080 A80E0000 		.4byte	.LASF7
 3705 0084 07       		.byte	0x7
 3706 0085 D8       		.byte	0xd8
 3707 0086 2C000000 		.4byte	0x2c
 3708 008a 02       		.uleb128 0x2
 3709 008b 08       		.byte	0x8
 3710 008c 05       		.byte	0x5
 3711 008d 9F260000 		.4byte	.LASF8
 3712 0091 02       		.uleb128 0x2
 3713 0092 08       		.byte	0x8
 3714 0093 04       		.byte	0x4
 3715 0094 991C0000 		.4byte	.LASF9
 3716 0098 02       		.uleb128 0x2
 3717 0099 01       		.byte	0x1
 3718 009a 06       		.byte	0x6
 3719 009b EC170000 		.4byte	.LASF10
 3720 009f 05       		.uleb128 0x5
 3721 00a0 E7000000 		.4byte	.LASF11
 3722 00a4 08       		.byte	0x8
 3723 00a5 2B       		.byte	0x2b
ARM GAS  /var/folders/qd/4mxf5pkd0zdf0b9dd1hp39180000gn/T//ccn3RVaQ.s 			page 67


 3724 00a6 AA000000 		.4byte	0xaa
 3725 00aa 02       		.uleb128 0x2
 3726 00ab 01       		.byte	0x1
 3727 00ac 08       		.byte	0x8
 3728 00ad 770A0000 		.4byte	.LASF12
 3729 00b1 05       		.uleb128 0x5
 3730 00b2 92080000 		.4byte	.LASF13
 3731 00b6 08       		.byte	0x8
 3732 00b7 37       		.byte	0x37
 3733 00b8 BC000000 		.4byte	0xbc
 3734 00bc 02       		.uleb128 0x2
 3735 00bd 02       		.byte	0x2
 3736 00be 05       		.byte	0x5
 3737 00bf AA290000 		.4byte	.LASF14
 3738 00c3 05       		.uleb128 0x5
 3739 00c4 9C080000 		.4byte	.LASF15
 3740 00c8 08       		.byte	0x8
 3741 00c9 39       		.byte	0x39
 3742 00ca CE000000 		.4byte	0xce
 3743 00ce 02       		.uleb128 0x2
 3744 00cf 02       		.byte	0x2
 3745 00d0 07       		.byte	0x7
 3746 00d1 D1170000 		.4byte	.LASF16
 3747 00d5 05       		.uleb128 0x5
 3748 00d6 D2210000 		.4byte	.LASF17
 3749 00da 08       		.byte	0x8
 3750 00db 4D       		.byte	0x4d
 3751 00dc E0000000 		.4byte	0xe0
 3752 00e0 02       		.uleb128 0x2
 3753 00e1 04       		.byte	0x4
 3754 00e2 05       		.byte	0x5
 3755 00e3 FD1A0000 		.4byte	.LASF18
 3756 00e7 05       		.uleb128 0x5
 3757 00e8 DC210000 		.4byte	.LASF19
 3758 00ec 08       		.byte	0x8
 3759 00ed 4F       		.byte	0x4f
 3760 00ee F2000000 		.4byte	0xf2
 3761 00f2 02       		.uleb128 0x2
 3762 00f3 04       		.byte	0x4
 3763 00f4 07       		.byte	0x7
 3764 00f5 181D0000 		.4byte	.LASF20
 3765 00f9 05       		.uleb128 0x5
 3766 00fa FB120000 		.4byte	.LASF21
 3767 00fe 08       		.byte	0x8
 3768 00ff 69       		.byte	0x69
 3769 0100 25000000 		.4byte	0x25
 3770 0104 05       		.uleb128 0x5
 3771 0105 71080000 		.4byte	.LASF22
 3772 0109 09       		.byte	0x9
 3773 010a 22       		.byte	0x22
 3774 010b 0F010000 		.4byte	0x10f
 3775 010f 08       		.uleb128 0x8
 3776 0110 04       		.byte	0x4
 3777 0111 15010000 		.4byte	0x115
 3778 0115 09       		.uleb128 0x9
 3779 0116 23060000 		.4byte	.LASF129
 3780 011a 05       		.uleb128 0x5
ARM GAS  /var/folders/qd/4mxf5pkd0zdf0b9dd1hp39180000gn/T//ccn3RVaQ.s 			page 68


 3781 011b 700E0000 		.4byte	.LASF23
 3782 011f 0A       		.byte	0xa
 3783 0120 2C       		.byte	0x2c
 3784 0121 E0000000 		.4byte	0xe0
 3785 0125 05       		.uleb128 0x5
 3786 0126 D8200000 		.4byte	.LASF24
 3787 012a 0A       		.byte	0xa
 3788 012b 72       		.byte	0x72
 3789 012c E0000000 		.4byte	0xe0
 3790 0130 0A       		.uleb128 0xa
 3791 0131 43100000 		.4byte	.LASF25
 3792 0135 07       		.byte	0x7
 3793 0136 6501     		.2byte	0x165
 3794 0138 2C000000 		.4byte	0x2c
 3795 013c 0B       		.uleb128 0xb
 3796 013d 04       		.byte	0x4
 3797 013e 0A       		.byte	0xa
 3798 013f A6       		.byte	0xa6
 3799 0140 5B010000 		.4byte	0x15b
 3800 0144 0C       		.uleb128 0xc
 3801 0145 431A0000 		.4byte	.LASF26
 3802 0149 0A       		.byte	0xa
 3803 014a A8       		.byte	0xa8
 3804 014b 30010000 		.4byte	0x130
 3805 014f 0C       		.uleb128 0xc
 3806 0150 F10F0000 		.4byte	.LASF27
 3807 0154 0A       		.byte	0xa
 3808 0155 A9       		.byte	0xa9
 3809 0156 5B010000 		.4byte	0x15b
 3810 015a 00       		.byte	0
 3811 015b 0D       		.uleb128 0xd
 3812 015c AA000000 		.4byte	0xaa
 3813 0160 6B010000 		.4byte	0x16b
 3814 0164 0E       		.uleb128 0xe
 3815 0165 2C000000 		.4byte	0x2c
 3816 0169 03       		.byte	0x3
 3817 016a 00       		.byte	0
 3818 016b 03       		.uleb128 0x3
 3819 016c 08       		.byte	0x8
 3820 016d 0A       		.byte	0xa
 3821 016e A3       		.byte	0xa3
 3822 016f 8C010000 		.4byte	0x18c
 3823 0173 04       		.uleb128 0x4
 3824 0174 C70E0000 		.4byte	.LASF28
 3825 0178 0A       		.byte	0xa
 3826 0179 A5       		.byte	0xa5
 3827 017a 78000000 		.4byte	0x78
 3828 017e 00       		.byte	0
 3829 017f 04       		.uleb128 0x4
 3830 0180 1F220000 		.4byte	.LASF29
 3831 0184 0A       		.byte	0xa
 3832 0185 AA       		.byte	0xaa
 3833 0186 3C010000 		.4byte	0x13c
 3834 018a 04       		.byte	0x4
 3835 018b 00       		.byte	0
 3836 018c 05       		.uleb128 0x5
 3837 018d 79210000 		.4byte	.LASF30
ARM GAS  /var/folders/qd/4mxf5pkd0zdf0b9dd1hp39180000gn/T//ccn3RVaQ.s 			page 69


 3838 0191 0A       		.byte	0xa
 3839 0192 AB       		.byte	0xab
 3840 0193 6B010000 		.4byte	0x16b
 3841 0197 05       		.uleb128 0x5
 3842 0198 06260000 		.4byte	.LASF31
 3843 019c 0A       		.byte	0xa
 3844 019d AF       		.byte	0xaf
 3845 019e 04010000 		.4byte	0x104
 3846 01a2 0F       		.uleb128 0xf
 3847 01a3 04       		.byte	0x4
 3848 01a4 08       		.uleb128 0x8
 3849 01a5 04       		.byte	0x4
 3850 01a6 AA010000 		.4byte	0x1aa
 3851 01aa 02       		.uleb128 0x2
 3852 01ab 01       		.byte	0x1
 3853 01ac 08       		.byte	0x8
 3854 01ad BD1D0000 		.4byte	.LASF32
 3855 01b1 10       		.uleb128 0x10
 3856 01b2 AA010000 		.4byte	0x1aa
 3857 01b6 05       		.uleb128 0x5
 3858 01b7 64160000 		.4byte	.LASF33
 3859 01bb 0B       		.byte	0xb
 3860 01bc 16       		.byte	0x16
 3861 01bd F2000000 		.4byte	0xf2
 3862 01c1 11       		.uleb128 0x11
 3863 01c2 941E0000 		.4byte	.LASF38
 3864 01c6 18       		.byte	0x18
 3865 01c7 0B       		.byte	0xb
 3866 01c8 2F       		.byte	0x2f
 3867 01c9 14020000 		.4byte	0x214
 3868 01cd 04       		.uleb128 0x4
 3869 01ce 06130000 		.4byte	.LASF34
 3870 01d2 0B       		.byte	0xb
 3871 01d3 31       		.byte	0x31
 3872 01d4 14020000 		.4byte	0x214
 3873 01d8 00       		.byte	0
 3874 01d9 12       		.uleb128 0x12
 3875 01da 5F6B00   		.ascii	"_k\000"
 3876 01dd 0B       		.byte	0xb
 3877 01de 32       		.byte	0x32
 3878 01df 78000000 		.4byte	0x78
 3879 01e3 04       		.byte	0x4
 3880 01e4 04       		.uleb128 0x4
 3881 01e5 6A1C0000 		.4byte	.LASF35
 3882 01e9 0B       		.byte	0xb
 3883 01ea 32       		.byte	0x32
 3884 01eb 78000000 		.4byte	0x78
 3885 01ef 08       		.byte	0x8
 3886 01f0 04       		.uleb128 0x4
 3887 01f1 D1280000 		.4byte	.LASF36
 3888 01f5 0B       		.byte	0xb
 3889 01f6 32       		.byte	0x32
 3890 01f7 78000000 		.4byte	0x78
 3891 01fb 0C       		.byte	0xc
 3892 01fc 04       		.uleb128 0x4
 3893 01fd F70A0000 		.4byte	.LASF37
 3894 0201 0B       		.byte	0xb
ARM GAS  /var/folders/qd/4mxf5pkd0zdf0b9dd1hp39180000gn/T//ccn3RVaQ.s 			page 70


 3895 0202 32       		.byte	0x32
 3896 0203 78000000 		.4byte	0x78
 3897 0207 10       		.byte	0x10
 3898 0208 12       		.uleb128 0x12
 3899 0209 5F7800   		.ascii	"_x\000"
 3900 020c 0B       		.byte	0xb
 3901 020d 33       		.byte	0x33
 3902 020e 1A020000 		.4byte	0x21a
 3903 0212 14       		.byte	0x14
 3904 0213 00       		.byte	0
 3905 0214 08       		.uleb128 0x8
 3906 0215 04       		.byte	0x4
 3907 0216 C1010000 		.4byte	0x1c1
 3908 021a 0D       		.uleb128 0xd
 3909 021b B6010000 		.4byte	0x1b6
 3910 021f 2A020000 		.4byte	0x22a
 3911 0223 0E       		.uleb128 0xe
 3912 0224 2C000000 		.4byte	0x2c
 3913 0228 00       		.byte	0
 3914 0229 00       		.byte	0
 3915 022a 11       		.uleb128 0x11
 3916 022b 65070000 		.4byte	.LASF39
 3917 022f 24       		.byte	0x24
 3918 0230 0B       		.byte	0xb
 3919 0231 37       		.byte	0x37
 3920 0232 A3020000 		.4byte	0x2a3
 3921 0236 04       		.uleb128 0x4
 3922 0237 AA140000 		.4byte	.LASF40
 3923 023b 0B       		.byte	0xb
 3924 023c 39       		.byte	0x39
 3925 023d 78000000 		.4byte	0x78
 3926 0241 00       		.byte	0
 3927 0242 04       		.uleb128 0x4
 3928 0243 EA280000 		.4byte	.LASF41
 3929 0247 0B       		.byte	0xb
 3930 0248 3A       		.byte	0x3a
 3931 0249 78000000 		.4byte	0x78
 3932 024d 04       		.byte	0x4
 3933 024e 04       		.uleb128 0x4
 3934 024f 12100000 		.4byte	.LASF42
 3935 0253 0B       		.byte	0xb
 3936 0254 3B       		.byte	0x3b
 3937 0255 78000000 		.4byte	0x78
 3938 0259 08       		.byte	0x8
 3939 025a 04       		.uleb128 0x4
 3940 025b 27120000 		.4byte	.LASF43
 3941 025f 0B       		.byte	0xb
 3942 0260 3C       		.byte	0x3c
 3943 0261 78000000 		.4byte	0x78
 3944 0265 0C       		.byte	0xc
 3945 0266 04       		.uleb128 0x4
 3946 0267 BC010000 		.4byte	.LASF44
 3947 026b 0B       		.byte	0xb
 3948 026c 3D       		.byte	0x3d
 3949 026d 78000000 		.4byte	0x78
 3950 0271 10       		.byte	0x10
 3951 0272 04       		.uleb128 0x4
ARM GAS  /var/folders/qd/4mxf5pkd0zdf0b9dd1hp39180000gn/T//ccn3RVaQ.s 			page 71


 3952 0273 130C0000 		.4byte	.LASF45
 3953 0277 0B       		.byte	0xb
 3954 0278 3E       		.byte	0x3e
 3955 0279 78000000 		.4byte	0x78
 3956 027d 14       		.byte	0x14
 3957 027e 04       		.uleb128 0x4
 3958 027f E0090000 		.4byte	.LASF46
 3959 0283 0B       		.byte	0xb
 3960 0284 3F       		.byte	0x3f
 3961 0285 78000000 		.4byte	0x78
 3962 0289 18       		.byte	0x18
 3963 028a 04       		.uleb128 0x4
 3964 028b 14080000 		.4byte	.LASF47
 3965 028f 0B       		.byte	0xb
 3966 0290 40       		.byte	0x40
 3967 0291 78000000 		.4byte	0x78
 3968 0295 1C       		.byte	0x1c
 3969 0296 04       		.uleb128 0x4
 3970 0297 EA090000 		.4byte	.LASF48
 3971 029b 0B       		.byte	0xb
 3972 029c 41       		.byte	0x41
 3973 029d 78000000 		.4byte	0x78
 3974 02a1 20       		.byte	0x20
 3975 02a2 00       		.byte	0
 3976 02a3 13       		.uleb128 0x13
 3977 02a4 E0140000 		.4byte	.LASF49
 3978 02a8 0801     		.2byte	0x108
 3979 02aa 0B       		.byte	0xb
 3980 02ab 4A       		.byte	0x4a
 3981 02ac E3020000 		.4byte	0x2e3
 3982 02b0 04       		.uleb128 0x4
 3983 02b1 6A120000 		.4byte	.LASF50
 3984 02b5 0B       		.byte	0xb
 3985 02b6 4B       		.byte	0x4b
 3986 02b7 E3020000 		.4byte	0x2e3
 3987 02bb 00       		.byte	0
 3988 02bc 04       		.uleb128 0x4
 3989 02bd 9A090000 		.4byte	.LASF51
 3990 02c1 0B       		.byte	0xb
 3991 02c2 4C       		.byte	0x4c
 3992 02c3 E3020000 		.4byte	0x2e3
 3993 02c7 80       		.byte	0x80
 3994 02c8 14       		.uleb128 0x14
 3995 02c9 C5010000 		.4byte	.LASF52
 3996 02cd 0B       		.byte	0xb
 3997 02ce 4E       		.byte	0x4e
 3998 02cf B6010000 		.4byte	0x1b6
 3999 02d3 0001     		.2byte	0x100
 4000 02d5 14       		.uleb128 0x14
 4001 02d6 3D220000 		.4byte	.LASF53
 4002 02da 0B       		.byte	0xb
 4003 02db 51       		.byte	0x51
 4004 02dc B6010000 		.4byte	0x1b6
 4005 02e0 0401     		.2byte	0x104
 4006 02e2 00       		.byte	0
 4007 02e3 0D       		.uleb128 0xd
 4008 02e4 A2010000 		.4byte	0x1a2
ARM GAS  /var/folders/qd/4mxf5pkd0zdf0b9dd1hp39180000gn/T//ccn3RVaQ.s 			page 72


 4009 02e8 F3020000 		.4byte	0x2f3
 4010 02ec 0E       		.uleb128 0xe
 4011 02ed 2C000000 		.4byte	0x2c
 4012 02f1 1F       		.byte	0x1f
 4013 02f2 00       		.byte	0
 4014 02f3 13       		.uleb128 0x13
 4015 02f4 51010000 		.4byte	.LASF54
 4016 02f8 9001     		.2byte	0x190
 4017 02fa 0B       		.byte	0xb
 4018 02fb 5D       		.byte	0x5d
 4019 02fc 31030000 		.4byte	0x331
 4020 0300 04       		.uleb128 0x4
 4021 0301 06130000 		.4byte	.LASF34
 4022 0305 0B       		.byte	0xb
 4023 0306 5E       		.byte	0x5e
 4024 0307 31030000 		.4byte	0x331
 4025 030b 00       		.byte	0
 4026 030c 04       		.uleb128 0x4
 4027 030d F7010000 		.4byte	.LASF55
 4028 0311 0B       		.byte	0xb
 4029 0312 5F       		.byte	0x5f
 4030 0313 78000000 		.4byte	0x78
 4031 0317 04       		.byte	0x4
 4032 0318 04       		.uleb128 0x4
 4033 0319 3C210000 		.4byte	.LASF56
 4034 031d 0B       		.byte	0xb
 4035 031e 61       		.byte	0x61
 4036 031f 37030000 		.4byte	0x337
 4037 0323 08       		.byte	0x8
 4038 0324 04       		.uleb128 0x4
 4039 0325 E0140000 		.4byte	.LASF49
 4040 0329 0B       		.byte	0xb
 4041 032a 62       		.byte	0x62
 4042 032b A3020000 		.4byte	0x2a3
 4043 032f 88       		.byte	0x88
 4044 0330 00       		.byte	0
 4045 0331 08       		.uleb128 0x8
 4046 0332 04       		.byte	0x4
 4047 0333 F3020000 		.4byte	0x2f3
 4048 0337 0D       		.uleb128 0xd
 4049 0338 47030000 		.4byte	0x347
 4050 033c 47030000 		.4byte	0x347
 4051 0340 0E       		.uleb128 0xe
 4052 0341 2C000000 		.4byte	0x2c
 4053 0345 1F       		.byte	0x1f
 4054 0346 00       		.byte	0
 4055 0347 08       		.uleb128 0x8
 4056 0348 04       		.byte	0x4
 4057 0349 4D030000 		.4byte	0x34d
 4058 034d 15       		.uleb128 0x15
 4059 034e 11       		.uleb128 0x11
 4060 034f 71190000 		.4byte	.LASF57
 4061 0353 08       		.byte	0x8
 4062 0354 0B       		.byte	0xb
 4063 0355 75       		.byte	0x75
 4064 0356 73030000 		.4byte	0x373
 4065 035a 04       		.uleb128 0x4
ARM GAS  /var/folders/qd/4mxf5pkd0zdf0b9dd1hp39180000gn/T//ccn3RVaQ.s 			page 73


 4066 035b 8E060000 		.4byte	.LASF58
 4067 035f 0B       		.byte	0xb
 4068 0360 76       		.byte	0x76
 4069 0361 73030000 		.4byte	0x373
 4070 0365 00       		.byte	0
 4071 0366 04       		.uleb128 0x4
 4072 0367 200B0000 		.4byte	.LASF59
 4073 036b 0B       		.byte	0xb
 4074 036c 77       		.byte	0x77
 4075 036d 78000000 		.4byte	0x78
 4076 0371 04       		.byte	0x4
 4077 0372 00       		.byte	0
 4078 0373 08       		.uleb128 0x8
 4079 0374 04       		.byte	0x4
 4080 0375 AA000000 		.4byte	0xaa
 4081 0379 11       		.uleb128 0x11
 4082 037a 2D210000 		.4byte	.LASF60
 4083 037e 68       		.byte	0x68
 4084 037f 0B       		.byte	0xb
 4085 0380 B5       		.byte	0xb5
 4086 0381 A3040000 		.4byte	0x4a3
 4087 0385 12       		.uleb128 0x12
 4088 0386 5F7000   		.ascii	"_p\000"
 4089 0389 0B       		.byte	0xb
 4090 038a B6       		.byte	0xb6
 4091 038b 73030000 		.4byte	0x373
 4092 038f 00       		.byte	0
 4093 0390 12       		.uleb128 0x12
 4094 0391 5F7200   		.ascii	"_r\000"
 4095 0394 0B       		.byte	0xb
 4096 0395 B7       		.byte	0xb7
 4097 0396 78000000 		.4byte	0x78
 4098 039a 04       		.byte	0x4
 4099 039b 12       		.uleb128 0x12
 4100 039c 5F7700   		.ascii	"_w\000"
 4101 039f 0B       		.byte	0xb
 4102 03a0 B8       		.byte	0xb8
 4103 03a1 78000000 		.4byte	0x78
 4104 03a5 08       		.byte	0x8
 4105 03a6 04       		.uleb128 0x4
 4106 03a7 47020000 		.4byte	.LASF61
 4107 03ab 0B       		.byte	0xb
 4108 03ac B9       		.byte	0xb9
 4109 03ad BC000000 		.4byte	0xbc
 4110 03b1 0C       		.byte	0xc
 4111 03b2 04       		.uleb128 0x4
 4112 03b3 F5200000 		.4byte	.LASF62
 4113 03b7 0B       		.byte	0xb
 4114 03b8 BA       		.byte	0xba
 4115 03b9 BC000000 		.4byte	0xbc
 4116 03bd 0E       		.byte	0xe
 4117 03be 12       		.uleb128 0x12
 4118 03bf 5F626600 		.ascii	"_bf\000"
 4119 03c3 0B       		.byte	0xb
 4120 03c4 BB       		.byte	0xbb
 4121 03c5 4E030000 		.4byte	0x34e
 4122 03c9 10       		.byte	0x10
ARM GAS  /var/folders/qd/4mxf5pkd0zdf0b9dd1hp39180000gn/T//ccn3RVaQ.s 			page 74


 4123 03ca 04       		.uleb128 0x4
 4124 03cb EF040000 		.4byte	.LASF63
 4125 03cf 0B       		.byte	0xb
 4126 03d0 BC       		.byte	0xbc
 4127 03d1 78000000 		.4byte	0x78
 4128 03d5 18       		.byte	0x18
 4129 03d6 04       		.uleb128 0x4
 4130 03d7 62130000 		.4byte	.LASF64
 4131 03db 0B       		.byte	0xb
 4132 03dc C3       		.byte	0xc3
 4133 03dd A2010000 		.4byte	0x1a2
 4134 03e1 1C       		.byte	0x1c
 4135 03e2 04       		.uleb128 0x4
 4136 03e3 CC290000 		.4byte	.LASF65
 4137 03e7 0B       		.byte	0xb
 4138 03e8 C5       		.byte	0xc5
 4139 03e9 FE050000 		.4byte	0x5fe
 4140 03ed 20       		.byte	0x20
 4141 03ee 04       		.uleb128 0x4
 4142 03ef 7A0B0000 		.4byte	.LASF66
 4143 03f3 0B       		.byte	0xb
 4144 03f4 C7       		.byte	0xc7
 4145 03f5 2D060000 		.4byte	0x62d
 4146 03f9 24       		.byte	0x24
 4147 03fa 04       		.uleb128 0x4
 4148 03fb 87170000 		.4byte	.LASF67
 4149 03ff 0B       		.byte	0xb
 4150 0400 CA       		.byte	0xca
 4151 0401 51060000 		.4byte	0x651
 4152 0405 28       		.byte	0x28
 4153 0406 04       		.uleb128 0x4
 4154 0407 B61D0000 		.4byte	.LASF68
 4155 040b 0B       		.byte	0xb
 4156 040c CB       		.byte	0xcb
 4157 040d 6B060000 		.4byte	0x66b
 4158 0411 2C       		.byte	0x2c
 4159 0412 12       		.uleb128 0x12
 4160 0413 5F756200 		.ascii	"_ub\000"
 4161 0417 0B       		.byte	0xb
 4162 0418 CE       		.byte	0xce
 4163 0419 4E030000 		.4byte	0x34e
 4164 041d 30       		.byte	0x30
 4165 041e 12       		.uleb128 0x12
 4166 041f 5F757000 		.ascii	"_up\000"
 4167 0423 0B       		.byte	0xb
 4168 0424 CF       		.byte	0xcf
 4169 0425 73030000 		.4byte	0x373
 4170 0429 38       		.byte	0x38
 4171 042a 12       		.uleb128 0x12
 4172 042b 5F757200 		.ascii	"_ur\000"
 4173 042f 0B       		.byte	0xb
 4174 0430 D0       		.byte	0xd0
 4175 0431 78000000 		.4byte	0x78
 4176 0435 3C       		.byte	0x3c
 4177 0436 04       		.uleb128 0x4
 4178 0437 2F200000 		.4byte	.LASF69
 4179 043b 0B       		.byte	0xb
ARM GAS  /var/folders/qd/4mxf5pkd0zdf0b9dd1hp39180000gn/T//ccn3RVaQ.s 			page 75


 4180 043c D3       		.byte	0xd3
 4181 043d 71060000 		.4byte	0x671
 4182 0441 40       		.byte	0x40
 4183 0442 04       		.uleb128 0x4
 4184 0443 1F030000 		.4byte	.LASF70
 4185 0447 0B       		.byte	0xb
 4186 0448 D4       		.byte	0xd4
 4187 0449 81060000 		.4byte	0x681
 4188 044d 43       		.byte	0x43
 4189 044e 12       		.uleb128 0x12
 4190 044f 5F6C6200 		.ascii	"_lb\000"
 4191 0453 0B       		.byte	0xb
 4192 0454 D7       		.byte	0xd7
 4193 0455 4E030000 		.4byte	0x34e
 4194 0459 44       		.byte	0x44
 4195 045a 04       		.uleb128 0x4
 4196 045b 1D200000 		.4byte	.LASF71
 4197 045f 0B       		.byte	0xb
 4198 0460 DA       		.byte	0xda
 4199 0461 78000000 		.4byte	0x78
 4200 0465 4C       		.byte	0x4c
 4201 0466 04       		.uleb128 0x4
 4202 0467 05190000 		.4byte	.LASF72
 4203 046b 0B       		.byte	0xb
 4204 046c DB       		.byte	0xdb
 4205 046d 1A010000 		.4byte	0x11a
 4206 0471 50       		.byte	0x50
 4207 0472 04       		.uleb128 0x4
 4208 0473 71050000 		.4byte	.LASF73
 4209 0477 0B       		.byte	0xb
 4210 0478 DE       		.byte	0xde
 4211 0479 C1040000 		.4byte	0x4c1
 4212 047d 54       		.byte	0x54
 4213 047e 04       		.uleb128 0x4
 4214 047f 19030000 		.4byte	.LASF74
 4215 0483 0B       		.byte	0xb
 4216 0484 E2       		.byte	0xe2
 4217 0485 97010000 		.4byte	0x197
 4218 0489 58       		.byte	0x58
 4219 048a 04       		.uleb128 0x4
 4220 048b 48010000 		.4byte	.LASF75
 4221 048f 0B       		.byte	0xb
 4222 0490 E4       		.byte	0xe4
 4223 0491 8C010000 		.4byte	0x18c
 4224 0495 5C       		.byte	0x5c
 4225 0496 04       		.uleb128 0x4
 4226 0497 CF260000 		.4byte	.LASF76
 4227 049b 0B       		.byte	0xb
 4228 049c E5       		.byte	0xe5
 4229 049d 78000000 		.4byte	0x78
 4230 04a1 64       		.byte	0x64
 4231 04a2 00       		.byte	0
 4232 04a3 16       		.uleb128 0x16
 4233 04a4 78000000 		.4byte	0x78
 4234 04a8 C1040000 		.4byte	0x4c1
 4235 04ac 17       		.uleb128 0x17
 4236 04ad C1040000 		.4byte	0x4c1
ARM GAS  /var/folders/qd/4mxf5pkd0zdf0b9dd1hp39180000gn/T//ccn3RVaQ.s 			page 76


 4237 04b1 17       		.uleb128 0x17
 4238 04b2 A2010000 		.4byte	0x1a2
 4239 04b6 17       		.uleb128 0x17
 4240 04b7 A4010000 		.4byte	0x1a4
 4241 04bb 17       		.uleb128 0x17
 4242 04bc 78000000 		.4byte	0x78
 4243 04c0 00       		.byte	0
 4244 04c1 08       		.uleb128 0x8
 4245 04c2 04       		.byte	0x4
 4246 04c3 CC040000 		.4byte	0x4cc
 4247 04c7 10       		.uleb128 0x10
 4248 04c8 C1040000 		.4byte	0x4c1
 4249 04cc 18       		.uleb128 0x18
 4250 04cd 39060000 		.4byte	.LASF77
 4251 04d1 2804     		.2byte	0x428
 4252 04d3 0B       		.byte	0xb
 4253 04d4 3902     		.2byte	0x239
 4254 04d6 FE050000 		.4byte	0x5fe
 4255 04da 19       		.uleb128 0x19
 4256 04db 0C120000 		.4byte	.LASF78
 4257 04df 0B       		.byte	0xb
 4258 04e0 3B02     		.2byte	0x23b
 4259 04e2 78000000 		.4byte	0x78
 4260 04e6 00       		.byte	0
 4261 04e7 19       		.uleb128 0x19
 4262 04e8 760D0000 		.4byte	.LASF79
 4263 04ec 0B       		.byte	0xb
 4264 04ed 4002     		.2byte	0x240
 4265 04ef D8060000 		.4byte	0x6d8
 4266 04f3 04       		.byte	0x4
 4267 04f4 19       		.uleb128 0x19
 4268 04f5 850A0000 		.4byte	.LASF80
 4269 04f9 0B       		.byte	0xb
 4270 04fa 4002     		.2byte	0x240
 4271 04fc D8060000 		.4byte	0x6d8
 4272 0500 08       		.byte	0x8
 4273 0501 19       		.uleb128 0x19
 4274 0502 7A090000 		.4byte	.LASF81
 4275 0506 0B       		.byte	0xb
 4276 0507 4002     		.2byte	0x240
 4277 0509 D8060000 		.4byte	0x6d8
 4278 050d 0C       		.byte	0xc
 4279 050e 19       		.uleb128 0x19
 4280 050f F2010000 		.4byte	.LASF82
 4281 0513 0B       		.byte	0xb
 4282 0514 4202     		.2byte	0x242
 4283 0516 78000000 		.4byte	0x78
 4284 051a 10       		.byte	0x10
 4285 051b 19       		.uleb128 0x19
 4286 051c C71B0000 		.4byte	.LASF83
 4287 0520 0B       		.byte	0xb
 4288 0521 4302     		.2byte	0x243
 4289 0523 BA080000 		.4byte	0x8ba
 4290 0527 14       		.byte	0x14
 4291 0528 19       		.uleb128 0x19
 4292 0529 2C250000 		.4byte	.LASF84
 4293 052d 0B       		.byte	0xb
ARM GAS  /var/folders/qd/4mxf5pkd0zdf0b9dd1hp39180000gn/T//ccn3RVaQ.s 			page 77


 4294 052e 4602     		.2byte	0x246
 4295 0530 78000000 		.4byte	0x78
 4296 0534 30       		.byte	0x30
 4297 0535 19       		.uleb128 0x19
 4298 0536 45270000 		.4byte	.LASF85
 4299 053a 0B       		.byte	0xb
 4300 053b 4702     		.2byte	0x247
 4301 053d CF080000 		.4byte	0x8cf
 4302 0541 34       		.byte	0x34
 4303 0542 19       		.uleb128 0x19
 4304 0543 9F250000 		.4byte	.LASF86
 4305 0547 0B       		.byte	0xb
 4306 0548 4902     		.2byte	0x249
 4307 054a 78000000 		.4byte	0x78
 4308 054e 38       		.byte	0x38
 4309 054f 19       		.uleb128 0x19
 4310 0550 7C200000 		.4byte	.LASF87
 4311 0554 0B       		.byte	0xb
 4312 0555 4B02     		.2byte	0x24b
 4313 0557 E0080000 		.4byte	0x8e0
 4314 055b 3C       		.byte	0x3c
 4315 055c 19       		.uleb128 0x19
 4316 055d 82090000 		.4byte	.LASF88
 4317 0561 0B       		.byte	0xb
 4318 0562 4E02     		.2byte	0x24e
 4319 0564 14020000 		.4byte	0x214
 4320 0568 40       		.byte	0x40
 4321 0569 19       		.uleb128 0x19
 4322 056a 6B090000 		.4byte	.LASF89
 4323 056e 0B       		.byte	0xb
 4324 056f 4F02     		.2byte	0x24f
 4325 0571 78000000 		.4byte	0x78
 4326 0575 44       		.byte	0x44
 4327 0576 19       		.uleb128 0x19
 4328 0577 80220000 		.4byte	.LASF90
 4329 057b 0B       		.byte	0xb
 4330 057c 5002     		.2byte	0x250
 4331 057e 14020000 		.4byte	0x214
 4332 0582 48       		.byte	0x48
 4333 0583 19       		.uleb128 0x19
 4334 0584 93180000 		.4byte	.LASF91
 4335 0588 0B       		.byte	0xb
 4336 0589 5102     		.2byte	0x251
 4337 058b E6080000 		.4byte	0x8e6
 4338 058f 4C       		.byte	0x4c
 4339 0590 19       		.uleb128 0x19
 4340 0591 89020000 		.4byte	.LASF92
 4341 0595 0B       		.byte	0xb
 4342 0596 5402     		.2byte	0x254
 4343 0598 78000000 		.4byte	0x78
 4344 059c 50       		.byte	0x50
 4345 059d 19       		.uleb128 0x19
 4346 059e 680F0000 		.4byte	.LASF93
 4347 05a2 0B       		.byte	0xb
 4348 05a3 5502     		.2byte	0x255
 4349 05a5 A4010000 		.4byte	0x1a4
 4350 05a9 54       		.byte	0x54
ARM GAS  /var/folders/qd/4mxf5pkd0zdf0b9dd1hp39180000gn/T//ccn3RVaQ.s 			page 78


 4351 05aa 19       		.uleb128 0x19
 4352 05ab 52100000 		.4byte	.LASF94
 4353 05af 0B       		.byte	0xb
 4354 05b0 7802     		.2byte	0x278
 4355 05b2 98080000 		.4byte	0x898
 4356 05b6 58       		.byte	0x58
 4357 05b7 1A       		.uleb128 0x1a
 4358 05b8 51010000 		.4byte	.LASF54
 4359 05bc 0B       		.byte	0xb
 4360 05bd 7C02     		.2byte	0x27c
 4361 05bf 31030000 		.4byte	0x331
 4362 05c3 4801     		.2byte	0x148
 4363 05c5 1A       		.uleb128 0x1a
 4364 05c6 D01E0000 		.4byte	.LASF95
 4365 05ca 0B       		.byte	0xb
 4366 05cb 7D02     		.2byte	0x27d
 4367 05cd F3020000 		.4byte	0x2f3
 4368 05d1 4C01     		.2byte	0x14c
 4369 05d3 1A       		.uleb128 0x1a
 4370 05d4 B9020000 		.4byte	.LASF96
 4371 05d8 0B       		.byte	0xb
 4372 05d9 8102     		.2byte	0x281
 4373 05db F7080000 		.4byte	0x8f7
 4374 05df DC02     		.2byte	0x2dc
 4375 05e1 1A       		.uleb128 0x1a
 4376 05e2 5A200000 		.4byte	.LASF97
 4377 05e6 0B       		.byte	0xb
 4378 05e7 8602     		.2byte	0x286
 4379 05e9 9D060000 		.4byte	0x69d
 4380 05ed E002     		.2byte	0x2e0
 4381 05ef 1A       		.uleb128 0x1a
 4382 05f0 80060000 		.4byte	.LASF98
 4383 05f4 0B       		.byte	0xb
 4384 05f5 8802     		.2byte	0x288
 4385 05f7 03090000 		.4byte	0x903
 4386 05fb EC02     		.2byte	0x2ec
 4387 05fd 00       		.byte	0
 4388 05fe 08       		.uleb128 0x8
 4389 05ff 04       		.byte	0x4
 4390 0600 A3040000 		.4byte	0x4a3
 4391 0604 16       		.uleb128 0x16
 4392 0605 78000000 		.4byte	0x78
 4393 0609 22060000 		.4byte	0x622
 4394 060d 17       		.uleb128 0x17
 4395 060e C1040000 		.4byte	0x4c1
 4396 0612 17       		.uleb128 0x17
 4397 0613 A2010000 		.4byte	0x1a2
 4398 0617 17       		.uleb128 0x17
 4399 0618 22060000 		.4byte	0x622
 4400 061c 17       		.uleb128 0x17
 4401 061d 78000000 		.4byte	0x78
 4402 0621 00       		.byte	0
 4403 0622 08       		.uleb128 0x8
 4404 0623 04       		.byte	0x4
 4405 0624 B1010000 		.4byte	0x1b1
 4406 0628 1B       		.uleb128 0x1b
 4407 0629 22060000 		.4byte	0x622
ARM GAS  /var/folders/qd/4mxf5pkd0zdf0b9dd1hp39180000gn/T//ccn3RVaQ.s 			page 79


 4408 062d 08       		.uleb128 0x8
 4409 062e 04       		.byte	0x4
 4410 062f 04060000 		.4byte	0x604
 4411 0633 16       		.uleb128 0x16
 4412 0634 25010000 		.4byte	0x125
 4413 0638 51060000 		.4byte	0x651
 4414 063c 17       		.uleb128 0x17
 4415 063d C1040000 		.4byte	0x4c1
 4416 0641 17       		.uleb128 0x17
 4417 0642 A2010000 		.4byte	0x1a2
 4418 0646 17       		.uleb128 0x17
 4419 0647 25010000 		.4byte	0x125
 4420 064b 17       		.uleb128 0x17
 4421 064c 78000000 		.4byte	0x78
 4422 0650 00       		.byte	0
 4423 0651 08       		.uleb128 0x8
 4424 0652 04       		.byte	0x4
 4425 0653 33060000 		.4byte	0x633
 4426 0657 16       		.uleb128 0x16
 4427 0658 78000000 		.4byte	0x78
 4428 065c 6B060000 		.4byte	0x66b
 4429 0660 17       		.uleb128 0x17
 4430 0661 C1040000 		.4byte	0x4c1
 4431 0665 17       		.uleb128 0x17
 4432 0666 A2010000 		.4byte	0x1a2
 4433 066a 00       		.byte	0
 4434 066b 08       		.uleb128 0x8
 4435 066c 04       		.byte	0x4
 4436 066d 57060000 		.4byte	0x657
 4437 0671 0D       		.uleb128 0xd
 4438 0672 AA000000 		.4byte	0xaa
 4439 0676 81060000 		.4byte	0x681
 4440 067a 0E       		.uleb128 0xe
 4441 067b 2C000000 		.4byte	0x2c
 4442 067f 02       		.byte	0x2
 4443 0680 00       		.byte	0
 4444 0681 0D       		.uleb128 0xd
 4445 0682 AA000000 		.4byte	0xaa
 4446 0686 91060000 		.4byte	0x691
 4447 068a 0E       		.uleb128 0xe
 4448 068b 2C000000 		.4byte	0x2c
 4449 068f 00       		.byte	0
 4450 0690 00       		.byte	0
 4451 0691 0A       		.uleb128 0xa
 4452 0692 8A280000 		.4byte	.LASF99
 4453 0696 0B       		.byte	0xb
 4454 0697 1F01     		.2byte	0x11f
 4455 0699 79030000 		.4byte	0x379
 4456 069d 1C       		.uleb128 0x1c
 4457 069e DB1D0000 		.4byte	.LASF100
 4458 06a2 0C       		.byte	0xc
 4459 06a3 0B       		.byte	0xb
 4460 06a4 2301     		.2byte	0x123
 4461 06a6 D2060000 		.4byte	0x6d2
 4462 06aa 19       		.uleb128 0x19
 4463 06ab 06130000 		.4byte	.LASF34
 4464 06af 0B       		.byte	0xb
ARM GAS  /var/folders/qd/4mxf5pkd0zdf0b9dd1hp39180000gn/T//ccn3RVaQ.s 			page 80


 4465 06b0 2501     		.2byte	0x125
 4466 06b2 D2060000 		.4byte	0x6d2
 4467 06b6 00       		.byte	0
 4468 06b7 19       		.uleb128 0x19
 4469 06b8 81100000 		.4byte	.LASF101
 4470 06bc 0B       		.byte	0xb
 4471 06bd 2601     		.2byte	0x126
 4472 06bf 78000000 		.4byte	0x78
 4473 06c3 04       		.byte	0x4
 4474 06c4 19       		.uleb128 0x19
 4475 06c5 C11B0000 		.4byte	.LASF102
 4476 06c9 0B       		.byte	0xb
 4477 06ca 2701     		.2byte	0x127
 4478 06cc D8060000 		.4byte	0x6d8
 4479 06d0 08       		.byte	0x8
 4480 06d1 00       		.byte	0
 4481 06d2 08       		.uleb128 0x8
 4482 06d3 04       		.byte	0x4
 4483 06d4 9D060000 		.4byte	0x69d
 4484 06d8 08       		.uleb128 0x8
 4485 06d9 04       		.byte	0x4
 4486 06da 91060000 		.4byte	0x691
 4487 06de 1C       		.uleb128 0x1c
 4488 06df F7290000 		.4byte	.LASF103
 4489 06e3 0E       		.byte	0xe
 4490 06e4 0B       		.byte	0xb
 4491 06e5 3F01     		.2byte	0x13f
 4492 06e7 13070000 		.4byte	0x713
 4493 06eb 19       		.uleb128 0x19
 4494 06ec 72170000 		.4byte	.LASF104
 4495 06f0 0B       		.byte	0xb
 4496 06f1 4001     		.2byte	0x140
 4497 06f3 13070000 		.4byte	0x713
 4498 06f7 00       		.byte	0
 4499 06f8 19       		.uleb128 0x19
 4500 06f9 640C0000 		.4byte	.LASF105
 4501 06fd 0B       		.byte	0xb
 4502 06fe 4101     		.2byte	0x141
 4503 0700 13070000 		.4byte	0x713
 4504 0704 06       		.byte	0x6
 4505 0705 19       		.uleb128 0x19
 4506 0706 3D040000 		.4byte	.LASF106
 4507 070a 0B       		.byte	0xb
 4508 070b 4201     		.2byte	0x142
 4509 070d CE000000 		.4byte	0xce
 4510 0711 0C       		.byte	0xc
 4511 0712 00       		.byte	0
 4512 0713 0D       		.uleb128 0xd
 4513 0714 CE000000 		.4byte	0xce
 4514 0718 23070000 		.4byte	0x723
 4515 071c 0E       		.uleb128 0xe
 4516 071d 2C000000 		.4byte	0x2c
 4517 0721 02       		.byte	0x2
 4518 0722 00       		.byte	0
 4519 0723 1D       		.uleb128 0x1d
 4520 0724 D0       		.byte	0xd0
 4521 0725 0B       		.byte	0xb
ARM GAS  /var/folders/qd/4mxf5pkd0zdf0b9dd1hp39180000gn/T//ccn3RVaQ.s 			page 81


 4522 0726 5902     		.2byte	0x259
 4523 0728 24080000 		.4byte	0x824
 4524 072c 19       		.uleb128 0x19
 4525 072d C5080000 		.4byte	.LASF107
 4526 0731 0B       		.byte	0xb
 4527 0732 5B02     		.2byte	0x25b
 4528 0734 2C000000 		.4byte	0x2c
 4529 0738 00       		.byte	0
 4530 0739 19       		.uleb128 0x19
 4531 073a 1A170000 		.4byte	.LASF108
 4532 073e 0B       		.byte	0xb
 4533 073f 5C02     		.2byte	0x25c
 4534 0741 A4010000 		.4byte	0x1a4
 4535 0745 04       		.byte	0x4
 4536 0746 19       		.uleb128 0x19
 4537 0747 171A0000 		.4byte	.LASF109
 4538 074b 0B       		.byte	0xb
 4539 074c 5D02     		.2byte	0x25d
 4540 074e 24080000 		.4byte	0x824
 4541 0752 08       		.byte	0x8
 4542 0753 19       		.uleb128 0x19
 4543 0754 AF0E0000 		.4byte	.LASF110
 4544 0758 0B       		.byte	0xb
 4545 0759 5E02     		.2byte	0x25e
 4546 075b 2A020000 		.4byte	0x22a
 4547 075f 24       		.byte	0x24
 4548 0760 19       		.uleb128 0x19
 4549 0761 4B240000 		.4byte	.LASF111
 4550 0765 0B       		.byte	0xb
 4551 0766 5F02     		.2byte	0x25f
 4552 0768 78000000 		.4byte	0x78
 4553 076c 48       		.byte	0x48
 4554 076d 19       		.uleb128 0x19
 4555 076e F21B0000 		.4byte	.LASF112
 4556 0772 0B       		.byte	0xb
 4557 0773 6002     		.2byte	0x260
 4558 0775 25000000 		.4byte	0x25
 4559 0779 50       		.byte	0x50
 4560 077a 19       		.uleb128 0x19
 4561 077b 55290000 		.4byte	.LASF113
 4562 077f 0B       		.byte	0xb
 4563 0780 6102     		.2byte	0x261
 4564 0782 DE060000 		.4byte	0x6de
 4565 0786 58       		.byte	0x58
 4566 0787 19       		.uleb128 0x19
 4567 0788 4D200000 		.4byte	.LASF114
 4568 078c 0B       		.byte	0xb
 4569 078d 6202     		.2byte	0x262
 4570 078f 8C010000 		.4byte	0x18c
 4571 0793 68       		.byte	0x68
 4572 0794 19       		.uleb128 0x19
 4573 0795 BD060000 		.4byte	.LASF115
 4574 0799 0B       		.byte	0xb
 4575 079a 6302     		.2byte	0x263
 4576 079c 8C010000 		.4byte	0x18c
 4577 07a0 70       		.byte	0x70
 4578 07a1 19       		.uleb128 0x19
ARM GAS  /var/folders/qd/4mxf5pkd0zdf0b9dd1hp39180000gn/T//ccn3RVaQ.s 			page 82


 4579 07a2 351B0000 		.4byte	.LASF116
 4580 07a6 0B       		.byte	0xb
 4581 07a7 6402     		.2byte	0x264
 4582 07a9 8C010000 		.4byte	0x18c
 4583 07ad 78       		.byte	0x78
 4584 07ae 19       		.uleb128 0x19
 4585 07af 99190000 		.4byte	.LASF117
 4586 07b3 0B       		.byte	0xb
 4587 07b4 6502     		.2byte	0x265
 4588 07b6 34080000 		.4byte	0x834
 4589 07ba 80       		.byte	0x80
 4590 07bb 19       		.uleb128 0x19
 4591 07bc 35130000 		.4byte	.LASF118
 4592 07c0 0B       		.byte	0xb
 4593 07c1 6602     		.2byte	0x266
 4594 07c3 44080000 		.4byte	0x844
 4595 07c7 88       		.byte	0x88
 4596 07c8 19       		.uleb128 0x19
 4597 07c9 611F0000 		.4byte	.LASF119
 4598 07cd 0B       		.byte	0xb
 4599 07ce 6702     		.2byte	0x267
 4600 07d0 78000000 		.4byte	0x78
 4601 07d4 A0       		.byte	0xa0
 4602 07d5 19       		.uleb128 0x19
 4603 07d6 0C0D0000 		.4byte	.LASF120
 4604 07da 0B       		.byte	0xb
 4605 07db 6802     		.2byte	0x268
 4606 07dd 8C010000 		.4byte	0x18c
 4607 07e1 A4       		.byte	0xa4
 4608 07e2 19       		.uleb128 0x19
 4609 07e3 F80F0000 		.4byte	.LASF121
 4610 07e7 0B       		.byte	0xb
 4611 07e8 6902     		.2byte	0x269
 4612 07ea 8C010000 		.4byte	0x18c
 4613 07ee AC       		.byte	0xac
 4614 07ef 19       		.uleb128 0x19
 4615 07f0 DE0A0000 		.4byte	.LASF122
 4616 07f4 0B       		.byte	0xb
 4617 07f5 6A02     		.2byte	0x26a
 4618 07f7 8C010000 		.4byte	0x18c
 4619 07fb B4       		.byte	0xb4
 4620 07fc 19       		.uleb128 0x19
 4621 07fd 7A150000 		.4byte	.LASF123
 4622 0801 0B       		.byte	0xb
 4623 0802 6B02     		.2byte	0x26b
 4624 0804 8C010000 		.4byte	0x18c
 4625 0808 BC       		.byte	0xbc
 4626 0809 19       		.uleb128 0x19
 4627 080a 6D1A0000 		.4byte	.LASF124
 4628 080e 0B       		.byte	0xb
 4629 080f 6C02     		.2byte	0x26c
 4630 0811 8C010000 		.4byte	0x18c
 4631 0815 C4       		.byte	0xc4
 4632 0816 19       		.uleb128 0x19
 4633 0817 84210000 		.4byte	.LASF125
 4634 081b 0B       		.byte	0xb
 4635 081c 6D02     		.2byte	0x26d
ARM GAS  /var/folders/qd/4mxf5pkd0zdf0b9dd1hp39180000gn/T//ccn3RVaQ.s 			page 83


 4636 081e 78000000 		.4byte	0x78
 4637 0822 CC       		.byte	0xcc
 4638 0823 00       		.byte	0
 4639 0824 0D       		.uleb128 0xd
 4640 0825 AA010000 		.4byte	0x1aa
 4641 0829 34080000 		.4byte	0x834
 4642 082d 0E       		.uleb128 0xe
 4643 082e 2C000000 		.4byte	0x2c
 4644 0832 19       		.byte	0x19
 4645 0833 00       		.byte	0
 4646 0834 0D       		.uleb128 0xd
 4647 0835 AA010000 		.4byte	0x1aa
 4648 0839 44080000 		.4byte	0x844
 4649 083d 0E       		.uleb128 0xe
 4650 083e 2C000000 		.4byte	0x2c
 4651 0842 07       		.byte	0x7
 4652 0843 00       		.byte	0
 4653 0844 0D       		.uleb128 0xd
 4654 0845 AA010000 		.4byte	0x1aa
 4655 0849 54080000 		.4byte	0x854
 4656 084d 0E       		.uleb128 0xe
 4657 084e 2C000000 		.4byte	0x2c
 4658 0852 17       		.byte	0x17
 4659 0853 00       		.byte	0
 4660 0854 1D       		.uleb128 0x1d
 4661 0855 F0       		.byte	0xf0
 4662 0856 0B       		.byte	0xb
 4663 0857 7202     		.2byte	0x272
 4664 0859 78080000 		.4byte	0x878
 4665 085d 19       		.uleb128 0x19
 4666 085e E51B0000 		.4byte	.LASF126
 4667 0862 0B       		.byte	0xb
 4668 0863 7502     		.2byte	0x275
 4669 0865 78080000 		.4byte	0x878
 4670 0869 00       		.byte	0
 4671 086a 19       		.uleb128 0x19
 4672 086b 7D0D0000 		.4byte	.LASF127
 4673 086f 0B       		.byte	0xb
 4674 0870 7602     		.2byte	0x276
 4675 0872 88080000 		.4byte	0x888
 4676 0876 78       		.byte	0x78
 4677 0877 00       		.byte	0
 4678 0878 0D       		.uleb128 0xd
 4679 0879 73030000 		.4byte	0x373
 4680 087d 88080000 		.4byte	0x888
 4681 0881 0E       		.uleb128 0xe
 4682 0882 2C000000 		.4byte	0x2c
 4683 0886 1D       		.byte	0x1d
 4684 0887 00       		.byte	0
 4685 0888 0D       		.uleb128 0xd
 4686 0889 2C000000 		.4byte	0x2c
 4687 088d 98080000 		.4byte	0x898
 4688 0891 0E       		.uleb128 0xe
 4689 0892 2C000000 		.4byte	0x2c
 4690 0896 1D       		.byte	0x1d
 4691 0897 00       		.byte	0
 4692 0898 1E       		.uleb128 0x1e
ARM GAS  /var/folders/qd/4mxf5pkd0zdf0b9dd1hp39180000gn/T//ccn3RVaQ.s 			page 84


 4693 0899 F0       		.byte	0xf0
 4694 089a 0B       		.byte	0xb
 4695 089b 5702     		.2byte	0x257
 4696 089d BA080000 		.4byte	0x8ba
 4697 08a1 1F       		.uleb128 0x1f
 4698 08a2 39060000 		.4byte	.LASF77
 4699 08a6 0B       		.byte	0xb
 4700 08a7 6E02     		.2byte	0x26e
 4701 08a9 23070000 		.4byte	0x723
 4702 08ad 1F       		.uleb128 0x1f
 4703 08ae 2E030000 		.4byte	.LASF128
 4704 08b2 0B       		.byte	0xb
 4705 08b3 7702     		.2byte	0x277
 4706 08b5 54080000 		.4byte	0x854
 4707 08b9 00       		.byte	0
 4708 08ba 0D       		.uleb128 0xd
 4709 08bb AA010000 		.4byte	0x1aa
 4710 08bf CA080000 		.4byte	0x8ca
 4711 08c3 0E       		.uleb128 0xe
 4712 08c4 2C000000 		.4byte	0x2c
 4713 08c8 18       		.byte	0x18
 4714 08c9 00       		.byte	0
 4715 08ca 09       		.uleb128 0x9
 4716 08cb 62200000 		.4byte	.LASF130
 4717 08cf 08       		.uleb128 0x8
 4718 08d0 04       		.byte	0x4
 4719 08d1 CA080000 		.4byte	0x8ca
 4720 08d5 20       		.uleb128 0x20
 4721 08d6 E0080000 		.4byte	0x8e0
 4722 08da 17       		.uleb128 0x17
 4723 08db C1040000 		.4byte	0x4c1
 4724 08df 00       		.byte	0
 4725 08e0 08       		.uleb128 0x8
 4726 08e1 04       		.byte	0x4
 4727 08e2 D5080000 		.4byte	0x8d5
 4728 08e6 08       		.uleb128 0x8
 4729 08e7 04       		.byte	0x4
 4730 08e8 14020000 		.4byte	0x214
 4731 08ec 20       		.uleb128 0x20
 4732 08ed F7080000 		.4byte	0x8f7
 4733 08f1 17       		.uleb128 0x17
 4734 08f2 78000000 		.4byte	0x78
 4735 08f6 00       		.byte	0
 4736 08f7 08       		.uleb128 0x8
 4737 08f8 04       		.byte	0x4
 4738 08f9 FD080000 		.4byte	0x8fd
 4739 08fd 08       		.uleb128 0x8
 4740 08fe 04       		.byte	0x4
 4741 08ff EC080000 		.4byte	0x8ec
 4742 0903 0D       		.uleb128 0xd
 4743 0904 91060000 		.4byte	0x691
 4744 0908 13090000 		.4byte	0x913
 4745 090c 0E       		.uleb128 0xe
 4746 090d 2C000000 		.4byte	0x2c
 4747 0911 02       		.byte	0x2
 4748 0912 00       		.byte	0
 4749 0913 21       		.uleb128 0x21
ARM GAS  /var/folders/qd/4mxf5pkd0zdf0b9dd1hp39180000gn/T//ccn3RVaQ.s 			page 85


 4750 0914 F51F0000 		.4byte	.LASF132
 4751 0918 0B       		.byte	0xb
 4752 0919 0703     		.2byte	0x307
 4753 091b C1040000 		.4byte	0x4c1
 4754 091f 21       		.uleb128 0x21
 4755 0920 09250000 		.4byte	.LASF133
 4756 0924 0B       		.byte	0xb
 4757 0925 0803     		.2byte	0x308
 4758 0927 C7040000 		.4byte	0x4c7
 4759 092b 02       		.uleb128 0x2
 4760 092c 08       		.byte	0x8
 4761 092d 04       		.byte	0x4
 4762 092e 35210000 		.4byte	.LASF134
 4763 0932 22       		.uleb128 0x22
 4764 0933 BA1A0000 		.4byte	.LASF967
 4765 0937 05       		.byte	0x5
 4766 0938 01       		.byte	0x1
 4767 0939 98000000 		.4byte	0x98
 4768 093d 0C       		.byte	0xc
 4769 093e 8202     		.2byte	0x282
 4770 0940 5D090000 		.4byte	0x95d
 4771 0944 23       		.uleb128 0x23
 4772 0945 38180000 		.4byte	.LASF135
 4773 0949 7F       		.sleb128 -1
 4774 094a 24       		.uleb128 0x24
 4775 094b AB020000 		.4byte	.LASF136
 4776 094f 00       		.byte	0
 4777 0950 24       		.uleb128 0x24
 4778 0951 A2000000 		.4byte	.LASF137
 4779 0955 01       		.byte	0x1
 4780 0956 24       		.uleb128 0x24
 4781 0957 BC250000 		.4byte	.LASF138
 4782 095b 02       		.byte	0x2
 4783 095c 00       		.byte	0
 4784 095d 21       		.uleb128 0x21
 4785 095e 170A0000 		.4byte	.LASF139
 4786 0962 0C       		.byte	0xc
 4787 0963 8D02     		.2byte	0x28d
 4788 0965 32090000 		.4byte	0x932
 4789 0969 03       		.uleb128 0x3
 4790 096a 08       		.byte	0x8
 4791 096b 0D       		.byte	0xd
 4792 096c 0F       		.byte	0xf
 4793 096d 8A090000 		.4byte	0x98a
 4794 0971 04       		.uleb128 0x4
 4795 0972 E7220000 		.4byte	.LASF140
 4796 0976 0D       		.byte	0xd
 4797 0977 10       		.byte	0x10
 4798 0978 33000000 		.4byte	0x33
 4799 097c 00       		.byte	0
 4800 097d 04       		.uleb128 0x4
 4801 097e 0C0E0000 		.4byte	.LASF141
 4802 0982 0D       		.byte	0xd
 4803 0983 11       		.byte	0x11
 4804 0984 33000000 		.4byte	0x33
 4805 0988 04       		.byte	0x4
 4806 0989 00       		.byte	0
ARM GAS  /var/folders/qd/4mxf5pkd0zdf0b9dd1hp39180000gn/T//ccn3RVaQ.s 			page 86


 4807 098a 05       		.uleb128 0x5
 4808 098b 6D0B0000 		.4byte	.LASF142
 4809 098f 0D       		.byte	0xd
 4810 0990 12       		.byte	0x12
 4811 0991 69090000 		.4byte	0x969
 4812 0995 10       		.uleb128 0x10
 4813 0996 8A090000 		.4byte	0x98a
 4814 099a 03       		.uleb128 0x3
 4815 099b 08       		.byte	0x8
 4816 099c 0D       		.byte	0xd
 4817 099d 14       		.byte	0x14
 4818 099e BB090000 		.4byte	0x9bb
 4819 09a2 04       		.uleb128 0x4
 4820 09a3 C2290000 		.4byte	.LASF143
 4821 09a7 0D       		.byte	0xd
 4822 09a8 15       		.byte	0x15
 4823 09a9 78000000 		.4byte	0x78
 4824 09ad 00       		.byte	0
 4825 09ae 04       		.uleb128 0x4
 4826 09af CE010000 		.4byte	.LASF144
 4827 09b3 0D       		.byte	0xd
 4828 09b4 16       		.byte	0x16
 4829 09b5 33000000 		.4byte	0x33
 4830 09b9 04       		.byte	0x4
 4831 09ba 00       		.byte	0
 4832 09bb 05       		.uleb128 0x5
 4833 09bc AD260000 		.4byte	.LASF145
 4834 09c0 0D       		.byte	0xd
 4835 09c1 17       		.byte	0x17
 4836 09c2 9A090000 		.4byte	0x99a
 4837 09c6 10       		.uleb128 0x10
 4838 09c7 BB090000 		.4byte	0x9bb
 4839 09cb 03       		.uleb128 0x3
 4840 09cc 0C       		.byte	0xc
 4841 09cd 0E       		.byte	0xe
 4842 09ce 1F       		.byte	0x1f
 4843 09cf F4090000 		.4byte	0x9f4
 4844 09d3 12       		.uleb128 0x12
 4845 09d4 7800     		.ascii	"x\000"
 4846 09d6 0E       		.byte	0xe
 4847 09d7 20       		.byte	0x20
 4848 09d8 78000000 		.4byte	0x78
 4849 09dc 00       		.byte	0
 4850 09dd 12       		.uleb128 0x12
 4851 09de 7900     		.ascii	"y\000"
 4852 09e0 0E       		.byte	0xe
 4853 09e1 21       		.byte	0x21
 4854 09e2 78000000 		.4byte	0x78
 4855 09e6 04       		.byte	0x4
 4856 09e7 04       		.uleb128 0x4
 4857 09e8 97150000 		.4byte	.LASF146
 4858 09ec 0E       		.byte	0xe
 4859 09ed 22       		.byte	0x22
 4860 09ee 33000000 		.4byte	0x33
 4861 09f2 08       		.byte	0x8
 4862 09f3 00       		.byte	0
 4863 09f4 05       		.uleb128 0x5
ARM GAS  /var/folders/qd/4mxf5pkd0zdf0b9dd1hp39180000gn/T//ccn3RVaQ.s 			page 87


 4864 09f5 D1150000 		.4byte	.LASF147
 4865 09f9 0E       		.byte	0xe
 4866 09fa 23       		.byte	0x23
 4867 09fb CB090000 		.4byte	0x9cb
 4868 09ff 03       		.uleb128 0x3
 4869 0a00 08       		.byte	0x8
 4870 0a01 0E       		.byte	0xe
 4871 0a02 25       		.byte	0x25
 4872 0a03 1C0A0000 		.4byte	0xa1c
 4873 0a07 12       		.uleb128 0x12
 4874 0a08 7800     		.ascii	"x\000"
 4875 0a0a 0E       		.byte	0xe
 4876 0a0b 26       		.byte	0x26
 4877 0a0c 78000000 		.4byte	0x78
 4878 0a10 00       		.byte	0
 4879 0a11 12       		.uleb128 0x12
 4880 0a12 7900     		.ascii	"y\000"
 4881 0a14 0E       		.byte	0xe
 4882 0a15 27       		.byte	0x27
 4883 0a16 78000000 		.4byte	0x78
 4884 0a1a 04       		.byte	0x4
 4885 0a1b 00       		.byte	0
 4886 0a1c 05       		.uleb128 0x5
 4887 0a1d D6120000 		.4byte	.LASF148
 4888 0a21 0E       		.byte	0xe
 4889 0a22 28       		.byte	0x28
 4890 0a23 FF090000 		.4byte	0x9ff
 4891 0a27 10       		.uleb128 0x10
 4892 0a28 1C0A0000 		.4byte	0xa1c
 4893 0a2c 03       		.uleb128 0x3
 4894 0a2d 10       		.byte	0x10
 4895 0a2e 0E       		.byte	0xe
 4896 0a2f 2A       		.byte	0x2a
 4897 0a30 4D0A0000 		.4byte	0xa4d
 4898 0a34 04       		.uleb128 0x4
 4899 0a35 DC1C0000 		.4byte	.LASF149
 4900 0a39 0E       		.byte	0xe
 4901 0a3a 2B       		.byte	0x2b
 4902 0a3b F4090000 		.4byte	0x9f4
 4903 0a3f 00       		.byte	0
 4904 0a40 04       		.uleb128 0x4
 4905 0a41 290D0000 		.4byte	.LASF150
 4906 0a45 0E       		.byte	0xe
 4907 0a46 2C       		.byte	0x2c
 4908 0a47 78000000 		.4byte	0x78
 4909 0a4b 0C       		.byte	0xc
 4910 0a4c 00       		.byte	0
 4911 0a4d 05       		.uleb128 0x5
 4912 0a4e 9A030000 		.4byte	.LASF151
 4913 0a52 0E       		.byte	0xe
 4914 0a53 2D       		.byte	0x2d
 4915 0a54 2C0A0000 		.4byte	0xa2c
 4916 0a58 03       		.uleb128 0x3
 4917 0a59 08       		.byte	0x8
 4918 0a5a 0E       		.byte	0xe
 4919 0a5b 2F       		.byte	0x2f
 4920 0a5c 790A0000 		.4byte	0xa79
ARM GAS  /var/folders/qd/4mxf5pkd0zdf0b9dd1hp39180000gn/T//ccn3RVaQ.s 			page 88


 4921 0a60 04       		.uleb128 0x4
 4922 0a61 831C0000 		.4byte	.LASF152
 4923 0a65 0E       		.byte	0xe
 4924 0a66 30       		.byte	0x30
 4925 0a67 78000000 		.4byte	0x78
 4926 0a6b 00       		.byte	0
 4927 0a6c 04       		.uleb128 0x4
 4928 0a6d FD060000 		.4byte	.LASF153
 4929 0a71 0E       		.byte	0xe
 4930 0a72 31       		.byte	0x31
 4931 0a73 33000000 		.4byte	0x33
 4932 0a77 04       		.byte	0x4
 4933 0a78 00       		.byte	0
 4934 0a79 05       		.uleb128 0x5
 4935 0a7a F0020000 		.4byte	.LASF154
 4936 0a7e 0E       		.byte	0xe
 4937 0a7f 32       		.byte	0x32
 4938 0a80 580A0000 		.4byte	0xa58
 4939 0a84 10       		.uleb128 0x10
 4940 0a85 790A0000 		.4byte	0xa79
 4941 0a89 03       		.uleb128 0x3
 4942 0a8a 3C       		.byte	0x3c
 4943 0a8b 0E       		.byte	0xe
 4944 0a8c 34       		.byte	0x34
 4945 0a8d CE0A0000 		.4byte	0xace
 4946 0a91 04       		.uleb128 0x4
 4947 0a92 651E0000 		.4byte	.LASF155
 4948 0a96 0E       		.byte	0xe
 4949 0a97 35       		.byte	0x35
 4950 0a98 CE0A0000 		.4byte	0xace
 4951 0a9c 00       		.byte	0
 4952 0a9d 04       		.uleb128 0x4
 4953 0a9e E2240000 		.4byte	.LASF156
 4954 0aa2 0E       		.byte	0xe
 4955 0aa3 36       		.byte	0x36
 4956 0aa4 78000000 		.4byte	0x78
 4957 0aa8 04       		.byte	0x4
 4958 0aa9 04       		.uleb128 0x4
 4959 0aaa 4B190000 		.4byte	.LASF157
 4960 0aae 0E       		.byte	0xe
 4961 0aaf 37       		.byte	0x37
 4962 0ab0 78000000 		.4byte	0x78
 4963 0ab4 08       		.byte	0x8
 4964 0ab5 04       		.uleb128 0x4
 4965 0ab6 38140000 		.4byte	.LASF158
 4966 0aba 0E       		.byte	0xe
 4967 0abb 38       		.byte	0x38
 4968 0abc DE0A0000 		.4byte	0xade
 4969 0ac0 0C       		.byte	0xc
 4970 0ac1 04       		.uleb128 0x4
 4971 0ac2 F5090000 		.4byte	.LASF159
 4972 0ac6 0E       		.byte	0xe
 4973 0ac7 39       		.byte	0x39
 4974 0ac8 DE0A0000 		.4byte	0xade
 4975 0acc 24       		.byte	0x24
 4976 0acd 00       		.byte	0
 4977 0ace 0D       		.uleb128 0xd
ARM GAS  /var/folders/qd/4mxf5pkd0zdf0b9dd1hp39180000gn/T//ccn3RVaQ.s 			page 89


 4978 0acf 5B000000 		.4byte	0x5b
 4979 0ad3 DE0A0000 		.4byte	0xade
 4980 0ad7 0E       		.uleb128 0xe
 4981 0ad8 2C000000 		.4byte	0x2c
 4982 0adc 03       		.byte	0x3
 4983 0add 00       		.byte	0
 4984 0ade 0D       		.uleb128 0xd
 4985 0adf 1C0A0000 		.4byte	0xa1c
 4986 0ae3 EE0A0000 		.4byte	0xaee
 4987 0ae7 0E       		.uleb128 0xe
 4988 0ae8 2C000000 		.4byte	0x2c
 4989 0aec 02       		.byte	0x2
 4990 0aed 00       		.byte	0
 4991 0aee 05       		.uleb128 0x5
 4992 0aef 70040000 		.4byte	.LASF160
 4993 0af3 0E       		.byte	0xe
 4994 0af4 3A       		.byte	0x3a
 4995 0af5 890A0000 		.4byte	0xa89
 4996 0af9 06       		.uleb128 0x6
 4997 0afa 9F170000 		.4byte	.LASF161
 4998 0afe 0E       		.byte	0xe
 4999 0aff 3C       		.byte	0x3c
 5000 0b00 EE0A0000 		.4byte	0xaee
 5001 0b04 08       		.uleb128 0x8
 5002 0b05 04       		.byte	0x4
 5003 0b06 0A0B0000 		.4byte	0xb0a
 5004 0b0a 25       		.uleb128 0x25
 5005 0b0b 06       		.uleb128 0x6
 5006 0b0c D21C0000 		.4byte	.LASF162
 5007 0b10 0F       		.byte	0xf
 5008 0b11 63       		.byte	0x63
 5009 0b12 A4010000 		.4byte	0x1a4
 5010 0b16 26       		.uleb128 0x26
 5011 0b17 07       		.byte	0x7
 5012 0b18 01       		.byte	0x1
 5013 0b19 AA000000 		.4byte	0xaa
 5014 0b1d 23       		.byte	0x23
 5015 0b1e 11       		.byte	0x11
 5016 0b1f 2A0B0000 		.4byte	0xb2a
 5017 0b23 24       		.uleb128 0x24
 5018 0b24 AB170000 		.4byte	.LASF163
 5019 0b28 00       		.byte	0
 5020 0b29 00       		.byte	0
 5021 0b2a 05       		.uleb128 0x5
 5022 0b2b CF0E0000 		.4byte	.LASF164
 5023 0b2f 10       		.byte	0x10
 5024 0b30 18       		.byte	0x18
 5025 0b31 9F000000 		.4byte	0x9f
 5026 0b35 10       		.uleb128 0x10
 5027 0b36 2A0B0000 		.4byte	0xb2a
 5028 0b3a 05       		.uleb128 0x5
 5029 0b3b 79240000 		.4byte	.LASF165
 5030 0b3f 10       		.byte	0x10
 5031 0b40 20       		.byte	0x20
 5032 0b41 B1000000 		.4byte	0xb1
 5033 0b45 05       		.uleb128 0x5
 5034 0b46 26020000 		.4byte	.LASF166
ARM GAS  /var/folders/qd/4mxf5pkd0zdf0b9dd1hp39180000gn/T//ccn3RVaQ.s 			page 90


 5035 0b4a 10       		.byte	0x10
 5036 0b4b 24       		.byte	0x24
 5037 0b4c C3000000 		.4byte	0xc3
 5038 0b50 05       		.uleb128 0x5
 5039 0b51 0F040000 		.4byte	.LASF167
 5040 0b55 10       		.byte	0x10
 5041 0b56 2C       		.byte	0x2c
 5042 0b57 D5000000 		.4byte	0xd5
 5043 0b5b 1B       		.uleb128 0x1b
 5044 0b5c 500B0000 		.4byte	0xb50
 5045 0b60 05       		.uleb128 0x5
 5046 0b61 261C0000 		.4byte	.LASF168
 5047 0b65 10       		.byte	0x10
 5048 0b66 30       		.byte	0x30
 5049 0b67 E7000000 		.4byte	0xe7
 5050 0b6b 1B       		.uleb128 0x1b
 5051 0b6c 600B0000 		.4byte	0xb60
 5052 0b70 10       		.uleb128 0x10
 5053 0b71 6B0B0000 		.4byte	0xb6b
 5054 0b75 05       		.uleb128 0x5
 5055 0b76 B10B0000 		.4byte	.LASF169
 5056 0b7a 10       		.byte	0x10
 5057 0b7b 3C       		.byte	0x3c
 5058 0b7c F9000000 		.4byte	0xf9
 5059 0b80 05       		.uleb128 0x5
 5060 0b81 D90D0000 		.4byte	.LASF170
 5061 0b85 11       		.byte	0x11
 5062 0b86 45       		.byte	0x45
 5063 0b87 600B0000 		.4byte	0xb60
 5064 0b8b 05       		.uleb128 0x5
 5065 0b8c 4D060000 		.4byte	.LASF171
 5066 0b90 11       		.byte	0x11
 5067 0b91 46       		.byte	0x46
 5068 0b92 750B0000 		.4byte	0xb75
 5069 0b96 05       		.uleb128 0x5
 5070 0b97 F6140000 		.4byte	.LASF172
 5071 0b9b 11       		.byte	0x11
 5072 0b9c 48       		.byte	0x48
 5073 0b9d 2A0B0000 		.4byte	0xb2a
 5074 0ba1 05       		.uleb128 0x5
 5075 0ba2 00250000 		.4byte	.LASF173
 5076 0ba6 11       		.byte	0x11
 5077 0ba7 49       		.byte	0x49
 5078 0ba8 2A0B0000 		.4byte	0xb2a
 5079 0bac 05       		.uleb128 0x5
 5080 0bad 7B140000 		.4byte	.LASF174
 5081 0bb1 11       		.byte	0x11
 5082 0bb2 4A       		.byte	0x4a
 5083 0bb3 2A0B0000 		.4byte	0xb2a
 5084 0bb7 05       		.uleb128 0x5
 5085 0bb8 10170000 		.4byte	.LASF175
 5086 0bbc 11       		.byte	0x11
 5087 0bbd 4B       		.byte	0x4b
 5088 0bbe 2A0B0000 		.4byte	0xb2a
 5089 0bc2 05       		.uleb128 0x5
 5090 0bc3 06070000 		.4byte	.LASF176
 5091 0bc7 11       		.byte	0x11
ARM GAS  /var/folders/qd/4mxf5pkd0zdf0b9dd1hp39180000gn/T//ccn3RVaQ.s 			page 91


 5092 0bc8 4C       		.byte	0x4c
 5093 0bc9 600B0000 		.4byte	0xb60
 5094 0bcd 05       		.uleb128 0x5
 5095 0bce 58000000 		.4byte	.LASF177
 5096 0bd2 11       		.byte	0x11
 5097 0bd3 4D       		.byte	0x4d
 5098 0bd4 500B0000 		.4byte	0xb50
 5099 0bd8 05       		.uleb128 0x5
 5100 0bd9 C61C0000 		.4byte	.LASF178
 5101 0bdd 11       		.byte	0x11
 5102 0bde 4F       		.byte	0x4f
 5103 0bdf 600B0000 		.4byte	0xb60
 5104 0be3 05       		.uleb128 0x5
 5105 0be4 4D270000 		.4byte	.LASF179
 5106 0be8 11       		.byte	0x11
 5107 0be9 50       		.byte	0x50
 5108 0bea 600B0000 		.4byte	0xb60
 5109 0bee 05       		.uleb128 0x5
 5110 0bef A91F0000 		.4byte	.LASF180
 5111 0bf3 11       		.byte	0x11
 5112 0bf4 51       		.byte	0x51
 5113 0bf5 500B0000 		.4byte	0xb50
 5114 0bf9 05       		.uleb128 0x5
 5115 0bfa 18180000 		.4byte	.LASF181
 5116 0bfe 11       		.byte	0x11
 5117 0bff 52       		.byte	0x52
 5118 0c00 600B0000 		.4byte	0xb60
 5119 0c04 05       		.uleb128 0x5
 5120 0c05 23040000 		.4byte	.LASF182
 5121 0c09 12       		.byte	0x12
 5122 0c0a 33       		.byte	0x33
 5123 0c0b 600B0000 		.4byte	0xb60
 5124 0c0f 1B       		.uleb128 0x1b
 5125 0c10 040C0000 		.4byte	0xc04
 5126 0c14 05       		.uleb128 0x5
 5127 0c15 A8030000 		.4byte	.LASF183
 5128 0c19 12       		.byte	0x12
 5129 0c1a 3F       		.byte	0x3f
 5130 0c1b 1F0C0000 		.4byte	0xc1f
 5131 0c1f 11       		.uleb128 0x11
 5132 0c20 B70A0000 		.4byte	.LASF184
 5133 0c24 68       		.byte	0x68
 5134 0c25 13       		.byte	0x13
 5135 0c26 C2       		.byte	0xc2
 5136 0c27 3D0D0000 		.4byte	0xd3d
 5137 0c2b 04       		.uleb128 0x4
 5138 0c2c E8130000 		.4byte	.LASF185
 5139 0c30 13       		.byte	0x13
 5140 0c31 C3       		.byte	0xc3
 5141 0c32 480D0000 		.4byte	0xd48
 5142 0c36 00       		.byte	0
 5143 0c37 04       		.uleb128 0x4
 5144 0c38 FA0E0000 		.4byte	.LASF186
 5145 0c3c 13       		.byte	0x13
 5146 0c3d C5       		.byte	0xc5
 5147 0c3e 480D0000 		.4byte	0xd48
 5148 0c42 04       		.byte	0x4
ARM GAS  /var/folders/qd/4mxf5pkd0zdf0b9dd1hp39180000gn/T//ccn3RVaQ.s 			page 92


 5149 0c43 04       		.uleb128 0x4
 5150 0c44 BA000000 		.4byte	.LASF187
 5151 0c48 13       		.byte	0x13
 5152 0c49 C7       		.byte	0xc7
 5153 0c4a C20B0000 		.4byte	0xbc2
 5154 0c4e 08       		.byte	0x8
 5155 0c4f 04       		.uleb128 0x4
 5156 0c50 4E0B0000 		.4byte	.LASF188
 5157 0c54 13       		.byte	0x13
 5158 0c55 C8       		.byte	0xc8
 5159 0c56 50170000 		.4byte	0x1750
 5160 0c5a 0C       		.byte	0xc
 5161 0c5b 04       		.uleb128 0x4
 5162 0c5c C3020000 		.4byte	.LASF189
 5163 0c60 13       		.byte	0x13
 5164 0c61 CA       		.byte	0xca
 5165 0c62 480D0000 		.4byte	0xd48
 5166 0c66 10       		.byte	0x10
 5167 0c67 04       		.uleb128 0x4
 5168 0c68 E3270000 		.4byte	.LASF190
 5169 0c6c 13       		.byte	0x13
 5170 0c6d CB       		.byte	0xcb
 5171 0c6e 480D0000 		.4byte	0xd48
 5172 0c72 14       		.byte	0x14
 5173 0c73 04       		.uleb128 0x4
 5174 0c74 98250000 		.4byte	.LASF191
 5175 0c78 13       		.byte	0x13
 5176 0c79 D2       		.byte	0xd2
 5177 0c7a 22060000 		.4byte	0x622
 5178 0c7e 18       		.byte	0x18
 5179 0c7f 04       		.uleb128 0x4
 5180 0c80 9E1F0000 		.4byte	.LASF192
 5181 0c84 13       		.byte	0x13
 5182 0c85 D8       		.byte	0xd8
 5183 0c86 C61A0000 		.4byte	0x1ac6
 5184 0c8a 1C       		.byte	0x1c
 5185 0c8b 04       		.uleb128 0x4
 5186 0c8c 5E2A0000 		.4byte	.LASF193
 5187 0c90 13       		.byte	0x13
 5188 0c91 DD       		.byte	0xdd
 5189 0c92 A10B0000 		.4byte	0xba1
 5190 0c96 20       		.byte	0x20
 5191 0c97 04       		.uleb128 0x4
 5192 0c98 B3240000 		.4byte	.LASF194
 5193 0c9c 13       		.byte	0x13
 5194 0c9d E1       		.byte	0xe1
 5195 0c9e 960B0000 		.4byte	0xb96
 5196 0ca2 21       		.byte	0x21
 5197 0ca3 04       		.uleb128 0x4
 5198 0ca4 DC1A0000 		.4byte	.LASF195
 5199 0ca8 13       		.byte	0x13
 5200 0ca9 E6       		.byte	0xe6
 5201 0caa AC0B0000 		.4byte	0xbac
 5202 0cae 22       		.byte	0x22
 5203 0caf 04       		.uleb128 0x4
 5204 0cb0 04180000 		.4byte	.LASF196
 5205 0cb4 13       		.byte	0x13
ARM GAS  /var/folders/qd/4mxf5pkd0zdf0b9dd1hp39180000gn/T//ccn3RVaQ.s 			page 93


 5206 0cb5 EC       		.byte	0xec
 5207 0cb6 B70B0000 		.4byte	0xbb7
 5208 0cba 23       		.byte	0x23
 5209 0cbb 04       		.uleb128 0x4
 5210 0cbc D51A0000 		.4byte	.LASF197
 5211 0cc0 13       		.byte	0x13
 5212 0cc1 F3       		.byte	0xf3
 5213 0cc2 0F0C0000 		.4byte	0xc0f
 5214 0cc6 24       		.byte	0x24
 5215 0cc7 27       		.uleb128 0x27
 5216 0cc8 705F7500 		.ascii	"p_u\000"
 5217 0ccc 13       		.byte	0x13
 5218 0ccd 3101     		.2byte	0x131
 5219 0ccf F5190000 		.4byte	0x19f5
 5220 0cd3 28       		.byte	0x28
 5221 0cd4 19       		.uleb128 0x19
 5222 0cd5 92050000 		.4byte	.LASF198
 5223 0cd9 13       		.byte	0x13
 5224 0cda 3601     		.2byte	0x136
 5225 0cdc 4E0D0000 		.4byte	0xd4e
 5226 0ce0 2C       		.byte	0x2c
 5227 0ce1 19       		.uleb128 0x19
 5228 0ce2 A5180000 		.4byte	.LASF199
 5229 0ce6 13       		.byte	0x13
 5230 0ce7 3C01     		.2byte	0x13c
 5231 0ce9 720D0000 		.4byte	0xd72
 5232 0ced 30       		.byte	0x30
 5233 0cee 19       		.uleb128 0x19
 5234 0cef BF080000 		.4byte	.LASF200
 5235 0cf3 13       		.byte	0x13
 5236 0cf4 4001     		.2byte	0x140
 5237 0cf6 CD0B0000 		.4byte	0xbcd
 5238 0cfa 38       		.byte	0x38
 5239 0cfb 19       		.uleb128 0x19
 5240 0cfc A2220000 		.4byte	.LASF201
 5241 0d00 13       		.byte	0x13
 5242 0d01 4601     		.2byte	0x146
 5243 0d03 D80B0000 		.4byte	0xbd8
 5244 0d07 3C       		.byte	0x3c
 5245 0d08 19       		.uleb128 0x19
 5246 0d09 D8240000 		.4byte	.LASF202
 5247 0d0d 13       		.byte	0x13
 5248 0d0e 4D01     		.2byte	0x14d
 5249 0d10 C01A0000 		.4byte	0x1ac0
 5250 0d14 40       		.byte	0x40
 5251 0d15 19       		.uleb128 0x19
 5252 0d16 FB200000 		.4byte	.LASF203
 5253 0d1a 13       		.byte	0x13
 5254 0d1b 5101     		.2byte	0x151
 5255 0d1d C20B0000 		.4byte	0xbc2
 5256 0d21 44       		.byte	0x44
 5257 0d22 19       		.uleb128 0x19
 5258 0d23 83140000 		.4byte	.LASF204
 5259 0d27 13       		.byte	0x13
 5260 0d28 5801     		.2byte	0x158
 5261 0d2a A2010000 		.4byte	0x1a2
 5262 0d2e 48       		.byte	0x48
ARM GAS  /var/folders/qd/4mxf5pkd0zdf0b9dd1hp39180000gn/T//ccn3RVaQ.s 			page 94


 5263 0d2f 19       		.uleb128 0x19
 5264 0d30 992A0000 		.4byte	.LASF205
 5265 0d34 13       		.byte	0x13
 5266 0d35 5E01     		.2byte	0x15e
 5267 0d37 A6190000 		.4byte	0x19a6
 5268 0d3b 50       		.byte	0x50
 5269 0d3c 00       		.byte	0
 5270 0d3d 05       		.uleb128 0x5
 5271 0d3e 48280000 		.4byte	.LASF206
 5272 0d42 12       		.byte	0x12
 5273 0d43 44       		.byte	0x44
 5274 0d44 480D0000 		.4byte	0xd48
 5275 0d48 08       		.uleb128 0x8
 5276 0d49 04       		.byte	0x4
 5277 0d4a 140C0000 		.4byte	0xc14
 5278 0d4e 05       		.uleb128 0x5
 5279 0d4f DD050000 		.4byte	.LASF207
 5280 0d53 12       		.byte	0x12
 5281 0d54 49       		.byte	0x49
 5282 0d55 590D0000 		.4byte	0xd59
 5283 0d59 11       		.uleb128 0x11
 5284 0d5a 782A0000 		.4byte	.LASF208
 5285 0d5e 04       		.byte	0x4
 5286 0d5f 13       		.byte	0x13
 5287 0d60 B0       		.byte	0xb0
 5288 0d61 720D0000 		.4byte	0xd72
 5289 0d65 04       		.uleb128 0x4
 5290 0d66 E8130000 		.4byte	.LASF185
 5291 0d6a 13       		.byte	0x13
 5292 0d6b B1       		.byte	0xb1
 5293 0d6c 480D0000 		.4byte	0xd48
 5294 0d70 00       		.byte	0
 5295 0d71 00       		.byte	0
 5296 0d72 05       		.uleb128 0x5
 5297 0d73 9F1A0000 		.4byte	.LASF209
 5298 0d77 12       		.byte	0x12
 5299 0d78 50       		.byte	0x50
 5300 0d79 7D0D0000 		.4byte	0xd7d
 5301 0d7d 11       		.uleb128 0x11
 5302 0d7e 9A020000 		.4byte	.LASF210
 5303 0d82 08       		.byte	0x8
 5304 0d83 13       		.byte	0x13
 5305 0d84 B7       		.byte	0xb7
 5306 0d85 A20D0000 		.4byte	0xda2
 5307 0d89 04       		.uleb128 0x4
 5308 0d8a E8130000 		.4byte	.LASF185
 5309 0d8e 13       		.byte	0x13
 5310 0d8f B8       		.byte	0xb8
 5311 0d90 480D0000 		.4byte	0xd48
 5312 0d94 00       		.byte	0
 5313 0d95 04       		.uleb128 0x4
 5314 0d96 FA0E0000 		.4byte	.LASF186
 5315 0d9a 13       		.byte	0x13
 5316 0d9b B9       		.byte	0xb9
 5317 0d9c 480D0000 		.4byte	0xd48
 5318 0da0 04       		.byte	0x4
 5319 0da1 00       		.byte	0
ARM GAS  /var/folders/qd/4mxf5pkd0zdf0b9dd1hp39180000gn/T//ccn3RVaQ.s 			page 95


 5320 0da2 05       		.uleb128 0x5
 5321 0da3 AA0A0000 		.4byte	.LASF211
 5322 0da7 12       		.byte	0x12
 5323 0da8 57       		.byte	0x57
 5324 0da9 AD0D0000 		.4byte	0xdad
 5325 0dad 1C       		.uleb128 0x1c
 5326 0dae BE210000 		.4byte	.LASF212
 5327 0db2 1C       		.byte	0x1c
 5328 0db3 13       		.byte	0x13
 5329 0db4 9001     		.2byte	0x190
 5330 0db6 090E0000 		.4byte	0xe09
 5331 0dba 19       		.uleb128 0x19
 5332 0dbb D31D0000 		.4byte	.LASF213
 5333 0dbf 13       		.byte	0x13
 5334 0dc0 9101     		.2byte	0x191
 5335 0dc2 720D0000 		.4byte	0xd72
 5336 0dc6 00       		.byte	0
 5337 0dc7 19       		.uleb128 0x19
 5338 0dc8 BB230000 		.4byte	.LASF214
 5339 0dcc 13       		.byte	0x13
 5340 0dcd 9201     		.2byte	0x192
 5341 0dcf C20B0000 		.4byte	0xbc2
 5342 0dd3 08       		.byte	0x8
 5343 0dd4 19       		.uleb128 0x19
 5344 0dd5 B40D0000 		.4byte	.LASF215
 5345 0dd9 13       		.byte	0x13
 5346 0dda 9401     		.2byte	0x194
 5347 0ddc 50170000 		.4byte	0x1750
 5348 0de0 0C       		.byte	0xc
 5349 0de1 19       		.uleb128 0x19
 5350 0de2 8A160000 		.4byte	.LASF216
 5351 0de6 13       		.byte	0x13
 5352 0de7 9701     		.2byte	0x197
 5353 0de9 480D0000 		.4byte	0xd48
 5354 0ded 10       		.byte	0x10
 5355 0dee 19       		.uleb128 0x19
 5356 0def F20E0000 		.4byte	.LASF217
 5357 0df3 13       		.byte	0x13
 5358 0df4 9801     		.2byte	0x198
 5359 0df6 480D0000 		.4byte	0xd48
 5360 0dfa 14       		.byte	0x14
 5361 0dfb 19       		.uleb128 0x19
 5362 0dfc 02120000 		.4byte	.LASF218
 5363 0e00 13       		.byte	0x13
 5364 0e01 9B01     		.2byte	0x19b
 5365 0e03 480D0000 		.4byte	0xd48
 5366 0e07 18       		.byte	0x18
 5367 0e08 00       		.byte	0
 5368 0e09 05       		.uleb128 0x5
 5369 0e0a A4200000 		.4byte	.LASF219
 5370 0e0e 12       		.byte	0x12
 5371 0e0f 5C       		.byte	0x5c
 5372 0e10 140E0000 		.4byte	0xe14
 5373 0e14 08       		.uleb128 0x8
 5374 0e15 04       		.byte	0x4
 5375 0e16 1A0E0000 		.4byte	0xe1a
 5376 0e1a 20       		.uleb128 0x20
ARM GAS  /var/folders/qd/4mxf5pkd0zdf0b9dd1hp39180000gn/T//ccn3RVaQ.s 			page 96


 5377 0e1b 250E0000 		.4byte	0xe25
 5378 0e1f 17       		.uleb128 0x17
 5379 0e20 A2010000 		.4byte	0x1a2
 5380 0e24 00       		.byte	0
 5381 0e25 05       		.uleb128 0x5
 5382 0e26 980D0000 		.4byte	.LASF220
 5383 0e2a 12       		.byte	0x12
 5384 0e2b 61       		.byte	0x61
 5385 0e2c 300E0000 		.4byte	0xe30
 5386 0e30 1C       		.uleb128 0x1c
 5387 0e31 A2240000 		.4byte	.LASF221
 5388 0e35 14       		.byte	0x14
 5389 0e36 13       		.byte	0x13
 5390 0e37 6B01     		.2byte	0x16b
 5391 0e39 7F0E0000 		.4byte	0xe7f
 5392 0e3d 19       		.uleb128 0x19
 5393 0e3e BA0D0000 		.4byte	.LASF222
 5394 0e42 13       		.byte	0x13
 5395 0e43 6C01     		.2byte	0x16c
 5396 0e45 CC1A0000 		.4byte	0x1acc
 5397 0e49 00       		.byte	0
 5398 0e4a 19       		.uleb128 0x19
 5399 0e4b 460A0000 		.4byte	.LASF223
 5400 0e4f 13       		.byte	0x13
 5401 0e50 6D01     		.2byte	0x16d
 5402 0e52 CC1A0000 		.4byte	0x1acc
 5403 0e56 04       		.byte	0x4
 5404 0e57 19       		.uleb128 0x19
 5405 0e58 69170000 		.4byte	.LASF224
 5406 0e5c 13       		.byte	0x13
 5407 0e5d 6E01     		.2byte	0x16e
 5408 0e5f 040C0000 		.4byte	0xc04
 5409 0e63 08       		.byte	0x8
 5410 0e64 19       		.uleb128 0x19
 5411 0e65 8D240000 		.4byte	.LASF225
 5412 0e69 13       		.byte	0x13
 5413 0e6a 6F01     		.2byte	0x16f
 5414 0e6c 090E0000 		.4byte	0xe09
 5415 0e70 0C       		.byte	0xc
 5416 0e71 19       		.uleb128 0x19
 5417 0e72 540B0000 		.4byte	.LASF226
 5418 0e76 13       		.byte	0x13
 5419 0e77 7101     		.2byte	0x171
 5420 0e79 A2010000 		.4byte	0x1a2
 5421 0e7d 10       		.byte	0x10
 5422 0e7e 00       		.byte	0
 5423 0e7f 05       		.uleb128 0x5
 5424 0e80 0F260000 		.4byte	.LASF227
 5425 0e84 12       		.byte	0x12
 5426 0e85 66       		.byte	0x66
 5427 0e86 8A0E0000 		.4byte	0xe8a
 5428 0e8a 1C       		.uleb128 0x1c
 5429 0e8b D2030000 		.4byte	.LASF228
 5430 0e8f 10       		.byte	0x10
 5431 0e90 13       		.byte	0x13
 5432 0e91 7B01     		.2byte	0x17b
 5433 0e93 CC0E0000 		.4byte	0xecc
ARM GAS  /var/folders/qd/4mxf5pkd0zdf0b9dd1hp39180000gn/T//ccn3RVaQ.s 			page 97


 5434 0e97 19       		.uleb128 0x19
 5435 0e98 BA0D0000 		.4byte	.LASF222
 5436 0e9c 13       		.byte	0x13
 5437 0e9d 7C01     		.2byte	0x17c
 5438 0e9f CC1A0000 		.4byte	0x1acc
 5439 0ea3 00       		.byte	0
 5440 0ea4 19       		.uleb128 0x19
 5441 0ea5 460A0000 		.4byte	.LASF223
 5442 0ea9 13       		.byte	0x13
 5443 0eaa 7E01     		.2byte	0x17e
 5444 0eac CC1A0000 		.4byte	0x1acc
 5445 0eb0 04       		.byte	0x4
 5446 0eb1 19       		.uleb128 0x19
 5447 0eb2 69170000 		.4byte	.LASF224
 5448 0eb6 13       		.byte	0x13
 5449 0eb7 8001     		.2byte	0x180
 5450 0eb9 040C0000 		.4byte	0xc04
 5451 0ebd 08       		.byte	0x8
 5452 0ebe 19       		.uleb128 0x19
 5453 0ebf 9D010000 		.4byte	.LASF229
 5454 0ec3 13       		.byte	0x13
 5455 0ec4 8201     		.2byte	0x182
 5456 0ec6 0F0C0000 		.4byte	0xc0f
 5457 0eca 0C       		.byte	0xc
 5458 0ecb 00       		.byte	0
 5459 0ecc 05       		.uleb128 0x5
 5460 0ecd 2C0B0000 		.4byte	.LASF230
 5461 0ed1 12       		.byte	0x12
 5462 0ed2 6B       		.byte	0x6b
 5463 0ed3 D70E0000 		.4byte	0xed7
 5464 0ed7 18       		.uleb128 0x18
 5465 0ed8 E7210000 		.4byte	.LASF231
 5466 0edc 1404     		.2byte	0x414
 5467 0ede 13       		.byte	0x13
 5468 0edf A201     		.2byte	0x1a2
 5469 0ee1 1A0F0000 		.4byte	0xf1a
 5470 0ee5 19       		.uleb128 0x19
 5471 0ee6 6C160000 		.4byte	.LASF232
 5472 0eea 13       		.byte	0x13
 5473 0eeb AA01     		.2byte	0x1aa
 5474 0eed 28060000 		.4byte	0x628
 5475 0ef1 00       		.byte	0
 5476 0ef2 19       		.uleb128 0x19
 5477 0ef3 39160000 		.4byte	.LASF233
 5478 0ef7 13       		.byte	0x13
 5479 0ef8 AF01     		.2byte	0x1af
 5480 0efa EE0B0000 		.4byte	0xbee
 5481 0efe 04       		.byte	0x4
 5482 0eff 19       		.uleb128 0x19
 5483 0f00 91020000 		.4byte	.LASF234
 5484 0f04 13       		.byte	0x13
 5485 0f05 B301     		.2byte	0x1b3
 5486 0f07 EE0B0000 		.4byte	0xbee
 5487 0f0b 08       		.byte	0x8
 5488 0f0c 19       		.uleb128 0x19
 5489 0f0d 041A0000 		.4byte	.LASF235
 5490 0f11 13       		.byte	0x13
ARM GAS  /var/folders/qd/4mxf5pkd0zdf0b9dd1hp39180000gn/T//ccn3RVaQ.s 			page 98


 5491 0f12 B901     		.2byte	0x1b9
 5492 0f14 38190000 		.4byte	0x1938
 5493 0f18 0C       		.byte	0xc
 5494 0f19 00       		.byte	0
 5495 0f1a 05       		.uleb128 0x5
 5496 0f1b DB000000 		.4byte	.LASF236
 5497 0f1f 12       		.byte	0x12
 5498 0f20 70       		.byte	0x70
 5499 0f21 250F0000 		.4byte	0xf25
 5500 0f25 18       		.uleb128 0x18
 5501 0f26 F4190000 		.4byte	.LASF237
 5502 0f2a 7006     		.2byte	0x670
 5503 0f2c 13       		.byte	0x13
 5504 0f2d C201     		.2byte	0x1c2
 5505 0f2f 920F0000 		.4byte	0xf92
 5506 0f33 19       		.uleb128 0x19
 5507 0f34 D7050000 		.4byte	.LASF238
 5508 0f38 13       		.byte	0x13
 5509 0f39 C601     		.2byte	0x1c6
 5510 0f3b A20D0000 		.4byte	0xda2
 5511 0f3f 00       		.byte	0
 5512 0f40 19       		.uleb128 0x19
 5513 0f41 77050000 		.4byte	.LASF239
 5514 0f45 13       		.byte	0x13
 5515 0f46 CA01     		.2byte	0x1ca
 5516 0f48 7F0E0000 		.4byte	0xe7f
 5517 0f4c 1C       		.byte	0x1c
 5518 0f4d 27       		.uleb128 0x27
 5519 0f4e 64626700 		.ascii	"dbg\000"
 5520 0f52 13       		.byte	0x13
 5521 0f53 CE01     		.2byte	0x1ce
 5522 0f55 CC0E0000 		.4byte	0xecc
 5523 0f59 2C       		.byte	0x2c
 5524 0f5a 1A       		.uleb128 0x1a
 5525 0f5b 121B0000 		.4byte	.LASF240
 5526 0f5f 13       		.byte	0x13
 5527 0f60 D201     		.2byte	0x1d2
 5528 0f62 140C0000 		.4byte	0xc14
 5529 0f66 4004     		.2byte	0x440
 5530 0f68 28       		.uleb128 0x28
 5531 0f69 746D00   		.ascii	"tm\000"
 5532 0f6c 13       		.byte	0x13
 5533 0f6d D701     		.2byte	0x1d7
 5534 0f6f 58190000 		.4byte	0x1958
 5535 0f73 A804     		.2byte	0x4a8
 5536 0f75 1A       		.uleb128 0x1a
 5537 0f76 831F0000 		.4byte	.LASF241
 5538 0f7a 13       		.byte	0x13
 5539 0f7b DD01     		.2byte	0x1dd
 5540 0f7d EA190000 		.4byte	0x19ea
 5541 0f81 B004     		.2byte	0x4b0
 5542 0f83 1A       		.uleb128 0x1a
 5543 0f84 62240000 		.4byte	.LASF242
 5544 0f88 13       		.byte	0x13
 5545 0f89 E301     		.2byte	0x1e3
 5546 0f8b D21A0000 		.4byte	0x1ad2
 5547 0f8f E804     		.2byte	0x4e8
ARM GAS  /var/folders/qd/4mxf5pkd0zdf0b9dd1hp39180000gn/T//ccn3RVaQ.s 			page 99


 5548 0f91 00       		.byte	0
 5549 0f92 0D       		.uleb128 0xd
 5550 0f93 600B0000 		.4byte	0xb60
 5551 0f97 A20F0000 		.4byte	0xfa2
 5552 0f9b 0E       		.uleb128 0xe
 5553 0f9c 2C000000 		.4byte	0x2c
 5554 0fa0 01       		.byte	0x1
 5555 0fa1 00       		.byte	0
 5556 0fa2 0D       		.uleb128 0xd
 5557 0fa3 600B0000 		.4byte	0xb60
 5558 0fa7 B20F0000 		.4byte	0xfb2
 5559 0fab 0E       		.uleb128 0xe
 5560 0fac 2C000000 		.4byte	0x2c
 5561 0fb0 07       		.byte	0x7
 5562 0fb1 00       		.byte	0
 5563 0fb2 21       		.uleb128 0x21
 5564 0fb3 C9230000 		.4byte	.LASF243
 5565 0fb7 14       		.byte	0x14
 5566 0fb8 A706     		.2byte	0x6a7
 5567 0fba 5B0B0000 		.4byte	0xb5b
 5568 0fbe 06       		.uleb128 0x6
 5569 0fbf 0D190000 		.4byte	.LASF244
 5570 0fc3 15       		.byte	0x15
 5571 0fc4 4C       		.byte	0x4c
 5572 0fc5 600B0000 		.4byte	0xb60
 5573 0fc9 03       		.uleb128 0x3
 5574 0fca 50       		.byte	0x50
 5575 0fcb 16       		.byte	0x16
 5576 0fcc C4       		.byte	0xc4
 5577 0fcd C0100000 		.4byte	0x10c0
 5578 0fd1 12       		.uleb128 0x12
 5579 0fd2 535200   		.ascii	"SR\000"
 5580 0fd5 16       		.byte	0x16
 5581 0fd6 C6       		.byte	0xc6
 5582 0fd7 6B0B0000 		.4byte	0xb6b
 5583 0fdb 00       		.byte	0
 5584 0fdc 12       		.uleb128 0x12
 5585 0fdd 43523100 		.ascii	"CR1\000"
 5586 0fe1 16       		.byte	0x16
 5587 0fe2 C7       		.byte	0xc7
 5588 0fe3 6B0B0000 		.4byte	0xb6b
 5589 0fe7 04       		.byte	0x4
 5590 0fe8 12       		.uleb128 0x12
 5591 0fe9 43523200 		.ascii	"CR2\000"
 5592 0fed 16       		.byte	0x16
 5593 0fee C8       		.byte	0xc8
 5594 0fef 6B0B0000 		.4byte	0xb6b
 5595 0ff3 08       		.byte	0x8
 5596 0ff4 04       		.uleb128 0x4
 5597 0ff5 00030000 		.4byte	.LASF245
 5598 0ff9 16       		.byte	0x16
 5599 0ffa C9       		.byte	0xc9
 5600 0ffb 6B0B0000 		.4byte	0xb6b
 5601 0fff 0C       		.byte	0xc
 5602 1000 04       		.uleb128 0x4
 5603 1001 06030000 		.4byte	.LASF246
 5604 1005 16       		.byte	0x16
ARM GAS  /var/folders/qd/4mxf5pkd0zdf0b9dd1hp39180000gn/T//ccn3RVaQ.s 			page 100


 5605 1006 CA       		.byte	0xca
 5606 1007 6B0B0000 		.4byte	0xb6b
 5607 100b 10       		.byte	0x10
 5608 100c 04       		.uleb128 0x4
 5609 100d 5B0B0000 		.4byte	.LASF247
 5610 1011 16       		.byte	0x16
 5611 1012 CB       		.byte	0xcb
 5612 1013 6B0B0000 		.4byte	0xb6b
 5613 1017 14       		.byte	0x14
 5614 1018 04       		.uleb128 0x4
 5615 1019 610B0000 		.4byte	.LASF248
 5616 101d 16       		.byte	0x16
 5617 101e CC       		.byte	0xcc
 5618 101f 6B0B0000 		.4byte	0xb6b
 5619 1023 18       		.byte	0x18
 5620 1024 04       		.uleb128 0x4
 5621 1025 B5120000 		.4byte	.LASF249
 5622 1029 16       		.byte	0x16
 5623 102a CD       		.byte	0xcd
 5624 102b 6B0B0000 		.4byte	0xb6b
 5625 102f 1C       		.byte	0x1c
 5626 1030 04       		.uleb128 0x4
 5627 1031 670B0000 		.4byte	.LASF250
 5628 1035 16       		.byte	0x16
 5629 1036 CE       		.byte	0xce
 5630 1037 6B0B0000 		.4byte	0xb6b
 5631 103b 20       		.byte	0x20
 5632 103c 12       		.uleb128 0x12
 5633 103d 48545200 		.ascii	"HTR\000"
 5634 1041 16       		.byte	0x16
 5635 1042 CF       		.byte	0xcf
 5636 1043 6B0B0000 		.4byte	0xb6b
 5637 1047 24       		.byte	0x24
 5638 1048 12       		.uleb128 0x12
 5639 1049 4C545200 		.ascii	"LTR\000"
 5640 104d 16       		.byte	0x16
 5641 104e D0       		.byte	0xd0
 5642 104f 6B0B0000 		.4byte	0xb6b
 5643 1053 28       		.byte	0x28
 5644 1054 04       		.uleb128 0x4
 5645 1055 09150000 		.4byte	.LASF251
 5646 1059 16       		.byte	0x16
 5647 105a D1       		.byte	0xd1
 5648 105b 6B0B0000 		.4byte	0xb6b
 5649 105f 2C       		.byte	0x2c
 5650 1060 04       		.uleb128 0x4
 5651 1061 0E150000 		.4byte	.LASF252
 5652 1065 16       		.byte	0x16
 5653 1066 D2       		.byte	0xd2
 5654 1067 6B0B0000 		.4byte	0xb6b
 5655 106b 30       		.byte	0x30
 5656 106c 04       		.uleb128 0x4
 5657 106d 13150000 		.4byte	.LASF253
 5658 1071 16       		.byte	0x16
 5659 1072 D3       		.byte	0xd3
 5660 1073 6B0B0000 		.4byte	0xb6b
 5661 1077 34       		.byte	0x34
ARM GAS  /var/folders/qd/4mxf5pkd0zdf0b9dd1hp39180000gn/T//ccn3RVaQ.s 			page 101


 5662 1078 04       		.uleb128 0x4
 5663 1079 710D0000 		.4byte	.LASF254
 5664 107d 16       		.byte	0x16
 5665 107e D4       		.byte	0xd4
 5666 107f 6B0B0000 		.4byte	0xb6b
 5667 1083 38       		.byte	0x38
 5668 1084 04       		.uleb128 0x4
 5669 1085 B7250000 		.4byte	.LASF255
 5670 1089 16       		.byte	0x16
 5671 108a D5       		.byte	0xd5
 5672 108b 6B0B0000 		.4byte	0xb6b
 5673 108f 3C       		.byte	0x3c
 5674 1090 04       		.uleb128 0x4
 5675 1091 CB0D0000 		.4byte	.LASF256
 5676 1095 16       		.byte	0x16
 5677 1096 D6       		.byte	0xd6
 5678 1097 6B0B0000 		.4byte	0xb6b
 5679 109b 40       		.byte	0x40
 5680 109c 04       		.uleb128 0x4
 5681 109d CB250000 		.4byte	.LASF257
 5682 10a1 16       		.byte	0x16
 5683 10a2 D7       		.byte	0xd7
 5684 10a3 6B0B0000 		.4byte	0xb6b
 5685 10a7 44       		.byte	0x44
 5686 10a8 04       		.uleb128 0x4
 5687 10a9 D0250000 		.4byte	.LASF258
 5688 10ad 16       		.byte	0x16
 5689 10ae D8       		.byte	0xd8
 5690 10af 6B0B0000 		.4byte	0xb6b
 5691 10b3 48       		.byte	0x48
 5692 10b4 12       		.uleb128 0x12
 5693 10b5 445200   		.ascii	"DR\000"
 5694 10b8 16       		.byte	0x16
 5695 10b9 D9       		.byte	0xd9
 5696 10ba 6B0B0000 		.4byte	0xb6b
 5697 10be 4C       		.byte	0x4c
 5698 10bf 00       		.byte	0
 5699 10c0 05       		.uleb128 0x5
 5700 10c1 BD170000 		.4byte	.LASF259
 5701 10c5 16       		.byte	0x16
 5702 10c6 DA       		.byte	0xda
 5703 10c7 C90F0000 		.4byte	0xfc9
 5704 10cb 03       		.uleb128 0x3
 5705 10cc 10       		.byte	0x10
 5706 10cd 16       		.byte	0x16
 5707 10ce E9       		.byte	0xe9
 5708 10cf 04110000 		.4byte	0x1104
 5709 10d3 12       		.uleb128 0x12
 5710 10d4 54495200 		.ascii	"TIR\000"
 5711 10d8 16       		.byte	0x16
 5712 10d9 EB       		.byte	0xeb
 5713 10da 6B0B0000 		.4byte	0xb6b
 5714 10de 00       		.byte	0
 5715 10df 04       		.uleb128 0x4
 5716 10e0 7C120000 		.4byte	.LASF260
 5717 10e4 16       		.byte	0x16
 5718 10e5 EC       		.byte	0xec
ARM GAS  /var/folders/qd/4mxf5pkd0zdf0b9dd1hp39180000gn/T//ccn3RVaQ.s 			page 102


 5719 10e6 6B0B0000 		.4byte	0xb6b
 5720 10ea 04       		.byte	0x4
 5721 10eb 04       		.uleb128 0x4
 5722 10ec F81A0000 		.4byte	.LASF261
 5723 10f0 16       		.byte	0x16
 5724 10f1 ED       		.byte	0xed
 5725 10f2 6B0B0000 		.4byte	0xb6b
 5726 10f6 08       		.byte	0x8
 5727 10f7 04       		.uleb128 0x4
 5728 10f8 1F180000 		.4byte	.LASF262
 5729 10fc 16       		.byte	0x16
 5730 10fd EE       		.byte	0xee
 5731 10fe 6B0B0000 		.4byte	0xb6b
 5732 1102 0C       		.byte	0xc
 5733 1103 00       		.byte	0
 5734 1104 05       		.uleb128 0x5
 5735 1105 C1050000 		.4byte	.LASF263
 5736 1109 16       		.byte	0x16
 5737 110a EF       		.byte	0xef
 5738 110b CB100000 		.4byte	0x10cb
 5739 110f 03       		.uleb128 0x3
 5740 1110 10       		.byte	0x10
 5741 1111 16       		.byte	0x16
 5742 1112 F5       		.byte	0xf5
 5743 1113 48110000 		.4byte	0x1148
 5744 1117 12       		.uleb128 0x12
 5745 1118 52495200 		.ascii	"RIR\000"
 5746 111c 16       		.byte	0x16
 5747 111d F7       		.byte	0xf7
 5748 111e 6B0B0000 		.4byte	0xb6b
 5749 1122 00       		.byte	0
 5750 1123 04       		.uleb128 0x4
 5751 1124 8D210000 		.4byte	.LASF264
 5752 1128 16       		.byte	0x16
 5753 1129 F8       		.byte	0xf8
 5754 112a 6B0B0000 		.4byte	0xb6b
 5755 112e 04       		.byte	0x4
 5756 112f 04       		.uleb128 0x4
 5757 1130 7E1C0000 		.4byte	.LASF265
 5758 1134 16       		.byte	0x16
 5759 1135 F9       		.byte	0xf9
 5760 1136 6B0B0000 		.4byte	0xb6b
 5761 113a 08       		.byte	0x8
 5762 113b 04       		.uleb128 0x4
 5763 113c A3190000 		.4byte	.LASF266
 5764 1140 16       		.byte	0x16
 5765 1141 FA       		.byte	0xfa
 5766 1142 6B0B0000 		.4byte	0xb6b
 5767 1146 0C       		.byte	0xc
 5768 1147 00       		.byte	0
 5769 1148 05       		.uleb128 0x5
 5770 1149 AD200000 		.4byte	.LASF267
 5771 114d 16       		.byte	0x16
 5772 114e FB       		.byte	0xfb
 5773 114f 0F110000 		.4byte	0x110f
 5774 1153 1D       		.uleb128 0x1d
 5775 1154 08       		.byte	0x8
ARM GAS  /var/folders/qd/4mxf5pkd0zdf0b9dd1hp39180000gn/T//ccn3RVaQ.s 			page 103


 5776 1155 16       		.byte	0x16
 5777 1156 0101     		.2byte	0x101
 5778 1158 77110000 		.4byte	0x1177
 5779 115c 27       		.uleb128 0x27
 5780 115d 46523100 		.ascii	"FR1\000"
 5781 1161 16       		.byte	0x16
 5782 1162 0301     		.2byte	0x103
 5783 1164 6B0B0000 		.4byte	0xb6b
 5784 1168 00       		.byte	0
 5785 1169 27       		.uleb128 0x27
 5786 116a 46523200 		.ascii	"FR2\000"
 5787 116e 16       		.byte	0x16
 5788 116f 0401     		.2byte	0x104
 5789 1171 6B0B0000 		.4byte	0xb6b
 5790 1175 04       		.byte	0x4
 5791 1176 00       		.byte	0
 5792 1177 0A       		.uleb128 0xa
 5793 1178 81120000 		.4byte	.LASF268
 5794 117c 16       		.byte	0x16
 5795 117d 0501     		.2byte	0x105
 5796 117f 53110000 		.4byte	0x1153
 5797 1183 29       		.uleb128 0x29
 5798 1184 2003     		.2byte	0x320
 5799 1186 16       		.byte	0x16
 5800 1187 0B01     		.2byte	0x10b
 5801 1189 B9120000 		.4byte	0x12b9
 5802 118d 27       		.uleb128 0x27
 5803 118e 4D435200 		.ascii	"MCR\000"
 5804 1192 16       		.byte	0x16
 5805 1193 0D01     		.2byte	0x10d
 5806 1195 6B0B0000 		.4byte	0xb6b
 5807 1199 00       		.byte	0
 5808 119a 27       		.uleb128 0x27
 5809 119b 4D535200 		.ascii	"MSR\000"
 5810 119f 16       		.byte	0x16
 5811 11a0 0E01     		.2byte	0x10e
 5812 11a2 6B0B0000 		.4byte	0xb6b
 5813 11a6 04       		.byte	0x4
 5814 11a7 27       		.uleb128 0x27
 5815 11a8 54535200 		.ascii	"TSR\000"
 5816 11ac 16       		.byte	0x16
 5817 11ad 0F01     		.2byte	0x10f
 5818 11af 6B0B0000 		.4byte	0xb6b
 5819 11b3 08       		.byte	0x8
 5820 11b4 19       		.uleb128 0x19
 5821 11b5 9E0F0000 		.4byte	.LASF269
 5822 11b9 16       		.byte	0x16
 5823 11ba 1001     		.2byte	0x110
 5824 11bc 6B0B0000 		.4byte	0xb6b
 5825 11c0 0C       		.byte	0xc
 5826 11c1 19       		.uleb128 0x19
 5827 11c2 EB1C0000 		.4byte	.LASF270
 5828 11c6 16       		.byte	0x16
 5829 11c7 1101     		.2byte	0x111
 5830 11c9 6B0B0000 		.4byte	0xb6b
 5831 11cd 10       		.byte	0x10
 5832 11ce 27       		.uleb128 0x27
ARM GAS  /var/folders/qd/4mxf5pkd0zdf0b9dd1hp39180000gn/T//ccn3RVaQ.s 			page 104


 5833 11cf 49455200 		.ascii	"IER\000"
 5834 11d3 16       		.byte	0x16
 5835 11d4 1201     		.2byte	0x112
 5836 11d6 6B0B0000 		.4byte	0xb6b
 5837 11da 14       		.byte	0x14
 5838 11db 27       		.uleb128 0x27
 5839 11dc 45535200 		.ascii	"ESR\000"
 5840 11e0 16       		.byte	0x16
 5841 11e1 1301     		.2byte	0x113
 5842 11e3 6B0B0000 		.4byte	0xb6b
 5843 11e7 18       		.byte	0x18
 5844 11e8 27       		.uleb128 0x27
 5845 11e9 42545200 		.ascii	"BTR\000"
 5846 11ed 16       		.byte	0x16
 5847 11ee 1401     		.2byte	0x114
 5848 11f0 6B0B0000 		.4byte	0xb6b
 5849 11f4 1C       		.byte	0x1c
 5850 11f5 19       		.uleb128 0x19
 5851 11f6 EC220000 		.4byte	.LASF271
 5852 11fa 16       		.byte	0x16
 5853 11fb 1501     		.2byte	0x115
 5854 11fd B9120000 		.4byte	0x12b9
 5855 1201 20       		.byte	0x20
 5856 1202 1A       		.uleb128 0x1a
 5857 1203 A8130000 		.4byte	.LASF272
 5858 1207 16       		.byte	0x16
 5859 1208 1601     		.2byte	0x116
 5860 120a C9120000 		.4byte	0x12c9
 5861 120e 8001     		.2byte	0x180
 5862 1210 1A       		.uleb128 0x1a
 5863 1211 70270000 		.4byte	.LASF273
 5864 1215 16       		.byte	0x16
 5865 1216 1701     		.2byte	0x117
 5866 1218 D9120000 		.4byte	0x12d9
 5867 121c B001     		.2byte	0x1b0
 5868 121e 1A       		.uleb128 0x1a
 5869 121f F6220000 		.4byte	.LASF274
 5870 1223 16       		.byte	0x16
 5871 1224 1801     		.2byte	0x118
 5872 1226 E9120000 		.4byte	0x12e9
 5873 122a D001     		.2byte	0x1d0
 5874 122c 28       		.uleb128 0x28
 5875 122d 464D5200 		.ascii	"FMR\000"
 5876 1231 16       		.byte	0x16
 5877 1232 1901     		.2byte	0x119
 5878 1234 6B0B0000 		.4byte	0xb6b
 5879 1238 0002     		.2byte	0x200
 5880 123a 1A       		.uleb128 0x1a
 5881 123b E60B0000 		.4byte	.LASF275
 5882 123f 16       		.byte	0x16
 5883 1240 1A01     		.2byte	0x11a
 5884 1242 6B0B0000 		.4byte	0xb6b
 5885 1246 0402     		.2byte	0x204
 5886 1248 1A       		.uleb128 0x1a
 5887 1249 00230000 		.4byte	.LASF276
 5888 124d 16       		.byte	0x16
 5889 124e 1B01     		.2byte	0x11b
ARM GAS  /var/folders/qd/4mxf5pkd0zdf0b9dd1hp39180000gn/T//ccn3RVaQ.s 			page 105


 5890 1250 600B0000 		.4byte	0xb60
 5891 1254 0802     		.2byte	0x208
 5892 1256 1A       		.uleb128 0x1a
 5893 1257 FB240000 		.4byte	.LASF277
 5894 125b 16       		.byte	0x16
 5895 125c 1C01     		.2byte	0x11c
 5896 125e 6B0B0000 		.4byte	0xb6b
 5897 1262 0C02     		.2byte	0x20c
 5898 1264 1A       		.uleb128 0x1a
 5899 1265 0A230000 		.4byte	.LASF278
 5900 1269 16       		.byte	0x16
 5901 126a 1D01     		.2byte	0x11d
 5902 126c 600B0000 		.4byte	0xb60
 5903 1270 1002     		.2byte	0x210
 5904 1272 1A       		.uleb128 0x1a
 5905 1273 E51C0000 		.4byte	.LASF279
 5906 1277 16       		.byte	0x16
 5907 1278 1E01     		.2byte	0x11e
 5908 127a 6B0B0000 		.4byte	0xb6b
 5909 127e 1402     		.2byte	0x214
 5910 1280 1A       		.uleb128 0x1a
 5911 1281 14230000 		.4byte	.LASF280
 5912 1285 16       		.byte	0x16
 5913 1286 1F01     		.2byte	0x11f
 5914 1288 600B0000 		.4byte	0xb60
 5915 128c 1802     		.2byte	0x218
 5916 128e 1A       		.uleb128 0x1a
 5917 128f 8F040000 		.4byte	.LASF281
 5918 1293 16       		.byte	0x16
 5919 1294 2001     		.2byte	0x120
 5920 1296 6B0B0000 		.4byte	0xb6b
 5921 129a 1C02     		.2byte	0x21c
 5922 129c 1A       		.uleb128 0x1a
 5923 129d 1E230000 		.4byte	.LASF282
 5924 12a1 16       		.byte	0x16
 5925 12a2 2101     		.2byte	0x121
 5926 12a4 A20F0000 		.4byte	0xfa2
 5927 12a8 2002     		.2byte	0x220
 5928 12aa 1A       		.uleb128 0x1a
 5929 12ab 70060000 		.4byte	.LASF283
 5930 12af 16       		.byte	0x16
 5931 12b0 2201     		.2byte	0x122
 5932 12b2 F9120000 		.4byte	0x12f9
 5933 12b6 4002     		.2byte	0x240
 5934 12b8 00       		.byte	0
 5935 12b9 0D       		.uleb128 0xd
 5936 12ba 600B0000 		.4byte	0xb60
 5937 12be C9120000 		.4byte	0x12c9
 5938 12c2 0E       		.uleb128 0xe
 5939 12c3 2C000000 		.4byte	0x2c
 5940 12c7 57       		.byte	0x57
 5941 12c8 00       		.byte	0
 5942 12c9 0D       		.uleb128 0xd
 5943 12ca 04110000 		.4byte	0x1104
 5944 12ce D9120000 		.4byte	0x12d9
 5945 12d2 0E       		.uleb128 0xe
 5946 12d3 2C000000 		.4byte	0x2c
ARM GAS  /var/folders/qd/4mxf5pkd0zdf0b9dd1hp39180000gn/T//ccn3RVaQ.s 			page 106


 5947 12d7 02       		.byte	0x2
 5948 12d8 00       		.byte	0
 5949 12d9 0D       		.uleb128 0xd
 5950 12da 48110000 		.4byte	0x1148
 5951 12de E9120000 		.4byte	0x12e9
 5952 12e2 0E       		.uleb128 0xe
 5953 12e3 2C000000 		.4byte	0x2c
 5954 12e7 01       		.byte	0x1
 5955 12e8 00       		.byte	0
 5956 12e9 0D       		.uleb128 0xd
 5957 12ea 600B0000 		.4byte	0xb60
 5958 12ee F9120000 		.4byte	0x12f9
 5959 12f2 0E       		.uleb128 0xe
 5960 12f3 2C000000 		.4byte	0x2c
 5961 12f7 0B       		.byte	0xb
 5962 12f8 00       		.byte	0
 5963 12f9 0D       		.uleb128 0xd
 5964 12fa 77110000 		.4byte	0x1177
 5965 12fe 09130000 		.4byte	0x1309
 5966 1302 0E       		.uleb128 0xe
 5967 1303 2C000000 		.4byte	0x2c
 5968 1307 1B       		.byte	0x1b
 5969 1308 00       		.byte	0
 5970 1309 0A       		.uleb128 0xa
 5971 130a 640E0000 		.4byte	.LASF284
 5972 130e 16       		.byte	0x16
 5973 130f 2301     		.2byte	0x123
 5974 1311 83110000 		.4byte	0x1183
 5975 1315 1D       		.uleb128 0x1d
 5976 1316 38       		.byte	0x38
 5977 1317 16       		.byte	0x16
 5978 1318 3601     		.2byte	0x136
 5979 131a D3130000 		.4byte	0x13d3
 5980 131e 27       		.uleb128 0x27
 5981 131f 435200   		.ascii	"CR\000"
 5982 1322 16       		.byte	0x16
 5983 1323 3801     		.2byte	0x138
 5984 1325 6B0B0000 		.4byte	0xb6b
 5985 1329 00       		.byte	0
 5986 132a 19       		.uleb128 0x19
 5987 132b 7D190000 		.4byte	.LASF285
 5988 132f 16       		.byte	0x16
 5989 1330 3901     		.2byte	0x139
 5990 1332 6B0B0000 		.4byte	0xb6b
 5991 1336 04       		.byte	0x4
 5992 1337 19       		.uleb128 0x19
 5993 1338 3A230000 		.4byte	.LASF286
 5994 133c 16       		.byte	0x16
 5995 133d 3A01     		.2byte	0x13a
 5996 133f 6B0B0000 		.4byte	0xb6b
 5997 1343 08       		.byte	0x8
 5998 1344 19       		.uleb128 0x19
 5999 1345 2B1F0000 		.4byte	.LASF287
 6000 1349 16       		.byte	0x16
 6001 134a 3B01     		.2byte	0x13b
 6002 134c 6B0B0000 		.4byte	0xb6b
 6003 1350 0C       		.byte	0xc
ARM GAS  /var/folders/qd/4mxf5pkd0zdf0b9dd1hp39180000gn/T//ccn3RVaQ.s 			page 107


 6004 1351 19       		.uleb128 0x19
 6005 1352 3B0B0000 		.4byte	.LASF288
 6006 1356 16       		.byte	0x16
 6007 1357 3C01     		.2byte	0x13c
 6008 1359 6B0B0000 		.4byte	0xb6b
 6009 135d 10       		.byte	0x10
 6010 135e 19       		.uleb128 0x19
 6011 135f 42230000 		.4byte	.LASF289
 6012 1363 16       		.byte	0x16
 6013 1364 3D01     		.2byte	0x13d
 6014 1366 6B0B0000 		.4byte	0xb6b
 6015 136a 14       		.byte	0x14
 6016 136b 19       		.uleb128 0x19
 6017 136c 331F0000 		.4byte	.LASF290
 6018 1370 16       		.byte	0x16
 6019 1371 3E01     		.2byte	0x13e
 6020 1373 6B0B0000 		.4byte	0xb6b
 6021 1377 18       		.byte	0x18
 6022 1378 19       		.uleb128 0x19
 6023 1379 420B0000 		.4byte	.LASF291
 6024 137d 16       		.byte	0x16
 6025 137e 3F01     		.2byte	0x13f
 6026 1380 6B0B0000 		.4byte	0xb6b
 6027 1384 1C       		.byte	0x1c
 6028 1385 19       		.uleb128 0x19
 6029 1386 89230000 		.4byte	.LASF292
 6030 138a 16       		.byte	0x16
 6031 138b 4001     		.2byte	0x140
 6032 138d 6B0B0000 		.4byte	0xb6b
 6033 1391 20       		.byte	0x20
 6034 1392 19       		.uleb128 0x19
 6035 1393 7B1F0000 		.4byte	.LASF293
 6036 1397 16       		.byte	0x16
 6037 1398 4101     		.2byte	0x141
 6038 139a 6B0B0000 		.4byte	0xb6b
 6039 139e 24       		.byte	0x24
 6040 139f 19       		.uleb128 0x19
 6041 13a0 87270000 		.4byte	.LASF294
 6042 13a4 16       		.byte	0x16
 6043 13a5 4201     		.2byte	0x142
 6044 13a7 6B0B0000 		.4byte	0xb6b
 6045 13ab 28       		.byte	0x28
 6046 13ac 19       		.uleb128 0x19
 6047 13ad A8010000 		.4byte	.LASF295
 6048 13b1 16       		.byte	0x16
 6049 13b2 4301     		.2byte	0x143
 6050 13b4 6B0B0000 		.4byte	0xb6b
 6051 13b8 2C       		.byte	0x2c
 6052 13b9 19       		.uleb128 0x19
 6053 13ba AD010000 		.4byte	.LASF296
 6054 13be 16       		.byte	0x16
 6055 13bf 4401     		.2byte	0x144
 6056 13c1 6B0B0000 		.4byte	0xb6b
 6057 13c5 30       		.byte	0x30
 6058 13c6 27       		.uleb128 0x27
 6059 13c7 535200   		.ascii	"SR\000"
 6060 13ca 16       		.byte	0x16
ARM GAS  /var/folders/qd/4mxf5pkd0zdf0b9dd1hp39180000gn/T//ccn3RVaQ.s 			page 108


 6061 13cb 4501     		.2byte	0x145
 6062 13cd 6B0B0000 		.4byte	0xb6b
 6063 13d1 34       		.byte	0x34
 6064 13d2 00       		.byte	0
 6065 13d3 0A       		.uleb128 0xa
 6066 13d4 C5200000 		.4byte	.LASF297
 6067 13d8 16       		.byte	0x16
 6068 13d9 4601     		.2byte	0x146
 6069 13db 15130000 		.4byte	0x1315
 6070 13df 1D       		.uleb128 0x1d
 6071 13e0 18       		.byte	0x18
 6072 13e1 16       		.byte	0x16
 6073 13e2 6B01     		.2byte	0x16b
 6074 13e4 36140000 		.4byte	0x1436
 6075 13e8 27       		.uleb128 0x27
 6076 13e9 435200   		.ascii	"CR\000"
 6077 13ec 16       		.byte	0x16
 6078 13ed 6D01     		.2byte	0x16d
 6079 13ef 6B0B0000 		.4byte	0xb6b
 6080 13f3 00       		.byte	0
 6081 13f4 19       		.uleb128 0x19
 6082 13f5 3E240000 		.4byte	.LASF298
 6083 13f9 16       		.byte	0x16
 6084 13fa 6E01     		.2byte	0x16e
 6085 13fc 6B0B0000 		.4byte	0xb6b
 6086 1400 04       		.byte	0x4
 6087 1401 27       		.uleb128 0x27
 6088 1402 50415200 		.ascii	"PAR\000"
 6089 1406 16       		.byte	0x16
 6090 1407 6F01     		.2byte	0x16f
 6091 1409 6B0B0000 		.4byte	0xb6b
 6092 140d 08       		.byte	0x8
 6093 140e 19       		.uleb128 0x19
 6094 140f 42040000 		.4byte	.LASF299
 6095 1413 16       		.byte	0x16
 6096 1414 7001     		.2byte	0x170
 6097 1416 6B0B0000 		.4byte	0xb6b
 6098 141a 0C       		.byte	0xc
 6099 141b 19       		.uleb128 0x19
 6100 141c FE080000 		.4byte	.LASF300
 6101 1420 16       		.byte	0x16
 6102 1421 7101     		.2byte	0x171
 6103 1423 6B0B0000 		.4byte	0xb6b
 6104 1427 10       		.byte	0x10
 6105 1428 27       		.uleb128 0x27
 6106 1429 46435200 		.ascii	"FCR\000"
 6107 142d 16       		.byte	0x16
 6108 142e 7201     		.2byte	0x172
 6109 1430 6B0B0000 		.4byte	0xb6b
 6110 1434 14       		.byte	0x14
 6111 1435 00       		.byte	0
 6112 1436 0A       		.uleb128 0xa
 6113 1437 08090000 		.4byte	.LASF301
 6114 143b 16       		.byte	0x16
 6115 143c 7301     		.2byte	0x173
 6116 143e DF130000 		.4byte	0x13df
 6117 1442 0D       		.uleb128 0xd
ARM GAS  /var/folders/qd/4mxf5pkd0zdf0b9dd1hp39180000gn/T//ccn3RVaQ.s 			page 109


 6118 1443 6B0B0000 		.4byte	0xb6b
 6119 1447 52140000 		.4byte	0x1452
 6120 144b 0E       		.uleb128 0xe
 6121 144c 2C000000 		.4byte	0x2c
 6122 1450 01       		.byte	0x1
 6123 1451 00       		.byte	0
 6124 1452 1B       		.uleb128 0x1b
 6125 1453 42140000 		.4byte	0x1442
 6126 1457 0D       		.uleb128 0xd
 6127 1458 6B0B0000 		.4byte	0xb6b
 6128 145c 67140000 		.4byte	0x1467
 6129 1460 0E       		.uleb128 0xe
 6130 1461 2C000000 		.4byte	0x2c
 6131 1465 03       		.byte	0x3
 6132 1466 00       		.byte	0
 6133 1467 1B       		.uleb128 0x1b
 6134 1468 57140000 		.4byte	0x1457
 6135 146c 1D       		.uleb128 0x1d
 6136 146d 28       		.byte	0x28
 6137 146e 16       		.byte	0x16
 6138 146f 3F02     		.2byte	0x23f
 6139 1471 F7140000 		.4byte	0x14f7
 6140 1475 27       		.uleb128 0x27
 6141 1476 43523100 		.ascii	"CR1\000"
 6142 147a 16       		.byte	0x16
 6143 147b 4102     		.2byte	0x241
 6144 147d 6B0B0000 		.4byte	0xb6b
 6145 1481 00       		.byte	0
 6146 1482 27       		.uleb128 0x27
 6147 1483 43523200 		.ascii	"CR2\000"
 6148 1487 16       		.byte	0x16
 6149 1488 4202     		.2byte	0x242
 6150 148a 6B0B0000 		.4byte	0xb6b
 6151 148e 04       		.byte	0x4
 6152 148f 19       		.uleb128 0x19
 6153 1490 8F2A0000 		.4byte	.LASF302
 6154 1494 16       		.byte	0x16
 6155 1495 4302     		.2byte	0x243
 6156 1497 6B0B0000 		.4byte	0xb6b
 6157 149b 08       		.byte	0x8
 6158 149c 19       		.uleb128 0x19
 6159 149d 942A0000 		.4byte	.LASF303
 6160 14a1 16       		.byte	0x16
 6161 14a2 4402     		.2byte	0x244
 6162 14a4 6B0B0000 		.4byte	0xb6b
 6163 14a8 0C       		.byte	0xc
 6164 14a9 27       		.uleb128 0x27
 6165 14aa 445200   		.ascii	"DR\000"
 6166 14ad 16       		.byte	0x16
 6167 14ae 4502     		.2byte	0x245
 6168 14b0 6B0B0000 		.4byte	0xb6b
 6169 14b4 10       		.byte	0x10
 6170 14b5 27       		.uleb128 0x27
 6171 14b6 53523100 		.ascii	"SR1\000"
 6172 14ba 16       		.byte	0x16
 6173 14bb 4602     		.2byte	0x246
 6174 14bd 6B0B0000 		.4byte	0xb6b
ARM GAS  /var/folders/qd/4mxf5pkd0zdf0b9dd1hp39180000gn/T//ccn3RVaQ.s 			page 110


 6175 14c1 14       		.byte	0x14
 6176 14c2 27       		.uleb128 0x27
 6177 14c3 53523200 		.ascii	"SR2\000"
 6178 14c7 16       		.byte	0x16
 6179 14c8 4702     		.2byte	0x247
 6180 14ca 6B0B0000 		.4byte	0xb6b
 6181 14ce 18       		.byte	0x18
 6182 14cf 27       		.uleb128 0x27
 6183 14d0 43435200 		.ascii	"CCR\000"
 6184 14d4 16       		.byte	0x16
 6185 14d5 4802     		.2byte	0x248
 6186 14d7 6B0B0000 		.4byte	0xb6b
 6187 14db 1C       		.byte	0x1c
 6188 14dc 19       		.uleb128 0x19
 6189 14dd 83050000 		.4byte	.LASF304
 6190 14e1 16       		.byte	0x16
 6191 14e2 4902     		.2byte	0x249
 6192 14e4 6B0B0000 		.4byte	0xb6b
 6193 14e8 20       		.byte	0x20
 6194 14e9 19       		.uleb128 0x19
 6195 14ea 21290000 		.4byte	.LASF305
 6196 14ee 16       		.byte	0x16
 6197 14ef 4A02     		.2byte	0x24a
 6198 14f1 6B0B0000 		.4byte	0xb6b
 6199 14f5 24       		.byte	0x24
 6200 14f6 00       		.byte	0
 6201 14f7 0A       		.uleb128 0xa
 6202 14f8 8B140000 		.4byte	.LASF306
 6203 14fc 16       		.byte	0x16
 6204 14fd 4B02     		.2byte	0x24b
 6205 14ff 6C140000 		.4byte	0x146c
 6206 1503 1D       		.uleb128 0x1d
 6207 1504 84       		.byte	0x84
 6208 1505 16       		.byte	0x16
 6209 1506 BF02     		.2byte	0x2bf
 6210 1508 11160000 		.4byte	0x1611
 6211 150c 19       		.uleb128 0x19
 6212 150d FE190000 		.4byte	.LASF307
 6213 1511 16       		.byte	0x16
 6214 1512 C102     		.2byte	0x2c1
 6215 1514 6B0B0000 		.4byte	0xb6b
 6216 1518 00       		.byte	0
 6217 1519 19       		.uleb128 0x19
 6218 151a 74250000 		.4byte	.LASF308
 6219 151e 16       		.byte	0x16
 6220 151f C202     		.2byte	0x2c2
 6221 1521 6B0B0000 		.4byte	0xb6b
 6222 1525 04       		.byte	0x4
 6223 1526 27       		.uleb128 0x27
 6224 1527 41524700 		.ascii	"ARG\000"
 6225 152b 16       		.byte	0x16
 6226 152c C302     		.2byte	0x2c3
 6227 152e 6B0B0000 		.4byte	0xb6b
 6228 1532 08       		.byte	0x8
 6229 1533 27       		.uleb128 0x27
 6230 1534 434D4400 		.ascii	"CMD\000"
 6231 1538 16       		.byte	0x16
ARM GAS  /var/folders/qd/4mxf5pkd0zdf0b9dd1hp39180000gn/T//ccn3RVaQ.s 			page 111


 6232 1539 C402     		.2byte	0x2c4
 6233 153b 6B0B0000 		.4byte	0xb6b
 6234 153f 0C       		.byte	0xc
 6235 1540 19       		.uleb128 0x19
 6236 1541 7E1D0000 		.4byte	.LASF309
 6237 1545 16       		.byte	0x16
 6238 1546 C502     		.2byte	0x2c5
 6239 1548 700B0000 		.4byte	0xb70
 6240 154c 10       		.byte	0x10
 6241 154d 19       		.uleb128 0x19
 6242 154e A5060000 		.4byte	.LASF310
 6243 1552 16       		.byte	0x16
 6244 1553 C602     		.2byte	0x2c6
 6245 1555 700B0000 		.4byte	0xb70
 6246 1559 14       		.byte	0x14
 6247 155a 19       		.uleb128 0x19
 6248 155b AB060000 		.4byte	.LASF311
 6249 155f 16       		.byte	0x16
 6250 1560 C702     		.2byte	0x2c7
 6251 1562 700B0000 		.4byte	0xb70
 6252 1566 18       		.byte	0x18
 6253 1567 19       		.uleb128 0x19
 6254 1568 B1060000 		.4byte	.LASF312
 6255 156c 16       		.byte	0x16
 6256 156d C802     		.2byte	0x2c8
 6257 156f 700B0000 		.4byte	0xb70
 6258 1573 1C       		.byte	0x1c
 6259 1574 19       		.uleb128 0x19
 6260 1575 B7060000 		.4byte	.LASF313
 6261 1579 16       		.byte	0x16
 6262 157a C902     		.2byte	0x2c9
 6263 157c 700B0000 		.4byte	0xb70
 6264 1580 20       		.byte	0x20
 6265 1581 19       		.uleb128 0x19
 6266 1582 83160000 		.4byte	.LASF314
 6267 1586 16       		.byte	0x16
 6268 1587 CA02     		.2byte	0x2ca
 6269 1589 6B0B0000 		.4byte	0xb6b
 6270 158d 24       		.byte	0x24
 6271 158e 19       		.uleb128 0x19
 6272 158f 5E180000 		.4byte	.LASF315
 6273 1593 16       		.byte	0x16
 6274 1594 CB02     		.2byte	0x2cb
 6275 1596 6B0B0000 		.4byte	0xb6b
 6276 159a 28       		.byte	0x28
 6277 159b 19       		.uleb128 0x19
 6278 159c 0D290000 		.4byte	.LASF316
 6279 15a0 16       		.byte	0x16
 6280 15a1 CC02     		.2byte	0x2cc
 6281 15a3 6B0B0000 		.4byte	0xb6b
 6282 15a7 2C       		.byte	0x2c
 6283 15a8 19       		.uleb128 0x19
 6284 15a9 882A0000 		.4byte	.LASF317
 6285 15ad 16       		.byte	0x16
 6286 15ae CD02     		.2byte	0x2cd
 6287 15b0 700B0000 		.4byte	0xb70
 6288 15b4 30       		.byte	0x30
ARM GAS  /var/folders/qd/4mxf5pkd0zdf0b9dd1hp39180000gn/T//ccn3RVaQ.s 			page 112


 6289 15b5 27       		.uleb128 0x27
 6290 15b6 53544100 		.ascii	"STA\000"
 6291 15ba 16       		.byte	0x16
 6292 15bb CE02     		.2byte	0x2ce
 6293 15bd 700B0000 		.4byte	0xb70
 6294 15c1 34       		.byte	0x34
 6295 15c2 27       		.uleb128 0x27
 6296 15c3 49435200 		.ascii	"ICR\000"
 6297 15c7 16       		.byte	0x16
 6298 15c8 CF02     		.2byte	0x2cf
 6299 15ca 6B0B0000 		.4byte	0xb6b
 6300 15ce 38       		.byte	0x38
 6301 15cf 19       		.uleb128 0x19
 6302 15d0 FC010000 		.4byte	.LASF318
 6303 15d4 16       		.byte	0x16
 6304 15d5 D002     		.2byte	0x2d0
 6305 15d7 6B0B0000 		.4byte	0xb6b
 6306 15db 3C       		.byte	0x3c
 6307 15dc 19       		.uleb128 0x19
 6308 15dd EC220000 		.4byte	.LASF271
 6309 15e1 16       		.byte	0x16
 6310 15e2 D102     		.2byte	0x2d1
 6311 15e4 920F0000 		.4byte	0xf92
 6312 15e8 40       		.byte	0x40
 6313 15e9 19       		.uleb128 0x19
 6314 15ea 49170000 		.4byte	.LASF319
 6315 15ee 16       		.byte	0x16
 6316 15ef D202     		.2byte	0x2d2
 6317 15f1 700B0000 		.4byte	0xb70
 6318 15f5 48       		.byte	0x48
 6319 15f6 19       		.uleb128 0x19
 6320 15f7 F6220000 		.4byte	.LASF274
 6321 15fb 16       		.byte	0x16
 6322 15fc D302     		.2byte	0x2d3
 6323 15fe 11160000 		.4byte	0x1611
 6324 1602 4C       		.byte	0x4c
 6325 1603 19       		.uleb128 0x19
 6326 1604 8D0A0000 		.4byte	.LASF320
 6327 1608 16       		.byte	0x16
 6328 1609 D402     		.2byte	0x2d4
 6329 160b 6B0B0000 		.4byte	0xb6b
 6330 160f 80       		.byte	0x80
 6331 1610 00       		.byte	0
 6332 1611 0D       		.uleb128 0xd
 6333 1612 600B0000 		.4byte	0xb60
 6334 1616 21160000 		.4byte	0x1621
 6335 161a 0E       		.uleb128 0xe
 6336 161b 2C000000 		.4byte	0x2c
 6337 161f 0C       		.byte	0xc
 6338 1620 00       		.byte	0
 6339 1621 0A       		.uleb128 0xa
 6340 1622 FD230000 		.4byte	.LASF321
 6341 1626 16       		.byte	0x16
 6342 1627 D502     		.2byte	0x2d5
 6343 1629 03150000 		.4byte	0x1503
 6344 162d 1D       		.uleb128 0x1d
 6345 162e 24       		.byte	0x24
ARM GAS  /var/folders/qd/4mxf5pkd0zdf0b9dd1hp39180000gn/T//ccn3RVaQ.s 			page 113


 6346 162f 16       		.byte	0x16
 6347 1630 DB02     		.2byte	0x2db
 6348 1632 AA160000 		.4byte	0x16aa
 6349 1636 27       		.uleb128 0x27
 6350 1637 43523100 		.ascii	"CR1\000"
 6351 163b 16       		.byte	0x16
 6352 163c DD02     		.2byte	0x2dd
 6353 163e 6B0B0000 		.4byte	0xb6b
 6354 1642 00       		.byte	0
 6355 1643 27       		.uleb128 0x27
 6356 1644 43523200 		.ascii	"CR2\000"
 6357 1648 16       		.byte	0x16
 6358 1649 DE02     		.2byte	0x2de
 6359 164b 6B0B0000 		.4byte	0xb6b
 6360 164f 04       		.byte	0x4
 6361 1650 27       		.uleb128 0x27
 6362 1651 535200   		.ascii	"SR\000"
 6363 1654 16       		.byte	0x16
 6364 1655 DF02     		.2byte	0x2df
 6365 1657 6B0B0000 		.4byte	0xb6b
 6366 165b 08       		.byte	0x8
 6367 165c 27       		.uleb128 0x27
 6368 165d 445200   		.ascii	"DR\000"
 6369 1660 16       		.byte	0x16
 6370 1661 E002     		.2byte	0x2e0
 6371 1663 6B0B0000 		.4byte	0xb6b
 6372 1667 0C       		.byte	0xc
 6373 1668 19       		.uleb128 0x19
 6374 1669 82080000 		.4byte	.LASF322
 6375 166d 16       		.byte	0x16
 6376 166e E102     		.2byte	0x2e1
 6377 1670 6B0B0000 		.4byte	0xb6b
 6378 1674 10       		.byte	0x10
 6379 1675 19       		.uleb128 0x19
 6380 1676 570C0000 		.4byte	.LASF323
 6381 167a 16       		.byte	0x16
 6382 167b E202     		.2byte	0x2e2
 6383 167d 6B0B0000 		.4byte	0xb6b
 6384 1681 14       		.byte	0x14
 6385 1682 19       		.uleb128 0x19
 6386 1683 810B0000 		.4byte	.LASF324
 6387 1687 16       		.byte	0x16
 6388 1688 E302     		.2byte	0x2e3
 6389 168a 6B0B0000 		.4byte	0xb6b
 6390 168e 18       		.byte	0x18
 6391 168f 19       		.uleb128 0x19
 6392 1690 77260000 		.4byte	.LASF325
 6393 1694 16       		.byte	0x16
 6394 1695 E402     		.2byte	0x2e4
 6395 1697 6B0B0000 		.4byte	0xb6b
 6396 169b 1C       		.byte	0x1c
 6397 169c 19       		.uleb128 0x19
 6398 169d 45080000 		.4byte	.LASF326
 6399 16a1 16       		.byte	0x16
 6400 16a2 E502     		.2byte	0x2e5
 6401 16a4 6B0B0000 		.4byte	0xb6b
 6402 16a8 20       		.byte	0x20
ARM GAS  /var/folders/qd/4mxf5pkd0zdf0b9dd1hp39180000gn/T//ccn3RVaQ.s 			page 114


 6403 16a9 00       		.byte	0
 6404 16aa 0A       		.uleb128 0xa
 6405 16ab 81240000 		.4byte	.LASF327
 6406 16af 16       		.byte	0x16
 6407 16b0 E602     		.2byte	0x2e6
 6408 16b2 2D160000 		.4byte	0x162d
 6409 16b6 1D       		.uleb128 0x1d
 6410 16b7 1C       		.byte	0x1c
 6411 16b8 16       		.byte	0x16
 6412 16b9 0903     		.2byte	0x309
 6413 16bb 19170000 		.4byte	0x1719
 6414 16bf 27       		.uleb128 0x27
 6415 16c0 535200   		.ascii	"SR\000"
 6416 16c3 16       		.byte	0x16
 6417 16c4 0B03     		.2byte	0x30b
 6418 16c6 6B0B0000 		.4byte	0xb6b
 6419 16ca 00       		.byte	0
 6420 16cb 27       		.uleb128 0x27
 6421 16cc 445200   		.ascii	"DR\000"
 6422 16cf 16       		.byte	0x16
 6423 16d0 0C03     		.2byte	0x30c
 6424 16d2 6B0B0000 		.4byte	0xb6b
 6425 16d6 04       		.byte	0x4
 6426 16d7 27       		.uleb128 0x27
 6427 16d8 42525200 		.ascii	"BRR\000"
 6428 16dc 16       		.byte	0x16
 6429 16dd 0D03     		.2byte	0x30d
 6430 16df 6B0B0000 		.4byte	0xb6b
 6431 16e3 08       		.byte	0x8
 6432 16e4 27       		.uleb128 0x27
 6433 16e5 43523100 		.ascii	"CR1\000"
 6434 16e9 16       		.byte	0x16
 6435 16ea 0E03     		.2byte	0x30e
 6436 16ec 6B0B0000 		.4byte	0xb6b
 6437 16f0 0C       		.byte	0xc
 6438 16f1 27       		.uleb128 0x27
 6439 16f2 43523200 		.ascii	"CR2\000"
 6440 16f6 16       		.byte	0x16
 6441 16f7 0F03     		.2byte	0x30f
 6442 16f9 6B0B0000 		.4byte	0xb6b
 6443 16fd 10       		.byte	0x10
 6444 16fe 27       		.uleb128 0x27
 6445 16ff 43523300 		.ascii	"CR3\000"
 6446 1703 16       		.byte	0x16
 6447 1704 1003     		.2byte	0x310
 6448 1706 6B0B0000 		.4byte	0xb6b
 6449 170a 14       		.byte	0x14
 6450 170b 19       		.uleb128 0x19
 6451 170c C10F0000 		.4byte	.LASF328
 6452 1710 16       		.byte	0x16
 6453 1711 1103     		.2byte	0x311
 6454 1713 6B0B0000 		.4byte	0xb6b
 6455 1717 18       		.byte	0x18
 6456 1718 00       		.byte	0
 6457 1719 0A       		.uleb128 0xa
 6458 171a DA290000 		.4byte	.LASF329
 6459 171e 16       		.byte	0x16
ARM GAS  /var/folders/qd/4mxf5pkd0zdf0b9dd1hp39180000gn/T//ccn3RVaQ.s 			page 115


 6460 171f 1203     		.2byte	0x312
 6461 1721 B6160000 		.4byte	0x16b6
 6462 1725 0D       		.uleb128 0xd
 6463 1726 6B0B0000 		.4byte	0xb6b
 6464 172a 35170000 		.4byte	0x1735
 6465 172e 0E       		.uleb128 0xe
 6466 172f 2C000000 		.4byte	0x2c
 6467 1733 0E       		.byte	0xe
 6468 1734 00       		.byte	0
 6469 1735 1B       		.uleb128 0x1b
 6470 1736 25170000 		.4byte	0x1725
 6471 173a 05       		.uleb128 0x5
 6472 173b A51C0000 		.4byte	.LASF330
 6473 173f 17       		.byte	0x17
 6474 1740 65       		.byte	0x65
 6475 1741 A2010000 		.4byte	0x1a2
 6476 1745 05       		.uleb128 0x5
 6477 1746 7F0E0000 		.4byte	.LASF331
 6478 174a 17       		.byte	0x17
 6479 174b 6D       		.byte	0x6d
 6480 174c 750B0000 		.4byte	0xb75
 6481 1750 11       		.uleb128 0x11
 6482 1751 EE140000 		.4byte	.LASF332
 6483 1755 04       		.byte	0x4
 6484 1756 17       		.byte	0x17
 6485 1757 89       		.byte	0x89
 6486 1758 69170000 		.4byte	0x1769
 6487 175c 12       		.uleb128 0x12
 6488 175d 72313300 		.ascii	"r13\000"
 6489 1761 17       		.byte	0x17
 6490 1762 8A       		.byte	0x8a
 6491 1763 AA180000 		.4byte	0x18aa
 6492 1767 00       		.byte	0
 6493 1768 00       		.byte	0
 6494 1769 11       		.uleb128 0x11
 6495 176a 09000000 		.4byte	.LASF333
 6496 176e 64       		.byte	0x64
 6497 176f 18       		.byte	0x18
 6498 1770 F4       		.byte	0xf4
 6499 1771 AA180000 		.4byte	0x18aa
 6500 1775 12       		.uleb128 0x12
 6501 1776 73313600 		.ascii	"s16\000"
 6502 177a 18       		.byte	0x18
 6503 177b F6       		.byte	0xf6
 6504 177c 3A170000 		.4byte	0x173a
 6505 1780 00       		.byte	0
 6506 1781 12       		.uleb128 0x12
 6507 1782 73313700 		.ascii	"s17\000"
 6508 1786 18       		.byte	0x18
 6509 1787 F7       		.byte	0xf7
 6510 1788 3A170000 		.4byte	0x173a
 6511 178c 04       		.byte	0x4
 6512 178d 12       		.uleb128 0x12
 6513 178e 73313800 		.ascii	"s18\000"
 6514 1792 18       		.byte	0x18
 6515 1793 F8       		.byte	0xf8
 6516 1794 3A170000 		.4byte	0x173a
ARM GAS  /var/folders/qd/4mxf5pkd0zdf0b9dd1hp39180000gn/T//ccn3RVaQ.s 			page 116


 6517 1798 08       		.byte	0x8
 6518 1799 12       		.uleb128 0x12
 6519 179a 73313900 		.ascii	"s19\000"
 6520 179e 18       		.byte	0x18
 6521 179f F9       		.byte	0xf9
 6522 17a0 3A170000 		.4byte	0x173a
 6523 17a4 0C       		.byte	0xc
 6524 17a5 12       		.uleb128 0x12
 6525 17a6 73323000 		.ascii	"s20\000"
 6526 17aa 18       		.byte	0x18
 6527 17ab FA       		.byte	0xfa
 6528 17ac 3A170000 		.4byte	0x173a
 6529 17b0 10       		.byte	0x10
 6530 17b1 12       		.uleb128 0x12
 6531 17b2 73323100 		.ascii	"s21\000"
 6532 17b6 18       		.byte	0x18
 6533 17b7 FB       		.byte	0xfb
 6534 17b8 3A170000 		.4byte	0x173a
 6535 17bc 14       		.byte	0x14
 6536 17bd 12       		.uleb128 0x12
 6537 17be 73323200 		.ascii	"s22\000"
 6538 17c2 18       		.byte	0x18
 6539 17c3 FC       		.byte	0xfc
 6540 17c4 3A170000 		.4byte	0x173a
 6541 17c8 18       		.byte	0x18
 6542 17c9 12       		.uleb128 0x12
 6543 17ca 73323300 		.ascii	"s23\000"
 6544 17ce 18       		.byte	0x18
 6545 17cf FD       		.byte	0xfd
 6546 17d0 3A170000 		.4byte	0x173a
 6547 17d4 1C       		.byte	0x1c
 6548 17d5 12       		.uleb128 0x12
 6549 17d6 73323400 		.ascii	"s24\000"
 6550 17da 18       		.byte	0x18
 6551 17db FE       		.byte	0xfe
 6552 17dc 3A170000 		.4byte	0x173a
 6553 17e0 20       		.byte	0x20
 6554 17e1 12       		.uleb128 0x12
 6555 17e2 73323500 		.ascii	"s25\000"
 6556 17e6 18       		.byte	0x18
 6557 17e7 FF       		.byte	0xff
 6558 17e8 3A170000 		.4byte	0x173a
 6559 17ec 24       		.byte	0x24
 6560 17ed 27       		.uleb128 0x27
 6561 17ee 73323600 		.ascii	"s26\000"
 6562 17f2 18       		.byte	0x18
 6563 17f3 0001     		.2byte	0x100
 6564 17f5 3A170000 		.4byte	0x173a
 6565 17f9 28       		.byte	0x28
 6566 17fa 27       		.uleb128 0x27
 6567 17fb 73323700 		.ascii	"s27\000"
 6568 17ff 18       		.byte	0x18
 6569 1800 0101     		.2byte	0x101
 6570 1802 3A170000 		.4byte	0x173a
 6571 1806 2C       		.byte	0x2c
 6572 1807 27       		.uleb128 0x27
 6573 1808 73323800 		.ascii	"s28\000"
ARM GAS  /var/folders/qd/4mxf5pkd0zdf0b9dd1hp39180000gn/T//ccn3RVaQ.s 			page 117


 6574 180c 18       		.byte	0x18
 6575 180d 0201     		.2byte	0x102
 6576 180f 3A170000 		.4byte	0x173a
 6577 1813 30       		.byte	0x30
 6578 1814 27       		.uleb128 0x27
 6579 1815 73323900 		.ascii	"s29\000"
 6580 1819 18       		.byte	0x18
 6581 181a 0301     		.2byte	0x103
 6582 181c 3A170000 		.4byte	0x173a
 6583 1820 34       		.byte	0x34
 6584 1821 27       		.uleb128 0x27
 6585 1822 73333000 		.ascii	"s30\000"
 6586 1826 18       		.byte	0x18
 6587 1827 0401     		.2byte	0x104
 6588 1829 3A170000 		.4byte	0x173a
 6589 182d 38       		.byte	0x38
 6590 182e 27       		.uleb128 0x27
 6591 182f 73333100 		.ascii	"s31\000"
 6592 1833 18       		.byte	0x18
 6593 1834 0501     		.2byte	0x105
 6594 1836 3A170000 		.4byte	0x173a
 6595 183a 3C       		.byte	0x3c
 6596 183b 27       		.uleb128 0x27
 6597 183c 723400   		.ascii	"r4\000"
 6598 183f 18       		.byte	0x18
 6599 1840 0701     		.2byte	0x107
 6600 1842 3A170000 		.4byte	0x173a
 6601 1846 40       		.byte	0x40
 6602 1847 27       		.uleb128 0x27
 6603 1848 723500   		.ascii	"r5\000"
 6604 184b 18       		.byte	0x18
 6605 184c 0801     		.2byte	0x108
 6606 184e 3A170000 		.4byte	0x173a
 6607 1852 44       		.byte	0x44
 6608 1853 27       		.uleb128 0x27
 6609 1854 723600   		.ascii	"r6\000"
 6610 1857 18       		.byte	0x18
 6611 1858 0901     		.2byte	0x109
 6612 185a 3A170000 		.4byte	0x173a
 6613 185e 48       		.byte	0x48
 6614 185f 27       		.uleb128 0x27
 6615 1860 723700   		.ascii	"r7\000"
 6616 1863 18       		.byte	0x18
 6617 1864 0A01     		.2byte	0x10a
 6618 1866 3A170000 		.4byte	0x173a
 6619 186a 4C       		.byte	0x4c
 6620 186b 27       		.uleb128 0x27
 6621 186c 723800   		.ascii	"r8\000"
 6622 186f 18       		.byte	0x18
 6623 1870 0B01     		.2byte	0x10b
 6624 1872 3A170000 		.4byte	0x173a
 6625 1876 50       		.byte	0x50
 6626 1877 27       		.uleb128 0x27
 6627 1878 723900   		.ascii	"r9\000"
 6628 187b 18       		.byte	0x18
 6629 187c 0C01     		.2byte	0x10c
 6630 187e 3A170000 		.4byte	0x173a
ARM GAS  /var/folders/qd/4mxf5pkd0zdf0b9dd1hp39180000gn/T//ccn3RVaQ.s 			page 118


 6631 1882 54       		.byte	0x54
 6632 1883 27       		.uleb128 0x27
 6633 1884 72313000 		.ascii	"r10\000"
 6634 1888 18       		.byte	0x18
 6635 1889 0D01     		.2byte	0x10d
 6636 188b 3A170000 		.4byte	0x173a
 6637 188f 58       		.byte	0x58
 6638 1890 27       		.uleb128 0x27
 6639 1891 72313100 		.ascii	"r11\000"
 6640 1895 18       		.byte	0x18
 6641 1896 0E01     		.2byte	0x10e
 6642 1898 3A170000 		.4byte	0x173a
 6643 189c 5C       		.byte	0x5c
 6644 189d 27       		.uleb128 0x27
 6645 189e 6C7200   		.ascii	"lr\000"
 6646 18a1 18       		.byte	0x18
 6647 18a2 0F01     		.2byte	0x10f
 6648 18a4 3A170000 		.4byte	0x173a
 6649 18a8 60       		.byte	0x60
 6650 18a9 00       		.byte	0
 6651 18aa 08       		.uleb128 0x8
 6652 18ab 04       		.byte	0x4
 6653 18ac 69170000 		.4byte	0x1769
 6654 18b0 03       		.uleb128 0x3
 6655 18b1 10       		.byte	0x10
 6656 18b2 19       		.byte	0x19
 6657 18b3 51       		.byte	0x51
 6658 18b4 E9180000 		.4byte	0x18e9
 6659 18b8 04       		.uleb128 0x4
 6660 18b9 60230000 		.4byte	.LASF334
 6661 18bd 19       		.byte	0x19
 6662 18be 55       		.byte	0x55
 6663 18bf 040C0000 		.4byte	0xc04
 6664 18c3 00       		.byte	0
 6665 18c4 04       		.uleb128 0x4
 6666 18c5 4A1D0000 		.4byte	.LASF335
 6667 18c9 19       		.byte	0x19
 6668 18ca 59       		.byte	0x59
 6669 18cb 480D0000 		.4byte	0xd48
 6670 18cf 04       		.byte	0x4
 6671 18d0 04       		.uleb128 0x4
 6672 18d1 670D0000 		.4byte	.LASF336
 6673 18d5 19       		.byte	0x19
 6674 18d6 5D       		.byte	0x5d
 6675 18d7 A2010000 		.4byte	0x1a2
 6676 18db 08       		.byte	0x8
 6677 18dc 04       		.uleb128 0x4
 6678 18dd 170B0000 		.4byte	.LASF337
 6679 18e1 19       		.byte	0x19
 6680 18e2 61       		.byte	0x61
 6681 18e3 2A0B0000 		.4byte	0xb2a
 6682 18e7 0C       		.byte	0xc
 6683 18e8 00       		.byte	0
 6684 18e9 05       		.uleb128 0x5
 6685 18ea 8A0E0000 		.4byte	.LASF338
 6686 18ee 19       		.byte	0x19
 6687 18ef 62       		.byte	0x62
ARM GAS  /var/folders/qd/4mxf5pkd0zdf0b9dd1hp39180000gn/T//ccn3RVaQ.s 			page 119


 6688 18f0 B0180000 		.4byte	0x18b0
 6689 18f4 2A       		.uleb128 0x2a
 6690 18f5 0804     		.2byte	0x408
 6691 18f7 19       		.byte	0x19
 6692 18f8 67       		.byte	0x67
 6693 18f9 22190000 		.4byte	0x1922
 6694 18fd 04       		.uleb128 0x4
 6695 18fe 4E0F0000 		.4byte	.LASF339
 6696 1902 19       		.byte	0x19
 6697 1903 6B       		.byte	0x6b
 6698 1904 2C000000 		.4byte	0x2c
 6699 1908 00       		.byte	0
 6700 1909 04       		.uleb128 0x4
 6701 190a 78170000 		.4byte	.LASF340
 6702 190e 19       		.byte	0x19
 6703 190f 6F       		.byte	0x6f
 6704 1910 22190000 		.4byte	0x1922
 6705 1914 04       		.byte	0x4
 6706 1915 04       		.uleb128 0x4
 6707 1916 920A0000 		.4byte	.LASF341
 6708 191a 19       		.byte	0x19
 6709 191b 73       		.byte	0x73
 6710 191c 28190000 		.4byte	0x1928
 6711 1920 08       		.byte	0x8
 6712 1921 00       		.byte	0
 6713 1922 08       		.uleb128 0x8
 6714 1923 04       		.byte	0x4
 6715 1924 E9180000 		.4byte	0x18e9
 6716 1928 0D       		.uleb128 0xd
 6717 1929 E9180000 		.4byte	0x18e9
 6718 192d 38190000 		.4byte	0x1938
 6719 1931 0E       		.uleb128 0xe
 6720 1932 2C000000 		.4byte	0x2c
 6721 1936 3F       		.byte	0x3f
 6722 1937 00       		.byte	0
 6723 1938 05       		.uleb128 0x5
 6724 1939 15000000 		.4byte	.LASF342
 6725 193d 19       		.byte	0x19
 6726 193e 74       		.byte	0x74
 6727 193f F4180000 		.4byte	0x18f4
 6728 1943 03       		.uleb128 0x3
 6729 1944 04       		.byte	0x4
 6730 1945 1A       		.byte	0x1a
 6731 1946 38       		.byte	0x38
 6732 1947 58190000 		.4byte	0x1958
 6733 194b 04       		.uleb128 0x4
 6734 194c 0A240000 		.4byte	.LASF343
 6735 1950 1A       		.byte	0x1a
 6736 1951 3C       		.byte	0x3c
 6737 1952 800B0000 		.4byte	0xb80
 6738 1956 00       		.byte	0
 6739 1957 00       		.byte	0
 6740 1958 05       		.uleb128 0x5
 6741 1959 EC050000 		.4byte	.LASF344
 6742 195d 1A       		.byte	0x1a
 6743 195e 3D       		.byte	0x3d
 6744 195f 43190000 		.4byte	0x1943
ARM GAS  /var/folders/qd/4mxf5pkd0zdf0b9dd1hp39180000gn/T//ccn3RVaQ.s 			page 120


 6745 1963 03       		.uleb128 0x3
 6746 1964 18       		.byte	0x18
 6747 1965 1A       		.byte	0x1a
 6748 1966 48       		.byte	0x48
 6749 1967 A6190000 		.4byte	0x19a6
 6750 196b 04       		.uleb128 0x4
 6751 196c 56080000 		.4byte	.LASF345
 6752 1970 1A       		.byte	0x1a
 6753 1971 49       		.byte	0x49
 6754 1972 800B0000 		.4byte	0xb80
 6755 1976 00       		.byte	0
 6756 1977 04       		.uleb128 0x4
 6757 1978 97010000 		.4byte	.LASF346
 6758 197c 1A       		.byte	0x1a
 6759 197d 4A       		.byte	0x4a
 6760 197e 800B0000 		.4byte	0xb80
 6761 1982 04       		.byte	0x4
 6762 1983 04       		.uleb128 0x4
 6763 1984 121C0000 		.4byte	.LASF347
 6764 1988 1A       		.byte	0x1a
 6765 1989 4B       		.byte	0x4b
 6766 198a 800B0000 		.4byte	0xb80
 6767 198e 08       		.byte	0x8
 6768 198f 12       		.uleb128 0x12
 6769 1990 6E00     		.ascii	"n\000"
 6770 1992 1A       		.byte	0x1a
 6771 1993 4C       		.byte	0x4c
 6772 1994 F90B0000 		.4byte	0xbf9
 6773 1998 0C       		.byte	0xc
 6774 1999 04       		.uleb128 0x4
 6775 199a B61B0000 		.4byte	.LASF348
 6776 199e 1A       		.byte	0x1a
 6777 199f 4D       		.byte	0x4d
 6778 19a0 8B0B0000 		.4byte	0xb8b
 6779 19a4 10       		.byte	0x10
 6780 19a5 00       		.byte	0
 6781 19a6 05       		.uleb128 0x5
 6782 19a7 D7260000 		.4byte	.LASF349
 6783 19ab 1A       		.byte	0x1a
 6784 19ac 4E       		.byte	0x4e
 6785 19ad 63190000 		.4byte	0x1963
 6786 19b1 03       		.uleb128 0x3
 6787 19b2 38       		.byte	0x38
 6788 19b3 1B       		.byte	0x1b
 6789 19b4 38       		.byte	0x38
 6790 19b5 EA190000 		.4byte	0x19ea
 6791 19b9 04       		.uleb128 0x4
 6792 19ba 0E070000 		.4byte	.LASF350
 6793 19be 1B       		.byte	0x1b
 6794 19bf 39       		.byte	0x39
 6795 19c0 F90B0000 		.4byte	0xbf9
 6796 19c4 00       		.byte	0
 6797 19c5 04       		.uleb128 0x4
 6798 19c6 BA0B0000 		.4byte	.LASF351
 6799 19ca 1B       		.byte	0x1b
 6800 19cb 3A       		.byte	0x3a
 6801 19cc F90B0000 		.4byte	0xbf9
ARM GAS  /var/folders/qd/4mxf5pkd0zdf0b9dd1hp39180000gn/T//ccn3RVaQ.s 			page 121


 6802 19d0 04       		.byte	0x4
 6803 19d1 04       		.uleb128 0x4
 6804 19d2 5A260000 		.4byte	.LASF352
 6805 19d6 1B       		.byte	0x1b
 6806 19d7 3B       		.byte	0x3b
 6807 19d8 A6190000 		.4byte	0x19a6
 6808 19dc 08       		.byte	0x8
 6809 19dd 04       		.uleb128 0x4
 6810 19de 77000000 		.4byte	.LASF353
 6811 19e2 1B       		.byte	0x1b
 6812 19e3 3D       		.byte	0x3d
 6813 19e4 A6190000 		.4byte	0x19a6
 6814 19e8 20       		.byte	0x20
 6815 19e9 00       		.byte	0
 6816 19ea 05       		.uleb128 0x5
 6817 19eb 9C050000 		.4byte	.LASF354
 6818 19ef 1B       		.byte	0x1b
 6819 19f0 3F       		.byte	0x3f
 6820 19f1 B1190000 		.4byte	0x19b1
 6821 19f5 0B       		.uleb128 0xb
 6822 19f6 04       		.byte	0x4
 6823 19f7 13       		.byte	0x13
 6824 19f8 FA       		.byte	0xfa
 6825 19f9 521A0000 		.4byte	0x1a52
 6826 19fd 1F       		.uleb128 0x1f
 6827 19fe 63120000 		.4byte	.LASF355
 6828 1a02 13       		.byte	0x13
 6829 1a03 0101     		.2byte	0x101
 6830 1a05 CD0B0000 		.4byte	0xbcd
 6831 1a09 1F       		.uleb128 0x1f
 6832 1a0a F5080000 		.4byte	.LASF356
 6833 1a0e 13       		.byte	0x13
 6834 1a0f 0801     		.2byte	0x108
 6835 1a11 CD0B0000 		.4byte	0xbcd
 6836 1a15 1F       		.uleb128 0x1f
 6837 1a16 D1200000 		.4byte	.LASF357
 6838 1a1a 13       		.byte	0x13
 6839 1a1b 0F01     		.2byte	0x10f
 6840 1a1d A2010000 		.4byte	0x1a2
 6841 1a21 1F       		.uleb128 0x1f
 6842 1a22 D71B0000 		.4byte	.LASF358
 6843 1a26 13       		.byte	0x13
 6844 1a27 1601     		.2byte	0x116
 6845 1a29 521A0000 		.4byte	0x1a52
 6846 1a2d 1F       		.uleb128 0x1f
 6847 1a2e FC000000 		.4byte	.LASF359
 6848 1a32 13       		.byte	0x13
 6849 1a33 1E01     		.2byte	0x11e
 6850 1a35 7D1A0000 		.4byte	0x1a7d
 6851 1a39 1F       		.uleb128 0x1f
 6852 1a3a 26210000 		.4byte	.LASF360
 6853 1a3e 13       		.byte	0x13
 6854 1a3f 2701     		.2byte	0x127
 6855 1a41 C01A0000 		.4byte	0x1ac0
 6856 1a45 1F       		.uleb128 0x1f
 6857 1a46 BB240000 		.4byte	.LASF361
 6858 1a4a 13       		.byte	0x13
ARM GAS  /var/folders/qd/4mxf5pkd0zdf0b9dd1hp39180000gn/T//ccn3RVaQ.s 			page 122


 6859 1a4b 2F01     		.2byte	0x12f
 6860 1a4d D80B0000 		.4byte	0xbd8
 6861 1a51 00       		.byte	0
 6862 1a52 08       		.uleb128 0x8
 6863 1a53 04       		.byte	0x4
 6864 1a54 3D0D0000 		.4byte	0xd3d
 6865 1a58 11       		.uleb128 0x11
 6866 1a59 491A0000 		.4byte	.LASF362
 6867 1a5d 0C       		.byte	0xc
 6868 1a5e 1C       		.byte	0x1c
 6869 1a5f 34       		.byte	0x34
 6870 1a60 7D1A0000 		.4byte	0x1a7d
 6871 1a64 04       		.uleb128 0x4
 6872 1a65 52260000 		.4byte	.LASF363
 6873 1a69 1C       		.byte	0x1c
 6874 1a6a 35       		.byte	0x35
 6875 1a6b 720D0000 		.4byte	0xd72
 6876 1a6f 00       		.byte	0
 6877 1a70 04       		.uleb128 0x4
 6878 1a71 A40A0000 		.4byte	.LASF364
 6879 1a75 1C       		.byte	0x1c
 6880 1a76 37       		.byte	0x37
 6881 1a77 EE0B0000 		.4byte	0xbee
 6882 1a7b 08       		.byte	0x8
 6883 1a7c 00       		.byte	0
 6884 1a7d 08       		.uleb128 0x8
 6885 1a7e 04       		.byte	0x4
 6886 1a7f 581A0000 		.4byte	0x1a58
 6887 1a83 11       		.uleb128 0x11
 6888 1a84 6A0C0000 		.4byte	.LASF365
 6889 1a88 14       		.byte	0x14
 6890 1a89 1D       		.byte	0x1d
 6891 1a8a 39       		.byte	0x39
 6892 1a8b C01A0000 		.4byte	0x1ac0
 6893 1a8f 04       		.uleb128 0x4
 6894 1a90 FC150000 		.4byte	.LASF366
 6895 1a94 1D       		.byte	0x1d
 6896 1a95 3A       		.byte	0x3a
 6897 1a96 720D0000 		.4byte	0xd72
 6898 1a9a 00       		.byte	0
 6899 1a9b 04       		.uleb128 0x4
 6900 1a9c F0180000 		.4byte	.LASF367
 6901 1aa0 1D       		.byte	0x1d
 6902 1aa1 3C       		.byte	0x3c
 6903 1aa2 480D0000 		.4byte	0xd48
 6904 1aa6 08       		.byte	0x8
 6905 1aa7 04       		.uleb128 0x4
 6906 1aa8 D4010000 		.4byte	.LASF368
 6907 1aac 1D       		.byte	0x1d
 6908 1aad 3E       		.byte	0x3e
 6909 1aae 2F1C0000 		.4byte	0x1c2f
 6910 1ab2 0C       		.byte	0xc
 6911 1ab3 04       		.uleb128 0x4
 6912 1ab4 8A090000 		.4byte	.LASF369
 6913 1ab8 1D       		.byte	0x1d
 6914 1ab9 41       		.byte	0x41
 6915 1aba EE0B0000 		.4byte	0xbee
ARM GAS  /var/folders/qd/4mxf5pkd0zdf0b9dd1hp39180000gn/T//ccn3RVaQ.s 			page 123


 6916 1abe 10       		.byte	0x10
 6917 1abf 00       		.byte	0
 6918 1ac0 08       		.uleb128 0x8
 6919 1ac1 04       		.byte	0x4
 6920 1ac2 831A0000 		.4byte	0x1a83
 6921 1ac6 08       		.uleb128 0x8
 6922 1ac7 04       		.byte	0x4
 6923 1ac8 45170000 		.4byte	0x1745
 6924 1acc 08       		.uleb128 0x8
 6925 1acd 04       		.byte	0x4
 6926 1ace 250E0000 		.4byte	0xe25
 6927 1ad2 0D       		.uleb128 0xd
 6928 1ad3 45170000 		.4byte	0x1745
 6929 1ad7 E21A0000 		.4byte	0x1ae2
 6930 1adb 0E       		.uleb128 0xe
 6931 1adc 2C000000 		.4byte	0x2c
 6932 1ae0 30       		.byte	0x30
 6933 1ae1 00       		.byte	0
 6934 1ae2 2B       		.uleb128 0x2b
 6935 1ae3 636800   		.ascii	"ch\000"
 6936 1ae6 13       		.byte	0x13
 6937 1ae7 0902     		.2byte	0x209
 6938 1ae9 1A0F0000 		.4byte	0xf1a
 6939 1aed 03       		.uleb128 0x3
 6940 1aee 16       		.byte	0x16
 6941 1aef 1E       		.byte	0x1e
 6942 1af0 34       		.byte	0x34
 6943 1af1 CE1B0000 		.4byte	0x1bce
 6944 1af5 04       		.uleb128 0x4
 6945 1af6 7F260000 		.4byte	.LASF370
 6946 1afa 1E       		.byte	0x1e
 6947 1afb 35       		.byte	0x35
 6948 1afc CE1B0000 		.4byte	0x1bce
 6949 1b00 00       		.byte	0
 6950 1b01 04       		.uleb128 0x4
 6951 1b02 F3280000 		.4byte	.LASF371
 6952 1b06 1E       		.byte	0x1e
 6953 1b07 36       		.byte	0x36
 6954 1b08 2A0B0000 		.4byte	0xb2a
 6955 1b0c 04       		.byte	0x4
 6956 1b0d 04       		.uleb128 0x4
 6957 1b0e 3D030000 		.4byte	.LASF372
 6958 1b12 1E       		.byte	0x1e
 6959 1b13 37       		.byte	0x37
 6960 1b14 2A0B0000 		.4byte	0xb2a
 6961 1b18 05       		.byte	0x5
 6962 1b19 04       		.uleb128 0x4
 6963 1b1a 66190000 		.4byte	.LASF373
 6964 1b1e 1E       		.byte	0x1e
 6965 1b1f 38       		.byte	0x38
 6966 1b20 450B0000 		.4byte	0xb45
 6967 1b24 06       		.byte	0x6
 6968 1b25 04       		.uleb128 0x4
 6969 1b26 27000000 		.4byte	.LASF374
 6970 1b2a 1E       		.byte	0x1e
 6971 1b2b 39       		.byte	0x39
 6972 1b2c 2A0B0000 		.4byte	0xb2a
ARM GAS  /var/folders/qd/4mxf5pkd0zdf0b9dd1hp39180000gn/T//ccn3RVaQ.s 			page 124


 6973 1b30 08       		.byte	0x8
 6974 1b31 04       		.uleb128 0x4
 6975 1b32 27170000 		.4byte	.LASF375
 6976 1b36 1E       		.byte	0x1e
 6977 1b37 3A       		.byte	0x3a
 6978 1b38 2A0B0000 		.4byte	0xb2a
 6979 1b3c 09       		.byte	0x9
 6980 1b3d 04       		.uleb128 0x4
 6981 1b3e 13290000 		.4byte	.LASF376
 6982 1b42 1E       		.byte	0x1e
 6983 1b43 3B       		.byte	0x3b
 6984 1b44 2A0B0000 		.4byte	0xb2a
 6985 1b48 0A       		.byte	0xa
 6986 1b49 04       		.uleb128 0x4
 6987 1b4a C3260000 		.4byte	.LASF377
 6988 1b4e 1E       		.byte	0x1e
 6989 1b4f 3C       		.byte	0x3c
 6990 1b50 2A0B0000 		.4byte	0xb2a
 6991 1b54 0B       		.byte	0xb
 6992 1b55 04       		.uleb128 0x4
 6993 1b56 E8250000 		.4byte	.LASF378
 6994 1b5a 1E       		.byte	0x1e
 6995 1b5b 3D       		.byte	0x3d
 6996 1b5c 2A0B0000 		.4byte	0xb2a
 6997 1b60 0C       		.byte	0xc
 6998 1b61 04       		.uleb128 0x4
 6999 1b62 2F0D0000 		.4byte	.LASF379
 7000 1b66 1E       		.byte	0x1e
 7001 1b67 3E       		.byte	0x3e
 7002 1b68 2A0B0000 		.4byte	0xb2a
 7003 1b6c 0D       		.byte	0xd
 7004 1b6d 04       		.uleb128 0x4
 7005 1b6e 40060000 		.4byte	.LASF380
 7006 1b72 1E       		.byte	0x1e
 7007 1b73 3F       		.byte	0x3f
 7008 1b74 2A0B0000 		.4byte	0xb2a
 7009 1b78 0E       		.byte	0xe
 7010 1b79 04       		.uleb128 0x4
 7011 1b7a 010F0000 		.4byte	.LASF381
 7012 1b7e 1E       		.byte	0x1e
 7013 1b7f 40       		.byte	0x40
 7014 1b80 2A0B0000 		.4byte	0xb2a
 7015 1b84 0F       		.byte	0xf
 7016 1b85 04       		.uleb128 0x4
 7017 1b86 88100000 		.4byte	.LASF382
 7018 1b8a 1E       		.byte	0x1e
 7019 1b8b 41       		.byte	0x41
 7020 1b8c 2A0B0000 		.4byte	0xb2a
 7021 1b90 10       		.byte	0x10
 7022 1b91 04       		.uleb128 0x4
 7023 1b92 DE180000 		.4byte	.LASF383
 7024 1b96 1E       		.byte	0x1e
 7025 1b97 43       		.byte	0x43
 7026 1b98 2A0B0000 		.4byte	0xb2a
 7027 1b9c 11       		.byte	0x11
 7028 1b9d 04       		.uleb128 0x4
 7029 1b9e 0C030000 		.4byte	.LASF384
ARM GAS  /var/folders/qd/4mxf5pkd0zdf0b9dd1hp39180000gn/T//ccn3RVaQ.s 			page 125


 7030 1ba2 1E       		.byte	0x1e
 7031 1ba3 44       		.byte	0x44
 7032 1ba4 2A0B0000 		.4byte	0xb2a
 7033 1ba8 12       		.byte	0x12
 7034 1ba9 04       		.uleb128 0x4
 7035 1baa B0180000 		.4byte	.LASF385
 7036 1bae 1E       		.byte	0x1e
 7037 1baf 45       		.byte	0x45
 7038 1bb0 2A0B0000 		.4byte	0xb2a
 7039 1bb4 13       		.byte	0x13
 7040 1bb5 04       		.uleb128 0x4
 7041 1bb6 01200000 		.4byte	.LASF386
 7042 1bba 1E       		.byte	0x1e
 7043 1bbb 46       		.byte	0x46
 7044 1bbc 2A0B0000 		.4byte	0xb2a
 7045 1bc0 14       		.byte	0x14
 7046 1bc1 04       		.uleb128 0x4
 7047 1bc2 C1000000 		.4byte	.LASF387
 7048 1bc6 1E       		.byte	0x1e
 7049 1bc7 48       		.byte	0x48
 7050 1bc8 2A0B0000 		.4byte	0xb2a
 7051 1bcc 15       		.byte	0x15
 7052 1bcd 00       		.byte	0
 7053 1bce 0D       		.uleb128 0xd
 7054 1bcf AA010000 		.4byte	0x1aa
 7055 1bd3 DE1B0000 		.4byte	0x1bde
 7056 1bd7 0E       		.uleb128 0xe
 7057 1bd8 2C000000 		.4byte	0x2c
 7058 1bdc 03       		.byte	0x3
 7059 1bdd 00       		.byte	0
 7060 1bde 05       		.uleb128 0x5
 7061 1bdf B2160000 		.4byte	.LASF388
 7062 1be3 1E       		.byte	0x1e
 7063 1be4 49       		.byte	0x49
 7064 1be5 ED1A0000 		.4byte	0x1aed
 7065 1be9 10       		.uleb128 0x10
 7066 1bea DE1B0000 		.4byte	0x1bde
 7067 1bee 06       		.uleb128 0x6
 7068 1bef D80B0000 		.4byte	.LASF389
 7069 1bf3 1E       		.byte	0x1e
 7070 1bf4 6E       		.byte	0x6e
 7071 1bf5 E91B0000 		.4byte	0x1be9
 7072 1bf9 05       		.uleb128 0x5
 7073 1bfa 64270000 		.4byte	.LASF390
 7074 1bfe 1C       		.byte	0x1c
 7075 1bff 38       		.byte	0x38
 7076 1c00 581A0000 		.4byte	0x1a58
 7077 1c04 03       		.uleb128 0x3
 7078 1c05 0C       		.byte	0xc
 7079 1c06 05       		.byte	0x5
 7080 1c07 4B       		.byte	0x4b
 7081 1c08 191C0000 		.4byte	0x1c19
 7082 1c0c 04       		.uleb128 0x4
 7083 1c0d 94290000 		.4byte	.LASF391
 7084 1c11 05       		.byte	0x5
 7085 1c12 4C       		.byte	0x4c
 7086 1c13 F91B0000 		.4byte	0x1bf9
ARM GAS  /var/folders/qd/4mxf5pkd0zdf0b9dd1hp39180000gn/T//ccn3RVaQ.s 			page 126


 7087 1c17 00       		.byte	0
 7088 1c18 00       		.byte	0
 7089 1c19 05       		.uleb128 0x5
 7090 1c1a F3250000 		.4byte	.LASF392
 7091 1c1e 05       		.byte	0x5
 7092 1c1f 4D       		.byte	0x4d
 7093 1c20 041C0000 		.4byte	0x1c04
 7094 1c24 05       		.uleb128 0x5
 7095 1c25 78220000 		.4byte	.LASF393
 7096 1c29 1D       		.byte	0x1d
 7097 1c2a 34       		.byte	0x34
 7098 1c2b 831A0000 		.4byte	0x1a83
 7099 1c2f 08       		.uleb128 0x8
 7100 1c30 04       		.byte	0x4
 7101 1c31 241C0000 		.4byte	0x1c24
 7102 1c35 05       		.uleb128 0x5
 7103 1c36 1D0C0000 		.4byte	.LASF394
 7104 1c3a 1F       		.byte	0x1f
 7105 1c3b 34       		.byte	0x34
 7106 1c3c 401C0000 		.4byte	0x1c40
 7107 1c40 11       		.uleb128 0x11
 7108 1c41 9B290000 		.4byte	.LASF395
 7109 1c45 14       		.byte	0x14
 7110 1c46 1F       		.byte	0x1f
 7111 1c47 39       		.byte	0x39
 7112 1c48 891C0000 		.4byte	0x1c89
 7113 1c4c 04       		.uleb128 0x4
 7114 1c4d 63020000 		.4byte	.LASF396
 7115 1c51 1F       		.byte	0x1f
 7116 1c52 3A       		.byte	0x3a
 7117 1c53 891C0000 		.4byte	0x1c89
 7118 1c57 00       		.byte	0
 7119 1c58 04       		.uleb128 0x4
 7120 1c59 91230000 		.4byte	.LASF397
 7121 1c5d 1F       		.byte	0x1f
 7122 1c5e 3D       		.byte	0x3d
 7123 1c5f 480D0000 		.4byte	0xd48
 7124 1c63 04       		.byte	0x4
 7125 1c64 04       		.uleb128 0x4
 7126 1c65 B1030000 		.4byte	.LASF398
 7127 1c69 1F       		.byte	0x1f
 7128 1c6a 3F       		.byte	0x3f
 7129 1c6b D80B0000 		.4byte	0xbd8
 7130 1c6f 08       		.byte	0x8
 7131 1c70 04       		.uleb128 0x4
 7132 1c71 C2240000 		.4byte	.LASF399
 7133 1c75 1F       		.byte	0x1f
 7134 1c76 41       		.byte	0x41
 7135 1c77 E30B0000 		.4byte	0xbe3
 7136 1c7b 0C       		.byte	0xc
 7137 1c7c 04       		.uleb128 0x4
 7138 1c7d 3A0F0000 		.4byte	.LASF400
 7139 1c81 1F       		.byte	0x1f
 7140 1c82 43       		.byte	0x43
 7141 1c83 E30B0000 		.4byte	0xbe3
 7142 1c87 10       		.byte	0x10
 7143 1c88 00       		.byte	0
ARM GAS  /var/folders/qd/4mxf5pkd0zdf0b9dd1hp39180000gn/T//ccn3RVaQ.s 			page 127


 7144 1c89 08       		.uleb128 0x8
 7145 1c8a 04       		.byte	0x4
 7146 1c8b 351C0000 		.4byte	0x1c35
 7147 1c8f 11       		.uleb128 0x11
 7148 1c90 CB240000 		.4byte	.LASF401
 7149 1c94 04       		.byte	0x4
 7150 1c95 1F       		.byte	0x1f
 7151 1c96 4A       		.byte	0x4a
 7152 1c97 A81C0000 		.4byte	0x1ca8
 7153 1c9b 04       		.uleb128 0x4
 7154 1c9c 43240000 		.4byte	.LASF402
 7155 1ca0 1F       		.byte	0x1f
 7156 1ca1 4B       		.byte	0x4b
 7157 1ca2 891C0000 		.4byte	0x1c89
 7158 1ca6 00       		.byte	0
 7159 1ca7 00       		.byte	0
 7160 1ca8 05       		.uleb128 0x5
 7161 1ca9 51170000 		.4byte	.LASF403
 7162 1cad 1F       		.byte	0x1f
 7163 1cae 4E       		.byte	0x4e
 7164 1caf 8F1C0000 		.4byte	0x1c8f
 7165 1cb3 05       		.uleb128 0x5
 7166 1cb4 7A0F0000 		.4byte	.LASF404
 7167 1cb8 20       		.byte	0x20
 7168 1cb9 3F       		.byte	0x3f
 7169 1cba BE1C0000 		.4byte	0x1cbe
 7170 1cbe 11       		.uleb128 0x11
 7171 1cbf DE120000 		.4byte	.LASF405
 7172 1cc3 24       		.byte	0x24
 7173 1cc4 20       		.byte	0x20
 7174 1cc5 4D       		.byte	0x4d
 7175 1cc6 2B1D0000 		.4byte	0x1d2b
 7176 1cca 04       		.uleb128 0x4
 7177 1ccb B7050000 		.4byte	.LASF406
 7178 1ccf 20       		.byte	0x20
 7179 1cd0 4E       		.byte	0x4e
 7180 1cd1 720D0000 		.4byte	0xd72
 7181 1cd5 00       		.byte	0
 7182 1cd6 04       		.uleb128 0x4
 7183 1cd7 581B0000 		.4byte	.LASF407
 7184 1cdb 20       		.byte	0x20
 7185 1cdc 4F       		.byte	0x4f
 7186 1cdd 7F000000 		.4byte	0x7f
 7187 1ce1 08       		.byte	0x8
 7188 1ce2 04       		.uleb128 0x4
 7189 1ce3 CD130000 		.4byte	.LASF408
 7190 1ce7 20       		.byte	0x20
 7191 1ce8 50       		.byte	0x50
 7192 1ce9 4D1D0000 		.4byte	0x1d4d
 7193 1ced 0C       		.byte	0xc
 7194 1cee 04       		.uleb128 0x4
 7195 1cef E9040000 		.4byte	.LASF409
 7196 1cf3 20       		.byte	0x20
 7197 1cf4 51       		.byte	0x51
 7198 1cf5 4D1D0000 		.4byte	0x1d4d
 7199 1cf9 10       		.byte	0x10
 7200 1cfa 04       		.uleb128 0x4
ARM GAS  /var/folders/qd/4mxf5pkd0zdf0b9dd1hp39180000gn/T//ccn3RVaQ.s 			page 128


 7201 1cfb 501D0000 		.4byte	.LASF410
 7202 1cff 20       		.byte	0x20
 7203 1d00 53       		.byte	0x53
 7204 1d01 4D1D0000 		.4byte	0x1d4d
 7205 1d05 14       		.byte	0x14
 7206 1d06 04       		.uleb128 0x4
 7207 1d07 DD1B0000 		.4byte	.LASF411
 7208 1d0b 20       		.byte	0x20
 7209 1d0c 54       		.byte	0x54
 7210 1d0d 4D1D0000 		.4byte	0x1d4d
 7211 1d11 18       		.byte	0x18
 7212 1d12 04       		.uleb128 0x4
 7213 1d13 1D210000 		.4byte	.LASF412
 7214 1d17 20       		.byte	0x20
 7215 1d18 55       		.byte	0x55
 7216 1d19 2B1D0000 		.4byte	0x1d2b
 7217 1d1d 1C       		.byte	0x1c
 7218 1d1e 04       		.uleb128 0x4
 7219 1d1f 5E1E0000 		.4byte	.LASF413
 7220 1d23 20       		.byte	0x20
 7221 1d24 56       		.byte	0x56
 7222 1d25 A2010000 		.4byte	0x1a2
 7223 1d29 20       		.byte	0x20
 7224 1d2a 00       		.byte	0
 7225 1d2b 05       		.uleb128 0x5
 7226 1d2c 9A040000 		.4byte	.LASF414
 7227 1d30 20       		.byte	0x20
 7228 1d31 42       		.byte	0x42
 7229 1d32 361D0000 		.4byte	0x1d36
 7230 1d36 08       		.uleb128 0x8
 7231 1d37 04       		.byte	0x4
 7232 1d38 3C1D0000 		.4byte	0x1d3c
 7233 1d3c 20       		.uleb128 0x20
 7234 1d3d 471D0000 		.4byte	0x1d47
 7235 1d41 17       		.uleb128 0x17
 7236 1d42 471D0000 		.4byte	0x1d47
 7237 1d46 00       		.byte	0
 7238 1d47 08       		.uleb128 0x8
 7239 1d48 04       		.byte	0x4
 7240 1d49 B31C0000 		.4byte	0x1cb3
 7241 1d4d 08       		.uleb128 0x8
 7242 1d4e 04       		.byte	0x4
 7243 1d4f 2A0B0000 		.4byte	0xb2a
 7244 1d53 05       		.uleb128 0x5
 7245 1d54 FD050000 		.4byte	.LASF415
 7246 1d58 20       		.byte	0x20
 7247 1d59 64       		.byte	0x64
 7248 1d5a B31C0000 		.4byte	0x1cb3
 7249 1d5e 05       		.uleb128 0x5
 7250 1d5f E8290000 		.4byte	.LASF416
 7251 1d63 20       		.byte	0x20
 7252 1d64 71       		.byte	0x71
 7253 1d65 B31C0000 		.4byte	0x1cb3
 7254 1d69 16       		.uleb128 0x16
 7255 1d6a 7F000000 		.4byte	0x7f
 7256 1d6e 821D0000 		.4byte	0x1d82
 7257 1d72 17       		.uleb128 0x17
ARM GAS  /var/folders/qd/4mxf5pkd0zdf0b9dd1hp39180000gn/T//ccn3RVaQ.s 			page 129


 7258 1d73 A2010000 		.4byte	0x1a2
 7259 1d77 17       		.uleb128 0x17
 7260 1d78 821D0000 		.4byte	0x1d82
 7261 1d7c 17       		.uleb128 0x17
 7262 1d7d 7F000000 		.4byte	0x7f
 7263 1d81 00       		.byte	0
 7264 1d82 08       		.uleb128 0x8
 7265 1d83 04       		.byte	0x4
 7266 1d84 350B0000 		.4byte	0xb35
 7267 1d88 08       		.uleb128 0x8
 7268 1d89 04       		.byte	0x4
 7269 1d8a 691D0000 		.4byte	0x1d69
 7270 1d8e 16       		.uleb128 0x16
 7271 1d8f 7F000000 		.4byte	0x7f
 7272 1d93 A71D0000 		.4byte	0x1da7
 7273 1d97 17       		.uleb128 0x17
 7274 1d98 A2010000 		.4byte	0x1a2
 7275 1d9c 17       		.uleb128 0x17
 7276 1d9d 4D1D0000 		.4byte	0x1d4d
 7277 1da1 17       		.uleb128 0x17
 7278 1da2 7F000000 		.4byte	0x7f
 7279 1da6 00       		.byte	0
 7280 1da7 08       		.uleb128 0x8
 7281 1da8 04       		.byte	0x4
 7282 1da9 8E1D0000 		.4byte	0x1d8e
 7283 1dad 16       		.uleb128 0x16
 7284 1dae CD0B0000 		.4byte	0xbcd
 7285 1db2 C11D0000 		.4byte	0x1dc1
 7286 1db6 17       		.uleb128 0x17
 7287 1db7 A2010000 		.4byte	0x1a2
 7288 1dbb 17       		.uleb128 0x17
 7289 1dbc 2A0B0000 		.4byte	0xb2a
 7290 1dc0 00       		.byte	0
 7291 1dc1 08       		.uleb128 0x8
 7292 1dc2 04       		.byte	0x4
 7293 1dc3 AD1D0000 		.4byte	0x1dad
 7294 1dc7 16       		.uleb128 0x16
 7295 1dc8 CD0B0000 		.4byte	0xbcd
 7296 1dcc D61D0000 		.4byte	0x1dd6
 7297 1dd0 17       		.uleb128 0x17
 7298 1dd1 A2010000 		.4byte	0x1a2
 7299 1dd5 00       		.byte	0
 7300 1dd6 08       		.uleb128 0x8
 7301 1dd7 04       		.byte	0x4
 7302 1dd8 C71D0000 		.4byte	0x1dc7
 7303 1ddc 06       		.uleb128 0x6
 7304 1ddd 6E1E0000 		.4byte	.LASF417
 7305 1de1 21       		.byte	0x21
 7306 1de2 1A       		.byte	0x1a
 7307 1de3 5B000000 		.4byte	0x5b
 7308 1de7 03       		.uleb128 0x3
 7309 1de8 0C       		.byte	0xc
 7310 1de9 22       		.byte	0x22
 7311 1dea DA       		.byte	0xda
 7312 1deb 2C1E0000 		.4byte	0x1e2c
 7313 1def 04       		.uleb128 0x4
 7314 1df0 6A290000 		.4byte	.LASF418
ARM GAS  /var/folders/qd/4mxf5pkd0zdf0b9dd1hp39180000gn/T//ccn3RVaQ.s 			page 130


 7315 1df4 22       		.byte	0x22
 7316 1df5 DB       		.byte	0xdb
 7317 1df6 2C1E0000 		.4byte	0x1e2c
 7318 1dfa 00       		.byte	0
 7319 1dfb 04       		.uleb128 0x4
 7320 1dfc 46120000 		.4byte	.LASF419
 7321 1e00 22       		.byte	0x22
 7322 1e01 DC       		.byte	0xdc
 7323 1e02 321E0000 		.4byte	0x1e32
 7324 1e06 04       		.byte	0x4
 7325 1e07 04       		.uleb128 0x4
 7326 1e08 D6040000 		.4byte	.LASF420
 7327 1e0c 22       		.byte	0x22
 7328 1e0d DD       		.byte	0xdd
 7329 1e0e 2A0B0000 		.4byte	0xb2a
 7330 1e12 08       		.byte	0x8
 7331 1e13 04       		.uleb128 0x4
 7332 1e14 6E220000 		.4byte	.LASF421
 7333 1e18 22       		.byte	0x22
 7334 1e19 DF       		.byte	0xdf
 7335 1e1a 2A0B0000 		.4byte	0xb2a
 7336 1e1e 09       		.byte	0x9
 7337 1e1f 04       		.uleb128 0x4
 7338 1e20 E9030000 		.4byte	.LASF422
 7339 1e24 22       		.byte	0x22
 7340 1e25 E0       		.byte	0xe0
 7341 1e26 2A0B0000 		.4byte	0xb2a
 7342 1e2a 0A       		.byte	0xa
 7343 1e2b 00       		.byte	0
 7344 1e2c 08       		.uleb128 0x8
 7345 1e2d 04       		.byte	0x4
 7346 1e2e 36140000 		.4byte	0x1436
 7347 1e32 08       		.uleb128 0x8
 7348 1e33 04       		.byte	0x4
 7349 1e34 6B0B0000 		.4byte	0xb6b
 7350 1e38 05       		.uleb128 0x5
 7351 1e39 42150000 		.4byte	.LASF423
 7352 1e3d 22       		.byte	0x22
 7353 1e3e E1       		.byte	0xe1
 7354 1e3f E71D0000 		.4byte	0x1de7
 7355 1e43 10       		.uleb128 0x10
 7356 1e44 381E0000 		.4byte	0x1e38
 7357 1e48 0D       		.uleb128 0xd
 7358 1e49 431E0000 		.4byte	0x1e43
 7359 1e4d 581E0000 		.4byte	0x1e58
 7360 1e51 0E       		.uleb128 0xe
 7361 1e52 2C000000 		.4byte	0x2c
 7362 1e56 0F       		.byte	0xf
 7363 1e57 00       		.byte	0
 7364 1e58 10       		.uleb128 0x10
 7365 1e59 481E0000 		.4byte	0x1e48
 7366 1e5d 21       		.uleb128 0x21
 7367 1e5e 181F0000 		.4byte	.LASF424
 7368 1e62 22       		.byte	0x22
 7369 1e63 BB01     		.2byte	0x1bb
 7370 1e65 581E0000 		.4byte	0x1e58
 7371 1e69 16       		.uleb128 0x16
ARM GAS  /var/folders/qd/4mxf5pkd0zdf0b9dd1hp39180000gn/T//ccn3RVaQ.s 			page 131


 7372 1e6a CD0B0000 		.4byte	0xbcd
 7373 1e6e 821E0000 		.4byte	0x1e82
 7374 1e72 17       		.uleb128 0x17
 7375 1e73 A2010000 		.4byte	0x1a2
 7376 1e77 17       		.uleb128 0x17
 7377 1e78 2A0B0000 		.4byte	0xb2a
 7378 1e7c 17       		.uleb128 0x17
 7379 1e7d 040C0000 		.4byte	0xc04
 7380 1e81 00       		.byte	0
 7381 1e82 08       		.uleb128 0x8
 7382 1e83 04       		.byte	0x4
 7383 1e84 691E0000 		.4byte	0x1e69
 7384 1e88 16       		.uleb128 0x16
 7385 1e89 CD0B0000 		.4byte	0xbcd
 7386 1e8d 9C1E0000 		.4byte	0x1e9c
 7387 1e91 17       		.uleb128 0x17
 7388 1e92 A2010000 		.4byte	0x1a2
 7389 1e96 17       		.uleb128 0x17
 7390 1e97 040C0000 		.4byte	0xc04
 7391 1e9b 00       		.byte	0
 7392 1e9c 08       		.uleb128 0x8
 7393 1e9d 04       		.byte	0x4
 7394 1e9e 881E0000 		.4byte	0x1e88
 7395 1ea2 16       		.uleb128 0x16
 7396 1ea3 7F000000 		.4byte	0x7f
 7397 1ea7 C01E0000 		.4byte	0x1ec0
 7398 1eab 17       		.uleb128 0x17
 7399 1eac A2010000 		.4byte	0x1a2
 7400 1eb0 17       		.uleb128 0x17
 7401 1eb1 821D0000 		.4byte	0x1d82
 7402 1eb5 17       		.uleb128 0x17
 7403 1eb6 7F000000 		.4byte	0x7f
 7404 1eba 17       		.uleb128 0x17
 7405 1ebb 040C0000 		.4byte	0xc04
 7406 1ebf 00       		.byte	0
 7407 1ec0 08       		.uleb128 0x8
 7408 1ec1 04       		.byte	0x4
 7409 1ec2 A21E0000 		.4byte	0x1ea2
 7410 1ec6 16       		.uleb128 0x16
 7411 1ec7 7F000000 		.4byte	0x7f
 7412 1ecb E41E0000 		.4byte	0x1ee4
 7413 1ecf 17       		.uleb128 0x17
 7414 1ed0 A2010000 		.4byte	0x1a2
 7415 1ed4 17       		.uleb128 0x17
 7416 1ed5 4D1D0000 		.4byte	0x1d4d
 7417 1ed9 17       		.uleb128 0x17
 7418 1eda 7F000000 		.4byte	0x7f
 7419 1ede 17       		.uleb128 0x17
 7420 1edf 040C0000 		.4byte	0xc04
 7421 1ee3 00       		.byte	0
 7422 1ee4 08       		.uleb128 0x8
 7423 1ee5 04       		.byte	0x4
 7424 1ee6 C61E0000 		.4byte	0x1ec6
 7425 1eea 26       		.uleb128 0x26
 7426 1eeb 07       		.byte	0x7
 7427 1eec 01       		.byte	0x1
 7428 1eed AA000000 		.4byte	0xaa
ARM GAS  /var/folders/qd/4mxf5pkd0zdf0b9dd1hp39180000gn/T//ccn3RVaQ.s 			page 132


 7429 1ef1 24       		.byte	0x24
 7430 1ef2 28       		.byte	0x28
 7431 1ef3 2E1F0000 		.4byte	0x1f2e
 7432 1ef7 24       		.uleb128 0x24
 7433 1ef8 72010000 		.4byte	.LASF425
 7434 1efc 00       		.byte	0
 7435 1efd 24       		.uleb128 0x24
 7436 1efe 1C100000 		.4byte	.LASF426
 7437 1f02 01       		.byte	0x1
 7438 1f03 24       		.uleb128 0x24
 7439 1f04 080C0000 		.4byte	.LASF427
 7440 1f08 02       		.byte	0x2
 7441 1f09 24       		.uleb128 0x24
 7442 1f0a 6D200000 		.4byte	.LASF428
 7443 1f0e 03       		.byte	0x3
 7444 1f0f 24       		.uleb128 0x24
 7445 1f10 2F280000 		.4byte	.LASF429
 7446 1f14 04       		.byte	0x4
 7447 1f15 24       		.uleb128 0x24
 7448 1f16 88080000 		.4byte	.LASF430
 7449 1f1a 05       		.byte	0x5
 7450 1f1b 24       		.uleb128 0x24
 7451 1f1c 45220000 		.4byte	.LASF431
 7452 1f20 06       		.byte	0x6
 7453 1f21 24       		.uleb128 0x24
 7454 1f22 721C0000 		.4byte	.LASF432
 7455 1f26 07       		.byte	0x7
 7456 1f27 24       		.uleb128 0x24
 7457 1f28 FB270000 		.4byte	.LASF433
 7458 1f2c 08       		.byte	0x8
 7459 1f2d 00       		.byte	0
 7460 1f2e 05       		.uleb128 0x5
 7461 1f2f AF1A0000 		.4byte	.LASF434
 7462 1f33 24       		.byte	0x24
 7463 1f34 32       		.byte	0x32
 7464 1f35 EA1E0000 		.4byte	0x1eea
 7465 1f39 03       		.uleb128 0x3
 7466 1f3a 08       		.byte	0x8
 7467 1f3b 24       		.byte	0x24
 7468 1f3c 37       		.byte	0x37
 7469 1f3d 5A1F0000 		.4byte	0x1f5a
 7470 1f41 04       		.uleb128 0x4
 7471 1f42 E7070000 		.4byte	.LASF435
 7472 1f46 24       		.byte	0x24
 7473 1f47 38       		.byte	0x38
 7474 1f48 600B0000 		.4byte	0xb60
 7475 1f4c 00       		.byte	0
 7476 1f4d 04       		.uleb128 0x4
 7477 1f4e 92210000 		.4byte	.LASF436
 7478 1f52 24       		.byte	0x24
 7479 1f53 39       		.byte	0x39
 7480 1f54 600B0000 		.4byte	0xb60
 7481 1f58 04       		.byte	0x4
 7482 1f59 00       		.byte	0
 7483 1f5a 05       		.uleb128 0x5
 7484 1f5b D6230000 		.4byte	.LASF437
 7485 1f5f 24       		.byte	0x24
ARM GAS  /var/folders/qd/4mxf5pkd0zdf0b9dd1hp39180000gn/T//ccn3RVaQ.s 			page 133


 7486 1f60 3A       		.byte	0x3a
 7487 1f61 391F0000 		.4byte	0x1f39
 7488 1f65 16       		.uleb128 0x16
 7489 1f66 5B000000 		.4byte	0x5b
 7490 1f6a 741F0000 		.4byte	0x1f74
 7491 1f6e 17       		.uleb128 0x17
 7492 1f6f A2010000 		.4byte	0x1a2
 7493 1f73 00       		.byte	0
 7494 1f74 08       		.uleb128 0x8
 7495 1f75 04       		.byte	0x4
 7496 1f76 651F0000 		.4byte	0x1f65
 7497 1f7a 16       		.uleb128 0x16
 7498 1f7b 5B000000 		.4byte	0x5b
 7499 1f7f 981F0000 		.4byte	0x1f98
 7500 1f83 17       		.uleb128 0x17
 7501 1f84 A2010000 		.4byte	0x1a2
 7502 1f88 17       		.uleb128 0x17
 7503 1f89 600B0000 		.4byte	0xb60
 7504 1f8d 17       		.uleb128 0x17
 7505 1f8e 4D1D0000 		.4byte	0x1d4d
 7506 1f92 17       		.uleb128 0x17
 7507 1f93 600B0000 		.4byte	0xb60
 7508 1f97 00       		.byte	0
 7509 1f98 08       		.uleb128 0x8
 7510 1f99 04       		.byte	0x4
 7511 1f9a 7A1F0000 		.4byte	0x1f7a
 7512 1f9e 16       		.uleb128 0x16
 7513 1f9f 5B000000 		.4byte	0x5b
 7514 1fa3 BC1F0000 		.4byte	0x1fbc
 7515 1fa7 17       		.uleb128 0x17
 7516 1fa8 A2010000 		.4byte	0x1a2
 7517 1fac 17       		.uleb128 0x17
 7518 1fad 600B0000 		.4byte	0xb60
 7519 1fb1 17       		.uleb128 0x17
 7520 1fb2 821D0000 		.4byte	0x1d82
 7521 1fb6 17       		.uleb128 0x17
 7522 1fb7 600B0000 		.4byte	0xb60
 7523 1fbb 00       		.byte	0
 7524 1fbc 08       		.uleb128 0x8
 7525 1fbd 04       		.byte	0x4
 7526 1fbe 9E1F0000 		.4byte	0x1f9e
 7527 1fc2 16       		.uleb128 0x16
 7528 1fc3 5B000000 		.4byte	0x5b
 7529 1fc7 D61F0000 		.4byte	0x1fd6
 7530 1fcb 17       		.uleb128 0x17
 7531 1fcc A2010000 		.4byte	0x1a2
 7532 1fd0 17       		.uleb128 0x17
 7533 1fd1 D61F0000 		.4byte	0x1fd6
 7534 1fd5 00       		.byte	0
 7535 1fd6 08       		.uleb128 0x8
 7536 1fd7 04       		.byte	0x4
 7537 1fd8 5A1F0000 		.4byte	0x1f5a
 7538 1fdc 08       		.uleb128 0x8
 7539 1fdd 04       		.byte	0x4
 7540 1fde C21F0000 		.4byte	0x1fc2
 7541 1fe2 0D       		.uleb128 0xd
 7542 1fe3 600B0000 		.4byte	0xb60
ARM GAS  /var/folders/qd/4mxf5pkd0zdf0b9dd1hp39180000gn/T//ccn3RVaQ.s 			page 134


 7543 1fe7 F21F0000 		.4byte	0x1ff2
 7544 1feb 0E       		.uleb128 0xe
 7545 1fec 2C000000 		.4byte	0x2c
 7546 1ff0 03       		.byte	0x3
 7547 1ff1 00       		.byte	0
 7548 1ff2 03       		.uleb128 0x3
 7549 1ff3 04       		.byte	0x4
 7550 1ff4 25       		.byte	0x25
 7551 1ff5 B3       		.byte	0xb3
 7552 1ff6 13200000 		.4byte	0x2013
 7553 1ffa 12       		.uleb128 0x12
 7554 1ffb 73657400 		.ascii	"set\000"
 7555 1fff 25       		.byte	0x25
 7556 2000 B4       		.byte	0xb4
 7557 2001 450B0000 		.4byte	0xb45
 7558 2005 00       		.byte	0
 7559 2006 04       		.uleb128 0x4
 7560 2007 360E0000 		.4byte	.LASF438
 7561 200b 25       		.byte	0x25
 7562 200c B5       		.byte	0xb5
 7563 200d 450B0000 		.4byte	0xb45
 7564 2011 02       		.byte	0x2
 7565 2012 00       		.byte	0
 7566 2013 0B       		.uleb128 0xb
 7567 2014 04       		.byte	0x4
 7568 2015 25       		.byte	0x25
 7569 2016 B1       		.byte	0xb1
 7570 2017 2E200000 		.4byte	0x202e
 7571 201b 2C       		.uleb128 0x2c
 7572 201c 5700     		.ascii	"W\000"
 7573 201e 25       		.byte	0x25
 7574 201f B2       		.byte	0xb2
 7575 2020 600B0000 		.4byte	0xb60
 7576 2024 2C       		.uleb128 0x2c
 7577 2025 4800     		.ascii	"H\000"
 7578 2027 25       		.byte	0x25
 7579 2028 B6       		.byte	0xb6
 7580 2029 F21F0000 		.4byte	0x1ff2
 7581 202d 00       		.byte	0
 7582 202e 1B       		.uleb128 0x1b
 7583 202f 13200000 		.4byte	0x2013
 7584 2033 03       		.uleb128 0x3
 7585 2034 2C       		.byte	0x2c
 7586 2035 25       		.byte	0x25
 7587 2036 A9       		.byte	0xa9
 7588 2037 C0200000 		.4byte	0x20c0
 7589 203b 04       		.uleb128 0x4
 7590 203c AD220000 		.4byte	.LASF439
 7591 2040 25       		.byte	0x25
 7592 2041 AB       		.byte	0xab
 7593 2042 6B0B0000 		.4byte	0xb6b
 7594 2046 00       		.byte	0
 7595 2047 04       		.uleb128 0x4
 7596 2048 72030000 		.4byte	.LASF440
 7597 204c 25       		.byte	0x25
 7598 204d AC       		.byte	0xac
 7599 204e 6B0B0000 		.4byte	0xb6b
ARM GAS  /var/folders/qd/4mxf5pkd0zdf0b9dd1hp39180000gn/T//ccn3RVaQ.s 			page 135


 7600 2052 04       		.byte	0x4
 7601 2053 04       		.uleb128 0x4
 7602 2054 D70F0000 		.4byte	.LASF441
 7603 2058 25       		.byte	0x25
 7604 2059 AD       		.byte	0xad
 7605 205a 6B0B0000 		.4byte	0xb6b
 7606 205e 08       		.byte	0x8
 7607 205f 04       		.uleb128 0x4
 7608 2060 CC210000 		.4byte	.LASF442
 7609 2064 25       		.byte	0x25
 7610 2065 AE       		.byte	0xae
 7611 2066 6B0B0000 		.4byte	0xb6b
 7612 206a 0C       		.byte	0xc
 7613 206b 12       		.uleb128 0x12
 7614 206c 49445200 		.ascii	"IDR\000"
 7615 2070 25       		.byte	0x25
 7616 2071 AF       		.byte	0xaf
 7617 2072 6B0B0000 		.4byte	0xb6b
 7618 2076 10       		.byte	0x10
 7619 2077 12       		.uleb128 0x12
 7620 2078 4F445200 		.ascii	"ODR\000"
 7621 207c 25       		.byte	0x25
 7622 207d B0       		.byte	0xb0
 7623 207e 6B0B0000 		.4byte	0xb6b
 7624 2082 14       		.byte	0x14
 7625 2083 04       		.uleb128 0x4
 7626 2084 18150000 		.4byte	.LASF443
 7627 2088 25       		.byte	0x25
 7628 2089 B7       		.byte	0xb7
 7629 208a 2E200000 		.4byte	0x202e
 7630 208e 18       		.byte	0x18
 7631 208f 04       		.uleb128 0x4
 7632 2090 171C0000 		.4byte	.LASF444
 7633 2094 25       		.byte	0x25
 7634 2095 B8       		.byte	0xb8
 7635 2096 6B0B0000 		.4byte	0xb6b
 7636 209a 1C       		.byte	0x1c
 7637 209b 04       		.uleb128 0x4
 7638 209c F01F0000 		.4byte	.LASF445
 7639 20a0 25       		.byte	0x25
 7640 20a1 B9       		.byte	0xb9
 7641 20a2 6B0B0000 		.4byte	0xb6b
 7642 20a6 20       		.byte	0x20
 7643 20a7 04       		.uleb128 0x4
 7644 20a8 EB1F0000 		.4byte	.LASF446
 7645 20ac 25       		.byte	0x25
 7646 20ad BA       		.byte	0xba
 7647 20ae 6B0B0000 		.4byte	0xb6b
 7648 20b2 24       		.byte	0x24
 7649 20b3 12       		.uleb128 0x12
 7650 20b4 42525200 		.ascii	"BRR\000"
 7651 20b8 25       		.byte	0x25
 7652 20b9 BB       		.byte	0xbb
 7653 20ba 6B0B0000 		.4byte	0xb6b
 7654 20be 28       		.byte	0x28
 7655 20bf 00       		.byte	0
 7656 20c0 05       		.uleb128 0x5
ARM GAS  /var/folders/qd/4mxf5pkd0zdf0b9dd1hp39180000gn/T//ccn3RVaQ.s 			page 136


 7657 20c1 56120000 		.4byte	.LASF447
 7658 20c5 25       		.byte	0x25
 7659 20c6 BC       		.byte	0xbc
 7660 20c7 33200000 		.4byte	0x2033
 7661 20cb 03       		.uleb128 0x3
 7662 20cc 1C       		.byte	0x1c
 7663 20cd 25       		.byte	0x25
 7664 20ce C1       		.byte	0xc1
 7665 20cf 28210000 		.4byte	0x2128
 7666 20d3 04       		.uleb128 0x4
 7667 20d4 42260000 		.4byte	.LASF448
 7668 20d8 25       		.byte	0x25
 7669 20d9 C3       		.byte	0xc3
 7670 20da 600B0000 		.4byte	0xb60
 7671 20de 00       		.byte	0
 7672 20df 04       		.uleb128 0x4
 7673 20e0 4D030000 		.4byte	.LASF449
 7674 20e4 25       		.byte	0x25
 7675 20e5 C5       		.byte	0xc5
 7676 20e6 600B0000 		.4byte	0xb60
 7677 20ea 04       		.byte	0x4
 7678 20eb 04       		.uleb128 0x4
 7679 20ec 4E020000 		.4byte	.LASF450
 7680 20f0 25       		.byte	0x25
 7681 20f1 C7       		.byte	0xc7
 7682 20f2 600B0000 		.4byte	0xb60
 7683 20f6 08       		.byte	0x8
 7684 20f7 04       		.uleb128 0x4
 7685 20f8 45250000 		.4byte	.LASF451
 7686 20fc 25       		.byte	0x25
 7687 20fd C9       		.byte	0xc9
 7688 20fe 600B0000 		.4byte	0xb60
 7689 2102 0C       		.byte	0xc
 7690 2103 12       		.uleb128 0x12
 7691 2104 6F647200 		.ascii	"odr\000"
 7692 2108 25       		.byte	0x25
 7693 2109 CB       		.byte	0xcb
 7694 210a 600B0000 		.4byte	0xb60
 7695 210e 10       		.byte	0x10
 7696 210f 04       		.uleb128 0x4
 7697 2110 51220000 		.4byte	.LASF452
 7698 2114 25       		.byte	0x25
 7699 2115 CD       		.byte	0xcd
 7700 2116 600B0000 		.4byte	0xb60
 7701 211a 14       		.byte	0x14
 7702 211b 04       		.uleb128 0x4
 7703 211c 5E000000 		.4byte	.LASF453
 7704 2120 25       		.byte	0x25
 7705 2121 CF       		.byte	0xcf
 7706 2122 600B0000 		.4byte	0xb60
 7707 2126 18       		.byte	0x18
 7708 2127 00       		.byte	0
 7709 2128 05       		.uleb128 0x5
 7710 2129 D91E0000 		.4byte	.LASF454
 7711 212d 25       		.byte	0x25
 7712 212e D0       		.byte	0xd0
 7713 212f CB200000 		.4byte	0x20cb
ARM GAS  /var/folders/qd/4mxf5pkd0zdf0b9dd1hp39180000gn/T//ccn3RVaQ.s 			page 137


 7714 2133 03       		.uleb128 0x3
 7715 2134 FC       		.byte	0xfc
 7716 2135 25       		.byte	0x25
 7717 2136 D9       		.byte	0xd9
 7718 2137 A8210000 		.4byte	0x21a8
 7719 213b 04       		.uleb128 0x4
 7720 213c F4120000 		.4byte	.LASF455
 7721 2140 25       		.byte	0x25
 7722 2141 DC       		.byte	0xdc
 7723 2142 28210000 		.4byte	0x2128
 7724 2146 00       		.byte	0
 7725 2147 04       		.uleb128 0x4
 7726 2148 36030000 		.4byte	.LASF456
 7727 214c 25       		.byte	0x25
 7728 214d E0       		.byte	0xe0
 7729 214e 28210000 		.4byte	0x2128
 7730 2152 1C       		.byte	0x1c
 7731 2153 04       		.uleb128 0x4
 7732 2154 DB010000 		.4byte	.LASF457
 7733 2158 25       		.byte	0x25
 7734 2159 E4       		.byte	0xe4
 7735 215a 28210000 		.4byte	0x2128
 7736 215e 38       		.byte	0x38
 7737 215f 04       		.uleb128 0x4
 7738 2160 560F0000 		.4byte	.LASF458
 7739 2164 25       		.byte	0x25
 7740 2165 E8       		.byte	0xe8
 7741 2166 28210000 		.4byte	0x2128
 7742 216a 54       		.byte	0x54
 7743 216b 04       		.uleb128 0x4
 7744 216c CC1D0000 		.4byte	.LASF459
 7745 2170 25       		.byte	0x25
 7746 2171 EC       		.byte	0xec
 7747 2172 28210000 		.4byte	0x2128
 7748 2176 70       		.byte	0x70
 7749 2177 04       		.uleb128 0x4
 7750 2178 4E2A0000 		.4byte	.LASF460
 7751 217c 25       		.byte	0x25
 7752 217d F0       		.byte	0xf0
 7753 217e 28210000 		.4byte	0x2128
 7754 2182 8C       		.byte	0x8c
 7755 2183 04       		.uleb128 0x4
 7756 2184 FB0C0000 		.4byte	.LASF461
 7757 2188 25       		.byte	0x25
 7758 2189 F4       		.byte	0xf4
 7759 218a 28210000 		.4byte	0x2128
 7760 218e A8       		.byte	0xa8
 7761 218f 04       		.uleb128 0x4
 7762 2190 851B0000 		.4byte	.LASF462
 7763 2194 25       		.byte	0x25
 7764 2195 F8       		.byte	0xf8
 7765 2196 28210000 		.4byte	0x2128
 7766 219a C4       		.byte	0xc4
 7767 219b 04       		.uleb128 0x4
 7768 219c 07280000 		.4byte	.LASF463
 7769 21a0 25       		.byte	0x25
 7770 21a1 FC       		.byte	0xfc
ARM GAS  /var/folders/qd/4mxf5pkd0zdf0b9dd1hp39180000gn/T//ccn3RVaQ.s 			page 138


 7771 21a2 28210000 		.4byte	0x2128
 7772 21a6 E0       		.byte	0xe0
 7773 21a7 00       		.byte	0
 7774 21a8 05       		.uleb128 0x5
 7775 21a9 EB0B0000 		.4byte	.LASF464
 7776 21ad 25       		.byte	0x25
 7777 21ae FE       		.byte	0xfe
 7778 21af 33210000 		.4byte	0x2133
 7779 21b3 10       		.uleb128 0x10
 7780 21b4 A8210000 		.4byte	0x21a8
 7781 21b8 0A       		.uleb128 0xa
 7782 21b9 8C1B0000 		.4byte	.LASF465
 7783 21bd 25       		.byte	0x25
 7784 21be 1B01     		.2byte	0x11b
 7785 21c0 C4210000 		.4byte	0x21c4
 7786 21c4 08       		.uleb128 0x8
 7787 21c5 04       		.byte	0x4
 7788 21c6 C0200000 		.4byte	0x20c0
 7789 21ca 21       		.uleb128 0x21
 7790 21cb 71230000 		.4byte	.LASF466
 7791 21cf 25       		.byte	0x25
 7792 21d0 DA01     		.2byte	0x1da
 7793 21d2 B3210000 		.4byte	0x21b3
 7794 21d6 26       		.uleb128 0x26
 7795 21d7 07       		.byte	0x7
 7796 21d8 01       		.byte	0x1
 7797 21d9 AA000000 		.4byte	0xaa
 7798 21dd 26       		.byte	0x26
 7799 21de 46       		.byte	0x46
 7800 21df 08220000 		.4byte	0x2208
 7801 21e3 24       		.uleb128 0x24
 7802 21e4 56090000 		.4byte	.LASF467
 7803 21e8 00       		.byte	0
 7804 21e9 24       		.uleb128 0x24
 7805 21ea 24180000 		.4byte	.LASF468
 7806 21ee 01       		.byte	0x1
 7807 21ef 24       		.uleb128 0x24
 7808 21f0 DE250000 		.4byte	.LASF469
 7809 21f4 02       		.byte	0x2
 7810 21f5 24       		.uleb128 0x24
 7811 21f6 FE140000 		.4byte	.LASF470
 7812 21fa 03       		.byte	0x3
 7813 21fb 24       		.uleb128 0x24
 7814 21fc E6060000 		.4byte	.LASF471
 7815 2200 04       		.byte	0x4
 7816 2201 24       		.uleb128 0x24
 7817 2202 C1140000 		.4byte	.LASF472
 7818 2206 05       		.byte	0x5
 7819 2207 00       		.byte	0
 7820 2208 05       		.uleb128 0x5
 7821 2209 A4040000 		.4byte	.LASF473
 7822 220d 26       		.byte	0x26
 7823 220e 4D       		.byte	0x4d
 7824 220f D6210000 		.4byte	0x21d6
 7825 2213 0A       		.uleb128 0xa
 7826 2214 B3130000 		.4byte	.LASF474
 7827 2218 27       		.byte	0x27
ARM GAS  /var/folders/qd/4mxf5pkd0zdf0b9dd1hp39180000gn/T//ccn3RVaQ.s 			page 139


 7828 2219 2701     		.2byte	0x127
 7829 221b 450B0000 		.4byte	0xb45
 7830 221f 0A       		.uleb128 0xa
 7831 2220 91200000 		.4byte	.LASF475
 7832 2224 27       		.byte	0x27
 7833 2225 2C01     		.2byte	0x12c
 7834 2227 450B0000 		.4byte	0xb45
 7835 222b 2D       		.uleb128 0x2d
 7836 222c 07       		.byte	0x7
 7837 222d 01       		.byte	0x1
 7838 222e AA000000 		.4byte	0xaa
 7839 2232 27       		.byte	0x27
 7840 2233 3301     		.2byte	0x133
 7841 2235 46220000 		.4byte	0x2246
 7842 2239 24       		.uleb128 0x24
 7843 223a A30F0000 		.4byte	.LASF476
 7844 223e 00       		.byte	0
 7845 223f 24       		.uleb128 0x24
 7846 2240 6B020000 		.4byte	.LASF477
 7847 2244 01       		.byte	0x1
 7848 2245 00       		.byte	0
 7849 2246 0A       		.uleb128 0xa
 7850 2247 28270000 		.4byte	.LASF478
 7851 224b 27       		.byte	0x27
 7852 224c 3601     		.2byte	0x136
 7853 224e 2B220000 		.4byte	0x222b
 7854 2252 0A       		.uleb128 0xa
 7855 2253 57100000 		.4byte	.LASF479
 7856 2257 27       		.byte	0x27
 7857 2258 3B01     		.2byte	0x13b
 7858 225a 5E220000 		.4byte	0x225e
 7859 225e 1C       		.uleb128 0x1c
 7860 225f 57100000 		.4byte	.LASF479
 7861 2263 38       		.byte	0x38
 7862 2264 27       		.byte	0x27
 7863 2265 9F01     		.2byte	0x19f
 7864 2267 EE220000 		.4byte	0x22ee
 7865 226b 19       		.uleb128 0x19
 7866 226c 60190000 		.4byte	.LASF480
 7867 2270 27       		.byte	0x27
 7868 2271 A301     		.2byte	0x1a3
 7869 2273 08220000 		.4byte	0x2208
 7870 2277 00       		.byte	0
 7871 2278 19       		.uleb128 0x19
 7872 2279 35200000 		.4byte	.LASF481
 7873 227d 27       		.byte	0x27
 7874 227e A701     		.2byte	0x1a7
 7875 2280 15240000 		.4byte	0x2415
 7876 2284 04       		.byte	0x4
 7877 2285 19       		.uleb128 0x19
 7878 2286 01020000 		.4byte	.LASF482
 7879 228a 27       		.byte	0x27
 7880 228b AB01     		.2byte	0x1ab
 7881 228d 1B230000 		.4byte	0x231b
 7882 2291 08       		.byte	0x8
 7883 2292 19       		.uleb128 0x19
 7884 2293 111A0000 		.4byte	.LASF483
ARM GAS  /var/folders/qd/4mxf5pkd0zdf0b9dd1hp39180000gn/T//ccn3RVaQ.s 			page 140


 7885 2297 27       		.byte	0x27
 7886 2298 AF01     		.2byte	0x1af
 7887 229a 7F000000 		.4byte	0x7f
 7888 229e 0C       		.byte	0xc
 7889 229f 19       		.uleb128 0x19
 7890 22a0 84230000 		.4byte	.LASF484
 7891 22a4 27       		.byte	0x27
 7892 22a5 B301     		.2byte	0x1b3
 7893 22a7 1B240000 		.4byte	0x241b
 7894 22ab 10       		.byte	0x10
 7895 22ac 19       		.uleb128 0x19
 7896 22ad BE070000 		.4byte	.LASF485
 7897 22b1 27       		.byte	0x27
 7898 22b2 B801     		.2byte	0x1b8
 7899 22b4 3D0D0000 		.4byte	0xd3d
 7900 22b8 14       		.byte	0x14
 7901 22b9 19       		.uleb128 0x19
 7902 22ba E10D0000 		.4byte	.LASF486
 7903 22be 27       		.byte	0x27
 7904 22bf BE01     		.2byte	0x1be
 7905 22c1 241C0000 		.4byte	0x1c24
 7906 22c5 18       		.byte	0x18
 7907 22c6 27       		.uleb128 0x27
 7908 22c7 61646300 		.ascii	"adc\000"
 7909 22cb 27       		.byte	0x27
 7910 22cc C701     		.2byte	0x1c7
 7911 22ce 21240000 		.4byte	0x2421
 7912 22d2 2C       		.byte	0x2c
 7913 22d3 19       		.uleb128 0x19
 7914 22d4 950B0000 		.4byte	.LASF487
 7915 22d8 27       		.byte	0x27
 7916 22d9 CB01     		.2byte	0x1cb
 7917 22db 27240000 		.4byte	0x2427
 7918 22df 30       		.byte	0x30
 7919 22e0 19       		.uleb128 0x19
 7920 22e1 AE1B0000 		.4byte	.LASF488
 7921 22e5 27       		.byte	0x27
 7922 22e6 CF01     		.2byte	0x1cf
 7923 22e8 600B0000 		.4byte	0xb60
 7924 22ec 34       		.byte	0x34
 7925 22ed 00       		.byte	0
 7926 22ee 0A       		.uleb128 0xa
 7927 22ef 901F0000 		.4byte	.LASF489
 7928 22f3 27       		.byte	0x27
 7929 22f4 4501     		.2byte	0x145
 7930 22f6 FA220000 		.4byte	0x22fa
 7931 22fa 08       		.uleb128 0x8
 7932 22fb 04       		.byte	0x4
 7933 22fc 00230000 		.4byte	0x2300
 7934 2300 20       		.uleb128 0x20
 7935 2301 15230000 		.4byte	0x2315
 7936 2305 17       		.uleb128 0x17
 7937 2306 15230000 		.4byte	0x2315
 7938 230a 17       		.uleb128 0x17
 7939 230b 1B230000 		.4byte	0x231b
 7940 230f 17       		.uleb128 0x17
 7941 2310 7F000000 		.4byte	0x7f
ARM GAS  /var/folders/qd/4mxf5pkd0zdf0b9dd1hp39180000gn/T//ccn3RVaQ.s 			page 141


 7942 2314 00       		.byte	0
 7943 2315 08       		.uleb128 0x8
 7944 2316 04       		.byte	0x4
 7945 2317 52220000 		.4byte	0x2252
 7946 231b 08       		.uleb128 0x8
 7947 231c 04       		.byte	0x4
 7948 231d 13220000 		.4byte	0x2213
 7949 2321 0A       		.uleb128 0xa
 7950 2322 1D190000 		.4byte	.LASF490
 7951 2326 27       		.byte	0x27
 7952 2327 4E01     		.2byte	0x14e
 7953 2329 2D230000 		.4byte	0x232d
 7954 232d 08       		.uleb128 0x8
 7955 232e 04       		.byte	0x4
 7956 232f 33230000 		.4byte	0x2333
 7957 2333 20       		.uleb128 0x20
 7958 2334 43230000 		.4byte	0x2343
 7959 2338 17       		.uleb128 0x17
 7960 2339 15230000 		.4byte	0x2315
 7961 233d 17       		.uleb128 0x17
 7962 233e 46220000 		.4byte	0x2246
 7963 2342 00       		.byte	0
 7964 2343 1D       		.uleb128 0x1d
 7965 2344 28       		.byte	0x28
 7966 2345 27       		.byte	0x27
 7967 2346 5801     		.2byte	0x158
 7968 2348 DC230000 		.4byte	0x23dc
 7969 234c 19       		.uleb128 0x19
 7970 234d 2E260000 		.4byte	.LASF491
 7971 2351 27       		.byte	0x27
 7972 2352 5C01     		.2byte	0x15c
 7973 2354 5B000000 		.4byte	0x5b
 7974 2358 00       		.byte	0
 7975 2359 19       		.uleb128 0x19
 7976 235a A8120000 		.4byte	.LASF492
 7977 235e 27       		.byte	0x27
 7978 235f 6001     		.2byte	0x160
 7979 2361 1F220000 		.4byte	0x221f
 7980 2365 02       		.byte	0x2
 7981 2366 19       		.uleb128 0x19
 7982 2367 550A0000 		.4byte	.LASF493
 7983 236b 27       		.byte	0x27
 7984 236c 6401     		.2byte	0x164
 7985 236e EE220000 		.4byte	0x22ee
 7986 2372 04       		.byte	0x4
 7987 2373 19       		.uleb128 0x19
 7988 2374 26280000 		.4byte	.LASF494
 7989 2378 27       		.byte	0x27
 7990 2379 6801     		.2byte	0x168
 7991 237b 21230000 		.4byte	0x2321
 7992 237f 08       		.byte	0x8
 7993 2380 27       		.uleb128 0x27
 7994 2381 63723100 		.ascii	"cr1\000"
 7995 2385 27       		.byte	0x27
 7996 2386 6F01     		.2byte	0x16f
 7997 2388 600B0000 		.4byte	0xb60
 7998 238c 0C       		.byte	0xc
ARM GAS  /var/folders/qd/4mxf5pkd0zdf0b9dd1hp39180000gn/T//ccn3RVaQ.s 			page 142


 7999 238d 27       		.uleb128 0x27
 8000 238e 63723200 		.ascii	"cr2\000"
 8001 2392 27       		.byte	0x27
 8002 2393 7601     		.2byte	0x176
 8003 2395 600B0000 		.4byte	0xb60
 8004 2399 10       		.byte	0x10
 8005 239a 19       		.uleb128 0x19
 8006 239b 931A0000 		.4byte	.LASF495
 8007 239f 27       		.byte	0x27
 8008 23a0 7C01     		.2byte	0x17c
 8009 23a2 600B0000 		.4byte	0xb60
 8010 23a6 14       		.byte	0x14
 8011 23a7 19       		.uleb128 0x19
 8012 23a8 991A0000 		.4byte	.LASF496
 8013 23ac 27       		.byte	0x27
 8014 23ad 8201     		.2byte	0x182
 8015 23af 600B0000 		.4byte	0xb60
 8016 23b3 18       		.byte	0x18
 8017 23b4 19       		.uleb128 0x19
 8018 23b5 62010000 		.4byte	.LASF497
 8019 23b9 27       		.byte	0x27
 8020 23ba 8701     		.2byte	0x187
 8021 23bc 600B0000 		.4byte	0xb60
 8022 23c0 1C       		.byte	0x1c
 8023 23c1 19       		.uleb128 0x19
 8024 23c2 4B290000 		.4byte	.LASF498
 8025 23c6 27       		.byte	0x27
 8026 23c7 8C01     		.2byte	0x18c
 8027 23c9 600B0000 		.4byte	0xb60
 8028 23cd 20       		.byte	0x20
 8029 23ce 19       		.uleb128 0x19
 8030 23cf 50290000 		.4byte	.LASF499
 8031 23d3 27       		.byte	0x27
 8032 23d4 9101     		.2byte	0x191
 8033 23d6 600B0000 		.4byte	0xb60
 8034 23da 24       		.byte	0x24
 8035 23db 00       		.byte	0
 8036 23dc 0A       		.uleb128 0xa
 8037 23dd 0B060000 		.4byte	.LASF500
 8038 23e1 27       		.byte	0x27
 8039 23e2 9201     		.2byte	0x192
 8040 23e4 43230000 		.4byte	0x2343
 8041 23e8 10       		.uleb128 0x10
 8042 23e9 DC230000 		.4byte	0x23dc
 8043 23ed 1D       		.uleb128 0x1d
 8044 23ee 04       		.byte	0x4
 8045 23ef 27       		.byte	0x27
 8046 23f0 9801     		.2byte	0x198
 8047 23f2 04240000 		.4byte	0x2404
 8048 23f6 19       		.uleb128 0x19
 8049 23f7 71290000 		.4byte	.LASF501
 8050 23fb 27       		.byte	0x27
 8051 23fc 9901     		.2byte	0x199
 8052 23fe 600B0000 		.4byte	0xb60
 8053 2402 00       		.byte	0
 8054 2403 00       		.byte	0
 8055 2404 0A       		.uleb128 0xa
ARM GAS  /var/folders/qd/4mxf5pkd0zdf0b9dd1hp39180000gn/T//ccn3RVaQ.s 			page 143


 8056 2405 6F100000 		.4byte	.LASF502
 8057 2409 27       		.byte	0x27
 8058 240a 9A01     		.2byte	0x19a
 8059 240c ED230000 		.4byte	0x23ed
 8060 2410 10       		.uleb128 0x10
 8061 2411 04240000 		.4byte	0x2404
 8062 2415 08       		.uleb128 0x8
 8063 2416 04       		.byte	0x4
 8064 2417 10240000 		.4byte	0x2410
 8065 241b 08       		.uleb128 0x8
 8066 241c 04       		.byte	0x4
 8067 241d E8230000 		.4byte	0x23e8
 8068 2421 08       		.uleb128 0x8
 8069 2422 04       		.byte	0x4
 8070 2423 C0100000 		.4byte	0x10c0
 8071 2427 08       		.uleb128 0x8
 8072 2428 04       		.byte	0x4
 8073 2429 431E0000 		.4byte	0x1e43
 8074 242d 21       		.uleb128 0x21
 8075 242e 971B0000 		.4byte	.LASF503
 8076 2432 27       		.byte	0x27
 8077 2433 1402     		.2byte	0x214
 8078 2435 52220000 		.4byte	0x2252
 8079 2439 21       		.uleb128 0x21
 8080 243a 9D1B0000 		.4byte	.LASF504
 8081 243e 27       		.byte	0x27
 8082 243f 1802     		.2byte	0x218
 8083 2441 52220000 		.4byte	0x2252
 8084 2445 21       		.uleb128 0x21
 8085 2446 A31B0000 		.4byte	.LASF505
 8086 244a 27       		.byte	0x27
 8087 244b 1C02     		.2byte	0x21c
 8088 244d 52220000 		.4byte	0x2252
 8089 2451 26       		.uleb128 0x26
 8090 2452 07       		.byte	0x7
 8091 2453 01       		.byte	0x1
 8092 2454 AA000000 		.4byte	0xaa
 8093 2458 28       		.byte	0x28
 8094 2459 5F       		.byte	0x5f
 8095 245a 7D240000 		.4byte	0x247d
 8096 245e 24       		.uleb128 0x24
 8097 245f DF0E0000 		.4byte	.LASF506
 8098 2463 00       		.byte	0
 8099 2464 24       		.uleb128 0x24
 8100 2465 B1000000 		.4byte	.LASF507
 8101 2469 01       		.byte	0x1
 8102 246a 24       		.uleb128 0x24
 8103 246b 38000000 		.4byte	.LASF508
 8104 246f 02       		.byte	0x2
 8105 2470 24       		.uleb128 0x24
 8106 2471 FD1C0000 		.4byte	.LASF509
 8107 2475 03       		.byte	0x3
 8108 2476 24       		.uleb128 0x24
 8109 2477 0D0B0000 		.4byte	.LASF510
 8110 247b 04       		.byte	0x4
 8111 247c 00       		.byte	0
 8112 247d 05       		.uleb128 0x5
ARM GAS  /var/folders/qd/4mxf5pkd0zdf0b9dd1hp39180000gn/T//ccn3RVaQ.s 			page 144


 8113 247e 65060000 		.4byte	.LASF511
 8114 2482 28       		.byte	0x28
 8115 2483 65       		.byte	0x65
 8116 2484 51240000 		.4byte	0x2451
 8117 2488 0D       		.uleb128 0xd
 8118 2489 2A0B0000 		.4byte	0xb2a
 8119 248d 98240000 		.4byte	0x2498
 8120 2491 0E       		.uleb128 0xe
 8121 2492 2C000000 		.4byte	0x2c
 8122 2496 07       		.byte	0x7
 8123 2497 00       		.byte	0
 8124 2498 03       		.uleb128 0x3
 8125 2499 08       		.byte	0x8
 8126 249a 29       		.byte	0x29
 8127 249b F4       		.byte	0xf4
 8128 249c BA240000 		.4byte	0x24ba
 8129 24a0 12       		.uleb128 0x12
 8130 24a1 6D637200 		.ascii	"mcr\000"
 8131 24a5 29       		.byte	0x29
 8132 24a6 FA       		.byte	0xfa
 8133 24a7 600B0000 		.4byte	0xb60
 8134 24ab 00       		.byte	0
 8135 24ac 27       		.uleb128 0x27
 8136 24ad 62747200 		.ascii	"btr\000"
 8137 24b1 29       		.byte	0x29
 8138 24b2 0001     		.2byte	0x100
 8139 24b4 600B0000 		.4byte	0xb60
 8140 24b8 04       		.byte	0x4
 8141 24b9 00       		.byte	0
 8142 24ba 0A       		.uleb128 0xa
 8143 24bb C21D0000 		.4byte	.LASF512
 8144 24bf 29       		.byte	0x29
 8145 24c0 0101     		.2byte	0x101
 8146 24c2 98240000 		.4byte	0x2498
 8147 24c6 10       		.uleb128 0x10
 8148 24c7 BA240000 		.4byte	0x24ba
 8149 24cb 1D       		.uleb128 0x1d
 8150 24cc 30       		.byte	0x30
 8151 24cd 29       		.byte	0x29
 8152 24ce 0601     		.2byte	0x106
 8153 24d0 57250000 		.4byte	0x2557
 8154 24d4 19       		.uleb128 0x19
 8155 24d5 60190000 		.4byte	.LASF480
 8156 24d9 29       		.byte	0x29
 8157 24da 0A01     		.2byte	0x10a
 8158 24dc 7D240000 		.4byte	0x247d
 8159 24e0 00       		.byte	0
 8160 24e1 19       		.uleb128 0x19
 8161 24e2 35200000 		.4byte	.LASF481
 8162 24e6 29       		.byte	0x29
 8163 24e7 0E01     		.2byte	0x10e
 8164 24e9 57250000 		.4byte	0x2557
 8165 24ed 04       		.byte	0x4
 8166 24ee 19       		.uleb128 0x19
 8167 24ef 9C0A0000 		.4byte	.LASF513
 8168 24f3 29       		.byte	0x29
 8169 24f4 1201     		.2byte	0x112
ARM GAS  /var/folders/qd/4mxf5pkd0zdf0b9dd1hp39180000gn/T//ccn3RVaQ.s 			page 145


 8170 24f6 720D0000 		.4byte	0xd72
 8171 24fa 08       		.byte	0x8
 8172 24fb 19       		.uleb128 0x19
 8173 24fc 58230000 		.4byte	.LASF514
 8174 2500 29       		.byte	0x29
 8175 2501 1601     		.2byte	0x116
 8176 2503 720D0000 		.4byte	0xd72
 8177 2507 10       		.byte	0x10
 8178 2508 19       		.uleb128 0x19
 8179 2509 861D0000 		.4byte	.LASF515
 8180 250d 29       		.byte	0x29
 8181 250e 2301     		.2byte	0x123
 8182 2510 A81C0000 		.4byte	0x1ca8
 8183 2514 18       		.byte	0x18
 8184 2515 19       		.uleb128 0x19
 8185 2516 931D0000 		.4byte	.LASF516
 8186 251a 29       		.byte	0x29
 8187 251b 2A01     		.2byte	0x12a
 8188 251d A81C0000 		.4byte	0x1ca8
 8189 2521 1C       		.byte	0x1c
 8190 2522 19       		.uleb128 0x19
 8191 2523 9C120000 		.4byte	.LASF517
 8192 2527 29       		.byte	0x29
 8193 2528 3001     		.2byte	0x130
 8194 252a A81C0000 		.4byte	0x1ca8
 8195 252e 20       		.byte	0x20
 8196 252f 19       		.uleb128 0x19
 8197 2530 C6030000 		.4byte	.LASF518
 8198 2534 29       		.byte	0x29
 8199 2535 3501     		.2byte	0x135
 8200 2537 A81C0000 		.4byte	0x1ca8
 8201 253b 24       		.byte	0x24
 8202 253c 19       		.uleb128 0x19
 8203 253d 390A0000 		.4byte	.LASF519
 8204 2541 29       		.byte	0x29
 8205 2542 3901     		.2byte	0x139
 8206 2544 A81C0000 		.4byte	0x1ca8
 8207 2548 28       		.byte	0x28
 8208 2549 27       		.uleb128 0x27
 8209 254a 63616E00 		.ascii	"can\000"
 8210 254e 29       		.byte	0x29
 8211 254f 3F01     		.2byte	0x13f
 8212 2551 5D250000 		.4byte	0x255d
 8213 2555 2C       		.byte	0x2c
 8214 2556 00       		.byte	0
 8215 2557 08       		.uleb128 0x8
 8216 2558 04       		.byte	0x4
 8217 2559 C6240000 		.4byte	0x24c6
 8218 255d 08       		.uleb128 0x8
 8219 255e 04       		.byte	0x4
 8220 255f 09130000 		.4byte	0x1309
 8221 2563 0A       		.uleb128 0xa
 8222 2564 33040000 		.4byte	.LASF520
 8223 2568 29       		.byte	0x29
 8224 2569 4001     		.2byte	0x140
 8225 256b CB240000 		.4byte	0x24cb
 8226 256f 21       		.uleb128 0x21
ARM GAS  /var/folders/qd/4mxf5pkd0zdf0b9dd1hp39180000gn/T//ccn3RVaQ.s 			page 146


 8227 2570 F5240000 		.4byte	.LASF521
 8228 2574 29       		.byte	0x29
 8229 2575 4B01     		.2byte	0x14b
 8230 2577 63250000 		.4byte	0x2563
 8231 257b 26       		.uleb128 0x26
 8232 257c 07       		.byte	0x7
 8233 257d 01       		.byte	0x1
 8234 257e AA000000 		.4byte	0xaa
 8235 2582 2A       		.byte	0x2a
 8236 2583 46       		.byte	0x46
 8237 2584 AD250000 		.4byte	0x25ad
 8238 2588 24       		.uleb128 0x24
 8239 2589 86200000 		.4byte	.LASF522
 8240 258d 00       		.byte	0
 8241 258e 24       		.uleb128 0x24
 8242 258f 65260000 		.4byte	.LASF523
 8243 2593 01       		.byte	0x1
 8244 2594 24       		.uleb128 0x24
 8245 2595 DF0F0000 		.4byte	.LASF524
 8246 2599 02       		.byte	0x2
 8247 259a 24       		.uleb128 0x24
 8248 259b 40190000 		.4byte	.LASF525
 8249 259f 03       		.byte	0x3
 8250 25a0 24       		.uleb128 0x24
 8251 25a1 10200000 		.4byte	.LASF526
 8252 25a5 04       		.byte	0x4
 8253 25a6 24       		.uleb128 0x24
 8254 25a7 F8110000 		.4byte	.LASF527
 8255 25ab 05       		.byte	0x5
 8256 25ac 00       		.byte	0
 8257 25ad 05       		.uleb128 0x5
 8258 25ae 3F1D0000 		.4byte	.LASF528
 8259 25b2 2A       		.byte	0x2a
 8260 25b3 4D       		.byte	0x4d
 8261 25b4 7B250000 		.4byte	0x257b
 8262 25b8 03       		.uleb128 0x3
 8263 25b9 1C       		.byte	0x1c
 8264 25ba 2B       		.byte	0x2b
 8265 25bb F9       		.byte	0xf9
 8266 25bc 1B260000 		.4byte	0x261b
 8267 25c0 12       		.uleb128 0x12
 8268 25c1 64616300 		.ascii	"dac\000"
 8269 25c5 2B       		.byte	0x2b
 8270 25c6 FD       		.byte	0xfd
 8271 25c7 1B260000 		.4byte	0x261b
 8272 25cb 00       		.byte	0
 8273 25cc 19       		.uleb128 0x19
 8274 25cd 5F1C0000 		.4byte	.LASF529
 8275 25d1 2B       		.byte	0x2b
 8276 25d2 0101     		.2byte	0x101
 8277 25d4 600B0000 		.4byte	0xb60
 8278 25d8 04       		.byte	0x4
 8279 25d9 19       		.uleb128 0x19
 8280 25da C5070000 		.4byte	.LASF530
 8281 25de 2B       		.byte	0x2b
 8282 25df 0501     		.2byte	0x105
 8283 25e1 600B0000 		.4byte	0xb60
ARM GAS  /var/folders/qd/4mxf5pkd0zdf0b9dd1hp39180000gn/T//ccn3RVaQ.s 			page 147


 8284 25e5 08       		.byte	0x8
 8285 25e6 19       		.uleb128 0x19
 8286 25e7 14020000 		.4byte	.LASF531
 8287 25eb 2B       		.byte	0x2b
 8288 25ec 0901     		.2byte	0x109
 8289 25ee 600B0000 		.4byte	0xb60
 8290 25f2 0C       		.byte	0xc
 8291 25f3 27       		.uleb128 0x27
 8292 25f4 646D6100 		.ascii	"dma\000"
 8293 25f8 2B       		.byte	0x2b
 8294 25f9 0D01     		.2byte	0x10d
 8295 25fb 27240000 		.4byte	0x2427
 8296 25ff 10       		.byte	0x10
 8297 2600 19       		.uleb128 0x19
 8298 2601 AE1B0000 		.4byte	.LASF488
 8299 2605 2B       		.byte	0x2b
 8300 2606 1101     		.2byte	0x111
 8301 2608 600B0000 		.4byte	0xb60
 8302 260c 14       		.byte	0x14
 8303 260d 19       		.uleb128 0x19
 8304 260e 431B0000 		.4byte	.LASF532
 8305 2612 2B       		.byte	0x2b
 8306 2613 1501     		.2byte	0x115
 8307 2615 600B0000 		.4byte	0xb60
 8308 2619 18       		.byte	0x18
 8309 261a 00       		.byte	0
 8310 261b 08       		.uleb128 0x8
 8311 261c 04       		.byte	0x4
 8312 261d D3130000 		.4byte	0x13d3
 8313 2621 0A       		.uleb128 0xa
 8314 2622 79030000 		.4byte	.LASF533
 8315 2626 2B       		.byte	0x2b
 8316 2627 1601     		.2byte	0x116
 8317 2629 B8250000 		.4byte	0x25b8
 8318 262d 10       		.uleb128 0x10
 8319 262e 21260000 		.4byte	0x2621
 8320 2632 0A       		.uleb128 0xa
 8321 2633 F80D0000 		.4byte	.LASF534
 8322 2637 2B       		.byte	0x2b
 8323 2638 1B01     		.2byte	0x11b
 8324 263a 3E260000 		.4byte	0x263e
 8325 263e 1C       		.uleb128 0x1c
 8326 263f F80D0000 		.4byte	.LASF534
 8327 2643 30       		.byte	0x30
 8328 2644 2B       		.byte	0x2b
 8329 2645 7B01     		.2byte	0x17b
 8330 2647 B4260000 		.4byte	0x26b4
 8331 264b 19       		.uleb128 0x19
 8332 264c 60190000 		.4byte	.LASF480
 8333 2650 2B       		.byte	0x2b
 8334 2651 7F01     		.2byte	0x17f
 8335 2653 AD250000 		.4byte	0x25ad
 8336 2657 00       		.byte	0
 8337 2658 19       		.uleb128 0x19
 8338 2659 84230000 		.4byte	.LASF484
 8339 265d 2B       		.byte	0x2b
 8340 265e 8301     		.2byte	0x183
ARM GAS  /var/folders/qd/4mxf5pkd0zdf0b9dd1hp39180000gn/T//ccn3RVaQ.s 			page 148


 8341 2660 F2270000 		.4byte	0x27f2
 8342 2664 04       		.byte	0x4
 8343 2665 19       		.uleb128 0x19
 8344 2666 01020000 		.4byte	.LASF482
 8345 266a 2B       		.byte	0x2b
 8346 266b 8701     		.2byte	0x187
 8347 266d 19270000 		.4byte	0x2719
 8348 2671 08       		.byte	0x8
 8349 2672 19       		.uleb128 0x19
 8350 2673 111A0000 		.4byte	.LASF483
 8351 2677 2B       		.byte	0x2b
 8352 2678 8B01     		.2byte	0x18b
 8353 267a 450B0000 		.4byte	0xb45
 8354 267e 0C       		.byte	0xc
 8355 267f 19       		.uleb128 0x19
 8356 2680 35200000 		.4byte	.LASF481
 8357 2684 2B       		.byte	0x2b
 8358 2685 8F01     		.2byte	0x18f
 8359 2687 F8270000 		.4byte	0x27f8
 8360 268b 10       		.byte	0x10
 8361 268c 19       		.uleb128 0x19
 8362 268d BE070000 		.4byte	.LASF485
 8363 2691 2B       		.byte	0x2b
 8364 2692 9401     		.2byte	0x194
 8365 2694 3D0D0000 		.4byte	0xd3d
 8366 2698 14       		.byte	0x14
 8367 2699 19       		.uleb128 0x19
 8368 269a E10D0000 		.4byte	.LASF486
 8369 269e 2B       		.byte	0x2b
 8370 269f 9A01     		.2byte	0x19a
 8371 26a1 241C0000 		.4byte	0x1c24
 8372 26a5 18       		.byte	0x18
 8373 26a6 19       		.uleb128 0x19
 8374 26a7 1A130000 		.4byte	.LASF535
 8375 26ab 2B       		.byte	0x2b
 8376 26ac A301     		.2byte	0x1a3
 8377 26ae FE270000 		.4byte	0x27fe
 8378 26b2 2C       		.byte	0x2c
 8379 26b3 00       		.byte	0
 8380 26b4 0A       		.uleb128 0xa
 8381 26b5 581D0000 		.4byte	.LASF536
 8382 26b9 2B       		.byte	0x2b
 8383 26ba 2001     		.2byte	0x120
 8384 26bc 450B0000 		.4byte	0xb45
 8385 26c0 10       		.uleb128 0x10
 8386 26c1 B4260000 		.4byte	0x26b4
 8387 26c5 2D       		.uleb128 0x2d
 8388 26c6 07       		.byte	0x7
 8389 26c7 01       		.byte	0x1
 8390 26c8 AA000000 		.4byte	0xaa
 8391 26cc 2B       		.byte	0x2b
 8392 26cd 2701     		.2byte	0x127
 8393 26cf E0260000 		.4byte	0x26e0
 8394 26d3 24       		.uleb128 0x24
 8395 26d4 111E0000 		.4byte	.LASF537
 8396 26d8 00       		.byte	0
 8397 26d9 24       		.uleb128 0x24
ARM GAS  /var/folders/qd/4mxf5pkd0zdf0b9dd1hp39180000gn/T//ccn3RVaQ.s 			page 149


 8398 26da 270A0000 		.4byte	.LASF538
 8399 26de 01       		.byte	0x1
 8400 26df 00       		.byte	0
 8401 26e0 0A       		.uleb128 0xa
 8402 26e1 9D130000 		.4byte	.LASF539
 8403 26e5 2B       		.byte	0x2b
 8404 26e6 2A01     		.2byte	0x12a
 8405 26e8 C5260000 		.4byte	0x26c5
 8406 26ec 0A       		.uleb128 0xa
 8407 26ed 63080000 		.4byte	.LASF540
 8408 26f1 2B       		.byte	0x2b
 8409 26f2 3401     		.2byte	0x134
 8410 26f4 F8260000 		.4byte	0x26f8
 8411 26f8 08       		.uleb128 0x8
 8412 26f9 04       		.byte	0x4
 8413 26fa FE260000 		.4byte	0x26fe
 8414 26fe 20       		.uleb128 0x20
 8415 26ff 13270000 		.4byte	0x2713
 8416 2703 17       		.uleb128 0x17
 8417 2704 13270000 		.4byte	0x2713
 8418 2708 17       		.uleb128 0x17
 8419 2709 19270000 		.4byte	0x2719
 8420 270d 17       		.uleb128 0x17
 8421 270e 7F000000 		.4byte	0x7f
 8422 2712 00       		.byte	0
 8423 2713 08       		.uleb128 0x8
 8424 2714 04       		.byte	0x4
 8425 2715 32260000 		.4byte	0x2632
 8426 2719 08       		.uleb128 0x8
 8427 271a 04       		.byte	0x4
 8428 271b C0260000 		.4byte	0x26c0
 8429 271f 0A       		.uleb128 0xa
 8430 2720 4B250000 		.4byte	.LASF541
 8431 2724 2B       		.byte	0x2b
 8432 2725 3F01     		.2byte	0x13f
 8433 2727 2B270000 		.4byte	0x272b
 8434 272b 08       		.uleb128 0x8
 8435 272c 04       		.byte	0x4
 8436 272d 31270000 		.4byte	0x2731
 8437 2731 20       		.uleb128 0x20
 8438 2732 41270000 		.4byte	0x2741
 8439 2736 17       		.uleb128 0x17
 8440 2737 13270000 		.4byte	0x2713
 8441 273b 17       		.uleb128 0x17
 8442 273c E0260000 		.4byte	0x26e0
 8443 2740 00       		.byte	0
 8444 2741 2D       		.uleb128 0x2d
 8445 2742 07       		.byte	0x7
 8446 2743 01       		.byte	0x1
 8447 2744 AA000000 		.4byte	0xaa
 8448 2748 2B       		.byte	0x2b
 8449 2749 4401     		.2byte	0x144
 8450 274b 62270000 		.4byte	0x2762
 8451 274f 24       		.uleb128 0x24
 8452 2750 E0200000 		.4byte	.LASF542
 8453 2754 00       		.byte	0
 8454 2755 24       		.uleb128 0x24
ARM GAS  /var/folders/qd/4mxf5pkd0zdf0b9dd1hp39180000gn/T//ccn3RVaQ.s 			page 150


 8455 2756 E1150000 		.4byte	.LASF543
 8456 275a 01       		.byte	0x1
 8457 275b 24       		.uleb128 0x24
 8458 275c 241A0000 		.4byte	.LASF544
 8459 2760 02       		.byte	0x2
 8460 2761 00       		.byte	0
 8461 2762 0A       		.uleb128 0xa
 8462 2763 880B0000 		.4byte	.LASF545
 8463 2767 2B       		.byte	0x2b
 8464 2768 4D01     		.2byte	0x14d
 8465 276a 41270000 		.4byte	0x2741
 8466 276e 1D       		.uleb128 0x1d
 8467 276f 10       		.byte	0x10
 8468 2770 2B       		.byte	0x2b
 8469 2771 5201     		.2byte	0x152
 8470 2773 AC270000 		.4byte	0x27ac
 8471 2777 19       		.uleb128 0x19
 8472 2778 A8120000 		.4byte	.LASF492
 8473 277c 2B       		.byte	0x2b
 8474 277d 5601     		.2byte	0x156
 8475 277f 600B0000 		.4byte	0xb60
 8476 2783 00       		.byte	0
 8477 2784 19       		.uleb128 0x19
 8478 2785 550A0000 		.4byte	.LASF493
 8479 2789 2B       		.byte	0x2b
 8480 278a 5A01     		.2byte	0x15a
 8481 278c EC260000 		.4byte	0x26ec
 8482 2790 04       		.byte	0x4
 8483 2791 19       		.uleb128 0x19
 8484 2792 26280000 		.4byte	.LASF494
 8485 2796 2B       		.byte	0x2b
 8486 2797 5E01     		.2byte	0x15e
 8487 2799 1F270000 		.4byte	0x271f
 8488 279d 08       		.byte	0x8
 8489 279e 19       		.uleb128 0x19
 8490 279f 7F170000 		.4byte	.LASF546
 8491 27a3 2B       		.byte	0x2b
 8492 27a4 6601     		.2byte	0x166
 8493 27a6 600B0000 		.4byte	0xb60
 8494 27aa 0C       		.byte	0xc
 8495 27ab 00       		.byte	0
 8496 27ac 0A       		.uleb128 0xa
 8497 27ad 97140000 		.4byte	.LASF547
 8498 27b1 2B       		.byte	0x2b
 8499 27b2 6701     		.2byte	0x167
 8500 27b4 6E270000 		.4byte	0x276e
 8501 27b8 10       		.uleb128 0x10
 8502 27b9 AC270000 		.4byte	0x27ac
 8503 27bd 1D       		.uleb128 0x1d
 8504 27be 04       		.byte	0x4
 8505 27bf 2B       		.byte	0x2b
 8506 27c0 6C01     		.2byte	0x16c
 8507 27c2 E1270000 		.4byte	0x27e1
 8508 27c6 19       		.uleb128 0x19
 8509 27c7 E10B0000 		.4byte	.LASF548
 8510 27cb 2B       		.byte	0x2b
 8511 27cc 7101     		.2byte	0x171
ARM GAS  /var/folders/qd/4mxf5pkd0zdf0b9dd1hp39180000gn/T//ccn3RVaQ.s 			page 151


 8512 27ce B4260000 		.4byte	0x26b4
 8513 27d2 00       		.byte	0
 8514 27d3 19       		.uleb128 0x19
 8515 27d4 39010000 		.4byte	.LASF549
 8516 27d8 2B       		.byte	0x2b
 8517 27d9 7501     		.2byte	0x175
 8518 27db 62270000 		.4byte	0x2762
 8519 27df 02       		.byte	0x2
 8520 27e0 00       		.byte	0
 8521 27e1 0A       		.uleb128 0xa
 8522 27e2 020E0000 		.4byte	.LASF550
 8523 27e6 2B       		.byte	0x2b
 8524 27e7 7601     		.2byte	0x176
 8525 27e9 BD270000 		.4byte	0x27bd
 8526 27ed 10       		.uleb128 0x10
 8527 27ee E1270000 		.4byte	0x27e1
 8528 27f2 08       		.uleb128 0x8
 8529 27f3 04       		.byte	0x4
 8530 27f4 B8270000 		.4byte	0x27b8
 8531 27f8 08       		.uleb128 0x8
 8532 27f9 04       		.byte	0x4
 8533 27fa ED270000 		.4byte	0x27ed
 8534 27fe 08       		.uleb128 0x8
 8535 27ff 04       		.byte	0x4
 8536 2800 2D260000 		.4byte	0x262d
 8537 2804 21       		.uleb128 0x21
 8538 2805 2D040000 		.4byte	.LASF551
 8539 2809 2B       		.byte	0x2b
 8540 280a B301     		.2byte	0x1b3
 8541 280c 32260000 		.4byte	0x2632
 8542 2810 26       		.uleb128 0x26
 8543 2811 07       		.byte	0x7
 8544 2812 01       		.byte	0x1
 8545 2813 AA000000 		.4byte	0xaa
 8546 2817 2C       		.byte	0x2c
 8547 2818 3F       		.byte	0x3f
 8548 2819 30280000 		.4byte	0x2830
 8549 281d 24       		.uleb128 0x24
 8550 281e 020B0000 		.4byte	.LASF552
 8551 2822 00       		.byte	0
 8552 2823 24       		.uleb128 0x24
 8553 2824 552A0000 		.4byte	.LASF553
 8554 2828 01       		.byte	0x1
 8555 2829 24       		.uleb128 0x24
 8556 282a 3C020000 		.4byte	.LASF554
 8557 282e 02       		.byte	0x2
 8558 282f 00       		.byte	0
 8559 2830 05       		.uleb128 0x5
 8560 2831 AF1F0000 		.4byte	.LASF555
 8561 2835 2C       		.byte	0x2c
 8562 2836 43       		.byte	0x43
 8563 2837 10280000 		.4byte	0x2810
 8564 283b 05       		.uleb128 0x5
 8565 283c 90090000 		.4byte	.LASF556
 8566 2840 2C       		.byte	0x2c
 8567 2841 48       		.byte	0x48
 8568 2842 46280000 		.4byte	0x2846
ARM GAS  /var/folders/qd/4mxf5pkd0zdf0b9dd1hp39180000gn/T//ccn3RVaQ.s 			page 152


 8569 2846 11       		.uleb128 0x11
 8570 2847 90090000 		.4byte	.LASF556
 8571 284b 08       		.byte	0x8
 8572 284c 2D       		.byte	0x2d
 8573 284d 71       		.byte	0x71
 8574 284e 6B280000 		.4byte	0x286b
 8575 2852 04       		.uleb128 0x4
 8576 2853 60190000 		.4byte	.LASF480
 8577 2857 2D       		.byte	0x2d
 8578 2858 75       		.byte	0x75
 8579 2859 30280000 		.4byte	0x2830
 8580 285d 00       		.byte	0
 8581 285e 04       		.uleb128 0x4
 8582 285f 35200000 		.4byte	.LASF481
 8583 2863 2D       		.byte	0x2d
 8584 2864 79       		.byte	0x79
 8585 2865 FD280000 		.4byte	0x28fd
 8586 2869 04       		.byte	0x4
 8587 286a 00       		.byte	0
 8588 286b 05       		.uleb128 0x5
 8589 286c 5B280000 		.4byte	.LASF557
 8590 2870 2D       		.byte	0x2d
 8591 2871 47       		.byte	0x47
 8592 2872 600B0000 		.4byte	0xb60
 8593 2876 05       		.uleb128 0x5
 8594 2877 4A230000 		.4byte	.LASF558
 8595 287b 2D       		.byte	0x2d
 8596 287c 4F       		.byte	0x4f
 8597 287d 81280000 		.4byte	0x2881
 8598 2881 08       		.uleb128 0x8
 8599 2882 04       		.byte	0x4
 8600 2883 87280000 		.4byte	0x2887
 8601 2887 20       		.uleb128 0x20
 8602 2888 97280000 		.4byte	0x2897
 8603 288c 17       		.uleb128 0x17
 8604 288d 97280000 		.4byte	0x2897
 8605 2891 17       		.uleb128 0x17
 8606 2892 6B280000 		.4byte	0x286b
 8607 2896 00       		.byte	0
 8608 2897 08       		.uleb128 0x8
 8609 2898 04       		.byte	0x4
 8610 2899 3B280000 		.4byte	0x283b
 8611 289d 03       		.uleb128 0x3
 8612 289e 08       		.byte	0x8
 8613 289f 2D       		.byte	0x2d
 8614 28a0 54       		.byte	0x54
 8615 28a1 BD280000 		.4byte	0x28bd
 8616 28a5 04       		.uleb128 0x4
 8617 28a6 75090000 		.4byte	.LASF559
 8618 28aa 2D       		.byte	0x2d
 8619 28ab 58       		.byte	0x58
 8620 28ac 600B0000 		.4byte	0xb60
 8621 28b0 00       		.byte	0
 8622 28b1 12       		.uleb128 0x12
 8623 28b2 636200   		.ascii	"cb\000"
 8624 28b5 2D       		.byte	0x2d
 8625 28b6 5F       		.byte	0x5f
ARM GAS  /var/folders/qd/4mxf5pkd0zdf0b9dd1hp39180000gn/T//ccn3RVaQ.s 			page 153


 8626 28b7 76280000 		.4byte	0x2876
 8627 28bb 04       		.byte	0x4
 8628 28bc 00       		.byte	0
 8629 28bd 05       		.uleb128 0x5
 8630 28be C60F0000 		.4byte	.LASF560
 8631 28c2 2D       		.byte	0x2d
 8632 28c3 60       		.byte	0x60
 8633 28c4 9D280000 		.4byte	0x289d
 8634 28c8 03       		.uleb128 0x3
 8635 28c9 B8       		.byte	0xb8
 8636 28ca 2D       		.byte	0x2d
 8637 28cb 66       		.byte	0x66
 8638 28cc DD280000 		.4byte	0x28dd
 8639 28d0 04       		.uleb128 0x4
 8640 28d1 6B250000 		.4byte	.LASF561
 8641 28d5 2D       		.byte	0x2d
 8642 28d6 6A       		.byte	0x6a
 8643 28d7 DD280000 		.4byte	0x28dd
 8644 28db 00       		.byte	0
 8645 28dc 00       		.byte	0
 8646 28dd 0D       		.uleb128 0xd
 8647 28de BD280000 		.4byte	0x28bd
 8648 28e2 ED280000 		.4byte	0x28ed
 8649 28e6 0E       		.uleb128 0xe
 8650 28e7 2C000000 		.4byte	0x2c
 8651 28eb 16       		.byte	0x16
 8652 28ec 00       		.byte	0
 8653 28ed 05       		.uleb128 0x5
 8654 28ee 15220000 		.4byte	.LASF562
 8655 28f2 2D       		.byte	0x2d
 8656 28f3 6C       		.byte	0x6c
 8657 28f4 C8280000 		.4byte	0x28c8
 8658 28f8 10       		.uleb128 0x10
 8659 28f9 ED280000 		.4byte	0x28ed
 8660 28fd 08       		.uleb128 0x8
 8661 28fe 04       		.byte	0x4
 8662 28ff F8280000 		.4byte	0x28f8
 8663 2903 06       		.uleb128 0x6
 8664 2904 56060000 		.4byte	.LASF563
 8665 2908 2D       		.byte	0x2d
 8666 2909 86       		.byte	0x86
 8667 290a 3B280000 		.4byte	0x283b
 8668 290e 26       		.uleb128 0x26
 8669 290f 07       		.byte	0x7
 8670 2910 01       		.byte	0x1
 8671 2911 AA000000 		.4byte	0xaa
 8672 2915 2E       		.byte	0x2e
 8673 2916 31       		.byte	0x31
 8674 2917 3A290000 		.4byte	0x293a
 8675 291b 24       		.uleb128 0x24
 8676 291c 381A0000 		.4byte	.LASF564
 8677 2920 00       		.byte	0
 8678 2921 24       		.uleb128 0x24
 8679 2922 B4170000 		.4byte	.LASF565
 8680 2926 01       		.byte	0x1
 8681 2927 24       		.uleb128 0x24
 8682 2928 351D0000 		.4byte	.LASF566
ARM GAS  /var/folders/qd/4mxf5pkd0zdf0b9dd1hp39180000gn/T//ccn3RVaQ.s 			page 154


 8683 292c 02       		.byte	0x2
 8684 292d 24       		.uleb128 0x24
 8685 292e A7080000 		.4byte	.LASF567
 8686 2932 03       		.byte	0x3
 8687 2933 24       		.uleb128 0x24
 8688 2934 DD040000 		.4byte	.LASF568
 8689 2938 04       		.byte	0x4
 8690 2939 00       		.byte	0
 8691 293a 05       		.uleb128 0x5
 8692 293b 59160000 		.4byte	.LASF569
 8693 293f 2E       		.byte	0x2e
 8694 2940 37       		.byte	0x37
 8695 2941 0E290000 		.4byte	0x290e
 8696 2945 05       		.uleb128 0x5
 8697 2946 4E1B0000 		.4byte	.LASF570
 8698 294a 2E       		.byte	0x2e
 8699 294b 3C       		.byte	0x3c
 8700 294c 50290000 		.4byte	0x2950
 8701 2950 1C       		.uleb128 0x1c
 8702 2951 4E1B0000 		.4byte	.LASF570
 8703 2955 10       		.byte	0x10
 8704 2956 2F       		.byte	0x2f
 8705 2957 9701     		.2byte	0x197
 8706 2959 92290000 		.4byte	0x2992
 8707 295d 19       		.uleb128 0x19
 8708 295e 60190000 		.4byte	.LASF480
 8709 2962 2F       		.byte	0x2f
 8710 2963 9B01     		.2byte	0x19b
 8711 2965 3A290000 		.4byte	0x293a
 8712 2969 00       		.byte	0
 8713 296a 19       		.uleb128 0x19
 8714 296b 35200000 		.4byte	.LASF481
 8715 296f 2F       		.byte	0x2f
 8716 2970 9F01     		.2byte	0x19f
 8717 2972 272B0000 		.4byte	0x2b27
 8718 2976 04       		.byte	0x4
 8719 2977 19       		.uleb128 0x19
 8720 2978 300E0000 		.4byte	.LASF571
 8721 297c 2F       		.byte	0x2f
 8722 297d A701     		.2byte	0x1a7
 8723 297f 600B0000 		.4byte	0xb60
 8724 2983 08       		.byte	0x8
 8725 2984 27       		.uleb128 0x27
 8726 2985 74696D00 		.ascii	"tim\000"
 8727 2989 2F       		.byte	0x2f
 8728 298a AB01     		.2byte	0x1ab
 8729 298c 2D2B0000 		.4byte	0x2b2d
 8730 2990 0C       		.byte	0xc
 8731 2991 00       		.byte	0
 8732 2992 05       		.uleb128 0x5
 8733 2993 BF130000 		.4byte	.LASF572
 8734 2997 2E       		.byte	0x2e
 8735 2998 43       		.byte	0x43
 8736 2999 9D290000 		.4byte	0x299d
 8737 299d 08       		.uleb128 0x8
 8738 299e 04       		.byte	0x4
 8739 299f A3290000 		.4byte	0x29a3
ARM GAS  /var/folders/qd/4mxf5pkd0zdf0b9dd1hp39180000gn/T//ccn3RVaQ.s 			page 155


 8740 29a3 20       		.uleb128 0x20
 8741 29a4 AE290000 		.4byte	0x29ae
 8742 29a8 17       		.uleb128 0x17
 8743 29a9 AE290000 		.4byte	0x29ae
 8744 29ad 00       		.byte	0
 8745 29ae 08       		.uleb128 0x8
 8746 29af 04       		.byte	0x4
 8747 29b0 45290000 		.4byte	0x2945
 8748 29b4 1D       		.uleb128 0x1d
 8749 29b5 60       		.byte	0x60
 8750 29b6 30       		.byte	0x30
 8751 29b7 9E01     		.2byte	0x19e
 8752 29b9 C02A0000 		.4byte	0x2ac0
 8753 29bd 27       		.uleb128 0x27
 8754 29be 43523100 		.ascii	"CR1\000"
 8755 29c2 30       		.byte	0x30
 8756 29c3 9F01     		.2byte	0x19f
 8757 29c5 6B0B0000 		.4byte	0xb6b
 8758 29c9 00       		.byte	0
 8759 29ca 27       		.uleb128 0x27
 8760 29cb 43523200 		.ascii	"CR2\000"
 8761 29cf 30       		.byte	0x30
 8762 29d0 A001     		.2byte	0x1a0
 8763 29d2 6B0B0000 		.4byte	0xb6b
 8764 29d6 04       		.byte	0x4
 8765 29d7 19       		.uleb128 0x19
 8766 29d8 95240000 		.4byte	.LASF573
 8767 29dc 30       		.byte	0x30
 8768 29dd A101     		.2byte	0x1a1
 8769 29df 6B0B0000 		.4byte	0xb6b
 8770 29e3 08       		.byte	0x8
 8771 29e4 19       		.uleb128 0x19
 8772 29e5 490B0000 		.4byte	.LASF574
 8773 29e9 30       		.byte	0x30
 8774 29ea A201     		.2byte	0x1a2
 8775 29ec 6B0B0000 		.4byte	0xb6b
 8776 29f0 0C       		.byte	0xc
 8777 29f1 27       		.uleb128 0x27
 8778 29f2 535200   		.ascii	"SR\000"
 8779 29f5 30       		.byte	0x30
 8780 29f6 A301     		.2byte	0x1a3
 8781 29f8 6B0B0000 		.4byte	0xb6b
 8782 29fc 10       		.byte	0x10
 8783 29fd 27       		.uleb128 0x27
 8784 29fe 45475200 		.ascii	"EGR\000"
 8785 2a02 30       		.byte	0x30
 8786 2a03 A401     		.2byte	0x1a4
 8787 2a05 6B0B0000 		.4byte	0xb6b
 8788 2a09 14       		.byte	0x14
 8789 2a0a 19       		.uleb128 0x19
 8790 2a0b 26290000 		.4byte	.LASF575
 8791 2a0f 30       		.byte	0x30
 8792 2a10 A501     		.2byte	0x1a5
 8793 2a12 6B0B0000 		.4byte	0xb6b
 8794 2a16 18       		.byte	0x18
 8795 2a17 19       		.uleb128 0x19
 8796 2a18 2C290000 		.4byte	.LASF576
ARM GAS  /var/folders/qd/4mxf5pkd0zdf0b9dd1hp39180000gn/T//ccn3RVaQ.s 			page 156


 8797 2a1c 30       		.byte	0x30
 8798 2a1d A601     		.2byte	0x1a6
 8799 2a1f 6B0B0000 		.4byte	0xb6b
 8800 2a23 1C       		.byte	0x1c
 8801 2a24 19       		.uleb128 0x19
 8802 2a25 40080000 		.4byte	.LASF577
 8803 2a29 30       		.byte	0x30
 8804 2a2a A701     		.2byte	0x1a7
 8805 2a2c 6B0B0000 		.4byte	0xb6b
 8806 2a30 20       		.byte	0x20
 8807 2a31 27       		.uleb128 0x27
 8808 2a32 434E5400 		.ascii	"CNT\000"
 8809 2a36 30       		.byte	0x30
 8810 2a37 A801     		.2byte	0x1a8
 8811 2a39 6B0B0000 		.4byte	0xb6b
 8812 2a3d 24       		.byte	0x24
 8813 2a3e 27       		.uleb128 0x27
 8814 2a3f 50534300 		.ascii	"PSC\000"
 8815 2a43 30       		.byte	0x30
 8816 2a44 A901     		.2byte	0x1a9
 8817 2a46 6B0B0000 		.4byte	0xb6b
 8818 2a4a 28       		.byte	0x28
 8819 2a4b 27       		.uleb128 0x27
 8820 2a4c 41525200 		.ascii	"ARR\000"
 8821 2a50 30       		.byte	0x30
 8822 2a51 AA01     		.2byte	0x1aa
 8823 2a53 6B0B0000 		.4byte	0xb6b
 8824 2a57 2C       		.byte	0x2c
 8825 2a58 27       		.uleb128 0x27
 8826 2a59 52435200 		.ascii	"RCR\000"
 8827 2a5d 30       		.byte	0x30
 8828 2a5e AB01     		.2byte	0x1ab
 8829 2a60 6B0B0000 		.4byte	0xb6b
 8830 2a64 30       		.byte	0x30
 8831 2a65 27       		.uleb128 0x27
 8832 2a66 43435200 		.ascii	"CCR\000"
 8833 2a6a 30       		.byte	0x30
 8834 2a6b AC01     		.2byte	0x1ac
 8835 2a6d 67140000 		.4byte	0x1467
 8836 2a71 34       		.byte	0x34
 8837 2a72 19       		.uleb128 0x19
 8838 2a73 0F020000 		.4byte	.LASF578
 8839 2a77 30       		.byte	0x30
 8840 2a78 AD01     		.2byte	0x1ad
 8841 2a7a 6B0B0000 		.4byte	0xb6b
 8842 2a7e 44       		.byte	0x44
 8843 2a7f 27       		.uleb128 0x27
 8844 2a80 44435200 		.ascii	"DCR\000"
 8845 2a84 30       		.byte	0x30
 8846 2a85 AE01     		.2byte	0x1ae
 8847 2a87 6B0B0000 		.4byte	0xb6b
 8848 2a8b 48       		.byte	0x48
 8849 2a8c 19       		.uleb128 0x19
 8850 2a8d D1190000 		.4byte	.LASF579
 8851 2a91 30       		.byte	0x30
 8852 2a92 AF01     		.2byte	0x1af
 8853 2a94 6B0B0000 		.4byte	0xb6b
ARM GAS  /var/folders/qd/4mxf5pkd0zdf0b9dd1hp39180000gn/T//ccn3RVaQ.s 			page 157


 8854 2a98 4C       		.byte	0x4c
 8855 2a99 27       		.uleb128 0x27
 8856 2a9a 4F5200   		.ascii	"OR\000"
 8857 2a9d 30       		.byte	0x30
 8858 2a9e B001     		.2byte	0x1b0
 8859 2aa0 6B0B0000 		.4byte	0xb6b
 8860 2aa4 50       		.byte	0x50
 8861 2aa5 19       		.uleb128 0x19
 8862 2aa6 32290000 		.4byte	.LASF580
 8863 2aaa 30       		.byte	0x30
 8864 2aab B101     		.2byte	0x1b1
 8865 2aad 6B0B0000 		.4byte	0xb6b
 8866 2ab1 54       		.byte	0x54
 8867 2ab2 19       		.uleb128 0x19
 8868 2ab3 3C0E0000 		.4byte	.LASF581
 8869 2ab7 30       		.byte	0x30
 8870 2ab8 B201     		.2byte	0x1b2
 8871 2aba 52140000 		.4byte	0x1452
 8872 2abe 58       		.byte	0x58
 8873 2abf 00       		.byte	0
 8874 2ac0 0A       		.uleb128 0xa
 8875 2ac1 AF230000 		.4byte	.LASF582
 8876 2ac5 30       		.byte	0x30
 8877 2ac6 B301     		.2byte	0x1b3
 8878 2ac8 B4290000 		.4byte	0x29b4
 8879 2acc 0A       		.uleb128 0xa
 8880 2acd C4090000 		.4byte	.LASF583
 8881 2ad1 2F       		.byte	0x2f
 8882 2ad2 6D01     		.2byte	0x16d
 8883 2ad4 600B0000 		.4byte	0xb60
 8884 2ad8 1D       		.uleb128 0x1d
 8885 2ad9 10       		.byte	0x10
 8886 2ada 2F       		.byte	0x2f
 8887 2adb 7801     		.2byte	0x178
 8888 2add 162B0000 		.4byte	0x2b16
 8889 2ae1 19       		.uleb128 0x19
 8890 2ae2 A9280000 		.4byte	.LASF584
 8891 2ae6 2F       		.byte	0x2f
 8892 2ae7 7E01     		.2byte	0x17e
 8893 2ae9 CC2A0000 		.4byte	0x2acc
 8894 2aed 00       		.byte	0
 8895 2aee 19       		.uleb128 0x19
 8896 2aef EB190000 		.4byte	.LASF585
 8897 2af3 2F       		.byte	0x2f
 8898 2af4 8501     		.2byte	0x185
 8899 2af6 92290000 		.4byte	0x2992
 8900 2afa 04       		.byte	0x4
 8901 2afb 27       		.uleb128 0x27
 8902 2afc 63723200 		.ascii	"cr2\000"
 8903 2b00 2F       		.byte	0x2f
 8904 2b01 8B01     		.2byte	0x18b
 8905 2b03 600B0000 		.4byte	0xb60
 8906 2b07 08       		.byte	0x8
 8907 2b08 19       		.uleb128 0x19
 8908 2b09 860D0000 		.4byte	.LASF586
 8909 2b0d 2F       		.byte	0x2f
 8910 2b0e 9101     		.2byte	0x191
ARM GAS  /var/folders/qd/4mxf5pkd0zdf0b9dd1hp39180000gn/T//ccn3RVaQ.s 			page 158


 8911 2b10 600B0000 		.4byte	0xb60
 8912 2b14 0C       		.byte	0xc
 8913 2b15 00       		.byte	0
 8914 2b16 0A       		.uleb128 0xa
 8915 2b17 F3060000 		.4byte	.LASF587
 8916 2b1b 2F       		.byte	0x2f
 8917 2b1c 9201     		.2byte	0x192
 8918 2b1e D82A0000 		.4byte	0x2ad8
 8919 2b22 10       		.uleb128 0x10
 8920 2b23 162B0000 		.4byte	0x2b16
 8921 2b27 08       		.uleb128 0x8
 8922 2b28 04       		.byte	0x4
 8923 2b29 222B0000 		.4byte	0x2b22
 8924 2b2d 08       		.uleb128 0x8
 8925 2b2e 04       		.byte	0x4
 8926 2b2f C02A0000 		.4byte	0x2ac0
 8927 2b33 21       		.uleb128 0x21
 8928 2b34 20280000 		.4byte	.LASF588
 8929 2b38 2F       		.byte	0x2f
 8930 2b39 F201     		.2byte	0x1f2
 8931 2b3b 45290000 		.4byte	0x2945
 8932 2b3f 21       		.uleb128 0x21
 8933 2b40 46200000 		.4byte	.LASF589
 8934 2b44 2F       		.byte	0x2f
 8935 2b45 0202     		.2byte	0x202
 8936 2b47 45290000 		.4byte	0x2945
 8937 2b4b 26       		.uleb128 0x26
 8938 2b4c 07       		.byte	0x7
 8939 2b4d 01       		.byte	0x1
 8940 2b4e AA000000 		.4byte	0xaa
 8941 2b52 31       		.byte	0x31
 8942 2b53 4C       		.byte	0x4c
 8943 2b54 7D2B0000 		.4byte	0x2b7d
 8944 2b58 24       		.uleb128 0x24
 8945 2b59 CB060000 		.4byte	.LASF590
 8946 2b5d 00       		.byte	0
 8947 2b5e 24       		.uleb128 0x24
 8948 2b5f 900F0000 		.4byte	.LASF591
 8949 2b63 01       		.byte	0x1
 8950 2b64 24       		.uleb128 0x24
 8951 2b65 F0070000 		.4byte	.LASF592
 8952 2b69 02       		.byte	0x2
 8953 2b6a 24       		.uleb128 0x24
 8954 2b6b 0C050000 		.4byte	.LASF593
 8955 2b6f 03       		.byte	0x3
 8956 2b70 24       		.uleb128 0x24
 8957 2b71 33170000 		.4byte	.LASF594
 8958 2b75 04       		.byte	0x4
 8959 2b76 24       		.uleb128 0x24
 8960 2b77 12160000 		.4byte	.LASF595
 8961 2b7b 05       		.byte	0x5
 8962 2b7c 00       		.byte	0
 8963 2b7d 05       		.uleb128 0x5
 8964 2b7e 57130000 		.4byte	.LASF596
 8965 2b82 31       		.byte	0x31
 8966 2b83 53       		.byte	0x53
 8967 2b84 4B2B0000 		.4byte	0x2b4b
ARM GAS  /var/folders/qd/4mxf5pkd0zdf0b9dd1hp39180000gn/T//ccn3RVaQ.s 			page 159


 8968 2b88 0A       		.uleb128 0xa
 8969 2b89 2B1B0000 		.4byte	.LASF597
 8970 2b8d 32       		.byte	0x32
 8971 2b8e 6A01     		.2byte	0x16a
 8972 2b90 450B0000 		.4byte	0xb45
 8973 2b94 0A       		.uleb128 0xa
 8974 2b95 4F040000 		.4byte	.LASF598
 8975 2b99 32       		.byte	0x32
 8976 2b9a 6F01     		.2byte	0x16f
 8977 2b9c 600B0000 		.4byte	0xb60
 8978 2ba0 2D       		.uleb128 0x2d
 8979 2ba1 07       		.byte	0x7
 8980 2ba2 01       		.byte	0x1
 8981 2ba3 AA000000 		.4byte	0xaa
 8982 2ba7 32       		.byte	0x32
 8983 2ba8 7401     		.2byte	0x174
 8984 2baa C12B0000 		.4byte	0x2bc1
 8985 2bae 24       		.uleb128 0x24
 8986 2baf 1F050000 		.4byte	.LASF599
 8987 2bb3 01       		.byte	0x1
 8988 2bb4 24       		.uleb128 0x24
 8989 2bb5 63000000 		.4byte	.LASF600
 8990 2bb9 02       		.byte	0x2
 8991 2bba 24       		.uleb128 0x24
 8992 2bbb C10A0000 		.4byte	.LASF601
 8993 2bbf 03       		.byte	0x3
 8994 2bc0 00       		.byte	0
 8995 2bc1 0A       		.uleb128 0xa
 8996 2bc2 77290000 		.4byte	.LASF602
 8997 2bc6 32       		.byte	0x32
 8998 2bc7 7801     		.2byte	0x178
 8999 2bc9 A02B0000 		.4byte	0x2ba0
 9000 2bcd 2D       		.uleb128 0x2d
 9001 2bce 07       		.byte	0x7
 9002 2bcf 01       		.byte	0x1
 9003 2bd0 AA000000 		.4byte	0xaa
 9004 2bd4 32       		.byte	0x32
 9005 2bd5 7D01     		.2byte	0x17d
 9006 2bd7 EE2B0000 		.4byte	0x2bee
 9007 2bdb 24       		.uleb128 0x24
 9008 2bdc 2A060000 		.4byte	.LASF603
 9009 2be0 01       		.byte	0x1
 9010 2be1 24       		.uleb128 0x24
 9011 2be2 FB280000 		.4byte	.LASF604
 9012 2be6 02       		.byte	0x2
 9013 2be7 24       		.uleb128 0x24
 9014 2be8 9C0B0000 		.4byte	.LASF605
 9015 2bec 03       		.byte	0x3
 9016 2bed 00       		.byte	0
 9017 2bee 0A       		.uleb128 0xa
 9018 2bef 73070000 		.4byte	.LASF606
 9019 2bf3 32       		.byte	0x32
 9020 2bf4 8101     		.2byte	0x181
 9021 2bf6 CD2B0000 		.4byte	0x2bcd
 9022 2bfa 1D       		.uleb128 0x1d
 9023 2bfb 0C       		.byte	0xc
 9024 2bfc 32       		.byte	0x32
ARM GAS  /var/folders/qd/4mxf5pkd0zdf0b9dd1hp39180000gn/T//ccn3RVaQ.s 			page 160


 9025 2bfd 8601     		.2byte	0x186
 9026 2bff 2B2C0000 		.4byte	0x2c2b
 9027 2c03 19       		.uleb128 0x19
 9028 2c04 E4170000 		.4byte	.LASF607
 9029 2c08 32       		.byte	0x32
 9030 2c09 8801     		.2byte	0x188
 9031 2c0b C12B0000 		.4byte	0x2bc1
 9032 2c0f 00       		.byte	0
 9033 2c10 19       		.uleb128 0x19
 9034 2c11 17040000 		.4byte	.LASF608
 9035 2c15 32       		.byte	0x32
 9036 2c16 8901     		.2byte	0x189
 9037 2c18 600B0000 		.4byte	0xb60
 9038 2c1c 04       		.byte	0x4
 9039 2c1d 19       		.uleb128 0x19
 9040 2c1e 152A0000 		.4byte	.LASF609
 9041 2c22 32       		.byte	0x32
 9042 2c23 8C01     		.2byte	0x18c
 9043 2c25 EE2B0000 		.4byte	0x2bee
 9044 2c29 08       		.byte	0x8
 9045 2c2a 00       		.byte	0
 9046 2c2b 0A       		.uleb128 0xa
 9047 2c2c 1C020000 		.4byte	.LASF610
 9048 2c30 32       		.byte	0x32
 9049 2c31 8E01     		.2byte	0x18e
 9050 2c33 FA2B0000 		.4byte	0x2bfa
 9051 2c37 10       		.uleb128 0x10
 9052 2c38 2B2C0000 		.4byte	0x2c2b
 9053 2c3c 0A       		.uleb128 0xa
 9054 2c3d 02050000 		.4byte	.LASF611
 9055 2c41 32       		.byte	0x32
 9056 2c42 9301     		.2byte	0x193
 9057 2c44 482C0000 		.4byte	0x2c48
 9058 2c48 1C       		.uleb128 0x1c
 9059 2c49 02050000 		.4byte	.LASF611
 9060 2c4d 3C       		.byte	0x3c
 9061 2c4e 32       		.byte	0x32
 9062 2c4f 9801     		.2byte	0x198
 9063 2c51 E52C0000 		.4byte	0x2ce5
 9064 2c55 19       		.uleb128 0x19
 9065 2c56 60190000 		.4byte	.LASF480
 9066 2c5a 32       		.byte	0x32
 9067 2c5b 9C01     		.2byte	0x19c
 9068 2c5d 7D2B0000 		.4byte	0x2b7d
 9069 2c61 00       		.byte	0
 9070 2c62 19       		.uleb128 0x19
 9071 2c63 35200000 		.4byte	.LASF481
 9072 2c67 32       		.byte	0x32
 9073 2c68 A001     		.2byte	0x1a0
 9074 2c6a E52C0000 		.4byte	0x2ce5
 9075 2c6e 04       		.byte	0x4
 9076 2c6f 19       		.uleb128 0x19
 9077 2c70 90010000 		.4byte	.LASF612
 9078 2c74 32       		.byte	0x32
 9079 2c75 A401     		.2byte	0x1a4
 9080 2c77 942B0000 		.4byte	0x2b94
 9081 2c7b 08       		.byte	0x8
ARM GAS  /var/folders/qd/4mxf5pkd0zdf0b9dd1hp39180000gn/T//ccn3RVaQ.s 			page 161


 9082 2c7c 19       		.uleb128 0x19
 9083 2c7d E10D0000 		.4byte	.LASF486
 9084 2c81 32       		.byte	0x32
 9085 2c82 A901     		.2byte	0x1a9
 9086 2c84 241C0000 		.4byte	0x1c24
 9087 2c88 0C       		.byte	0xc
 9088 2c89 19       		.uleb128 0x19
 9089 2c8a BE070000 		.4byte	.LASF485
 9090 2c8e 32       		.byte	0x32
 9091 2c8f B201     		.2byte	0x1b2
 9092 2c91 3D0D0000 		.4byte	0xd3d
 9093 2c95 20       		.byte	0x20
 9094 2c96 19       		.uleb128 0x19
 9095 2c97 990F0000 		.4byte	.LASF613
 9096 2c9b 32       		.byte	0x32
 9097 2c9c B601     		.2byte	0x1b6
 9098 2c9e 882B0000 		.4byte	0x2b88
 9099 2ca2 24       		.byte	0x24
 9100 2ca3 19       		.uleb128 0x19
 9101 2ca4 61090000 		.4byte	.LASF614
 9102 2ca8 32       		.byte	0x32
 9103 2ca9 BA01     		.2byte	0x1ba
 9104 2cab 600B0000 		.4byte	0xb60
 9105 2caf 28       		.byte	0x28
 9106 2cb0 19       		.uleb128 0x19
 9107 2cb1 BA090000 		.4byte	.LASF615
 9108 2cb5 32       		.byte	0x32
 9109 2cb6 BE01     		.2byte	0x1be
 9110 2cb8 600B0000 		.4byte	0xb60
 9111 2cbc 2C       		.byte	0x2c
 9112 2cbd 19       		.uleb128 0x19
 9113 2cbe 42010000 		.4byte	.LASF616
 9114 2cc2 32       		.byte	0x32
 9115 2cc3 C201     		.2byte	0x1c2
 9116 2cc5 27240000 		.4byte	0x2427
 9117 2cc9 30       		.byte	0x30
 9118 2cca 19       		.uleb128 0x19
 9119 2ccb 2F020000 		.4byte	.LASF617
 9120 2ccf 32       		.byte	0x32
 9121 2cd0 C601     		.2byte	0x1c6
 9122 2cd2 27240000 		.4byte	0x2427
 9123 2cd6 34       		.byte	0x34
 9124 2cd7 27       		.uleb128 0x27
 9125 2cd8 69326300 		.ascii	"i2c\000"
 9126 2cdc 32       		.byte	0x32
 9127 2cdd CA01     		.2byte	0x1ca
 9128 2cdf EB2C0000 		.4byte	0x2ceb
 9129 2ce3 38       		.byte	0x38
 9130 2ce4 00       		.byte	0
 9131 2ce5 08       		.uleb128 0x8
 9132 2ce6 04       		.byte	0x4
 9133 2ce7 372C0000 		.4byte	0x2c37
 9134 2ceb 08       		.uleb128 0x8
 9135 2cec 04       		.byte	0x4
 9136 2ced F7140000 		.4byte	0x14f7
 9137 2cf1 21       		.uleb128 0x21
 9138 2cf2 EF130000 		.4byte	.LASF618
ARM GAS  /var/folders/qd/4mxf5pkd0zdf0b9dd1hp39180000gn/T//ccn3RVaQ.s 			page 162


 9139 2cf6 32       		.byte	0x32
 9140 2cf7 E001     		.2byte	0x1e0
 9141 2cf9 3C2C0000 		.4byte	0x2c3c
 9142 2cfd 26       		.uleb128 0x26
 9143 2cfe 07       		.byte	0x7
 9144 2cff 01       		.byte	0x1
 9145 2d00 AA000000 		.4byte	0xaa
 9146 2d04 33       		.byte	0x33
 9147 2d05 39       		.byte	0x39
 9148 2d06 292D0000 		.4byte	0x2d29
 9149 2d0a 24       		.uleb128 0x24
 9150 2d0b 4B120000 		.4byte	.LASF619
 9151 2d0f 00       		.byte	0
 9152 2d10 24       		.uleb128 0x24
 9153 2d11 C20D0000 		.4byte	.LASF620
 9154 2d15 01       		.byte	0x1
 9155 2d16 24       		.uleb128 0x24
 9156 2d17 0E180000 		.4byte	.LASF621
 9157 2d1b 02       		.byte	0x2
 9158 2d1c 24       		.uleb128 0x24
 9159 2d1d 2A1D0000 		.4byte	.LASF622
 9160 2d21 03       		.byte	0x3
 9161 2d22 24       		.uleb128 0x24
 9162 2d23 DA220000 		.4byte	.LASF623
 9163 2d27 04       		.byte	0x4
 9164 2d28 00       		.byte	0
 9165 2d29 05       		.uleb128 0x5
 9166 2d2a 37260000 		.4byte	.LASF624
 9167 2d2e 33       		.byte	0x33
 9168 2d2f 3F       		.byte	0x3f
 9169 2d30 FD2C0000 		.4byte	0x2cfd
 9170 2d34 05       		.uleb128 0x5
 9171 2d35 0B2A0000 		.4byte	.LASF625
 9172 2d39 34       		.byte	0x34
 9173 2d3a E2       		.byte	0xe2
 9174 2d3b 3F2D0000 		.4byte	0x2d3f
 9175 2d3f 1C       		.uleb128 0x1c
 9176 2d40 0B2A0000 		.4byte	.LASF625
 9177 2d44 20       		.byte	0x20
 9178 2d45 34       		.byte	0x34
 9179 2d46 1B01     		.2byte	0x11b
 9180 2d48 B52D0000 		.4byte	0x2db5
 9181 2d4c 19       		.uleb128 0x19
 9182 2d4d 60190000 		.4byte	.LASF480
 9183 2d51 34       		.byte	0x34
 9184 2d52 1F01     		.2byte	0x11f
 9185 2d54 292D0000 		.4byte	0x2d29
 9186 2d58 00       		.byte	0
 9187 2d59 19       		.uleb128 0x19
 9188 2d5a 35200000 		.4byte	.LASF481
 9189 2d5e 34       		.byte	0x34
 9190 2d5f 2301     		.2byte	0x123
 9191 2d61 462E0000 		.4byte	0x2e46
 9192 2d65 04       		.byte	0x4
 9193 2d66 27       		.uleb128 0x27
 9194 2d67 73706900 		.ascii	"spi\000"
 9195 2d6b 34       		.byte	0x34
ARM GAS  /var/folders/qd/4mxf5pkd0zdf0b9dd1hp39180000gn/T//ccn3RVaQ.s 			page 163


 9196 2d6c 2801     		.2byte	0x128
 9197 2d6e 4C2E0000 		.4byte	0x2e4c
 9198 2d72 08       		.byte	0x8
 9199 2d73 27       		.uleb128 0x27
 9200 2d74 63666700 		.ascii	"cfg\000"
 9201 2d78 34       		.byte	0x34
 9202 2d79 2C01     		.2byte	0x12c
 9203 2d7b 450B0000 		.4byte	0xb45
 9204 2d7f 0C       		.byte	0xc
 9205 2d80 19       		.uleb128 0x19
 9206 2d81 42010000 		.4byte	.LASF616
 9207 2d85 34       		.byte	0x34
 9208 2d86 3001     		.2byte	0x130
 9209 2d88 27240000 		.4byte	0x2427
 9210 2d8c 10       		.byte	0x10
 9211 2d8d 19       		.uleb128 0x19
 9212 2d8e 2F020000 		.4byte	.LASF617
 9213 2d92 34       		.byte	0x34
 9214 2d93 3401     		.2byte	0x134
 9215 2d95 27240000 		.4byte	0x2427
 9216 2d99 14       		.byte	0x14
 9217 2d9a 19       		.uleb128 0x19
 9218 2d9b 61090000 		.4byte	.LASF614
 9219 2d9f 34       		.byte	0x34
 9220 2da0 3801     		.2byte	0x138
 9221 2da2 600B0000 		.4byte	0xb60
 9222 2da6 18       		.byte	0x18
 9223 2da7 19       		.uleb128 0x19
 9224 2da8 BA090000 		.4byte	.LASF615
 9225 2dac 34       		.byte	0x34
 9226 2dad 3C01     		.2byte	0x13c
 9227 2daf 600B0000 		.4byte	0xb60
 9228 2db3 1C       		.byte	0x1c
 9229 2db4 00       		.byte	0
 9230 2db5 05       		.uleb128 0x5
 9231 2db6 A6090000 		.4byte	.LASF626
 9232 2dba 34       		.byte	0x34
 9233 2dbb EB       		.byte	0xeb
 9234 2dbc C02D0000 		.4byte	0x2dc0
 9235 2dc0 08       		.uleb128 0x8
 9236 2dc1 04       		.byte	0x4
 9237 2dc2 C62D0000 		.4byte	0x2dc6
 9238 2dc6 20       		.uleb128 0x20
 9239 2dc7 DB2D0000 		.4byte	0x2ddb
 9240 2dcb 17       		.uleb128 0x17
 9241 2dcc DB2D0000 		.4byte	0x2ddb
 9242 2dd0 17       		.uleb128 0x17
 9243 2dd1 7F000000 		.4byte	0x7f
 9244 2dd5 17       		.uleb128 0x17
 9245 2dd6 7F000000 		.4byte	0x7f
 9246 2dda 00       		.byte	0
 9247 2ddb 08       		.uleb128 0x8
 9248 2ddc 04       		.byte	0x4
 9249 2ddd 342D0000 		.4byte	0x2d34
 9250 2de1 03       		.uleb128 0x3
 9251 2de2 14       		.byte	0x14
 9252 2de3 34       		.byte	0x34
ARM GAS  /var/folders/qd/4mxf5pkd0zdf0b9dd1hp39180000gn/T//ccn3RVaQ.s 			page 164


 9253 2de4 F1       		.byte	0xf1
 9254 2de5 352E0000 		.4byte	0x2e35
 9255 2de9 04       		.uleb128 0x4
 9256 2dea B2010000 		.4byte	.LASF627
 9257 2dee 34       		.byte	0x34
 9258 2def F6       		.byte	0xf6
 9259 2df0 040B0000 		.4byte	0xb04
 9260 2df4 00       		.byte	0
 9261 2df5 04       		.uleb128 0x4
 9262 2df6 86010000 		.4byte	.LASF628
 9263 2dfa 34       		.byte	0x34
 9264 2dfb FB       		.byte	0xfb
 9265 2dfc A2010000 		.4byte	0x1a2
 9266 2e00 04       		.byte	0x4
 9267 2e01 04       		.uleb128 0x4
 9268 2e02 E70D0000 		.4byte	.LASF629
 9269 2e06 34       		.byte	0x34
 9270 2e07 FF       		.byte	0xff
 9271 2e08 7F000000 		.4byte	0x7f
 9272 2e0c 08       		.byte	0x8
 9273 2e0d 19       		.uleb128 0x19
 9274 2e0e 550A0000 		.4byte	.LASF493
 9275 2e12 34       		.byte	0x34
 9276 2e13 0301     		.2byte	0x103
 9277 2e15 B52D0000 		.4byte	0x2db5
 9278 2e19 0C       		.byte	0xc
 9279 2e1a 19       		.uleb128 0x19
 9280 2e1b 761D0000 		.4byte	.LASF630
 9281 2e1f 34       		.byte	0x34
 9282 2e20 0F01     		.2byte	0x10f
 9283 2e22 3A0B0000 		.4byte	0xb3a
 9284 2e26 10       		.byte	0x10
 9285 2e27 19       		.uleb128 0x19
 9286 2e28 14070000 		.4byte	.LASF631
 9287 2e2c 34       		.byte	0x34
 9288 2e2d 1501     		.2byte	0x115
 9289 2e2f 3A0B0000 		.4byte	0xb3a
 9290 2e33 12       		.byte	0x12
 9291 2e34 00       		.byte	0
 9292 2e35 0A       		.uleb128 0xa
 9293 2e36 202A0000 		.4byte	.LASF632
 9294 2e3a 34       		.byte	0x34
 9295 2e3b 1601     		.2byte	0x116
 9296 2e3d E12D0000 		.4byte	0x2de1
 9297 2e41 10       		.uleb128 0x10
 9298 2e42 352E0000 		.4byte	0x2e35
 9299 2e46 08       		.uleb128 0x8
 9300 2e47 04       		.byte	0x4
 9301 2e48 412E0000 		.4byte	0x2e41
 9302 2e4c 08       		.uleb128 0x8
 9303 2e4d 04       		.byte	0x4
 9304 2e4e AA160000 		.4byte	0x16aa
 9305 2e52 21       		.uleb128 0x21
 9306 2e53 662A0000 		.4byte	.LASF633
 9307 2e57 34       		.byte	0x34
 9308 2e58 4801     		.2byte	0x148
 9309 2e5a 342D0000 		.4byte	0x2d34
ARM GAS  /var/folders/qd/4mxf5pkd0zdf0b9dd1hp39180000gn/T//ccn3RVaQ.s 			page 165


 9310 2e5e 26       		.uleb128 0x26
 9311 2e5f 07       		.byte	0x7
 9312 2e60 01       		.byte	0x1
 9313 2e61 AA000000 		.4byte	0xaa
 9314 2e65 35       		.byte	0x35
 9315 2e66 4A       		.byte	0x4a
 9316 2e67 7E2E0000 		.4byte	0x2e7e
 9317 2e6b 24       		.uleb128 0x24
 9318 2e6c 4B080000 		.4byte	.LASF634
 9319 2e70 00       		.byte	0
 9320 2e71 24       		.uleb128 0x24
 9321 2e72 D00D0000 		.4byte	.LASF635
 9322 2e76 01       		.byte	0x1
 9323 2e77 24       		.uleb128 0x24
 9324 2e78 72120000 		.4byte	.LASF636
 9325 2e7c 02       		.byte	0x2
 9326 2e7d 00       		.byte	0
 9327 2e7e 05       		.uleb128 0x5
 9328 2e7f BB030000 		.4byte	.LASF637
 9329 2e83 35       		.byte	0x35
 9330 2e84 4E       		.byte	0x4e
 9331 2e85 5E2E0000 		.4byte	0x2e5e
 9332 2e89 05       		.uleb128 0x5
 9333 2e8a F10C0000 		.4byte	.LASF638
 9334 2e8e 35       		.byte	0x35
 9335 2e8f 53       		.byte	0x53
 9336 2e90 942E0000 		.4byte	0x2e94
 9337 2e94 1C       		.uleb128 0x1c
 9338 2e95 F10C0000 		.4byte	.LASF638
 9339 2e99 1C       		.byte	0x1c
 9340 2e9a 36       		.byte	0x36
 9341 2e9b 7901     		.2byte	0x179
 9342 2e9d FD2E0000 		.4byte	0x2efd
 9343 2ea1 19       		.uleb128 0x19
 9344 2ea2 60190000 		.4byte	.LASF480
 9345 2ea6 36       		.byte	0x36
 9346 2ea7 7D01     		.2byte	0x17d
 9347 2ea9 7E2E0000 		.4byte	0x2e7e
 9348 2ead 00       		.byte	0
 9349 2eae 19       		.uleb128 0x19
 9350 2eaf 35200000 		.4byte	.LASF481
 9351 2eb3 36       		.byte	0x36
 9352 2eb4 8101     		.2byte	0x181
 9353 2eb6 F82F0000 		.4byte	0x2ff8
 9354 2eba 04       		.byte	0x4
 9355 2ebb 19       		.uleb128 0x19
 9356 2ebc F5150000 		.4byte	.LASF639
 9357 2ec0 36       		.byte	0x36
 9358 2ec1 8501     		.2byte	0x185
 9359 2ec3 432F0000 		.4byte	0x2f43
 9360 2ec7 08       		.byte	0x8
 9361 2ec8 19       		.uleb128 0x19
 9362 2ec9 091E0000 		.4byte	.LASF640
 9363 2ecd 36       		.byte	0x36
 9364 2ece 8901     		.2byte	0x189
 9365 2ed0 372F0000 		.4byte	0x2f37
 9366 2ed4 0C       		.byte	0xc
ARM GAS  /var/folders/qd/4mxf5pkd0zdf0b9dd1hp39180000gn/T//ccn3RVaQ.s 			page 166


 9367 2ed5 19       		.uleb128 0x19
 9368 2ed6 6B250000 		.4byte	.LASF561
 9369 2eda 36       		.byte	0x36
 9370 2edb 8D01     		.2byte	0x18d
 9371 2edd 2B2F0000 		.4byte	0x2f2b
 9372 2ee1 10       		.byte	0x10
 9373 2ee2 19       		.uleb128 0x19
 9374 2ee3 300E0000 		.4byte	.LASF571
 9375 2ee7 36       		.byte	0x36
 9376 2ee8 9501     		.2byte	0x195
 9377 2eea 600B0000 		.4byte	0xb60
 9378 2eee 14       		.byte	0x14
 9379 2eef 27       		.uleb128 0x27
 9380 2ef0 74696D00 		.ascii	"tim\000"
 9381 2ef4 36       		.byte	0x36
 9382 2ef5 9901     		.2byte	0x199
 9383 2ef7 2D2B0000 		.4byte	0x2b2d
 9384 2efb 18       		.byte	0x18
 9385 2efc 00       		.byte	0
 9386 2efd 05       		.uleb128 0x5
 9387 2efe 0C130000 		.4byte	.LASF641
 9388 2f02 35       		.byte	0x35
 9389 2f03 5A       		.byte	0x5a
 9390 2f04 082F0000 		.4byte	0x2f08
 9391 2f08 08       		.uleb128 0x8
 9392 2f09 04       		.byte	0x4
 9393 2f0a 0E2F0000 		.4byte	0x2f0e
 9394 2f0e 20       		.uleb128 0x20
 9395 2f0f 192F0000 		.4byte	0x2f19
 9396 2f13 17       		.uleb128 0x17
 9397 2f14 192F0000 		.4byte	0x2f19
 9398 2f18 00       		.byte	0
 9399 2f19 08       		.uleb128 0x8
 9400 2f1a 04       		.byte	0x4
 9401 2f1b 892E0000 		.4byte	0x2e89
 9402 2f1f 0A       		.uleb128 0xa
 9403 2f20 4D180000 		.4byte	.LASF642
 9404 2f24 36       		.byte	0x36
 9405 2f25 2501     		.2byte	0x125
 9406 2f27 600B0000 		.4byte	0xb60
 9407 2f2b 0A       		.uleb128 0xa
 9408 2f2c EB1A0000 		.4byte	.LASF643
 9409 2f30 36       		.byte	0x36
 9410 2f31 2A01     		.2byte	0x12a
 9411 2f33 2A0B0000 		.4byte	0xb2a
 9412 2f37 0A       		.uleb128 0xa
 9413 2f38 F8170000 		.4byte	.LASF644
 9414 2f3c 36       		.byte	0x36
 9415 2f3d 2F01     		.2byte	0x12f
 9416 2f3f 600B0000 		.4byte	0xb60
 9417 2f43 0A       		.uleb128 0xa
 9418 2f44 1E0F0000 		.4byte	.LASF645
 9419 2f48 36       		.byte	0x36
 9420 2f49 3401     		.2byte	0x134
 9421 2f4b 600B0000 		.4byte	0xb60
 9422 2f4f 1D       		.uleb128 0x1d
 9423 2f50 08       		.byte	0x8
ARM GAS  /var/folders/qd/4mxf5pkd0zdf0b9dd1hp39180000gn/T//ccn3RVaQ.s 			page 167


 9424 2f51 36       		.byte	0x36
 9425 2f52 3901     		.2byte	0x139
 9426 2f54 732F0000 		.4byte	0x2f73
 9427 2f58 19       		.uleb128 0x19
 9428 2f59 75090000 		.4byte	.LASF559
 9429 2f5d 36       		.byte	0x36
 9430 2f5e 3D01     		.2byte	0x13d
 9431 2f60 1F2F0000 		.4byte	0x2f1f
 9432 2f64 00       		.byte	0
 9433 2f65 19       		.uleb128 0x19
 9434 2f66 EB190000 		.4byte	.LASF585
 9435 2f6a 36       		.byte	0x36
 9436 2f6b 4301     		.2byte	0x143
 9437 2f6d FD2E0000 		.4byte	0x2efd
 9438 2f71 04       		.byte	0x4
 9439 2f72 00       		.byte	0
 9440 2f73 0A       		.uleb128 0xa
 9441 2f74 0D0F0000 		.4byte	.LASF646
 9442 2f78 36       		.byte	0x36
 9443 2f79 4501     		.2byte	0x145
 9444 2f7b 4F2F0000 		.4byte	0x2f4f
 9445 2f7f 1D       		.uleb128 0x1d
 9446 2f80 34       		.byte	0x34
 9447 2f81 36       		.byte	0x36
 9448 2f82 4A01     		.2byte	0x14a
 9449 2f84 D72F0000 		.4byte	0x2fd7
 9450 2f88 19       		.uleb128 0x19
 9451 2f89 A9280000 		.4byte	.LASF584
 9452 2f8d 36       		.byte	0x36
 9453 2f8e 5001     		.2byte	0x150
 9454 2f90 600B0000 		.4byte	0xb60
 9455 2f94 00       		.byte	0
 9456 2f95 19       		.uleb128 0x19
 9457 2f96 F5150000 		.4byte	.LASF639
 9458 2f9a 36       		.byte	0x36
 9459 2f9b 5601     		.2byte	0x156
 9460 2f9d 432F0000 		.4byte	0x2f43
 9461 2fa1 04       		.byte	0x4
 9462 2fa2 19       		.uleb128 0x19
 9463 2fa3 EB190000 		.4byte	.LASF585
 9464 2fa7 36       		.byte	0x36
 9465 2fa8 5C01     		.2byte	0x15c
 9466 2faa FD2E0000 		.4byte	0x2efd
 9467 2fae 08       		.byte	0x8
 9468 2faf 19       		.uleb128 0x19
 9469 2fb0 6B250000 		.4byte	.LASF561
 9470 2fb4 36       		.byte	0x36
 9471 2fb5 6001     		.2byte	0x160
 9472 2fb7 D72F0000 		.4byte	0x2fd7
 9473 2fbb 0C       		.byte	0xc
 9474 2fbc 27       		.uleb128 0x27
 9475 2fbd 63723200 		.ascii	"cr2\000"
 9476 2fc1 36       		.byte	0x36
 9477 2fc2 6601     		.2byte	0x166
 9478 2fc4 600B0000 		.4byte	0xb60
 9479 2fc8 2C       		.byte	0x2c
 9480 2fc9 19       		.uleb128 0x19
ARM GAS  /var/folders/qd/4mxf5pkd0zdf0b9dd1hp39180000gn/T//ccn3RVaQ.s 			page 168


 9481 2fca 860D0000 		.4byte	.LASF586
 9482 2fce 36       		.byte	0x36
 9483 2fcf 7301     		.2byte	0x173
 9484 2fd1 600B0000 		.4byte	0xb60
 9485 2fd5 30       		.byte	0x30
 9486 2fd6 00       		.byte	0
 9487 2fd7 0D       		.uleb128 0xd
 9488 2fd8 732F0000 		.4byte	0x2f73
 9489 2fdc E72F0000 		.4byte	0x2fe7
 9490 2fe0 0E       		.uleb128 0xe
 9491 2fe1 2C000000 		.4byte	0x2c
 9492 2fe5 03       		.byte	0x3
 9493 2fe6 00       		.byte	0
 9494 2fe7 0A       		.uleb128 0xa
 9495 2fe8 020D0000 		.4byte	.LASF647
 9496 2fec 36       		.byte	0x36
 9497 2fed 7401     		.2byte	0x174
 9498 2fef 7F2F0000 		.4byte	0x2f7f
 9499 2ff3 10       		.uleb128 0x10
 9500 2ff4 E72F0000 		.4byte	0x2fe7
 9501 2ff8 08       		.uleb128 0x8
 9502 2ff9 04       		.byte	0x4
 9503 2ffa F32F0000 		.4byte	0x2ff3
 9504 2ffe 21       		.uleb128 0x21
 9505 2fff 20140000 		.4byte	.LASF648
 9506 3003 36       		.byte	0x36
 9507 3004 BC01     		.2byte	0x1bc
 9508 3006 892E0000 		.4byte	0x2e89
 9509 300a 21       		.uleb128 0x21
 9510 300b 26140000 		.4byte	.LASF649
 9511 300f 36       		.byte	0x36
 9512 3010 C001     		.2byte	0x1c0
 9513 3012 892E0000 		.4byte	0x2e89
 9514 3016 21       		.uleb128 0x21
 9515 3017 2C140000 		.4byte	.LASF650
 9516 301b 36       		.byte	0x36
 9517 301c C401     		.2byte	0x1c4
 9518 301e 892E0000 		.4byte	0x2e89
 9519 3022 21       		.uleb128 0x21
 9520 3023 32140000 		.4byte	.LASF651
 9521 3027 36       		.byte	0x36
 9522 3028 C801     		.2byte	0x1c8
 9523 302a 892E0000 		.4byte	0x2e89
 9524 302e 26       		.uleb128 0x26
 9525 302f 07       		.byte	0x7
 9526 3030 01       		.byte	0x1
 9527 3031 AA000000 		.4byte	0xaa
 9528 3035 37       		.byte	0x37
 9529 3036 55       		.byte	0x55
 9530 3037 4E300000 		.4byte	0x304e
 9531 303b 24       		.uleb128 0x24
 9532 303c 85040000 		.4byte	.LASF652
 9533 3040 00       		.byte	0
 9534 3041 24       		.uleb128 0x24
 9535 3042 990E0000 		.4byte	.LASF653
 9536 3046 01       		.byte	0x1
 9537 3047 24       		.uleb128 0x24
ARM GAS  /var/folders/qd/4mxf5pkd0zdf0b9dd1hp39180000gn/T//ccn3RVaQ.s 			page 169


 9538 3048 98100000 		.4byte	.LASF654
 9539 304c 02       		.byte	0x2
 9540 304d 00       		.byte	0
 9541 304e 05       		.uleb128 0x5
 9542 304f 1C1C0000 		.4byte	.LASF655
 9543 3053 37       		.byte	0x37
 9544 3054 59       		.byte	0x59
 9545 3055 2E300000 		.4byte	0x302e
 9546 3059 05       		.uleb128 0x5
 9547 305a AA250000 		.4byte	.LASF656
 9548 305e 37       		.byte	0x37
 9549 305f 5E       		.byte	0x5e
 9550 3060 64300000 		.4byte	0x3064
 9551 3064 11       		.uleb128 0x11
 9552 3065 AA250000 		.4byte	.LASF656
 9553 3069 78       		.byte	0x78
 9554 306a 37       		.byte	0x37
 9555 306b 78       		.byte	0x78
 9556 306c CF300000 		.4byte	0x30cf
 9557 3070 12       		.uleb128 0x12
 9558 3071 766D7400 		.ascii	"vmt\000"
 9559 3075 37       		.byte	0x37
 9560 3076 7A       		.byte	0x7a
 9561 3077 4D310000 		.4byte	0x314d
 9562 307b 00       		.byte	0
 9563 307c 04       		.uleb128 0x4
 9564 307d 32000000 		.4byte	.LASF657
 9565 3081 37       		.byte	0x37
 9566 3082 7B       		.byte	0x7b
 9567 3083 A81C0000 		.4byte	0x1ca8
 9568 3087 04       		.byte	0x4
 9569 3088 04       		.uleb128 0x4
 9570 3089 60190000 		.4byte	.LASF480
 9571 308d 37       		.byte	0x37
 9572 308e 7B       		.byte	0x7b
 9573 308f 4E300000 		.4byte	0x304e
 9574 3093 08       		.byte	0x8
 9575 3094 04       		.uleb128 0x4
 9576 3095 FD1B0000 		.4byte	.LASF658
 9577 3099 37       		.byte	0x37
 9578 309a 7B       		.byte	0x7b
 9579 309b 531D0000 		.4byte	0x1d53
 9580 309f 0C       		.byte	0xc
 9581 30a0 04       		.uleb128 0x4
 9582 30a1 4B140000 		.4byte	.LASF659
 9583 30a5 37       		.byte	0x37
 9584 30a6 7B       		.byte	0x7b
 9585 30a7 5E1D0000 		.4byte	0x1d5e
 9586 30ab 30       		.byte	0x30
 9587 30ac 12       		.uleb128 0x12
 9588 30ad 696200   		.ascii	"ib\000"
 9589 30b0 37       		.byte	0x37
 9590 30b1 7B       		.byte	0x7b
 9591 30b2 53310000 		.4byte	0x3153
 9592 30b6 54       		.byte	0x54
 9593 30b7 12       		.uleb128 0x12
 9594 30b8 6F6200   		.ascii	"ob\000"
ARM GAS  /var/folders/qd/4mxf5pkd0zdf0b9dd1hp39180000gn/T//ccn3RVaQ.s 			page 170


 9595 30bb 37       		.byte	0x37
 9596 30bc 7B       		.byte	0x7b
 9597 30bd 53310000 		.4byte	0x3153
 9598 30c1 64       		.byte	0x64
 9599 30c2 04       		.uleb128 0x4
 9600 30c3 311E0000 		.4byte	.LASF660
 9601 30c7 37       		.byte	0x37
 9602 30c8 7B       		.byte	0x7b
 9603 30c9 63310000 		.4byte	0x3163
 9604 30cd 74       		.byte	0x74
 9605 30ce 00       		.byte	0
 9606 30cf 2B       		.uleb128 0x2b
 9607 30d0 53443300 		.ascii	"SD3\000"
 9608 30d4 38       		.byte	0x38
 9609 30d5 1501     		.2byte	0x115
 9610 30d7 59300000 		.4byte	0x3059
 9611 30db 11       		.uleb128 0x11
 9612 30dc 25100000 		.4byte	.LASF661
 9613 30e0 20       		.byte	0x20
 9614 30e1 37       		.byte	0x37
 9615 30e2 6D       		.byte	0x6d
 9616 30e3 48310000 		.4byte	0x3148
 9617 30e7 04       		.uleb128 0x4
 9618 30e8 EC1B0000 		.4byte	.LASF662
 9619 30ec 37       		.byte	0x37
 9620 30ed 6E       		.byte	0x6e
 9621 30ee 881D0000 		.4byte	0x1d88
 9622 30f2 00       		.byte	0
 9623 30f3 04       		.uleb128 0x4
 9624 30f4 1A050000 		.4byte	.LASF663
 9625 30f8 37       		.byte	0x37
 9626 30f9 6E       		.byte	0x6e
 9627 30fa A71D0000 		.4byte	0x1da7
 9628 30fe 04       		.byte	0x4
 9629 30ff 12       		.uleb128 0x12
 9630 3100 70757400 		.ascii	"put\000"
 9631 3104 37       		.byte	0x37
 9632 3105 6E       		.byte	0x6e
 9633 3106 C11D0000 		.4byte	0x1dc1
 9634 310a 08       		.byte	0x8
 9635 310b 12       		.uleb128 0x12
 9636 310c 67657400 		.ascii	"get\000"
 9637 3110 37       		.byte	0x37
 9638 3111 6E       		.byte	0x6e
 9639 3112 D61D0000 		.4byte	0x1dd6
 9640 3116 0C       		.byte	0xc
 9641 3117 04       		.uleb128 0x4
 9642 3118 0B170000 		.4byte	.LASF664
 9643 311c 37       		.byte	0x37
 9644 311d 6E       		.byte	0x6e
 9645 311e 821E0000 		.4byte	0x1e82
 9646 3122 10       		.byte	0x10
 9647 3123 04       		.uleb128 0x4
 9648 3124 D21B0000 		.4byte	.LASF665
 9649 3128 37       		.byte	0x37
 9650 3129 6E       		.byte	0x6e
 9651 312a 9C1E0000 		.4byte	0x1e9c
ARM GAS  /var/folders/qd/4mxf5pkd0zdf0b9dd1hp39180000gn/T//ccn3RVaQ.s 			page 171


 9652 312e 14       		.byte	0x14
 9653 312f 04       		.uleb128 0x4
 9654 3130 8D260000 		.4byte	.LASF666
 9655 3134 37       		.byte	0x37
 9656 3135 6E       		.byte	0x6e
 9657 3136 C01E0000 		.4byte	0x1ec0
 9658 313a 18       		.byte	0x18
 9659 313b 04       		.uleb128 0x4
 9660 313c 4B160000 		.4byte	.LASF667
 9661 3140 37       		.byte	0x37
 9662 3141 6E       		.byte	0x6e
 9663 3142 E41E0000 		.4byte	0x1ee4
 9664 3146 1C       		.byte	0x1c
 9665 3147 00       		.byte	0
 9666 3148 10       		.uleb128 0x10
 9667 3149 DB300000 		.4byte	0x30db
 9668 314d 08       		.uleb128 0x8
 9669 314e 04       		.byte	0x4
 9670 314f 48310000 		.4byte	0x3148
 9671 3153 0D       		.uleb128 0xd
 9672 3154 2A0B0000 		.4byte	0xb2a
 9673 3158 63310000 		.4byte	0x3163
 9674 315c 0E       		.uleb128 0xe
 9675 315d 2C000000 		.4byte	0x2c
 9676 3161 0F       		.byte	0xf
 9677 3162 00       		.byte	0
 9678 3163 08       		.uleb128 0x8
 9679 3164 04       		.byte	0x4
 9680 3165 19170000 		.4byte	0x1719
 9681 3169 26       		.uleb128 0x26
 9682 316a 07       		.byte	0x7
 9683 316b 01       		.byte	0x1
 9684 316c AA000000 		.4byte	0xaa
 9685 3170 39       		.byte	0x39
 9686 3171 6C       		.byte	0x6c
 9687 3172 89310000 		.4byte	0x3189
 9688 3176 24       		.uleb128 0x24
 9689 3177 85030000 		.4byte	.LASF668
 9690 317b 00       		.byte	0
 9691 317c 24       		.uleb128 0x24
 9692 317d 63180000 		.4byte	.LASF669
 9693 3181 01       		.byte	0x1
 9694 3182 24       		.uleb128 0x24
 9695 3183 89150000 		.4byte	.LASF670
 9696 3187 02       		.byte	0x2
 9697 3188 00       		.byte	0
 9698 3189 05       		.uleb128 0x5
 9699 318a 6E1F0000 		.4byte	.LASF671
 9700 318e 39       		.byte	0x39
 9701 318f 70       		.byte	0x70
 9702 3190 69310000 		.4byte	0x3169
 9703 3194 05       		.uleb128 0x5
 9704 3195 541E0000 		.4byte	.LASF672
 9705 3199 3A       		.byte	0x3a
 9706 319a BF       		.byte	0xbf
 9707 319b 600B0000 		.4byte	0xb60
 9708 319f 05       		.uleb128 0x5
ARM GAS  /var/folders/qd/4mxf5pkd0zdf0b9dd1hp39180000gn/T//ccn3RVaQ.s 			page 172


 9709 31a0 8E000000 		.4byte	.LASF673
 9710 31a4 3A       		.byte	0x3a
 9711 31a5 C4       		.byte	0xc4
 9712 31a6 600B0000 		.4byte	0xb60
 9713 31aa 05       		.uleb128 0x5
 9714 31ab 8E250000 		.4byte	.LASF674
 9715 31af 3A       		.byte	0x3a
 9716 31b0 C9       		.byte	0xc9
 9717 31b1 B5310000 		.4byte	0x31b5
 9718 31b5 11       		.uleb128 0x11
 9719 31b6 8E250000 		.4byte	.LASF674
 9720 31ba 4C       		.byte	0x4c
 9721 31bb 3A       		.byte	0x3a
 9722 31bc F2       		.byte	0xf2
 9723 31bd 64320000 		.4byte	0x3264
 9724 31c1 12       		.uleb128 0x12
 9725 31c2 766D7400 		.ascii	"vmt\000"
 9726 31c6 3A       		.byte	0x3a
 9727 31c7 F6       		.byte	0xf6
 9728 31c8 07330000 		.4byte	0x3307
 9729 31cc 00       		.byte	0
 9730 31cd 04       		.uleb128 0x4
 9731 31ce 60190000 		.4byte	.LASF480
 9732 31d2 3A       		.byte	0x3a
 9733 31d3 F7       		.byte	0xf7
 9734 31d4 2E1F0000 		.4byte	0x1f2e
 9735 31d8 04       		.byte	0x4
 9736 31d9 12       		.uleb128 0x12
 9737 31da 63696400 		.ascii	"cid\000"
 9738 31de 3A       		.byte	0x3a
 9739 31df F7       		.byte	0xf7
 9740 31e0 E21F0000 		.4byte	0x1fe2
 9741 31e4 08       		.byte	0x8
 9742 31e5 12       		.uleb128 0x12
 9743 31e6 63736400 		.ascii	"csd\000"
 9744 31ea 3A       		.byte	0x3a
 9745 31eb F7       		.byte	0xf7
 9746 31ec E21F0000 		.4byte	0x1fe2
 9747 31f0 18       		.byte	0x18
 9748 31f1 04       		.uleb128 0x4
 9749 31f2 06210000 		.4byte	.LASF675
 9750 31f6 3A       		.byte	0x3a
 9751 31f7 F7       		.byte	0xf7
 9752 31f8 600B0000 		.4byte	0xb60
 9753 31fc 28       		.byte	0x28
 9754 31fd 04       		.uleb128 0x4
 9755 31fe 35200000 		.4byte	.LASF481
 9756 3202 3A       		.byte	0x3a
 9757 3203 FB       		.byte	0xfb
 9758 3204 0D330000 		.4byte	0x330d
 9759 3208 2C       		.byte	0x2c
 9760 3209 04       		.uleb128 0x4
 9761 320a CD040000 		.4byte	.LASF676
 9762 320e 3A       		.byte	0x3a
 9763 320f FF       		.byte	0xff
 9764 3210 94310000 		.4byte	0x3194
 9765 3214 30       		.byte	0x30
ARM GAS  /var/folders/qd/4mxf5pkd0zdf0b9dd1hp39180000gn/T//ccn3RVaQ.s 			page 173


 9766 3215 19       		.uleb128 0x19
 9767 3216 90010000 		.4byte	.LASF612
 9768 321a 3A       		.byte	0x3a
 9769 321b 0301     		.2byte	0x103
 9770 321d 9F310000 		.4byte	0x319f
 9771 3221 34       		.byte	0x34
 9772 3222 27       		.uleb128 0x27
 9773 3223 72636100 		.ascii	"rca\000"
 9774 3227 3A       		.byte	0x3a
 9775 3228 0701     		.2byte	0x107
 9776 322a 600B0000 		.4byte	0xb60
 9777 322e 38       		.byte	0x38
 9778 322f 19       		.uleb128 0x19
 9779 3230 BE070000 		.4byte	.LASF485
 9780 3234 3A       		.byte	0x3a
 9781 3235 0C01     		.2byte	0x10c
 9782 3237 3D0D0000 		.4byte	0xd3d
 9783 323b 3C       		.byte	0x3c
 9784 323c 19       		.uleb128 0x19
 9785 323d AE1B0000 		.4byte	.LASF488
 9786 3241 3A       		.byte	0x3a
 9787 3242 1001     		.2byte	0x110
 9788 3244 600B0000 		.4byte	0xb60
 9789 3248 40       		.byte	0x40
 9790 3249 27       		.uleb128 0x27
 9791 324a 646D6100 		.ascii	"dma\000"
 9792 324e 3A       		.byte	0x3a
 9793 324f 1401     		.2byte	0x114
 9794 3251 27240000 		.4byte	0x2427
 9795 3255 44       		.byte	0x44
 9796 3256 19       		.uleb128 0x19
 9797 3257 78190000 		.4byte	.LASF677
 9798 325b 3A       		.byte	0x3a
 9799 325c 1901     		.2byte	0x119
 9800 325e 13330000 		.4byte	0x3313
 9801 3262 48       		.byte	0x48
 9802 3263 00       		.byte	0
 9803 3264 03       		.uleb128 0x3
 9804 3265 08       		.byte	0x8
 9805 3266 3A       		.byte	0x3a
 9806 3267 CF       		.byte	0xcf
 9807 3268 85320000 		.4byte	0x3285
 9808 326c 04       		.uleb128 0x4
 9809 326d 5D0F0000 		.4byte	.LASF678
 9810 3271 3A       		.byte	0x3a
 9811 3272 D8       		.byte	0xd8
 9812 3273 4D1D0000 		.4byte	0x1d4d
 9813 3277 00       		.byte	0
 9814 3278 04       		.uleb128 0x4
 9815 3279 7D270000 		.4byte	.LASF679
 9816 327d 3A       		.byte	0x3a
 9817 327e DC       		.byte	0xdc
 9818 327f 89310000 		.4byte	0x3189
 9819 3283 04       		.byte	0x4
 9820 3284 00       		.byte	0
 9821 3285 05       		.uleb128 0x5
 9822 3286 FF1D0000 		.4byte	.LASF680
ARM GAS  /var/folders/qd/4mxf5pkd0zdf0b9dd1hp39180000gn/T//ccn3RVaQ.s 			page 174


 9823 328a 3A       		.byte	0x3a
 9824 328b DE       		.byte	0xde
 9825 328c 64320000 		.4byte	0x3264
 9826 3290 10       		.uleb128 0x10
 9827 3291 85320000 		.4byte	0x3285
 9828 3295 11       		.uleb128 0x11
 9829 3296 93270000 		.4byte	.LASF681
 9830 329a 20       		.byte	0x20
 9831 329b 3A       		.byte	0x3a
 9832 329c EB       		.byte	0xeb
 9833 329d 02330000 		.4byte	0x3302
 9834 32a1 04       		.uleb128 0x4
 9835 32a2 6C2A0000 		.4byte	.LASF682
 9836 32a6 3A       		.byte	0x3a
 9837 32a7 EC       		.byte	0xec
 9838 32a8 741F0000 		.4byte	0x1f74
 9839 32ac 00       		.byte	0
 9840 32ad 04       		.uleb128 0x4
 9841 32ae 8B0D0000 		.4byte	.LASF683
 9842 32b2 3A       		.byte	0x3a
 9843 32b3 EC       		.byte	0xec
 9844 32b4 741F0000 		.4byte	0x1f74
 9845 32b8 04       		.byte	0x4
 9846 32b9 04       		.uleb128 0x4
 9847 32ba 4A100000 		.4byte	.LASF684
 9848 32be 3A       		.byte	0x3a
 9849 32bf EC       		.byte	0xec
 9850 32c0 741F0000 		.4byte	0x1f74
 9851 32c4 08       		.byte	0x8
 9852 32c5 04       		.uleb128 0x4
 9853 32c6 FB160000 		.4byte	.LASF685
 9854 32ca 3A       		.byte	0x3a
 9855 32cb EC       		.byte	0xec
 9856 32cc 741F0000 		.4byte	0x1f74
 9857 32d0 0C       		.byte	0xc
 9858 32d1 04       		.uleb128 0x4
 9859 32d2 1A050000 		.4byte	.LASF663
 9860 32d6 3A       		.byte	0x3a
 9861 32d7 EC       		.byte	0xec
 9862 32d8 981F0000 		.4byte	0x1f98
 9863 32dc 10       		.byte	0x10
 9864 32dd 04       		.uleb128 0x4
 9865 32de EC1B0000 		.4byte	.LASF662
 9866 32e2 3A       		.byte	0x3a
 9867 32e3 EC       		.byte	0xec
 9868 32e4 BC1F0000 		.4byte	0x1fbc
 9869 32e8 14       		.byte	0x14
 9870 32e9 04       		.uleb128 0x4
 9871 32ea 2C1E0000 		.4byte	.LASF686
 9872 32ee 3A       		.byte	0x3a
 9873 32ef EC       		.byte	0xec
 9874 32f0 741F0000 		.4byte	0x1f74
 9875 32f4 18       		.byte	0x18
 9876 32f5 04       		.uleb128 0x4
 9877 32f6 FC260000 		.4byte	.LASF687
 9878 32fa 3A       		.byte	0x3a
 9879 32fb EC       		.byte	0xec
ARM GAS  /var/folders/qd/4mxf5pkd0zdf0b9dd1hp39180000gn/T//ccn3RVaQ.s 			page 175


 9880 32fc DC1F0000 		.4byte	0x1fdc
 9881 3300 1C       		.byte	0x1c
 9882 3301 00       		.byte	0
 9883 3302 10       		.uleb128 0x10
 9884 3303 95320000 		.4byte	0x3295
 9885 3307 08       		.uleb128 0x8
 9886 3308 04       		.byte	0x4
 9887 3309 02330000 		.4byte	0x3302
 9888 330d 08       		.uleb128 0x8
 9889 330e 04       		.byte	0x4
 9890 330f 90320000 		.4byte	0x3290
 9891 3313 08       		.uleb128 0x8
 9892 3314 04       		.byte	0x4
 9893 3315 21160000 		.4byte	0x1621
 9894 3319 21       		.uleb128 0x21
 9895 331a 260B0000 		.4byte	.LASF688
 9896 331e 3A       		.byte	0x3a
 9897 331f 2501     		.2byte	0x125
 9898 3321 AA310000 		.4byte	0x31aa
 9899 3325 26       		.uleb128 0x26
 9900 3326 07       		.byte	0x7
 9901 3327 01       		.byte	0x1
 9902 3328 AA000000 		.4byte	0xaa
 9903 332c 3B       		.byte	0x3b
 9904 332d 46       		.byte	0x46
 9905 332e 51330000 		.4byte	0x3351
 9906 3332 24       		.uleb128 0x24
 9907 3333 D4070000 		.4byte	.LASF689
 9908 3337 00       		.byte	0
 9909 3338 24       		.uleb128 0x24
 9910 3339 25030000 		.4byte	.LASF690
 9911 333d 01       		.byte	0x1
 9912 333e 24       		.uleb128 0x24
 9913 333f 5A270000 		.4byte	.LASF691
 9914 3343 02       		.byte	0x2
 9915 3344 24       		.uleb128 0x24
 9916 3345 B60F0000 		.4byte	.LASF692
 9917 3349 03       		.byte	0x3
 9918 334a 24       		.uleb128 0x24
 9919 334b 76160000 		.4byte	.LASF693
 9920 334f 04       		.byte	0x4
 9921 3350 00       		.byte	0
 9922 3351 05       		.uleb128 0x5
 9923 3352 850F0000 		.4byte	.LASF694
 9924 3356 3B       		.byte	0x3b
 9925 3357 4C       		.byte	0x4c
 9926 3358 25330000 		.4byte	0x3325
 9927 335c 0A       		.uleb128 0xa
 9928 335d 48260000 		.4byte	.LASF695
 9929 3361 3C       		.byte	0x3c
 9930 3362 9601     		.2byte	0x196
 9931 3364 68330000 		.4byte	0x3368
 9932 3368 1C       		.uleb128 0x1c
 9933 3369 48260000 		.4byte	.LASF695
 9934 336d 34       		.byte	0x34
 9935 336e 3C       		.byte	0x3c
 9936 336f BA01     		.2byte	0x1ba
ARM GAS  /var/folders/qd/4mxf5pkd0zdf0b9dd1hp39180000gn/T//ccn3RVaQ.s 			page 176


 9937 3371 EB330000 		.4byte	0x33eb
 9938 3375 19       		.uleb128 0x19
 9939 3376 60190000 		.4byte	.LASF480
 9940 337a 3C       		.byte	0x3c
 9941 337b BE01     		.2byte	0x1be
 9942 337d 51330000 		.4byte	0x3351
 9943 3381 00       		.byte	0
 9944 3382 19       		.uleb128 0x19
 9945 3383 35200000 		.4byte	.LASF481
 9946 3387 3C       		.byte	0x3c
 9947 3388 C201     		.2byte	0x1c2
 9948 338a 5D340000 		.4byte	0x345d
 9949 338e 04       		.byte	0x4
 9950 338f 19       		.uleb128 0x19
 9951 3390 BE070000 		.4byte	.LASF485
 9952 3394 3C       		.byte	0x3c
 9953 3395 C701     		.2byte	0x1c7
 9954 3397 3D0D0000 		.4byte	0xd3d
 9955 339b 08       		.byte	0x8
 9956 339c 19       		.uleb128 0x19
 9957 339d E10D0000 		.4byte	.LASF486
 9958 33a1 3C       		.byte	0x3c
 9959 33a2 CD01     		.2byte	0x1cd
 9960 33a4 241C0000 		.4byte	0x1c24
 9961 33a8 0C       		.byte	0xc
 9962 33a9 27       		.uleb128 0x27
 9963 33aa 73706900 		.ascii	"spi\000"
 9964 33ae 3C       		.byte	0x3c
 9965 33af D601     		.2byte	0x1d6
 9966 33b1 4C2E0000 		.4byte	0x2e4c
 9967 33b5 20       		.byte	0x20
 9968 33b6 19       		.uleb128 0x19
 9969 33b7 42010000 		.4byte	.LASF616
 9970 33bb 3C       		.byte	0x3c
 9971 33bc DA01     		.2byte	0x1da
 9972 33be 27240000 		.4byte	0x2427
 9973 33c2 24       		.byte	0x24
 9974 33c3 19       		.uleb128 0x19
 9975 33c4 2F020000 		.4byte	.LASF617
 9976 33c8 3C       		.byte	0x3c
 9977 33c9 DE01     		.2byte	0x1de
 9978 33cb 27240000 		.4byte	0x2427
 9979 33cf 28       		.byte	0x28
 9980 33d0 19       		.uleb128 0x19
 9981 33d1 61090000 		.4byte	.LASF614
 9982 33d5 3C       		.byte	0x3c
 9983 33d6 E201     		.2byte	0x1e2
 9984 33d8 600B0000 		.4byte	0xb60
 9985 33dc 2C       		.byte	0x2c
 9986 33dd 19       		.uleb128 0x19
 9987 33de BA090000 		.4byte	.LASF615
 9988 33e2 3C       		.byte	0x3c
 9989 33e3 E601     		.2byte	0x1e6
 9990 33e5 600B0000 		.4byte	0xb60
 9991 33e9 30       		.byte	0x30
 9992 33ea 00       		.byte	0
 9993 33eb 0A       		.uleb128 0xa
ARM GAS  /var/folders/qd/4mxf5pkd0zdf0b9dd1hp39180000gn/T//ccn3RVaQ.s 			page 177


 9994 33ec 85180000 		.4byte	.LASF696
 9995 33f0 3C       		.byte	0x3c
 9996 33f1 9E01     		.2byte	0x19e
 9997 33f3 F7330000 		.4byte	0x33f7
 9998 33f7 08       		.uleb128 0x8
 9999 33f8 04       		.byte	0x4
 10000 33f9 FD330000 		.4byte	0x33fd
 10001 33fd 20       		.uleb128 0x20
 10002 33fe 08340000 		.4byte	0x3408
 10003 3402 17       		.uleb128 0x17
 10004 3403 08340000 		.4byte	0x3408
 10005 3407 00       		.byte	0
 10006 3408 08       		.uleb128 0x8
 10007 3409 04       		.byte	0x4
 10008 340a 5C330000 		.4byte	0x335c
 10009 340e 1D       		.uleb128 0x1d
 10010 340f 0C       		.byte	0xc
 10011 3410 3C       		.byte	0x3c
 10012 3411 A301     		.2byte	0x1a3
 10013 3413 4C340000 		.4byte	0x344c
 10014 3417 19       		.uleb128 0x19
 10015 3418 550A0000 		.4byte	.LASF493
 10016 341c 3C       		.byte	0x3c
 10017 341d A701     		.2byte	0x1a7
 10018 341f EB330000 		.4byte	0x33eb
 10019 3423 00       		.byte	0
 10020 3424 19       		.uleb128 0x19
 10021 3425 41280000 		.4byte	.LASF697
 10022 3429 3C       		.byte	0x3c
 10023 342a AC01     		.2byte	0x1ac
 10024 342c B8210000 		.4byte	0x21b8
 10025 3430 04       		.byte	0x4
 10026 3431 19       		.uleb128 0x19
 10027 3432 B4090000 		.4byte	.LASF698
 10028 3436 3C       		.byte	0x3c
 10029 3437 B001     		.2byte	0x1b0
 10030 3439 450B0000 		.4byte	0xb45
 10031 343d 08       		.byte	0x8
 10032 343e 27       		.uleb128 0x27
 10033 343f 63723100 		.ascii	"cr1\000"
 10034 3443 3C       		.byte	0x3c
 10035 3444 B401     		.2byte	0x1b4
 10036 3446 450B0000 		.4byte	0xb45
 10037 344a 0A       		.byte	0xa
 10038 344b 00       		.byte	0
 10039 344c 0A       		.uleb128 0xa
 10040 344d 22250000 		.4byte	.LASF699
 10041 3451 3C       		.byte	0x3c
 10042 3452 B501     		.2byte	0x1b5
 10043 3454 0E340000 		.4byte	0x340e
 10044 3458 10       		.uleb128 0x10
 10045 3459 4C340000 		.4byte	0x344c
 10046 345d 08       		.uleb128 0x8
 10047 345e 04       		.byte	0x4
 10048 345f 58340000 		.4byte	0x3458
 10049 3463 21       		.uleb128 0x21
 10050 3464 20240000 		.4byte	.LASF700
ARM GAS  /var/folders/qd/4mxf5pkd0zdf0b9dd1hp39180000gn/T//ccn3RVaQ.s 			page 178


 10051 3468 3C       		.byte	0x3c
 10052 3469 F201     		.2byte	0x1f2
 10053 346b 5C330000 		.4byte	0x335c
 10054 346f 05       		.uleb128 0x5
 10055 3470 FC130000 		.4byte	.LASF701
 10056 3474 3D       		.byte	0x3d
 10057 3475 FA       		.byte	0xfa
 10058 3476 7A340000 		.4byte	0x347a
 10059 347a 18       		.uleb128 0x18
 10060 347b FC130000 		.4byte	.LASF701
 10061 347f 6002     		.2byte	0x260
 10062 3481 3E       		.byte	0x3e
 10063 3482 7701     		.2byte	0x177
 10064 3484 A6350000 		.4byte	0x35a6
 10065 3488 19       		.uleb128 0x19
 10066 3489 60190000 		.4byte	.LASF480
 10067 348d 3E       		.byte	0x3e
 10068 348e 7B01     		.2byte	0x17b
 10069 3490 DE350000 		.4byte	0x35de
 10070 3494 00       		.byte	0
 10071 3495 19       		.uleb128 0x19
 10072 3496 35200000 		.4byte	.LASF481
 10073 349a 3E       		.byte	0x3e
 10074 349b 7F01     		.2byte	0x17f
 10075 349d 013F0000 		.4byte	0x3f01
 10076 34a1 04       		.byte	0x4
 10077 34a2 19       		.uleb128 0x19
 10078 34a3 5E250000 		.4byte	.LASF702
 10079 34a7 3E       		.byte	0x3e
 10080 34a8 8301     		.2byte	0x183
 10081 34aa 450B0000 		.4byte	0xb45
 10082 34ae 08       		.byte	0x8
 10083 34af 19       		.uleb128 0x19
 10084 34b0 80280000 		.4byte	.LASF703
 10085 34b4 3E       		.byte	0x3e
 10086 34b5 8701     		.2byte	0x187
 10087 34b7 450B0000 		.4byte	0xb45
 10088 34bb 0A       		.byte	0xa
 10089 34bc 27       		.uleb128 0x27
 10090 34bd 65706300 		.ascii	"epc\000"
 10091 34c1 3E       		.byte	0x3e
 10092 34c2 8B01     		.2byte	0x18b
 10093 34c4 073F0000 		.4byte	0x3f07
 10094 34c8 0C       		.byte	0xc
 10095 34c9 19       		.uleb128 0x19
 10096 34ca 36080000 		.4byte	.LASF704
 10097 34ce 3E       		.byte	0x3e
 10098 34cf 9201     		.2byte	0x192
 10099 34d1 1D3F0000 		.4byte	0x3f1d
 10100 34d5 1C       		.byte	0x1c
 10101 34d6 19       		.uleb128 0x19
 10102 34d7 5C0D0000 		.4byte	.LASF705
 10103 34db 3E       		.byte	0x3e
 10104 34dc 9901     		.2byte	0x199
 10105 34de 1D3F0000 		.4byte	0x3f1d
 10106 34e2 28       		.byte	0x28
 10107 34e3 19       		.uleb128 0x19
ARM GAS  /var/folders/qd/4mxf5pkd0zdf0b9dd1hp39180000gn/T//ccn3RVaQ.s 			page 179


 10108 34e4 1E120000 		.4byte	.LASF706
 10109 34e8 3E       		.byte	0x3e
 10110 34e9 9D01     		.2byte	0x19d
 10111 34eb 23360000 		.4byte	0x3623
 10112 34ef 34       		.byte	0x34
 10113 34f0 19       		.uleb128 0x19
 10114 34f1 CE1F0000 		.4byte	.LASF707
 10115 34f5 3E       		.byte	0x3e
 10116 34f6 A101     		.2byte	0x1a1
 10117 34f8 4D1D0000 		.4byte	0x1d4d
 10118 34fc 38       		.byte	0x38
 10119 34fd 19       		.uleb128 0x19
 10120 34fe 1D1B0000 		.4byte	.LASF708
 10121 3502 3E       		.byte	0x3e
 10122 3503 A501     		.2byte	0x1a5
 10123 3505 7F000000 		.4byte	0x7f
 10124 3509 3C       		.byte	0x3c
 10125 350a 19       		.uleb128 0x19
 10126 350b 5C220000 		.4byte	.LASF709
 10127 350f 3E       		.byte	0x3e
 10128 3510 A901     		.2byte	0x1a9
 10129 3512 A3360000 		.4byte	0x36a3
 10130 3516 40       		.byte	0x40
 10131 3517 19       		.uleb128 0x19
 10132 3518 CE070000 		.4byte	.LASF710
 10133 351c 3E       		.byte	0x3e
 10134 351d AD01     		.2byte	0x1ad
 10135 351f 88240000 		.4byte	0x2488
 10136 3523 44       		.byte	0x44
 10137 3524 19       		.uleb128 0x19
 10138 3525 57180000 		.4byte	.LASF711
 10139 3529 3E       		.byte	0x3e
 10140 352a B101     		.2byte	0x1b1
 10141 352c 450B0000 		.4byte	0xb45
 10142 3530 4C       		.byte	0x4c
 10143 3531 19       		.uleb128 0x19
 10144 3532 9D180000 		.4byte	.LASF712
 10145 3536 3E       		.byte	0x3e
 10146 3537 B501     		.2byte	0x1b5
 10147 3539 2A0B0000 		.4byte	0xb2a
 10148 353d 4E       		.byte	0x4e
 10149 353e 19       		.uleb128 0x19
 10150 353f B61E0000 		.4byte	.LASF713
 10151 3543 3E       		.byte	0x3e
 10152 3544 B901     		.2byte	0x1b9
 10153 3546 2A0B0000 		.4byte	0xb2a
 10154 354a 4F       		.byte	0x4f
 10155 354b 27       		.uleb128 0x27
 10156 354c 6F746700 		.ascii	"otg\000"
 10157 3550 3E       		.byte	0x3e
 10158 3551 C101     		.2byte	0x1c1
 10159 3553 2D3F0000 		.4byte	0x3f2d
 10160 3557 50       		.byte	0x50
 10161 3558 19       		.uleb128 0x19
 10162 3559 440F0000 		.4byte	.LASF714
 10163 355d 3E       		.byte	0x3e
 10164 355e C501     		.2byte	0x1c5
ARM GAS  /var/folders/qd/4mxf5pkd0zdf0b9dd1hp39180000gn/T//ccn3RVaQ.s 			page 180


 10165 3560 333F0000 		.4byte	0x3f33
 10166 3564 54       		.byte	0x54
 10167 3565 19       		.uleb128 0x19
 10168 3566 C2230000 		.4byte	.LASF715
 10169 356a 3E       		.byte	0x3e
 10170 356b C901     		.2byte	0x1c9
 10171 356d 600B0000 		.4byte	0xb60
 10172 3571 58       		.byte	0x58
 10173 3572 19       		.uleb128 0x19
 10174 3573 260E0000 		.4byte	.LASF716
 10175 3577 3E       		.byte	0x3e
 10176 3578 CD01     		.2byte	0x1cd
 10177 357a 600B0000 		.4byte	0xb60
 10178 357e 5C       		.byte	0x5c
 10179 357f 19       		.uleb128 0x19
 10180 3580 03090000 		.4byte	.LASF717
 10181 3584 3E       		.byte	0x3e
 10182 3585 D101     		.2byte	0x1d1
 10183 3587 3D0D0000 		.4byte	0xd3d
 10184 358b 60       		.byte	0x60
 10185 358c 27       		.uleb128 0x27
 10186 358d 747200   		.ascii	"tr\000"
 10187 3590 3E       		.byte	0x3e
 10188 3591 D601     		.2byte	0x1d6
 10189 3593 3D0D0000 		.4byte	0xd3d
 10190 3597 64       		.byte	0x64
 10191 3598 19       		.uleb128 0x19
 10192 3599 41170000 		.4byte	.LASF718
 10193 359d 3E       		.byte	0x3e
 10194 359e DA01     		.2byte	0x1da
 10195 35a0 393F0000 		.4byte	0x3f39
 10196 35a4 68       		.byte	0x68
 10197 35a5 00       		.byte	0
 10198 35a6 05       		.uleb128 0x5
 10199 35a7 EF0A0000 		.4byte	.LASF719
 10200 35ab 3D       		.byte	0x3d
 10201 35ac FF       		.byte	0xff
 10202 35ad 2A0B0000 		.4byte	0xb2a
 10203 35b1 2D       		.uleb128 0x2d
 10204 35b2 07       		.byte	0x7
 10205 35b3 01       		.byte	0x1
 10206 35b4 AA000000 		.4byte	0xaa
 10207 35b8 3D       		.byte	0x3d
 10208 35b9 0401     		.2byte	0x104
 10209 35bb DE350000 		.4byte	0x35de
 10210 35bf 24       		.uleb128 0x24
 10211 35c0 5F290000 		.4byte	.LASF720
 10212 35c4 00       		.byte	0
 10213 35c5 24       		.uleb128 0x24
 10214 35c6 00000000 		.4byte	.LASF721
 10215 35ca 01       		.byte	0x1
 10216 35cb 24       		.uleb128 0x24
 10217 35cc 41160000 		.4byte	.LASF722
 10218 35d0 02       		.byte	0x2
 10219 35d1 24       		.uleb128 0x24
 10220 35d2 F01C0000 		.4byte	.LASF723
 10221 35d6 03       		.byte	0x3
ARM GAS  /var/folders/qd/4mxf5pkd0zdf0b9dd1hp39180000gn/T//ccn3RVaQ.s 			page 181


 10222 35d7 24       		.uleb128 0x24
 10223 35d8 1B090000 		.4byte	.LASF724
 10224 35dc 04       		.byte	0x4
 10225 35dd 00       		.byte	0
 10226 35de 0A       		.uleb128 0xa
 10227 35df A12A0000 		.4byte	.LASF725
 10228 35e3 3D       		.byte	0x3d
 10229 35e4 0A01     		.2byte	0x10a
 10230 35e6 B1350000 		.4byte	0x35b1
 10231 35ea 2D       		.uleb128 0x2d
 10232 35eb 07       		.byte	0x7
 10233 35ec 01       		.byte	0x1
 10234 35ed AA000000 		.4byte	0xaa
 10235 35f1 3D       		.byte	0x3d
 10236 35f2 1801     		.2byte	0x118
 10237 35f4 23360000 		.4byte	0x3623
 10238 35f8 24       		.uleb128 0x24
 10239 35f9 27220000 		.4byte	.LASF726
 10240 35fd 00       		.byte	0
 10241 35fe 24       		.uleb128 0x24
 10242 35ff 13120000 		.4byte	.LASF727
 10243 3603 01       		.byte	0x1
 10244 3604 24       		.uleb128 0x24
 10245 3605 BA1F0000 		.4byte	.LASF728
 10246 3609 02       		.byte	0x2
 10247 360a 24       		.uleb128 0x24
 10248 360b 85190000 		.4byte	.LASF729
 10249 360f 03       		.byte	0x3
 10250 3610 24       		.uleb128 0x24
 10251 3611 2D180000 		.4byte	.LASF730
 10252 3615 04       		.byte	0x4
 10253 3616 24       		.uleb128 0x24
 10254 3617 21130000 		.4byte	.LASF731
 10255 361b 05       		.byte	0x5
 10256 361c 24       		.uleb128 0x24
 10257 361d 35100000 		.4byte	.LASF732
 10258 3621 06       		.byte	0x6
 10259 3622 00       		.byte	0
 10260 3623 0A       		.uleb128 0xa
 10261 3624 8F130000 		.4byte	.LASF733
 10262 3628 3D       		.byte	0x3d
 10263 3629 2001     		.2byte	0x120
 10264 362b EA350000 		.4byte	0x35ea
 10265 362f 2D       		.uleb128 0x2d
 10266 3630 07       		.byte	0x7
 10267 3631 01       		.byte	0x1
 10268 3632 AA000000 		.4byte	0xaa
 10269 3636 3D       		.byte	0x3d
 10270 3637 2501     		.2byte	0x125
 10271 3639 62360000 		.4byte	0x3662
 10272 363d 24       		.uleb128 0x24
 10273 363e AE210000 		.4byte	.LASF734
 10274 3642 00       		.byte	0
 10275 3643 24       		.uleb128 0x24
 10276 3644 641D0000 		.4byte	.LASF735
 10277 3648 01       		.byte	0x1
 10278 3649 24       		.uleb128 0x24
ARM GAS  /var/folders/qd/4mxf5pkd0zdf0b9dd1hp39180000gn/T//ccn3RVaQ.s 			page 182


 10279 364a E6160000 		.4byte	.LASF736
 10280 364e 02       		.byte	0x2
 10281 364f 24       		.uleb128 0x24
 10282 3650 8D170000 		.4byte	.LASF737
 10283 3654 03       		.byte	0x3
 10284 3655 24       		.uleb128 0x24
 10285 3656 B6270000 		.4byte	.LASF738
 10286 365a 04       		.byte	0x4
 10287 365b 24       		.uleb128 0x24
 10288 365c A0160000 		.4byte	.LASF739
 10289 3660 05       		.byte	0x5
 10290 3661 00       		.byte	0
 10291 3662 0A       		.uleb128 0xa
 10292 3663 AB1D0000 		.4byte	.LASF740
 10293 3667 3D       		.byte	0x3d
 10294 3668 2C01     		.2byte	0x12c
 10295 366a 2F360000 		.4byte	0x362f
 10296 366e 1D       		.uleb128 0x1d
 10297 366f 08       		.byte	0x8
 10298 3670 3D       		.byte	0x3d
 10299 3671 3101     		.2byte	0x131
 10300 3673 92360000 		.4byte	0x3692
 10301 3677 19       		.uleb128 0x19
 10302 3678 2A2A0000 		.4byte	.LASF741
 10303 367c 3D       		.byte	0x3d
 10304 367d 3501     		.2byte	0x135
 10305 367f 7F000000 		.4byte	0x7f
 10306 3683 00       		.byte	0
 10307 3684 19       		.uleb128 0x19
 10308 3685 F8040000 		.4byte	.LASF742
 10309 3689 3D       		.byte	0x3d
 10310 368a 3901     		.2byte	0x139
 10311 368c 821D0000 		.4byte	0x1d82
 10312 3690 04       		.byte	0x4
 10313 3691 00       		.byte	0
 10314 3692 0A       		.uleb128 0xa
 10315 3693 71180000 		.4byte	.LASF743
 10316 3697 3D       		.byte	0x3d
 10317 3698 3A01     		.2byte	0x13a
 10318 369a 6E360000 		.4byte	0x366e
 10319 369e 10       		.uleb128 0x10
 10320 369f 92360000 		.4byte	0x3692
 10321 36a3 0A       		.uleb128 0xa
 10322 36a4 B4290000 		.4byte	.LASF744
 10323 36a8 3D       		.byte	0x3d
 10324 36a9 4201     		.2byte	0x142
 10325 36ab AF360000 		.4byte	0x36af
 10326 36af 08       		.uleb128 0x8
 10327 36b0 04       		.byte	0x4
 10328 36b1 B5360000 		.4byte	0x36b5
 10329 36b5 20       		.uleb128 0x20
 10330 36b6 C0360000 		.4byte	0x36c0
 10331 36ba 17       		.uleb128 0x17
 10332 36bb C0360000 		.4byte	0x36c0
 10333 36bf 00       		.byte	0
 10334 36c0 08       		.uleb128 0x8
 10335 36c1 04       		.byte	0x4
ARM GAS  /var/folders/qd/4mxf5pkd0zdf0b9dd1hp39180000gn/T//ccn3RVaQ.s 			page 183


 10336 36c2 6F340000 		.4byte	0x346f
 10337 36c6 0A       		.uleb128 0xa
 10338 36c7 61050000 		.4byte	.LASF745
 10339 36cb 3D       		.byte	0x3d
 10340 36cc 4B01     		.2byte	0x14b
 10341 36ce D2360000 		.4byte	0x36d2
 10342 36d2 08       		.uleb128 0x8
 10343 36d3 04       		.byte	0x4
 10344 36d4 D8360000 		.4byte	0x36d8
 10345 36d8 20       		.uleb128 0x20
 10346 36d9 E8360000 		.4byte	0x36e8
 10347 36dd 17       		.uleb128 0x17
 10348 36de C0360000 		.4byte	0x36c0
 10349 36e2 17       		.uleb128 0x17
 10350 36e3 A6350000 		.4byte	0x35a6
 10351 36e7 00       		.byte	0
 10352 36e8 0A       		.uleb128 0xa
 10353 36e9 FB0B0000 		.4byte	.LASF746
 10354 36ed 3D       		.byte	0x3d
 10355 36ee 5401     		.2byte	0x154
 10356 36f0 F4360000 		.4byte	0x36f4
 10357 36f4 08       		.uleb128 0x8
 10358 36f5 04       		.byte	0x4
 10359 36f6 FA360000 		.4byte	0x36fa
 10360 36fa 20       		.uleb128 0x20
 10361 36fb 0A370000 		.4byte	0x370a
 10362 36ff 17       		.uleb128 0x17
 10363 3700 C0360000 		.4byte	0x36c0
 10364 3704 17       		.uleb128 0x17
 10365 3705 62360000 		.4byte	0x3662
 10366 3709 00       		.byte	0
 10367 370a 0A       		.uleb128 0xa
 10368 370b D6060000 		.4byte	.LASF747
 10369 370f 3D       		.byte	0x3d
 10370 3710 6001     		.2byte	0x160
 10371 3712 16370000 		.4byte	0x3716
 10372 3716 08       		.uleb128 0x8
 10373 3717 04       		.byte	0x4
 10374 3718 1C370000 		.4byte	0x371c
 10375 371c 16       		.uleb128 0x16
 10376 371d 5B000000 		.4byte	0x5b
 10377 3721 2B370000 		.4byte	0x372b
 10378 3725 17       		.uleb128 0x17
 10379 3726 C0360000 		.4byte	0x36c0
 10380 372a 00       		.byte	0
 10381 372b 0A       		.uleb128 0xa
 10382 372c A1100000 		.4byte	.LASF748
 10383 3730 3D       		.byte	0x3d
 10384 3731 6501     		.2byte	0x165
 10385 3733 37370000 		.4byte	0x3737
 10386 3737 08       		.uleb128 0x8
 10387 3738 04       		.byte	0x4
 10388 3739 3D370000 		.4byte	0x373d
 10389 373d 16       		.uleb128 0x16
 10390 373e 5B370000 		.4byte	0x375b
 10391 3742 5B370000 		.4byte	0x375b
 10392 3746 17       		.uleb128 0x17
ARM GAS  /var/folders/qd/4mxf5pkd0zdf0b9dd1hp39180000gn/T//ccn3RVaQ.s 			page 184


 10393 3747 C0360000 		.4byte	0x36c0
 10394 374b 17       		.uleb128 0x17
 10395 374c 2A0B0000 		.4byte	0xb2a
 10396 3750 17       		.uleb128 0x17
 10397 3751 2A0B0000 		.4byte	0xb2a
 10398 3755 17       		.uleb128 0x17
 10399 3756 450B0000 		.4byte	0xb45
 10400 375a 00       		.byte	0
 10401 375b 08       		.uleb128 0x8
 10402 375c 04       		.byte	0x4
 10403 375d 9E360000 		.4byte	0x369e
 10404 3761 03       		.uleb128 0x3
 10405 3762 20       		.byte	0x20
 10406 3763 3F       		.byte	0x3f
 10407 3764 35       		.byte	0x35
 10408 3765 CA370000 		.4byte	0x37ca
 10409 3769 04       		.uleb128 0x4
 10410 376a 93030000 		.4byte	.LASF749
 10411 376e 3F       		.byte	0x3f
 10412 376f 36       		.byte	0x36
 10413 3770 6B0B0000 		.4byte	0xb6b
 10414 3774 00       		.byte	0
 10415 3775 04       		.uleb128 0x4
 10416 3776 A10E0000 		.4byte	.LASF750
 10417 377a 3F       		.byte	0x3f
 10418 377b 38       		.byte	0x38
 10419 377c 6B0B0000 		.4byte	0xb6b
 10420 3780 04       		.byte	0x4
 10421 3781 04       		.uleb128 0x4
 10422 3782 EA020000 		.4byte	.LASF751
 10423 3786 3F       		.byte	0x3f
 10424 3787 39       		.byte	0x39
 10425 3788 6B0B0000 		.4byte	0xb6b
 10426 378c 08       		.byte	0x8
 10427 378d 04       		.uleb128 0x4
 10428 378e 26200000 		.4byte	.LASF752
 10429 3792 3F       		.byte	0x3f
 10430 3793 3A       		.byte	0x3a
 10431 3794 6B0B0000 		.4byte	0xb6b
 10432 3798 0C       		.byte	0xc
 10433 3799 04       		.uleb128 0x4
 10434 379a D5160000 		.4byte	.LASF753
 10435 379e 3F       		.byte	0x3f
 10436 379f 3C       		.byte	0x3c
 10437 37a0 6B0B0000 		.4byte	0xb6b
 10438 37a4 10       		.byte	0x10
 10439 37a5 04       		.uleb128 0x4
 10440 37a6 D70E0000 		.4byte	.LASF754
 10441 37aa 3F       		.byte	0x3f
 10442 37ab 3E       		.byte	0x3e
 10443 37ac 6B0B0000 		.4byte	0xb6b
 10444 37b0 14       		.byte	0x14
 10445 37b1 04       		.uleb128 0x4
 10446 37b2 EA0E0000 		.4byte	.LASF755
 10447 37b6 3F       		.byte	0x3f
 10448 37b7 3F       		.byte	0x3f
 10449 37b8 6B0B0000 		.4byte	0xb6b
ARM GAS  /var/folders/qd/4mxf5pkd0zdf0b9dd1hp39180000gn/T//ccn3RVaQ.s 			page 185


 10450 37bc 18       		.byte	0x18
 10451 37bd 04       		.uleb128 0x4
 10452 37be 47040000 		.4byte	.LASF756
 10453 37c2 3F       		.byte	0x3f
 10454 37c3 40       		.byte	0x40
 10455 37c4 6B0B0000 		.4byte	0xb6b
 10456 37c8 1C       		.byte	0x1c
 10457 37c9 00       		.byte	0
 10458 37ca 05       		.uleb128 0x5
 10459 37cb D61F0000 		.4byte	.LASF757
 10460 37cf 3F       		.byte	0x3f
 10461 37d0 41       		.byte	0x41
 10462 37d1 61370000 		.4byte	0x3761
 10463 37d5 03       		.uleb128 0x3
 10464 37d6 20       		.byte	0x20
 10465 37d7 3F       		.byte	0x3f
 10466 37d8 46       		.byte	0x46
 10467 37d9 3E380000 		.4byte	0x383e
 10468 37dd 04       		.uleb128 0x4
 10469 37de 320F0000 		.4byte	.LASF758
 10470 37e2 3F       		.byte	0x3f
 10471 37e3 47       		.byte	0x47
 10472 37e4 6B0B0000 		.4byte	0xb6b
 10473 37e8 00       		.byte	0
 10474 37e9 04       		.uleb128 0x4
 10475 37ea F5130000 		.4byte	.LASF759
 10476 37ee 3F       		.byte	0x3f
 10477 37ef 49       		.byte	0x49
 10478 37f0 6B0B0000 		.4byte	0xb6b
 10479 37f4 04       		.byte	0x4
 10480 37f5 04       		.uleb128 0x4
 10481 37f6 71240000 		.4byte	.LASF760
 10482 37fa 3F       		.byte	0x3f
 10483 37fb 4A       		.byte	0x4a
 10484 37fc 6B0B0000 		.4byte	0xb6b
 10485 3800 08       		.byte	0x8
 10486 3801 04       		.uleb128 0x4
 10487 3802 19140000 		.4byte	.LASF761
 10488 3806 3F       		.byte	0x3f
 10489 3807 4C       		.byte	0x4c
 10490 3808 6B0B0000 		.4byte	0xb6b
 10491 380c 0C       		.byte	0xc
 10492 380d 04       		.uleb128 0x4
 10493 380e 7E1A0000 		.4byte	.LASF762
 10494 3812 3F       		.byte	0x3f
 10495 3813 4D       		.byte	0x4d
 10496 3814 6B0B0000 		.4byte	0xb6b
 10497 3818 10       		.byte	0x10
 10498 3819 04       		.uleb128 0x4
 10499 381a D70E0000 		.4byte	.LASF754
 10500 381e 3F       		.byte	0x3f
 10501 381f 4F       		.byte	0x4f
 10502 3820 6B0B0000 		.4byte	0xb6b
 10503 3824 14       		.byte	0x14
 10504 3825 04       		.uleb128 0x4
 10505 3826 DF070000 		.4byte	.LASF763
 10506 382a 3F       		.byte	0x3f
ARM GAS  /var/folders/qd/4mxf5pkd0zdf0b9dd1hp39180000gn/T//ccn3RVaQ.s 			page 186


 10507 382b 50       		.byte	0x50
 10508 382c 6B0B0000 		.4byte	0xb6b
 10509 3830 18       		.byte	0x18
 10510 3831 04       		.uleb128 0x4
 10511 3832 5A240000 		.4byte	.LASF764
 10512 3836 3F       		.byte	0x3f
 10513 3837 52       		.byte	0x52
 10514 3838 6B0B0000 		.4byte	0xb6b
 10515 383c 1C       		.byte	0x1c
 10516 383d 00       		.byte	0
 10517 383e 05       		.uleb128 0x5
 10518 383f 3E090000 		.4byte	.LASF765
 10519 3843 3F       		.byte	0x3f
 10520 3844 53       		.byte	0x53
 10521 3845 D5370000 		.4byte	0x37d5
 10522 3849 03       		.uleb128 0x3
 10523 384a 20       		.byte	0x20
 10524 384b 3F       		.byte	0x3f
 10525 384c 58       		.byte	0x58
 10526 384d B2380000 		.4byte	0x38b2
 10527 3851 04       		.uleb128 0x4
 10528 3852 C9170000 		.4byte	.LASF766
 10529 3856 3F       		.byte	0x3f
 10530 3857 59       		.byte	0x59
 10531 3858 6B0B0000 		.4byte	0xb6b
 10532 385c 00       		.byte	0
 10533 385d 04       		.uleb128 0x4
 10534 385e F5130000 		.4byte	.LASF759
 10535 3862 3F       		.byte	0x3f
 10536 3863 5B       		.byte	0x5b
 10537 3864 6B0B0000 		.4byte	0xb6b
 10538 3868 04       		.byte	0x4
 10539 3869 04       		.uleb128 0x4
 10540 386a 0A1C0000 		.4byte	.LASF767
 10541 386e 3F       		.byte	0x3f
 10542 386f 5C       		.byte	0x5c
 10543 3870 6B0B0000 		.4byte	0xb6b
 10544 3874 08       		.byte	0x8
 10545 3875 04       		.uleb128 0x4
 10546 3876 19140000 		.4byte	.LASF761
 10547 387a 3F       		.byte	0x3f
 10548 387b 5E       		.byte	0x5e
 10549 387c 6B0B0000 		.4byte	0xb6b
 10550 3880 0C       		.byte	0xc
 10551 3881 04       		.uleb128 0x4
 10552 3882 D5250000 		.4byte	.LASF768
 10553 3886 3F       		.byte	0x3f
 10554 3887 5F       		.byte	0x5f
 10555 3888 6B0B0000 		.4byte	0xb6b
 10556 388c 10       		.byte	0x10
 10557 388d 04       		.uleb128 0x4
 10558 388e D70E0000 		.4byte	.LASF754
 10559 3892 3F       		.byte	0x3f
 10560 3893 61       		.byte	0x61
 10561 3894 6B0B0000 		.4byte	0xb6b
 10562 3898 14       		.byte	0x14
 10563 3899 04       		.uleb128 0x4
ARM GAS  /var/folders/qd/4mxf5pkd0zdf0b9dd1hp39180000gn/T//ccn3RVaQ.s 			page 187


 10564 389a EA0E0000 		.4byte	.LASF755
 10565 389e 3F       		.byte	0x3f
 10566 389f 62       		.byte	0x62
 10567 38a0 6B0B0000 		.4byte	0xb6b
 10568 38a4 18       		.byte	0x18
 10569 38a5 04       		.uleb128 0x4
 10570 38a6 5A240000 		.4byte	.LASF764
 10571 38aa 3F       		.byte	0x3f
 10572 38ab 63       		.byte	0x63
 10573 38ac 6B0B0000 		.4byte	0xb6b
 10574 38b0 1C       		.byte	0x1c
 10575 38b1 00       		.byte	0
 10576 38b2 05       		.uleb128 0x5
 10577 38b3 D2080000 		.4byte	.LASF769
 10578 38b7 3F       		.byte	0x3f
 10579 38b8 64       		.byte	0x64
 10580 38b9 49380000 		.4byte	0x3849
 10581 38bd 2E       		.uleb128 0x2e
 10582 38be 00100100 		.4byte	0x11000
 10583 38c2 3F       		.byte	0x3f
 10584 38c3 69       		.byte	0x69
 10585 38c4 9A3B0000 		.4byte	0x3b9a
 10586 38c8 04       		.uleb128 0x4
 10587 38c9 3C050000 		.4byte	.LASF770
 10588 38cd 3F       		.byte	0x3f
 10589 38ce 6A       		.byte	0x6a
 10590 38cf 6B0B0000 		.4byte	0xb6b
 10591 38d3 00       		.byte	0
 10592 38d4 04       		.uleb128 0x4
 10593 38d5 440D0000 		.4byte	.LASF771
 10594 38d9 3F       		.byte	0x3f
 10595 38da 6B       		.byte	0x6b
 10596 38db 6B0B0000 		.4byte	0xb6b
 10597 38df 04       		.byte	0x4
 10598 38e0 04       		.uleb128 0x4
 10599 38e1 5B080000 		.4byte	.LASF772
 10600 38e5 3F       		.byte	0x3f
 10601 38e6 6C       		.byte	0x6c
 10602 38e7 6B0B0000 		.4byte	0xb6b
 10603 38eb 08       		.byte	0x8
 10604 38ec 04       		.uleb128 0x4
 10605 38ed D2290000 		.4byte	.LASF773
 10606 38f1 3F       		.byte	0x3f
 10607 38f2 6D       		.byte	0x6d
 10608 38f3 6B0B0000 		.4byte	0xb6b
 10609 38f7 0C       		.byte	0xc
 10610 38f8 04       		.uleb128 0x4
 10611 38f9 51160000 		.4byte	.LASF774
 10612 38fd 3F       		.byte	0x3f
 10613 38fe 6E       		.byte	0x6e
 10614 38ff 6B0B0000 		.4byte	0xb6b
 10615 3903 10       		.byte	0x10
 10616 3904 04       		.uleb128 0x4
 10617 3905 F0030000 		.4byte	.LASF775
 10618 3909 3F       		.byte	0x3f
 10619 390a 6F       		.byte	0x6f
 10620 390b 6B0B0000 		.4byte	0xb6b
ARM GAS  /var/folders/qd/4mxf5pkd0zdf0b9dd1hp39180000gn/T//ccn3RVaQ.s 			page 188


 10621 390f 14       		.byte	0x14
 10622 3910 04       		.uleb128 0x4
 10623 3911 A51E0000 		.4byte	.LASF776
 10624 3915 3F       		.byte	0x3f
 10625 3916 70       		.byte	0x70
 10626 3917 6B0B0000 		.4byte	0xb6b
 10627 391b 18       		.byte	0x18
 10628 391c 04       		.uleb128 0x4
 10629 391d ED080000 		.4byte	.LASF777
 10630 3921 3F       		.byte	0x3f
 10631 3922 71       		.byte	0x71
 10632 3923 6B0B0000 		.4byte	0xb6b
 10633 3927 1C       		.byte	0x1c
 10634 3928 04       		.uleb128 0x4
 10635 3929 E5080000 		.4byte	.LASF778
 10636 392d 3F       		.byte	0x3f
 10637 392e 73       		.byte	0x73
 10638 392f 6B0B0000 		.4byte	0xb6b
 10639 3933 20       		.byte	0x20
 10640 3934 04       		.uleb128 0x4
 10641 3935 241E0000 		.4byte	.LASF779
 10642 3939 3F       		.byte	0x3f
 10643 393a 75       		.byte	0x75
 10644 393b 6B0B0000 		.4byte	0xb6b
 10645 393f 24       		.byte	0x24
 10646 3940 04       		.uleb128 0x4
 10647 3941 99000000 		.4byte	.LASF780
 10648 3945 3F       		.byte	0x3f
 10649 3946 76       		.byte	0x76
 10650 3947 6B0B0000 		.4byte	0xb6b
 10651 394b 28       		.byte	0x28
 10652 394c 04       		.uleb128 0x4
 10653 394d AD1E0000 		.4byte	.LASF781
 10654 3951 3F       		.byte	0x3f
 10655 3952 78       		.byte	0x78
 10656 3953 6B0B0000 		.4byte	0xb6b
 10657 3957 2C       		.byte	0x2c
 10658 3958 04       		.uleb128 0x4
 10659 3959 E90F0000 		.4byte	.LASF782
 10660 395d 3F       		.byte	0x3f
 10661 395e 7A       		.byte	0x7a
 10662 395f 6B0B0000 		.4byte	0xb6b
 10663 3963 30       		.byte	0x30
 10664 3964 04       		.uleb128 0x4
 10665 3965 18280000 		.4byte	.LASF783
 10666 3969 3F       		.byte	0x3f
 10667 396a 7B       		.byte	0x7b
 10668 396b 6B0B0000 		.4byte	0xb6b
 10669 396f 34       		.byte	0x34
 10670 3970 04       		.uleb128 0x4
 10671 3971 09020000 		.4byte	.LASF784
 10672 3975 3F       		.byte	0x3f
 10673 3976 7C       		.byte	0x7c
 10674 3977 6B0B0000 		.4byte	0xb6b
 10675 397b 38       		.byte	0x38
 10676 397c 12       		.uleb128 0x12
 10677 397d 43494400 		.ascii	"CID\000"
ARM GAS  /var/folders/qd/4mxf5pkd0zdf0b9dd1hp39180000gn/T//ccn3RVaQ.s 			page 189


 10678 3981 3F       		.byte	0x3f
 10679 3982 7D       		.byte	0x7d
 10680 3983 6B0B0000 		.4byte	0xb6b
 10681 3987 3C       		.byte	0x3c
 10682 3988 04       		.uleb128 0x4
 10683 3989 BB120000 		.4byte	.LASF785
 10684 398d 3F       		.byte	0x3f
 10685 398e 7E       		.byte	0x7e
 10686 398f AA3B0000 		.4byte	0x3baa
 10687 3993 40       		.byte	0x40
 10688 3994 14       		.uleb128 0x14
 10689 3995 BA260000 		.4byte	.LASF786
 10690 3999 3F       		.byte	0x3f
 10691 399a 7F       		.byte	0x7f
 10692 399b 6B0B0000 		.4byte	0xb6b
 10693 399f 0001     		.2byte	0x100
 10694 39a1 14       		.uleb128 0x14
 10695 39a2 5B020000 		.4byte	.LASF787
 10696 39a6 3F       		.byte	0x3f
 10697 39a7 81       		.byte	0x81
 10698 39a8 35170000 		.4byte	0x1735
 10699 39ac 0401     		.2byte	0x104
 10700 39ae 14       		.uleb128 0x14
 10701 39af 60170000 		.4byte	.LASF788
 10702 39b3 3F       		.byte	0x3f
 10703 39b4 83       		.byte	0x83
 10704 39b5 BF3B0000 		.4byte	0x3bbf
 10705 39b9 4001     		.2byte	0x140
 10706 39bb 14       		.uleb128 0x14
 10707 39bc A91B0000 		.4byte	.LASF789
 10708 39c0 3F       		.byte	0x3f
 10709 39c1 84       		.byte	0x84
 10710 39c2 6B0B0000 		.4byte	0xb6b
 10711 39c6 0004     		.2byte	0x400
 10712 39c8 14       		.uleb128 0x14
 10713 39c9 5A290000 		.4byte	.LASF790
 10714 39cd 3F       		.byte	0x3f
 10715 39ce 85       		.byte	0x85
 10716 39cf 6B0B0000 		.4byte	0xb6b
 10717 39d3 0404     		.2byte	0x404
 10718 39d5 14       		.uleb128 0x14
 10719 39d6 94040000 		.4byte	.LASF791
 10720 39da 3F       		.byte	0x3f
 10721 39db 86       		.byte	0x86
 10722 39dc 6B0B0000 		.4byte	0xb6b
 10723 39e0 0804     		.2byte	0x408
 10724 39e2 14       		.uleb128 0x14
 10725 39e3 25260000 		.4byte	.LASF792
 10726 39e7 3F       		.byte	0x3f
 10727 39e8 88       		.byte	0x88
 10728 39e9 6B0B0000 		.4byte	0xb6b
 10729 39ed 0C04     		.2byte	0x40c
 10730 39ef 14       		.uleb128 0x14
 10731 39f0 45030000 		.4byte	.LASF793
 10732 39f4 3F       		.byte	0x3f
 10733 39f5 89       		.byte	0x89
 10734 39f6 6B0B0000 		.4byte	0xb6b
ARM GAS  /var/folders/qd/4mxf5pkd0zdf0b9dd1hp39180000gn/T//ccn3RVaQ.s 			page 190


 10735 39fa 1004     		.2byte	0x410
 10736 39fc 14       		.uleb128 0x14
 10737 39fd 5A040000 		.4byte	.LASF794
 10738 3a01 3F       		.byte	0x3f
 10739 3a02 8B       		.byte	0x8b
 10740 3a03 6B0B0000 		.4byte	0xb6b
 10741 3a07 1404     		.2byte	0x414
 10742 3a09 14       		.uleb128 0x14
 10743 3a0a 530D0000 		.4byte	.LASF795
 10744 3a0e 3F       		.byte	0x3f
 10745 3a0f 8D       		.byte	0x8d
 10746 3a10 6B0B0000 		.4byte	0xb6b
 10747 3a14 1804     		.2byte	0x418
 10748 3a16 14       		.uleb128 0x14
 10749 3a17 68210000 		.4byte	.LASF796
 10750 3a1b 3F       		.byte	0x3f
 10751 3a1c 8F       		.byte	0x8f
 10752 3a1d D43B0000 		.4byte	0x3bd4
 10753 3a21 1C04     		.2byte	0x41c
 10754 3a23 14       		.uleb128 0x14
 10755 3a24 CB020000 		.4byte	.LASF797
 10756 3a28 3F       		.byte	0x3f
 10757 3a29 90       		.byte	0x90
 10758 3a2a 6B0B0000 		.4byte	0xb6b
 10759 3a2e 4004     		.2byte	0x440
 10760 3a30 14       		.uleb128 0x14
 10761 3a31 68230000 		.4byte	.LASF798
 10762 3a35 3F       		.byte	0x3f
 10763 3a36 92       		.byte	0x92
 10764 3a37 E93B0000 		.4byte	0x3be9
 10765 3a3b 4404     		.2byte	0x444
 10766 3a3d 2F       		.uleb128 0x2f
 10767 3a3e 686300   		.ascii	"hc\000"
 10768 3a41 3F       		.byte	0x3f
 10769 3a42 93       		.byte	0x93
 10770 3a43 EE3B0000 		.4byte	0x3bee
 10771 3a47 0005     		.2byte	0x500
 10772 3a49 14       		.uleb128 0x14
 10773 3a4a 6E260000 		.4byte	.LASF799
 10774 3a4e 3F       		.byte	0x3f
 10775 3a4f 94       		.byte	0x94
 10776 3a50 0E3C0000 		.4byte	0x3c0e
 10777 3a54 0007     		.2byte	0x700
 10778 3a56 14       		.uleb128 0x14
 10779 3a57 8F1E0000 		.4byte	.LASF800
 10780 3a5b 3F       		.byte	0x3f
 10781 3a5c 95       		.byte	0x95
 10782 3a5d 6B0B0000 		.4byte	0xb6b
 10783 3a61 0008     		.2byte	0x800
 10784 3a63 14       		.uleb128 0x14
 10785 3a64 8E270000 		.4byte	.LASF801
 10786 3a68 3F       		.byte	0x3f
 10787 3a69 96       		.byte	0x96
 10788 3a6a 6B0B0000 		.4byte	0xb6b
 10789 3a6e 0408     		.2byte	0x804
 10790 3a70 14       		.uleb128 0x14
 10791 3a71 1E060000 		.4byte	.LASF802
ARM GAS  /var/folders/qd/4mxf5pkd0zdf0b9dd1hp39180000gn/T//ccn3RVaQ.s 			page 191


 10792 3a75 3F       		.byte	0x3f
 10793 3a76 97       		.byte	0x97
 10794 3a77 6B0B0000 		.4byte	0xb6b
 10795 3a7b 0808     		.2byte	0x808
 10796 3a7d 14       		.uleb128 0x14
 10797 3a7e 2A050000 		.4byte	.LASF803
 10798 3a82 3F       		.byte	0x3f
 10799 3a83 98       		.byte	0x98
 10800 3a84 6B0B0000 		.4byte	0xb6b
 10801 3a88 0C08     		.2byte	0x80c
 10802 3a8a 14       		.uleb128 0x14
 10803 3a8b 3C0D0000 		.4byte	.LASF804
 10804 3a8f 3F       		.byte	0x3f
 10805 3a90 99       		.byte	0x99
 10806 3a91 6B0B0000 		.4byte	0xb6b
 10807 3a95 1008     		.2byte	0x810
 10808 3a97 14       		.uleb128 0x14
 10809 3a98 9A240000 		.4byte	.LASF805
 10810 3a9c 3F       		.byte	0x3f
 10811 3a9d 9B       		.byte	0x9b
 10812 3a9e 6B0B0000 		.4byte	0xb6b
 10813 3aa2 1408     		.2byte	0x814
 10814 3aa4 14       		.uleb128 0x14
 10815 3aa5 1C250000 		.4byte	.LASF806
 10816 3aa9 3F       		.byte	0x3f
 10817 3aaa 9D       		.byte	0x9d
 10818 3aab 6B0B0000 		.4byte	0xb6b
 10819 3aaf 1808     		.2byte	0x818
 10820 3ab1 14       		.uleb128 0x14
 10821 3ab2 F7210000 		.4byte	.LASF807
 10822 3ab6 3F       		.byte	0x3f
 10823 3ab7 9F       		.byte	0x9f
 10824 3ab8 6B0B0000 		.4byte	0xb6b
 10825 3abc 1C08     		.2byte	0x81c
 10826 3abe 14       		.uleb128 0x14
 10827 3abf 85060000 		.4byte	.LASF808
 10828 3ac3 3F       		.byte	0x3f
 10829 3ac4 A1       		.byte	0xa1
 10830 3ac5 6B0B0000 		.4byte	0xb6b
 10831 3ac9 2008     		.2byte	0x820
 10832 3acb 14       		.uleb128 0x14
 10833 3acc 89050000 		.4byte	.LASF809
 10834 3ad0 3F       		.byte	0x3f
 10835 3ad1 A2       		.byte	0xa2
 10836 3ad2 6B0B0000 		.4byte	0xb6b
 10837 3ad6 2408     		.2byte	0x824
 10838 3ad8 14       		.uleb128 0x14
 10839 3ad9 9C1E0000 		.4byte	.LASF810
 10840 3add 3F       		.byte	0x3f
 10841 3ade A3       		.byte	0xa3
 10842 3adf 6B0B0000 		.4byte	0xb6b
 10843 3ae3 2808     		.2byte	0x828
 10844 3ae5 14       		.uleb128 0x14
 10845 3ae6 07100000 		.4byte	.LASF811
 10846 3aea 3F       		.byte	0x3f
 10847 3aeb A5       		.byte	0xa5
 10848 3aec 6B0B0000 		.4byte	0xb6b
ARM GAS  /var/folders/qd/4mxf5pkd0zdf0b9dd1hp39180000gn/T//ccn3RVaQ.s 			page 192


 10849 3af0 2C08     		.2byte	0x82c
 10850 3af2 14       		.uleb128 0x14
 10851 3af3 5C070000 		.4byte	.LASF812
 10852 3af7 3F       		.byte	0x3f
 10853 3af8 A7       		.byte	0xa7
 10854 3af9 6B0B0000 		.4byte	0xb6b
 10855 3afd 3008     		.2byte	0x830
 10856 3aff 14       		.uleb128 0x14
 10857 3b00 270F0000 		.4byte	.LASF813
 10858 3b04 3F       		.byte	0x3f
 10859 3b05 A8       		.byte	0xa8
 10860 3b06 6B0B0000 		.4byte	0xb6b
 10861 3b0a 3408     		.2byte	0x834
 10862 3b0c 14       		.uleb128 0x14
 10863 3b0d 6A070000 		.4byte	.LASF814
 10864 3b11 3F       		.byte	0x3f
 10865 3b12 AA       		.byte	0xaa
 10866 3b13 6B0B0000 		.4byte	0xb6b
 10867 3b17 3808     		.2byte	0x838
 10868 3b19 14       		.uleb128 0x14
 10869 3b1a 82070000 		.4byte	.LASF815
 10870 3b1e 3F       		.byte	0x3f
 10871 3b1f AB       		.byte	0xab
 10872 3b20 6B0B0000 		.4byte	0xb6b
 10873 3b24 3C08     		.2byte	0x83c
 10874 3b26 14       		.uleb128 0x14
 10875 3b27 79080000 		.4byte	.LASF816
 10876 3b2b 3F       		.byte	0x3f
 10877 3b2c AC       		.byte	0xac
 10878 3b2d 233C0000 		.4byte	0x3c23
 10879 3b31 4008     		.2byte	0x840
 10880 3b33 14       		.uleb128 0x14
 10881 3b34 BE0E0000 		.4byte	.LASF817
 10882 3b38 3F       		.byte	0x3f
 10883 3b39 AD       		.byte	0xad
 10884 3b3a 233C0000 		.4byte	0x3c23
 10885 3b3e 8008     		.2byte	0x880
 10886 3b40 14       		.uleb128 0x14
 10887 3b41 06140000 		.4byte	.LASF818
 10888 3b45 3F       		.byte	0x3f
 10889 3b46 AE       		.byte	0xae
 10890 3b47 233C0000 		.4byte	0x3c23
 10891 3b4b C008     		.2byte	0x8c0
 10892 3b4d 2F       		.uleb128 0x2f
 10893 3b4e 696500   		.ascii	"ie\000"
 10894 3b51 3F       		.byte	0x3f
 10895 3b52 AF       		.byte	0xaf
 10896 3b53 283C0000 		.4byte	0x3c28
 10897 3b57 0009     		.2byte	0x900
 10898 3b59 2F       		.uleb128 0x2f
 10899 3b5a 6F6500   		.ascii	"oe\000"
 10900 3b5d 3F       		.byte	0x3f
 10901 3b5e B0       		.byte	0xb0
 10902 3b5f 383C0000 		.4byte	0x3c38
 10903 3b63 000B     		.2byte	0xb00
 10904 3b65 14       		.uleb128 0x14
 10905 3b66 4E0C0000 		.4byte	.LASF819
ARM GAS  /var/folders/qd/4mxf5pkd0zdf0b9dd1hp39180000gn/T//ccn3RVaQ.s 			page 193


 10906 3b6a 3F       		.byte	0x3f
 10907 3b6b B1       		.byte	0xb1
 10908 3b6c 0E3C0000 		.4byte	0x3c0e
 10909 3b70 000D     		.2byte	0xd00
 10910 3b72 14       		.uleb128 0x14
 10911 3b73 AE270000 		.4byte	.LASF820
 10912 3b77 3F       		.byte	0x3f
 10913 3b78 B2       		.byte	0xb2
 10914 3b79 6B0B0000 		.4byte	0xb6b
 10915 3b7d 000E     		.2byte	0xe00
 10916 3b7f 14       		.uleb128 0x14
 10917 3b80 221B0000 		.4byte	.LASF821
 10918 3b84 3F       		.byte	0x3f
 10919 3b85 B4       		.byte	0xb4
 10920 3b86 583C0000 		.4byte	0x3c58
 10921 3b8a 040E     		.2byte	0xe04
 10922 3b8c 14       		.uleb128 0x14
 10923 3b8d 8D0A0000 		.4byte	.LASF320
 10924 3b91 3F       		.byte	0x3f
 10925 3b92 B5       		.byte	0xb5
 10926 3b93 743C0000 		.4byte	0x3c74
 10927 3b97 0010     		.2byte	0x1000
 10928 3b99 00       		.byte	0
 10929 3b9a 0D       		.uleb128 0xd
 10930 3b9b 6B0B0000 		.4byte	0xb6b
 10931 3b9f AA3B0000 		.4byte	0x3baa
 10932 3ba3 0E       		.uleb128 0xe
 10933 3ba4 2C000000 		.4byte	0x2c
 10934 3ba8 2F       		.byte	0x2f
 10935 3ba9 00       		.byte	0
 10936 3baa 1B       		.uleb128 0x1b
 10937 3bab 9A3B0000 		.4byte	0x3b9a
 10938 3baf 0D       		.uleb128 0xd
 10939 3bb0 6B0B0000 		.4byte	0xb6b
 10940 3bb4 BF3B0000 		.4byte	0x3bbf
 10941 3bb8 0E       		.uleb128 0xe
 10942 3bb9 2C000000 		.4byte	0x2c
 10943 3bbd AF       		.byte	0xaf
 10944 3bbe 00       		.byte	0
 10945 3bbf 1B       		.uleb128 0x1b
 10946 3bc0 AF3B0000 		.4byte	0x3baf
 10947 3bc4 0D       		.uleb128 0xd
 10948 3bc5 6B0B0000 		.4byte	0xb6b
 10949 3bc9 D43B0000 		.4byte	0x3bd4
 10950 3bcd 0E       		.uleb128 0xe
 10951 3bce 2C000000 		.4byte	0x2c
 10952 3bd2 08       		.byte	0x8
 10953 3bd3 00       		.byte	0
 10954 3bd4 1B       		.uleb128 0x1b
 10955 3bd5 C43B0000 		.4byte	0x3bc4
 10956 3bd9 0D       		.uleb128 0xd
 10957 3bda 6B0B0000 		.4byte	0xb6b
 10958 3bde E93B0000 		.4byte	0x3be9
 10959 3be2 0E       		.uleb128 0xe
 10960 3be3 2C000000 		.4byte	0x2c
 10961 3be7 2E       		.byte	0x2e
 10962 3be8 00       		.byte	0
ARM GAS  /var/folders/qd/4mxf5pkd0zdf0b9dd1hp39180000gn/T//ccn3RVaQ.s 			page 194


 10963 3be9 1B       		.uleb128 0x1b
 10964 3bea D93B0000 		.4byte	0x3bd9
 10965 3bee 0D       		.uleb128 0xd
 10966 3bef CA370000 		.4byte	0x37ca
 10967 3bf3 FE3B0000 		.4byte	0x3bfe
 10968 3bf7 0E       		.uleb128 0xe
 10969 3bf8 2C000000 		.4byte	0x2c
 10970 3bfc 0F       		.byte	0xf
 10971 3bfd 00       		.byte	0
 10972 3bfe 0D       		.uleb128 0xd
 10973 3bff 6B0B0000 		.4byte	0xb6b
 10974 3c03 0E3C0000 		.4byte	0x3c0e
 10975 3c07 0E       		.uleb128 0xe
 10976 3c08 2C000000 		.4byte	0x2c
 10977 3c0c 3F       		.byte	0x3f
 10978 3c0d 00       		.byte	0
 10979 3c0e 1B       		.uleb128 0x1b
 10980 3c0f FE3B0000 		.4byte	0x3bfe
 10981 3c13 0D       		.uleb128 0xd
 10982 3c14 6B0B0000 		.4byte	0xb6b
 10983 3c18 233C0000 		.4byte	0x3c23
 10984 3c1c 0E       		.uleb128 0xe
 10985 3c1d 2C000000 		.4byte	0x2c
 10986 3c21 0F       		.byte	0xf
 10987 3c22 00       		.byte	0
 10988 3c23 1B       		.uleb128 0x1b
 10989 3c24 133C0000 		.4byte	0x3c13
 10990 3c28 0D       		.uleb128 0xd
 10991 3c29 3E380000 		.4byte	0x383e
 10992 3c2d 383C0000 		.4byte	0x3c38
 10993 3c31 0E       		.uleb128 0xe
 10994 3c32 2C000000 		.4byte	0x2c
 10995 3c36 0F       		.byte	0xf
 10996 3c37 00       		.byte	0
 10997 3c38 0D       		.uleb128 0xd
 10998 3c39 B2380000 		.4byte	0x38b2
 10999 3c3d 483C0000 		.4byte	0x3c48
 11000 3c41 0E       		.uleb128 0xe
 11001 3c42 2C000000 		.4byte	0x2c
 11002 3c46 0F       		.byte	0xf
 11003 3c47 00       		.byte	0
 11004 3c48 0D       		.uleb128 0xd
 11005 3c49 6B0B0000 		.4byte	0xb6b
 11006 3c4d 583C0000 		.4byte	0x3c58
 11007 3c51 0E       		.uleb128 0xe
 11008 3c52 2C000000 		.4byte	0x2c
 11009 3c56 7E       		.byte	0x7e
 11010 3c57 00       		.byte	0
 11011 3c58 1B       		.uleb128 0x1b
 11012 3c59 483C0000 		.4byte	0x3c48
 11013 3c5d 0D       		.uleb128 0xd
 11014 3c5e 6B0B0000 		.4byte	0xb6b
 11015 3c62 743C0000 		.4byte	0x3c74
 11016 3c66 0E       		.uleb128 0xe
 11017 3c67 2C000000 		.4byte	0x2c
 11018 3c6b 0F       		.byte	0xf
 11019 3c6c 30       		.uleb128 0x30
ARM GAS  /var/folders/qd/4mxf5pkd0zdf0b9dd1hp39180000gn/T//ccn3RVaQ.s 			page 195


 11020 3c6d 2C000000 		.4byte	0x2c
 11021 3c71 FF03     		.2byte	0x3ff
 11022 3c73 00       		.byte	0
 11023 3c74 1B       		.uleb128 0x1b
 11024 3c75 5D3C0000 		.4byte	0x3c5d
 11025 3c79 05       		.uleb128 0x5
 11026 3c7a FF290000 		.4byte	.LASF822
 11027 3c7e 3F       		.byte	0x3f
 11028 3c7f B6       		.byte	0xb6
 11029 3c80 BD380000 		.4byte	0x38bd
 11030 3c84 03       		.uleb128 0x3
 11031 3c85 0C       		.byte	0xc
 11032 3c86 3E       		.byte	0x3e
 11033 3c87 C6       		.byte	0xc6
 11034 3c88 B13C0000 		.4byte	0x3cb1
 11035 3c8c 04       		.uleb128 0x4
 11036 3c8d 0A0A0000 		.4byte	.LASF823
 11037 3c91 3E       		.byte	0x3e
 11038 3c92 C7       		.byte	0xc7
 11039 3c93 600B0000 		.4byte	0xb60
 11040 3c97 00       		.byte	0
 11041 3c98 04       		.uleb128 0x4
 11042 3c99 2E0C0000 		.4byte	.LASF824
 11043 3c9d 3E       		.byte	0x3e
 11044 3c9e C8       		.byte	0xc8
 11045 3c9f 600B0000 		.4byte	0xb60
 11046 3ca3 04       		.byte	0x4
 11047 3ca4 04       		.uleb128 0x4
 11048 3ca5 61100000 		.4byte	.LASF825
 11049 3ca9 3E       		.byte	0x3e
 11050 3caa C9       		.byte	0xc9
 11051 3cab 600B0000 		.4byte	0xb60
 11052 3caf 08       		.byte	0x8
 11053 3cb0 00       		.byte	0
 11054 3cb1 05       		.uleb128 0x5
 11055 3cb2 3B0C0000 		.4byte	.LASF826
 11056 3cb6 3E       		.byte	0x3e
 11057 3cb7 CA       		.byte	0xca
 11058 3cb8 843C0000 		.4byte	0x3c84
 11059 3cbc 10       		.uleb128 0x10
 11060 3cbd B13C0000 		.4byte	0x3cb1
 11061 3cc1 03       		.uleb128 0x3
 11062 3cc2 04       		.byte	0x4
 11063 3cc3 3E       		.byte	0x3e
 11064 3cc4 DD       		.byte	0xdd
 11065 3cc5 D63C0000 		.4byte	0x3cd6
 11066 3cc9 04       		.uleb128 0x4
 11067 3cca A8270000 		.4byte	.LASF827
 11068 3cce 3E       		.byte	0x3e
 11069 3ccf E1       		.byte	0xe1
 11070 3cd0 821D0000 		.4byte	0x1d82
 11071 3cd4 00       		.byte	0
 11072 3cd5 00       		.byte	0
 11073 3cd6 03       		.uleb128 0x3
 11074 3cd7 04       		.byte	0x4
 11075 3cd8 3E       		.byte	0x3e
 11076 3cd9 E3       		.byte	0xe3
ARM GAS  /var/folders/qd/4mxf5pkd0zdf0b9dd1hp39180000gn/T//ccn3RVaQ.s 			page 196


 11077 3cda EB3C0000 		.4byte	0x3ceb
 11078 3cde 04       		.uleb128 0x4
 11079 3cdf 9C0A0000 		.4byte	.LASF513
 11080 3ce3 3E       		.byte	0x3e
 11081 3ce4 E7       		.byte	0xe7
 11082 3ce5 EB3C0000 		.4byte	0x3ceb
 11083 3ce9 00       		.byte	0
 11084 3cea 00       		.byte	0
 11085 3ceb 08       		.uleb128 0x8
 11086 3cec 04       		.byte	0x4
 11087 3ced 5E1D0000 		.4byte	0x1d5e
 11088 3cf1 0B       		.uleb128 0xb
 11089 3cf2 04       		.byte	0x4
 11090 3cf3 3E       		.byte	0x3e
 11091 3cf4 DC       		.byte	0xdc
 11092 3cf5 103D0000 		.4byte	0x3d10
 11093 3cf9 0C       		.uleb128 0xc
 11094 3cfa 9D230000 		.4byte	.LASF828
 11095 3cfe 3E       		.byte	0x3e
 11096 3cff E2       		.byte	0xe2
 11097 3d00 C13C0000 		.4byte	0x3cc1
 11098 3d04 0C       		.uleb128 0xc
 11099 3d05 56220000 		.4byte	.LASF829
 11100 3d09 3E       		.byte	0x3e
 11101 3d0a E8       		.byte	0xe8
 11102 3d0b D63C0000 		.4byte	0x3cd6
 11103 3d0f 00       		.byte	0
 11104 3d10 03       		.uleb128 0x3
 11105 3d11 14       		.byte	0x14
 11106 3d12 3E       		.byte	0x3e
 11107 3d13 CF       		.byte	0xcf
 11108 3d14 553D0000 		.4byte	0x3d55
 11109 3d18 04       		.uleb128 0x4
 11110 3d19 B6080000 		.4byte	.LASF830
 11111 3d1d 3E       		.byte	0x3e
 11112 3d1e D3       		.byte	0xd3
 11113 3d1f 5B000000 		.4byte	0x5b
 11114 3d23 00       		.byte	0
 11115 3d24 04       		.uleb128 0x4
 11116 3d25 AA150000 		.4byte	.LASF831
 11117 3d29 3E       		.byte	0x3e
 11118 3d2a D7       		.byte	0xd7
 11119 3d2b 7F000000 		.4byte	0x7f
 11120 3d2f 04       		.byte	0x4
 11121 3d30 04       		.uleb128 0x4
 11122 3d31 F50B0000 		.4byte	.LASF832
 11123 3d35 3E       		.byte	0x3e
 11124 3d36 DB       		.byte	0xdb
 11125 3d37 7F000000 		.4byte	0x7f
 11126 3d3b 08       		.byte	0x8
 11127 3d3c 04       		.uleb128 0x4
 11128 3d3d 75090000 		.4byte	.LASF559
 11129 3d41 3E       		.byte	0x3e
 11130 3d42 E9       		.byte	0xe9
 11131 3d43 F13C0000 		.4byte	0x3cf1
 11132 3d47 0C       		.byte	0xc
 11133 3d48 04       		.uleb128 0x4
ARM GAS  /var/folders/qd/4mxf5pkd0zdf0b9dd1hp39180000gn/T//ccn3RVaQ.s 			page 197


 11134 3d49 79100000 		.4byte	.LASF833
 11135 3d4d 3E       		.byte	0x3e
 11136 3d4e ED       		.byte	0xed
 11137 3d4f 7F000000 		.4byte	0x7f
 11138 3d53 10       		.byte	0x10
 11139 3d54 00       		.byte	0
 11140 3d55 05       		.uleb128 0x5
 11141 3d56 C3120000 		.4byte	.LASF834
 11142 3d5a 3E       		.byte	0x3e
 11143 3d5b EE       		.byte	0xee
 11144 3d5c 103D0000 		.4byte	0x3d10
 11145 3d60 1D       		.uleb128 0x1d
 11146 3d61 04       		.byte	0x4
 11147 3d62 3E       		.byte	0x3e
 11148 3d63 0101     		.2byte	0x101
 11149 3d65 773D0000 		.4byte	0x3d77
 11150 3d69 19       		.uleb128 0x19
 11151 3d6a 5E0C0000 		.4byte	.LASF835
 11152 3d6e 3E       		.byte	0x3e
 11153 3d6f 0501     		.2byte	0x105
 11154 3d71 4D1D0000 		.4byte	0x1d4d
 11155 3d75 00       		.byte	0
 11156 3d76 00       		.byte	0
 11157 3d77 1D       		.uleb128 0x1d
 11158 3d78 04       		.byte	0x4
 11159 3d79 3E       		.byte	0x3e
 11160 3d7a 0701     		.2byte	0x107
 11161 3d7c 8E3D0000 		.4byte	0x3d8e
 11162 3d80 19       		.uleb128 0x19
 11163 3d81 58230000 		.4byte	.LASF514
 11164 3d85 3E       		.byte	0x3e
 11165 3d86 0B01     		.2byte	0x10b
 11166 3d88 8E3D0000 		.4byte	0x3d8e
 11167 3d8c 00       		.byte	0
 11168 3d8d 00       		.byte	0
 11169 3d8e 08       		.uleb128 0x8
 11170 3d8f 04       		.byte	0x4
 11171 3d90 531D0000 		.4byte	0x1d53
 11172 3d94 1E       		.uleb128 0x1e
 11173 3d95 04       		.byte	0x4
 11174 3d96 3E       		.byte	0x3e
 11175 3d97 0001     		.2byte	0x100
 11176 3d99 B63D0000 		.4byte	0x3db6
 11177 3d9d 1F       		.uleb128 0x1f
 11178 3d9e 9D230000 		.4byte	.LASF828
 11179 3da2 3E       		.byte	0x3e
 11180 3da3 0601     		.2byte	0x106
 11181 3da5 603D0000 		.4byte	0x3d60
 11182 3da9 1F       		.uleb128 0x1f
 11183 3daa 56220000 		.4byte	.LASF829
 11184 3dae 3E       		.byte	0x3e
 11185 3daf 0C01     		.2byte	0x10c
 11186 3db1 773D0000 		.4byte	0x3d77
 11187 3db5 00       		.byte	0
 11188 3db6 03       		.uleb128 0x3
 11189 3db7 14       		.byte	0x14
 11190 3db8 3E       		.byte	0x3e
ARM GAS  /var/folders/qd/4mxf5pkd0zdf0b9dd1hp39180000gn/T//ccn3RVaQ.s 			page 198


 11191 3db9 F3       		.byte	0xf3
 11192 3dba FD3D0000 		.4byte	0x3dfd
 11193 3dbe 04       		.uleb128 0x4
 11194 3dbf 5C060000 		.4byte	.LASF836
 11195 3dc3 3E       		.byte	0x3e
 11196 3dc4 F7       		.byte	0xf7
 11197 3dc5 5B000000 		.4byte	0x5b
 11198 3dc9 00       		.byte	0
 11199 3dca 04       		.uleb128 0x4
 11200 3dcb CE160000 		.4byte	.LASF837
 11201 3dcf 3E       		.byte	0x3e
 11202 3dd0 FB       		.byte	0xfb
 11203 3dd1 7F000000 		.4byte	0x7f
 11204 3dd5 04       		.byte	0x4
 11205 3dd6 04       		.uleb128 0x4
 11206 3dd7 50090000 		.4byte	.LASF838
 11207 3ddb 3E       		.byte	0x3e
 11208 3ddc FF       		.byte	0xff
 11209 3ddd 7F000000 		.4byte	0x7f
 11210 3de1 08       		.byte	0x8
 11211 3de2 19       		.uleb128 0x19
 11212 3de3 75090000 		.4byte	.LASF559
 11213 3de7 3E       		.byte	0x3e
 11214 3de8 0D01     		.2byte	0x10d
 11215 3dea 943D0000 		.4byte	0x3d94
 11216 3dee 0C       		.byte	0xc
 11217 3def 19       		.uleb128 0x19
 11218 3df0 79100000 		.4byte	.LASF833
 11219 3df4 3E       		.byte	0x3e
 11220 3df5 1101     		.2byte	0x111
 11221 3df7 7F000000 		.4byte	0x7f
 11222 3dfb 10       		.byte	0x10
 11223 3dfc 00       		.byte	0
 11224 3dfd 0A       		.uleb128 0xa
 11225 3dfe 54210000 		.4byte	.LASF839
 11226 3e02 3E       		.byte	0x3e
 11227 3e03 1201     		.2byte	0x112
 11228 3e05 B63D0000 		.4byte	0x3db6
 11229 3e09 1D       		.uleb128 0x1d
 11230 3e0a 24       		.byte	0x24
 11231 3e0b 3E       		.byte	0x3e
 11232 3e0c 1801     		.2byte	0x118
 11233 3e0e 953E0000 		.4byte	0x3e95
 11234 3e12 19       		.uleb128 0x19
 11235 3e13 E31A0000 		.4byte	.LASF840
 11236 3e17 3E       		.byte	0x3e
 11237 3e18 1C01     		.2byte	0x11c
 11238 3e1a 600B0000 		.4byte	0xb60
 11239 3e1e 00       		.byte	0
 11240 3e1f 19       		.uleb128 0x19
 11241 3e20 6E0A0000 		.4byte	.LASF841
 11242 3e24 3E       		.byte	0x3e
 11243 3e25 2701     		.2byte	0x127
 11244 3e27 C6360000 		.4byte	0x36c6
 11245 3e2b 04       		.byte	0x4
 11246 3e2c 19       		.uleb128 0x19
 11247 3e2d 041C0000 		.4byte	.LASF842
ARM GAS  /var/folders/qd/4mxf5pkd0zdf0b9dd1hp39180000gn/T//ccn3RVaQ.s 			page 199


 11248 3e31 3E       		.byte	0x3e
 11249 3e32 2D01     		.2byte	0x12d
 11250 3e34 C6360000 		.4byte	0x36c6
 11251 3e38 08       		.byte	0x8
 11252 3e39 19       		.uleb128 0x19
 11253 3e3a 4C0D0000 		.4byte	.LASF843
 11254 3e3e 3E       		.byte	0x3e
 11255 3e3f 3301     		.2byte	0x133
 11256 3e41 C6360000 		.4byte	0x36c6
 11257 3e45 0C       		.byte	0xc
 11258 3e46 19       		.uleb128 0x19
 11259 3e47 432A0000 		.4byte	.LASF844
 11260 3e4b 3E       		.byte	0x3e
 11261 3e4c 3901     		.2byte	0x139
 11262 3e4e 450B0000 		.4byte	0xb45
 11263 3e52 10       		.byte	0x10
 11264 3e53 19       		.uleb128 0x19
 11265 3e54 A80D0000 		.4byte	.LASF845
 11266 3e58 3E       		.byte	0x3e
 11267 3e59 3F01     		.2byte	0x13f
 11268 3e5b 450B0000 		.4byte	0xb45
 11269 3e5f 12       		.byte	0x12
 11270 3e60 19       		.uleb128 0x19
 11271 3e61 E1280000 		.4byte	.LASF846
 11272 3e65 3E       		.byte	0x3e
 11273 3e66 4401     		.2byte	0x144
 11274 3e68 953E0000 		.4byte	0x3e95
 11275 3e6c 14       		.byte	0x14
 11276 3e6d 19       		.uleb128 0x19
 11277 3e6e 700F0000 		.4byte	.LASF847
 11278 3e72 3E       		.byte	0x3e
 11279 3e73 4901     		.2byte	0x149
 11280 3e75 9B3E0000 		.4byte	0x3e9b
 11281 3e79 18       		.byte	0x18
 11282 3e7a 19       		.uleb128 0x19
 11283 3e7b B3140000 		.4byte	.LASF848
 11284 3e7f 3E       		.byte	0x3e
 11285 3e80 5001     		.2byte	0x150
 11286 3e82 450B0000 		.4byte	0xb45
 11287 3e86 1C       		.byte	0x1c
 11288 3e87 19       		.uleb128 0x19
 11289 3e88 0E280000 		.4byte	.LASF849
 11290 3e8c 3E       		.byte	0x3e
 11291 3e8d 5601     		.2byte	0x156
 11292 3e8f 4D1D0000 		.4byte	0x1d4d
 11293 3e93 20       		.byte	0x20
 11294 3e94 00       		.byte	0
 11295 3e95 08       		.uleb128 0x8
 11296 3e96 04       		.byte	0x4
 11297 3e97 553D0000 		.4byte	0x3d55
 11298 3e9b 08       		.uleb128 0x8
 11299 3e9c 04       		.byte	0x4
 11300 3e9d FD3D0000 		.4byte	0x3dfd
 11301 3ea1 0A       		.uleb128 0xa
 11302 3ea2 28230000 		.4byte	.LASF850
 11303 3ea6 3E       		.byte	0x3e
 11304 3ea7 5701     		.2byte	0x157
ARM GAS  /var/folders/qd/4mxf5pkd0zdf0b9dd1hp39180000gn/T//ccn3RVaQ.s 			page 200


 11305 3ea9 093E0000 		.4byte	0x3e09
 11306 3ead 10       		.uleb128 0x10
 11307 3eae A13E0000 		.4byte	0x3ea1
 11308 3eb2 1D       		.uleb128 0x1d
 11309 3eb3 10       		.byte	0x10
 11310 3eb4 3E       		.byte	0x3e
 11311 3eb5 5C01     		.2byte	0x15c
 11312 3eb7 F03E0000 		.4byte	0x3ef0
 11313 3ebb 19       		.uleb128 0x19
 11314 3ebc 33050000 		.4byte	.LASF851
 11315 3ec0 3E       		.byte	0x3e
 11316 3ec1 6101     		.2byte	0x161
 11317 3ec3 E8360000 		.4byte	0x36e8
 11318 3ec7 00       		.byte	0
 11319 3ec8 19       		.uleb128 0x19
 11320 3ec9 33270000 		.4byte	.LASF852
 11321 3ecd 3E       		.byte	0x3e
 11322 3ece 6601     		.2byte	0x166
 11323 3ed0 2B370000 		.4byte	0x372b
 11324 3ed4 04       		.byte	0x4
 11325 3ed5 19       		.uleb128 0x19
 11326 3ed6 69150000 		.4byte	.LASF853
 11327 3eda 3E       		.byte	0x3e
 11328 3edb 6C01     		.2byte	0x16c
 11329 3edd 0A370000 		.4byte	0x370a
 11330 3ee1 08       		.byte	0x8
 11331 3ee2 19       		.uleb128 0x19
 11332 3ee3 35020000 		.4byte	.LASF854
 11333 3ee7 3E       		.byte	0x3e
 11334 3ee8 7001     		.2byte	0x170
 11335 3eea A3360000 		.4byte	0x36a3
 11336 3eee 0C       		.byte	0xc
 11337 3eef 00       		.byte	0
 11338 3ef0 0A       		.uleb128 0xa
 11339 3ef1 0F140000 		.4byte	.LASF855
 11340 3ef5 3E       		.byte	0x3e
 11341 3ef6 7201     		.2byte	0x172
 11342 3ef8 B23E0000 		.4byte	0x3eb2
 11343 3efc 10       		.uleb128 0x10
 11344 3efd F03E0000 		.4byte	0x3ef0
 11345 3f01 08       		.uleb128 0x8
 11346 3f02 04       		.byte	0x4
 11347 3f03 FC3E0000 		.4byte	0x3efc
 11348 3f07 0D       		.uleb128 0xd
 11349 3f08 173F0000 		.4byte	0x3f17
 11350 3f0c 173F0000 		.4byte	0x3f17
 11351 3f10 0E       		.uleb128 0xe
 11352 3f11 2C000000 		.4byte	0x2c
 11353 3f15 03       		.byte	0x3
 11354 3f16 00       		.byte	0
 11355 3f17 08       		.uleb128 0x8
 11356 3f18 04       		.byte	0x4
 11357 3f19 AD3E0000 		.4byte	0x3ead
 11358 3f1d 0D       		.uleb128 0xd
 11359 3f1e A2010000 		.4byte	0x1a2
 11360 3f22 2D3F0000 		.4byte	0x3f2d
 11361 3f26 0E       		.uleb128 0xe
ARM GAS  /var/folders/qd/4mxf5pkd0zdf0b9dd1hp39180000gn/T//ccn3RVaQ.s 			page 201


 11362 3f27 2C000000 		.4byte	0x2c
 11363 3f2b 02       		.byte	0x2
 11364 3f2c 00       		.byte	0
 11365 3f2d 08       		.uleb128 0x8
 11366 3f2e 04       		.byte	0x4
 11367 3f2f 793C0000 		.4byte	0x3c79
 11368 3f33 08       		.uleb128 0x8
 11369 3f34 04       		.byte	0x4
 11370 3f35 BC3C0000 		.4byte	0x3cbc
 11371 3f39 0D       		.uleb128 0xd
 11372 3f3a 45170000 		.4byte	0x1745
 11373 3f3e 493F0000 		.4byte	0x3f49
 11374 3f42 0E       		.uleb128 0xe
 11375 3f43 2C000000 		.4byte	0x2c
 11376 3f47 3E       		.byte	0x3e
 11377 3f48 00       		.byte	0
 11378 3f49 21       		.uleb128 0x21
 11379 3f4a 7F180000 		.4byte	.LASF856
 11380 3f4e 3E       		.byte	0x3e
 11381 3f4f 0602     		.2byte	0x206
 11382 3f51 6F340000 		.4byte	0x346f
 11383 3f55 31       		.uleb128 0x31
 11384 3f56 2A010000 		.4byte	.LASF857
 11385 3f5a 01       		.byte	0x1
 11386 3f5b 25       		.byte	0x25
 11387 3f5c 480D0000 		.4byte	0xd48
 11388 3f60 31       		.uleb128 0x31
 11389 3f61 D6130000 		.4byte	.LASF858
 11390 3f65 01       		.byte	0x1
 11391 3f66 26       		.byte	0x26
 11392 3f67 480D0000 		.4byte	0xd48
 11393 3f6b 32       		.uleb128 0x32
 11394 3f6c C6220000 		.4byte	.LASF863
 11395 3f70 01       		.byte	0x1
 11396 3f71 27       		.byte	0x27
 11397 3f72 480D0000 		.4byte	0xd48
 11398 3f76 05       		.uleb128 0x5
 11399 3f77 03       		.byte	0x3
 11400 3f78 00000000 		.4byte	motorsControlThread
 11401 3f7c 33       		.uleb128 0x33
 11402 3f7d 6D000000 		.4byte	0x6d
 11403 3f81 01       		.byte	0x1
 11404 3f82 2A       		.byte	0x2a
 11405 3f83 05       		.uleb128 0x5
 11406 3f84 03       		.byte	0x3
 11407 3f85 00000000 		.4byte	history
 11408 3f89 34       		.uleb128 0x34
 11409 3f8a 322A0000 		.4byte	.LASF859
 11410 3f8e 01       		.byte	0x1
 11411 3f8f 2D       		.byte	0x2d
 11412 3f90 191C0000 		.4byte	0x1c19
 11413 3f94 05       		.uleb128 0x5
 11414 3f95 03       		.byte	0x3
 11415 3f96 00000000 		.4byte	wipEndSignal_sem
 11416 3f9a 34       		.uleb128 0x34
 11417 3f9b 561A0000 		.4byte	.LASF860
 11418 3f9f 01       		.byte	0x1
ARM GAS  /var/folders/qd/4mxf5pkd0zdf0b9dd1hp39180000gn/T//ccn3RVaQ.s 			page 202


 11419 3fa0 2E       		.byte	0x2e
 11420 3fa1 191C0000 		.4byte	0x1c19
 11421 3fa5 05       		.uleb128 0x5
 11422 3fa6 03       		.byte	0x3
 11423 3fa7 00000000 		.4byte	wipEndMovingSignal_sem
 11424 3fab 34       		.uleb128 0x34
 11425 3fac 9A210000 		.4byte	.LASF861
 11426 3fb0 01       		.byte	0x1
 11427 3fb1 2F       		.byte	0x2f
 11428 3fb2 191C0000 		.4byte	0x1c19
 11429 3fb6 05       		.uleb128 0x5
 11430 3fb7 03       		.byte	0x3
 11431 3fb8 00000000 		.4byte	isMessage
 11432 3fbc 34       		.uleb128 0x34
 11433 3fbd D7280000 		.4byte	.LASF862
 11434 3fc1 01       		.byte	0x1
 11435 3fc2 31       		.byte	0x31
 11436 3fc3 8A090000 		.4byte	0x98a
 11437 3fc7 05       		.uleb128 0x5
 11438 3fc8 03       		.byte	0x3
 11439 3fc9 00000000 		.4byte	lastOrder
 11440 3fcd 0D       		.uleb128 0xd
 11441 3fce 45170000 		.4byte	0x1745
 11442 3fd2 DD3F0000 		.4byte	0x3fdd
 11443 3fd6 0E       		.uleb128 0xe
 11444 3fd7 2C000000 		.4byte	0x2c
 11445 3fdb AE       		.byte	0xae
 11446 3fdc 00       		.byte	0
 11447 3fdd 32       		.uleb128 0x32
 11448 3fde FA070000 		.4byte	.LASF864
 11449 3fe2 01       		.byte	0x1
 11450 3fe3 D2       		.byte	0xd2
 11451 3fe4 CD3F0000 		.4byte	0x3fcd
 11452 3fe8 05       		.uleb128 0x5
 11453 3fe9 03       		.byte	0x3
 11454 3fea 00000000 		.4byte	changeMotorsStateAsync_wa
 11455 3fee 35       		.uleb128 0x35
 11456 3fef EC0D0000 		.4byte	.LASF865
 11457 3ff3 01       		.byte	0x1
 11458 3ff4 9A01     		.2byte	0x19a
 11459 3ff6 CD3F0000 		.4byte	0x3fcd
 11460 3ffa 05       		.uleb128 0x5
 11461 3ffb 03       		.byte	0x3
 11462 3ffc 00000000 		.4byte	discover_wa
 11463 4000 35       		.uleb128 0x35
 11464 4001 11240000 		.4byte	.LASF866
 11465 4005 01       		.byte	0x1
 11466 4006 B101     		.2byte	0x1b1
 11467 4008 CD3F0000 		.4byte	0x3fcd
 11468 400c 05       		.uleb128 0x5
 11469 400d 03       		.byte	0x3
 11470 400e 00000000 		.4byte	exploration_wa
 11471 4012 36       		.uleb128 0x36
 11472 4013 AE1C0000 		.4byte	.LASF867
 11473 4017 01       		.byte	0x1
 11474 4018 E001     		.2byte	0x1e0
 11475 401a 00000000 		.4byte	.LFB285
ARM GAS  /var/folders/qd/4mxf5pkd0zdf0b9dd1hp39180000gn/T//ccn3RVaQ.s 			page 203


 11476 401e 20000000 		.4byte	.LFE285-.LFB285
 11477 4022 01       		.uleb128 0x1
 11478 4023 9C       		.byte	0x9c
 11479 4024 32400000 		.4byte	0x4032
 11480 4028 37       		.uleb128 0x37
 11481 4029 1C000000 		.4byte	.LVL313
 11482 402d 5A5C0000 		.4byte	0x5c5a
 11483 4031 00       		.byte	0
 11484 4032 36       		.uleb128 0x36
 11485 4033 2F1C0000 		.4byte	.LASF868
 11486 4037 01       		.byte	0x1
 11487 4038 DC01     		.2byte	0x1dc
 11488 403a 00000000 		.4byte	.LFB284
 11489 403e 2C000000 		.4byte	.LFE284-.LFB284
 11490 4042 01       		.uleb128 0x1
 11491 4043 9C       		.byte	0x9c
 11492 4044 86400000 		.4byte	0x4086
 11493 4048 38       		.uleb128 0x38
 11494 4049 CB570000 		.4byte	0x57cb
 11495 404d 0A000000 		.4byte	.LBB564
 11496 4051 30040000 		.4byte	.Ldebug_ranges0+0x430
 11497 4055 01       		.byte	0x1
 11498 4056 DD01     		.2byte	0x1dd
 11499 4058 39       		.uleb128 0x39
 11500 4059 DB570000 		.4byte	0x57db
 11501 405d 06       		.uleb128 0x6
 11502 405e 03       		.byte	0x3
 11503 405f 00000000 		.4byte	wipEndSignal_sem
 11504 4063 9F       		.byte	0x9f
 11505 4064 3A       		.uleb128 0x3a
 11506 4065 1E000000 		.4byte	.LVL311
 11507 4069 635C0000 		.4byte	0x5c63
 11508 406d 7B400000 		.4byte	0x407b
 11509 4071 3B       		.uleb128 0x3b
 11510 4072 01       		.uleb128 0x1
 11511 4073 50       		.byte	0x50
 11512 4074 05       		.uleb128 0x5
 11513 4075 03       		.byte	0x3
 11514 4076 00000000 		.4byte	.LANCHOR6
 11515 407a 00       		.byte	0
 11516 407b 37       		.uleb128 0x37
 11517 407c 22000000 		.4byte	.LVL312
 11518 4080 5A5C0000 		.4byte	0x5c5a
 11519 4084 00       		.byte	0
 11520 4085 00       		.byte	0
 11521 4086 36       		.uleb128 0x36
 11522 4087 CB140000 		.4byte	.LASF869
 11523 408b 01       		.byte	0x1
 11524 408c D701     		.2byte	0x1d7
 11525 408e 00000000 		.4byte	.LFB283
 11526 4092 28000000 		.4byte	.LFE283-.LFB283
 11527 4096 01       		.uleb128 0x1
 11528 4097 9C       		.byte	0x9c
 11529 4098 B9400000 		.4byte	0x40b9
 11530 409c 3A       		.uleb128 0x3a
 11531 409d 1E000000 		.4byte	.LVL308
 11532 40a1 6E5C0000 		.4byte	0x5c6e
ARM GAS  /var/folders/qd/4mxf5pkd0zdf0b9dd1hp39180000gn/T//ccn3RVaQ.s 			page 204


 11533 40a5 AF400000 		.4byte	0x40af
 11534 40a9 3B       		.uleb128 0x3b
 11535 40aa 01       		.uleb128 0x1
 11536 40ab 50       		.byte	0x50
 11537 40ac 01       		.uleb128 0x1
 11538 40ad 30       		.byte	0x30
 11539 40ae 00       		.byte	0
 11540 40af 37       		.uleb128 0x37
 11541 40b0 22000000 		.4byte	.LVL309
 11542 40b4 5A5C0000 		.4byte	0x5c5a
 11543 40b8 00       		.byte	0
 11544 40b9 36       		.uleb128 0x36
 11545 40ba 410E0000 		.4byte	.LASF870
 11546 40be 01       		.byte	0x1
 11547 40bf D201     		.2byte	0x1d2
 11548 40c1 00000000 		.4byte	.LFB282
 11549 40c5 38000000 		.4byte	.LFE282-.LFB282
 11550 40c9 01       		.uleb128 0x1
 11551 40ca 9C       		.byte	0x9c
 11552 40cb 0C410000 		.4byte	0x410c
 11553 40cf 3C       		.uleb128 0x3c
 11554 40d0 1C000000 		.4byte	.LVL306
 11555 40d4 795C0000 		.4byte	0x5c79
 11556 40d8 02410000 		.4byte	0x4102
 11557 40dc 3B       		.uleb128 0x3b
 11558 40dd 01       		.uleb128 0x1
 11559 40de 50       		.byte	0x50
 11560 40df 05       		.uleb128 0x5
 11561 40e0 03       		.byte	0x3
 11562 40e1 00000000 		.4byte	.LANCHOR10
 11563 40e5 3B       		.uleb128 0x3b
 11564 40e6 01       		.uleb128 0x1
 11565 40e7 51       		.byte	0x51
 11566 40e8 03       		.uleb128 0x3
 11567 40e9 0A       		.byte	0xa
 11568 40ea 7805     		.2byte	0x578
 11569 40ec 3B       		.uleb128 0x3b
 11570 40ed 01       		.uleb128 0x1
 11571 40ee 52       		.byte	0x52
 11572 40ef 02       		.uleb128 0x2
 11573 40f0 08       		.byte	0x8
 11574 40f1 42       		.byte	0x42
 11575 40f2 3B       		.uleb128 0x3b
 11576 40f3 01       		.uleb128 0x1
 11577 40f4 53       		.byte	0x53
 11578 40f5 05       		.uleb128 0x5
 11579 40f6 03       		.byte	0x3
 11580 40f7 00000000 		.4byte	exploration
 11581 40fb 3B       		.uleb128 0x3b
 11582 40fc 02       		.uleb128 0x2
 11583 40fd 7D       		.byte	0x7d
 11584 40fe 00       		.sleb128 0
 11585 40ff 01       		.uleb128 0x1
 11586 4100 30       		.byte	0x30
 11587 4101 00       		.byte	0
 11588 4102 37       		.uleb128 0x37
 11589 4103 2C000000 		.4byte	.LVL307
ARM GAS  /var/folders/qd/4mxf5pkd0zdf0b9dd1hp39180000gn/T//ccn3RVaQ.s 			page 205


 11590 4107 5A5C0000 		.4byte	0x5c5a
 11591 410b 00       		.byte	0
 11592 410c 36       		.uleb128 0x36
 11593 410d BC180000 		.4byte	.LASF871
 11594 4111 01       		.byte	0x1
 11595 4112 CD01     		.2byte	0x1cd
 11596 4114 00000000 		.4byte	.LFB281
 11597 4118 38000000 		.4byte	.LFE281-.LFB281
 11598 411c 01       		.uleb128 0x1
 11599 411d 9C       		.byte	0x9c
 11600 411e 5F410000 		.4byte	0x415f
 11601 4122 3C       		.uleb128 0x3c
 11602 4123 1C000000 		.4byte	.LVL304
 11603 4127 795C0000 		.4byte	0x5c79
 11604 412b 55410000 		.4byte	0x4155
 11605 412f 3B       		.uleb128 0x3b
 11606 4130 01       		.uleb128 0x1
 11607 4131 50       		.byte	0x50
 11608 4132 05       		.uleb128 0x5
 11609 4133 03       		.byte	0x3
 11610 4134 00000000 		.4byte	.LANCHOR9
 11611 4138 3B       		.uleb128 0x3b
 11612 4139 01       		.uleb128 0x1
 11613 413a 51       		.byte	0x51
 11614 413b 03       		.uleb128 0x3
 11615 413c 0A       		.byte	0xa
 11616 413d 7805     		.2byte	0x578
 11617 413f 3B       		.uleb128 0x3b
 11618 4140 01       		.uleb128 0x1
 11619 4141 52       		.byte	0x52
 11620 4142 02       		.uleb128 0x2
 11621 4143 08       		.byte	0x8
 11622 4144 47       		.byte	0x47
 11623 4145 3B       		.uleb128 0x3b
 11624 4146 01       		.uleb128 0x1
 11625 4147 53       		.byte	0x53
 11626 4148 05       		.uleb128 0x5
 11627 4149 03       		.byte	0x3
 11628 414a 00000000 		.4byte	discover
 11629 414e 3B       		.uleb128 0x3b
 11630 414f 02       		.uleb128 0x2
 11631 4150 7D       		.byte	0x7d
 11632 4151 00       		.sleb128 0
 11633 4152 01       		.uleb128 0x1
 11634 4153 30       		.byte	0x30
 11635 4154 00       		.byte	0
 11636 4155 37       		.uleb128 0x37
 11637 4156 2C000000 		.4byte	.LVL305
 11638 415a 5A5C0000 		.4byte	0x5c5a
 11639 415e 00       		.byte	0
 11640 415f 36       		.uleb128 0x36
 11641 4160 31120000 		.4byte	.LASF872
 11642 4164 01       		.byte	0x1
 11643 4165 C101     		.2byte	0x1c1
 11644 4167 00000000 		.4byte	.LFB280
 11645 416b 50000000 		.4byte	.LFE280-.LFB280
 11646 416f 01       		.uleb128 0x1
ARM GAS  /var/folders/qd/4mxf5pkd0zdf0b9dd1hp39180000gn/T//ccn3RVaQ.s 			page 206


 11647 4170 9C       		.byte	0x9c
 11648 4171 D6410000 		.4byte	0x41d6
 11649 4175 37       		.uleb128 0x37
 11650 4176 0E000000 		.4byte	.LVL298
 11651 417a 845C0000 		.4byte	0x5c84
 11652 417e 37       		.uleb128 0x37
 11653 417f 12000000 		.4byte	.LVL299
 11654 4183 8F5C0000 		.4byte	0x5c8f
 11655 4187 37       		.uleb128 0x37
 11656 4188 16000000 		.4byte	.LVL300
 11657 418c 9A5C0000 		.4byte	0x5c9a
 11658 4190 37       		.uleb128 0x37
 11659 4191 1A000000 		.4byte	.LVL301
 11660 4195 A55C0000 		.4byte	0x5ca5
 11661 4199 3C       		.uleb128 0x3c
 11662 419a 2C000000 		.4byte	.LVL302
 11663 419e 795C0000 		.4byte	0x5c79
 11664 41a2 CC410000 		.4byte	0x41cc
 11665 41a6 3B       		.uleb128 0x3b
 11666 41a7 01       		.uleb128 0x1
 11667 41a8 50       		.byte	0x50
 11668 41a9 05       		.uleb128 0x5
 11669 41aa 03       		.byte	0x3
 11670 41ab 00000000 		.4byte	.LANCHOR8
 11671 41af 3B       		.uleb128 0x3b
 11672 41b0 01       		.uleb128 0x1
 11673 41b1 51       		.byte	0x51
 11674 41b2 03       		.uleb128 0x3
 11675 41b3 0A       		.byte	0xa
 11676 41b4 7805     		.2byte	0x578
 11677 41b6 3B       		.uleb128 0x3b
 11678 41b7 01       		.uleb128 0x1
 11679 41b8 52       		.byte	0x52
 11680 41b9 02       		.uleb128 0x2
 11681 41ba 08       		.byte	0x8
 11682 41bb 48       		.byte	0x48
 11683 41bc 3B       		.uleb128 0x3b
 11684 41bd 01       		.uleb128 0x1
 11685 41be 53       		.byte	0x53
 11686 41bf 05       		.uleb128 0x5
 11687 41c0 03       		.byte	0x3
 11688 41c1 00000000 		.4byte	changeMotorsStateAsync
 11689 41c5 3B       		.uleb128 0x3b
 11690 41c6 02       		.uleb128 0x2
 11691 41c7 7D       		.byte	0x7d
 11692 41c8 00       		.sleb128 0
 11693 41c9 01       		.uleb128 0x1
 11694 41ca 30       		.byte	0x30
 11695 41cb 00       		.byte	0
 11696 41cc 37       		.uleb128 0x37
 11697 41cd 40000000 		.4byte	.LVL303
 11698 41d1 5A5C0000 		.4byte	0x5c5a
 11699 41d5 00       		.byte	0
 11700 41d6 3D       		.uleb128 0x3d
 11701 41d7 32240000 		.4byte	.LASF4
 11702 41db 01       		.byte	0x1
 11703 41dc B201     		.2byte	0x1b2
ARM GAS  /var/folders/qd/4mxf5pkd0zdf0b9dd1hp39180000gn/T//ccn3RVaQ.s 			page 207


 11704 41de 00000000 		.4byte	.LFB279
 11705 41e2 88000000 		.4byte	.LFE279-.LFB279
 11706 41e6 01       		.uleb128 0x1
 11707 41e7 9C       		.byte	0x9c
 11708 41e8 5D430000 		.4byte	0x435d
 11709 41ec 3E       		.uleb128 0x3e
 11710 41ed 61726700 		.ascii	"arg\000"
 11711 41f1 01       		.byte	0x1
 11712 41f2 B201     		.2byte	0x1b2
 11713 41f4 A2010000 		.4byte	0x1a2
 11714 41f8 00000000 		.4byte	.LLST66
 11715 41fc 3F       		.uleb128 0x3f
 11716 41fd 8D4B0000 		.4byte	0x4b8d
 11717 4201 16000000 		.4byte	.LBB542
 11718 4205 E8030000 		.4byte	.Ldebug_ranges0+0x3e8
 11719 4209 01       		.byte	0x1
 11720 420a B701     		.2byte	0x1b7
 11721 420c 2E430000 		.4byte	0x432e
 11722 4210 38       		.uleb128 0x38
 11723 4211 91570000 		.4byte	0x5791
 11724 4215 16000000 		.4byte	.LBB543
 11725 4219 E8030000 		.4byte	.Ldebug_ranges0+0x3e8
 11726 421d 01       		.byte	0x1
 11727 421e 4001     		.2byte	0x140
 11728 4220 40       		.uleb128 0x40
 11729 4221 9E570000 		.4byte	0x579e
 11730 4225 21000000 		.4byte	.LLST67
 11731 4229 41       		.uleb128 0x41
 11732 422a 3F580000 		.4byte	0x583f
 11733 422e 16000000 		.4byte	.LBB545
 11734 4232 0E000000 		.4byte	.LBE545-.LBB545
 11735 4236 05       		.byte	0x5
 11736 4237 1C01     		.2byte	0x11c
 11737 4239 7F420000 		.4byte	0x427f
 11738 423d 41       		.uleb128 0x41
 11739 423e 51580000 		.4byte	0x5851
 11740 4242 16000000 		.4byte	.LBB547
 11741 4246 06000000 		.4byte	.LBE547-.LBB547
 11742 424a 03       		.byte	0x3
 11743 424b 5C01     		.2byte	0x15c
 11744 424d 6C420000 		.4byte	0x426c
 11745 4251 42       		.uleb128 0x42
 11746 4252 5A580000 		.4byte	0x585a
 11747 4256 16000000 		.4byte	.LBB548
 11748 425a 06000000 		.4byte	.LBE548-.LBB548
 11749 425e 18       		.byte	0x18
 11750 425f BF01     		.2byte	0x1bf
 11751 4261 40       		.uleb128 0x40
 11752 4262 67580000 		.4byte	0x5867
 11753 4266 49000000 		.4byte	.LLST68
 11754 426a 00       		.byte	0
 11755 426b 00       		.byte	0
 11756 426c 37       		.uleb128 0x37
 11757 426d 20000000 		.4byte	.LVL283
 11758 4271 B05C0000 		.4byte	0x5cb0
 11759 4275 37       		.uleb128 0x37
 11760 4276 24000000 		.4byte	.LVL284
ARM GAS  /var/folders/qd/4mxf5pkd0zdf0b9dd1hp39180000gn/T//ccn3RVaQ.s 			page 208


 11761 427a BB5C0000 		.4byte	0x5cbb
 11762 427e 00       		.byte	0
 11763 427f 3F       		.uleb128 0x3f
 11764 4280 B1570000 		.4byte	0x57b1
 11765 4284 24000000 		.4byte	.LBB550
 11766 4288 00040000 		.4byte	.Ldebug_ranges0+0x400
 11767 428c 05       		.byte	0x5
 11768 428d 1D01     		.2byte	0x11d
 11769 428f AF420000 		.4byte	0x42af
 11770 4293 40       		.uleb128 0x40
 11771 4294 BE570000 		.4byte	0x57be
 11772 4298 5E000000 		.4byte	.LLST69
 11773 429c 37       		.uleb128 0x37
 11774 429d 28000000 		.4byte	.LVL285
 11775 42a1 C65C0000 		.4byte	0x5cc6
 11776 42a5 37       		.uleb128 0x37
 11777 42a6 6C000000 		.4byte	.LVL295
 11778 42aa D15C0000 		.4byte	0x5cd1
 11779 42ae 00       		.byte	0
 11780 42af 3F       		.uleb128 0x3f
 11781 42b0 0F580000 		.4byte	0x580f
 11782 42b4 34000000 		.4byte	.LBB553
 11783 42b8 18040000 		.4byte	.Ldebug_ranges0+0x418
 11784 42bc 05       		.byte	0x5
 11785 42bd 1F01     		.2byte	0x11f
 11786 42bf 23430000 		.4byte	0x4323
 11787 42c3 43       		.uleb128 0x43
 11788 42c4 18040000 		.4byte	.Ldebug_ranges0+0x418
 11789 42c8 44       		.uleb128 0x44
 11790 42c9 1C580000 		.4byte	0x581c
 11791 42cd 41       		.uleb128 0x41
 11792 42ce 48580000 		.4byte	0x5848
 11793 42d2 4E000000 		.4byte	.LBB555
 11794 42d6 06000000 		.4byte	.LBE555-.LBB555
 11795 42da 03       		.byte	0x3
 11796 42db 7301     		.2byte	0x173
 11797 42dd FC420000 		.4byte	0x42fc
 11798 42e1 42       		.uleb128 0x42
 11799 42e2 5A580000 		.4byte	0x585a
 11800 42e6 4E000000 		.4byte	.LBB556
 11801 42ea 06000000 		.4byte	.LBE556-.LBB556
 11802 42ee 18       		.byte	0x18
 11803 42ef CD01     		.2byte	0x1cd
 11804 42f1 40       		.uleb128 0x40
 11805 42f2 67580000 		.4byte	0x5867
 11806 42f6 86000000 		.4byte	.LLST70
 11807 42fa 00       		.byte	0
 11808 42fb 00       		.byte	0
 11809 42fc 37       		.uleb128 0x37
 11810 42fd 38000000 		.4byte	.LVL288
 11811 4301 DC5C0000 		.4byte	0x5cdc
 11812 4305 37       		.uleb128 0x37
 11813 4306 3C000000 		.4byte	.LVL289
 11814 430a E75C0000 		.4byte	0x5ce7
 11815 430e 45       		.uleb128 0x45
 11816 430f 66000000 		.4byte	.LVL293
 11817 4313 F25C0000 		.4byte	0x5cf2
ARM GAS  /var/folders/qd/4mxf5pkd0zdf0b9dd1hp39180000gn/T//ccn3RVaQ.s 			page 209


 11818 4317 3B       		.uleb128 0x3b
 11819 4318 01       		.uleb128 0x1
 11820 4319 50       		.byte	0x50
 11821 431a 05       		.uleb128 0x5
 11822 431b 03       		.byte	0x3
 11823 431c 00000000 		.4byte	.LANCHOR1
 11824 4320 00       		.byte	0
 11825 4321 00       		.byte	0
 11826 4322 00       		.byte	0
 11827 4323 37       		.uleb128 0x37
 11828 4324 34000000 		.4byte	.LVL287
 11829 4328 FE5C0000 		.4byte	0x5cfe
 11830 432c 00       		.byte	0
 11831 432d 00       		.byte	0
 11832 432e 3C       		.uleb128 0x3c
 11833 432f 12000000 		.4byte	.LVL280
 11834 4333 0A5D0000 		.4byte	0x5d0a
 11835 4337 4A430000 		.4byte	0x434a
 11836 433b 3B       		.uleb128 0x3b
 11837 433c 01       		.uleb128 0x1
 11838 433d 50       		.byte	0x50
 11839 433e 05       		.uleb128 0x5
 11840 433f 03       		.byte	0x3
 11841 4340 00000000 		.4byte	.LC4
 11842 4344 3B       		.uleb128 0x3b
 11843 4345 01       		.uleb128 0x1
 11844 4346 51       		.byte	0x51
 11845 4347 01       		.uleb128 0x1
 11846 4348 33       		.byte	0x33
 11847 4349 00       		.byte	0
 11848 434a 37       		.uleb128 0x37
 11849 434b 16000000 		.4byte	.LVL281
 11850 434f 01460000 		.4byte	0x4601
 11851 4353 37       		.uleb128 0x37
 11852 4354 72000000 		.4byte	.LVL297
 11853 4358 5A5C0000 		.4byte	0x5c5a
 11854 435c 00       		.byte	0
 11855 435d 3D       		.uleb128 0x3d
 11856 435e 59010000 		.4byte	.LASF873
 11857 4362 01       		.byte	0x1
 11858 4363 9B01     		.2byte	0x19b
 11859 4365 00000000 		.4byte	.LFB278
 11860 4369 CC000000 		.4byte	.LFE278-.LFB278
 11861 436d 01       		.uleb128 0x1
 11862 436e 9C       		.byte	0x9c
 11863 436f FB450000 		.4byte	0x45fb
 11864 4373 3E       		.uleb128 0x3e
 11865 4374 61726700 		.ascii	"arg\000"
 11866 4378 01       		.byte	0x1
 11867 4379 9B01     		.2byte	0x19b
 11868 437b A2010000 		.4byte	0x1a2
 11869 437f 9A000000 		.4byte	.LLST45
 11870 4383 46       		.uleb128 0x46
 11871 4384 82000000 		.4byte	.LASF874
 11872 4388 01       		.byte	0x1
 11873 4389 A201     		.2byte	0x1a2
 11874 438b FB450000 		.4byte	0x45fb
ARM GAS  /var/folders/qd/4mxf5pkd0zdf0b9dd1hp39180000gn/T//ccn3RVaQ.s 			page 210


 11875 438f BB000000 		.4byte	.LLST46
 11876 4393 35       		.uleb128 0x35
 11877 4394 EB180000 		.4byte	.LASF875
 11878 4398 01       		.byte	0x1
 11879 4399 A801     		.2byte	0x1a8
 11880 439b 1C0A0000 		.4byte	0xa1c
 11881 439f 02       		.uleb128 0x2
 11882 43a0 91       		.byte	0x91
 11883 43a1 54       		.sleb128 -44
 11884 43a2 3F       		.uleb128 0x3f
 11885 43a3 134C0000 		.4byte	0x4c13
 11886 43a7 04000000 		.4byte	.LBB460
 11887 43ab 80020000 		.4byte	.Ldebug_ranges0+0x280
 11888 43af 01       		.byte	0x1
 11889 43b0 9E01     		.2byte	0x19e
 11890 43b2 D7430000 		.4byte	0x43d7
 11891 43b6 40       		.uleb128 0x40
 11892 43b7 204C0000 		.4byte	0x4c20
 11893 43bb E5000000 		.4byte	.LLST47
 11894 43bf 45       		.uleb128 0x45
 11895 43c0 1C000000 		.4byte	.LVL195
 11896 43c4 7E4F0000 		.4byte	0x4f7e
 11897 43c8 3B       		.uleb128 0x3b
 11898 43c9 01       		.uleb128 0x1
 11899 43ca 50       		.byte	0x50
 11900 43cb 02       		.uleb128 0x2
 11901 43cc 91       		.byte	0x91
 11902 43cd 64       		.sleb128 -28
 11903 43ce 3B       		.uleb128 0x3b
 11904 43cf 01       		.uleb128 0x1
 11905 43d0 51       		.byte	0x51
 11906 43d1 03       		.uleb128 0x3
 11907 43d2 0A       		.byte	0xa
 11908 43d3 0B02     		.2byte	0x20b
 11909 43d5 00       		.byte	0
 11910 43d6 00       		.byte	0
 11911 43d7 41       		.uleb128 0x41
 11912 43d8 964B0000 		.4byte	0x4b96
 11913 43dc 4E000000 		.4byte	.LBB466
 11914 43e0 0E000000 		.4byte	.LBE466-.LBB466
 11915 43e4 01       		.byte	0x1
 11916 43e5 A901     		.2byte	0x1a9
 11917 43e7 2E440000 		.4byte	0x442e
 11918 43eb 40       		.uleb128 0x40
 11919 43ec A34B0000 		.4byte	0x4ba3
 11920 43f0 FD000000 		.4byte	.LLST48
 11921 43f4 47       		.uleb128 0x47
 11922 43f5 4E000000 		.4byte	.LBB467
 11923 43f9 0E000000 		.4byte	.LBE467-.LBB467
 11924 43fd 44       		.uleb128 0x44
 11925 43fe 4C590000 		.4byte	0x594c
 11926 4402 3C       		.uleb128 0x3c
 11927 4403 56000000 		.4byte	.LVL205
 11928 4407 155D0000 		.4byte	0x5d15
 11929 440b 1C440000 		.4byte	0x441c
 11930 440f 3B       		.uleb128 0x3b
 11931 4410 01       		.uleb128 0x1
ARM GAS  /var/folders/qd/4mxf5pkd0zdf0b9dd1hp39180000gn/T//ccn3RVaQ.s 			page 211


 11932 4411 50       		.byte	0x50
 11933 4412 02       		.uleb128 0x2
 11934 4413 91       		.byte	0x91
 11935 4414 5C       		.sleb128 -36
 11936 4415 3B       		.uleb128 0x3b
 11937 4416 01       		.uleb128 0x1
 11938 4417 51       		.byte	0x51
 11939 4418 02       		.uleb128 0x2
 11940 4419 91       		.byte	0x91
 11941 441a 54       		.sleb128 -44
 11942 441b 00       		.byte	0
 11943 441c 45       		.uleb128 0x45
 11944 441d 5C000000 		.4byte	.LVL206
 11945 4421 E94C0000 		.4byte	0x4ce9
 11946 4425 3B       		.uleb128 0x3b
 11947 4426 01       		.uleb128 0x1
 11948 4427 50       		.byte	0x50
 11949 4428 02       		.uleb128 0x2
 11950 4429 91       		.byte	0x91
 11951 442a 5C       		.sleb128 -36
 11952 442b 00       		.byte	0
 11953 442c 00       		.byte	0
 11954 442d 00       		.byte	0
 11955 442e 3F       		.uleb128 0x3f
 11956 442f 8D4B0000 		.4byte	0x4b8d
 11957 4433 5C000000 		.4byte	.LBB468
 11958 4437 A0020000 		.4byte	.Ldebug_ranges0+0x2a0
 11959 443b 01       		.byte	0x1
 11960 443c AB01     		.2byte	0x1ab
 11961 443e 60450000 		.4byte	0x4560
 11962 4442 38       		.uleb128 0x38
 11963 4443 91570000 		.4byte	0x5791
 11964 4447 5C000000 		.4byte	.LBB469
 11965 444b A0020000 		.4byte	.Ldebug_ranges0+0x2a0
 11966 444f 01       		.byte	0x1
 11967 4450 4001     		.2byte	0x140
 11968 4452 40       		.uleb128 0x40
 11969 4453 9E570000 		.4byte	0x579e
 11970 4457 2A010000 		.4byte	.LLST49
 11971 445b 41       		.uleb128 0x41
 11972 445c 3F580000 		.4byte	0x583f
 11973 4460 5C000000 		.4byte	.LBB471
 11974 4464 0E000000 		.4byte	.LBE471-.LBB471
 11975 4468 05       		.byte	0x5
 11976 4469 1C01     		.2byte	0x11c
 11977 446b B1440000 		.4byte	0x44b1
 11978 446f 41       		.uleb128 0x41
 11979 4470 51580000 		.4byte	0x5851
 11980 4474 5C000000 		.4byte	.LBB473
 11981 4478 06000000 		.4byte	.LBE473-.LBB473
 11982 447c 03       		.byte	0x3
 11983 447d 5C01     		.2byte	0x15c
 11984 447f 9E440000 		.4byte	0x449e
 11985 4483 42       		.uleb128 0x42
 11986 4484 5A580000 		.4byte	0x585a
 11987 4488 5C000000 		.4byte	.LBB474
 11988 448c 06000000 		.4byte	.LBE474-.LBB474
ARM GAS  /var/folders/qd/4mxf5pkd0zdf0b9dd1hp39180000gn/T//ccn3RVaQ.s 			page 212


 11989 4490 18       		.byte	0x18
 11990 4491 BF01     		.2byte	0x1bf
 11991 4493 40       		.uleb128 0x40
 11992 4494 67580000 		.4byte	0x5867
 11993 4498 52010000 		.4byte	.LLST50
 11994 449c 00       		.byte	0
 11995 449d 00       		.byte	0
 11996 449e 37       		.uleb128 0x37
 11997 449f 66000000 		.4byte	.LVL208
 11998 44a3 B05C0000 		.4byte	0x5cb0
 11999 44a7 37       		.uleb128 0x37
 12000 44a8 6A000000 		.4byte	.LVL209
 12001 44ac BB5C0000 		.4byte	0x5cbb
 12002 44b0 00       		.byte	0
 12003 44b1 3F       		.uleb128 0x3f
 12004 44b2 B1570000 		.4byte	0x57b1
 12005 44b6 6A000000 		.4byte	.LBB476
 12006 44ba B8020000 		.4byte	.Ldebug_ranges0+0x2b8
 12007 44be 05       		.byte	0x5
 12008 44bf 1D01     		.2byte	0x11d
 12009 44c1 E1440000 		.4byte	0x44e1
 12010 44c5 40       		.uleb128 0x40
 12011 44c6 BE570000 		.4byte	0x57be
 12012 44ca 67010000 		.4byte	.LLST51
 12013 44ce 37       		.uleb128 0x37
 12014 44cf 6E000000 		.4byte	.LVL210
 12015 44d3 C65C0000 		.4byte	0x5cc6
 12016 44d7 37       		.uleb128 0x37
 12017 44d8 B2000000 		.4byte	.LVL220
 12018 44dc D15C0000 		.4byte	0x5cd1
 12019 44e0 00       		.byte	0
 12020 44e1 3F       		.uleb128 0x3f
 12021 44e2 0F580000 		.4byte	0x580f
 12022 44e6 7A000000 		.4byte	.LBB479
 12023 44ea D0020000 		.4byte	.Ldebug_ranges0+0x2d0
 12024 44ee 05       		.byte	0x5
 12025 44ef 1F01     		.2byte	0x11f
 12026 44f1 55450000 		.4byte	0x4555
 12027 44f5 43       		.uleb128 0x43
 12028 44f6 D0020000 		.4byte	.Ldebug_ranges0+0x2d0
 12029 44fa 44       		.uleb128 0x44
 12030 44fb 1C580000 		.4byte	0x581c
 12031 44ff 41       		.uleb128 0x41
 12032 4500 48580000 		.4byte	0x5848
 12033 4504 94000000 		.4byte	.LBB481
 12034 4508 06000000 		.4byte	.LBE481-.LBB481
 12035 450c 03       		.byte	0x3
 12036 450d 7301     		.2byte	0x173
 12037 450f 2E450000 		.4byte	0x452e
 12038 4513 42       		.uleb128 0x42
 12039 4514 5A580000 		.4byte	0x585a
 12040 4518 94000000 		.4byte	.LBB482
 12041 451c 06000000 		.4byte	.LBE482-.LBB482
 12042 4520 18       		.byte	0x18
 12043 4521 CD01     		.2byte	0x1cd
 12044 4523 40       		.uleb128 0x40
 12045 4524 67580000 		.4byte	0x5867
ARM GAS  /var/folders/qd/4mxf5pkd0zdf0b9dd1hp39180000gn/T//ccn3RVaQ.s 			page 213


 12046 4528 8F010000 		.4byte	.LLST52
 12047 452c 00       		.byte	0
 12048 452d 00       		.byte	0
 12049 452e 37       		.uleb128 0x37
 12050 452f 7E000000 		.4byte	.LVL213
 12051 4533 DC5C0000 		.4byte	0x5cdc
 12052 4537 37       		.uleb128 0x37
 12053 4538 82000000 		.4byte	.LVL214
 12054 453c E75C0000 		.4byte	0x5ce7
 12055 4540 45       		.uleb128 0x45
 12056 4541 AC000000 		.4byte	.LVL218
 12057 4545 F25C0000 		.4byte	0x5cf2
 12058 4549 3B       		.uleb128 0x3b
 12059 454a 01       		.uleb128 0x1
 12060 454b 50       		.byte	0x50
 12061 454c 05       		.uleb128 0x5
 12062 454d 03       		.byte	0x3
 12063 454e 00000000 		.4byte	.LANCHOR1
 12064 4552 00       		.byte	0
 12065 4553 00       		.byte	0
 12066 4554 00       		.byte	0
 12067 4555 37       		.uleb128 0x37
 12068 4556 7A000000 		.4byte	.LVL212
 12069 455a FE5C0000 		.4byte	0x5cfe
 12070 455e 00       		.byte	0
 12071 455f 00       		.byte	0
 12072 4560 37       		.uleb128 0x37
 12073 4561 20000000 		.4byte	.LVL196
 12074 4565 205D0000 		.4byte	0x5d20
 12075 4569 3C       		.uleb128 0x3c
 12076 456a 28000000 		.4byte	.LVL197
 12077 456e 2B5D0000 		.4byte	0x5d2b
 12078 4572 7E450000 		.4byte	0x457e
 12079 4576 3B       		.uleb128 0x3b
 12080 4577 01       		.uleb128 0x1
 12081 4578 50       		.byte	0x50
 12082 4579 03       		.uleb128 0x3
 12083 457a 0A       		.byte	0xa
 12084 457b E001     		.2byte	0x1e0
 12085 457d 00       		.byte	0
 12086 457e 3C       		.uleb128 0x3c
 12087 457f 34000000 		.4byte	.LVL199
 12088 4583 365D0000 		.4byte	0x5d36
 12089 4587 9C450000 		.4byte	0x459c
 12090 458b 3B       		.uleb128 0x3b
 12091 458c 01       		.uleb128 0x1
 12092 458d 50       		.byte	0x50
 12093 458e 0C       		.uleb128 0xc
 12094 458f 31       		.byte	0x31
 12095 4590 74       		.byte	0x74
 12096 4591 00       		.sleb128 0
 12097 4592 74       		.byte	0x74
 12098 4593 00       		.sleb128 0
 12099 4594 30       		.byte	0x30
 12100 4595 2E       		.byte	0x2e
 12101 4596 28       		.byte	0x28
 12102 4597 0100     		.2byte	0x1
ARM GAS  /var/folders/qd/4mxf5pkd0zdf0b9dd1hp39180000gn/T//ccn3RVaQ.s 			page 214


 12103 4599 16       		.byte	0x16
 12104 459a 13       		.byte	0x13
 12105 459b 00       		.byte	0
 12106 459c 3C       		.uleb128 0x3c
 12107 459d 3C000000 		.4byte	.LVL200
 12108 45a1 554A0000 		.4byte	0x4a55
 12109 45a5 B5450000 		.4byte	0x45b5
 12110 45a9 3B       		.uleb128 0x3b
 12111 45aa 01       		.uleb128 0x1
 12112 45ab 50       		.byte	0x50
 12113 45ac 02       		.uleb128 0x2
 12114 45ad 74       		.byte	0x74
 12115 45ae 00       		.sleb128 0
 12116 45af 3B       		.uleb128 0x3b
 12117 45b0 01       		.uleb128 0x1
 12118 45b1 51       		.byte	0x51
 12119 45b2 01       		.uleb128 0x1
 12120 45b3 4E       		.byte	0x4e
 12121 45b4 00       		.byte	0
 12122 45b5 3C       		.uleb128 0x3c
 12123 45b6 42000000 		.4byte	.LVL201
 12124 45ba 415D0000 		.4byte	0x5d41
 12125 45be C9450000 		.4byte	0x45c9
 12126 45c2 3B       		.uleb128 0x3b
 12127 45c3 01       		.uleb128 0x1
 12128 45c4 50       		.byte	0x50
 12129 45c5 02       		.uleb128 0x2
 12130 45c6 74       		.byte	0x74
 12131 45c7 00       		.sleb128 0
 12132 45c8 00       		.byte	0
 12133 45c9 3C       		.uleb128 0x3c
 12134 45ca 48000000 		.4byte	.LVL202
 12135 45ce 4C5D0000 		.4byte	0x5d4c
 12136 45d2 DD450000 		.4byte	0x45dd
 12137 45d6 3B       		.uleb128 0x3b
 12138 45d7 01       		.uleb128 0x1
 12139 45d8 50       		.byte	0x50
 12140 45d9 02       		.uleb128 0x2
 12141 45da 74       		.byte	0x74
 12142 45db 00       		.sleb128 0
 12143 45dc 00       		.byte	0
 12144 45dd 3C       		.uleb128 0x3c
 12145 45de 4E000000 		.4byte	.LVL203
 12146 45e2 575D0000 		.4byte	0x5d57
 12147 45e6 F1450000 		.4byte	0x45f1
 12148 45ea 3B       		.uleb128 0x3b
 12149 45eb 01       		.uleb128 0x1
 12150 45ec 50       		.byte	0x50
 12151 45ed 02       		.uleb128 0x2
 12152 45ee 91       		.byte	0x91
 12153 45ef 54       		.sleb128 -44
 12154 45f0 00       		.byte	0
 12155 45f1 37       		.uleb128 0x37
 12156 45f2 B8000000 		.4byte	.LVL222
 12157 45f6 5A5C0000 		.4byte	0x5c5a
 12158 45fa 00       		.byte	0
 12159 45fb 08       		.uleb128 0x8
ARM GAS  /var/folders/qd/4mxf5pkd0zdf0b9dd1hp39180000gn/T//ccn3RVaQ.s 			page 215


 12160 45fc 04       		.byte	0x4
 12161 45fd 4D0A0000 		.4byte	0xa4d
 12162 4601 48       		.uleb128 0x48
 12163 4602 71210000 		.4byte	.LASF876
 12164 4606 01       		.byte	0x1
 12165 4607 7501     		.2byte	0x175
 12166 4609 00000000 		.4byte	.LFB277
 12167 460d 94010000 		.4byte	.LFE277-.LFB277
 12168 4611 01       		.uleb128 0x1
 12169 4612 9C       		.byte	0x9c
 12170 4613 79480000 		.4byte	0x4879
 12171 4617 35       		.uleb128 0x35
 12172 4618 82000000 		.4byte	.LASF874
 12173 461c 01       		.byte	0x1
 12174 461d 7601     		.2byte	0x176
 12175 461f 4D0A0000 		.4byte	0xa4d
 12176 4623 03       		.uleb128 0x3
 12177 4624 91       		.byte	0x91
 12178 4625 8C7E     		.sleb128 -244
 12179 4627 46       		.uleb128 0x46
 12180 4628 C41E0000 		.4byte	.LASF877
 12181 462c 01       		.byte	0x1
 12182 462d 7701     		.2byte	0x177
 12183 462f 33000000 		.4byte	0x33
 12184 4633 A3010000 		.4byte	.LLST59
 12185 4637 46       		.uleb128 0x46
 12186 4638 D5270000 		.4byte	.LASF878
 12187 463c 01       		.byte	0x1
 12188 463d 7801     		.2byte	0x178
 12189 463f 78000000 		.4byte	0x78
 12190 4643 D0010000 		.4byte	.LLST60
 12191 4647 49       		.uleb128 0x49
 12192 4648 78030000 		.4byte	.Ldebug_ranges0+0x378
 12193 464c 30480000 		.4byte	0x4830
 12194 4650 35       		.uleb128 0x35
 12195 4651 65220000 		.4byte	.LASF879
 12196 4655 01       		.byte	0x1
 12197 4656 8201     		.2byte	0x182
 12198 4658 79480000 		.4byte	0x4879
 12199 465c 03       		.uleb128 0x3
 12200 465d 91       		.byte	0x91
 12201 465e 9C7E     		.sleb128 -228
 12202 4660 35       		.uleb128 0x35
 12203 4661 A4210000 		.4byte	.LASF880
 12204 4665 01       		.byte	0x1
 12205 4666 8801     		.2byte	0x188
 12206 4668 1C0A0000 		.4byte	0xa1c
 12207 466c 03       		.uleb128 0x3
 12208 466d 91       		.byte	0x91
 12209 466e B07D     		.sleb128 -336
 12210 4670 35       		.uleb128 0x35
 12211 4671 06170000 		.4byte	.LASF881
 12212 4675 01       		.byte	0x1
 12213 4676 8901     		.2byte	0x189
 12214 4678 790A0000 		.4byte	0xa79
 12215 467c 03       		.uleb128 0x3
 12216 467d 91       		.byte	0x91
ARM GAS  /var/folders/qd/4mxf5pkd0zdf0b9dd1hp39180000gn/T//ccn3RVaQ.s 			page 216


 12217 467e B87D     		.sleb128 -328
 12218 4680 49       		.uleb128 0x49
 12219 4681 B8030000 		.4byte	.Ldebug_ranges0+0x3b8
 12220 4685 F1460000 		.4byte	0x46f1
 12221 4689 4A       		.uleb128 0x4a
 12222 468a 6A00     		.ascii	"j\000"
 12223 468c 01       		.byte	0x1
 12224 468d 8301     		.2byte	0x183
 12225 468f 78000000 		.4byte	0x78
 12226 4693 FA010000 		.4byte	.LLST62
 12227 4697 3F       		.uleb128 0x3f
 12228 4698 134C0000 		.4byte	0x4c13
 12229 469c 18000000 		.4byte	.LBB513
 12230 46a0 D0030000 		.4byte	.Ldebug_ranges0+0x3d0
 12231 46a4 01       		.byte	0x1
 12232 46a5 8601     		.2byte	0x186
 12233 46a7 CC460000 		.4byte	0x46cc
 12234 46ab 40       		.uleb128 0x40
 12235 46ac 204C0000 		.4byte	0x4c20
 12236 46b0 0E020000 		.4byte	.LLST63
 12237 46b4 45       		.uleb128 0x45
 12238 46b5 9E000000 		.4byte	.LVL263
 12239 46b9 7E4F0000 		.4byte	0x4f7e
 12240 46bd 3B       		.uleb128 0x3b
 12241 46be 01       		.uleb128 0x1
 12242 46bf 50       		.byte	0x50
 12243 46c0 03       		.uleb128 0x3
 12244 46c1 91       		.byte	0x91
 12245 46c2 D87D     		.sleb128 -296
 12246 46c4 3B       		.uleb128 0x3b
 12247 46c5 01       		.uleb128 0x1
 12248 46c6 51       		.byte	0x51
 12249 46c7 02       		.uleb128 0x2
 12250 46c8 08       		.byte	0x8
 12251 46c9 62       		.byte	0x62
 12252 46ca 00       		.byte	0
 12253 46cb 00       		.byte	0
 12254 46cc 3C       		.uleb128 0x3c
 12255 46cd 88000000 		.4byte	.LVL261
 12256 46d1 625D0000 		.4byte	0x5d62
 12257 46d5 E0460000 		.4byte	0x46e0
 12258 46d9 3B       		.uleb128 0x3b
 12259 46da 01       		.uleb128 0x1
 12260 46db 50       		.byte	0x50
 12261 46dc 02       		.uleb128 0x2
 12262 46dd 08       		.byte	0x8
 12263 46de 96       		.byte	0x96
 12264 46df 00       		.byte	0
 12265 46e0 45       		.uleb128 0x45
 12266 46e1 8E000000 		.4byte	.LVL262
 12267 46e5 1E4B0000 		.4byte	0x4b1e
 12268 46e9 3B       		.uleb128 0x3b
 12269 46ea 01       		.uleb128 0x1
 12270 46eb 50       		.byte	0x50
 12271 46ec 02       		.uleb128 0x2
 12272 46ed 74       		.byte	0x74
 12273 46ee 00       		.sleb128 0
ARM GAS  /var/folders/qd/4mxf5pkd0zdf0b9dd1hp39180000gn/T//ccn3RVaQ.s 			page 217


 12274 46ef 00       		.byte	0
 12275 46f0 00       		.byte	0
 12276 46f1 3F       		.uleb128 0x3f
 12277 46f2 134C0000 		.4byte	0x4c13
 12278 46f6 14000000 		.4byte	.LBB509
 12279 46fa A0030000 		.4byte	.Ldebug_ranges0+0x3a0
 12280 46fe 01       		.byte	0x1
 12281 46ff 8101     		.2byte	0x181
 12282 4701 27470000 		.4byte	0x4727
 12283 4705 40       		.uleb128 0x40
 12284 4706 204C0000 		.4byte	0x4c20
 12285 470a 26020000 		.4byte	.LLST61
 12286 470e 45       		.uleb128 0x45
 12287 470f 7E000000 		.4byte	.LVL259
 12288 4713 7E4F0000 		.4byte	0x4f7e
 12289 4717 3B       		.uleb128 0x3b
 12290 4718 01       		.uleb128 0x1
 12291 4719 50       		.byte	0x50
 12292 471a 03       		.uleb128 0x3
 12293 471b 91       		.byte	0x91
 12294 471c D07D     		.sleb128 -304
 12295 471e 3B       		.uleb128 0x3b
 12296 471f 01       		.uleb128 0x1
 12297 4720 51       		.byte	0x51
 12298 4721 03       		.uleb128 0x3
 12299 4722 0A       		.byte	0xa
 12300 4723 EA01     		.2byte	0x1ea
 12301 4725 00       		.byte	0
 12302 4726 00       		.byte	0
 12303 4727 41       		.uleb128 0x41
 12304 4728 134C0000 		.4byte	0x4c13
 12305 472c 3A000000 		.4byte	.LBB517
 12306 4730 12000000 		.4byte	.LBE517-.LBB517
 12307 4734 01       		.byte	0x1
 12308 4735 7E01     		.2byte	0x17e
 12309 4737 5D470000 		.4byte	0x475d
 12310 473b 40       		.uleb128 0x40
 12311 473c 204C0000 		.4byte	0x4c20
 12312 4740 3E020000 		.4byte	.LLST64
 12313 4744 45       		.uleb128 0x45
 12314 4745 4C000000 		.4byte	.LVL252
 12315 4749 7E4F0000 		.4byte	0x4f7e
 12316 474d 3B       		.uleb128 0x3b
 12317 474e 01       		.uleb128 0x1
 12318 474f 50       		.byte	0x50
 12319 4750 03       		.uleb128 0x3
 12320 4751 91       		.byte	0x91
 12321 4752 C87D     		.sleb128 -312
 12322 4754 3B       		.uleb128 0x3b
 12323 4755 01       		.uleb128 0x1
 12324 4756 51       		.byte	0x51
 12325 4757 03       		.uleb128 0x3
 12326 4758 0A       		.byte	0xa
 12327 4759 3A01     		.2byte	0x13a
 12328 475b 00       		.byte	0
 12329 475c 00       		.byte	0
 12330 475d 41       		.uleb128 0x41
ARM GAS  /var/folders/qd/4mxf5pkd0zdf0b9dd1hp39180000gn/T//ccn3RVaQ.s 			page 218


 12331 475e 134C0000 		.4byte	0x4c13
 12332 4762 58010000 		.4byte	.LBB521
 12333 4766 10000000 		.4byte	.LBE521-.LBB521
 12334 476a 01       		.byte	0x1
 12335 476b 8B01     		.2byte	0x18b
 12336 476d 93470000 		.4byte	0x4793
 12337 4771 40       		.uleb128 0x40
 12338 4772 204C0000 		.4byte	0x4c20
 12339 4776 56020000 		.4byte	.LLST65
 12340 477a 45       		.uleb128 0x45
 12341 477b 68010000 		.4byte	.LVL276
 12342 477f 7E4F0000 		.4byte	0x4f7e
 12343 4783 3B       		.uleb128 0x3b
 12344 4784 01       		.uleb128 0x1
 12345 4785 50       		.byte	0x50
 12346 4786 03       		.uleb128 0x3
 12347 4787 91       		.byte	0x91
 12348 4788 E07D     		.sleb128 -288
 12349 478a 3B       		.uleb128 0x3b
 12350 478b 01       		.uleb128 0x1
 12351 478c 51       		.byte	0x51
 12352 478d 03       		.uleb128 0x3
 12353 478e 0A       		.byte	0xa
 12354 478f 3A01     		.2byte	0x13a
 12355 4791 00       		.byte	0
 12356 4792 00       		.byte	0
 12357 4793 3C       		.uleb128 0x3c
 12358 4794 56000000 		.4byte	.LVL254
 12359 4798 625D0000 		.4byte	0x5d62
 12360 479c A7470000 		.4byte	0x47a7
 12361 47a0 3B       		.uleb128 0x3b
 12362 47a1 01       		.uleb128 0x1
 12363 47a2 50       		.byte	0x50
 12364 47a3 02       		.uleb128 0x2
 12365 47a4 08       		.byte	0x8
 12366 47a5 96       		.byte	0x96
 12367 47a6 00       		.byte	0
 12368 47a7 3C       		.uleb128 0x3c
 12369 47a8 5C000000 		.4byte	.LVL255
 12370 47ac 1E4B0000 		.4byte	0x4b1e
 12371 47b0 BC470000 		.4byte	0x47bc
 12372 47b4 3B       		.uleb128 0x3b
 12373 47b5 01       		.uleb128 0x1
 12374 47b6 50       		.byte	0x50
 12375 47b7 03       		.uleb128 0x3
 12376 47b8 91       		.byte	0x91
 12377 47b9 8C7E     		.sleb128 -244
 12378 47bb 00       		.byte	0
 12379 47bc 3C       		.uleb128 0x3c
 12380 47bd 66000000 		.4byte	.LVL256
 12381 47c1 6D5D0000 		.4byte	0x5d6d
 12382 47c5 D1470000 		.4byte	0x47d1
 12383 47c9 3B       		.uleb128 0x3b
 12384 47ca 01       		.uleb128 0x1
 12385 47cb 50       		.byte	0x50
 12386 47cc 03       		.uleb128 0x3
 12387 47cd 91       		.byte	0x91
ARM GAS  /var/folders/qd/4mxf5pkd0zdf0b9dd1hp39180000gn/T//ccn3RVaQ.s 			page 219


 12388 47ce 8C7E     		.sleb128 -244
 12389 47d0 00       		.byte	0
 12390 47d1 3C       		.uleb128 0x3c
 12391 47d2 B0000000 		.4byte	.LVL264
 12392 47d6 785D0000 		.4byte	0x5d78
 12393 47da F3470000 		.4byte	0x47f3
 12394 47de 3B       		.uleb128 0x3b
 12395 47df 01       		.uleb128 0x1
 12396 47e0 50       		.byte	0x50
 12397 47e1 03       		.uleb128 0x3
 12398 47e2 91       		.byte	0x91
 12399 47e3 B87D     		.sleb128 -328
 12400 47e5 3B       		.uleb128 0x3b
 12401 47e6 01       		.uleb128 0x1
 12402 47e7 51       		.byte	0x51
 12403 47e8 03       		.uleb128 0x3
 12404 47e9 91       		.byte	0x91
 12405 47ea 9C7E     		.sleb128 -228
 12406 47ec 3B       		.uleb128 0x3b
 12407 47ed 01       		.uleb128 0x1
 12408 47ee 52       		.byte	0x52
 12409 47ef 02       		.uleb128 0x2
 12410 47f0 7D       		.byte	0x7d
 12411 47f1 00       		.sleb128 0
 12412 47f2 00       		.byte	0
 12413 47f3 3C       		.uleb128 0x3c
 12414 47f4 C2000000 		.4byte	.LVL265
 12415 47f8 E94C0000 		.4byte	0x4ce9
 12416 47fc 08480000 		.4byte	0x4808
 12417 4800 3B       		.uleb128 0x3b
 12418 4801 01       		.uleb128 0x1
 12419 4802 50       		.byte	0x50
 12420 4803 03       		.uleb128 0x3
 12421 4804 91       		.byte	0x91
 12422 4805 B87D     		.sleb128 -328
 12423 4807 00       		.byte	0
 12424 4808 37       		.uleb128 0x37
 12425 4809 CA000000 		.4byte	.LVL266
 12426 480d 835D0000 		.4byte	0x5d83
 12427 4811 3C       		.uleb128 0x3c
 12428 4812 08010000 		.4byte	.LVL270
 12429 4816 7E4F0000 		.4byte	0x4f7e
 12430 481a 26480000 		.4byte	0x4826
 12431 481e 3B       		.uleb128 0x3b
 12432 481f 01       		.uleb128 0x1
 12433 4820 50       		.byte	0x50
 12434 4821 03       		.uleb128 0x3
 12435 4822 91       		.byte	0x91
 12436 4823 C07D     		.sleb128 -320
 12437 4825 00       		.byte	0
 12438 4826 37       		.uleb128 0x37
 12439 4827 14010000 		.4byte	.LVL271
 12440 482b 134C0000 		.4byte	0x4c13
 12441 482f 00       		.byte	0
 12442 4830 3C       		.uleb128 0x3c
 12443 4831 34000000 		.4byte	.LVL249
 12444 4835 8E5D0000 		.4byte	0x5d8e
ARM GAS  /var/folders/qd/4mxf5pkd0zdf0b9dd1hp39180000gn/T//ccn3RVaQ.s 			page 220


 12445 4839 45480000 		.4byte	0x4845
 12446 483d 3B       		.uleb128 0x3b
 12447 483e 01       		.uleb128 0x1
 12448 483f 50       		.byte	0x50
 12449 4840 03       		.uleb128 0x3
 12450 4841 91       		.byte	0x91
 12451 4842 E87D     		.sleb128 -280
 12452 4844 00       		.byte	0
 12453 4845 3C       		.uleb128 0x3c
 12454 4846 1E010000 		.4byte	.LVL272
 12455 484a 8E5D0000 		.4byte	0x5d8e
 12456 484e 5A480000 		.4byte	0x485a
 12457 4852 3B       		.uleb128 0x3b
 12458 4853 01       		.uleb128 0x1
 12459 4854 50       		.byte	0x50
 12460 4855 03       		.uleb128 0x3
 12461 4856 91       		.byte	0x91
 12462 4857 F47D     		.sleb128 -268
 12463 4859 00       		.byte	0
 12464 485a 3C       		.uleb128 0x3c
 12465 485b 32010000 		.4byte	.LVL273
 12466 485f 8E5D0000 		.4byte	0x5d8e
 12467 4863 6F480000 		.4byte	0x486f
 12468 4867 3B       		.uleb128 0x3b
 12469 4868 01       		.uleb128 0x1
 12470 4869 50       		.byte	0x50
 12471 486a 03       		.uleb128 0x3
 12472 486b 91       		.byte	0x91
 12473 486c 807E     		.sleb128 -256
 12474 486e 00       		.byte	0
 12475 486f 37       		.uleb128 0x37
 12476 4870 6E010000 		.4byte	.LVL277
 12477 4874 5A5C0000 		.4byte	0x5c5a
 12478 4878 00       		.byte	0
 12479 4879 0D       		.uleb128 0xd
 12480 487a 4D0A0000 		.4byte	0xa4d
 12481 487e 89480000 		.4byte	0x4889
 12482 4882 0E       		.uleb128 0xe
 12483 4883 2C000000 		.4byte	0x2c
 12484 4887 09       		.byte	0x9
 12485 4888 00       		.byte	0
 12486 4889 48       		.uleb128 0x48
 12487 488a 061B0000 		.4byte	.LASF882
 12488 488e 01       		.byte	0x1
 12489 488f 6001     		.2byte	0x160
 12490 4891 00000000 		.4byte	.LFB276
 12491 4895 2C010000 		.4byte	.LFE276-.LFB276
 12492 4899 01       		.uleb128 0x1
 12493 489a 9C       		.byte	0x9c
 12494 489b 554A0000 		.4byte	0x4a55
 12495 489f 46       		.uleb128 0x46
 12496 48a0 82000000 		.4byte	.LASF874
 12497 48a4 01       		.byte	0x1
 12498 48a5 6101     		.2byte	0x161
 12499 48a7 FB450000 		.4byte	0x45fb
 12500 48ab 6E020000 		.4byte	.LLST53
 12501 48af 49       		.uleb128 0x49
ARM GAS  /var/folders/qd/4mxf5pkd0zdf0b9dd1hp39180000gn/T//ccn3RVaQ.s 			page 221


 12502 48b0 E8020000 		.4byte	.Ldebug_ranges0+0x2e8
 12503 48b4 1F490000 		.4byte	0x491f
 12504 48b8 4A       		.uleb128 0x4a
 12505 48b9 6900     		.ascii	"i\000"
 12506 48bb 01       		.byte	0x1
 12507 48bc 6301     		.2byte	0x163
 12508 48be 78000000 		.4byte	0x78
 12509 48c2 8C020000 		.4byte	.LLST54
 12510 48c6 3F       		.uleb128 0x3f
 12511 48c7 134C0000 		.4byte	0x4c13
 12512 48cb 08000000 		.4byte	.LBB491
 12513 48cf 00030000 		.4byte	.Ldebug_ranges0+0x300
 12514 48d3 01       		.byte	0x1
 12515 48d4 6601     		.2byte	0x166
 12516 48d6 FA480000 		.4byte	0x48fa
 12517 48da 40       		.uleb128 0x40
 12518 48db 204C0000 		.4byte	0x4c20
 12519 48df A0020000 		.4byte	.LLST55
 12520 48e3 45       		.uleb128 0x45
 12521 48e4 50000000 		.4byte	.LVL230
 12522 48e8 7E4F0000 		.4byte	0x4f7e
 12523 48ec 3B       		.uleb128 0x3b
 12524 48ed 01       		.uleb128 0x1
 12525 48ee 50       		.byte	0x50
 12526 48ef 02       		.uleb128 0x2
 12527 48f0 91       		.byte	0x91
 12528 48f1 44       		.sleb128 -60
 12529 48f2 3B       		.uleb128 0x3b
 12530 48f3 01       		.uleb128 0x1
 12531 48f4 51       		.byte	0x51
 12532 48f5 02       		.uleb128 0x2
 12533 48f6 08       		.byte	0x8
 12534 48f7 62       		.byte	0x62
 12535 48f8 00       		.byte	0
 12536 48f9 00       		.byte	0
 12537 48fa 3C       		.uleb128 0x3c
 12538 48fb 3A000000 		.4byte	.LVL228
 12539 48ff 625D0000 		.4byte	0x5d62
 12540 4903 0E490000 		.4byte	0x490e
 12541 4907 3B       		.uleb128 0x3b
 12542 4908 01       		.uleb128 0x1
 12543 4909 50       		.byte	0x50
 12544 490a 02       		.uleb128 0x2
 12545 490b 08       		.byte	0x8
 12546 490c 96       		.byte	0x96
 12547 490d 00       		.byte	0
 12548 490e 45       		.uleb128 0x45
 12549 490f 40000000 		.4byte	.LVL229
 12550 4913 1E4B0000 		.4byte	0x4b1e
 12551 4917 3B       		.uleb128 0x3b
 12552 4918 01       		.uleb128 0x1
 12553 4919 50       		.byte	0x50
 12554 491a 02       		.uleb128 0x2
 12555 491b 74       		.byte	0x74
 12556 491c 00       		.sleb128 0
 12557 491d 00       		.byte	0
 12558 491e 00       		.byte	0
ARM GAS  /var/folders/qd/4mxf5pkd0zdf0b9dd1hp39180000gn/T//ccn3RVaQ.s 			page 222


 12559 491f 49       		.uleb128 0x49
 12560 4920 48030000 		.4byte	.Ldebug_ranges0+0x348
 12561 4924 B3490000 		.4byte	0x49b3
 12562 4928 4A       		.uleb128 0x4a
 12563 4929 6900     		.ascii	"i\000"
 12564 492b 01       		.byte	0x1
 12565 492c 6B01     		.2byte	0x16b
 12566 492e 78000000 		.4byte	0x78
 12567 4932 B8020000 		.4byte	.LLST58
 12568 4936 43       		.uleb128 0x43
 12569 4937 60030000 		.4byte	.Ldebug_ranges0+0x360
 12570 493b 35       		.uleb128 0x35
 12571 493c 06170000 		.4byte	.LASF881
 12572 4940 01       		.byte	0x1
 12573 4941 6C01     		.2byte	0x16c
 12574 4943 790A0000 		.4byte	0xa79
 12575 4947 03       		.uleb128 0x3
 12576 4948 91       		.byte	0x91
 12577 4949 AC7F     		.sleb128 -84
 12578 494b 3C       		.uleb128 0x3c
 12579 494c 96000000 		.4byte	.LVL237
 12580 4950 995D0000 		.4byte	0x5d99
 12581 4954 60490000 		.4byte	0x4960
 12582 4958 3B       		.uleb128 0x3b
 12583 4959 01       		.uleb128 0x1
 12584 495a 50       		.byte	0x50
 12585 495b 03       		.uleb128 0x3
 12586 495c 91       		.byte	0x91
 12587 495d AC7F     		.sleb128 -84
 12588 495f 00       		.byte	0
 12589 4960 3C       		.uleb128 0x3c
 12590 4961 9C000000 		.4byte	.LVL238
 12591 4965 E94C0000 		.4byte	0x4ce9
 12592 4969 75490000 		.4byte	0x4975
 12593 496d 3B       		.uleb128 0x3b
 12594 496e 01       		.uleb128 0x1
 12595 496f 50       		.byte	0x50
 12596 4970 03       		.uleb128 0x3
 12597 4971 91       		.byte	0x91
 12598 4972 AC7F     		.sleb128 -84
 12599 4974 00       		.byte	0
 12600 4975 37       		.uleb128 0x37
 12601 4976 A4000000 		.4byte	.LVL239
 12602 497a 835D0000 		.4byte	0x5d83
 12603 497e 3C       		.uleb128 0x3c
 12604 497f AC000000 		.4byte	.LVL240
 12605 4983 625D0000 		.4byte	0x5d62
 12606 4987 93490000 		.4byte	0x4993
 12607 498b 3B       		.uleb128 0x3b
 12608 498c 01       		.uleb128 0x1
 12609 498d 50       		.byte	0x50
 12610 498e 03       		.uleb128 0x3
 12611 498f 0A       		.byte	0xa
 12612 4990 E803     		.2byte	0x3e8
 12613 4992 00       		.byte	0
 12614 4993 3C       		.uleb128 0x3c
 12615 4994 E8000000 		.4byte	.LVL244
ARM GAS  /var/folders/qd/4mxf5pkd0zdf0b9dd1hp39180000gn/T//ccn3RVaQ.s 			page 223


 12616 4998 7E4F0000 		.4byte	0x4f7e
 12617 499c A8490000 		.4byte	0x49a8
 12618 49a0 3B       		.uleb128 0x3b
 12619 49a1 01       		.uleb128 0x1
 12620 49a2 50       		.byte	0x50
 12621 49a3 03       		.uleb128 0x3
 12622 49a4 91       		.byte	0x91
 12623 49a5 B47F     		.sleb128 -76
 12624 49a7 00       		.byte	0
 12625 49a8 37       		.uleb128 0x37
 12626 49a9 F4000000 		.4byte	.LVL245
 12627 49ad 134C0000 		.4byte	0x4c13
 12628 49b1 00       		.byte	0
 12629 49b2 00       		.byte	0
 12630 49b3 3F       		.uleb128 0x3f
 12631 49b4 134C0000 		.4byte	0x4c13
 12632 49b8 1A000000 		.4byte	.LBB495
 12633 49bc 18030000 		.4byte	.Ldebug_ranges0+0x318
 12634 49c0 01       		.byte	0x1
 12635 49c1 6201     		.2byte	0x162
 12636 49c3 E9490000 		.4byte	0x49e9
 12637 49c7 40       		.uleb128 0x40
 12638 49c8 204C0000 		.4byte	0x4c20
 12639 49cc EF020000 		.4byte	.LLST56
 12640 49d0 45       		.uleb128 0x45
 12641 49d1 2E000000 		.4byte	.LVL226
 12642 49d5 7E4F0000 		.4byte	0x4f7e
 12643 49d9 3B       		.uleb128 0x3b
 12644 49da 01       		.uleb128 0x1
 12645 49db 50       		.byte	0x50
 12646 49dc 03       		.uleb128 0x3
 12647 49dd 91       		.byte	0x91
 12648 49de BC7F     		.sleb128 -68
 12649 49e0 3B       		.uleb128 0x3b
 12650 49e1 01       		.uleb128 0x1
 12651 49e2 51       		.byte	0x51
 12652 49e3 03       		.uleb128 0x3
 12653 49e4 0A       		.byte	0xa
 12654 49e5 D503     		.2byte	0x3d5
 12655 49e7 00       		.byte	0
 12656 49e8 00       		.byte	0
 12657 49e9 3F       		.uleb128 0x3f
 12658 49ea 134C0000 		.4byte	0x4c13
 12659 49ee 54000000 		.4byte	.LBB500
 12660 49f2 30030000 		.4byte	.Ldebug_ranges0+0x330
 12661 49f6 01       		.byte	0x1
 12662 49f7 6801     		.2byte	0x168
 12663 49f9 1E4A0000 		.4byte	0x4a1e
 12664 49fd 40       		.uleb128 0x40
 12665 49fe 204C0000 		.4byte	0x4c20
 12666 4a02 07030000 		.4byte	.LLST57
 12667 4a06 45       		.uleb128 0x45
 12668 4a07 68000000 		.4byte	.LVL232
 12669 4a0b 7E4F0000 		.4byte	0x4f7e
 12670 4a0f 3B       		.uleb128 0x3b
 12671 4a10 01       		.uleb128 0x1
 12672 4a11 50       		.byte	0x50
ARM GAS  /var/folders/qd/4mxf5pkd0zdf0b9dd1hp39180000gn/T//ccn3RVaQ.s 			page 224


 12673 4a12 02       		.uleb128 0x2
 12674 4a13 91       		.byte	0x91
 12675 4a14 4C       		.sleb128 -52
 12676 4a15 3B       		.uleb128 0x3b
 12677 4a16 01       		.uleb128 0x1
 12678 4a17 51       		.byte	0x51
 12679 4a18 03       		.uleb128 0x3
 12680 4a19 0A       		.byte	0xa
 12681 4a1a D503     		.2byte	0x3d5
 12682 4a1c 00       		.byte	0
 12683 4a1d 00       		.byte	0
 12684 4a1e 3C       		.uleb128 0x3c
 12685 4a1f 1A000000 		.4byte	.LVL223
 12686 4a23 2B5D0000 		.4byte	0x5d2b
 12687 4a27 324A0000 		.4byte	0x4a32
 12688 4a2b 3B       		.uleb128 0x3b
 12689 4a2c 01       		.uleb128 0x1
 12690 4a2d 50       		.byte	0x50
 12691 4a2e 02       		.uleb128 0x2
 12692 4a2f 08       		.byte	0x8
 12693 4a30 A0       		.byte	0xa0
 12694 4a31 00       		.byte	0
 12695 4a32 3C       		.uleb128 0x3c
 12696 4a33 70000000 		.4byte	.LVL233
 12697 4a37 A45D0000 		.4byte	0x5da4
 12698 4a3b 4B4A0000 		.4byte	0x4a4b
 12699 4a3f 3B       		.uleb128 0x3b
 12700 4a40 01       		.uleb128 0x1
 12701 4a41 50       		.byte	0x50
 12702 4a42 02       		.uleb128 0x2
 12703 4a43 79       		.byte	0x79
 12704 4a44 00       		.sleb128 0
 12705 4a45 3B       		.uleb128 0x3b
 12706 4a46 01       		.uleb128 0x1
 12707 4a47 51       		.byte	0x51
 12708 4a48 01       		.uleb128 0x1
 12709 4a49 3A       		.byte	0x3a
 12710 4a4a 00       		.byte	0
 12711 4a4b 37       		.uleb128 0x37
 12712 4a4c 14010000 		.4byte	.LVL248
 12713 4a50 5A5C0000 		.4byte	0x5c5a
 12714 4a54 00       		.byte	0
 12715 4a55 36       		.uleb128 0x36
 12716 4a56 AF040000 		.4byte	.LASF883
 12717 4a5a 01       		.byte	0x1
 12718 4a5b 5401     		.2byte	0x154
 12719 4a5d 00000000 		.4byte	.LFB275
 12720 4a61 6C000000 		.4byte	.LFE275-.LFB275
 12721 4a65 01       		.uleb128 0x1
 12722 4a66 9C       		.byte	0x9c
 12723 4a67 1E4B0000 		.4byte	0x4b1e
 12724 4a6b 4B       		.uleb128 0x4b
 12725 4a6c 82000000 		.4byte	.LASF874
 12726 4a70 01       		.byte	0x1
 12727 4a71 5401     		.2byte	0x154
 12728 4a73 FB450000 		.4byte	0x45fb
 12729 4a77 1F030000 		.4byte	.LLST41
ARM GAS  /var/folders/qd/4mxf5pkd0zdf0b9dd1hp39180000gn/T//ccn3RVaQ.s 			page 225


 12730 4a7b 4B       		.uleb128 0x4b
 12731 4a7c C30B0000 		.4byte	.LASF884
 12732 4a80 01       		.byte	0x1
 12733 4a81 5401     		.2byte	0x154
 12734 4a83 78000000 		.4byte	0x78
 12735 4a87 4B030000 		.4byte	.LLST42
 12736 4a8b 4A       		.uleb128 0x4a
 12737 4a8c 6900     		.ascii	"i\000"
 12738 4a8e 01       		.byte	0x1
 12739 4a8f 5701     		.2byte	0x157
 12740 4a91 78000000 		.4byte	0x78
 12741 4a95 69030000 		.4byte	.LLST43
 12742 4a99 3F       		.uleb128 0x3f
 12743 4a9a 134C0000 		.4byte	0x4c13
 12744 4a9e 24000000 		.4byte	.LBB436
 12745 4aa2 68020000 		.4byte	.Ldebug_ranges0+0x268
 12746 4aa6 01       		.byte	0x1
 12747 4aa7 5B01     		.2byte	0x15b
 12748 4aa9 CE4A0000 		.4byte	0x4ace
 12749 4aad 40       		.uleb128 0x40
 12750 4aae 204C0000 		.4byte	0x4c20
 12751 4ab2 A0030000 		.4byte	.LLST44
 12752 4ab6 45       		.uleb128 0x45
 12753 4ab7 48000000 		.4byte	.LVL188
 12754 4abb 7E4F0000 		.4byte	0x4f7e
 12755 4abf 3B       		.uleb128 0x3b
 12756 4ac0 01       		.uleb128 0x1
 12757 4ac1 50       		.byte	0x50
 12758 4ac2 02       		.uleb128 0x2
 12759 4ac3 91       		.byte	0x91
 12760 4ac4 54       		.sleb128 -44
 12761 4ac5 3B       		.uleb128 0x3b
 12762 4ac6 01       		.uleb128 0x1
 12763 4ac7 51       		.byte	0x51
 12764 4ac8 03       		.uleb128 0x3
 12765 4ac9 0A       		.byte	0xa
 12766 4aca 0B02     		.2byte	0x20b
 12767 4acc 00       		.byte	0
 12768 4acd 00       		.byte	0
 12769 4ace 3C       		.uleb128 0x3c
 12770 4acf 1E000000 		.4byte	.LVL183
 12771 4ad3 365D0000 		.4byte	0x5d36
 12772 4ad7 EC4A0000 		.4byte	0x4aec
 12773 4adb 3B       		.uleb128 0x3b
 12774 4adc 01       		.uleb128 0x1
 12775 4add 50       		.byte	0x50
 12776 4ade 0C       		.uleb128 0xc
 12777 4adf 31       		.byte	0x31
 12778 4ae0 74       		.byte	0x74
 12779 4ae1 00       		.sleb128 0
 12780 4ae2 74       		.byte	0x74
 12781 4ae3 00       		.sleb128 0
 12782 4ae4 30       		.byte	0x30
 12783 4ae5 2E       		.byte	0x2e
 12784 4ae6 28       		.byte	0x28
 12785 4ae7 0100     		.2byte	0x1
 12786 4ae9 16       		.byte	0x16
ARM GAS  /var/folders/qd/4mxf5pkd0zdf0b9dd1hp39180000gn/T//ccn3RVaQ.s 			page 226


 12787 4aea 13       		.byte	0x13
 12788 4aeb 00       		.byte	0
 12789 4aec 3C       		.uleb128 0x3c
 12790 4aed 30000000 		.4byte	.LVL185
 12791 4af1 625D0000 		.4byte	0x5d62
 12792 4af5 004B0000 		.4byte	0x4b00
 12793 4af9 3B       		.uleb128 0x3b
 12794 4afa 01       		.uleb128 0x1
 12795 4afb 50       		.byte	0x50
 12796 4afc 02       		.uleb128 0x2
 12797 4afd 08       		.byte	0x8
 12798 4afe C8       		.byte	0xc8
 12799 4aff 00       		.byte	0
 12800 4b00 3C       		.uleb128 0x3c
 12801 4b01 36000000 		.4byte	.LVL186
 12802 4b05 1E4B0000 		.4byte	0x4b1e
 12803 4b09 144B0000 		.4byte	0x4b14
 12804 4b0d 3B       		.uleb128 0x3b
 12805 4b0e 01       		.uleb128 0x1
 12806 4b0f 50       		.byte	0x50
 12807 4b10 02       		.uleb128 0x2
 12808 4b11 74       		.byte	0x74
 12809 4b12 00       		.sleb128 0
 12810 4b13 00       		.byte	0
 12811 4b14 37       		.uleb128 0x37
 12812 4b15 64000000 		.4byte	.LVL191
 12813 4b19 5A5C0000 		.4byte	0x5c5a
 12814 4b1d 00       		.byte	0
 12815 4b1e 36       		.uleb128 0x36
 12816 4b1f E11D0000 		.4byte	.LASF885
 12817 4b23 01       		.byte	0x1
 12818 4b24 4F01     		.2byte	0x14f
 12819 4b26 00000000 		.4byte	.LFB274
 12820 4b2a 38000000 		.4byte	.LFE274-.LFB274
 12821 4b2e 01       		.uleb128 0x1
 12822 4b2f 9C       		.byte	0x9c
 12823 4b30 7B4B0000 		.4byte	0x4b7b
 12824 4b34 4B       		.uleb128 0x4b
 12825 4b35 82000000 		.4byte	.LASF874
 12826 4b39 01       		.byte	0x1
 12827 4b3a 4F01     		.2byte	0x14f
 12828 4b3c FB450000 		.4byte	0x45fb
 12829 4b40 B8030000 		.4byte	.LLST39
 12830 4b44 46       		.uleb128 0x46
 12831 4b45 290D0000 		.4byte	.LASF150
 12832 4b49 01       		.byte	0x1
 12833 4b4a 5001     		.2byte	0x150
 12834 4b4c 78000000 		.4byte	0x78
 12835 4b50 D6030000 		.4byte	.LLST40
 12836 4b54 37       		.uleb128 0x37
 12837 4b55 10000000 		.4byte	.LVL175
 12838 4b59 AF5D0000 		.4byte	0x5daf
 12839 4b5d 3C       		.uleb128 0x3c
 12840 4b5e 1A000000 		.4byte	.LVL178
 12841 4b62 8E5D0000 		.4byte	0x5d8e
 12842 4b66 714B0000 		.4byte	0x4b71
 12843 4b6a 3B       		.uleb128 0x3b
ARM GAS  /var/folders/qd/4mxf5pkd0zdf0b9dd1hp39180000gn/T//ccn3RVaQ.s 			page 227


 12844 4b6b 01       		.uleb128 0x1
 12845 4b6c 50       		.byte	0x50
 12846 4b6d 02       		.uleb128 0x2
 12847 4b6e 75       		.byte	0x75
 12848 4b6f 00       		.sleb128 0
 12849 4b70 00       		.byte	0
 12850 4b71 37       		.uleb128 0x37
 12851 4b72 34000000 		.4byte	.LVL180
 12852 4b76 5A5C0000 		.4byte	0x5c5a
 12853 4b7a 00       		.byte	0
 12854 4b7b 4C       		.uleb128 0x4c
 12855 4b7c 4C1C0000 		.4byte	.LASF886
 12856 4b80 01       		.byte	0x1
 12857 4b81 4901     		.2byte	0x149
 12858 4b83 01       		.byte	0x1
 12859 4b84 4C       		.uleb128 0x4c
 12860 4b85 CE090000 		.4byte	.LASF887
 12861 4b89 01       		.byte	0x1
 12862 4b8a 4401     		.2byte	0x144
 12863 4b8c 01       		.byte	0x1
 12864 4b8d 4C       		.uleb128 0x4c
 12865 4b8e E2010000 		.4byte	.LASF888
 12866 4b92 01       		.byte	0x1
 12867 4b93 3F01     		.2byte	0x13f
 12868 4b95 01       		.byte	0x1
 12869 4b96 4D       		.uleb128 0x4d
 12870 4b97 56020000 		.4byte	.LASF891
 12871 4b9b 01       		.byte	0x1
 12872 4b9c 3701     		.2byte	0x137
 12873 4b9e 01       		.byte	0x1
 12874 4b9f BC4B0000 		.4byte	0x4bbc
 12875 4ba3 4E       		.uleb128 0x4e
 12876 4ba4 55150000 		.4byte	.LASF893
 12877 4ba8 01       		.byte	0x1
 12878 4ba9 3701     		.2byte	0x137
 12879 4bab BC4B0000 		.4byte	0x4bbc
 12880 4baf 4F       		.uleb128 0x4f
 12881 4bb0 06170000 		.4byte	.LASF881
 12882 4bb4 01       		.byte	0x1
 12883 4bb5 3801     		.2byte	0x138
 12884 4bb7 790A0000 		.4byte	0xa79
 12885 4bbb 00       		.byte	0
 12886 4bbc 08       		.uleb128 0x8
 12887 4bbd 04       		.byte	0x4
 12888 4bbe 270A0000 		.4byte	0xa27
 12889 4bc2 36       		.uleb128 0x36
 12890 4bc3 7A250000 		.4byte	.LASF889
 12891 4bc7 01       		.byte	0x1
 12892 4bc8 3201     		.2byte	0x132
 12893 4bca 00000000 		.4byte	.LFB269
 12894 4bce 28000000 		.4byte	.LFE269-.LFB269
 12895 4bd2 01       		.uleb128 0x1
 12896 4bd3 9C       		.byte	0x9c
 12897 4bd4 134C0000 		.4byte	0x4c13
 12898 4bd8 4B       		.uleb128 0x4b
 12899 4bd9 04160000 		.4byte	.LASF890
 12900 4bdd 01       		.byte	0x1
ARM GAS  /var/folders/qd/4mxf5pkd0zdf0b9dd1hp39180000gn/T//ccn3RVaQ.s 			page 228


 12901 4bde 3201     		.2byte	0x132
 12902 4be0 33000000 		.4byte	0x33
 12903 4be4 F4030000 		.4byte	.LLST29
 12904 4be8 3C       		.uleb128 0x3c
 12905 4be9 0E000000 		.4byte	.LVL129
 12906 4bed BA5D0000 		.4byte	0x5dba
 12907 4bf1 004C0000 		.4byte	0x4c00
 12908 4bf5 3B       		.uleb128 0x3b
 12909 4bf6 02       		.uleb128 0x2
 12910 4bf7 90       		.byte	0x90
 12911 4bf8 40       		.uleb128 0x40
 12912 4bf9 05       		.uleb128 0x5
 12913 4bfa F3       		.byte	0xf3
 12914 4bfb 03       		.uleb128 0x3
 12915 4bfc F5       		.byte	0xf5
 12916 4bfd 40       		.uleb128 0x40
 12917 4bfe 33       		.uleb128 0x33
 12918 4bff 00       		.byte	0
 12919 4c00 50       		.uleb128 0x50
 12920 4c01 20000000 		.4byte	.LVL130
 12921 4c05 134C0000 		.4byte	0x4c13
 12922 4c09 37       		.uleb128 0x37
 12923 4c0a 24000000 		.4byte	.LVL131
 12924 4c0e 5A5C0000 		.4byte	0x5c5a
 12925 4c12 00       		.byte	0
 12926 4c13 4D       		.uleb128 0x4d
 12927 4c14 120E0000 		.4byte	.LASF892
 12928 4c18 01       		.byte	0x1
 12929 4c19 2D01     		.2byte	0x12d
 12930 4c1b 01       		.byte	0x1
 12931 4c1c 2D4C0000 		.4byte	0x4c2d
 12932 4c20 4E       		.uleb128 0x4e
 12933 4c21 CD000000 		.4byte	.LASF894
 12934 4c25 01       		.byte	0x1
 12935 4c26 2D01     		.2byte	0x12d
 12936 4c28 33000000 		.4byte	0x33
 12937 4c2c 00       		.byte	0
 12938 4c2d 48       		.uleb128 0x48
 12939 4c2e 68280000 		.4byte	.LASF895
 12940 4c32 01       		.byte	0x1
 12941 4c33 2501     		.2byte	0x125
 12942 4c35 00000000 		.4byte	.LFB267
 12943 4c39 D0000000 		.4byte	.LFE267-.LFB267
 12944 4c3d 01       		.uleb128 0x1
 12945 4c3e 9C       		.byte	0x9c
 12946 4c3f E94C0000 		.4byte	0x4ce9
 12947 4c43 4B       		.uleb128 0x4b
 12948 4c44 04160000 		.4byte	.LASF890
 12949 4c48 01       		.byte	0x1
 12950 4c49 2501     		.2byte	0x125
 12951 4c4b 33000000 		.4byte	0x33
 12952 4c4f 18040000 		.4byte	.LLST25
 12953 4c53 46       		.uleb128 0x46
 12954 4c54 CD000000 		.4byte	.LASF894
 12955 4c58 01       		.byte	0x1
 12956 4c59 2701     		.2byte	0x127
 12957 4c5b 33000000 		.4byte	0x33
ARM GAS  /var/folders/qd/4mxf5pkd0zdf0b9dd1hp39180000gn/T//ccn3RVaQ.s 			page 229


 12958 4c5f 54040000 		.4byte	.LLST26
 12959 4c63 41       		.uleb128 0x41
 12960 4c64 1E520000 		.4byte	0x521e
 12961 4c68 8A000000 		.4byte	.LBB362
 12962 4c6c 10000000 		.4byte	.LBE362-.LBB362
 12963 4c70 01       		.byte	0x1
 12964 4c71 2901     		.2byte	0x129
 12965 4c73 904C0000 		.4byte	0x4c90
 12966 4c77 39       		.uleb128 0x39
 12967 4c78 2A520000 		.4byte	0x522a
 12968 4c7c 02       		.uleb128 0x2
 12969 4c7d 91       		.byte	0x91
 12970 4c7e 5C       		.sleb128 -36
 12971 4c7f 45       		.uleb128 0x45
 12972 4c80 9A000000 		.4byte	.LVL109
 12973 4c84 C55D0000 		.4byte	0x5dc5
 12974 4c88 3B       		.uleb128 0x3b
 12975 4c89 01       		.uleb128 0x1
 12976 4c8a 51       		.byte	0x51
 12977 4c8b 02       		.uleb128 0x2
 12978 4c8c 91       		.byte	0x91
 12979 4c8d 5C       		.sleb128 -36
 12980 4c8e 00       		.byte	0
 12981 4c8f 00       		.byte	0
 12982 4c90 3C       		.uleb128 0x3c
 12983 4c91 1A000000 		.4byte	.LVL101
 12984 4c95 0A5D0000 		.4byte	0x5d0a
 12985 4c99 AC4C0000 		.4byte	0x4cac
 12986 4c9d 3B       		.uleb128 0x3b
 12987 4c9e 01       		.uleb128 0x1
 12988 4c9f 50       		.byte	0x50
 12989 4ca0 05       		.uleb128 0x5
 12990 4ca1 03       		.byte	0x3
 12991 4ca2 00000000 		.4byte	.LC3
 12992 4ca6 3B       		.uleb128 0x3b
 12993 4ca7 01       		.uleb128 0x1
 12994 4ca8 51       		.byte	0x51
 12995 4ca9 01       		.uleb128 0x1
 12996 4caa 35       		.byte	0x35
 12997 4cab 00       		.byte	0
 12998 4cac 3C       		.uleb128 0x3c
 12999 4cad 22000000 		.4byte	.LVL102
 13000 4cb1 BA5D0000 		.4byte	0x5dba
 13001 4cb5 C24C0000 		.4byte	0x4cc2
 13002 4cb9 3B       		.uleb128 0x3b
 13003 4cba 02       		.uleb128 0x2
 13004 4cbb 90       		.byte	0x90
 13005 4cbc 40       		.uleb128 0x40
 13006 4cbd 03       		.uleb128 0x3
 13007 4cbe F5       		.byte	0xf5
 13008 4cbf 50       		.uleb128 0x50
 13009 4cc0 33       		.uleb128 0x33
 13010 4cc1 00       		.byte	0
 13011 4cc2 3C       		.uleb128 0x3c
 13012 4cc3 6A000000 		.4byte	.LVL107
 13013 4cc7 7E4F0000 		.4byte	0x4f7e
 13014 4ccb D64C0000 		.4byte	0x4cd6
ARM GAS  /var/folders/qd/4mxf5pkd0zdf0b9dd1hp39180000gn/T//ccn3RVaQ.s 			page 230


 13015 4ccf 3B       		.uleb128 0x3b
 13016 4cd0 01       		.uleb128 0x1
 13017 4cd1 50       		.byte	0x50
 13018 4cd2 02       		.uleb128 0x2
 13019 4cd3 91       		.byte	0x91
 13020 4cd4 44       		.sleb128 -60
 13021 4cd5 00       		.byte	0
 13022 4cd6 37       		.uleb128 0x37
 13023 4cd7 7C000000 		.4byte	.LVL108
 13024 4cdb D05D0000 		.4byte	0x5dd0
 13025 4cdf 37       		.uleb128 0x37
 13026 4ce0 AE000000 		.4byte	.LVL112
 13027 4ce4 5A5C0000 		.4byte	0x5c5a
 13028 4ce8 00       		.byte	0
 13029 4ce9 48       		.uleb128 0x48
 13030 4cea 05270000 		.4byte	.LASF896
 13031 4cee 01       		.byte	0x1
 13032 4cef 1F01     		.2byte	0x11f
 13033 4cf1 00000000 		.4byte	.LFB266
 13034 4cf5 70000000 		.4byte	.LFE266-.LFB266
 13035 4cf9 01       		.uleb128 0x1
 13036 4cfa 9C       		.byte	0x9c
 13037 4cfb 364D0000 		.4byte	0x4d36
 13038 4cff 4B       		.uleb128 0x4b
 13039 4d00 CA0B0000 		.4byte	.LASF897
 13040 4d04 01       		.byte	0x1
 13041 4d05 1F01     		.2byte	0x11f
 13042 4d07 364D0000 		.4byte	0x4d36
 13043 4d0b 68040000 		.4byte	.LLST28
 13044 4d0f 37       		.uleb128 0x37
 13045 4d10 14000000 		.4byte	.LVL121
 13046 4d14 134C0000 		.4byte	0x4c13
 13047 4d18 3C       		.uleb128 0x3c
 13048 4d19 52000000 		.4byte	.LVL125
 13049 4d1d 7E4F0000 		.4byte	0x4f7e
 13050 4d21 2C4D0000 		.4byte	0x4d2c
 13051 4d25 3B       		.uleb128 0x3b
 13052 4d26 01       		.uleb128 0x1
 13053 4d27 50       		.byte	0x50
 13054 4d28 02       		.uleb128 0x2
 13055 4d29 91       		.byte	0x91
 13056 4d2a 64       		.sleb128 -28
 13057 4d2b 00       		.byte	0
 13058 4d2c 37       		.uleb128 0x37
 13059 4d2d 62000000 		.4byte	.LVL127
 13060 4d31 5A5C0000 		.4byte	0x5c5a
 13061 4d35 00       		.byte	0
 13062 4d36 08       		.uleb128 0x8
 13063 4d37 04       		.byte	0x4
 13064 4d38 840A0000 		.4byte	0xa84
 13065 4d3c 36       		.uleb128 0x36
 13066 4d3d B3220000 		.4byte	.LASF898
 13067 4d41 01       		.byte	0x1
 13068 4d42 1801     		.2byte	0x118
 13069 4d44 00000000 		.4byte	.LFB265
 13070 4d48 48000000 		.4byte	.LFE265-.LFB265
 13071 4d4c 01       		.uleb128 0x1
ARM GAS  /var/folders/qd/4mxf5pkd0zdf0b9dd1hp39180000gn/T//ccn3RVaQ.s 			page 231


 13072 4d4d 9C       		.byte	0x9c
 13073 4d4e CA4D0000 		.4byte	0x4dca
 13074 4d52 4B       		.uleb128 0x4b
 13075 4d53 67010000 		.4byte	.LASF899
 13076 4d57 01       		.byte	0x1
 13077 4d58 1801     		.2byte	0x118
 13078 4d5a CA4D0000 		.4byte	0x4dca
 13079 4d5e 86040000 		.4byte	.LLST23
 13080 4d62 4B       		.uleb128 0x4b
 13081 4d63 1A0D0000 		.4byte	.LASF900
 13082 4d67 01       		.byte	0x1
 13083 4d68 1801     		.2byte	0x118
 13084 4d6a 78000000 		.4byte	0x78
 13085 4d6e A4040000 		.4byte	.LLST24
 13086 4d72 35       		.uleb128 0x35
 13087 4d73 D30A0000 		.4byte	.LASF901
 13088 4d77 01       		.byte	0x1
 13089 4d78 1A01     		.2byte	0x11a
 13090 4d7a 8A090000 		.4byte	0x98a
 13091 4d7e 02       		.uleb128 0x2
 13092 4d7f 91       		.byte	0x91
 13093 4d80 64       		.sleb128 -28
 13094 4d81 3C       		.uleb128 0x3c
 13095 4d82 16000000 		.4byte	.LVL95
 13096 4d86 0A5D0000 		.4byte	0x5d0a
 13097 4d8a 9D4D0000 		.4byte	0x4d9d
 13098 4d8e 3B       		.uleb128 0x3b
 13099 4d8f 01       		.uleb128 0x1
 13100 4d90 50       		.byte	0x50
 13101 4d91 05       		.uleb128 0x5
 13102 4d92 03       		.byte	0x3
 13103 4d93 00000000 		.4byte	.LC2
 13104 4d97 3B       		.uleb128 0x3b
 13105 4d98 01       		.uleb128 0x1
 13106 4d99 51       		.byte	0x51
 13107 4d9a 01       		.uleb128 0x1
 13108 4d9b 35       		.byte	0x35
 13109 4d9c 00       		.byte	0
 13110 4d9d 37       		.uleb128 0x37
 13111 4d9e 1E000000 		.4byte	.LVL96
 13112 4da2 D05D0000 		.4byte	0x5dd0
 13113 4da6 3C       		.uleb128 0x3c
 13114 4da7 2E000000 		.4byte	.LVL97
 13115 4dab D04D0000 		.4byte	0x4dd0
 13116 4daf C04D0000 		.4byte	0x4dc0
 13117 4db3 3B       		.uleb128 0x3b
 13118 4db4 01       		.uleb128 0x1
 13119 4db5 50       		.byte	0x50
 13120 4db6 02       		.uleb128 0x2
 13121 4db7 91       		.byte	0x91
 13122 4db8 64       		.sleb128 -28
 13123 4db9 3B       		.uleb128 0x3b
 13124 4dba 01       		.uleb128 0x1
 13125 4dbb 51       		.byte	0x51
 13126 4dbc 02       		.uleb128 0x2
 13127 4dbd 76       		.byte	0x76
 13128 4dbe 00       		.sleb128 0
ARM GAS  /var/folders/qd/4mxf5pkd0zdf0b9dd1hp39180000gn/T//ccn3RVaQ.s 			page 232


 13129 4dbf 00       		.byte	0
 13130 4dc0 37       		.uleb128 0x37
 13131 4dc1 3E000000 		.4byte	.LVL99
 13132 4dc5 5A5C0000 		.4byte	0x5c5a
 13133 4dc9 00       		.byte	0
 13134 4dca 08       		.uleb128 0x8
 13135 4dcb 04       		.byte	0x4
 13136 4dcc C6090000 		.4byte	0x9c6
 13137 4dd0 36       		.uleb128 0x36
 13138 4dd1 49070000 		.4byte	.LASF902
 13139 4dd5 01       		.byte	0x1
 13140 4dd6 0F01     		.2byte	0x10f
 13141 4dd8 00000000 		.4byte	.LFB264
 13142 4ddc A0000000 		.4byte	.LFE264-.LFB264
 13143 4de0 01       		.uleb128 0x1
 13144 4de1 9C       		.byte	0x9c
 13145 4de2 784F0000 		.4byte	0x4f78
 13146 4de6 4B       		.uleb128 0x4b
 13147 4de7 D30A0000 		.4byte	.LASF901
 13148 4deb 01       		.byte	0x1
 13149 4dec 0F01     		.2byte	0x10f
 13150 4dee 784F0000 		.4byte	0x4f78
 13151 4df2 C2040000 		.4byte	.LLST19
 13152 4df6 4B       		.uleb128 0x4b
 13153 4df7 1A0D0000 		.4byte	.LASF900
 13154 4dfb 01       		.byte	0x1
 13155 4dfc 0F01     		.2byte	0x10f
 13156 4dfe 78000000 		.4byte	0x78
 13157 4e02 EE040000 		.4byte	.LLST20
 13158 4e06 4F       		.uleb128 0x4f
 13159 4e07 240D0000 		.4byte	.LASF903
 13160 4e0b 01       		.byte	0x1
 13161 4e0c 1201     		.2byte	0x112
 13162 4e0e 040C0000 		.4byte	0xc04
 13163 4e12 3F       		.uleb128 0x3f
 13164 4e13 E7570000 		.4byte	0x57e7
 13165 4e17 22000000 		.4byte	.LBB340
 13166 4e1b 60010000 		.4byte	.Ldebug_ranges0+0x160
 13167 4e1f 01       		.byte	0x1
 13168 4e20 1201     		.2byte	0x112
 13169 4e22 054F0000 		.4byte	0x4f05
 13170 4e26 43       		.uleb128 0x43
 13171 4e27 60010000 		.4byte	.Ldebug_ranges0+0x160
 13172 4e2b 44       		.uleb128 0x44
 13173 4e2c F7570000 		.4byte	0x57f7
 13174 4e30 51       		.uleb128 0x51
 13175 4e31 3F580000 		.4byte	0x583f
 13176 4e35 22000000 		.4byte	.LBB342
 13177 4e39 78010000 		.4byte	.Ldebug_ranges0+0x178
 13178 4e3d 04       		.byte	0x4
 13179 4e3e FA       		.byte	0xfa
 13180 4e3f 854E0000 		.4byte	0x4e85
 13181 4e43 41       		.uleb128 0x41
 13182 4e44 51580000 		.4byte	0x5851
 13183 4e48 22000000 		.4byte	.LBB344
 13184 4e4c 06000000 		.4byte	.LBE344-.LBB344
 13185 4e50 03       		.byte	0x3
ARM GAS  /var/folders/qd/4mxf5pkd0zdf0b9dd1hp39180000gn/T//ccn3RVaQ.s 			page 233


 13186 4e51 5C01     		.2byte	0x15c
 13187 4e53 724E0000 		.4byte	0x4e72
 13188 4e57 42       		.uleb128 0x42
 13189 4e58 5A580000 		.4byte	0x585a
 13190 4e5c 22000000 		.4byte	.LBB345
 13191 4e60 06000000 		.4byte	.LBE345-.LBB345
 13192 4e64 18       		.byte	0x18
 13193 4e65 BF01     		.2byte	0x1bf
 13194 4e67 40       		.uleb128 0x40
 13195 4e68 67580000 		.4byte	0x5867
 13196 4e6c 25050000 		.4byte	.LLST21
 13197 4e70 00       		.byte	0
 13198 4e71 00       		.byte	0
 13199 4e72 37       		.uleb128 0x37
 13200 4e73 2E000000 		.4byte	.LVL81
 13201 4e77 B05C0000 		.4byte	0x5cb0
 13202 4e7b 37       		.uleb128 0x37
 13203 4e7c 32000000 		.4byte	.LVL82
 13204 4e80 BB5C0000 		.4byte	0x5cbb
 13205 4e84 00       		.byte	0
 13206 4e85 52       		.uleb128 0x52
 13207 4e86 03580000 		.4byte	0x5803
 13208 4e8a 28000000 		.4byte	.LBB348
 13209 4e8e 90010000 		.4byte	.Ldebug_ranges0+0x190
 13210 4e92 04       		.byte	0x4
 13211 4e93 FB       		.byte	0xfb
 13212 4e94 53       		.uleb128 0x53
 13213 4e95 0F580000 		.4byte	0x580f
 13214 4e99 34000000 		.4byte	.LBB353
 13215 4e9d A8010000 		.4byte	.Ldebug_ranges0+0x1a8
 13216 4ea1 04       		.byte	0x4
 13217 4ea2 FC       		.byte	0xfc
 13218 4ea3 43       		.uleb128 0x43
 13219 4ea4 A8010000 		.4byte	.Ldebug_ranges0+0x1a8
 13220 4ea8 44       		.uleb128 0x44
 13221 4ea9 1C580000 		.4byte	0x581c
 13222 4ead 41       		.uleb128 0x41
 13223 4eae 48580000 		.4byte	0x5848
 13224 4eb2 4C000000 		.4byte	.LBB355
 13225 4eb6 06000000 		.4byte	.LBE355-.LBB355
 13226 4eba 03       		.byte	0x3
 13227 4ebb 7301     		.2byte	0x173
 13228 4ebd DC4E0000 		.4byte	0x4edc
 13229 4ec1 42       		.uleb128 0x42
 13230 4ec2 5A580000 		.4byte	0x585a
 13231 4ec6 4C000000 		.4byte	.LBB356
 13232 4eca 06000000 		.4byte	.LBE356-.LBB356
 13233 4ece 18       		.byte	0x18
 13234 4ecf CD01     		.2byte	0x1cd
 13235 4ed1 40       		.uleb128 0x40
 13236 4ed2 67580000 		.4byte	0x5867
 13237 4ed6 3A050000 		.4byte	.LLST22
 13238 4eda 00       		.byte	0
 13239 4edb 00       		.byte	0
 13240 4edc 37       		.uleb128 0x37
 13241 4edd 38000000 		.4byte	.LVL83
 13242 4ee1 DC5C0000 		.4byte	0x5cdc
ARM GAS  /var/folders/qd/4mxf5pkd0zdf0b9dd1hp39180000gn/T//ccn3RVaQ.s 			page 234


 13243 4ee5 37       		.uleb128 0x37
 13244 4ee6 3C000000 		.4byte	.LVL84
 13245 4eea E75C0000 		.4byte	0x5ce7
 13246 4eee 45       		.uleb128 0x45
 13247 4eef 86000000 		.4byte	.LVL90
 13248 4ef3 F25C0000 		.4byte	0x5cf2
 13249 4ef7 3B       		.uleb128 0x3b
 13250 4ef8 01       		.uleb128 0x1
 13251 4ef9 50       		.byte	0x50
 13252 4efa 05       		.uleb128 0x5
 13253 4efb 03       		.byte	0x3
 13254 4efc 00000000 		.4byte	.LANCHOR1
 13255 4f00 00       		.byte	0
 13256 4f01 00       		.byte	0
 13257 4f02 00       		.byte	0
 13258 4f03 00       		.byte	0
 13259 4f04 00       		.byte	0
 13260 4f05 3C       		.uleb128 0x3c
 13261 4f06 16000000 		.4byte	.LVL77
 13262 4f0a 0A5D0000 		.4byte	0x5d0a
 13263 4f0e 214F0000 		.4byte	0x4f21
 13264 4f12 3B       		.uleb128 0x3b
 13265 4f13 01       		.uleb128 0x1
 13266 4f14 50       		.byte	0x50
 13267 4f15 05       		.uleb128 0x5
 13268 4f16 03       		.byte	0x3
 13269 4f17 00000000 		.4byte	.LC2
 13270 4f1b 3B       		.uleb128 0x3b
 13271 4f1c 01       		.uleb128 0x1
 13272 4f1d 51       		.byte	0x51
 13273 4f1e 01       		.uleb128 0x1
 13274 4f1f 35       		.byte	0x35
 13275 4f20 00       		.byte	0
 13276 4f21 37       		.uleb128 0x37
 13277 4f22 22000000 		.4byte	.LVL78
 13278 4f26 DB5D0000 		.4byte	0x5ddb
 13279 4f2a 3C       		.uleb128 0x3c
 13280 4f2b 6E000000 		.4byte	.LVL87
 13281 4f2f E65D0000 		.4byte	0x5de6
 13282 4f33 654F0000 		.4byte	0x4f65
 13283 4f37 3B       		.uleb128 0x3b
 13284 4f38 01       		.uleb128 0x1
 13285 4f39 50       		.byte	0x50
 13286 4f3a 02       		.uleb128 0x2
 13287 4f3b 76       		.byte	0x76
 13288 4f3c 00       		.sleb128 0
 13289 4f3d 3B       		.uleb128 0x3b
 13290 4f3e 01       		.uleb128 0x1
 13291 4f3f 51       		.byte	0x51
 13292 4f40 23       		.uleb128 0x23
 13293 4f41 77       		.byte	0x77
 13294 4f42 00       		.sleb128 0
 13295 4f43 0A       		.byte	0xa
 13296 4f44 E803     		.2byte	0x3e8
 13297 4f46 1E       		.byte	0x1e
 13298 4f47 23       		.byte	0x23
 13299 4f48 E707     		.uleb128 0x3e7
ARM GAS  /var/folders/qd/4mxf5pkd0zdf0b9dd1hp39180000gn/T//ccn3RVaQ.s 			page 235


 13300 4f4a F7       		.byte	0xf7
 13301 4f4b 2C       		.uleb128 0x2c
 13302 4f4c F7       		.byte	0xf7
 13303 4f4d 25       		.uleb128 0x25
 13304 4f4e 0C       		.byte	0xc
 13305 4f4f D34D6210 		.4byte	0x10624dd3
 13306 4f53 F7       		.byte	0xf7
 13307 4f54 25       		.uleb128 0x25
 13308 4f55 1E       		.byte	0x1e
 13309 4f56 08       		.byte	0x8
 13310 4f57 20       		.byte	0x20
 13311 4f58 F7       		.byte	0xf7
 13312 4f59 25       		.uleb128 0x25
 13313 4f5a 25       		.byte	0x25
 13314 4f5b F7       		.byte	0xf7
 13315 4f5c 2C       		.uleb128 0x2c
 13316 4f5d F7       		.byte	0xf7
 13317 4f5e 00       		.uleb128 0
 13318 4f5f 36       		.byte	0x36
 13319 4f60 25       		.byte	0x25
 13320 4f61 76       		.byte	0x76
 13321 4f62 00       		.sleb128 0
 13322 4f63 22       		.byte	0x22
 13323 4f64 00       		.byte	0
 13324 4f65 50       		.uleb128 0x50
 13325 4f66 80000000 		.4byte	.LVL89
 13326 4f6a F15D0000 		.4byte	0x5df1
 13327 4f6e 37       		.uleb128 0x37
 13328 4f6f 8C000000 		.4byte	.LVL91
 13329 4f73 5A5C0000 		.4byte	0x5c5a
 13330 4f77 00       		.byte	0
 13331 4f78 08       		.uleb128 0x8
 13332 4f79 04       		.byte	0x4
 13333 4f7a 95090000 		.4byte	0x995
 13334 4f7e 36       		.uleb128 0x36
 13335 4f7f 24070000 		.4byte	.LASF904
 13336 4f83 01       		.byte	0x1
 13337 4f84 0901     		.2byte	0x109
 13338 4f86 00000000 		.4byte	.LFB263
 13339 4f8a 38000000 		.4byte	.LFE263-.LFB263
 13340 4f8e 01       		.uleb128 0x1
 13341 4f8f 9C       		.byte	0x9c
 13342 4f90 F04F0000 		.4byte	0x4ff0
 13343 4f94 4B       		.uleb128 0x4b
 13344 4f95 67010000 		.4byte	.LASF899
 13345 4f99 01       		.byte	0x1
 13346 4f9a 0901     		.2byte	0x109
 13347 4f9c CA4D0000 		.4byte	0x4dca
 13348 4fa0 4E050000 		.4byte	.LLST17
 13349 4fa4 4B       		.uleb128 0x4b
 13350 4fa5 1A0D0000 		.4byte	.LASF900
 13351 4fa9 01       		.byte	0x1
 13352 4faa 0901     		.2byte	0x109
 13353 4fac 78000000 		.4byte	0x78
 13354 4fb0 6F050000 		.4byte	.LLST18
 13355 4fb4 35       		.uleb128 0x35
 13356 4fb5 D30A0000 		.4byte	.LASF901
ARM GAS  /var/folders/qd/4mxf5pkd0zdf0b9dd1hp39180000gn/T//ccn3RVaQ.s 			page 236


 13357 4fb9 01       		.byte	0x1
 13358 4fba 0A01     		.2byte	0x10a
 13359 4fbc 8A090000 		.4byte	0x98a
 13360 4fc0 02       		.uleb128 0x2
 13361 4fc1 91       		.byte	0x91
 13362 4fc2 64       		.sleb128 -28
 13363 4fc3 37       		.uleb128 0x37
 13364 4fc4 12000000 		.4byte	.LVL70
 13365 4fc8 D05D0000 		.4byte	0x5dd0
 13366 4fcc 3C       		.uleb128 0x3c
 13367 4fcd 22000000 		.4byte	.LVL71
 13368 4fd1 F04F0000 		.4byte	0x4ff0
 13369 4fd5 E64F0000 		.4byte	0x4fe6
 13370 4fd9 3B       		.uleb128 0x3b
 13371 4fda 01       		.uleb128 0x1
 13372 4fdb 50       		.byte	0x50
 13373 4fdc 02       		.uleb128 0x2
 13374 4fdd 91       		.byte	0x91
 13375 4fde 64       		.sleb128 -28
 13376 4fdf 3B       		.uleb128 0x3b
 13377 4fe0 01       		.uleb128 0x1
 13378 4fe1 51       		.byte	0x51
 13379 4fe2 02       		.uleb128 0x2
 13380 4fe3 75       		.byte	0x75
 13381 4fe4 00       		.sleb128 0
 13382 4fe5 00       		.byte	0
 13383 4fe6 37       		.uleb128 0x37
 13384 4fe7 32000000 		.4byte	.LVL73
 13385 4feb 5A5C0000 		.4byte	0x5c5a
 13386 4fef 00       		.byte	0
 13387 4ff0 54       		.uleb128 0x54
 13388 4ff1 1D150000 		.4byte	.LASF905
 13389 4ff5 01       		.byte	0x1
 13390 4ff6 FF       		.byte	0xff
 13391 4ff7 00000000 		.4byte	.LFB262
 13392 4ffb D0000000 		.4byte	.LFE262-.LFB262
 13393 4fff 01       		.uleb128 0x1
 13394 5000 9C       		.byte	0x9c
 13395 5001 16520000 		.4byte	0x5216
 13396 5005 55       		.uleb128 0x55
 13397 5006 D30A0000 		.4byte	.LASF901
 13398 500a 01       		.byte	0x1
 13399 500b FF       		.byte	0xff
 13400 500c 784F0000 		.4byte	0x4f78
 13401 5010 8D050000 		.4byte	.LLST12
 13402 5014 55       		.uleb128 0x55
 13403 5015 1A0D0000 		.4byte	.LASF900
 13404 5019 01       		.byte	0x1
 13405 501a FF       		.byte	0xff
 13406 501b 78000000 		.4byte	0x78
 13407 501f AE050000 		.4byte	.LLST13
 13408 5023 4F       		.uleb128 0x4f
 13409 5024 240D0000 		.4byte	.LASF903
 13410 5028 01       		.byte	0x1
 13411 5029 0201     		.2byte	0x102
 13412 502b 040C0000 		.4byte	0xc04
 13413 502f 3F       		.uleb128 0x3f
ARM GAS  /var/folders/qd/4mxf5pkd0zdf0b9dd1hp39180000gn/T//ccn3RVaQ.s 			page 237


 13414 5030 1E520000 		.4byte	0x521e
 13415 5034 08000000 		.4byte	.LBB294
 13416 5038 E8000000 		.4byte	.Ldebug_ranges0+0xe8
 13417 503c 01       		.byte	0x1
 13418 503d 0101     		.2byte	0x101
 13419 503f 5C500000 		.4byte	0x505c
 13420 5043 39       		.uleb128 0x39
 13421 5044 2A520000 		.4byte	0x522a
 13422 5048 02       		.uleb128 0x2
 13423 5049 91       		.byte	0x91
 13424 504a 54       		.sleb128 -44
 13425 504b 45       		.uleb128 0x45
 13426 504c 24000000 		.4byte	.LVL52
 13427 5050 C55D0000 		.4byte	0x5dc5
 13428 5054 3B       		.uleb128 0x3b
 13429 5055 01       		.uleb128 0x1
 13430 5056 51       		.byte	0x51
 13431 5057 02       		.uleb128 0x2
 13432 5058 91       		.byte	0x91
 13433 5059 54       		.sleb128 -44
 13434 505a 00       		.byte	0
 13435 505b 00       		.byte	0
 13436 505c 3F       		.uleb128 0x3f
 13437 505d E7570000 		.4byte	0x57e7
 13438 5061 24000000 		.4byte	.LBB298
 13439 5065 00010000 		.4byte	.Ldebug_ranges0+0x100
 13440 5069 01       		.byte	0x1
 13441 506a 0201     		.2byte	0x102
 13442 506c 4F510000 		.4byte	0x514f
 13443 5070 43       		.uleb128 0x43
 13444 5071 00010000 		.4byte	.Ldebug_ranges0+0x100
 13445 5075 44       		.uleb128 0x44
 13446 5076 F7570000 		.4byte	0x57f7
 13447 507a 51       		.uleb128 0x51
 13448 507b 3F580000 		.4byte	0x583f
 13449 507f 24000000 		.4byte	.LBB300
 13450 5083 18010000 		.4byte	.Ldebug_ranges0+0x118
 13451 5087 04       		.byte	0x4
 13452 5088 FA       		.byte	0xfa
 13453 5089 CF500000 		.4byte	0x50cf
 13454 508d 41       		.uleb128 0x41
 13455 508e 51580000 		.4byte	0x5851
 13456 5092 24000000 		.4byte	.LBB302
 13457 5096 06000000 		.4byte	.LBE302-.LBB302
 13458 509a 03       		.byte	0x3
 13459 509b 5C01     		.2byte	0x15c
 13460 509d BC500000 		.4byte	0x50bc
 13461 50a1 42       		.uleb128 0x42
 13462 50a2 5A580000 		.4byte	0x585a
 13463 50a6 24000000 		.4byte	.LBB303
 13464 50aa 06000000 		.4byte	.LBE303-.LBB303
 13465 50ae 18       		.byte	0x18
 13466 50af BF01     		.2byte	0x1bf
 13467 50b1 40       		.uleb128 0x40
 13468 50b2 67580000 		.4byte	0x5867
 13469 50b6 F5050000 		.4byte	.LLST14
 13470 50ba 00       		.byte	0
ARM GAS  /var/folders/qd/4mxf5pkd0zdf0b9dd1hp39180000gn/T//ccn3RVaQ.s 			page 238


 13471 50bb 00       		.byte	0
 13472 50bc 37       		.uleb128 0x37
 13473 50bd 30000000 		.4byte	.LVL54
 13474 50c1 B05C0000 		.4byte	0x5cb0
 13475 50c5 37       		.uleb128 0x37
 13476 50c6 34000000 		.4byte	.LVL55
 13477 50ca BB5C0000 		.4byte	0x5cbb
 13478 50ce 00       		.byte	0
 13479 50cf 52       		.uleb128 0x52
 13480 50d0 03580000 		.4byte	0x5803
 13481 50d4 2A000000 		.4byte	.LBB306
 13482 50d8 30010000 		.4byte	.Ldebug_ranges0+0x130
 13483 50dc 04       		.byte	0x4
 13484 50dd FB       		.byte	0xfb
 13485 50de 53       		.uleb128 0x53
 13486 50df 0F580000 		.4byte	0x580f
 13487 50e3 36000000 		.4byte	.LBB311
 13488 50e7 48010000 		.4byte	.Ldebug_ranges0+0x148
 13489 50eb 04       		.byte	0x4
 13490 50ec FC       		.byte	0xfc
 13491 50ed 43       		.uleb128 0x43
 13492 50ee 48010000 		.4byte	.Ldebug_ranges0+0x148
 13493 50f2 44       		.uleb128 0x44
 13494 50f3 1C580000 		.4byte	0x581c
 13495 50f7 41       		.uleb128 0x41
 13496 50f8 48580000 		.4byte	0x5848
 13497 50fc 4E000000 		.4byte	.LBB313
 13498 5100 06000000 		.4byte	.LBE313-.LBB313
 13499 5104 03       		.byte	0x3
 13500 5105 7301     		.2byte	0x173
 13501 5107 26510000 		.4byte	0x5126
 13502 510b 42       		.uleb128 0x42
 13503 510c 5A580000 		.4byte	0x585a
 13504 5110 4E000000 		.4byte	.LBB314
 13505 5114 06000000 		.4byte	.LBE314-.LBB314
 13506 5118 18       		.byte	0x18
 13507 5119 CD01     		.2byte	0x1cd
 13508 511b 40       		.uleb128 0x40
 13509 511c 67580000 		.4byte	0x5867
 13510 5120 0A060000 		.4byte	.LLST15
 13511 5124 00       		.byte	0
 13512 5125 00       		.byte	0
 13513 5126 37       		.uleb128 0x37
 13514 5127 3A000000 		.4byte	.LVL56
 13515 512b DC5C0000 		.4byte	0x5cdc
 13516 512f 37       		.uleb128 0x37
 13517 5130 3E000000 		.4byte	.LVL57
 13518 5134 E75C0000 		.4byte	0x5ce7
 13519 5138 45       		.uleb128 0x45
 13520 5139 AE000000 		.4byte	.LVL65
 13521 513d F25C0000 		.4byte	0x5cf2
 13522 5141 3B       		.uleb128 0x3b
 13523 5142 01       		.uleb128 0x1
 13524 5143 50       		.byte	0x50
 13525 5144 05       		.uleb128 0x5
 13526 5145 03       		.byte	0x3
 13527 5146 00000000 		.4byte	.LANCHOR1
ARM GAS  /var/folders/qd/4mxf5pkd0zdf0b9dd1hp39180000gn/T//ccn3RVaQ.s 			page 239


 13528 514a 00       		.byte	0
 13529 514b 00       		.byte	0
 13530 514c 00       		.byte	0
 13531 514d 00       		.byte	0
 13532 514e 00       		.byte	0
 13533 514f 41       		.uleb128 0x41
 13534 5150 16520000 		.4byte	0x5216
 13535 5154 86000000 		.4byte	.LBB319
 13536 5158 0C000000 		.4byte	.LBE319-.LBB319
 13537 515c 01       		.byte	0x1
 13538 515d 0401     		.2byte	0x104
 13539 515f 8C510000 		.4byte	0x518c
 13540 5163 56       		.uleb128 0x56
 13541 5164 1E520000 		.4byte	0x521e
 13542 5168 86000000 		.4byte	.LBB320
 13543 516c 0C000000 		.4byte	.LBE320-.LBB320
 13544 5170 01       		.byte	0x1
 13545 5171 FB       		.byte	0xfb
 13546 5172 39       		.uleb128 0x39
 13547 5173 2A520000 		.4byte	0x522a
 13548 5177 02       		.uleb128 0x2
 13549 5178 91       		.byte	0x91
 13550 5179 4C       		.sleb128 -52
 13551 517a 45       		.uleb128 0x45
 13552 517b 92000000 		.4byte	.LVL62
 13553 517f C55D0000 		.4byte	0x5dc5
 13554 5183 3B       		.uleb128 0x3b
 13555 5184 01       		.uleb128 0x1
 13556 5185 51       		.byte	0x51
 13557 5186 02       		.uleb128 0x2
 13558 5187 91       		.byte	0x91
 13559 5188 4C       		.sleb128 -52
 13560 5189 00       		.byte	0
 13561 518a 00       		.byte	0
 13562 518b 00       		.byte	0
 13563 518c 41       		.uleb128 0x41
 13564 518d 7B4B0000 		.4byte	0x4b7b
 13565 5191 92000000 		.4byte	.LBB322
 13566 5195 06000000 		.4byte	.LBE322-.LBB322
 13567 5199 01       		.byte	0x1
 13568 519a 0501     		.2byte	0x105
 13569 519c CE510000 		.4byte	0x51ce
 13570 51a0 42       		.uleb128 0x42
 13571 51a1 CB570000 		.4byte	0x57cb
 13572 51a5 92000000 		.4byte	.LBB323
 13573 51a9 06000000 		.4byte	.LBE323-.LBB323
 13574 51ad 01       		.byte	0x1
 13575 51ae 4A01     		.2byte	0x14a
 13576 51b0 40       		.uleb128 0x40
 13577 51b1 DB570000 		.4byte	0x57db
 13578 51b5 1E060000 		.4byte	.LLST16
 13579 51b9 45       		.uleb128 0x45
 13580 51ba 98000000 		.4byte	.LVL63
 13581 51be 635C0000 		.4byte	0x5c63
 13582 51c2 3B       		.uleb128 0x3b
 13583 51c3 01       		.uleb128 0x1
 13584 51c4 50       		.byte	0x50
ARM GAS  /var/folders/qd/4mxf5pkd0zdf0b9dd1hp39180000gn/T//ccn3RVaQ.s 			page 240


 13585 51c5 05       		.uleb128 0x5
 13586 51c6 03       		.byte	0x3
 13587 51c7 00000000 		.4byte	.LANCHOR4
 13588 51cb 00       		.byte	0
 13589 51cc 00       		.byte	0
 13590 51cd 00       		.byte	0
 13591 51ce 3C       		.uleb128 0x3c
 13592 51cf 84000000 		.4byte	.LVL61
 13593 51d3 E65D0000 		.4byte	0x5de6
 13594 51d7 0C520000 		.4byte	0x520c
 13595 51db 3B       		.uleb128 0x3b
 13596 51dc 01       		.uleb128 0x1
 13597 51dd 50       		.byte	0x50
 13598 51de 02       		.uleb128 0x2
 13599 51df 77       		.byte	0x77
 13600 51e0 00       		.sleb128 0
 13601 51e1 3B       		.uleb128 0x3b
 13602 51e2 01       		.uleb128 0x1
 13603 51e3 51       		.byte	0x51
 13604 51e4 26       		.uleb128 0x26
 13605 51e5 F5       		.byte	0xf5
 13606 51e6 50       		.uleb128 0x50
 13607 51e7 33       		.uleb128 0x33
 13608 51e8 F7       		.byte	0xf7
 13609 51e9 2C       		.uleb128 0x2c
 13610 51ea 0A       		.byte	0xa
 13611 51eb E803     		.2byte	0x3e8
 13612 51ed 1E       		.byte	0x1e
 13613 51ee 23       		.byte	0x23
 13614 51ef E707     		.uleb128 0x3e7
 13615 51f1 F7       		.byte	0xf7
 13616 51f2 2C       		.uleb128 0x2c
 13617 51f3 F7       		.byte	0xf7
 13618 51f4 25       		.uleb128 0x25
 13619 51f5 0C       		.byte	0xc
 13620 51f6 D34D6210 		.4byte	0x10624dd3
 13621 51fa F7       		.byte	0xf7
 13622 51fb 25       		.uleb128 0x25
 13623 51fc 1E       		.byte	0x1e
 13624 51fd 08       		.byte	0x8
 13625 51fe 20       		.byte	0x20
 13626 51ff F7       		.byte	0xf7
 13627 5200 25       		.uleb128 0x25
 13628 5201 25       		.byte	0x25
 13629 5202 F7       		.byte	0xf7
 13630 5203 2C       		.uleb128 0x2c
 13631 5204 F7       		.byte	0xf7
 13632 5205 00       		.uleb128 0
 13633 5206 36       		.byte	0x36
 13634 5207 25       		.byte	0x25
 13635 5208 77       		.byte	0x77
 13636 5209 00       		.sleb128 0
 13637 520a 22       		.byte	0x22
 13638 520b 00       		.byte	0
 13639 520c 37       		.uleb128 0x37
 13640 520d B4000000 		.4byte	.LVL67
 13641 5211 5A5C0000 		.4byte	0x5c5a
ARM GAS  /var/folders/qd/4mxf5pkd0zdf0b9dd1hp39180000gn/T//ccn3RVaQ.s 			page 241


 13642 5215 00       		.byte	0
 13643 5216 57       		.uleb128 0x57
 13644 5217 F1000000 		.4byte	.LASF906
 13645 521b 01       		.byte	0x1
 13646 521c FA       		.byte	0xfa
 13647 521d 01       		.byte	0x1
 13648 521e 58       		.uleb128 0x58
 13649 521f F51E0000 		.4byte	.LASF907
 13650 5223 01       		.byte	0x1
 13651 5224 F5       		.byte	0xf5
 13652 5225 01       		.byte	0x1
 13653 5226 36520000 		.4byte	0x5236
 13654 522a 59       		.uleb128 0x59
 13655 522b 38290000 		.4byte	.LASF908
 13656 522f 01       		.byte	0x1
 13657 5230 F5       		.byte	0xf5
 13658 5231 8A090000 		.4byte	0x98a
 13659 5235 00       		.byte	0
 13660 5236 5A       		.uleb128 0x5a
 13661 5237 F8030000 		.4byte	.LASF909
 13662 523b 01       		.byte	0x1
 13663 523c D3       		.byte	0xd3
 13664 523d 00000000 		.4byte	.LFB259
 13665 5241 C4010000 		.4byte	.LFE259-.LFB259
 13666 5245 01       		.uleb128 0x1
 13667 5246 9C       		.byte	0x9c
 13668 5247 76570000 		.4byte	0x5776
 13669 524b 5B       		.uleb128 0x5b
 13670 524c 61726700 		.ascii	"arg\000"
 13671 5250 01       		.byte	0x1
 13672 5251 D3       		.byte	0xd3
 13673 5252 A2010000 		.4byte	0x1a2
 13674 5256 36060000 		.4byte	.LLST0
 13675 525a 32       		.uleb128 0x32
 13676 525b 7D010000 		.4byte	.LASF910
 13677 525f 01       		.byte	0x1
 13678 5260 D5       		.byte	0xd5
 13679 5261 5B000000 		.4byte	0x5b
 13680 5265 05       		.uleb128 0x5
 13681 5266 03       		.byte	0x3
 13682 5267 00000000 		.4byte	isMoving.11994
 13683 526b 32       		.uleb128 0x32
 13684 526c 92160000 		.4byte	.LASF911
 13685 5270 01       		.byte	0x1
 13686 5271 D6       		.byte	0xd6
 13687 5272 040C0000 		.4byte	0xc04
 13688 5276 05       		.uleb128 0x5
 13689 5277 03       		.byte	0x3
 13690 5278 00000000 		.4byte	lastOrderTime.11995
 13691 527c 43       		.uleb128 0x43
 13692 527d 00000000 		.4byte	.Ldebug_ranges0+0
 13693 5281 5C       		.uleb128 0x5c
 13694 5282 747000   		.ascii	"tp\000"
 13695 5285 01       		.byte	0x1
 13696 5286 D8       		.byte	0xd8
 13697 5287 480D0000 		.4byte	0xd48
 13698 528b 57060000 		.4byte	.LLST1
ARM GAS  /var/folders/qd/4mxf5pkd0zdf0b9dd1hp39180000gn/T//ccn3RVaQ.s 			page 242


 13699 528f 5D       		.uleb128 0x5d
 13700 5290 38290000 		.4byte	.LASF908
 13701 5294 01       		.byte	0x1
 13702 5295 D9       		.byte	0xd9
 13703 5296 784F0000 		.4byte	0x4f78
 13704 529a 8B060000 		.4byte	.LLST2
 13705 529e 5E       		.uleb128 0x5e
 13706 529f 1C000000 		.4byte	.LBB209
 13707 52a3 9A000000 		.4byte	.LBE209-.LBB209
 13708 52a7 E6540000 		.4byte	0x54e6
 13709 52ab 31       		.uleb128 0x31
 13710 52ac 1A0D0000 		.4byte	.LASF900
 13711 52b0 01       		.byte	0x1
 13712 52b1 DC       		.byte	0xdc
 13713 52b2 040C0000 		.4byte	0xc04
 13714 52b6 5F       		.uleb128 0x5f
 13715 52b7 E7570000 		.4byte	0x57e7
 13716 52bb 1C000000 		.4byte	.LBB210
 13717 52bf 32000000 		.4byte	.LBE210-.LBB210
 13718 52c3 01       		.byte	0x1
 13719 52c4 DC       		.byte	0xdc
 13720 52c5 B0530000 		.4byte	0x53b0
 13721 52c9 47       		.uleb128 0x47
 13722 52ca 1C000000 		.4byte	.LBB211
 13723 52ce 32000000 		.4byte	.LBE211-.LBB211
 13724 52d2 44       		.uleb128 0x44
 13725 52d3 F7570000 		.4byte	0x57f7
 13726 52d7 5F       		.uleb128 0x5f
 13727 52d8 3F580000 		.4byte	0x583f
 13728 52dc 1C000000 		.4byte	.LBB212
 13729 52e0 0E000000 		.4byte	.LBE212-.LBB212
 13730 52e4 04       		.byte	0x4
 13731 52e5 FA       		.byte	0xfa
 13732 52e6 2C530000 		.4byte	0x532c
 13733 52ea 41       		.uleb128 0x41
 13734 52eb 51580000 		.4byte	0x5851
 13735 52ef 1C000000 		.4byte	.LBB214
 13736 52f3 06000000 		.4byte	.LBE214-.LBB214
 13737 52f7 03       		.byte	0x3
 13738 52f8 5C01     		.2byte	0x15c
 13739 52fa 19530000 		.4byte	0x5319
 13740 52fe 42       		.uleb128 0x42
 13741 52ff 5A580000 		.4byte	0x585a
 13742 5303 1C000000 		.4byte	.LBB215
 13743 5307 06000000 		.4byte	.LBE215-.LBB215
 13744 530b 18       		.byte	0x18
 13745 530c BF01     		.2byte	0x1bf
 13746 530e 40       		.uleb128 0x40
 13747 530f 67580000 		.4byte	0x5867
 13748 5313 A9060000 		.4byte	.LLST5
 13749 5317 00       		.byte	0
 13750 5318 00       		.byte	0
 13751 5319 37       		.uleb128 0x37
 13752 531a 26000000 		.4byte	.LVL3
 13753 531e B05C0000 		.4byte	0x5cb0
 13754 5322 37       		.uleb128 0x37
 13755 5323 2A000000 		.4byte	.LVL4
ARM GAS  /var/folders/qd/4mxf5pkd0zdf0b9dd1hp39180000gn/T//ccn3RVaQ.s 			page 243


 13756 5327 BB5C0000 		.4byte	0x5cbb
 13757 532b 00       		.byte	0
 13758 532c 60       		.uleb128 0x60
 13759 532d 03580000 		.4byte	0x5803
 13760 5331 2A000000 		.4byte	.LBB217
 13761 5335 02000000 		.4byte	.LBE217-.LBB217
 13762 5339 04       		.byte	0x4
 13763 533a FB       		.byte	0xfb
 13764 533b 56       		.uleb128 0x56
 13765 533c 0F580000 		.4byte	0x580f
 13766 5340 2C000000 		.4byte	.LBB219
 13767 5344 22000000 		.4byte	.LBE219-.LBB219
 13768 5348 04       		.byte	0x4
 13769 5349 FC       		.byte	0xfc
 13770 534a 47       		.uleb128 0x47
 13771 534b 2C000000 		.4byte	.LBB220
 13772 534f 22000000 		.4byte	.LBE220-.LBB220
 13773 5353 44       		.uleb128 0x44
 13774 5354 1C580000 		.4byte	0x581c
 13775 5358 41       		.uleb128 0x41
 13776 5359 48580000 		.4byte	0x5848
 13777 535d 4A000000 		.4byte	.LBB221
 13778 5361 04000000 		.4byte	.LBE221-.LBB221
 13779 5365 03       		.byte	0x3
 13780 5366 7301     		.2byte	0x173
 13781 5368 87530000 		.4byte	0x5387
 13782 536c 42       		.uleb128 0x42
 13783 536d 5A580000 		.4byte	0x585a
 13784 5371 4A000000 		.4byte	.LBB222
 13785 5375 04000000 		.4byte	.LBE222-.LBB222
 13786 5379 18       		.byte	0x18
 13787 537a CD01     		.2byte	0x1cd
 13788 537c 40       		.uleb128 0x40
 13789 537d 67580000 		.4byte	0x5867
 13790 5381 BE060000 		.4byte	.LLST6
 13791 5385 00       		.byte	0
 13792 5386 00       		.byte	0
 13793 5387 37       		.uleb128 0x37
 13794 5388 30000000 		.4byte	.LVL5
 13795 538c DC5C0000 		.4byte	0x5cdc
 13796 5390 37       		.uleb128 0x37
 13797 5391 34000000 		.4byte	.LVL6
 13798 5395 E75C0000 		.4byte	0x5ce7
 13799 5399 45       		.uleb128 0x45
 13800 539a 4A000000 		.4byte	.LVL7
 13801 539e F25C0000 		.4byte	0x5cf2
 13802 53a2 3B       		.uleb128 0x3b
 13803 53a3 01       		.uleb128 0x1
 13804 53a4 50       		.byte	0x50
 13805 53a5 05       		.uleb128 0x5
 13806 53a6 03       		.byte	0x3
 13807 53a7 00000000 		.4byte	.LANCHOR1
 13808 53ab 00       		.byte	0
 13809 53ac 00       		.byte	0
 13810 53ad 00       		.byte	0
 13811 53ae 00       		.byte	0
 13812 53af 00       		.byte	0
ARM GAS  /var/folders/qd/4mxf5pkd0zdf0b9dd1hp39180000gn/T//ccn3RVaQ.s 			page 244


 13813 53b0 51       		.uleb128 0x51
 13814 53b1 E7570000 		.4byte	0x57e7
 13815 53b5 4E000000 		.4byte	.LBB224
 13816 53b9 60000000 		.4byte	.Ldebug_ranges0+0x60
 13817 53bd 01       		.byte	0x1
 13818 53be DD       		.byte	0xdd
 13819 53bf A6540000 		.4byte	0x54a6
 13820 53c3 43       		.uleb128 0x43
 13821 53c4 60000000 		.4byte	.Ldebug_ranges0+0x60
 13822 53c8 44       		.uleb128 0x44
 13823 53c9 F7570000 		.4byte	0x57f7
 13824 53cd 51       		.uleb128 0x51
 13825 53ce 3F580000 		.4byte	0x583f
 13826 53d2 4E000000 		.4byte	.LBB226
 13827 53d6 78000000 		.4byte	.Ldebug_ranges0+0x78
 13828 53da 04       		.byte	0x4
 13829 53db FA       		.byte	0xfa
 13830 53dc 22540000 		.4byte	0x5422
 13831 53e0 3F       		.uleb128 0x3f
 13832 53e1 51580000 		.4byte	0x5851
 13833 53e5 4E000000 		.4byte	.LBB228
 13834 53e9 90000000 		.4byte	.Ldebug_ranges0+0x90
 13835 53ed 03       		.byte	0x3
 13836 53ee 5C01     		.2byte	0x15c
 13837 53f0 0F540000 		.4byte	0x540f
 13838 53f4 38       		.uleb128 0x38
 13839 53f5 5A580000 		.4byte	0x585a
 13840 53f9 4E000000 		.4byte	.LBB229
 13841 53fd 90000000 		.4byte	.Ldebug_ranges0+0x90
 13842 5401 18       		.byte	0x18
 13843 5402 BF01     		.2byte	0x1bf
 13844 5404 40       		.uleb128 0x40
 13845 5405 67580000 		.4byte	0x5867
 13846 5409 D2060000 		.4byte	.LLST7
 13847 540d 00       		.byte	0
 13848 540e 00       		.byte	0
 13849 540f 37       		.uleb128 0x37
 13850 5410 5E000000 		.4byte	.LVL11
 13851 5414 B05C0000 		.4byte	0x5cb0
 13852 5418 37       		.uleb128 0x37
 13853 5419 62000000 		.4byte	.LVL12
 13854 541d BB5C0000 		.4byte	0x5cbb
 13855 5421 00       		.byte	0
 13856 5422 60       		.uleb128 0x60
 13857 5423 03580000 		.4byte	0x5803
 13858 5427 62000000 		.4byte	.LBB236
 13859 542b 04000000 		.4byte	.LBE236-.LBB236
 13860 542f 04       		.byte	0x4
 13861 5430 FB       		.byte	0xfb
 13862 5431 56       		.uleb128 0x56
 13863 5432 0F580000 		.4byte	0x580f
 13864 5436 66000000 		.4byte	.LBB238
 13865 543a 22000000 		.4byte	.LBE238-.LBB238
 13866 543e 04       		.byte	0x4
 13867 543f FC       		.byte	0xfc
 13868 5440 47       		.uleb128 0x47
 13869 5441 66000000 		.4byte	.LBB239
ARM GAS  /var/folders/qd/4mxf5pkd0zdf0b9dd1hp39180000gn/T//ccn3RVaQ.s 			page 245


 13870 5445 22000000 		.4byte	.LBE239-.LBB239
 13871 5449 44       		.uleb128 0x44
 13872 544a 1C580000 		.4byte	0x581c
 13873 544e 41       		.uleb128 0x41
 13874 544f 48580000 		.4byte	0x5848
 13875 5453 84000000 		.4byte	.LBB240
 13876 5457 04000000 		.4byte	.LBE240-.LBB240
 13877 545b 03       		.byte	0x3
 13878 545c 7301     		.2byte	0x173
 13879 545e 7D540000 		.4byte	0x547d
 13880 5462 42       		.uleb128 0x42
 13881 5463 5A580000 		.4byte	0x585a
 13882 5467 84000000 		.4byte	.LBB241
 13883 546b 04000000 		.4byte	.LBE241-.LBB241
 13884 546f 18       		.byte	0x18
 13885 5470 CD01     		.2byte	0x1cd
 13886 5472 40       		.uleb128 0x40
 13887 5473 67580000 		.4byte	0x5867
 13888 5477 E7060000 		.4byte	.LLST8
 13889 547b 00       		.byte	0
 13890 547c 00       		.byte	0
 13891 547d 37       		.uleb128 0x37
 13892 547e 6A000000 		.4byte	.LVL13
 13893 5482 DC5C0000 		.4byte	0x5cdc
 13894 5486 37       		.uleb128 0x37
 13895 5487 6E000000 		.4byte	.LVL14
 13896 548b E75C0000 		.4byte	0x5ce7
 13897 548f 45       		.uleb128 0x45
 13898 5490 84000000 		.4byte	.LVL15
 13899 5494 F25C0000 		.4byte	0x5cf2
 13900 5498 3B       		.uleb128 0x3b
 13901 5499 01       		.uleb128 0x1
 13902 549a 50       		.byte	0x50
 13903 549b 05       		.uleb128 0x5
 13904 549c 03       		.byte	0x3
 13905 549d 00000000 		.4byte	.LANCHOR1
 13906 54a1 00       		.byte	0
 13907 54a2 00       		.byte	0
 13908 54a3 00       		.byte	0
 13909 54a4 00       		.byte	0
 13910 54a5 00       		.byte	0
 13911 54a6 37       		.uleb128 0x37
 13912 54a7 9E000000 		.4byte	.LVL17
 13913 54ab DB5D0000 		.4byte	0x5ddb
 13914 54af 45       		.uleb128 0x45
 13915 54b0 B6000000 		.4byte	.LVL18
 13916 54b4 FC5D0000 		.4byte	0x5dfc
 13917 54b8 3B       		.uleb128 0x3b
 13918 54b9 01       		.uleb128 0x1
 13919 54ba 50       		.byte	0x50
 13920 54bb 05       		.uleb128 0x5
 13921 54bc 03       		.byte	0x3
 13922 54bd 00000000 		.4byte	.LANCHOR3
 13923 54c1 3B       		.uleb128 0x3b
 13924 54c2 01       		.uleb128 0x1
 13925 54c3 51       		.byte	0x51
 13926 54c4 1F       		.uleb128 0x1f
ARM GAS  /var/folders/qd/4mxf5pkd0zdf0b9dd1hp39180000gn/T//ccn3RVaQ.s 			page 246


 13927 54c5 76       		.byte	0x76
 13928 54c6 00       		.sleb128 0
 13929 54c7 0A       		.byte	0xa
 13930 54c8 E803     		.2byte	0x3e8
 13931 54ca 1E       		.byte	0x1e
 13932 54cb 31       		.byte	0x31
 13933 54cc 1C       		.byte	0x1c
 13934 54cd F7       		.byte	0xf7
 13935 54ce 2C       		.uleb128 0x2c
 13936 54cf F7       		.byte	0xf7
 13937 54d0 25       		.uleb128 0x25
 13938 54d1 0C       		.byte	0xc
 13939 54d2 D34D6210 		.4byte	0x10624dd3
 13940 54d6 F7       		.byte	0xf7
 13941 54d7 25       		.uleb128 0x25
 13942 54d8 1E       		.byte	0x1e
 13943 54d9 08       		.byte	0x8
 13944 54da 20       		.byte	0x20
 13945 54db F7       		.byte	0xf7
 13946 54dc 25       		.uleb128 0x25
 13947 54dd 25       		.byte	0x25
 13948 54de F7       		.byte	0xf7
 13949 54df 2C       		.uleb128 0x2c
 13950 54e0 F7       		.byte	0xf7
 13951 54e1 00       		.uleb128 0
 13952 54e2 36       		.byte	0x36
 13953 54e3 25       		.byte	0x25
 13954 54e4 00       		.byte	0
 13955 54e5 00       		.byte	0
 13956 54e6 51       		.uleb128 0x51
 13957 54e7 E7570000 		.4byte	0x57e7
 13958 54eb 14000000 		.4byte	.LBB189
 13959 54ef 18000000 		.4byte	.Ldebug_ranges0+0x18
 13960 54f3 01       		.byte	0x1
 13961 54f4 E2       		.byte	0xe2
 13962 54f5 DC550000 		.4byte	0x55dc
 13963 54f9 43       		.uleb128 0x43
 13964 54fa 18000000 		.4byte	.Ldebug_ranges0+0x18
 13965 54fe 44       		.uleb128 0x44
 13966 54ff F7570000 		.4byte	0x57f7
 13967 5503 51       		.uleb128 0x51
 13968 5504 0F580000 		.4byte	0x580f
 13969 5508 14000000 		.4byte	.LBB191
 13970 550c 30000000 		.4byte	.Ldebug_ranges0+0x30
 13971 5510 04       		.byte	0x4
 13972 5511 FC       		.byte	0xfc
 13973 5512 76550000 		.4byte	0x5576
 13974 5516 43       		.uleb128 0x43
 13975 5517 30000000 		.4byte	.Ldebug_ranges0+0x30
 13976 551b 44       		.uleb128 0x44
 13977 551c 1C580000 		.4byte	0x581c
 13978 5520 3F       		.uleb128 0x3f
 13979 5521 48580000 		.4byte	0x5848
 13980 5525 14000000 		.4byte	.LBB193
 13981 5529 48000000 		.4byte	.Ldebug_ranges0+0x48
 13982 552d 03       		.byte	0x3
 13983 552e 7301     		.2byte	0x173
ARM GAS  /var/folders/qd/4mxf5pkd0zdf0b9dd1hp39180000gn/T//ccn3RVaQ.s 			page 247


 13984 5530 4F550000 		.4byte	0x554f
 13985 5534 38       		.uleb128 0x38
 13986 5535 5A580000 		.4byte	0x585a
 13987 5539 14000000 		.4byte	.LBB194
 13988 553d 48000000 		.4byte	.Ldebug_ranges0+0x48
 13989 5541 18       		.byte	0x18
 13990 5542 CD01     		.2byte	0x1cd
 13991 5544 40       		.uleb128 0x40
 13992 5545 67580000 		.4byte	0x5867
 13993 5549 FB060000 		.4byte	.LLST3
 13994 554d 00       		.byte	0
 13995 554e 00       		.byte	0
 13996 554f 37       		.uleb128 0x37
 13997 5550 18010000 		.4byte	.LVL27
 13998 5554 DC5C0000 		.4byte	0x5cdc
 13999 5558 37       		.uleb128 0x37
 14000 5559 1C010000 		.4byte	.LVL28
 14001 555d E75C0000 		.4byte	0x5ce7
 14002 5561 45       		.uleb128 0x45
 14003 5562 32010000 		.4byte	.LVL29
 14004 5566 F25C0000 		.4byte	0x5cf2
 14005 556a 3B       		.uleb128 0x3b
 14006 556b 01       		.uleb128 0x1
 14007 556c 50       		.byte	0x50
 14008 556d 05       		.uleb128 0x5
 14009 556e 03       		.byte	0x3
 14010 556f 00000000 		.4byte	.LANCHOR1
 14011 5573 00       		.byte	0
 14012 5574 00       		.byte	0
 14013 5575 00       		.byte	0
 14014 5576 5F       		.uleb128 0x5f
 14015 5577 3F580000 		.4byte	0x583f
 14016 557b 04010000 		.4byte	.LBB200
 14017 557f 0E000000 		.4byte	.LBE200-.LBB200
 14018 5583 04       		.byte	0x4
 14019 5584 FA       		.byte	0xfa
 14020 5585 CB550000 		.4byte	0x55cb
 14021 5589 41       		.uleb128 0x41
 14022 558a 51580000 		.4byte	0x5851
 14023 558e 04010000 		.4byte	.LBB202
 14024 5592 06000000 		.4byte	.LBE202-.LBB202
 14025 5596 03       		.byte	0x3
 14026 5597 5C01     		.2byte	0x15c
 14027 5599 B8550000 		.4byte	0x55b8
 14028 559d 42       		.uleb128 0x42
 14029 559e 5A580000 		.4byte	0x585a
 14030 55a2 04010000 		.4byte	.LBB203
 14031 55a6 06000000 		.4byte	.LBE203-.LBB203
 14032 55aa 18       		.byte	0x18
 14033 55ab BF01     		.2byte	0x1bf
 14034 55ad 40       		.uleb128 0x40
 14035 55ae 67580000 		.4byte	0x5867
 14036 55b2 0F070000 		.4byte	.LLST4
 14037 55b6 00       		.byte	0
 14038 55b7 00       		.byte	0
 14039 55b8 37       		.uleb128 0x37
 14040 55b9 0E010000 		.4byte	.LVL25
ARM GAS  /var/folders/qd/4mxf5pkd0zdf0b9dd1hp39180000gn/T//ccn3RVaQ.s 			page 248


 14041 55bd B05C0000 		.4byte	0x5cb0
 14042 55c1 37       		.uleb128 0x37
 14043 55c2 12010000 		.4byte	.LVL26
 14044 55c6 BB5C0000 		.4byte	0x5cbb
 14045 55ca 00       		.byte	0
 14046 55cb 60       		.uleb128 0x60
 14047 55cc 03580000 		.4byte	0x5803
 14048 55d0 12010000 		.4byte	.LBB205
 14049 55d4 02000000 		.4byte	.LBE205-.LBB205
 14050 55d8 04       		.byte	0x4
 14051 55d9 FB       		.byte	0xfb
 14052 55da 00       		.byte	0
 14053 55db 00       		.byte	0
 14054 55dc 5F       		.uleb128 0x5f
 14055 55dd 844B0000 		.4byte	0x4b84
 14056 55e1 52010000 		.4byte	.LBB246
 14057 55e5 72000000 		.4byte	.LBE246-.LBB246
 14058 55e9 01       		.byte	0x1
 14059 55ea E9       		.byte	0xe9
 14060 55eb 1E570000 		.4byte	0x571e
 14061 55ef 42       		.uleb128 0x42
 14062 55f0 91570000 		.4byte	0x5791
 14063 55f4 52010000 		.4byte	.LBB247
 14064 55f8 72000000 		.4byte	.LBE247-.LBB247
 14065 55fc 01       		.byte	0x1
 14066 55fd 4501     		.2byte	0x145
 14067 55ff 39       		.uleb128 0x39
 14068 5600 9E570000 		.4byte	0x579e
 14069 5604 06       		.uleb128 0x6
 14070 5605 03       		.byte	0x3
 14071 5606 00000000 		.4byte	wipEndMovingSignal_sem
 14072 560a 9F       		.byte	0x9f
 14073 560b 41       		.uleb128 0x41
 14074 560c 3F580000 		.4byte	0x583f
 14075 5610 52010000 		.4byte	.LBB249
 14076 5614 0E000000 		.4byte	.LBE249-.LBB249
 14077 5618 05       		.byte	0x5
 14078 5619 1C01     		.2byte	0x11c
 14079 561b 61560000 		.4byte	0x5661
 14080 561f 41       		.uleb128 0x41
 14081 5620 51580000 		.4byte	0x5851
 14082 5624 52010000 		.4byte	.LBB251
 14083 5628 06000000 		.4byte	.LBE251-.LBB251
 14084 562c 03       		.byte	0x3
 14085 562d 5C01     		.2byte	0x15c
 14086 562f 4E560000 		.4byte	0x564e
 14087 5633 42       		.uleb128 0x42
 14088 5634 5A580000 		.4byte	0x585a
 14089 5638 52010000 		.4byte	.LBB252
 14090 563c 06000000 		.4byte	.LBE252-.LBB252
 14091 5640 18       		.byte	0x18
 14092 5641 BF01     		.2byte	0x1bf
 14093 5643 40       		.uleb128 0x40
 14094 5644 67580000 		.4byte	0x5867
 14095 5648 24070000 		.4byte	.LLST9
 14096 564c 00       		.byte	0
 14097 564d 00       		.byte	0
ARM GAS  /var/folders/qd/4mxf5pkd0zdf0b9dd1hp39180000gn/T//ccn3RVaQ.s 			page 249


 14098 564e 37       		.uleb128 0x37
 14099 564f 5C010000 		.4byte	.LVL35
 14100 5653 B05C0000 		.4byte	0x5cb0
 14101 5657 37       		.uleb128 0x37
 14102 5658 60010000 		.4byte	.LVL36
 14103 565c BB5C0000 		.4byte	0x5cbb
 14104 5660 00       		.byte	0
 14105 5661 3F       		.uleb128 0x3f
 14106 5662 B1570000 		.4byte	0x57b1
 14107 5666 60010000 		.4byte	.LBB254
 14108 566a A8000000 		.4byte	.Ldebug_ranges0+0xa8
 14109 566e 05       		.byte	0x5
 14110 566f 1D01     		.2byte	0x11d
 14111 5671 9B560000 		.4byte	0x569b
 14112 5675 40       		.uleb128 0x40
 14113 5676 BE570000 		.4byte	0x57be
 14114 567a 39070000 		.4byte	.LLST10
 14115 567e 37       		.uleb128 0x37
 14116 567f 64010000 		.4byte	.LVL37
 14117 5683 C65C0000 		.4byte	0x5cc6
 14118 5687 45       		.uleb128 0x45
 14119 5688 9A010000 		.4byte	.LVL45
 14120 568c D15C0000 		.4byte	0x5cd1
 14121 5690 3B       		.uleb128 0x3b
 14122 5691 01       		.uleb128 0x1
 14123 5692 50       		.byte	0x50
 14124 5693 05       		.uleb128 0x5
 14125 5694 03       		.byte	0x3
 14126 5695 00000000 		.4byte	.LANCHOR4
 14127 5699 00       		.byte	0
 14128 569a 00       		.byte	0
 14129 569b 41       		.uleb128 0x41
 14130 569c 0F580000 		.4byte	0x580f
 14131 56a0 70010000 		.4byte	.LBB257
 14132 56a4 24000000 		.4byte	.LBE257-.LBB257
 14133 56a8 05       		.byte	0x5
 14134 56a9 1F01     		.2byte	0x11f
 14135 56ab 13570000 		.4byte	0x5713
 14136 56af 47       		.uleb128 0x47
 14137 56b0 70010000 		.4byte	.LBB258
 14138 56b4 24000000 		.4byte	.LBE258-.LBB258
 14139 56b8 44       		.uleb128 0x44
 14140 56b9 1C580000 		.4byte	0x581c
 14141 56bd 41       		.uleb128 0x41
 14142 56be 48580000 		.4byte	0x5848
 14143 56c2 8E010000 		.4byte	.LBB259
 14144 56c6 06000000 		.4byte	.LBE259-.LBB259
 14145 56ca 03       		.byte	0x3
 14146 56cb 7301     		.2byte	0x173
 14147 56cd EC560000 		.4byte	0x56ec
 14148 56d1 42       		.uleb128 0x42
 14149 56d2 5A580000 		.4byte	0x585a
 14150 56d6 8E010000 		.4byte	.LBB260
 14151 56da 06000000 		.4byte	.LBE260-.LBB260
 14152 56de 18       		.byte	0x18
 14153 56df CD01     		.2byte	0x1cd
 14154 56e1 40       		.uleb128 0x40
ARM GAS  /var/folders/qd/4mxf5pkd0zdf0b9dd1hp39180000gn/T//ccn3RVaQ.s 			page 250


 14155 56e2 67580000 		.4byte	0x5867
 14156 56e6 61070000 		.4byte	.LLST11
 14157 56ea 00       		.byte	0
 14158 56eb 00       		.byte	0
 14159 56ec 37       		.uleb128 0x37
 14160 56ed 74010000 		.4byte	.LVL40
 14161 56f1 DC5C0000 		.4byte	0x5cdc
 14162 56f5 37       		.uleb128 0x37
 14163 56f6 78010000 		.4byte	.LVL41
 14164 56fa E75C0000 		.4byte	0x5ce7
 14165 56fe 45       		.uleb128 0x45
 14166 56ff 8E010000 		.4byte	.LVL42
 14167 5703 F25C0000 		.4byte	0x5cf2
 14168 5707 3B       		.uleb128 0x3b
 14169 5708 01       		.uleb128 0x1
 14170 5709 50       		.byte	0x50
 14171 570a 05       		.uleb128 0x5
 14172 570b 03       		.byte	0x3
 14173 570c 00000000 		.4byte	.LANCHOR1
 14174 5710 00       		.byte	0
 14175 5711 00       		.byte	0
 14176 5712 00       		.byte	0
 14177 5713 37       		.uleb128 0x37
 14178 5714 70010000 		.4byte	.LVL39
 14179 5718 FE5C0000 		.4byte	0x5cfe
 14180 571c 00       		.byte	0
 14181 571d 00       		.byte	0
 14182 571e 3C       		.uleb128 0x3c
 14183 571f DC000000 		.4byte	.LVL19
 14184 5723 0A5D0000 		.4byte	0x5d0a
 14185 5727 35570000 		.4byte	0x5735
 14186 572b 3B       		.uleb128 0x3b
 14187 572c 01       		.uleb128 0x1
 14188 572d 50       		.byte	0x50
 14189 572e 05       		.uleb128 0x5
 14190 572f 03       		.byte	0x3
 14191 5730 14000000 		.4byte	.LC1
 14192 5734 00       		.byte	0
 14193 5735 3C       		.uleb128 0x3c
 14194 5736 F4000000 		.4byte	.LVL20
 14195 573a 075E0000 		.4byte	0x5e07
 14196 573e 4F570000 		.4byte	0x574f
 14197 5742 3B       		.uleb128 0x3b
 14198 5743 01       		.uleb128 0x1
 14199 5744 50       		.byte	0x50
 14200 5745 02       		.uleb128 0x2
 14201 5746 75       		.byte	0x75
 14202 5747 00       		.sleb128 0
 14203 5748 3B       		.uleb128 0x3b
 14204 5749 01       		.uleb128 0x1
 14205 574a 51       		.byte	0x51
 14206 574b 02       		.uleb128 0x2
 14207 574c 7A       		.byte	0x7a
 14208 574d 00       		.sleb128 0
 14209 574e 00       		.byte	0
 14210 574f 37       		.uleb128 0x37
 14211 5750 F8000000 		.4byte	.LVL21
ARM GAS  /var/folders/qd/4mxf5pkd0zdf0b9dd1hp39180000gn/T//ccn3RVaQ.s 			page 251


 14212 5754 125E0000 		.4byte	0x5e12
 14213 5758 37       		.uleb128 0x37
 14214 5759 46010000 		.4byte	.LVL31
 14215 575d DB5D0000 		.4byte	0x5ddb
 14216 5761 45       		.uleb128 0x45
 14217 5762 4E010000 		.4byte	.LVL32
 14218 5766 0A5D0000 		.4byte	0x5d0a
 14219 576a 3B       		.uleb128 0x3b
 14220 576b 01       		.uleb128 0x1
 14221 576c 50       		.byte	0x50
 14222 576d 05       		.uleb128 0x5
 14223 576e 03       		.byte	0x3
 14224 576f 00000000 		.4byte	.LC0
 14225 5773 00       		.byte	0
 14226 5774 00       		.byte	0
 14227 5775 00       		.byte	0
 14228 5776 61       		.uleb128 0x61
 14229 5777 EC1E0000 		.4byte	.LASF914
 14230 577b 40       		.byte	0x40
 14231 577c 60       		.byte	0x60
 14232 577d CD0B0000 		.4byte	0xbcd
 14233 5781 03       		.byte	0x3
 14234 5782 91570000 		.4byte	0x5791
 14235 5786 62       		.uleb128 0x62
 14236 5787 747000   		.ascii	"tp\000"
 14237 578a 40       		.byte	0x40
 14238 578b 60       		.byte	0x60
 14239 578c 480D0000 		.4byte	0xd48
 14240 5790 00       		.byte	0
 14241 5791 63       		.uleb128 0x63
 14242 5792 F8180000 		.4byte	.LASF912
 14243 5796 05       		.byte	0x5
 14244 5797 1A01     		.2byte	0x11a
 14245 5799 03       		.byte	0x3
 14246 579a AB570000 		.4byte	0x57ab
 14247 579e 64       		.uleb128 0x64
 14248 579f 62737000 		.ascii	"bsp\000"
 14249 57a3 05       		.byte	0x5
 14250 57a4 1A01     		.2byte	0x11a
 14251 57a6 AB570000 		.4byte	0x57ab
 14252 57aa 00       		.byte	0
 14253 57ab 08       		.uleb128 0x8
 14254 57ac 04       		.byte	0x4
 14255 57ad 191C0000 		.4byte	0x1c19
 14256 57b1 63       		.uleb128 0x63
 14257 57b2 0F210000 		.4byte	.LASF913
 14258 57b6 05       		.byte	0x5
 14259 57b7 0A01     		.2byte	0x10a
 14260 57b9 03       		.byte	0x3
 14261 57ba CB570000 		.4byte	0x57cb
 14262 57be 64       		.uleb128 0x64
 14263 57bf 62737000 		.ascii	"bsp\000"
 14264 57c3 05       		.byte	0x5
 14265 57c4 0A01     		.2byte	0x10a
 14266 57c6 AB570000 		.4byte	0x57ab
 14267 57ca 00       		.byte	0
 14268 57cb 61       		.uleb128 0x61
ARM GAS  /var/folders/qd/4mxf5pkd0zdf0b9dd1hp39180000gn/T//ccn3RVaQ.s 			page 252


 14269 57cc 94260000 		.4byte	.LASF915
 14270 57d0 05       		.byte	0x5
 14271 57d1 8D       		.byte	0x8d
 14272 57d2 CD0B0000 		.4byte	0xbcd
 14273 57d6 03       		.byte	0x3
 14274 57d7 E7570000 		.4byte	0x57e7
 14275 57db 62       		.uleb128 0x62
 14276 57dc 62737000 		.ascii	"bsp\000"
 14277 57e0 05       		.byte	0x5
 14278 57e1 8D       		.byte	0x8d
 14279 57e2 AB570000 		.4byte	0x57ab
 14280 57e6 00       		.byte	0
 14281 57e7 61       		.uleb128 0x61
 14282 57e8 EA260000 		.4byte	.LASF916
 14283 57ec 04       		.byte	0x4
 14284 57ed F7       		.byte	0xf7
 14285 57ee 040C0000 		.4byte	0xc04
 14286 57f2 03       		.byte	0x3
 14287 57f3 03580000 		.4byte	0x5803
 14288 57f7 31       		.uleb128 0x31
 14289 57f8 A0270000 		.4byte	.LASF917
 14290 57fc 04       		.byte	0x4
 14291 57fd F8       		.byte	0xf8
 14292 57fe 040C0000 		.4byte	0xc04
 14293 5802 00       		.byte	0
 14294 5803 65       		.uleb128 0x65
 14295 5804 41210000 		.4byte	.LASF968
 14296 5808 04       		.byte	0x4
 14297 5809 E4       		.byte	0xe4
 14298 580a 040C0000 		.4byte	0xc04
 14299 580e 03       		.byte	0x3
 14300 580f 63       		.uleb128 0x63
 14301 5810 26240000 		.4byte	.LASF918
 14302 5814 03       		.byte	0x3
 14303 5815 6601     		.2byte	0x166
 14304 5817 03       		.byte	0x3
 14305 5818 2A580000 		.4byte	0x582a
 14306 581c 66       		.uleb128 0x66
 14307 581d 4F000000 		.4byte	.LASF919
 14308 5821 3A580000 		.4byte	0x583a
 14309 5825 26240000 		.4byte	.LASF918
 14310 5829 00       		.byte	0
 14311 582a 0D       		.uleb128 0xd
 14312 582b B1010000 		.4byte	0x1b1
 14313 582f 3A580000 		.4byte	0x583a
 14314 5833 0E       		.uleb128 0xe
 14315 5834 2C000000 		.4byte	0x2c
 14316 5838 0B       		.byte	0xb
 14317 5839 00       		.byte	0
 14318 583a 10       		.uleb128 0x10
 14319 583b 2A580000 		.4byte	0x582a
 14320 583f 67       		.uleb128 0x67
 14321 5840 CB1A0000 		.4byte	.LASF920
 14322 5844 03       		.byte	0x3
 14323 5845 5A01     		.2byte	0x15a
 14324 5847 03       		.byte	0x3
 14325 5848 67       		.uleb128 0x67
ARM GAS  /var/folders/qd/4mxf5pkd0zdf0b9dd1hp39180000gn/T//ccn3RVaQ.s 			page 253


 14326 5849 871A0000 		.4byte	.LASF921
 14327 584d 18       		.byte	0x18
 14328 584e CA01     		.2byte	0x1ca
 14329 5850 03       		.byte	0x3
 14330 5851 67       		.uleb128 0x67
 14331 5852 8F1C0000 		.4byte	.LASF922
 14332 5856 18       		.byte	0x18
 14333 5857 BC01     		.2byte	0x1bc
 14334 5859 03       		.byte	0x3
 14335 585a 63       		.uleb128 0x63
 14336 585b C7270000 		.4byte	.LASF923
 14337 585f 02       		.byte	0x2
 14338 5860 2002     		.2byte	0x220
 14339 5862 03       		.byte	0x3
 14340 5863 74580000 		.4byte	0x5874
 14341 5867 4E       		.uleb128 0x4e
 14342 5868 290D0000 		.4byte	.LASF150
 14343 586c 02       		.byte	0x2
 14344 586d 2002     		.2byte	0x220
 14345 586f 600B0000 		.4byte	0xb60
 14346 5873 00       		.byte	0
 14347 5874 68       		.uleb128 0x68
 14348 5875 1E520000 		.4byte	0x521e
 14349 5879 00000000 		.4byte	.LFB260
 14350 587d 34000000 		.4byte	.LFE260-.LFB260
 14351 5881 01       		.uleb128 0x1
 14352 5882 9C       		.byte	0x9c
 14353 5883 AD580000 		.4byte	0x58ad
 14354 5887 39       		.uleb128 0x39
 14355 5888 2A520000 		.4byte	0x522a
 14356 588c 02       		.uleb128 0x2
 14357 588d 91       		.byte	0x91
 14358 588e 68       		.sleb128 -24
 14359 588f 3C       		.uleb128 0x3c
 14360 5890 1C000000 		.4byte	.LVL46
 14361 5894 C55D0000 		.4byte	0x5dc5
 14362 5898 A3580000 		.4byte	0x58a3
 14363 589c 3B       		.uleb128 0x3b
 14364 589d 01       		.uleb128 0x1
 14365 589e 51       		.byte	0x51
 14366 589f 02       		.uleb128 0x2
 14367 58a0 7D       		.byte	0x7d
 14368 58a1 00       		.sleb128 0
 14369 58a2 00       		.byte	0
 14370 58a3 37       		.uleb128 0x37
 14371 58a4 2C000000 		.4byte	.LVL47
 14372 58a8 5A5C0000 		.4byte	0x5c5a
 14373 58ac 00       		.byte	0
 14374 58ad 68       		.uleb128 0x68
 14375 58ae 16520000 		.4byte	0x5216
 14376 58b2 00000000 		.4byte	.LFB261
 14377 58b6 34000000 		.4byte	.LFE261-.LFB261
 14378 58ba 01       		.uleb128 0x1
 14379 58bb 9C       		.byte	0x9c
 14380 58bc F6580000 		.4byte	0x58f6
 14381 58c0 51       		.uleb128 0x51
 14382 58c1 1E520000 		.4byte	0x521e
ARM GAS  /var/folders/qd/4mxf5pkd0zdf0b9dd1hp39180000gn/T//ccn3RVaQ.s 			page 254


 14383 58c5 02000000 		.4byte	.LBB264
 14384 58c9 C0000000 		.4byte	.Ldebug_ranges0+0xc0
 14385 58cd 01       		.byte	0x1
 14386 58ce FB       		.byte	0xfb
 14387 58cf EC580000 		.4byte	0x58ec
 14388 58d3 39       		.uleb128 0x39
 14389 58d4 2A520000 		.4byte	0x522a
 14390 58d8 02       		.uleb128 0x2
 14391 58d9 91       		.byte	0x91
 14392 58da 6C       		.sleb128 -20
 14393 58db 45       		.uleb128 0x45
 14394 58dc 1A000000 		.4byte	.LVL48
 14395 58e0 C55D0000 		.4byte	0x5dc5
 14396 58e4 3B       		.uleb128 0x3b
 14397 58e5 01       		.uleb128 0x1
 14398 58e6 51       		.byte	0x51
 14399 58e7 02       		.uleb128 0x2
 14400 58e8 91       		.byte	0x91
 14401 58e9 6C       		.sleb128 -20
 14402 58ea 00       		.byte	0
 14403 58eb 00       		.byte	0
 14404 58ec 37       		.uleb128 0x37
 14405 58ed 2A000000 		.4byte	.LVL49
 14406 58f1 5A5C0000 		.4byte	0x5c5a
 14407 58f5 00       		.byte	0
 14408 58f6 69       		.uleb128 0x69
 14409 58f7 134C0000 		.4byte	0x4c13
 14410 58fb 00000000 		.4byte	.LFB268
 14411 58ff 80000000 		.4byte	.LFE268-.LFB268
 14412 5903 01       		.uleb128 0x1
 14413 5904 9C       		.byte	0x9c
 14414 5905 30590000 		.4byte	0x5930
 14415 5909 40       		.uleb128 0x40
 14416 590a 204C0000 		.4byte	0x4c20
 14417 590e 75070000 		.4byte	.LLST27
 14418 5912 3C       		.uleb128 0x3c
 14419 5913 52000000 		.4byte	.LVL118
 14420 5917 7E4F0000 		.4byte	0x4f7e
 14421 591b 26590000 		.4byte	0x5926
 14422 591f 3B       		.uleb128 0x3b
 14423 5920 01       		.uleb128 0x1
 14424 5921 50       		.byte	0x50
 14425 5922 02       		.uleb128 0x2
 14426 5923 91       		.byte	0x91
 14427 5924 6C       		.sleb128 -20
 14428 5925 00       		.byte	0
 14429 5926 37       		.uleb128 0x37
 14430 5927 62000000 		.4byte	.LVL119
 14431 592b 5A5C0000 		.4byte	0x5c5a
 14432 592f 00       		.byte	0
 14433 5930 68       		.uleb128 0x68
 14434 5931 964B0000 		.4byte	0x4b96
 14435 5935 00000000 		.4byte	.LFB270
 14436 5939 2C000000 		.4byte	.LFE270-.LFB270
 14437 593d 01       		.uleb128 0x1
 14438 593e 9C       		.byte	0x9c
 14439 593f 8D590000 		.4byte	0x598d
ARM GAS  /var/folders/qd/4mxf5pkd0zdf0b9dd1hp39180000gn/T//ccn3RVaQ.s 			page 255


 14440 5943 40       		.uleb128 0x40
 14441 5944 A34B0000 		.4byte	0x4ba3
 14442 5948 99070000 		.4byte	.LLST30
 14443 594c 6A       		.uleb128 0x6a
 14444 594d AF4B0000 		.4byte	0x4baf
 14445 5951 02       		.uleb128 0x2
 14446 5952 91       		.byte	0x91
 14447 5953 6C       		.sleb128 -20
 14448 5954 3C       		.uleb128 0x3c
 14449 5955 12000000 		.4byte	.LVL134
 14450 5959 155D0000 		.4byte	0x5d15
 14451 595d 6F590000 		.4byte	0x596f
 14452 5961 3B       		.uleb128 0x3b
 14453 5962 01       		.uleb128 0x1
 14454 5963 50       		.byte	0x50
 14455 5964 02       		.uleb128 0x2
 14456 5965 91       		.byte	0x91
 14457 5966 6C       		.sleb128 -20
 14458 5967 3B       		.uleb128 0x3b
 14459 5968 01       		.uleb128 0x1
 14460 5969 51       		.byte	0x51
 14461 596a 03       		.uleb128 0x3
 14462 596b F3       		.byte	0xf3
 14463 596c 01       		.uleb128 0x1
 14464 596d 50       		.byte	0x50
 14465 596e 00       		.byte	0
 14466 596f 3C       		.uleb128 0x3c
 14467 5970 18000000 		.4byte	.LVL135
 14468 5974 E94C0000 		.4byte	0x4ce9
 14469 5978 83590000 		.4byte	0x5983
 14470 597c 3B       		.uleb128 0x3b
 14471 597d 01       		.uleb128 0x1
 14472 597e 50       		.byte	0x50
 14473 597f 02       		.uleb128 0x2
 14474 5980 91       		.byte	0x91
 14475 5981 6C       		.sleb128 -20
 14476 5982 00       		.byte	0
 14477 5983 37       		.uleb128 0x37
 14478 5984 28000000 		.4byte	.LVL136
 14479 5988 5A5C0000 		.4byte	0x5c5a
 14480 598c 00       		.byte	0
 14481 598d 68       		.uleb128 0x68
 14482 598e 8D4B0000 		.4byte	0x4b8d
 14483 5992 00000000 		.4byte	.LFB271
 14484 5996 78000000 		.4byte	.LFE271-.LFB271
 14485 599a 01       		.uleb128 0x1
 14486 599b 9C       		.byte	0x9c
 14487 599c CB5A0000 		.4byte	0x5acb
 14488 59a0 3F       		.uleb128 0x3f
 14489 59a1 91570000 		.4byte	0x5791
 14490 59a5 0A000000 		.4byte	.LBB378
 14491 59a9 C0010000 		.4byte	.Ldebug_ranges0+0x1c0
 14492 59ad 01       		.byte	0x1
 14493 59ae 4001     		.2byte	0x140
 14494 59b0 C15A0000 		.4byte	0x5ac1
 14495 59b4 40       		.uleb128 0x40
 14496 59b5 9E570000 		.4byte	0x579e
ARM GAS  /var/folders/qd/4mxf5pkd0zdf0b9dd1hp39180000gn/T//ccn3RVaQ.s 			page 256


 14497 59b9 C5070000 		.4byte	.LLST31
 14498 59bd 41       		.uleb128 0x41
 14499 59be 3F580000 		.4byte	0x583f
 14500 59c2 0A000000 		.4byte	.LBB380
 14501 59c6 0E000000 		.4byte	.LBE380-.LBB380
 14502 59ca 05       		.byte	0x5
 14503 59cb 1C01     		.2byte	0x11c
 14504 59cd 135A0000 		.4byte	0x5a13
 14505 59d1 41       		.uleb128 0x41
 14506 59d2 51580000 		.4byte	0x5851
 14507 59d6 0A000000 		.4byte	.LBB382
 14508 59da 06000000 		.4byte	.LBE382-.LBB382
 14509 59de 03       		.byte	0x3
 14510 59df 5C01     		.2byte	0x15c
 14511 59e1 005A0000 		.4byte	0x5a00
 14512 59e5 42       		.uleb128 0x42
 14513 59e6 5A580000 		.4byte	0x585a
 14514 59ea 0A000000 		.4byte	.LBB383
 14515 59ee 06000000 		.4byte	.LBE383-.LBB383
 14516 59f2 18       		.byte	0x18
 14517 59f3 BF01     		.2byte	0x1bf
 14518 59f5 40       		.uleb128 0x40
 14519 59f6 67580000 		.4byte	0x5867
 14520 59fa ED070000 		.4byte	.LLST32
 14521 59fe 00       		.byte	0
 14522 59ff 00       		.byte	0
 14523 5a00 37       		.uleb128 0x37
 14524 5a01 14000000 		.4byte	.LVL139
 14525 5a05 B05C0000 		.4byte	0x5cb0
 14526 5a09 37       		.uleb128 0x37
 14527 5a0a 18000000 		.4byte	.LVL140
 14528 5a0e BB5C0000 		.4byte	0x5cbb
 14529 5a12 00       		.byte	0
 14530 5a13 3F       		.uleb128 0x3f
 14531 5a14 B1570000 		.4byte	0x57b1
 14532 5a18 18000000 		.4byte	.LBB385
 14533 5a1c D8010000 		.4byte	.Ldebug_ranges0+0x1d8
 14534 5a20 05       		.byte	0x5
 14535 5a21 1D01     		.2byte	0x11d
 14536 5a23 435A0000 		.4byte	0x5a43
 14537 5a27 40       		.uleb128 0x40
 14538 5a28 BE570000 		.4byte	0x57be
 14539 5a2c 02080000 		.4byte	.LLST33
 14540 5a30 37       		.uleb128 0x37
 14541 5a31 1C000000 		.4byte	.LVL141
 14542 5a35 C65C0000 		.4byte	0x5cc6
 14543 5a39 37       		.uleb128 0x37
 14544 5a3a 60000000 		.4byte	.LVL151
 14545 5a3e D15C0000 		.4byte	0x5cd1
 14546 5a42 00       		.byte	0
 14547 5a43 3F       		.uleb128 0x3f
 14548 5a44 0F580000 		.4byte	0x580f
 14549 5a48 28000000 		.4byte	.LBB388
 14550 5a4c F0010000 		.4byte	.Ldebug_ranges0+0x1f0
 14551 5a50 05       		.byte	0x5
 14552 5a51 1F01     		.2byte	0x11f
 14553 5a53 B75A0000 		.4byte	0x5ab7
ARM GAS  /var/folders/qd/4mxf5pkd0zdf0b9dd1hp39180000gn/T//ccn3RVaQ.s 			page 257


 14554 5a57 43       		.uleb128 0x43
 14555 5a58 F0010000 		.4byte	.Ldebug_ranges0+0x1f0
 14556 5a5c 44       		.uleb128 0x44
 14557 5a5d 1C580000 		.4byte	0x581c
 14558 5a61 41       		.uleb128 0x41
 14559 5a62 48580000 		.4byte	0x5848
 14560 5a66 42000000 		.4byte	.LBB390
 14561 5a6a 06000000 		.4byte	.LBE390-.LBB390
 14562 5a6e 03       		.byte	0x3
 14563 5a6f 7301     		.2byte	0x173
 14564 5a71 905A0000 		.4byte	0x5a90
 14565 5a75 42       		.uleb128 0x42
 14566 5a76 5A580000 		.4byte	0x585a
 14567 5a7a 42000000 		.4byte	.LBB391
 14568 5a7e 06000000 		.4byte	.LBE391-.LBB391
 14569 5a82 18       		.byte	0x18
 14570 5a83 CD01     		.2byte	0x1cd
 14571 5a85 40       		.uleb128 0x40
 14572 5a86 67580000 		.4byte	0x5867
 14573 5a8a 2A080000 		.4byte	.LLST34
 14574 5a8e 00       		.byte	0
 14575 5a8f 00       		.byte	0
 14576 5a90 37       		.uleb128 0x37
 14577 5a91 2C000000 		.4byte	.LVL144
 14578 5a95 DC5C0000 		.4byte	0x5cdc
 14579 5a99 37       		.uleb128 0x37
 14580 5a9a 30000000 		.4byte	.LVL145
 14581 5a9e E75C0000 		.4byte	0x5ce7
 14582 5aa2 45       		.uleb128 0x45
 14583 5aa3 5A000000 		.4byte	.LVL149
 14584 5aa7 F25C0000 		.4byte	0x5cf2
 14585 5aab 3B       		.uleb128 0x3b
 14586 5aac 01       		.uleb128 0x1
 14587 5aad 50       		.byte	0x50
 14588 5aae 05       		.uleb128 0x5
 14589 5aaf 03       		.byte	0x3
 14590 5ab0 00000000 		.4byte	.LANCHOR1
 14591 5ab4 00       		.byte	0
 14592 5ab5 00       		.byte	0
 14593 5ab6 00       		.byte	0
 14594 5ab7 37       		.uleb128 0x37
 14595 5ab8 28000000 		.4byte	.LVL143
 14596 5abc FE5C0000 		.4byte	0x5cfe
 14597 5ac0 00       		.byte	0
 14598 5ac1 37       		.uleb128 0x37
 14599 5ac2 66000000 		.4byte	.LVL153
 14600 5ac6 5A5C0000 		.4byte	0x5c5a
 14601 5aca 00       		.byte	0
 14602 5acb 68       		.uleb128 0x68
 14603 5acc 844B0000 		.4byte	0x4b84
 14604 5ad0 00000000 		.4byte	.LFB272
 14605 5ad4 78000000 		.4byte	.LFE272-.LFB272
 14606 5ad8 01       		.uleb128 0x1
 14607 5ad9 9C       		.byte	0x9c
 14608 5ada 095C0000 		.4byte	0x5c09
 14609 5ade 3F       		.uleb128 0x3f
 14610 5adf 91570000 		.4byte	0x5791
ARM GAS  /var/folders/qd/4mxf5pkd0zdf0b9dd1hp39180000gn/T//ccn3RVaQ.s 			page 258


 14611 5ae3 0A000000 		.4byte	.LBB412
 14612 5ae7 08020000 		.4byte	.Ldebug_ranges0+0x208
 14613 5aeb 01       		.byte	0x1
 14614 5aec 4501     		.2byte	0x145
 14615 5aee FF5B0000 		.4byte	0x5bff
 14616 5af2 40       		.uleb128 0x40
 14617 5af3 9E570000 		.4byte	0x579e
 14618 5af7 3E080000 		.4byte	.LLST35
 14619 5afb 41       		.uleb128 0x41
 14620 5afc 3F580000 		.4byte	0x583f
 14621 5b00 0A000000 		.4byte	.LBB414
 14622 5b04 0E000000 		.4byte	.LBE414-.LBB414
 14623 5b08 05       		.byte	0x5
 14624 5b09 1C01     		.2byte	0x11c
 14625 5b0b 515B0000 		.4byte	0x5b51
 14626 5b0f 41       		.uleb128 0x41
 14627 5b10 51580000 		.4byte	0x5851
 14628 5b14 0A000000 		.4byte	.LBB416
 14629 5b18 06000000 		.4byte	.LBE416-.LBB416
 14630 5b1c 03       		.byte	0x3
 14631 5b1d 5C01     		.2byte	0x15c
 14632 5b1f 3E5B0000 		.4byte	0x5b3e
 14633 5b23 42       		.uleb128 0x42
 14634 5b24 5A580000 		.4byte	0x585a
 14635 5b28 0A000000 		.4byte	.LBB417
 14636 5b2c 06000000 		.4byte	.LBE417-.LBB417
 14637 5b30 18       		.byte	0x18
 14638 5b31 BF01     		.2byte	0x1bf
 14639 5b33 40       		.uleb128 0x40
 14640 5b34 67580000 		.4byte	0x5867
 14641 5b38 66080000 		.4byte	.LLST36
 14642 5b3c 00       		.byte	0
 14643 5b3d 00       		.byte	0
 14644 5b3e 37       		.uleb128 0x37
 14645 5b3f 14000000 		.4byte	.LVL156
 14646 5b43 B05C0000 		.4byte	0x5cb0
 14647 5b47 37       		.uleb128 0x37
 14648 5b48 18000000 		.4byte	.LVL157
 14649 5b4c BB5C0000 		.4byte	0x5cbb
 14650 5b50 00       		.byte	0
 14651 5b51 3F       		.uleb128 0x3f
 14652 5b52 B1570000 		.4byte	0x57b1
 14653 5b56 18000000 		.4byte	.LBB419
 14654 5b5a 20020000 		.4byte	.Ldebug_ranges0+0x220
 14655 5b5e 05       		.byte	0x5
 14656 5b5f 1D01     		.2byte	0x11d
 14657 5b61 815B0000 		.4byte	0x5b81
 14658 5b65 40       		.uleb128 0x40
 14659 5b66 BE570000 		.4byte	0x57be
 14660 5b6a 7B080000 		.4byte	.LLST37
 14661 5b6e 37       		.uleb128 0x37
 14662 5b6f 1C000000 		.4byte	.LVL158
 14663 5b73 C65C0000 		.4byte	0x5cc6
 14664 5b77 37       		.uleb128 0x37
 14665 5b78 60000000 		.4byte	.LVL168
 14666 5b7c D15C0000 		.4byte	0x5cd1
 14667 5b80 00       		.byte	0
ARM GAS  /var/folders/qd/4mxf5pkd0zdf0b9dd1hp39180000gn/T//ccn3RVaQ.s 			page 259


 14668 5b81 3F       		.uleb128 0x3f
 14669 5b82 0F580000 		.4byte	0x580f
 14670 5b86 28000000 		.4byte	.LBB422
 14671 5b8a 38020000 		.4byte	.Ldebug_ranges0+0x238
 14672 5b8e 05       		.byte	0x5
 14673 5b8f 1F01     		.2byte	0x11f
 14674 5b91 F55B0000 		.4byte	0x5bf5
 14675 5b95 43       		.uleb128 0x43
 14676 5b96 38020000 		.4byte	.Ldebug_ranges0+0x238
 14677 5b9a 44       		.uleb128 0x44
 14678 5b9b 1C580000 		.4byte	0x581c
 14679 5b9f 41       		.uleb128 0x41
 14680 5ba0 48580000 		.4byte	0x5848
 14681 5ba4 42000000 		.4byte	.LBB424
 14682 5ba8 06000000 		.4byte	.LBE424-.LBB424
 14683 5bac 03       		.byte	0x3
 14684 5bad 7301     		.2byte	0x173
 14685 5baf CE5B0000 		.4byte	0x5bce
 14686 5bb3 42       		.uleb128 0x42
 14687 5bb4 5A580000 		.4byte	0x585a
 14688 5bb8 42000000 		.4byte	.LBB425
 14689 5bbc 06000000 		.4byte	.LBE425-.LBB425
 14690 5bc0 18       		.byte	0x18
 14691 5bc1 CD01     		.2byte	0x1cd
 14692 5bc3 40       		.uleb128 0x40
 14693 5bc4 67580000 		.4byte	0x5867
 14694 5bc8 A3080000 		.4byte	.LLST38
 14695 5bcc 00       		.byte	0
 14696 5bcd 00       		.byte	0
 14697 5bce 37       		.uleb128 0x37
 14698 5bcf 2C000000 		.4byte	.LVL161
 14699 5bd3 DC5C0000 		.4byte	0x5cdc
 14700 5bd7 37       		.uleb128 0x37
 14701 5bd8 30000000 		.4byte	.LVL162
 14702 5bdc E75C0000 		.4byte	0x5ce7
 14703 5be0 45       		.uleb128 0x45
 14704 5be1 5A000000 		.4byte	.LVL166
 14705 5be5 F25C0000 		.4byte	0x5cf2
 14706 5be9 3B       		.uleb128 0x3b
 14707 5bea 01       		.uleb128 0x1
 14708 5beb 50       		.byte	0x50
 14709 5bec 05       		.uleb128 0x5
 14710 5bed 03       		.byte	0x3
 14711 5bee 00000000 		.4byte	.LANCHOR1
 14712 5bf2 00       		.byte	0
 14713 5bf3 00       		.byte	0
 14714 5bf4 00       		.byte	0
 14715 5bf5 37       		.uleb128 0x37
 14716 5bf6 28000000 		.4byte	.LVL160
 14717 5bfa FE5C0000 		.4byte	0x5cfe
 14718 5bfe 00       		.byte	0
 14719 5bff 37       		.uleb128 0x37
 14720 5c00 66000000 		.4byte	.LVL170
 14721 5c04 5A5C0000 		.4byte	0x5c5a
 14722 5c08 00       		.byte	0
 14723 5c09 68       		.uleb128 0x68
 14724 5c0a 7B4B0000 		.4byte	0x4b7b
ARM GAS  /var/folders/qd/4mxf5pkd0zdf0b9dd1hp39180000gn/T//ccn3RVaQ.s 			page 260


 14725 5c0e 00000000 		.4byte	.LFB273
 14726 5c12 2C000000 		.4byte	.LFE273-.LFB273
 14727 5c16 01       		.uleb128 0x1
 14728 5c17 9C       		.byte	0x9c
 14729 5c18 5A5C0000 		.4byte	0x5c5a
 14730 5c1c 38       		.uleb128 0x38
 14731 5c1d CB570000 		.4byte	0x57cb
 14732 5c21 0A000000 		.4byte	.LBB432
 14733 5c25 50020000 		.4byte	.Ldebug_ranges0+0x250
 14734 5c29 01       		.byte	0x1
 14735 5c2a 4A01     		.2byte	0x14a
 14736 5c2c 39       		.uleb128 0x39
 14737 5c2d DB570000 		.4byte	0x57db
 14738 5c31 06       		.uleb128 0x6
 14739 5c32 03       		.byte	0x3
 14740 5c33 00000000 		.4byte	wipEndMovingSignal_sem
 14741 5c37 9F       		.byte	0x9f
 14742 5c38 3A       		.uleb128 0x3a
 14743 5c39 1E000000 		.4byte	.LVL172
 14744 5c3d 635C0000 		.4byte	0x5c63
 14745 5c41 4F5C0000 		.4byte	0x5c4f
 14746 5c45 3B       		.uleb128 0x3b
 14747 5c46 01       		.uleb128 0x1
 14748 5c47 50       		.byte	0x50
 14749 5c48 05       		.uleb128 0x5
 14750 5c49 03       		.byte	0x3
 14751 5c4a 00000000 		.4byte	.LANCHOR4
 14752 5c4e 00       		.byte	0
 14753 5c4f 37       		.uleb128 0x37
 14754 5c50 22000000 		.4byte	.LVL173
 14755 5c54 5A5C0000 		.4byte	0x5c5a
 14756 5c58 00       		.byte	0
 14757 5c59 00       		.byte	0
 14758 5c5a 6B       		.uleb128 0x6b
 14759 5c5b 94060000 		.4byte	.LASF969
 14760 5c5f 94060000 		.4byte	.LASF969
 14761 5c63 6C       		.uleb128 0x6c
 14762 5c64 45000000 		.4byte	.LASF924
 14763 5c68 45000000 		.4byte	.LASF924
 14764 5c6c 1C       		.byte	0x1c
 14765 5c6d 5E       		.byte	0x5e
 14766 5c6e 6C       		.uleb128 0x6c
 14767 5c6f 00220000 		.4byte	.LASF925
 14768 5c73 00220000 		.4byte	.LASF925
 14769 5c77 23       		.byte	0x23
 14770 5c78 33       		.byte	0x33
 14771 5c79 6C       		.uleb128 0x6c
 14772 5c7a 5C0A0000 		.4byte	.LASF926
 14773 5c7e 5C0A0000 		.4byte	.LASF926
 14774 5c82 41       		.byte	0x41
 14775 5c83 89       		.byte	0x89
 14776 5c84 6C       		.uleb128 0x6c
 14777 5c85 26090000 		.4byte	.LASF927
 14778 5c89 26090000 		.4byte	.LASF927
 14779 5c8d 21       		.byte	0x21
 14780 5c8e 1F       		.byte	0x1f
 14781 5c8f 6C       		.uleb128 0x6c
ARM GAS  /var/folders/qd/4mxf5pkd0zdf0b9dd1hp39180000gn/T//ccn3RVaQ.s 			page 261


 14782 5c90 30190000 		.4byte	.LASF928
 14783 5c94 30190000 		.4byte	.LASF928
 14784 5c98 42       		.byte	0x42
 14785 5c99 15       		.byte	0x15
 14786 5c9a 6C       		.uleb128 0x6c
 14787 5c9b 83290000 		.4byte	.LASF929
 14788 5c9f 83290000 		.4byte	.LASF929
 14789 5ca3 0E       		.byte	0xe
 14790 5ca4 41       		.byte	0x41
 14791 5ca5 6C       		.uleb128 0x6c
 14792 5ca6 7C020000 		.4byte	.LASF930
 14793 5caa 7C020000 		.4byte	.LASF930
 14794 5cae 43       		.byte	0x43
 14795 5caf 11       		.byte	0x11
 14796 5cb0 6C       		.uleb128 0x6c
 14797 5cb1 B3280000 		.4byte	.LASF931
 14798 5cb5 B3280000 		.4byte	.LASF931
 14799 5cb9 1B       		.byte	0x1b
 14800 5cba 4F       		.byte	0x4f
 14801 5cbb 6C       		.uleb128 0x6c
 14802 5cbc 60040000 		.4byte	.LASF932
 14803 5cc0 60040000 		.4byte	.LASF932
 14804 5cc4 19       		.byte	0x19
 14805 5cc5 D8       		.byte	0xd8
 14806 5cc6 6C       		.uleb128 0x6c
 14807 5cc7 071F0000 		.4byte	.LASF933
 14808 5ccb 071F0000 		.4byte	.LASF933
 14809 5ccf 19       		.byte	0x19
 14810 5cd0 DE       		.byte	0xde
 14811 5cd1 6C       		.uleb128 0x6c
 14812 5cd2 9D150000 		.4byte	.LASF934
 14813 5cd6 9D150000 		.4byte	.LASF934
 14814 5cda 1C       		.byte	0x1c
 14815 5cdb 63       		.byte	0x63
 14816 5cdc 6C       		.uleb128 0x6c
 14817 5cdd BC160000 		.4byte	.LASF935
 14818 5ce1 BC160000 		.4byte	.LASF935
 14819 5ce5 19       		.byte	0x19
 14820 5ce6 D9       		.byte	0xd9
 14821 5ce7 6C       		.uleb128 0x6c
 14822 5ce8 371E0000 		.4byte	.LASF936
 14823 5cec 371E0000 		.4byte	.LASF936
 14824 5cf0 1B       		.byte	0x1b
 14825 5cf1 50       		.byte	0x50
 14826 5cf2 6D       		.uleb128 0x6d
 14827 5cf3 1A070000 		.4byte	.LASF937
 14828 5cf7 1A070000 		.4byte	.LASF937
 14829 5cfb 03       		.byte	0x3
 14830 5cfc 1601     		.2byte	0x116
 14831 5cfe 6D       		.uleb128 0x6d
 14832 5cff 071D0000 		.4byte	.LASF938
 14833 5d03 071D0000 		.4byte	.LASF938
 14834 5d07 13       		.byte	0x13
 14835 5d08 1702     		.2byte	0x217
 14836 5d0a 6C       		.uleb128 0x6c
 14837 5d0b D6190000 		.4byte	.LASF939
 14838 5d0f D6190000 		.4byte	.LASF939
ARM GAS  /var/folders/qd/4mxf5pkd0zdf0b9dd1hp39180000gn/T//ccn3RVaQ.s 			page 262


 14839 5d13 23       		.byte	0x23
 14840 5d14 2C       		.byte	0x2c
 14841 5d15 6C       		.uleb128 0x6c
 14842 5d16 03010000 		.4byte	.LASF940
 14843 5d1a 03010000 		.4byte	.LASF940
 14844 5d1e 0E       		.byte	0xe
 14845 5d1f 5F       		.byte	0x5f
 14846 5d20 6C       		.uleb128 0x6c
 14847 5d21 730C0000 		.4byte	.LASF941
 14848 5d25 730C0000 		.4byte	.LASF941
 14849 5d29 0E       		.byte	0xe
 14850 5d2a 46       		.byte	0x46
 14851 5d2b 6C       		.uleb128 0x6c
 14852 5d2c 4E0A0000 		.4byte	.LASF942
 14853 5d30 4E0A0000 		.4byte	.LASF942
 14854 5d34 0F       		.byte	0xf
 14855 5d35 68       		.byte	0x68
 14856 5d36 6C       		.uleb128 0x6c
 14857 5d37 46180000 		.4byte	.LASF943
 14858 5d3b 46180000 		.4byte	.LASF943
 14859 5d3f 44       		.byte	0x44
 14860 5d40 11       		.byte	0x11
 14861 5d41 6C       		.uleb128 0x6c
 14862 5d42 B1150000 		.4byte	.LASF944
 14863 5d46 B1150000 		.4byte	.LASF944
 14864 5d4a 0E       		.byte	0xe
 14865 5d4b 56       		.byte	0x56
 14866 5d4c 6C       		.uleb128 0x6c
 14867 5d4d 7E050000 		.4byte	.LASF945
 14868 5d51 7E050000 		.4byte	.LASF945
 14869 5d55 0F       		.byte	0xf
 14870 5d56 5D       		.byte	0x5d
 14871 5d57 6C       		.uleb128 0x6c
 14872 5d58 D0020000 		.4byte	.LASF946
 14873 5d5c D0020000 		.4byte	.LASF946
 14874 5d60 0E       		.byte	0xe
 14875 5d61 89       		.byte	0x89
 14876 5d62 6C       		.uleb128 0x6c
 14877 5d63 A4230000 		.4byte	.LASF947
 14878 5d67 A4230000 		.4byte	.LASF947
 14879 5d6b 41       		.byte	0x41
 14880 5d6c 96       		.byte	0x96
 14881 5d6d 6C       		.uleb128 0x6c
 14882 5d6e 8B070000 		.4byte	.LASF948
 14883 5d72 8B070000 		.4byte	.LASF948
 14884 5d76 0E       		.byte	0xe
 14885 5d77 97       		.byte	0x97
 14886 5d78 6C       		.uleb128 0x6c
 14887 5d79 621B0000 		.4byte	.LASF949
 14888 5d7d 621B0000 		.4byte	.LASF949
 14889 5d81 0E       		.byte	0xe
 14890 5d82 AB       		.byte	0xab
 14891 5d83 6C       		.uleb128 0x6c
 14892 5d84 41130000 		.4byte	.LASF950
 14893 5d88 41130000 		.4byte	.LASF950
 14894 5d8c 43       		.byte	0x43
 14895 5d8d 18       		.byte	0x18
ARM GAS  /var/folders/qd/4mxf5pkd0zdf0b9dd1hp39180000gn/T//ccn3RVaQ.s 			page 263


 14896 5d8e 6C       		.uleb128 0x6c
 14897 5d8f 54030000 		.4byte	.LASF951
 14898 5d93 54030000 		.4byte	.LASF951
 14899 5d97 0E       		.byte	0xe
 14900 5d98 66       		.byte	0x66
 14901 5d99 6C       		.uleb128 0x6c
 14902 5d9a 3B1F0000 		.4byte	.LASF952
 14903 5d9e 3B1F0000 		.4byte	.LASF952
 14904 5da2 0E       		.byte	0xe
 14905 5da3 81       		.byte	0x81
 14906 5da4 6C       		.uleb128 0x6c
 14907 5da5 44050000 		.4byte	.LASF953
 14908 5da9 44050000 		.4byte	.LASF953
 14909 5dad 0E       		.byte	0xe
 14910 5dae 78       		.byte	0x78
 14911 5daf 6C       		.uleb128 0x6c
 14912 5db0 1E080000 		.4byte	.LASF954
 14913 5db4 1E080000 		.4byte	.LASF954
 14914 5db8 21       		.byte	0x21
 14915 5db9 32       		.byte	0x32
 14916 5dba 6C       		.uleb128 0x6c
 14917 5dbb 85220000 		.4byte	.LASF955
 14918 5dbf 85220000 		.4byte	.LASF955
 14919 5dc3 0E       		.byte	0xe
 14920 5dc4 6F       		.byte	0x6f
 14921 5dc5 6C       		.uleb128 0x6c
 14922 5dc6 A11D0000 		.4byte	.LASF956
 14923 5dca A11D0000 		.4byte	.LASF956
 14924 5dce 40       		.byte	0x40
 14925 5dcf 3C       		.byte	0x3c
 14926 5dd0 6C       		.uleb128 0x6c
 14927 5dd1 52140000 		.4byte	.LASF957
 14928 5dd5 52140000 		.4byte	.LASF957
 14929 5dd9 42       		.byte	0x42
 14930 5dda 23       		.byte	0x23
 14931 5ddb 6C       		.uleb128 0x6c
 14932 5ddc 6A130000 		.4byte	.LASF958
 14933 5de0 6A130000 		.4byte	.LASF958
 14934 5de4 42       		.byte	0x42
 14935 5de5 46       		.byte	0x46
 14936 5de6 6C       		.uleb128 0x6c
 14937 5de7 91280000 		.4byte	.LASF959
 14938 5deb 91280000 		.4byte	.LASF959
 14939 5def 41       		.byte	0x41
 14940 5df0 98       		.byte	0x98
 14941 5df1 6C       		.uleb128 0x6c
 14942 5df2 EB270000 		.4byte	.LASF960
 14943 5df6 EB270000 		.4byte	.LASF960
 14944 5dfa 42       		.byte	0x42
 14945 5dfb 53       		.byte	0x53
 14946 5dfc 6C       		.uleb128 0x6c
 14947 5dfd A8190000 		.4byte	.LASF961
 14948 5e01 A8190000 		.4byte	.LASF961
 14949 5e05 0E       		.byte	0xe
 14950 5e06 4E       		.byte	0x4e
 14951 5e07 6C       		.uleb128 0x6c
 14952 5e08 E7120000 		.4byte	.LASF962
ARM GAS  /var/folders/qd/4mxf5pkd0zdf0b9dd1hp39180000gn/T//ccn3RVaQ.s 			page 264


 14953 5e0c E7120000 		.4byte	.LASF962
 14954 5e10 40       		.byte	0x40
 14955 5e11 3E       		.byte	0x3e
 14956 5e12 6C       		.uleb128 0x6c
 14957 5e13 3C200000 		.4byte	.LASF963
 14958 5e17 3C200000 		.4byte	.LASF963
 14959 5e1b 40       		.byte	0x40
 14960 5e1c 3D       		.byte	0x3d
 14961 5e1d 00       		.byte	0
 14962              		.section	.debug_abbrev,"",%progbits
 14963              	.Ldebug_abbrev0:
 14964 0000 01       		.uleb128 0x1
 14965 0001 11       		.uleb128 0x11
 14966 0002 01       		.byte	0x1
 14967 0003 25       		.uleb128 0x25
 14968 0004 0E       		.uleb128 0xe
 14969 0005 13       		.uleb128 0x13
 14970 0006 0B       		.uleb128 0xb
 14971 0007 03       		.uleb128 0x3
 14972 0008 0E       		.uleb128 0xe
 14973 0009 1B       		.uleb128 0x1b
 14974 000a 0E       		.uleb128 0xe
 14975 000b 55       		.uleb128 0x55
 14976 000c 17       		.uleb128 0x17
 14977 000d 11       		.uleb128 0x11
 14978 000e 01       		.uleb128 0x1
 14979 000f 10       		.uleb128 0x10
 14980 0010 17       		.uleb128 0x17
 14981 0011 00       		.byte	0
 14982 0012 00       		.byte	0
 14983 0013 02       		.uleb128 0x2
 14984 0014 24       		.uleb128 0x24
 14985 0015 00       		.byte	0
 14986 0016 0B       		.uleb128 0xb
 14987 0017 0B       		.uleb128 0xb
 14988 0018 3E       		.uleb128 0x3e
 14989 0019 0B       		.uleb128 0xb
 14990 001a 03       		.uleb128 0x3
 14991 001b 0E       		.uleb128 0xe
 14992 001c 00       		.byte	0
 14993 001d 00       		.byte	0
 14994 001e 03       		.uleb128 0x3
 14995 001f 13       		.uleb128 0x13
 14996 0020 01       		.byte	0x1
 14997 0021 0B       		.uleb128 0xb
 14998 0022 0B       		.uleb128 0xb
 14999 0023 3A       		.uleb128 0x3a
 15000 0024 0B       		.uleb128 0xb
 15001 0025 3B       		.uleb128 0x3b
 15002 0026 0B       		.uleb128 0xb
 15003 0027 01       		.uleb128 0x1
 15004 0028 13       		.uleb128 0x13
 15005 0029 00       		.byte	0
 15006 002a 00       		.byte	0
 15007 002b 04       		.uleb128 0x4
 15008 002c 0D       		.uleb128 0xd
 15009 002d 00       		.byte	0
ARM GAS  /var/folders/qd/4mxf5pkd0zdf0b9dd1hp39180000gn/T//ccn3RVaQ.s 			page 265


 15010 002e 03       		.uleb128 0x3
 15011 002f 0E       		.uleb128 0xe
 15012 0030 3A       		.uleb128 0x3a
 15013 0031 0B       		.uleb128 0xb
 15014 0032 3B       		.uleb128 0x3b
 15015 0033 0B       		.uleb128 0xb
 15016 0034 49       		.uleb128 0x49
 15017 0035 13       		.uleb128 0x13
 15018 0036 38       		.uleb128 0x38
 15019 0037 0B       		.uleb128 0xb
 15020 0038 00       		.byte	0
 15021 0039 00       		.byte	0
 15022 003a 05       		.uleb128 0x5
 15023 003b 16       		.uleb128 0x16
 15024 003c 00       		.byte	0
 15025 003d 03       		.uleb128 0x3
 15026 003e 0E       		.uleb128 0xe
 15027 003f 3A       		.uleb128 0x3a
 15028 0040 0B       		.uleb128 0xb
 15029 0041 3B       		.uleb128 0x3b
 15030 0042 0B       		.uleb128 0xb
 15031 0043 49       		.uleb128 0x49
 15032 0044 13       		.uleb128 0x13
 15033 0045 00       		.byte	0
 15034 0046 00       		.byte	0
 15035 0047 06       		.uleb128 0x6
 15036 0048 34       		.uleb128 0x34
 15037 0049 00       		.byte	0
 15038 004a 03       		.uleb128 0x3
 15039 004b 0E       		.uleb128 0xe
 15040 004c 3A       		.uleb128 0x3a
 15041 004d 0B       		.uleb128 0xb
 15042 004e 3B       		.uleb128 0x3b
 15043 004f 0B       		.uleb128 0xb
 15044 0050 49       		.uleb128 0x49
 15045 0051 13       		.uleb128 0x13
 15046 0052 3F       		.uleb128 0x3f
 15047 0053 19       		.uleb128 0x19
 15048 0054 3C       		.uleb128 0x3c
 15049 0055 19       		.uleb128 0x19
 15050 0056 00       		.byte	0
 15051 0057 00       		.byte	0
 15052 0058 07       		.uleb128 0x7
 15053 0059 24       		.uleb128 0x24
 15054 005a 00       		.byte	0
 15055 005b 0B       		.uleb128 0xb
 15056 005c 0B       		.uleb128 0xb
 15057 005d 3E       		.uleb128 0x3e
 15058 005e 0B       		.uleb128 0xb
 15059 005f 03       		.uleb128 0x3
 15060 0060 08       		.uleb128 0x8
 15061 0061 00       		.byte	0
 15062 0062 00       		.byte	0
 15063 0063 08       		.uleb128 0x8
 15064 0064 0F       		.uleb128 0xf
 15065 0065 00       		.byte	0
 15066 0066 0B       		.uleb128 0xb
ARM GAS  /var/folders/qd/4mxf5pkd0zdf0b9dd1hp39180000gn/T//ccn3RVaQ.s 			page 266


 15067 0067 0B       		.uleb128 0xb
 15068 0068 49       		.uleb128 0x49
 15069 0069 13       		.uleb128 0x13
 15070 006a 00       		.byte	0
 15071 006b 00       		.byte	0
 15072 006c 09       		.uleb128 0x9
 15073 006d 13       		.uleb128 0x13
 15074 006e 00       		.byte	0
 15075 006f 03       		.uleb128 0x3
 15076 0070 0E       		.uleb128 0xe
 15077 0071 3C       		.uleb128 0x3c
 15078 0072 19       		.uleb128 0x19
 15079 0073 00       		.byte	0
 15080 0074 00       		.byte	0
 15081 0075 0A       		.uleb128 0xa
 15082 0076 16       		.uleb128 0x16
 15083 0077 00       		.byte	0
 15084 0078 03       		.uleb128 0x3
 15085 0079 0E       		.uleb128 0xe
 15086 007a 3A       		.uleb128 0x3a
 15087 007b 0B       		.uleb128 0xb
 15088 007c 3B       		.uleb128 0x3b
 15089 007d 05       		.uleb128 0x5
 15090 007e 49       		.uleb128 0x49
 15091 007f 13       		.uleb128 0x13
 15092 0080 00       		.byte	0
 15093 0081 00       		.byte	0
 15094 0082 0B       		.uleb128 0xb
 15095 0083 17       		.uleb128 0x17
 15096 0084 01       		.byte	0x1
 15097 0085 0B       		.uleb128 0xb
 15098 0086 0B       		.uleb128 0xb
 15099 0087 3A       		.uleb128 0x3a
 15100 0088 0B       		.uleb128 0xb
 15101 0089 3B       		.uleb128 0x3b
 15102 008a 0B       		.uleb128 0xb
 15103 008b 01       		.uleb128 0x1
 15104 008c 13       		.uleb128 0x13
 15105 008d 00       		.byte	0
 15106 008e 00       		.byte	0
 15107 008f 0C       		.uleb128 0xc
 15108 0090 0D       		.uleb128 0xd
 15109 0091 00       		.byte	0
 15110 0092 03       		.uleb128 0x3
 15111 0093 0E       		.uleb128 0xe
 15112 0094 3A       		.uleb128 0x3a
 15113 0095 0B       		.uleb128 0xb
 15114 0096 3B       		.uleb128 0x3b
 15115 0097 0B       		.uleb128 0xb
 15116 0098 49       		.uleb128 0x49
 15117 0099 13       		.uleb128 0x13
 15118 009a 00       		.byte	0
 15119 009b 00       		.byte	0
 15120 009c 0D       		.uleb128 0xd
 15121 009d 01       		.uleb128 0x1
 15122 009e 01       		.byte	0x1
 15123 009f 49       		.uleb128 0x49
ARM GAS  /var/folders/qd/4mxf5pkd0zdf0b9dd1hp39180000gn/T//ccn3RVaQ.s 			page 267


 15124 00a0 13       		.uleb128 0x13
 15125 00a1 01       		.uleb128 0x1
 15126 00a2 13       		.uleb128 0x13
 15127 00a3 00       		.byte	0
 15128 00a4 00       		.byte	0
 15129 00a5 0E       		.uleb128 0xe
 15130 00a6 21       		.uleb128 0x21
 15131 00a7 00       		.byte	0
 15132 00a8 49       		.uleb128 0x49
 15133 00a9 13       		.uleb128 0x13
 15134 00aa 2F       		.uleb128 0x2f
 15135 00ab 0B       		.uleb128 0xb
 15136 00ac 00       		.byte	0
 15137 00ad 00       		.byte	0
 15138 00ae 0F       		.uleb128 0xf
 15139 00af 0F       		.uleb128 0xf
 15140 00b0 00       		.byte	0
 15141 00b1 0B       		.uleb128 0xb
 15142 00b2 0B       		.uleb128 0xb
 15143 00b3 00       		.byte	0
 15144 00b4 00       		.byte	0
 15145 00b5 10       		.uleb128 0x10
 15146 00b6 26       		.uleb128 0x26
 15147 00b7 00       		.byte	0
 15148 00b8 49       		.uleb128 0x49
 15149 00b9 13       		.uleb128 0x13
 15150 00ba 00       		.byte	0
 15151 00bb 00       		.byte	0
 15152 00bc 11       		.uleb128 0x11
 15153 00bd 13       		.uleb128 0x13
 15154 00be 01       		.byte	0x1
 15155 00bf 03       		.uleb128 0x3
 15156 00c0 0E       		.uleb128 0xe
 15157 00c1 0B       		.uleb128 0xb
 15158 00c2 0B       		.uleb128 0xb
 15159 00c3 3A       		.uleb128 0x3a
 15160 00c4 0B       		.uleb128 0xb
 15161 00c5 3B       		.uleb128 0x3b
 15162 00c6 0B       		.uleb128 0xb
 15163 00c7 01       		.uleb128 0x1
 15164 00c8 13       		.uleb128 0x13
 15165 00c9 00       		.byte	0
 15166 00ca 00       		.byte	0
 15167 00cb 12       		.uleb128 0x12
 15168 00cc 0D       		.uleb128 0xd
 15169 00cd 00       		.byte	0
 15170 00ce 03       		.uleb128 0x3
 15171 00cf 08       		.uleb128 0x8
 15172 00d0 3A       		.uleb128 0x3a
 15173 00d1 0B       		.uleb128 0xb
 15174 00d2 3B       		.uleb128 0x3b
 15175 00d3 0B       		.uleb128 0xb
 15176 00d4 49       		.uleb128 0x49
 15177 00d5 13       		.uleb128 0x13
 15178 00d6 38       		.uleb128 0x38
 15179 00d7 0B       		.uleb128 0xb
 15180 00d8 00       		.byte	0
ARM GAS  /var/folders/qd/4mxf5pkd0zdf0b9dd1hp39180000gn/T//ccn3RVaQ.s 			page 268


 15181 00d9 00       		.byte	0
 15182 00da 13       		.uleb128 0x13
 15183 00db 13       		.uleb128 0x13
 15184 00dc 01       		.byte	0x1
 15185 00dd 03       		.uleb128 0x3
 15186 00de 0E       		.uleb128 0xe
 15187 00df 0B       		.uleb128 0xb
 15188 00e0 05       		.uleb128 0x5
 15189 00e1 3A       		.uleb128 0x3a
 15190 00e2 0B       		.uleb128 0xb
 15191 00e3 3B       		.uleb128 0x3b
 15192 00e4 0B       		.uleb128 0xb
 15193 00e5 01       		.uleb128 0x1
 15194 00e6 13       		.uleb128 0x13
 15195 00e7 00       		.byte	0
 15196 00e8 00       		.byte	0
 15197 00e9 14       		.uleb128 0x14
 15198 00ea 0D       		.uleb128 0xd
 15199 00eb 00       		.byte	0
 15200 00ec 03       		.uleb128 0x3
 15201 00ed 0E       		.uleb128 0xe
 15202 00ee 3A       		.uleb128 0x3a
 15203 00ef 0B       		.uleb128 0xb
 15204 00f0 3B       		.uleb128 0x3b
 15205 00f1 0B       		.uleb128 0xb
 15206 00f2 49       		.uleb128 0x49
 15207 00f3 13       		.uleb128 0x13
 15208 00f4 38       		.uleb128 0x38
 15209 00f5 05       		.uleb128 0x5
 15210 00f6 00       		.byte	0
 15211 00f7 00       		.byte	0
 15212 00f8 15       		.uleb128 0x15
 15213 00f9 15       		.uleb128 0x15
 15214 00fa 00       		.byte	0
 15215 00fb 27       		.uleb128 0x27
 15216 00fc 19       		.uleb128 0x19
 15217 00fd 00       		.byte	0
 15218 00fe 00       		.byte	0
 15219 00ff 16       		.uleb128 0x16
 15220 0100 15       		.uleb128 0x15
 15221 0101 01       		.byte	0x1
 15222 0102 27       		.uleb128 0x27
 15223 0103 19       		.uleb128 0x19
 15224 0104 49       		.uleb128 0x49
 15225 0105 13       		.uleb128 0x13
 15226 0106 01       		.uleb128 0x1
 15227 0107 13       		.uleb128 0x13
 15228 0108 00       		.byte	0
 15229 0109 00       		.byte	0
 15230 010a 17       		.uleb128 0x17
 15231 010b 05       		.uleb128 0x5
 15232 010c 00       		.byte	0
 15233 010d 49       		.uleb128 0x49
 15234 010e 13       		.uleb128 0x13
 15235 010f 00       		.byte	0
 15236 0110 00       		.byte	0
 15237 0111 18       		.uleb128 0x18
ARM GAS  /var/folders/qd/4mxf5pkd0zdf0b9dd1hp39180000gn/T//ccn3RVaQ.s 			page 269


 15238 0112 13       		.uleb128 0x13
 15239 0113 01       		.byte	0x1
 15240 0114 03       		.uleb128 0x3
 15241 0115 0E       		.uleb128 0xe
 15242 0116 0B       		.uleb128 0xb
 15243 0117 05       		.uleb128 0x5
 15244 0118 3A       		.uleb128 0x3a
 15245 0119 0B       		.uleb128 0xb
 15246 011a 3B       		.uleb128 0x3b
 15247 011b 05       		.uleb128 0x5
 15248 011c 01       		.uleb128 0x1
 15249 011d 13       		.uleb128 0x13
 15250 011e 00       		.byte	0
 15251 011f 00       		.byte	0
 15252 0120 19       		.uleb128 0x19
 15253 0121 0D       		.uleb128 0xd
 15254 0122 00       		.byte	0
 15255 0123 03       		.uleb128 0x3
 15256 0124 0E       		.uleb128 0xe
 15257 0125 3A       		.uleb128 0x3a
 15258 0126 0B       		.uleb128 0xb
 15259 0127 3B       		.uleb128 0x3b
 15260 0128 05       		.uleb128 0x5
 15261 0129 49       		.uleb128 0x49
 15262 012a 13       		.uleb128 0x13
 15263 012b 38       		.uleb128 0x38
 15264 012c 0B       		.uleb128 0xb
 15265 012d 00       		.byte	0
 15266 012e 00       		.byte	0
 15267 012f 1A       		.uleb128 0x1a
 15268 0130 0D       		.uleb128 0xd
 15269 0131 00       		.byte	0
 15270 0132 03       		.uleb128 0x3
 15271 0133 0E       		.uleb128 0xe
 15272 0134 3A       		.uleb128 0x3a
 15273 0135 0B       		.uleb128 0xb
 15274 0136 3B       		.uleb128 0x3b
 15275 0137 05       		.uleb128 0x5
 15276 0138 49       		.uleb128 0x49
 15277 0139 13       		.uleb128 0x13
 15278 013a 38       		.uleb128 0x38
 15279 013b 05       		.uleb128 0x5
 15280 013c 00       		.byte	0
 15281 013d 00       		.byte	0
 15282 013e 1B       		.uleb128 0x1b
 15283 013f 35       		.uleb128 0x35
 15284 0140 00       		.byte	0
 15285 0141 49       		.uleb128 0x49
 15286 0142 13       		.uleb128 0x13
 15287 0143 00       		.byte	0
 15288 0144 00       		.byte	0
 15289 0145 1C       		.uleb128 0x1c
 15290 0146 13       		.uleb128 0x13
 15291 0147 01       		.byte	0x1
 15292 0148 03       		.uleb128 0x3
 15293 0149 0E       		.uleb128 0xe
 15294 014a 0B       		.uleb128 0xb
ARM GAS  /var/folders/qd/4mxf5pkd0zdf0b9dd1hp39180000gn/T//ccn3RVaQ.s 			page 270


 15295 014b 0B       		.uleb128 0xb
 15296 014c 3A       		.uleb128 0x3a
 15297 014d 0B       		.uleb128 0xb
 15298 014e 3B       		.uleb128 0x3b
 15299 014f 05       		.uleb128 0x5
 15300 0150 01       		.uleb128 0x1
 15301 0151 13       		.uleb128 0x13
 15302 0152 00       		.byte	0
 15303 0153 00       		.byte	0
 15304 0154 1D       		.uleb128 0x1d
 15305 0155 13       		.uleb128 0x13
 15306 0156 01       		.byte	0x1
 15307 0157 0B       		.uleb128 0xb
 15308 0158 0B       		.uleb128 0xb
 15309 0159 3A       		.uleb128 0x3a
 15310 015a 0B       		.uleb128 0xb
 15311 015b 3B       		.uleb128 0x3b
 15312 015c 05       		.uleb128 0x5
 15313 015d 01       		.uleb128 0x1
 15314 015e 13       		.uleb128 0x13
 15315 015f 00       		.byte	0
 15316 0160 00       		.byte	0
 15317 0161 1E       		.uleb128 0x1e
 15318 0162 17       		.uleb128 0x17
 15319 0163 01       		.byte	0x1
 15320 0164 0B       		.uleb128 0xb
 15321 0165 0B       		.uleb128 0xb
 15322 0166 3A       		.uleb128 0x3a
 15323 0167 0B       		.uleb128 0xb
 15324 0168 3B       		.uleb128 0x3b
 15325 0169 05       		.uleb128 0x5
 15326 016a 01       		.uleb128 0x1
 15327 016b 13       		.uleb128 0x13
 15328 016c 00       		.byte	0
 15329 016d 00       		.byte	0
 15330 016e 1F       		.uleb128 0x1f
 15331 016f 0D       		.uleb128 0xd
 15332 0170 00       		.byte	0
 15333 0171 03       		.uleb128 0x3
 15334 0172 0E       		.uleb128 0xe
 15335 0173 3A       		.uleb128 0x3a
 15336 0174 0B       		.uleb128 0xb
 15337 0175 3B       		.uleb128 0x3b
 15338 0176 05       		.uleb128 0x5
 15339 0177 49       		.uleb128 0x49
 15340 0178 13       		.uleb128 0x13
 15341 0179 00       		.byte	0
 15342 017a 00       		.byte	0
 15343 017b 20       		.uleb128 0x20
 15344 017c 15       		.uleb128 0x15
 15345 017d 01       		.byte	0x1
 15346 017e 27       		.uleb128 0x27
 15347 017f 19       		.uleb128 0x19
 15348 0180 01       		.uleb128 0x1
 15349 0181 13       		.uleb128 0x13
 15350 0182 00       		.byte	0
 15351 0183 00       		.byte	0
ARM GAS  /var/folders/qd/4mxf5pkd0zdf0b9dd1hp39180000gn/T//ccn3RVaQ.s 			page 271


 15352 0184 21       		.uleb128 0x21
 15353 0185 34       		.uleb128 0x34
 15354 0186 00       		.byte	0
 15355 0187 03       		.uleb128 0x3
 15356 0188 0E       		.uleb128 0xe
 15357 0189 3A       		.uleb128 0x3a
 15358 018a 0B       		.uleb128 0xb
 15359 018b 3B       		.uleb128 0x3b
 15360 018c 05       		.uleb128 0x5
 15361 018d 49       		.uleb128 0x49
 15362 018e 13       		.uleb128 0x13
 15363 018f 3F       		.uleb128 0x3f
 15364 0190 19       		.uleb128 0x19
 15365 0191 3C       		.uleb128 0x3c
 15366 0192 19       		.uleb128 0x19
 15367 0193 00       		.byte	0
 15368 0194 00       		.byte	0
 15369 0195 22       		.uleb128 0x22
 15370 0196 04       		.uleb128 0x4
 15371 0197 01       		.byte	0x1
 15372 0198 03       		.uleb128 0x3
 15373 0199 0E       		.uleb128 0xe
 15374 019a 3E       		.uleb128 0x3e
 15375 019b 0B       		.uleb128 0xb
 15376 019c 0B       		.uleb128 0xb
 15377 019d 0B       		.uleb128 0xb
 15378 019e 49       		.uleb128 0x49
 15379 019f 13       		.uleb128 0x13
 15380 01a0 3A       		.uleb128 0x3a
 15381 01a1 0B       		.uleb128 0xb
 15382 01a2 3B       		.uleb128 0x3b
 15383 01a3 05       		.uleb128 0x5
 15384 01a4 01       		.uleb128 0x1
 15385 01a5 13       		.uleb128 0x13
 15386 01a6 00       		.byte	0
 15387 01a7 00       		.byte	0
 15388 01a8 23       		.uleb128 0x23
 15389 01a9 28       		.uleb128 0x28
 15390 01aa 00       		.byte	0
 15391 01ab 03       		.uleb128 0x3
 15392 01ac 0E       		.uleb128 0xe
 15393 01ad 1C       		.uleb128 0x1c
 15394 01ae 0D       		.uleb128 0xd
 15395 01af 00       		.byte	0
 15396 01b0 00       		.byte	0
 15397 01b1 24       		.uleb128 0x24
 15398 01b2 28       		.uleb128 0x28
 15399 01b3 00       		.byte	0
 15400 01b4 03       		.uleb128 0x3
 15401 01b5 0E       		.uleb128 0xe
 15402 01b6 1C       		.uleb128 0x1c
 15403 01b7 0B       		.uleb128 0xb
 15404 01b8 00       		.byte	0
 15405 01b9 00       		.byte	0
 15406 01ba 25       		.uleb128 0x25
 15407 01bb 26       		.uleb128 0x26
 15408 01bc 00       		.byte	0
ARM GAS  /var/folders/qd/4mxf5pkd0zdf0b9dd1hp39180000gn/T//ccn3RVaQ.s 			page 272


 15409 01bd 00       		.byte	0
 15410 01be 00       		.byte	0
 15411 01bf 26       		.uleb128 0x26
 15412 01c0 04       		.uleb128 0x4
 15413 01c1 01       		.byte	0x1
 15414 01c2 3E       		.uleb128 0x3e
 15415 01c3 0B       		.uleb128 0xb
 15416 01c4 0B       		.uleb128 0xb
 15417 01c5 0B       		.uleb128 0xb
 15418 01c6 49       		.uleb128 0x49
 15419 01c7 13       		.uleb128 0x13
 15420 01c8 3A       		.uleb128 0x3a
 15421 01c9 0B       		.uleb128 0xb
 15422 01ca 3B       		.uleb128 0x3b
 15423 01cb 0B       		.uleb128 0xb
 15424 01cc 01       		.uleb128 0x1
 15425 01cd 13       		.uleb128 0x13
 15426 01ce 00       		.byte	0
 15427 01cf 00       		.byte	0
 15428 01d0 27       		.uleb128 0x27
 15429 01d1 0D       		.uleb128 0xd
 15430 01d2 00       		.byte	0
 15431 01d3 03       		.uleb128 0x3
 15432 01d4 08       		.uleb128 0x8
 15433 01d5 3A       		.uleb128 0x3a
 15434 01d6 0B       		.uleb128 0xb
 15435 01d7 3B       		.uleb128 0x3b
 15436 01d8 05       		.uleb128 0x5
 15437 01d9 49       		.uleb128 0x49
 15438 01da 13       		.uleb128 0x13
 15439 01db 38       		.uleb128 0x38
 15440 01dc 0B       		.uleb128 0xb
 15441 01dd 00       		.byte	0
 15442 01de 00       		.byte	0
 15443 01df 28       		.uleb128 0x28
 15444 01e0 0D       		.uleb128 0xd
 15445 01e1 00       		.byte	0
 15446 01e2 03       		.uleb128 0x3
 15447 01e3 08       		.uleb128 0x8
 15448 01e4 3A       		.uleb128 0x3a
 15449 01e5 0B       		.uleb128 0xb
 15450 01e6 3B       		.uleb128 0x3b
 15451 01e7 05       		.uleb128 0x5
 15452 01e8 49       		.uleb128 0x49
 15453 01e9 13       		.uleb128 0x13
 15454 01ea 38       		.uleb128 0x38
 15455 01eb 05       		.uleb128 0x5
 15456 01ec 00       		.byte	0
 15457 01ed 00       		.byte	0
 15458 01ee 29       		.uleb128 0x29
 15459 01ef 13       		.uleb128 0x13
 15460 01f0 01       		.byte	0x1
 15461 01f1 0B       		.uleb128 0xb
 15462 01f2 05       		.uleb128 0x5
 15463 01f3 3A       		.uleb128 0x3a
 15464 01f4 0B       		.uleb128 0xb
 15465 01f5 3B       		.uleb128 0x3b
ARM GAS  /var/folders/qd/4mxf5pkd0zdf0b9dd1hp39180000gn/T//ccn3RVaQ.s 			page 273


 15466 01f6 05       		.uleb128 0x5
 15467 01f7 01       		.uleb128 0x1
 15468 01f8 13       		.uleb128 0x13
 15469 01f9 00       		.byte	0
 15470 01fa 00       		.byte	0
 15471 01fb 2A       		.uleb128 0x2a
 15472 01fc 13       		.uleb128 0x13
 15473 01fd 01       		.byte	0x1
 15474 01fe 0B       		.uleb128 0xb
 15475 01ff 05       		.uleb128 0x5
 15476 0200 3A       		.uleb128 0x3a
 15477 0201 0B       		.uleb128 0xb
 15478 0202 3B       		.uleb128 0x3b
 15479 0203 0B       		.uleb128 0xb
 15480 0204 01       		.uleb128 0x1
 15481 0205 13       		.uleb128 0x13
 15482 0206 00       		.byte	0
 15483 0207 00       		.byte	0
 15484 0208 2B       		.uleb128 0x2b
 15485 0209 34       		.uleb128 0x34
 15486 020a 00       		.byte	0
 15487 020b 03       		.uleb128 0x3
 15488 020c 08       		.uleb128 0x8
 15489 020d 3A       		.uleb128 0x3a
 15490 020e 0B       		.uleb128 0xb
 15491 020f 3B       		.uleb128 0x3b
 15492 0210 05       		.uleb128 0x5
 15493 0211 49       		.uleb128 0x49
 15494 0212 13       		.uleb128 0x13
 15495 0213 3F       		.uleb128 0x3f
 15496 0214 19       		.uleb128 0x19
 15497 0215 3C       		.uleb128 0x3c
 15498 0216 19       		.uleb128 0x19
 15499 0217 00       		.byte	0
 15500 0218 00       		.byte	0
 15501 0219 2C       		.uleb128 0x2c
 15502 021a 0D       		.uleb128 0xd
 15503 021b 00       		.byte	0
 15504 021c 03       		.uleb128 0x3
 15505 021d 08       		.uleb128 0x8
 15506 021e 3A       		.uleb128 0x3a
 15507 021f 0B       		.uleb128 0xb
 15508 0220 3B       		.uleb128 0x3b
 15509 0221 0B       		.uleb128 0xb
 15510 0222 49       		.uleb128 0x49
 15511 0223 13       		.uleb128 0x13
 15512 0224 00       		.byte	0
 15513 0225 00       		.byte	0
 15514 0226 2D       		.uleb128 0x2d
 15515 0227 04       		.uleb128 0x4
 15516 0228 01       		.byte	0x1
 15517 0229 3E       		.uleb128 0x3e
 15518 022a 0B       		.uleb128 0xb
 15519 022b 0B       		.uleb128 0xb
 15520 022c 0B       		.uleb128 0xb
 15521 022d 49       		.uleb128 0x49
 15522 022e 13       		.uleb128 0x13
ARM GAS  /var/folders/qd/4mxf5pkd0zdf0b9dd1hp39180000gn/T//ccn3RVaQ.s 			page 274


 15523 022f 3A       		.uleb128 0x3a
 15524 0230 0B       		.uleb128 0xb
 15525 0231 3B       		.uleb128 0x3b
 15526 0232 05       		.uleb128 0x5
 15527 0233 01       		.uleb128 0x1
 15528 0234 13       		.uleb128 0x13
 15529 0235 00       		.byte	0
 15530 0236 00       		.byte	0
 15531 0237 2E       		.uleb128 0x2e
 15532 0238 13       		.uleb128 0x13
 15533 0239 01       		.byte	0x1
 15534 023a 0B       		.uleb128 0xb
 15535 023b 06       		.uleb128 0x6
 15536 023c 3A       		.uleb128 0x3a
 15537 023d 0B       		.uleb128 0xb
 15538 023e 3B       		.uleb128 0x3b
 15539 023f 0B       		.uleb128 0xb
 15540 0240 01       		.uleb128 0x1
 15541 0241 13       		.uleb128 0x13
 15542 0242 00       		.byte	0
 15543 0243 00       		.byte	0
 15544 0244 2F       		.uleb128 0x2f
 15545 0245 0D       		.uleb128 0xd
 15546 0246 00       		.byte	0
 15547 0247 03       		.uleb128 0x3
 15548 0248 08       		.uleb128 0x8
 15549 0249 3A       		.uleb128 0x3a
 15550 024a 0B       		.uleb128 0xb
 15551 024b 3B       		.uleb128 0x3b
 15552 024c 0B       		.uleb128 0xb
 15553 024d 49       		.uleb128 0x49
 15554 024e 13       		.uleb128 0x13
 15555 024f 38       		.uleb128 0x38
 15556 0250 05       		.uleb128 0x5
 15557 0251 00       		.byte	0
 15558 0252 00       		.byte	0
 15559 0253 30       		.uleb128 0x30
 15560 0254 21       		.uleb128 0x21
 15561 0255 00       		.byte	0
 15562 0256 49       		.uleb128 0x49
 15563 0257 13       		.uleb128 0x13
 15564 0258 2F       		.uleb128 0x2f
 15565 0259 05       		.uleb128 0x5
 15566 025a 00       		.byte	0
 15567 025b 00       		.byte	0
 15568 025c 31       		.uleb128 0x31
 15569 025d 34       		.uleb128 0x34
 15570 025e 00       		.byte	0
 15571 025f 03       		.uleb128 0x3
 15572 0260 0E       		.uleb128 0xe
 15573 0261 3A       		.uleb128 0x3a
 15574 0262 0B       		.uleb128 0xb
 15575 0263 3B       		.uleb128 0x3b
 15576 0264 0B       		.uleb128 0xb
 15577 0265 49       		.uleb128 0x49
 15578 0266 13       		.uleb128 0x13
 15579 0267 00       		.byte	0
ARM GAS  /var/folders/qd/4mxf5pkd0zdf0b9dd1hp39180000gn/T//ccn3RVaQ.s 			page 275


 15580 0268 00       		.byte	0
 15581 0269 32       		.uleb128 0x32
 15582 026a 34       		.uleb128 0x34
 15583 026b 00       		.byte	0
 15584 026c 03       		.uleb128 0x3
 15585 026d 0E       		.uleb128 0xe
 15586 026e 3A       		.uleb128 0x3a
 15587 026f 0B       		.uleb128 0xb
 15588 0270 3B       		.uleb128 0x3b
 15589 0271 0B       		.uleb128 0xb
 15590 0272 49       		.uleb128 0x49
 15591 0273 13       		.uleb128 0x13
 15592 0274 02       		.uleb128 0x2
 15593 0275 18       		.uleb128 0x18
 15594 0276 00       		.byte	0
 15595 0277 00       		.byte	0
 15596 0278 33       		.uleb128 0x33
 15597 0279 34       		.uleb128 0x34
 15598 027a 00       		.byte	0
 15599 027b 47       		.uleb128 0x47
 15600 027c 13       		.uleb128 0x13
 15601 027d 3A       		.uleb128 0x3a
 15602 027e 0B       		.uleb128 0xb
 15603 027f 3B       		.uleb128 0x3b
 15604 0280 0B       		.uleb128 0xb
 15605 0281 02       		.uleb128 0x2
 15606 0282 18       		.uleb128 0x18
 15607 0283 00       		.byte	0
 15608 0284 00       		.byte	0
 15609 0285 34       		.uleb128 0x34
 15610 0286 34       		.uleb128 0x34
 15611 0287 00       		.byte	0
 15612 0288 03       		.uleb128 0x3
 15613 0289 0E       		.uleb128 0xe
 15614 028a 3A       		.uleb128 0x3a
 15615 028b 0B       		.uleb128 0xb
 15616 028c 3B       		.uleb128 0x3b
 15617 028d 0B       		.uleb128 0xb
 15618 028e 49       		.uleb128 0x49
 15619 028f 13       		.uleb128 0x13
 15620 0290 3F       		.uleb128 0x3f
 15621 0291 19       		.uleb128 0x19
 15622 0292 02       		.uleb128 0x2
 15623 0293 18       		.uleb128 0x18
 15624 0294 00       		.byte	0
 15625 0295 00       		.byte	0
 15626 0296 35       		.uleb128 0x35
 15627 0297 34       		.uleb128 0x34
 15628 0298 00       		.byte	0
 15629 0299 03       		.uleb128 0x3
 15630 029a 0E       		.uleb128 0xe
 15631 029b 3A       		.uleb128 0x3a
 15632 029c 0B       		.uleb128 0xb
 15633 029d 3B       		.uleb128 0x3b
 15634 029e 05       		.uleb128 0x5
 15635 029f 49       		.uleb128 0x49
 15636 02a0 13       		.uleb128 0x13
ARM GAS  /var/folders/qd/4mxf5pkd0zdf0b9dd1hp39180000gn/T//ccn3RVaQ.s 			page 276


 15637 02a1 02       		.uleb128 0x2
 15638 02a2 18       		.uleb128 0x18
 15639 02a3 00       		.byte	0
 15640 02a4 00       		.byte	0
 15641 02a5 36       		.uleb128 0x36
 15642 02a6 2E       		.uleb128 0x2e
 15643 02a7 01       		.byte	0x1
 15644 02a8 3F       		.uleb128 0x3f
 15645 02a9 19       		.uleb128 0x19
 15646 02aa 03       		.uleb128 0x3
 15647 02ab 0E       		.uleb128 0xe
 15648 02ac 3A       		.uleb128 0x3a
 15649 02ad 0B       		.uleb128 0xb
 15650 02ae 3B       		.uleb128 0x3b
 15651 02af 05       		.uleb128 0x5
 15652 02b0 27       		.uleb128 0x27
 15653 02b1 19       		.uleb128 0x19
 15654 02b2 11       		.uleb128 0x11
 15655 02b3 01       		.uleb128 0x1
 15656 02b4 12       		.uleb128 0x12
 15657 02b5 06       		.uleb128 0x6
 15658 02b6 40       		.uleb128 0x40
 15659 02b7 18       		.uleb128 0x18
 15660 02b8 9742     		.uleb128 0x2117
 15661 02ba 19       		.uleb128 0x19
 15662 02bb 01       		.uleb128 0x1
 15663 02bc 13       		.uleb128 0x13
 15664 02bd 00       		.byte	0
 15665 02be 00       		.byte	0
 15666 02bf 37       		.uleb128 0x37
 15667 02c0 898201   		.uleb128 0x4109
 15668 02c3 00       		.byte	0
 15669 02c4 11       		.uleb128 0x11
 15670 02c5 01       		.uleb128 0x1
 15671 02c6 31       		.uleb128 0x31
 15672 02c7 13       		.uleb128 0x13
 15673 02c8 00       		.byte	0
 15674 02c9 00       		.byte	0
 15675 02ca 38       		.uleb128 0x38
 15676 02cb 1D       		.uleb128 0x1d
 15677 02cc 01       		.byte	0x1
 15678 02cd 31       		.uleb128 0x31
 15679 02ce 13       		.uleb128 0x13
 15680 02cf 52       		.uleb128 0x52
 15681 02d0 01       		.uleb128 0x1
 15682 02d1 55       		.uleb128 0x55
 15683 02d2 17       		.uleb128 0x17
 15684 02d3 58       		.uleb128 0x58
 15685 02d4 0B       		.uleb128 0xb
 15686 02d5 59       		.uleb128 0x59
 15687 02d6 05       		.uleb128 0x5
 15688 02d7 00       		.byte	0
 15689 02d8 00       		.byte	0
 15690 02d9 39       		.uleb128 0x39
 15691 02da 05       		.uleb128 0x5
 15692 02db 00       		.byte	0
 15693 02dc 31       		.uleb128 0x31
ARM GAS  /var/folders/qd/4mxf5pkd0zdf0b9dd1hp39180000gn/T//ccn3RVaQ.s 			page 277


 15694 02dd 13       		.uleb128 0x13
 15695 02de 02       		.uleb128 0x2
 15696 02df 18       		.uleb128 0x18
 15697 02e0 00       		.byte	0
 15698 02e1 00       		.byte	0
 15699 02e2 3A       		.uleb128 0x3a
 15700 02e3 898201   		.uleb128 0x4109
 15701 02e6 01       		.byte	0x1
 15702 02e7 11       		.uleb128 0x11
 15703 02e8 01       		.uleb128 0x1
 15704 02e9 9542     		.uleb128 0x2115
 15705 02eb 19       		.uleb128 0x19
 15706 02ec 31       		.uleb128 0x31
 15707 02ed 13       		.uleb128 0x13
 15708 02ee 01       		.uleb128 0x1
 15709 02ef 13       		.uleb128 0x13
 15710 02f0 00       		.byte	0
 15711 02f1 00       		.byte	0
 15712 02f2 3B       		.uleb128 0x3b
 15713 02f3 8A8201   		.uleb128 0x410a
 15714 02f6 00       		.byte	0
 15715 02f7 02       		.uleb128 0x2
 15716 02f8 18       		.uleb128 0x18
 15717 02f9 9142     		.uleb128 0x2111
 15718 02fb 18       		.uleb128 0x18
 15719 02fc 00       		.byte	0
 15720 02fd 00       		.byte	0
 15721 02fe 3C       		.uleb128 0x3c
 15722 02ff 898201   		.uleb128 0x4109
 15723 0302 01       		.byte	0x1
 15724 0303 11       		.uleb128 0x11
 15725 0304 01       		.uleb128 0x1
 15726 0305 31       		.uleb128 0x31
 15727 0306 13       		.uleb128 0x13
 15728 0307 01       		.uleb128 0x1
 15729 0308 13       		.uleb128 0x13
 15730 0309 00       		.byte	0
 15731 030a 00       		.byte	0
 15732 030b 3D       		.uleb128 0x3d
 15733 030c 2E       		.uleb128 0x2e
 15734 030d 01       		.byte	0x1
 15735 030e 03       		.uleb128 0x3
 15736 030f 0E       		.uleb128 0xe
 15737 0310 3A       		.uleb128 0x3a
 15738 0311 0B       		.uleb128 0xb
 15739 0312 3B       		.uleb128 0x3b
 15740 0313 05       		.uleb128 0x5
 15741 0314 27       		.uleb128 0x27
 15742 0315 19       		.uleb128 0x19
 15743 0316 11       		.uleb128 0x11
 15744 0317 01       		.uleb128 0x1
 15745 0318 12       		.uleb128 0x12
 15746 0319 06       		.uleb128 0x6
 15747 031a 40       		.uleb128 0x40
 15748 031b 18       		.uleb128 0x18
 15749 031c 9742     		.uleb128 0x2117
 15750 031e 19       		.uleb128 0x19
ARM GAS  /var/folders/qd/4mxf5pkd0zdf0b9dd1hp39180000gn/T//ccn3RVaQ.s 			page 278


 15751 031f 01       		.uleb128 0x1
 15752 0320 13       		.uleb128 0x13
 15753 0321 00       		.byte	0
 15754 0322 00       		.byte	0
 15755 0323 3E       		.uleb128 0x3e
 15756 0324 05       		.uleb128 0x5
 15757 0325 00       		.byte	0
 15758 0326 03       		.uleb128 0x3
 15759 0327 08       		.uleb128 0x8
 15760 0328 3A       		.uleb128 0x3a
 15761 0329 0B       		.uleb128 0xb
 15762 032a 3B       		.uleb128 0x3b
 15763 032b 05       		.uleb128 0x5
 15764 032c 49       		.uleb128 0x49
 15765 032d 13       		.uleb128 0x13
 15766 032e 02       		.uleb128 0x2
 15767 032f 17       		.uleb128 0x17
 15768 0330 00       		.byte	0
 15769 0331 00       		.byte	0
 15770 0332 3F       		.uleb128 0x3f
 15771 0333 1D       		.uleb128 0x1d
 15772 0334 01       		.byte	0x1
 15773 0335 31       		.uleb128 0x31
 15774 0336 13       		.uleb128 0x13
 15775 0337 52       		.uleb128 0x52
 15776 0338 01       		.uleb128 0x1
 15777 0339 55       		.uleb128 0x55
 15778 033a 17       		.uleb128 0x17
 15779 033b 58       		.uleb128 0x58
 15780 033c 0B       		.uleb128 0xb
 15781 033d 59       		.uleb128 0x59
 15782 033e 05       		.uleb128 0x5
 15783 033f 01       		.uleb128 0x1
 15784 0340 13       		.uleb128 0x13
 15785 0341 00       		.byte	0
 15786 0342 00       		.byte	0
 15787 0343 40       		.uleb128 0x40
 15788 0344 05       		.uleb128 0x5
 15789 0345 00       		.byte	0
 15790 0346 31       		.uleb128 0x31
 15791 0347 13       		.uleb128 0x13
 15792 0348 02       		.uleb128 0x2
 15793 0349 17       		.uleb128 0x17
 15794 034a 00       		.byte	0
 15795 034b 00       		.byte	0
 15796 034c 41       		.uleb128 0x41
 15797 034d 1D       		.uleb128 0x1d
 15798 034e 01       		.byte	0x1
 15799 034f 31       		.uleb128 0x31
 15800 0350 13       		.uleb128 0x13
 15801 0351 11       		.uleb128 0x11
 15802 0352 01       		.uleb128 0x1
 15803 0353 12       		.uleb128 0x12
 15804 0354 06       		.uleb128 0x6
 15805 0355 58       		.uleb128 0x58
 15806 0356 0B       		.uleb128 0xb
 15807 0357 59       		.uleb128 0x59
ARM GAS  /var/folders/qd/4mxf5pkd0zdf0b9dd1hp39180000gn/T//ccn3RVaQ.s 			page 279


 15808 0358 05       		.uleb128 0x5
 15809 0359 01       		.uleb128 0x1
 15810 035a 13       		.uleb128 0x13
 15811 035b 00       		.byte	0
 15812 035c 00       		.byte	0
 15813 035d 42       		.uleb128 0x42
 15814 035e 1D       		.uleb128 0x1d
 15815 035f 01       		.byte	0x1
 15816 0360 31       		.uleb128 0x31
 15817 0361 13       		.uleb128 0x13
 15818 0362 11       		.uleb128 0x11
 15819 0363 01       		.uleb128 0x1
 15820 0364 12       		.uleb128 0x12
 15821 0365 06       		.uleb128 0x6
 15822 0366 58       		.uleb128 0x58
 15823 0367 0B       		.uleb128 0xb
 15824 0368 59       		.uleb128 0x59
 15825 0369 05       		.uleb128 0x5
 15826 036a 00       		.byte	0
 15827 036b 00       		.byte	0
 15828 036c 43       		.uleb128 0x43
 15829 036d 0B       		.uleb128 0xb
 15830 036e 01       		.byte	0x1
 15831 036f 55       		.uleb128 0x55
 15832 0370 17       		.uleb128 0x17
 15833 0371 00       		.byte	0
 15834 0372 00       		.byte	0
 15835 0373 44       		.uleb128 0x44
 15836 0374 34       		.uleb128 0x34
 15837 0375 00       		.byte	0
 15838 0376 31       		.uleb128 0x31
 15839 0377 13       		.uleb128 0x13
 15840 0378 00       		.byte	0
 15841 0379 00       		.byte	0
 15842 037a 45       		.uleb128 0x45
 15843 037b 898201   		.uleb128 0x4109
 15844 037e 01       		.byte	0x1
 15845 037f 11       		.uleb128 0x11
 15846 0380 01       		.uleb128 0x1
 15847 0381 31       		.uleb128 0x31
 15848 0382 13       		.uleb128 0x13
 15849 0383 00       		.byte	0
 15850 0384 00       		.byte	0
 15851 0385 46       		.uleb128 0x46
 15852 0386 34       		.uleb128 0x34
 15853 0387 00       		.byte	0
 15854 0388 03       		.uleb128 0x3
 15855 0389 0E       		.uleb128 0xe
 15856 038a 3A       		.uleb128 0x3a
 15857 038b 0B       		.uleb128 0xb
 15858 038c 3B       		.uleb128 0x3b
 15859 038d 05       		.uleb128 0x5
 15860 038e 49       		.uleb128 0x49
 15861 038f 13       		.uleb128 0x13
 15862 0390 02       		.uleb128 0x2
 15863 0391 17       		.uleb128 0x17
 15864 0392 00       		.byte	0
ARM GAS  /var/folders/qd/4mxf5pkd0zdf0b9dd1hp39180000gn/T//ccn3RVaQ.s 			page 280


 15865 0393 00       		.byte	0
 15866 0394 47       		.uleb128 0x47
 15867 0395 0B       		.uleb128 0xb
 15868 0396 01       		.byte	0x1
 15869 0397 11       		.uleb128 0x11
 15870 0398 01       		.uleb128 0x1
 15871 0399 12       		.uleb128 0x12
 15872 039a 06       		.uleb128 0x6
 15873 039b 00       		.byte	0
 15874 039c 00       		.byte	0
 15875 039d 48       		.uleb128 0x48
 15876 039e 2E       		.uleb128 0x2e
 15877 039f 01       		.byte	0x1
 15878 03a0 3F       		.uleb128 0x3f
 15879 03a1 19       		.uleb128 0x19
 15880 03a2 03       		.uleb128 0x3
 15881 03a3 0E       		.uleb128 0xe
 15882 03a4 3A       		.uleb128 0x3a
 15883 03a5 0B       		.uleb128 0xb
 15884 03a6 3B       		.uleb128 0x3b
 15885 03a7 05       		.uleb128 0x5
 15886 03a8 27       		.uleb128 0x27
 15887 03a9 19       		.uleb128 0x19
 15888 03aa 11       		.uleb128 0x11
 15889 03ab 01       		.uleb128 0x1
 15890 03ac 12       		.uleb128 0x12
 15891 03ad 06       		.uleb128 0x6
 15892 03ae 40       		.uleb128 0x40
 15893 03af 18       		.uleb128 0x18
 15894 03b0 9642     		.uleb128 0x2116
 15895 03b2 19       		.uleb128 0x19
 15896 03b3 01       		.uleb128 0x1
 15897 03b4 13       		.uleb128 0x13
 15898 03b5 00       		.byte	0
 15899 03b6 00       		.byte	0
 15900 03b7 49       		.uleb128 0x49
 15901 03b8 0B       		.uleb128 0xb
 15902 03b9 01       		.byte	0x1
 15903 03ba 55       		.uleb128 0x55
 15904 03bb 17       		.uleb128 0x17
 15905 03bc 01       		.uleb128 0x1
 15906 03bd 13       		.uleb128 0x13
 15907 03be 00       		.byte	0
 15908 03bf 00       		.byte	0
 15909 03c0 4A       		.uleb128 0x4a
 15910 03c1 34       		.uleb128 0x34
 15911 03c2 00       		.byte	0
 15912 03c3 03       		.uleb128 0x3
 15913 03c4 08       		.uleb128 0x8
 15914 03c5 3A       		.uleb128 0x3a
 15915 03c6 0B       		.uleb128 0xb
 15916 03c7 3B       		.uleb128 0x3b
 15917 03c8 05       		.uleb128 0x5
 15918 03c9 49       		.uleb128 0x49
 15919 03ca 13       		.uleb128 0x13
 15920 03cb 02       		.uleb128 0x2
 15921 03cc 17       		.uleb128 0x17
ARM GAS  /var/folders/qd/4mxf5pkd0zdf0b9dd1hp39180000gn/T//ccn3RVaQ.s 			page 281


 15922 03cd 00       		.byte	0
 15923 03ce 00       		.byte	0
 15924 03cf 4B       		.uleb128 0x4b
 15925 03d0 05       		.uleb128 0x5
 15926 03d1 00       		.byte	0
 15927 03d2 03       		.uleb128 0x3
 15928 03d3 0E       		.uleb128 0xe
 15929 03d4 3A       		.uleb128 0x3a
 15930 03d5 0B       		.uleb128 0xb
 15931 03d6 3B       		.uleb128 0x3b
 15932 03d7 05       		.uleb128 0x5
 15933 03d8 49       		.uleb128 0x49
 15934 03d9 13       		.uleb128 0x13
 15935 03da 02       		.uleb128 0x2
 15936 03db 17       		.uleb128 0x17
 15937 03dc 00       		.byte	0
 15938 03dd 00       		.byte	0
 15939 03de 4C       		.uleb128 0x4c
 15940 03df 2E       		.uleb128 0x2e
 15941 03e0 00       		.byte	0
 15942 03e1 3F       		.uleb128 0x3f
 15943 03e2 19       		.uleb128 0x19
 15944 03e3 03       		.uleb128 0x3
 15945 03e4 0E       		.uleb128 0xe
 15946 03e5 3A       		.uleb128 0x3a
 15947 03e6 0B       		.uleb128 0xb
 15948 03e7 3B       		.uleb128 0x3b
 15949 03e8 05       		.uleb128 0x5
 15950 03e9 27       		.uleb128 0x27
 15951 03ea 19       		.uleb128 0x19
 15952 03eb 20       		.uleb128 0x20
 15953 03ec 0B       		.uleb128 0xb
 15954 03ed 00       		.byte	0
 15955 03ee 00       		.byte	0
 15956 03ef 4D       		.uleb128 0x4d
 15957 03f0 2E       		.uleb128 0x2e
 15958 03f1 01       		.byte	0x1
 15959 03f2 3F       		.uleb128 0x3f
 15960 03f3 19       		.uleb128 0x19
 15961 03f4 03       		.uleb128 0x3
 15962 03f5 0E       		.uleb128 0xe
 15963 03f6 3A       		.uleb128 0x3a
 15964 03f7 0B       		.uleb128 0xb
 15965 03f8 3B       		.uleb128 0x3b
 15966 03f9 05       		.uleb128 0x5
 15967 03fa 27       		.uleb128 0x27
 15968 03fb 19       		.uleb128 0x19
 15969 03fc 20       		.uleb128 0x20
 15970 03fd 0B       		.uleb128 0xb
 15971 03fe 01       		.uleb128 0x1
 15972 03ff 13       		.uleb128 0x13
 15973 0400 00       		.byte	0
 15974 0401 00       		.byte	0
 15975 0402 4E       		.uleb128 0x4e
 15976 0403 05       		.uleb128 0x5
 15977 0404 00       		.byte	0
 15978 0405 03       		.uleb128 0x3
ARM GAS  /var/folders/qd/4mxf5pkd0zdf0b9dd1hp39180000gn/T//ccn3RVaQ.s 			page 282


 15979 0406 0E       		.uleb128 0xe
 15980 0407 3A       		.uleb128 0x3a
 15981 0408 0B       		.uleb128 0xb
 15982 0409 3B       		.uleb128 0x3b
 15983 040a 05       		.uleb128 0x5
 15984 040b 49       		.uleb128 0x49
 15985 040c 13       		.uleb128 0x13
 15986 040d 00       		.byte	0
 15987 040e 00       		.byte	0
 15988 040f 4F       		.uleb128 0x4f
 15989 0410 34       		.uleb128 0x34
 15990 0411 00       		.byte	0
 15991 0412 03       		.uleb128 0x3
 15992 0413 0E       		.uleb128 0xe
 15993 0414 3A       		.uleb128 0x3a
 15994 0415 0B       		.uleb128 0xb
 15995 0416 3B       		.uleb128 0x3b
 15996 0417 05       		.uleb128 0x5
 15997 0418 49       		.uleb128 0x49
 15998 0419 13       		.uleb128 0x13
 15999 041a 00       		.byte	0
 16000 041b 00       		.byte	0
 16001 041c 50       		.uleb128 0x50
 16002 041d 898201   		.uleb128 0x4109
 16003 0420 00       		.byte	0
 16004 0421 11       		.uleb128 0x11
 16005 0422 01       		.uleb128 0x1
 16006 0423 9542     		.uleb128 0x2115
 16007 0425 19       		.uleb128 0x19
 16008 0426 31       		.uleb128 0x31
 16009 0427 13       		.uleb128 0x13
 16010 0428 00       		.byte	0
 16011 0429 00       		.byte	0
 16012 042a 51       		.uleb128 0x51
 16013 042b 1D       		.uleb128 0x1d
 16014 042c 01       		.byte	0x1
 16015 042d 31       		.uleb128 0x31
 16016 042e 13       		.uleb128 0x13
 16017 042f 52       		.uleb128 0x52
 16018 0430 01       		.uleb128 0x1
 16019 0431 55       		.uleb128 0x55
 16020 0432 17       		.uleb128 0x17
 16021 0433 58       		.uleb128 0x58
 16022 0434 0B       		.uleb128 0xb
 16023 0435 59       		.uleb128 0x59
 16024 0436 0B       		.uleb128 0xb
 16025 0437 01       		.uleb128 0x1
 16026 0438 13       		.uleb128 0x13
 16027 0439 00       		.byte	0
 16028 043a 00       		.byte	0
 16029 043b 52       		.uleb128 0x52
 16030 043c 1D       		.uleb128 0x1d
 16031 043d 00       		.byte	0
 16032 043e 31       		.uleb128 0x31
 16033 043f 13       		.uleb128 0x13
 16034 0440 52       		.uleb128 0x52
 16035 0441 01       		.uleb128 0x1
ARM GAS  /var/folders/qd/4mxf5pkd0zdf0b9dd1hp39180000gn/T//ccn3RVaQ.s 			page 283


 16036 0442 55       		.uleb128 0x55
 16037 0443 17       		.uleb128 0x17
 16038 0444 58       		.uleb128 0x58
 16039 0445 0B       		.uleb128 0xb
 16040 0446 59       		.uleb128 0x59
 16041 0447 0B       		.uleb128 0xb
 16042 0448 00       		.byte	0
 16043 0449 00       		.byte	0
 16044 044a 53       		.uleb128 0x53
 16045 044b 1D       		.uleb128 0x1d
 16046 044c 01       		.byte	0x1
 16047 044d 31       		.uleb128 0x31
 16048 044e 13       		.uleb128 0x13
 16049 044f 52       		.uleb128 0x52
 16050 0450 01       		.uleb128 0x1
 16051 0451 55       		.uleb128 0x55
 16052 0452 17       		.uleb128 0x17
 16053 0453 58       		.uleb128 0x58
 16054 0454 0B       		.uleb128 0xb
 16055 0455 59       		.uleb128 0x59
 16056 0456 0B       		.uleb128 0xb
 16057 0457 00       		.byte	0
 16058 0458 00       		.byte	0
 16059 0459 54       		.uleb128 0x54
 16060 045a 2E       		.uleb128 0x2e
 16061 045b 01       		.byte	0x1
 16062 045c 3F       		.uleb128 0x3f
 16063 045d 19       		.uleb128 0x19
 16064 045e 03       		.uleb128 0x3
 16065 045f 0E       		.uleb128 0xe
 16066 0460 3A       		.uleb128 0x3a
 16067 0461 0B       		.uleb128 0xb
 16068 0462 3B       		.uleb128 0x3b
 16069 0463 0B       		.uleb128 0xb
 16070 0464 27       		.uleb128 0x27
 16071 0465 19       		.uleb128 0x19
 16072 0466 11       		.uleb128 0x11
 16073 0467 01       		.uleb128 0x1
 16074 0468 12       		.uleb128 0x12
 16075 0469 06       		.uleb128 0x6
 16076 046a 40       		.uleb128 0x40
 16077 046b 18       		.uleb128 0x18
 16078 046c 9742     		.uleb128 0x2117
 16079 046e 19       		.uleb128 0x19
 16080 046f 01       		.uleb128 0x1
 16081 0470 13       		.uleb128 0x13
 16082 0471 00       		.byte	0
 16083 0472 00       		.byte	0
 16084 0473 55       		.uleb128 0x55
 16085 0474 05       		.uleb128 0x5
 16086 0475 00       		.byte	0
 16087 0476 03       		.uleb128 0x3
 16088 0477 0E       		.uleb128 0xe
 16089 0478 3A       		.uleb128 0x3a
 16090 0479 0B       		.uleb128 0xb
 16091 047a 3B       		.uleb128 0x3b
 16092 047b 0B       		.uleb128 0xb
ARM GAS  /var/folders/qd/4mxf5pkd0zdf0b9dd1hp39180000gn/T//ccn3RVaQ.s 			page 284


 16093 047c 49       		.uleb128 0x49
 16094 047d 13       		.uleb128 0x13
 16095 047e 02       		.uleb128 0x2
 16096 047f 17       		.uleb128 0x17
 16097 0480 00       		.byte	0
 16098 0481 00       		.byte	0
 16099 0482 56       		.uleb128 0x56
 16100 0483 1D       		.uleb128 0x1d
 16101 0484 01       		.byte	0x1
 16102 0485 31       		.uleb128 0x31
 16103 0486 13       		.uleb128 0x13
 16104 0487 11       		.uleb128 0x11
 16105 0488 01       		.uleb128 0x1
 16106 0489 12       		.uleb128 0x12
 16107 048a 06       		.uleb128 0x6
 16108 048b 58       		.uleb128 0x58
 16109 048c 0B       		.uleb128 0xb
 16110 048d 59       		.uleb128 0x59
 16111 048e 0B       		.uleb128 0xb
 16112 048f 00       		.byte	0
 16113 0490 00       		.byte	0
 16114 0491 57       		.uleb128 0x57
 16115 0492 2E       		.uleb128 0x2e
 16116 0493 00       		.byte	0
 16117 0494 3F       		.uleb128 0x3f
 16118 0495 19       		.uleb128 0x19
 16119 0496 03       		.uleb128 0x3
 16120 0497 0E       		.uleb128 0xe
 16121 0498 3A       		.uleb128 0x3a
 16122 0499 0B       		.uleb128 0xb
 16123 049a 3B       		.uleb128 0x3b
 16124 049b 0B       		.uleb128 0xb
 16125 049c 27       		.uleb128 0x27
 16126 049d 19       		.uleb128 0x19
 16127 049e 20       		.uleb128 0x20
 16128 049f 0B       		.uleb128 0xb
 16129 04a0 00       		.byte	0
 16130 04a1 00       		.byte	0
 16131 04a2 58       		.uleb128 0x58
 16132 04a3 2E       		.uleb128 0x2e
 16133 04a4 01       		.byte	0x1
 16134 04a5 3F       		.uleb128 0x3f
 16135 04a6 19       		.uleb128 0x19
 16136 04a7 03       		.uleb128 0x3
 16137 04a8 0E       		.uleb128 0xe
 16138 04a9 3A       		.uleb128 0x3a
 16139 04aa 0B       		.uleb128 0xb
 16140 04ab 3B       		.uleb128 0x3b
 16141 04ac 0B       		.uleb128 0xb
 16142 04ad 27       		.uleb128 0x27
 16143 04ae 19       		.uleb128 0x19
 16144 04af 20       		.uleb128 0x20
 16145 04b0 0B       		.uleb128 0xb
 16146 04b1 01       		.uleb128 0x1
 16147 04b2 13       		.uleb128 0x13
 16148 04b3 00       		.byte	0
 16149 04b4 00       		.byte	0
ARM GAS  /var/folders/qd/4mxf5pkd0zdf0b9dd1hp39180000gn/T//ccn3RVaQ.s 			page 285


 16150 04b5 59       		.uleb128 0x59
 16151 04b6 05       		.uleb128 0x5
 16152 04b7 00       		.byte	0
 16153 04b8 03       		.uleb128 0x3
 16154 04b9 0E       		.uleb128 0xe
 16155 04ba 3A       		.uleb128 0x3a
 16156 04bb 0B       		.uleb128 0xb
 16157 04bc 3B       		.uleb128 0x3b
 16158 04bd 0B       		.uleb128 0xb
 16159 04be 49       		.uleb128 0x49
 16160 04bf 13       		.uleb128 0x13
 16161 04c0 00       		.byte	0
 16162 04c1 00       		.byte	0
 16163 04c2 5A       		.uleb128 0x5a
 16164 04c3 2E       		.uleb128 0x2e
 16165 04c4 01       		.byte	0x1
 16166 04c5 03       		.uleb128 0x3
 16167 04c6 0E       		.uleb128 0xe
 16168 04c7 3A       		.uleb128 0x3a
 16169 04c8 0B       		.uleb128 0xb
 16170 04c9 3B       		.uleb128 0x3b
 16171 04ca 0B       		.uleb128 0xb
 16172 04cb 27       		.uleb128 0x27
 16173 04cc 19       		.uleb128 0x19
 16174 04cd 11       		.uleb128 0x11
 16175 04ce 01       		.uleb128 0x1
 16176 04cf 12       		.uleb128 0x12
 16177 04d0 06       		.uleb128 0x6
 16178 04d1 40       		.uleb128 0x40
 16179 04d2 18       		.uleb128 0x18
 16180 04d3 9742     		.uleb128 0x2117
 16181 04d5 19       		.uleb128 0x19
 16182 04d6 01       		.uleb128 0x1
 16183 04d7 13       		.uleb128 0x13
 16184 04d8 00       		.byte	0
 16185 04d9 00       		.byte	0
 16186 04da 5B       		.uleb128 0x5b
 16187 04db 05       		.uleb128 0x5
 16188 04dc 00       		.byte	0
 16189 04dd 03       		.uleb128 0x3
 16190 04de 08       		.uleb128 0x8
 16191 04df 3A       		.uleb128 0x3a
 16192 04e0 0B       		.uleb128 0xb
 16193 04e1 3B       		.uleb128 0x3b
 16194 04e2 0B       		.uleb128 0xb
 16195 04e3 49       		.uleb128 0x49
 16196 04e4 13       		.uleb128 0x13
 16197 04e5 02       		.uleb128 0x2
 16198 04e6 17       		.uleb128 0x17
 16199 04e7 00       		.byte	0
 16200 04e8 00       		.byte	0
 16201 04e9 5C       		.uleb128 0x5c
 16202 04ea 34       		.uleb128 0x34
 16203 04eb 00       		.byte	0
 16204 04ec 03       		.uleb128 0x3
 16205 04ed 08       		.uleb128 0x8
 16206 04ee 3A       		.uleb128 0x3a
ARM GAS  /var/folders/qd/4mxf5pkd0zdf0b9dd1hp39180000gn/T//ccn3RVaQ.s 			page 286


 16207 04ef 0B       		.uleb128 0xb
 16208 04f0 3B       		.uleb128 0x3b
 16209 04f1 0B       		.uleb128 0xb
 16210 04f2 49       		.uleb128 0x49
 16211 04f3 13       		.uleb128 0x13
 16212 04f4 02       		.uleb128 0x2
 16213 04f5 17       		.uleb128 0x17
 16214 04f6 00       		.byte	0
 16215 04f7 00       		.byte	0
 16216 04f8 5D       		.uleb128 0x5d
 16217 04f9 34       		.uleb128 0x34
 16218 04fa 00       		.byte	0
 16219 04fb 03       		.uleb128 0x3
 16220 04fc 0E       		.uleb128 0xe
 16221 04fd 3A       		.uleb128 0x3a
 16222 04fe 0B       		.uleb128 0xb
 16223 04ff 3B       		.uleb128 0x3b
 16224 0500 0B       		.uleb128 0xb
 16225 0501 49       		.uleb128 0x49
 16226 0502 13       		.uleb128 0x13
 16227 0503 02       		.uleb128 0x2
 16228 0504 17       		.uleb128 0x17
 16229 0505 00       		.byte	0
 16230 0506 00       		.byte	0
 16231 0507 5E       		.uleb128 0x5e
 16232 0508 0B       		.uleb128 0xb
 16233 0509 01       		.byte	0x1
 16234 050a 11       		.uleb128 0x11
 16235 050b 01       		.uleb128 0x1
 16236 050c 12       		.uleb128 0x12
 16237 050d 06       		.uleb128 0x6
 16238 050e 01       		.uleb128 0x1
 16239 050f 13       		.uleb128 0x13
 16240 0510 00       		.byte	0
 16241 0511 00       		.byte	0
 16242 0512 5F       		.uleb128 0x5f
 16243 0513 1D       		.uleb128 0x1d
 16244 0514 01       		.byte	0x1
 16245 0515 31       		.uleb128 0x31
 16246 0516 13       		.uleb128 0x13
 16247 0517 11       		.uleb128 0x11
 16248 0518 01       		.uleb128 0x1
 16249 0519 12       		.uleb128 0x12
 16250 051a 06       		.uleb128 0x6
 16251 051b 58       		.uleb128 0x58
 16252 051c 0B       		.uleb128 0xb
 16253 051d 59       		.uleb128 0x59
 16254 051e 0B       		.uleb128 0xb
 16255 051f 01       		.uleb128 0x1
 16256 0520 13       		.uleb128 0x13
 16257 0521 00       		.byte	0
 16258 0522 00       		.byte	0
 16259 0523 60       		.uleb128 0x60
 16260 0524 1D       		.uleb128 0x1d
 16261 0525 00       		.byte	0
 16262 0526 31       		.uleb128 0x31
 16263 0527 13       		.uleb128 0x13
ARM GAS  /var/folders/qd/4mxf5pkd0zdf0b9dd1hp39180000gn/T//ccn3RVaQ.s 			page 287


 16264 0528 11       		.uleb128 0x11
 16265 0529 01       		.uleb128 0x1
 16266 052a 12       		.uleb128 0x12
 16267 052b 06       		.uleb128 0x6
 16268 052c 58       		.uleb128 0x58
 16269 052d 0B       		.uleb128 0xb
 16270 052e 59       		.uleb128 0x59
 16271 052f 0B       		.uleb128 0xb
 16272 0530 00       		.byte	0
 16273 0531 00       		.byte	0
 16274 0532 61       		.uleb128 0x61
 16275 0533 2E       		.uleb128 0x2e
 16276 0534 01       		.byte	0x1
 16277 0535 03       		.uleb128 0x3
 16278 0536 0E       		.uleb128 0xe
 16279 0537 3A       		.uleb128 0x3a
 16280 0538 0B       		.uleb128 0xb
 16281 0539 3B       		.uleb128 0x3b
 16282 053a 0B       		.uleb128 0xb
 16283 053b 27       		.uleb128 0x27
 16284 053c 19       		.uleb128 0x19
 16285 053d 49       		.uleb128 0x49
 16286 053e 13       		.uleb128 0x13
 16287 053f 20       		.uleb128 0x20
 16288 0540 0B       		.uleb128 0xb
 16289 0541 01       		.uleb128 0x1
 16290 0542 13       		.uleb128 0x13
 16291 0543 00       		.byte	0
 16292 0544 00       		.byte	0
 16293 0545 62       		.uleb128 0x62
 16294 0546 05       		.uleb128 0x5
 16295 0547 00       		.byte	0
 16296 0548 03       		.uleb128 0x3
 16297 0549 08       		.uleb128 0x8
 16298 054a 3A       		.uleb128 0x3a
 16299 054b 0B       		.uleb128 0xb
 16300 054c 3B       		.uleb128 0x3b
 16301 054d 0B       		.uleb128 0xb
 16302 054e 49       		.uleb128 0x49
 16303 054f 13       		.uleb128 0x13
 16304 0550 00       		.byte	0
 16305 0551 00       		.byte	0
 16306 0552 63       		.uleb128 0x63
 16307 0553 2E       		.uleb128 0x2e
 16308 0554 01       		.byte	0x1
 16309 0555 03       		.uleb128 0x3
 16310 0556 0E       		.uleb128 0xe
 16311 0557 3A       		.uleb128 0x3a
 16312 0558 0B       		.uleb128 0xb
 16313 0559 3B       		.uleb128 0x3b
 16314 055a 05       		.uleb128 0x5
 16315 055b 27       		.uleb128 0x27
 16316 055c 19       		.uleb128 0x19
 16317 055d 20       		.uleb128 0x20
 16318 055e 0B       		.uleb128 0xb
 16319 055f 01       		.uleb128 0x1
 16320 0560 13       		.uleb128 0x13
ARM GAS  /var/folders/qd/4mxf5pkd0zdf0b9dd1hp39180000gn/T//ccn3RVaQ.s 			page 288


 16321 0561 00       		.byte	0
 16322 0562 00       		.byte	0
 16323 0563 64       		.uleb128 0x64
 16324 0564 05       		.uleb128 0x5
 16325 0565 00       		.byte	0
 16326 0566 03       		.uleb128 0x3
 16327 0567 08       		.uleb128 0x8
 16328 0568 3A       		.uleb128 0x3a
 16329 0569 0B       		.uleb128 0xb
 16330 056a 3B       		.uleb128 0x3b
 16331 056b 05       		.uleb128 0x5
 16332 056c 49       		.uleb128 0x49
 16333 056d 13       		.uleb128 0x13
 16334 056e 00       		.byte	0
 16335 056f 00       		.byte	0
 16336 0570 65       		.uleb128 0x65
 16337 0571 2E       		.uleb128 0x2e
 16338 0572 00       		.byte	0
 16339 0573 03       		.uleb128 0x3
 16340 0574 0E       		.uleb128 0xe
 16341 0575 3A       		.uleb128 0x3a
 16342 0576 0B       		.uleb128 0xb
 16343 0577 3B       		.uleb128 0x3b
 16344 0578 0B       		.uleb128 0xb
 16345 0579 27       		.uleb128 0x27
 16346 057a 19       		.uleb128 0x19
 16347 057b 49       		.uleb128 0x49
 16348 057c 13       		.uleb128 0x13
 16349 057d 20       		.uleb128 0x20
 16350 057e 0B       		.uleb128 0xb
 16351 057f 00       		.byte	0
 16352 0580 00       		.byte	0
 16353 0581 66       		.uleb128 0x66
 16354 0582 34       		.uleb128 0x34
 16355 0583 00       		.byte	0
 16356 0584 03       		.uleb128 0x3
 16357 0585 0E       		.uleb128 0xe
 16358 0586 49       		.uleb128 0x49
 16359 0587 13       		.uleb128 0x13
 16360 0588 34       		.uleb128 0x34
 16361 0589 19       		.uleb128 0x19
 16362 058a 1C       		.uleb128 0x1c
 16363 058b 0E       		.uleb128 0xe
 16364 058c 00       		.byte	0
 16365 058d 00       		.byte	0
 16366 058e 67       		.uleb128 0x67
 16367 058f 2E       		.uleb128 0x2e
 16368 0590 00       		.byte	0
 16369 0591 03       		.uleb128 0x3
 16370 0592 0E       		.uleb128 0xe
 16371 0593 3A       		.uleb128 0x3a
 16372 0594 0B       		.uleb128 0xb
 16373 0595 3B       		.uleb128 0x3b
 16374 0596 05       		.uleb128 0x5
 16375 0597 27       		.uleb128 0x27
 16376 0598 19       		.uleb128 0x19
 16377 0599 20       		.uleb128 0x20
ARM GAS  /var/folders/qd/4mxf5pkd0zdf0b9dd1hp39180000gn/T//ccn3RVaQ.s 			page 289


 16378 059a 0B       		.uleb128 0xb
 16379 059b 00       		.byte	0
 16380 059c 00       		.byte	0
 16381 059d 68       		.uleb128 0x68
 16382 059e 2E       		.uleb128 0x2e
 16383 059f 01       		.byte	0x1
 16384 05a0 31       		.uleb128 0x31
 16385 05a1 13       		.uleb128 0x13
 16386 05a2 11       		.uleb128 0x11
 16387 05a3 01       		.uleb128 0x1
 16388 05a4 12       		.uleb128 0x12
 16389 05a5 06       		.uleb128 0x6
 16390 05a6 40       		.uleb128 0x40
 16391 05a7 18       		.uleb128 0x18
 16392 05a8 9742     		.uleb128 0x2117
 16393 05aa 19       		.uleb128 0x19
 16394 05ab 01       		.uleb128 0x1
 16395 05ac 13       		.uleb128 0x13
 16396 05ad 00       		.byte	0
 16397 05ae 00       		.byte	0
 16398 05af 69       		.uleb128 0x69
 16399 05b0 2E       		.uleb128 0x2e
 16400 05b1 01       		.byte	0x1
 16401 05b2 31       		.uleb128 0x31
 16402 05b3 13       		.uleb128 0x13
 16403 05b4 11       		.uleb128 0x11
 16404 05b5 01       		.uleb128 0x1
 16405 05b6 12       		.uleb128 0x12
 16406 05b7 06       		.uleb128 0x6
 16407 05b8 40       		.uleb128 0x40
 16408 05b9 18       		.uleb128 0x18
 16409 05ba 9642     		.uleb128 0x2116
 16410 05bc 19       		.uleb128 0x19
 16411 05bd 01       		.uleb128 0x1
 16412 05be 13       		.uleb128 0x13
 16413 05bf 00       		.byte	0
 16414 05c0 00       		.byte	0
 16415 05c1 6A       		.uleb128 0x6a
 16416 05c2 34       		.uleb128 0x34
 16417 05c3 00       		.byte	0
 16418 05c4 31       		.uleb128 0x31
 16419 05c5 13       		.uleb128 0x13
 16420 05c6 02       		.uleb128 0x2
 16421 05c7 18       		.uleb128 0x18
 16422 05c8 00       		.byte	0
 16423 05c9 00       		.byte	0
 16424 05ca 6B       		.uleb128 0x6b
 16425 05cb 2E       		.uleb128 0x2e
 16426 05cc 00       		.byte	0
 16427 05cd 3F       		.uleb128 0x3f
 16428 05ce 19       		.uleb128 0x19
 16429 05cf 3C       		.uleb128 0x3c
 16430 05d0 19       		.uleb128 0x19
 16431 05d1 6E       		.uleb128 0x6e
 16432 05d2 0E       		.uleb128 0xe
 16433 05d3 03       		.uleb128 0x3
 16434 05d4 0E       		.uleb128 0xe
ARM GAS  /var/folders/qd/4mxf5pkd0zdf0b9dd1hp39180000gn/T//ccn3RVaQ.s 			page 290


 16435 05d5 00       		.byte	0
 16436 05d6 00       		.byte	0
 16437 05d7 6C       		.uleb128 0x6c
 16438 05d8 2E       		.uleb128 0x2e
 16439 05d9 00       		.byte	0
 16440 05da 3F       		.uleb128 0x3f
 16441 05db 19       		.uleb128 0x19
 16442 05dc 3C       		.uleb128 0x3c
 16443 05dd 19       		.uleb128 0x19
 16444 05de 6E       		.uleb128 0x6e
 16445 05df 0E       		.uleb128 0xe
 16446 05e0 03       		.uleb128 0x3
 16447 05e1 0E       		.uleb128 0xe
 16448 05e2 3A       		.uleb128 0x3a
 16449 05e3 0B       		.uleb128 0xb
 16450 05e4 3B       		.uleb128 0x3b
 16451 05e5 0B       		.uleb128 0xb
 16452 05e6 00       		.byte	0
 16453 05e7 00       		.byte	0
 16454 05e8 6D       		.uleb128 0x6d
 16455 05e9 2E       		.uleb128 0x2e
 16456 05ea 00       		.byte	0
 16457 05eb 3F       		.uleb128 0x3f
 16458 05ec 19       		.uleb128 0x19
 16459 05ed 3C       		.uleb128 0x3c
 16460 05ee 19       		.uleb128 0x19
 16461 05ef 6E       		.uleb128 0x6e
 16462 05f0 0E       		.uleb128 0xe
 16463 05f1 03       		.uleb128 0x3
 16464 05f2 0E       		.uleb128 0xe
 16465 05f3 3A       		.uleb128 0x3a
 16466 05f4 0B       		.uleb128 0xb
 16467 05f5 3B       		.uleb128 0x3b
 16468 05f6 05       		.uleb128 0x5
 16469 05f7 00       		.byte	0
 16470 05f8 00       		.byte	0
 16471 05f9 00       		.byte	0
 16472              		.section	.debug_loc,"",%progbits
 16473              	.Ldebug_loc0:
 16474              	.LLST66:
 16475 0000 00000000 		.4byte	.LVL278
 16476 0004 06000000 		.4byte	.LVL279
 16477 0008 0100     		.2byte	0x1
 16478 000a 50       		.byte	0x50
 16479 000b 06000000 		.4byte	.LVL279
 16480 000f 88000000 		.4byte	.LFE279
 16481 0013 0400     		.2byte	0x4
 16482 0015 F3       		.byte	0xf3
 16483 0016 01       		.uleb128 0x1
 16484 0017 50       		.byte	0x50
 16485 0018 9F       		.byte	0x9f
 16486 0019 00000000 		.4byte	0
 16487 001d 00000000 		.4byte	0
 16488              	.LLST67:
 16489 0021 16000000 		.4byte	.LVL281
 16490 0025 54000000 		.4byte	.LVL291
 16491 0029 0600     		.2byte	0x6
ARM GAS  /var/folders/qd/4mxf5pkd0zdf0b9dd1hp39180000gn/T//ccn3RVaQ.s 			page 291


 16492 002b 03       		.byte	0x3
 16493 002c 00000000 		.4byte	wipEndSignal_sem
 16494 0030 9F       		.byte	0x9f
 16495 0031 60000000 		.4byte	.LVL292
 16496 0035 6E000000 		.4byte	.LVL296
 16497 0039 0600     		.2byte	0x6
 16498 003b 03       		.byte	0x3
 16499 003c 00000000 		.4byte	wipEndSignal_sem
 16500 0040 9F       		.byte	0x9f
 16501 0041 00000000 		.4byte	0
 16502 0045 00000000 		.4byte	0
 16503              	.LLST68:
 16504 0049 16000000 		.4byte	.LVL281
 16505 004d 1C000000 		.4byte	.LVL282
 16506 0051 0300     		.2byte	0x3
 16507 0053 08       		.byte	0x8
 16508 0054 20       		.byte	0x20
 16509 0055 9F       		.byte	0x9f
 16510 0056 00000000 		.4byte	0
 16511 005a 00000000 		.4byte	0
 16512              	.LLST69:
 16513 005e 24000000 		.4byte	.LVL284
 16514 0062 30000000 		.4byte	.LVL286
 16515 0066 0600     		.2byte	0x6
 16516 0068 03       		.byte	0x3
 16517 0069 00000000 		.4byte	wipEndSignal_sem
 16518 006d 9F       		.byte	0x9f
 16519 006e 68000000 		.4byte	.LVL294
 16520 0072 6E000000 		.4byte	.LVL296
 16521 0076 0600     		.2byte	0x6
 16522 0078 03       		.byte	0x3
 16523 0079 00000000 		.4byte	wipEndSignal_sem
 16524 007d 9F       		.byte	0x9f
 16525 007e 00000000 		.4byte	0
 16526 0082 00000000 		.4byte	0
 16527              	.LLST70:
 16528 0086 4E000000 		.4byte	.LVL290
 16529 008a 54000000 		.4byte	.LVL291
 16530 008e 0200     		.2byte	0x2
 16531 0090 30       		.byte	0x30
 16532 0091 9F       		.byte	0x9f
 16533 0092 00000000 		.4byte	0
 16534 0096 00000000 		.4byte	0
 16535              	.LLST45:
 16536 009a 00000000 		.4byte	.LVL192
 16537 009e 10000000 		.4byte	.LVL193
 16538 00a2 0100     		.2byte	0x1
 16539 00a4 50       		.byte	0x50
 16540 00a5 10000000 		.4byte	.LVL193
 16541 00a9 CC000000 		.4byte	.LFE278
 16542 00ad 0400     		.2byte	0x4
 16543 00af F3       		.byte	0xf3
 16544 00b0 01       		.uleb128 0x1
 16545 00b1 50       		.byte	0x50
 16546 00b2 9F       		.byte	0x9f
 16547 00b3 00000000 		.4byte	0
 16548 00b7 00000000 		.4byte	0
ARM GAS  /var/folders/qd/4mxf5pkd0zdf0b9dd1hp39180000gn/T//ccn3RVaQ.s 			page 292


 16549              	.LLST46:
 16550 00bb 28000000 		.4byte	.LVL197
 16551 00bf 2C000000 		.4byte	.LVL198
 16552 00c3 0100     		.2byte	0x1
 16553 00c5 50       		.byte	0x50
 16554 00c6 2C000000 		.4byte	.LVL198
 16555 00ca 48000000 		.4byte	.LVL202
 16556 00ce 0100     		.2byte	0x1
 16557 00d0 54       		.byte	0x54
 16558 00d1 48000000 		.4byte	.LVL202
 16559 00d5 CC000000 		.4byte	.LFE278
 16560 00d9 0200     		.2byte	0x2
 16561 00db 30       		.byte	0x30
 16562 00dc 9F       		.byte	0x9f
 16563 00dd 00000000 		.4byte	0
 16564 00e1 00000000 		.4byte	0
 16565              	.LLST47:
 16566 00e5 12000000 		.4byte	.LVL194
 16567 00e9 1C000000 		.4byte	.LVL195
 16568 00ed 0600     		.2byte	0x6
 16569 00ef 9E       		.byte	0x9e
 16570 00f0 04       		.uleb128 0x4
 16571 00f1 5077563E 		.4byte	0x3e567750
 16572 00f5 00000000 		.4byte	0
 16573 00f9 00000000 		.4byte	0
 16574              	.LLST48:
 16575 00fd 4E000000 		.4byte	.LVL203
 16576 0101 50000000 		.4byte	.LVL204
 16577 0105 0300     		.2byte	0x3
 16578 0107 91       		.byte	0x91
 16579 0108 54       		.sleb128 -44
 16580 0109 9F       		.byte	0x9f
 16581 010a 50000000 		.4byte	.LVL204
 16582 010e 55000000 		.4byte	.LVL205-1
 16583 0112 0100     		.2byte	0x1
 16584 0114 51       		.byte	0x51
 16585 0115 55000000 		.4byte	.LVL205-1
 16586 0119 5C000000 		.4byte	.LVL206
 16587 011d 0300     		.2byte	0x3
 16588 011f 91       		.byte	0x91
 16589 0120 54       		.sleb128 -44
 16590 0121 9F       		.byte	0x9f
 16591 0122 00000000 		.4byte	0
 16592 0126 00000000 		.4byte	0
 16593              	.LLST49:
 16594 012a 5C000000 		.4byte	.LVL206
 16595 012e 9A000000 		.4byte	.LVL216
 16596 0132 0600     		.2byte	0x6
 16597 0134 03       		.byte	0x3
 16598 0135 00000000 		.4byte	wipEndSignal_sem
 16599 0139 9F       		.byte	0x9f
 16600 013a A6000000 		.4byte	.LVL217
 16601 013e B4000000 		.4byte	.LVL221
 16602 0142 0600     		.2byte	0x6
 16603 0144 03       		.byte	0x3
 16604 0145 00000000 		.4byte	wipEndSignal_sem
 16605 0149 9F       		.byte	0x9f
ARM GAS  /var/folders/qd/4mxf5pkd0zdf0b9dd1hp39180000gn/T//ccn3RVaQ.s 			page 293


 16606 014a 00000000 		.4byte	0
 16607 014e 00000000 		.4byte	0
 16608              	.LLST50:
 16609 0152 5C000000 		.4byte	.LVL206
 16610 0156 62000000 		.4byte	.LVL207
 16611 015a 0300     		.2byte	0x3
 16612 015c 08       		.byte	0x8
 16613 015d 20       		.byte	0x20
 16614 015e 9F       		.byte	0x9f
 16615 015f 00000000 		.4byte	0
 16616 0163 00000000 		.4byte	0
 16617              	.LLST51:
 16618 0167 6A000000 		.4byte	.LVL209
 16619 016b 76000000 		.4byte	.LVL211
 16620 016f 0600     		.2byte	0x6
 16621 0171 03       		.byte	0x3
 16622 0172 00000000 		.4byte	wipEndSignal_sem
 16623 0176 9F       		.byte	0x9f
 16624 0177 AE000000 		.4byte	.LVL219
 16625 017b B4000000 		.4byte	.LVL221
 16626 017f 0600     		.2byte	0x6
 16627 0181 03       		.byte	0x3
 16628 0182 00000000 		.4byte	wipEndSignal_sem
 16629 0186 9F       		.byte	0x9f
 16630 0187 00000000 		.4byte	0
 16631 018b 00000000 		.4byte	0
 16632              	.LLST52:
 16633 018f 94000000 		.4byte	.LVL215
 16634 0193 9A000000 		.4byte	.LVL216
 16635 0197 0200     		.2byte	0x2
 16636 0199 30       		.byte	0x30
 16637 019a 9F       		.byte	0x9f
 16638 019b 00000000 		.4byte	0
 16639 019f 00000000 		.4byte	0
 16640              	.LLST59:
 16641 01a3 38000000 		.4byte	.LVL250
 16642 01a7 54010000 		.4byte	.LVL274
 16643 01ab 0200     		.2byte	0x2
 16644 01ad 90       		.byte	0x90
 16645 01ae 54       		.uleb128 0x54
 16646 01af 54010000 		.4byte	.LVL274
 16647 01b3 58010000 		.4byte	.LVL275
 16648 01b7 0300     		.2byte	0x3
 16649 01b9 91       		.byte	0x91
 16650 01ba F07D     		.sleb128 -272
 16651 01bc 58010000 		.4byte	.LVL275
 16652 01c0 94010000 		.4byte	.LFE277
 16653 01c4 0200     		.2byte	0x2
 16654 01c6 90       		.byte	0x90
 16655 01c7 54       		.uleb128 0x54
 16656 01c8 00000000 		.4byte	0
 16657 01cc 00000000 		.4byte	0
 16658              	.LLST60:
 16659 01d0 38000000 		.4byte	.LVL250
 16660 01d4 3A000000 		.4byte	.LVL251
 16661 01d8 0200     		.2byte	0x2
 16662 01da 30       		.byte	0x30
ARM GAS  /var/folders/qd/4mxf5pkd0zdf0b9dd1hp39180000gn/T//ccn3RVaQ.s 			page 294


 16663 01db 9F       		.byte	0x9f
 16664 01dc 3A000000 		.4byte	.LVL251
 16665 01e0 50000000 		.4byte	.LVL253
 16666 01e4 0100     		.2byte	0x1
 16667 01e6 57       		.byte	0x57
 16668 01e7 68000000 		.4byte	.LVL257
 16669 01eb 94010000 		.4byte	.LFE277
 16670 01ef 0100     		.2byte	0x1
 16671 01f1 57       		.byte	0x57
 16672 01f2 00000000 		.4byte	0
 16673 01f6 00000000 		.4byte	0
 16674              	.LLST62:
 16675 01fa 7E000000 		.4byte	.LVL259
 16676 01fe 82000000 		.4byte	.LVL260
 16677 0202 0200     		.2byte	0x2
 16678 0204 30       		.byte	0x30
 16679 0205 9F       		.byte	0x9f
 16680 0206 00000000 		.4byte	0
 16681 020a 00000000 		.4byte	0
 16682              	.LLST63:
 16683 020e 8E000000 		.4byte	.LVL262
 16684 0212 9E000000 		.4byte	.LVL263
 16685 0216 0600     		.2byte	0x6
 16686 0218 9E       		.byte	0x9e
 16687 0219 04       		.uleb128 0x4
 16688 021a 7CD9203D 		.4byte	0x3d20d97c
 16689 021e 00000000 		.4byte	0
 16690 0222 00000000 		.4byte	0
 16691              	.LLST61:
 16692 0226 6E000000 		.4byte	.LVL258
 16693 022a 7E000000 		.4byte	.LVL259
 16694 022e 0600     		.2byte	0x6
 16695 0230 9E       		.byte	0x9e
 16696 0231 04       		.uleb128 0x4
 16697 0232 DB0F49BE 		.4byte	0xbe490fdb
 16698 0236 00000000 		.4byte	0
 16699 023a 00000000 		.4byte	0
 16700              	.LLST64:
 16701 023e 3A000000 		.4byte	.LVL251
 16702 0242 4C000000 		.4byte	.LVL252
 16703 0246 0600     		.2byte	0x6
 16704 0248 9E       		.byte	0x9e
 16705 0249 04       		.uleb128 0x4
 16706 024a FDAD003E 		.4byte	0x3e00adfd
 16707 024e 00000000 		.4byte	0
 16708 0252 00000000 		.4byte	0
 16709              	.LLST65:
 16710 0256 58010000 		.4byte	.LVL275
 16711 025a 68010000 		.4byte	.LVL276
 16712 025e 0600     		.2byte	0x6
 16713 0260 9E       		.byte	0x9e
 16714 0261 04       		.uleb128 0x4
 16715 0262 FDAD003E 		.4byte	0x3e00adfd
 16716 0266 00000000 		.4byte	0
 16717 026a 00000000 		.4byte	0
 16718              	.LLST53:
 16719 026e 1E000000 		.4byte	.LVL224
ARM GAS  /var/folders/qd/4mxf5pkd0zdf0b9dd1hp39180000gn/T//ccn3RVaQ.s 			page 295


 16720 0272 28000000 		.4byte	.LVL225
 16721 0276 0100     		.2byte	0x1
 16722 0278 50       		.byte	0x50
 16723 0279 28000000 		.4byte	.LVL225
 16724 027d 7C000000 		.4byte	.LVL234
 16725 0281 0100     		.2byte	0x1
 16726 0283 59       		.byte	0x59
 16727 0284 00000000 		.4byte	0
 16728 0288 00000000 		.4byte	0
 16729              	.LLST54:
 16730 028c 2E000000 		.4byte	.LVL226
 16731 0290 34000000 		.4byte	.LVL227
 16732 0294 0200     		.2byte	0x2
 16733 0296 30       		.byte	0x30
 16734 0297 9F       		.byte	0x9f
 16735 0298 00000000 		.4byte	0
 16736 029c 00000000 		.4byte	0
 16737              	.LLST55:
 16738 02a0 40000000 		.4byte	.LVL229
 16739 02a4 50000000 		.4byte	.LVL230
 16740 02a8 0600     		.2byte	0x6
 16741 02aa 9E       		.byte	0x9e
 16742 02ab 04       		.uleb128 0x4
 16743 02ac 7CD9203D 		.4byte	0x3d20d97c
 16744 02b0 00000000 		.4byte	0
 16745 02b4 00000000 		.4byte	0
 16746              	.LLST58:
 16747 02b8 70000000 		.4byte	.LVL233
 16748 02bc 84000000 		.4byte	.LVL235
 16749 02c0 0200     		.2byte	0x2
 16750 02c2 30       		.byte	0x30
 16751 02c3 9F       		.byte	0x9f
 16752 02c4 84000000 		.4byte	.LVL235
 16753 02c8 86000000 		.4byte	.LVL236
 16754 02cc 0100     		.2byte	0x1
 16755 02ce 54       		.byte	0x54
 16756 02cf 86000000 		.4byte	.LVL236
 16757 02d3 F8000000 		.4byte	.LVL246
 16758 02d7 0300     		.2byte	0x3
 16759 02d9 74       		.byte	0x74
 16760 02da 7F       		.sleb128 -1
 16761 02db 9F       		.byte	0x9f
 16762 02dc F8000000 		.4byte	.LVL246
 16763 02e0 00010000 		.4byte	.LVL247
 16764 02e4 0100     		.2byte	0x1
 16765 02e6 54       		.byte	0x54
 16766 02e7 00000000 		.4byte	0
 16767 02eb 00000000 		.4byte	0
 16768              	.LLST56:
 16769 02ef 1E000000 		.4byte	.LVL224
 16770 02f3 2E000000 		.4byte	.LVL226
 16771 02f7 0600     		.2byte	0x6
 16772 02f9 9E       		.byte	0x9e
 16773 02fa 04       		.uleb128 0x4
 16774 02fb DB0FC9BE 		.4byte	0xbec90fdb
 16775 02ff 00000000 		.4byte	0
 16776 0303 00000000 		.4byte	0
ARM GAS  /var/folders/qd/4mxf5pkd0zdf0b9dd1hp39180000gn/T//ccn3RVaQ.s 			page 296


 16777              	.LLST57:
 16778 0307 54000000 		.4byte	.LVL231
 16779 030b 68000000 		.4byte	.LVL232
 16780 030f 0600     		.2byte	0x6
 16781 0311 9E       		.byte	0x9e
 16782 0312 04       		.uleb128 0x4
 16783 0313 DB0FC93E 		.4byte	0x3ec90fdb
 16784 0317 00000000 		.4byte	0
 16785 031b 00000000 		.4byte	0
 16786              	.LLST41:
 16787 031f 00000000 		.4byte	.LVL181
 16788 0323 0E000000 		.4byte	.LVL182
 16789 0327 0100     		.2byte	0x1
 16790 0329 50       		.byte	0x50
 16791 032a 0E000000 		.4byte	.LVL182
 16792 032e 2A000000 		.4byte	.LVL184
 16793 0332 0100     		.2byte	0x1
 16794 0334 54       		.byte	0x54
 16795 0335 2A000000 		.4byte	.LVL184
 16796 0339 6C000000 		.4byte	.LFE275
 16797 033d 0400     		.2byte	0x4
 16798 033f F3       		.byte	0xf3
 16799 0340 01       		.uleb128 0x1
 16800 0341 50       		.byte	0x50
 16801 0342 9F       		.byte	0x9f
 16802 0343 00000000 		.4byte	0
 16803 0347 00000000 		.4byte	0
 16804              	.LLST42:
 16805 034b 00000000 		.4byte	.LVL181
 16806 034f 1D000000 		.4byte	.LVL183-1
 16807 0353 0100     		.2byte	0x1
 16808 0355 51       		.byte	0x51
 16809 0356 1D000000 		.4byte	.LVL183-1
 16810 035a 6C000000 		.4byte	.LFE275
 16811 035e 0100     		.2byte	0x1
 16812 0360 56       		.byte	0x56
 16813 0361 00000000 		.4byte	0
 16814 0365 00000000 		.4byte	0
 16815              	.LLST43:
 16816 0369 1E000000 		.4byte	.LVL183
 16817 036d 2A000000 		.4byte	.LVL184
 16818 0371 0200     		.2byte	0x2
 16819 0373 30       		.byte	0x30
 16820 0374 9F       		.byte	0x9f
 16821 0375 2A000000 		.4byte	.LVL184
 16822 0379 38000000 		.4byte	.LVL187
 16823 037d 0100     		.2byte	0x1
 16824 037f 55       		.byte	0x55
 16825 0380 38000000 		.4byte	.LVL187
 16826 0384 48000000 		.4byte	.LVL188
 16827 0388 0300     		.2byte	0x3
 16828 038a 75       		.byte	0x75
 16829 038b 7F       		.sleb128 -1
 16830 038c 9F       		.byte	0x9f
 16831 038d 48000000 		.4byte	.LVL188
 16832 0391 50000000 		.4byte	.LVL189
 16833 0395 0100     		.2byte	0x1
ARM GAS  /var/folders/qd/4mxf5pkd0zdf0b9dd1hp39180000gn/T//ccn3RVaQ.s 			page 297


 16834 0397 55       		.byte	0x55
 16835 0398 00000000 		.4byte	0
 16836 039c 00000000 		.4byte	0
 16837              	.LLST44:
 16838 03a0 36000000 		.4byte	.LVL186
 16839 03a4 48000000 		.4byte	.LVL188
 16840 03a8 0600     		.2byte	0x6
 16841 03aa 9E       		.byte	0x9e
 16842 03ab 04       		.uleb128 0x4
 16843 03ac 5077563E 		.4byte	0x3e567750
 16844 03b0 00000000 		.4byte	0
 16845 03b4 00000000 		.4byte	0
 16846              	.LLST39:
 16847 03b8 00000000 		.4byte	.LVL174
 16848 03bc 0F000000 		.4byte	.LVL175-1
 16849 03c0 0100     		.2byte	0x1
 16850 03c2 50       		.byte	0x50
 16851 03c3 0F000000 		.4byte	.LVL175-1
 16852 03c7 38000000 		.4byte	.LFE274
 16853 03cb 0100     		.2byte	0x1
 16854 03cd 54       		.byte	0x54
 16855 03ce 00000000 		.4byte	0
 16856 03d2 00000000 		.4byte	0
 16857              	.LLST40:
 16858 03d6 14000000 		.4byte	.LVL176
 16859 03da 16000000 		.4byte	.LVL177
 16860 03de 0100     		.2byte	0x1
 16861 03e0 50       		.byte	0x50
 16862 03e1 16000000 		.4byte	.LVL177
 16863 03e5 38000000 		.4byte	.LFE274
 16864 03e9 0100     		.2byte	0x1
 16865 03eb 57       		.byte	0x57
 16866 03ec 00000000 		.4byte	0
 16867 03f0 00000000 		.4byte	0
 16868              	.LLST29:
 16869 03f4 00000000 		.4byte	.LVL128
 16870 03f8 0D000000 		.4byte	.LVL129-1
 16871 03fc 0200     		.2byte	0x2
 16872 03fe 90       		.byte	0x90
 16873 03ff 40       		.uleb128 0x40
 16874 0400 0D000000 		.4byte	.LVL129-1
 16875 0404 28000000 		.4byte	.LFE269
 16876 0408 0600     		.2byte	0x6
 16877 040a F3       		.byte	0xf3
 16878 040b 03       		.uleb128 0x3
 16879 040c F5       		.byte	0xf5
 16880 040d 40       		.uleb128 0x40
 16881 040e 33       		.uleb128 0x33
 16882 040f 9F       		.byte	0x9f
 16883 0410 00000000 		.4byte	0
 16884 0414 00000000 		.4byte	0
 16885              	.LLST25:
 16886 0418 00000000 		.4byte	.LVL100
 16887 041c 19000000 		.4byte	.LVL101-1
 16888 0420 0200     		.2byte	0x2
 16889 0422 90       		.byte	0x90
 16890 0423 40       		.uleb128 0x40
ARM GAS  /var/folders/qd/4mxf5pkd0zdf0b9dd1hp39180000gn/T//ccn3RVaQ.s 			page 298


 16891 0424 19000000 		.4byte	.LVL101-1
 16892 0428 A8000000 		.4byte	.LVL110
 16893 042c 0200     		.2byte	0x2
 16894 042e 90       		.byte	0x90
 16895 042f 50       		.uleb128 0x50
 16896 0430 A8000000 		.4byte	.LVL110
 16897 0434 AA000000 		.4byte	.LVL111
 16898 0438 0600     		.2byte	0x6
 16899 043a F3       		.byte	0xf3
 16900 043b 03       		.uleb128 0x3
 16901 043c F5       		.byte	0xf5
 16902 043d 40       		.uleb128 0x40
 16903 043e 33       		.uleb128 0x33
 16904 043f 9F       		.byte	0x9f
 16905 0440 AA000000 		.4byte	.LVL111
 16906 0444 D0000000 		.4byte	.LFE267
 16907 0448 0200     		.2byte	0x2
 16908 044a 90       		.byte	0x90
 16909 044b 50       		.uleb128 0x50
 16910 044c 00000000 		.4byte	0
 16911 0450 00000000 		.4byte	0
 16912              	.LLST26:
 16913 0454 22000000 		.4byte	.LVL102
 16914 0458 4B000000 		.4byte	.LVL103-1
 16915 045c 0200     		.2byte	0x2
 16916 045e 90       		.byte	0x90
 16917 045f 40       		.uleb128 0x40
 16918 0460 00000000 		.4byte	0
 16919 0464 00000000 		.4byte	0
 16920              	.LLST28:
 16921 0468 00000000 		.4byte	.LVL120
 16922 046c 13000000 		.4byte	.LVL121-1
 16923 0470 0100     		.2byte	0x1
 16924 0472 50       		.byte	0x50
 16925 0473 13000000 		.4byte	.LVL121-1
 16926 0477 70000000 		.4byte	.LFE266
 16927 047b 0100     		.2byte	0x1
 16928 047d 55       		.byte	0x55
 16929 047e 00000000 		.4byte	0
 16930 0482 00000000 		.4byte	0
 16931              	.LLST23:
 16932 0486 00000000 		.4byte	.LVL92
 16933 048a 10000000 		.4byte	.LVL93
 16934 048e 0100     		.2byte	0x1
 16935 0490 50       		.byte	0x50
 16936 0491 10000000 		.4byte	.LVL93
 16937 0495 48000000 		.4byte	.LFE265
 16938 0499 0100     		.2byte	0x1
 16939 049b 55       		.byte	0x55
 16940 049c 00000000 		.4byte	0
 16941 04a0 00000000 		.4byte	0
 16942              	.LLST24:
 16943 04a4 00000000 		.4byte	.LVL92
 16944 04a8 12000000 		.4byte	.LVL94
 16945 04ac 0100     		.2byte	0x1
 16946 04ae 51       		.byte	0x51
 16947 04af 12000000 		.4byte	.LVL94
ARM GAS  /var/folders/qd/4mxf5pkd0zdf0b9dd1hp39180000gn/T//ccn3RVaQ.s 			page 299


 16948 04b3 48000000 		.4byte	.LFE265
 16949 04b7 0100     		.2byte	0x1
 16950 04b9 56       		.byte	0x56
 16951 04ba 00000000 		.4byte	0
 16952 04be 00000000 		.4byte	0
 16953              	.LLST19:
 16954 04c2 00000000 		.4byte	.LVL74
 16955 04c6 10000000 		.4byte	.LVL75
 16956 04ca 0100     		.2byte	0x1
 16957 04cc 50       		.byte	0x50
 16958 04cd 10000000 		.4byte	.LVL75
 16959 04d1 2A000000 		.4byte	.LVL80
 16960 04d5 0100     		.2byte	0x1
 16961 04d7 54       		.byte	0x54
 16962 04d8 2A000000 		.4byte	.LVL80
 16963 04dc A0000000 		.4byte	.LFE264
 16964 04e0 0400     		.2byte	0x4
 16965 04e2 F3       		.byte	0xf3
 16966 04e3 01       		.uleb128 0x1
 16967 04e4 50       		.byte	0x50
 16968 04e5 9F       		.byte	0x9f
 16969 04e6 00000000 		.4byte	0
 16970 04ea 00000000 		.4byte	0
 16971              	.LLST20:
 16972 04ee 00000000 		.4byte	.LVL74
 16973 04f2 12000000 		.4byte	.LVL76
 16974 04f6 0100     		.2byte	0x1
 16975 04f8 51       		.byte	0x51
 16976 04f9 12000000 		.4byte	.LVL76
 16977 04fd 7C000000 		.4byte	.LVL88
 16978 0501 0100     		.2byte	0x1
 16979 0503 57       		.byte	0x57
 16980 0504 7C000000 		.4byte	.LVL88
 16981 0508 80000000 		.4byte	.LVL89
 16982 050c 0400     		.2byte	0x4
 16983 050e F3       		.byte	0xf3
 16984 050f 01       		.uleb128 0x1
 16985 0510 51       		.byte	0x51
 16986 0511 9F       		.byte	0x9f
 16987 0512 80000000 		.4byte	.LVL89
 16988 0516 A0000000 		.4byte	.LFE264
 16989 051a 0100     		.2byte	0x1
 16990 051c 57       		.byte	0x57
 16991 051d 00000000 		.4byte	0
 16992 0521 00000000 		.4byte	0
 16993              	.LLST21:
 16994 0525 22000000 		.4byte	.LVL78
 16995 0529 28000000 		.4byte	.LVL79
 16996 052d 0300     		.2byte	0x3
 16997 052f 08       		.byte	0x8
 16998 0530 20       		.byte	0x20
 16999 0531 9F       		.byte	0x9f
 17000 0532 00000000 		.4byte	0
 17001 0536 00000000 		.4byte	0
 17002              	.LLST22:
 17003 053a 4C000000 		.4byte	.LVL85
 17004 053e 52000000 		.4byte	.LVL86
ARM GAS  /var/folders/qd/4mxf5pkd0zdf0b9dd1hp39180000gn/T//ccn3RVaQ.s 			page 300


 17005 0542 0200     		.2byte	0x2
 17006 0544 30       		.byte	0x30
 17007 0545 9F       		.byte	0x9f
 17008 0546 00000000 		.4byte	0
 17009 054a 00000000 		.4byte	0
 17010              	.LLST17:
 17011 054e 00000000 		.4byte	.LVL68
 17012 0552 0E000000 		.4byte	.LVL69
 17013 0556 0100     		.2byte	0x1
 17014 0558 50       		.byte	0x50
 17015 0559 0E000000 		.4byte	.LVL69
 17016 055d 38000000 		.4byte	.LFE263
 17017 0561 0400     		.2byte	0x4
 17018 0563 F3       		.byte	0xf3
 17019 0564 01       		.uleb128 0x1
 17020 0565 50       		.byte	0x50
 17021 0566 9F       		.byte	0x9f
 17022 0567 00000000 		.4byte	0
 17023 056b 00000000 		.4byte	0
 17024              	.LLST18:
 17025 056f 00000000 		.4byte	.LVL68
 17026 0573 0E000000 		.4byte	.LVL69
 17027 0577 0100     		.2byte	0x1
 17028 0579 51       		.byte	0x51
 17029 057a 0E000000 		.4byte	.LVL69
 17030 057e 38000000 		.4byte	.LFE263
 17031 0582 0100     		.2byte	0x1
 17032 0584 55       		.byte	0x55
 17033 0585 00000000 		.4byte	0
 17034 0589 00000000 		.4byte	0
 17035              	.LLST12:
 17036 058d 00000000 		.4byte	.LVL50
 17037 0591 14000000 		.4byte	.LVL51
 17038 0595 0100     		.2byte	0x1
 17039 0597 50       		.byte	0x50
 17040 0598 14000000 		.4byte	.LVL51
 17041 059c D0000000 		.4byte	.LFE262
 17042 05a0 0400     		.2byte	0x4
 17043 05a2 F3       		.byte	0xf3
 17044 05a3 01       		.uleb128 0x1
 17045 05a4 50       		.byte	0x50
 17046 05a5 9F       		.byte	0x9f
 17047 05a6 00000000 		.4byte	0
 17048 05aa 00000000 		.4byte	0
 17049              	.LLST13:
 17050 05ae 00000000 		.4byte	.LVL50
 17051 05b2 14000000 		.4byte	.LVL51
 17052 05b6 0100     		.2byte	0x1
 17053 05b8 51       		.byte	0x51
 17054 05b9 14000000 		.4byte	.LVL51
 17055 05bd 5E000000 		.4byte	.LVL60
 17056 05c1 0200     		.2byte	0x2
 17057 05c3 90       		.byte	0x90
 17058 05c4 50       		.uleb128 0x50
 17059 05c5 5E000000 		.4byte	.LVL60
 17060 05c9 A8000000 		.4byte	.LVL64
 17061 05cd 0400     		.2byte	0x4
ARM GAS  /var/folders/qd/4mxf5pkd0zdf0b9dd1hp39180000gn/T//ccn3RVaQ.s 			page 301


 17062 05cf F3       		.byte	0xf3
 17063 05d0 01       		.uleb128 0x1
 17064 05d1 51       		.byte	0x51
 17065 05d2 9F       		.byte	0x9f
 17066 05d3 A8000000 		.4byte	.LVL64
 17067 05d7 B0000000 		.4byte	.LVL66
 17068 05db 0200     		.2byte	0x2
 17069 05dd 90       		.byte	0x90
 17070 05de 50       		.uleb128 0x50
 17071 05df B0000000 		.4byte	.LVL66
 17072 05e3 D0000000 		.4byte	.LFE262
 17073 05e7 0400     		.2byte	0x4
 17074 05e9 F3       		.byte	0xf3
 17075 05ea 01       		.uleb128 0x1
 17076 05eb 51       		.byte	0x51
 17077 05ec 9F       		.byte	0x9f
 17078 05ed 00000000 		.4byte	0
 17079 05f1 00000000 		.4byte	0
 17080              	.LLST14:
 17081 05f5 24000000 		.4byte	.LVL52
 17082 05f9 2A000000 		.4byte	.LVL53
 17083 05fd 0300     		.2byte	0x3
 17084 05ff 08       		.byte	0x8
 17085 0600 20       		.byte	0x20
 17086 0601 9F       		.byte	0x9f
 17087 0602 00000000 		.4byte	0
 17088 0606 00000000 		.4byte	0
 17089              	.LLST15:
 17090 060a 4E000000 		.4byte	.LVL58
 17091 060e 54000000 		.4byte	.LVL59
 17092 0612 0200     		.2byte	0x2
 17093 0614 30       		.byte	0x30
 17094 0615 9F       		.byte	0x9f
 17095 0616 00000000 		.4byte	0
 17096 061a 00000000 		.4byte	0
 17097              	.LLST16:
 17098 061e 92000000 		.4byte	.LVL62
 17099 0622 98000000 		.4byte	.LVL63
 17100 0626 0600     		.2byte	0x6
 17101 0628 03       		.byte	0x3
 17102 0629 00000000 		.4byte	wipEndMovingSignal_sem
 17103 062d 9F       		.byte	0x9f
 17104 062e 00000000 		.4byte	0
 17105 0632 00000000 		.4byte	0
 17106              	.LLST0:
 17107 0636 00000000 		.4byte	.LVL0
 17108 063a 1C000000 		.4byte	.LVL1
 17109 063e 0100     		.2byte	0x1
 17110 0640 50       		.byte	0x50
 17111 0641 1C000000 		.4byte	.LVL1
 17112 0645 C4010000 		.4byte	.LFE259
 17113 0649 0400     		.2byte	0x4
 17114 064b F3       		.byte	0xf3
 17115 064c 01       		.uleb128 0x1
 17116 064d 50       		.byte	0x50
 17117 064e 9F       		.byte	0x9f
 17118 064f 00000000 		.4byte	0
ARM GAS  /var/folders/qd/4mxf5pkd0zdf0b9dd1hp39180000gn/T//ccn3RVaQ.s 			page 302


 17119 0653 00000000 		.4byte	0
 17120              	.LLST1:
 17121 0657 1C000000 		.4byte	.LVL1
 17122 065b 25000000 		.4byte	.LVL3-1
 17123 065f 0100     		.2byte	0x1
 17124 0661 50       		.byte	0x50
 17125 0662 25000000 		.4byte	.LVL3-1
 17126 0666 F4000000 		.4byte	.LVL20
 17127 066a 0100     		.2byte	0x1
 17128 066c 55       		.byte	0x55
 17129 066d 00010000 		.4byte	.LVL22
 17130 0671 0D010000 		.4byte	.LVL25-1
 17131 0675 0100     		.2byte	0x1
 17132 0677 50       		.byte	0x50
 17133 0678 0D010000 		.4byte	.LVL25-1
 17134 067c C4010000 		.4byte	.LFE259
 17135 0680 0100     		.2byte	0x1
 17136 0682 55       		.byte	0x55
 17137 0683 00000000 		.4byte	0
 17138 0687 00000000 		.4byte	0
 17139              	.LLST2:
 17140 068b 1C000000 		.4byte	.LVL1
 17141 068f F4000000 		.4byte	.LVL20
 17142 0693 0100     		.2byte	0x1
 17143 0695 54       		.byte	0x54
 17144 0696 00010000 		.4byte	.LVL22
 17145 069a C4010000 		.4byte	.LFE259
 17146 069e 0100     		.2byte	0x1
 17147 06a0 54       		.byte	0x54
 17148 06a1 00000000 		.4byte	0
 17149 06a5 00000000 		.4byte	0
 17150              	.LLST5:
 17151 06a9 1C000000 		.4byte	.LVL1
 17152 06ad 22000000 		.4byte	.LVL2
 17153 06b1 0300     		.2byte	0x3
 17154 06b3 08       		.byte	0x8
 17155 06b4 20       		.byte	0x20
 17156 06b5 9F       		.byte	0x9f
 17157 06b6 00000000 		.4byte	0
 17158 06ba 00000000 		.4byte	0
 17159              	.LLST6:
 17160 06be 4A000000 		.4byte	.LVL7
 17161 06c2 4E000000 		.4byte	.LVL8
 17162 06c6 0200     		.2byte	0x2
 17163 06c8 30       		.byte	0x30
 17164 06c9 9F       		.byte	0x9f
 17165 06ca 00000000 		.4byte	0
 17166 06ce 00000000 		.4byte	0
 17167              	.LLST7:
 17168 06d2 56000000 		.4byte	.LVL9
 17169 06d6 5A000000 		.4byte	.LVL10
 17170 06da 0300     		.2byte	0x3
 17171 06dc 08       		.byte	0x8
 17172 06dd 20       		.byte	0x20
 17173 06de 9F       		.byte	0x9f
 17174 06df 00000000 		.4byte	0
 17175 06e3 00000000 		.4byte	0
ARM GAS  /var/folders/qd/4mxf5pkd0zdf0b9dd1hp39180000gn/T//ccn3RVaQ.s 			page 303


 17176              	.LLST8:
 17177 06e7 84000000 		.4byte	.LVL15
 17178 06eb 88000000 		.4byte	.LVL16
 17179 06ef 0200     		.2byte	0x2
 17180 06f1 30       		.byte	0x30
 17181 06f2 9F       		.byte	0x9f
 17182 06f3 00000000 		.4byte	0
 17183 06f7 00000000 		.4byte	0
 17184              	.LLST3:
 17185 06fb 32010000 		.4byte	.LVL29
 17186 06ff 36010000 		.4byte	.LVL30
 17187 0703 0200     		.2byte	0x2
 17188 0705 30       		.byte	0x30
 17189 0706 9F       		.byte	0x9f
 17190 0707 00000000 		.4byte	0
 17191 070b 00000000 		.4byte	0
 17192              	.LLST4:
 17193 070f 04010000 		.4byte	.LVL23
 17194 0713 0A010000 		.4byte	.LVL24
 17195 0717 0300     		.2byte	0x3
 17196 0719 08       		.byte	0x8
 17197 071a 20       		.byte	0x20
 17198 071b 9F       		.byte	0x9f
 17199 071c 00000000 		.4byte	0
 17200 0720 00000000 		.4byte	0
 17201              	.LLST9:
 17202 0724 52010000 		.4byte	.LVL33
 17203 0728 58010000 		.4byte	.LVL34
 17204 072c 0300     		.2byte	0x3
 17205 072e 08       		.byte	0x8
 17206 072f 20       		.byte	0x20
 17207 0730 9F       		.byte	0x9f
 17208 0731 00000000 		.4byte	0
 17209 0735 00000000 		.4byte	0
 17210              	.LLST10:
 17211 0739 60010000 		.4byte	.LVL36
 17212 073d 6C010000 		.4byte	.LVL38
 17213 0741 0600     		.2byte	0x6
 17214 0743 03       		.byte	0x3
 17215 0744 00000000 		.4byte	wipEndMovingSignal_sem
 17216 0748 9F       		.byte	0x9f
 17217 0749 94010000 		.4byte	.LVL44
 17218 074d C4010000 		.4byte	.LFE259
 17219 0751 0600     		.2byte	0x6
 17220 0753 03       		.byte	0x3
 17221 0754 00000000 		.4byte	wipEndMovingSignal_sem
 17222 0758 9F       		.byte	0x9f
 17223 0759 00000000 		.4byte	0
 17224 075d 00000000 		.4byte	0
 17225              	.LLST11:
 17226 0761 8E010000 		.4byte	.LVL42
 17227 0765 92010000 		.4byte	.LVL43
 17228 0769 0200     		.2byte	0x2
 17229 076b 30       		.byte	0x30
 17230 076c 9F       		.byte	0x9f
 17231 076d 00000000 		.4byte	0
 17232 0771 00000000 		.4byte	0
ARM GAS  /var/folders/qd/4mxf5pkd0zdf0b9dd1hp39180000gn/T//ccn3RVaQ.s 			page 304


 17233              	.LLST27:
 17234 0775 00000000 		.4byte	.LVL113
 17235 0779 33000000 		.4byte	.LVL114-1
 17236 077d 0200     		.2byte	0x2
 17237 077f 90       		.byte	0x90
 17238 0780 40       		.uleb128 0x40
 17239 0781 33000000 		.4byte	.LVL114-1
 17240 0785 80000000 		.4byte	.LFE268
 17241 0789 0600     		.2byte	0x6
 17242 078b F3       		.byte	0xf3
 17243 078c 03       		.uleb128 0x3
 17244 078d F5       		.byte	0xf5
 17245 078e 40       		.uleb128 0x40
 17246 078f 33       		.uleb128 0x33
 17247 0790 9F       		.byte	0x9f
 17248 0791 00000000 		.4byte	0
 17249 0795 00000000 		.4byte	0
 17250              	.LLST30:
 17251 0799 00000000 		.4byte	.LVL132
 17252 079d 0E000000 		.4byte	.LVL133
 17253 07a1 0100     		.2byte	0x1
 17254 07a3 50       		.byte	0x50
 17255 07a4 0E000000 		.4byte	.LVL133
 17256 07a8 11000000 		.4byte	.LVL134-1
 17257 07ac 0100     		.2byte	0x1
 17258 07ae 51       		.byte	0x51
 17259 07af 11000000 		.4byte	.LVL134-1
 17260 07b3 2C000000 		.4byte	.LFE270
 17261 07b7 0400     		.2byte	0x4
 17262 07b9 F3       		.byte	0xf3
 17263 07ba 01       		.uleb128 0x1
 17264 07bb 50       		.byte	0x50
 17265 07bc 9F       		.byte	0x9f
 17266 07bd 00000000 		.4byte	0
 17267 07c1 00000000 		.4byte	0
 17268              	.LLST31:
 17269 07c5 0A000000 		.4byte	.LVL137
 17270 07c9 48000000 		.4byte	.LVL147
 17271 07cd 0600     		.2byte	0x6
 17272 07cf 03       		.byte	0x3
 17273 07d0 00000000 		.4byte	wipEndSignal_sem
 17274 07d4 9F       		.byte	0x9f
 17275 07d5 54000000 		.4byte	.LVL148
 17276 07d9 62000000 		.4byte	.LVL152
 17277 07dd 0600     		.2byte	0x6
 17278 07df 03       		.byte	0x3
 17279 07e0 00000000 		.4byte	wipEndSignal_sem
 17280 07e4 9F       		.byte	0x9f
 17281 07e5 00000000 		.4byte	0
 17282 07e9 00000000 		.4byte	0
 17283              	.LLST32:
 17284 07ed 0A000000 		.4byte	.LVL137
 17285 07f1 10000000 		.4byte	.LVL138
 17286 07f5 0300     		.2byte	0x3
 17287 07f7 08       		.byte	0x8
 17288 07f8 20       		.byte	0x20
 17289 07f9 9F       		.byte	0x9f
ARM GAS  /var/folders/qd/4mxf5pkd0zdf0b9dd1hp39180000gn/T//ccn3RVaQ.s 			page 305


 17290 07fa 00000000 		.4byte	0
 17291 07fe 00000000 		.4byte	0
 17292              	.LLST33:
 17293 0802 18000000 		.4byte	.LVL140
 17294 0806 24000000 		.4byte	.LVL142
 17295 080a 0600     		.2byte	0x6
 17296 080c 03       		.byte	0x3
 17297 080d 00000000 		.4byte	wipEndSignal_sem
 17298 0811 9F       		.byte	0x9f
 17299 0812 5C000000 		.4byte	.LVL150
 17300 0816 62000000 		.4byte	.LVL152
 17301 081a 0600     		.2byte	0x6
 17302 081c 03       		.byte	0x3
 17303 081d 00000000 		.4byte	wipEndSignal_sem
 17304 0821 9F       		.byte	0x9f
 17305 0822 00000000 		.4byte	0
 17306 0826 00000000 		.4byte	0
 17307              	.LLST34:
 17308 082a 42000000 		.4byte	.LVL146
 17309 082e 48000000 		.4byte	.LVL147
 17310 0832 0200     		.2byte	0x2
 17311 0834 30       		.byte	0x30
 17312 0835 9F       		.byte	0x9f
 17313 0836 00000000 		.4byte	0
 17314 083a 00000000 		.4byte	0
 17315              	.LLST35:
 17316 083e 0A000000 		.4byte	.LVL154
 17317 0842 48000000 		.4byte	.LVL164
 17318 0846 0600     		.2byte	0x6
 17319 0848 03       		.byte	0x3
 17320 0849 00000000 		.4byte	wipEndMovingSignal_sem
 17321 084d 9F       		.byte	0x9f
 17322 084e 54000000 		.4byte	.LVL165
 17323 0852 62000000 		.4byte	.LVL169
 17324 0856 0600     		.2byte	0x6
 17325 0858 03       		.byte	0x3
 17326 0859 00000000 		.4byte	wipEndMovingSignal_sem
 17327 085d 9F       		.byte	0x9f
 17328 085e 00000000 		.4byte	0
 17329 0862 00000000 		.4byte	0
 17330              	.LLST36:
 17331 0866 0A000000 		.4byte	.LVL154
 17332 086a 10000000 		.4byte	.LVL155
 17333 086e 0300     		.2byte	0x3
 17334 0870 08       		.byte	0x8
 17335 0871 20       		.byte	0x20
 17336 0872 9F       		.byte	0x9f
 17337 0873 00000000 		.4byte	0
 17338 0877 00000000 		.4byte	0
 17339              	.LLST37:
 17340 087b 18000000 		.4byte	.LVL157
 17341 087f 24000000 		.4byte	.LVL159
 17342 0883 0600     		.2byte	0x6
 17343 0885 03       		.byte	0x3
 17344 0886 00000000 		.4byte	wipEndMovingSignal_sem
 17345 088a 9F       		.byte	0x9f
 17346 088b 5C000000 		.4byte	.LVL167
ARM GAS  /var/folders/qd/4mxf5pkd0zdf0b9dd1hp39180000gn/T//ccn3RVaQ.s 			page 306


 17347 088f 62000000 		.4byte	.LVL169
 17348 0893 0600     		.2byte	0x6
 17349 0895 03       		.byte	0x3
 17350 0896 00000000 		.4byte	wipEndMovingSignal_sem
 17351 089a 9F       		.byte	0x9f
 17352 089b 00000000 		.4byte	0
 17353 089f 00000000 		.4byte	0
 17354              	.LLST38:
 17355 08a3 42000000 		.4byte	.LVL163
 17356 08a7 48000000 		.4byte	.LVL164
 17357 08ab 0200     		.2byte	0x2
 17358 08ad 30       		.byte	0x30
 17359 08ae 9F       		.byte	0x9f
 17360 08af 00000000 		.4byte	0
 17361 08b3 00000000 		.4byte	0
 17362              		.section	.debug_aranges,"",%progbits
 17363 0000 EC000000 		.4byte	0xec
 17364 0004 0200     		.2byte	0x2
 17365 0006 00000000 		.4byte	.Ldebug_info0
 17366 000a 04       		.byte	0x4
 17367 000b 00       		.byte	0
 17368 000c 0000     		.2byte	0
 17369 000e 0000     		.2byte	0
 17370 0010 00000000 		.4byte	.LFB259
 17371 0014 C4010000 		.4byte	.LFE259-.LFB259
 17372 0018 00000000 		.4byte	.LFB260
 17373 001c 34000000 		.4byte	.LFE260-.LFB260
 17374 0020 00000000 		.4byte	.LFB261
 17375 0024 34000000 		.4byte	.LFE261-.LFB261
 17376 0028 00000000 		.4byte	.LFB262
 17377 002c D0000000 		.4byte	.LFE262-.LFB262
 17378 0030 00000000 		.4byte	.LFB263
 17379 0034 38000000 		.4byte	.LFE263-.LFB263
 17380 0038 00000000 		.4byte	.LFB264
 17381 003c A0000000 		.4byte	.LFE264-.LFB264
 17382 0040 00000000 		.4byte	.LFB265
 17383 0044 48000000 		.4byte	.LFE265-.LFB265
 17384 0048 00000000 		.4byte	.LFB267
 17385 004c D0000000 		.4byte	.LFE267-.LFB267
 17386 0050 00000000 		.4byte	.LFB268
 17387 0054 80000000 		.4byte	.LFE268-.LFB268
 17388 0058 00000000 		.4byte	.LFB266
 17389 005c 70000000 		.4byte	.LFE266-.LFB266
 17390 0060 00000000 		.4byte	.LFB269
 17391 0064 28000000 		.4byte	.LFE269-.LFB269
 17392 0068 00000000 		.4byte	.LFB270
 17393 006c 2C000000 		.4byte	.LFE270-.LFB270
 17394 0070 00000000 		.4byte	.LFB271
 17395 0074 78000000 		.4byte	.LFE271-.LFB271
 17396 0078 00000000 		.4byte	.LFB272
 17397 007c 78000000 		.4byte	.LFE272-.LFB272
 17398 0080 00000000 		.4byte	.LFB273
 17399 0084 2C000000 		.4byte	.LFE273-.LFB273
 17400 0088 00000000 		.4byte	.LFB274
 17401 008c 38000000 		.4byte	.LFE274-.LFB274
 17402 0090 00000000 		.4byte	.LFB275
 17403 0094 6C000000 		.4byte	.LFE275-.LFB275
ARM GAS  /var/folders/qd/4mxf5pkd0zdf0b9dd1hp39180000gn/T//ccn3RVaQ.s 			page 307


 17404 0098 00000000 		.4byte	.LFB278
 17405 009c CC000000 		.4byte	.LFE278-.LFB278
 17406 00a0 00000000 		.4byte	.LFB276
 17407 00a4 2C010000 		.4byte	.LFE276-.LFB276
 17408 00a8 00000000 		.4byte	.LFB277
 17409 00ac 94010000 		.4byte	.LFE277-.LFB277
 17410 00b0 00000000 		.4byte	.LFB279
 17411 00b4 88000000 		.4byte	.LFE279-.LFB279
 17412 00b8 00000000 		.4byte	.LFB280
 17413 00bc 50000000 		.4byte	.LFE280-.LFB280
 17414 00c0 00000000 		.4byte	.LFB281
 17415 00c4 38000000 		.4byte	.LFE281-.LFB281
 17416 00c8 00000000 		.4byte	.LFB282
 17417 00cc 38000000 		.4byte	.LFE282-.LFB282
 17418 00d0 00000000 		.4byte	.LFB283
 17419 00d4 28000000 		.4byte	.LFE283-.LFB283
 17420 00d8 00000000 		.4byte	.LFB284
 17421 00dc 2C000000 		.4byte	.LFE284-.LFB284
 17422 00e0 00000000 		.4byte	.LFB285
 17423 00e4 20000000 		.4byte	.LFE285-.LFB285
 17424 00e8 00000000 		.4byte	0
 17425 00ec 00000000 		.4byte	0
 17426              		.section	.debug_ranges,"",%progbits
 17427              	.Ldebug_ranges0:
 17428 0000 14000000 		.4byte	.LBB188
 17429 0004 18000000 		.4byte	.LBE188
 17430 0008 1C000000 		.4byte	.LBB263
 17431 000c C4010000 		.4byte	.LBE263
 17432 0010 00000000 		.4byte	0
 17433 0014 00000000 		.4byte	0
 17434 0018 14000000 		.4byte	.LBB189
 17435 001c 18000000 		.4byte	.LBE189
 17436 0020 04010000 		.4byte	.LBB245
 17437 0024 36010000 		.4byte	.LBE245
 17438 0028 00000000 		.4byte	0
 17439 002c 00000000 		.4byte	0
 17440 0030 14000000 		.4byte	.LBB191
 17441 0034 18000000 		.4byte	.LBE191
 17442 0038 14010000 		.4byte	.LBB207
 17443 003c 36010000 		.4byte	.LBE207
 17444 0040 00000000 		.4byte	0
 17445 0044 00000000 		.4byte	0
 17446 0048 14000000 		.4byte	.LBB193
 17447 004c 18000000 		.4byte	.LBE193
 17448 0050 32010000 		.4byte	.LBB198
 17449 0054 36010000 		.4byte	.LBE198
 17450 0058 00000000 		.4byte	0
 17451 005c 00000000 		.4byte	0
 17452 0060 4E000000 		.4byte	.LBB224
 17453 0064 52000000 		.4byte	.LBE224
 17454 0068 56000000 		.4byte	.LBB244
 17455 006c 88000000 		.4byte	.LBE244
 17456 0070 00000000 		.4byte	0
 17457 0074 00000000 		.4byte	0
 17458 0078 4E000000 		.4byte	.LBB226
 17459 007c 52000000 		.4byte	.LBE226
 17460 0080 56000000 		.4byte	.LBB235
ARM GAS  /var/folders/qd/4mxf5pkd0zdf0b9dd1hp39180000gn/T//ccn3RVaQ.s 			page 308


 17461 0084 62000000 		.4byte	.LBE235
 17462 0088 00000000 		.4byte	0
 17463 008c 00000000 		.4byte	0
 17464 0090 4E000000 		.4byte	.LBB228
 17465 0094 52000000 		.4byte	.LBE228
 17466 0098 56000000 		.4byte	.LBB233
 17467 009c 5A000000 		.4byte	.LBE233
 17468 00a0 00000000 		.4byte	0
 17469 00a4 00000000 		.4byte	0
 17470 00a8 60010000 		.4byte	.LBB254
 17471 00ac 6C010000 		.4byte	.LBE254
 17472 00b0 94010000 		.4byte	.LBB262
 17473 00b4 C4010000 		.4byte	.LBE262
 17474 00b8 00000000 		.4byte	0
 17475 00bc 00000000 		.4byte	0
 17476 00c0 02000000 		.4byte	.LBB264
 17477 00c4 04000000 		.4byte	.LBE264
 17478 00c8 06000000 		.4byte	.LBB269
 17479 00cc 08000000 		.4byte	.LBE269
 17480 00d0 0E000000 		.4byte	.LBB270
 17481 00d4 10000000 		.4byte	.LBE270
 17482 00d8 16000000 		.4byte	.LBB271
 17483 00dc 1A000000 		.4byte	.LBE271
 17484 00e0 00000000 		.4byte	0
 17485 00e4 00000000 		.4byte	0
 17486 00e8 08000000 		.4byte	.LBB294
 17487 00ec 0A000000 		.4byte	.LBE294
 17488 00f0 1C000000 		.4byte	.LBB297
 17489 00f4 24000000 		.4byte	.LBE297
 17490 00f8 00000000 		.4byte	0
 17491 00fc 00000000 		.4byte	0
 17492 0100 24000000 		.4byte	.LBB298
 17493 0104 54000000 		.4byte	.LBE298
 17494 0108 A8000000 		.4byte	.LBB325
 17495 010c B0000000 		.4byte	.LBE325
 17496 0110 00000000 		.4byte	0
 17497 0114 00000000 		.4byte	0
 17498 0118 24000000 		.4byte	.LBB300
 17499 011c 2A000000 		.4byte	.LBE300
 17500 0120 2C000000 		.4byte	.LBB309
 17501 0124 34000000 		.4byte	.LBE309
 17502 0128 00000000 		.4byte	0
 17503 012c 00000000 		.4byte	0
 17504 0130 2A000000 		.4byte	.LBB306
 17505 0134 2C000000 		.4byte	.LBE306
 17506 0138 34000000 		.4byte	.LBB310
 17507 013c 36000000 		.4byte	.LBE310
 17508 0140 00000000 		.4byte	0
 17509 0144 00000000 		.4byte	0
 17510 0148 36000000 		.4byte	.LBB311
 17511 014c 54000000 		.4byte	.LBE311
 17512 0150 A8000000 		.4byte	.LBB317
 17513 0154 B0000000 		.4byte	.LBE317
 17514 0158 00000000 		.4byte	0
 17515 015c 00000000 		.4byte	0
 17516 0160 22000000 		.4byte	.LBB340
 17517 0164 52000000 		.4byte	.LBE340
ARM GAS  /var/folders/qd/4mxf5pkd0zdf0b9dd1hp39180000gn/T//ccn3RVaQ.s 			page 309


 17518 0168 80000000 		.4byte	.LBB361
 17519 016c 88000000 		.4byte	.LBE361
 17520 0170 00000000 		.4byte	0
 17521 0174 00000000 		.4byte	0
 17522 0178 22000000 		.4byte	.LBB342
 17523 017c 28000000 		.4byte	.LBE342
 17524 0180 2A000000 		.4byte	.LBB351
 17525 0184 32000000 		.4byte	.LBE351
 17526 0188 00000000 		.4byte	0
 17527 018c 00000000 		.4byte	0
 17528 0190 28000000 		.4byte	.LBB348
 17529 0194 2A000000 		.4byte	.LBE348
 17530 0198 32000000 		.4byte	.LBB352
 17531 019c 34000000 		.4byte	.LBE352
 17532 01a0 00000000 		.4byte	0
 17533 01a4 00000000 		.4byte	0
 17534 01a8 34000000 		.4byte	.LBB353
 17535 01ac 52000000 		.4byte	.LBE353
 17536 01b0 80000000 		.4byte	.LBB359
 17537 01b4 88000000 		.4byte	.LBE359
 17538 01b8 00000000 		.4byte	0
 17539 01bc 00000000 		.4byte	0
 17540 01c0 0A000000 		.4byte	.LBB378
 17541 01c4 48000000 		.4byte	.LBE378
 17542 01c8 54000000 		.4byte	.LBB397
 17543 01cc 62000000 		.4byte	.LBE397
 17544 01d0 00000000 		.4byte	0
 17545 01d4 00000000 		.4byte	0
 17546 01d8 18000000 		.4byte	.LBB385
 17547 01dc 24000000 		.4byte	.LBE385
 17548 01e0 5C000000 		.4byte	.LBB395
 17549 01e4 62000000 		.4byte	.LBE395
 17550 01e8 00000000 		.4byte	0
 17551 01ec 00000000 		.4byte	0
 17552 01f0 28000000 		.4byte	.LBB388
 17553 01f4 48000000 		.4byte	.LBE388
 17554 01f8 54000000 		.4byte	.LBB394
 17555 01fc 5C000000 		.4byte	.LBE394
 17556 0200 00000000 		.4byte	0
 17557 0204 00000000 		.4byte	0
 17558 0208 0A000000 		.4byte	.LBB412
 17559 020c 48000000 		.4byte	.LBE412
 17560 0210 54000000 		.4byte	.LBB431
 17561 0214 62000000 		.4byte	.LBE431
 17562 0218 00000000 		.4byte	0
 17563 021c 00000000 		.4byte	0
 17564 0220 18000000 		.4byte	.LBB419
 17565 0224 24000000 		.4byte	.LBE419
 17566 0228 5C000000 		.4byte	.LBB429
 17567 022c 62000000 		.4byte	.LBE429
 17568 0230 00000000 		.4byte	0
 17569 0234 00000000 		.4byte	0
 17570 0238 28000000 		.4byte	.LBB422
 17571 023c 48000000 		.4byte	.LBE422
 17572 0240 54000000 		.4byte	.LBB428
 17573 0244 5C000000 		.4byte	.LBE428
 17574 0248 00000000 		.4byte	0
ARM GAS  /var/folders/qd/4mxf5pkd0zdf0b9dd1hp39180000gn/T//ccn3RVaQ.s 			page 310


 17575 024c 00000000 		.4byte	0
 17576 0250 0A000000 		.4byte	.LBB432
 17577 0254 14000000 		.4byte	.LBE432
 17578 0258 1A000000 		.4byte	.LBB435
 17579 025c 2C000000 		.4byte	.LBE435
 17580 0260 00000000 		.4byte	0
 17581 0264 00000000 		.4byte	0
 17582 0268 24000000 		.4byte	.LBB436
 17583 026c 2A000000 		.4byte	.LBE436
 17584 0270 38000000 		.4byte	.LBB439
 17585 0274 48000000 		.4byte	.LBE439
 17586 0278 00000000 		.4byte	0
 17587 027c 00000000 		.4byte	0
 17588 0280 04000000 		.4byte	.LBB460
 17589 0284 06000000 		.4byte	.LBE460
 17590 0288 0A000000 		.4byte	.LBB464
 17591 028c 10000000 		.4byte	.LBE464
 17592 0290 12000000 		.4byte	.LBB465
 17593 0294 1C000000 		.4byte	.LBE465
 17594 0298 00000000 		.4byte	0
 17595 029c 00000000 		.4byte	0
 17596 02a0 5C000000 		.4byte	.LBB468
 17597 02a4 9A000000 		.4byte	.LBE468
 17598 02a8 A6000000 		.4byte	.LBB489
 17599 02ac B4000000 		.4byte	.LBE489
 17600 02b0 00000000 		.4byte	0
 17601 02b4 00000000 		.4byte	0
 17602 02b8 6A000000 		.4byte	.LBB476
 17603 02bc 76000000 		.4byte	.LBE476
 17604 02c0 AE000000 		.4byte	.LBB486
 17605 02c4 B4000000 		.4byte	.LBE486
 17606 02c8 00000000 		.4byte	0
 17607 02cc 00000000 		.4byte	0
 17608 02d0 7A000000 		.4byte	.LBB479
 17609 02d4 9A000000 		.4byte	.LBE479
 17610 02d8 A6000000 		.4byte	.LBB485
 17611 02dc AE000000 		.4byte	.LBE485
 17612 02e0 00000000 		.4byte	0
 17613 02e4 00000000 		.4byte	0
 17614 02e8 08000000 		.4byte	.LBB490
 17615 02ec 0C000000 		.4byte	.LBE490
 17616 02f0 34000000 		.4byte	.LBB499
 17617 02f4 54000000 		.4byte	.LBE499
 17618 02f8 00000000 		.4byte	0
 17619 02fc 00000000 		.4byte	0
 17620 0300 08000000 		.4byte	.LBB491
 17621 0304 0C000000 		.4byte	.LBE491
 17622 0308 42000000 		.4byte	.LBB494
 17623 030c 50000000 		.4byte	.LBE494
 17624 0310 00000000 		.4byte	0
 17625 0314 00000000 		.4byte	0
 17626 0318 1A000000 		.4byte	.LBB495
 17627 031c 1C000000 		.4byte	.LBE495
 17628 0320 1E000000 		.4byte	.LBB498
 17629 0324 34000000 		.4byte	.LBE498
 17630 0328 00000000 		.4byte	0
 17631 032c 00000000 		.4byte	0
ARM GAS  /var/folders/qd/4mxf5pkd0zdf0b9dd1hp39180000gn/T//ccn3RVaQ.s 			page 311


 17632 0330 54000000 		.4byte	.LBB500
 17633 0334 5A000000 		.4byte	.LBE500
 17634 0338 5E000000 		.4byte	.LBB506
 17635 033c 68000000 		.4byte	.LBE506
 17636 0340 00000000 		.4byte	0
 17637 0344 00000000 		.4byte	0
 17638 0348 5A000000 		.4byte	.LBB503
 17639 034c 5E000000 		.4byte	.LBE503
 17640 0350 70000000 		.4byte	.LBB507
 17641 0354 00010000 		.4byte	.LBE507
 17642 0358 00000000 		.4byte	0
 17643 035c 00000000 		.4byte	0
 17644 0360 78000000 		.4byte	.LBB504
 17645 0364 82000000 		.4byte	.LBE504
 17646 0368 84000000 		.4byte	.LBB505
 17647 036c F4000000 		.4byte	.LBE505
 17648 0370 00000000 		.4byte	0
 17649 0374 00000000 		.4byte	0
 17650 0378 14000000 		.4byte	.LBB508
 17651 037c 24000000 		.4byte	.LBE508
 17652 0380 3A000000 		.4byte	.LBB523
 17653 0384 4C000000 		.4byte	.LBE523
 17654 0388 50000000 		.4byte	.LBB524
 17655 038c 14010000 		.4byte	.LBE524
 17656 0390 58010000 		.4byte	.LBB525
 17657 0394 6A010000 		.4byte	.LBE525
 17658 0398 00000000 		.4byte	0
 17659 039c 00000000 		.4byte	0
 17660 03a0 14000000 		.4byte	.LBB509
 17661 03a4 18000000 		.4byte	.LBE509
 17662 03a8 6E000000 		.4byte	.LBB519
 17663 03ac 82000000 		.4byte	.LBE519
 17664 03b0 00000000 		.4byte	0
 17665 03b4 00000000 		.4byte	0
 17666 03b8 18000000 		.4byte	.LBB512
 17667 03bc 1C000000 		.4byte	.LBE512
 17668 03c0 82000000 		.4byte	.LBB520
 17669 03c4 A2000000 		.4byte	.LBE520
 17670 03c8 00000000 		.4byte	0
 17671 03cc 00000000 		.4byte	0
 17672 03d0 18000000 		.4byte	.LBB513
 17673 03d4 1C000000 		.4byte	.LBE513
 17674 03d8 90000000 		.4byte	.LBB516
 17675 03dc 9E000000 		.4byte	.LBE516
 17676 03e0 00000000 		.4byte	0
 17677 03e4 00000000 		.4byte	0
 17678 03e8 16000000 		.4byte	.LBB542
 17679 03ec 54000000 		.4byte	.LBE542
 17680 03f0 60000000 		.4byte	.LBB563
 17681 03f4 6E000000 		.4byte	.LBE563
 17682 03f8 00000000 		.4byte	0
 17683 03fc 00000000 		.4byte	0
 17684 0400 24000000 		.4byte	.LBB550
 17685 0404 30000000 		.4byte	.LBE550
 17686 0408 68000000 		.4byte	.LBB560
 17687 040c 6E000000 		.4byte	.LBE560
 17688 0410 00000000 		.4byte	0
ARM GAS  /var/folders/qd/4mxf5pkd0zdf0b9dd1hp39180000gn/T//ccn3RVaQ.s 			page 312


 17689 0414 00000000 		.4byte	0
 17690 0418 34000000 		.4byte	.LBB553
 17691 041c 54000000 		.4byte	.LBE553
 17692 0420 60000000 		.4byte	.LBB559
 17693 0424 68000000 		.4byte	.LBE559
 17694 0428 00000000 		.4byte	0
 17695 042c 00000000 		.4byte	0
 17696 0430 0A000000 		.4byte	.LBB564
 17697 0434 14000000 		.4byte	.LBE564
 17698 0438 1A000000 		.4byte	.LBB567
 17699 043c 2C000000 		.4byte	.LBE567
 17700 0440 00000000 		.4byte	0
 17701 0444 00000000 		.4byte	0
 17702 0448 00000000 		.4byte	.LFB259
 17703 044c C4010000 		.4byte	.LFE259
 17704 0450 00000000 		.4byte	.LFB260
 17705 0454 34000000 		.4byte	.LFE260
 17706 0458 00000000 		.4byte	.LFB261
 17707 045c 34000000 		.4byte	.LFE261
 17708 0460 00000000 		.4byte	.LFB262
 17709 0464 D0000000 		.4byte	.LFE262
 17710 0468 00000000 		.4byte	.LFB263
 17711 046c 38000000 		.4byte	.LFE263
 17712 0470 00000000 		.4byte	.LFB264
 17713 0474 A0000000 		.4byte	.LFE264
 17714 0478 00000000 		.4byte	.LFB265
 17715 047c 48000000 		.4byte	.LFE265
 17716 0480 00000000 		.4byte	.LFB267
 17717 0484 D0000000 		.4byte	.LFE267
 17718 0488 00000000 		.4byte	.LFB268
 17719 048c 80000000 		.4byte	.LFE268
 17720 0490 00000000 		.4byte	.LFB266
 17721 0494 70000000 		.4byte	.LFE266
 17722 0498 00000000 		.4byte	.LFB269
 17723 049c 28000000 		.4byte	.LFE269
 17724 04a0 00000000 		.4byte	.LFB270
 17725 04a4 2C000000 		.4byte	.LFE270
 17726 04a8 00000000 		.4byte	.LFB271
 17727 04ac 78000000 		.4byte	.LFE271
 17728 04b0 00000000 		.4byte	.LFB272
 17729 04b4 78000000 		.4byte	.LFE272
 17730 04b8 00000000 		.4byte	.LFB273
 17731 04bc 2C000000 		.4byte	.LFE273
 17732 04c0 00000000 		.4byte	.LFB274
 17733 04c4 38000000 		.4byte	.LFE274
 17734 04c8 00000000 		.4byte	.LFB275
 17735 04cc 6C000000 		.4byte	.LFE275
 17736 04d0 00000000 		.4byte	.LFB278
 17737 04d4 CC000000 		.4byte	.LFE278
 17738 04d8 00000000 		.4byte	.LFB276
 17739 04dc 2C010000 		.4byte	.LFE276
 17740 04e0 00000000 		.4byte	.LFB277
 17741 04e4 94010000 		.4byte	.LFE277
 17742 04e8 00000000 		.4byte	.LFB279
 17743 04ec 88000000 		.4byte	.LFE279
 17744 04f0 00000000 		.4byte	.LFB280
 17745 04f4 50000000 		.4byte	.LFE280
ARM GAS  /var/folders/qd/4mxf5pkd0zdf0b9dd1hp39180000gn/T//ccn3RVaQ.s 			page 313


 17746 04f8 00000000 		.4byte	.LFB281
 17747 04fc 38000000 		.4byte	.LFE281
 17748 0500 00000000 		.4byte	.LFB282
 17749 0504 38000000 		.4byte	.LFE282
 17750 0508 00000000 		.4byte	.LFB283
 17751 050c 28000000 		.4byte	.LFE283
 17752 0510 00000000 		.4byte	.LFB284
 17753 0514 2C000000 		.4byte	.LFE284
 17754 0518 00000000 		.4byte	.LFB285
 17755 051c 20000000 		.4byte	.LFE285
 17756 0520 00000000 		.4byte	0
 17757 0524 00000000 		.4byte	0
 17758              		.section	.debug_line,"",%progbits
 17759              	.Ldebug_line0:
 17760 0000 DD0E0000 		.section	.debug_str,"MS",%progbits,1
 17760      02004609 
 17760      00000201 
 17760      FB0E0D00 
 17760      01010101 
 17761              	.LASF721:
 17762 0000 5553425F 		.ascii	"USB_STOP\000"
 17762      53544F50 
 17762      00
 17763              	.LASF333:
 17764 0009 706F7274 		.ascii	"port_intctx\000"
 17764      5F696E74 
 17764      63747800 
 17765              	.LASF342:
 17766 0015 63685F74 		.ascii	"ch_trace_buffer_t\000"
 17766      72616365 
 17766      5F627566 
 17766      6665725F 
 17766      7400
 17767              	.LASF374:
 17768 0027 63685F70 		.ascii	"ch_ptrsize\000"
 17768      74727369 
 17768      7A6500
 17769              	.LASF657:
 17770 0032 6576656E 		.ascii	"event\000"
 17770      7400
 17771              	.LASF508:
 17772 0038 43414E5F 		.ascii	"CAN_STARTING\000"
 17772      53544152 
 17772      54494E47 
 17772      00
 17773              	.LASF924:
 17774 0045 63685365 		.ascii	"chSemWait\000"
 17774      6D576169 
 17774      7400
 17775              	.LASF919:
 17776 004f 5F5F6675 		.ascii	"__func__\000"
 17776      6E635F5F 
 17776      00
 17777              	.LASF177:
 17778 0058 6D73675F 		.ascii	"msg_t\000"
 17778      7400
 17779              	.LASF453:
ARM GAS  /var/folders/qd/4mxf5pkd0zdf0b9dd1hp39180000gn/T//ccn3RVaQ.s 			page 314


 17780 005e 61667268 		.ascii	"afrh\000"
 17780      00
 17781              	.LASF600:
 17782 0063 4F504D4F 		.ascii	"OPMODE_SMBUS_DEVICE\000"
 17782      44455F53 
 17782      4D425553 
 17782      5F444556 
 17782      49434500 
 17783              	.LASF353:
 17784 0077 6D5F6372 		.ascii	"m_crit_isr\000"
 17784      69745F69 
 17784      737200
 17785              	.LASF874:
 17786 0082 6D656173 		.ascii	"measurement\000"
 17786      7572656D 
 17786      656E7400 
 17787              	.LASF673:
 17788 008e 73646366 		.ascii	"sdcflags_t\000"
 17788      6C616773 
 17788      5F7400
 17789              	.LASF780:
 17790 0099 44494550 		.ascii	"DIEPTXF0\000"
 17790      54584630 
 17790      00
 17791              	.LASF137:
 17792 00a2 5F5F6664 		.ascii	"__fdlibm_xopen\000"
 17792      6C69626D 
 17792      5F786F70 
 17792      656E00
 17793              	.LASF507:
 17794 00b1 43414E5F 		.ascii	"CAN_STOP\000"
 17794      53544F50 
 17794      00
 17795              	.LASF187:
 17796 00ba 705F7072 		.ascii	"p_prio\000"
 17796      696F00
 17797              	.LASF387:
 17798 00c1 63665F6F 		.ascii	"cf_off_time\000"
 17798      66665F74 
 17798      696D6500 
 17799              	.LASF894:
 17800 00cd 72656C61 		.ascii	"relativeAngle\000"
 17800      74697665 
 17800      416E676C 
 17800      6500
 17801              	.LASF236:
 17802 00db 63685F73 		.ascii	"ch_system_t\000"
 17802      79737465 
 17802      6D5F7400 
 17803              	.LASF11:
 17804 00e7 5F5F7569 		.ascii	"__uint8_t\000"
 17804      6E74385F 
 17804      7400
 17805              	.LASF906:
 17806 00f1 73746F70 		.ascii	"stopMotors\000"
 17806      4D6F746F 
 17806      727300
ARM GAS  /var/folders/qd/4mxf5pkd0zdf0b9dd1hp39180000gn/T//ccn3RVaQ.s 			page 315


 17807              	.LASF359:
 17808 00fc 77747365 		.ascii	"wtsemp\000"
 17808      6D7000
 17809              	.LASF940:
 17810 0103 6D6F645F 		.ascii	"mod_mapping_getRobotDisplacement\000"
 17810      6D617070 
 17810      696E675F 
 17810      67657452 
 17810      6F626F74 
 17811              	.LASF5:
 17812 0124 5F426F6F 		.ascii	"_Bool\000"
 17812      6C00
 17813              	.LASF857:
 17814 012a 64697363 		.ascii	"discoverThread\000"
 17814      6F766572 
 17814      54687265 
 17814      616400
 17815              	.LASF549:
 17816 0139 64617461 		.ascii	"datamode\000"
 17816      6D6F6465 
 17816      00
 17817              	.LASF616:
 17818 0142 646D6172 		.ascii	"dmarx\000"
 17818      7800
 17819              	.LASF75:
 17820 0148 5F6D6273 		.ascii	"_mbstate\000"
 17820      74617465 
 17820      00
 17821              	.LASF54:
 17822 0151 5F617465 		.ascii	"_atexit\000"
 17822      78697400 
 17823              	.LASF873:
 17824 0159 64697363 		.ascii	"discover\000"
 17824      6F766572 
 17824      00
 17825              	.LASF497:
 17826 0162 73717231 		.ascii	"sqr1\000"
 17826      00
 17827              	.LASF899:
 17828 0167 726F626F 		.ascii	"robotSpeed\000"
 17828      74537065 
 17828      656400
 17829              	.LASF425:
 17830 0172 424C4B5F 		.ascii	"BLK_UNINIT\000"
 17830      554E494E 
 17830      495400
 17831              	.LASF910:
 17832 017d 69734D6F 		.ascii	"isMoving\000"
 17832      76696E67 
 17832      00
 17833              	.LASF628:
 17834 0186 72785F62 		.ascii	"rx_buffer\000"
 17834      75666665 
 17834      7200
 17835              	.LASF612:
 17836 0190 6572726F 		.ascii	"errors\000"
 17836      727300
ARM GAS  /var/folders/qd/4mxf5pkd0zdf0b9dd1hp39180000gn/T//ccn3RVaQ.s 			page 316


 17837              	.LASF346:
 17838 0197 776F7273 		.ascii	"worst\000"
 17838      7400
 17839              	.LASF229:
 17840 019d 76745F73 		.ascii	"vt_systime\000"
 17840      79737469 
 17840      6D6500
 17841              	.LASF295:
 17842 01a8 444F5231 		.ascii	"DOR1\000"
 17842      00
 17843              	.LASF296:
 17844 01ad 444F5232 		.ascii	"DOR2\000"
 17844      00
 17845              	.LASF627:
 17846 01b2 74785F62 		.ascii	"tx_buffer\000"
 17846      75666665 
 17846      7200
 17847              	.LASF44:
 17848 01bc 5F5F746D 		.ascii	"__tm_mon\000"
 17848      5F6D6F6E 
 17848      00
 17849              	.LASF52:
 17850 01c5 5F666E74 		.ascii	"_fntypes\000"
 17850      79706573 
 17850      00
 17851              	.LASF144:
 17852 01ce 616E676C 		.ascii	"angle\000"
 17852      6500
 17853              	.LASF368:
 17854 01d4 6D5F6E65 		.ascii	"m_next\000"
 17854      787400
 17855              	.LASF457:
 17856 01db 50434461 		.ascii	"PCData\000"
 17856      746100
 17857              	.LASF888:
 17858 01e2 7369676E 		.ascii	"signalEndOfWork\000"
 17858      616C456E 
 17858      644F6657 
 17858      6F726B00 
 17859              	.LASF82:
 17860 01f2 5F696E63 		.ascii	"_inc\000"
 17860      00
 17861              	.LASF55:
 17862 01f7 5F696E64 		.ascii	"_ind\000"
 17862      00
 17863              	.LASF318:
 17864 01fc 4D41534B 		.ascii	"MASK\000"
 17864      00
 17865              	.LASF482:
 17866 0201 73616D70 		.ascii	"samples\000"
 17866      6C657300 
 17867              	.LASF784:
 17868 0209 47434346 		.ascii	"GCCFG\000"
 17868      4700
 17869              	.LASF578:
 17870 020f 42445452 		.ascii	"BDTR\000"
 17870      00
ARM GAS  /var/folders/qd/4mxf5pkd0zdf0b9dd1hp39180000gn/T//ccn3RVaQ.s 			page 317


 17871              	.LASF531:
 17872 0214 7265676D 		.ascii	"regmask\000"
 17872      61736B00 
 17873              	.LASF610:
 17874 021c 49324343 		.ascii	"I2CConfig\000"
 17874      6F6E6669 
 17874      6700
 17875              	.LASF166:
 17876 0226 75696E74 		.ascii	"uint16_t\000"
 17876      31365F74 
 17876      00
 17877              	.LASF617:
 17878 022f 646D6174 		.ascii	"dmatx\000"
 17878      7800
 17879              	.LASF854:
 17880 0235 736F665F 		.ascii	"sof_cb\000"
 17880      636200
 17881              	.LASF554:
 17882 023c 4558545F 		.ascii	"EXT_ACTIVE\000"
 17882      41435449 
 17882      564500
 17883              	.LASF61:
 17884 0247 5F666C61 		.ascii	"_flags\000"
 17884      677300
 17885              	.LASF450:
 17886 024e 6F737065 		.ascii	"ospeedr\000"
 17886      65647200 
 17887              	.LASF891:
 17888 0256 676F546F 		.ascii	"goTo\000"
 17888      00
 17889              	.LASF787:
 17890 025b 44494550 		.ascii	"DIEPTXF\000"
 17890      54584600 
 17891              	.LASF396:
 17892 0263 656C5F6E 		.ascii	"el_next\000"
 17892      65787400 
 17893              	.LASF477:
 17894 026b 4144435F 		.ascii	"ADC_ERR_OVERFLOW\000"
 17894      4552525F 
 17894      4F564552 
 17894      464C4F57 
 17894      00
 17895              	.LASF930:
 17896 027c 6D6F645F 		.ascii	"mod_img_init\000"
 17896      696D675F 
 17896      696E6974 
 17896      00
 17897              	.LASF92:
 17898 0289 5F637674 		.ascii	"_cvtlen\000"
 17898      6C656E00 
 17899              	.LASF234:
 17900 0291 6C6F636B 		.ascii	"lock_cnt\000"
 17900      5F636E74 
 17900      00
 17901              	.LASF210:
 17902 029a 63685F74 		.ascii	"ch_threads_queue\000"
 17902      68726561 
ARM GAS  /var/folders/qd/4mxf5pkd0zdf0b9dd1hp39180000gn/T//ccn3RVaQ.s 			page 318


 17902      64735F71 
 17902      75657565 
 17902      00
 17903              	.LASF136:
 17904 02ab 5F5F6664 		.ascii	"__fdlibm_svid\000"
 17904      6C69626D 
 17904      5F737669 
 17904      6400
 17905              	.LASF96:
 17906 02b9 5F736967 		.ascii	"_sig_func\000"
 17906      5F66756E 
 17906      6300
 17907              	.LASF189:
 17908 02c3 705F6E65 		.ascii	"p_newer\000"
 17908      77657200 
 17909              	.LASF797:
 17910 02cb 48505254 		.ascii	"HPRT\000"
 17910      00
 17911              	.LASF946:
 17912 02d0 6D6F645F 		.ascii	"mod_mapping_getAreaCenter\000"
 17912      6D617070 
 17912      696E675F 
 17912      67657441 
 17912      72656143 
 17913              	.LASF751:
 17914 02ea 4843494E 		.ascii	"HCINT\000"
 17914      5400
 17915              	.LASF154:
 17916 02f0 726F626F 		.ascii	"robotDistance_t\000"
 17916      74446973 
 17916      74616E63 
 17916      655F7400 
 17917              	.LASF245:
 17918 0300 534D5052 		.ascii	"SMPR1\000"
 17918      3100
 17919              	.LASF246:
 17920 0306 534D5052 		.ascii	"SMPR2\000"
 17920      3200
 17921              	.LASF384:
 17922 030c 63665F6F 		.ascii	"cf_off_flags\000"
 17922      66665F66 
 17922      6C616773 
 17922      00
 17923              	.LASF74:
 17924 0319 5F6C6F63 		.ascii	"_lock\000"
 17924      6B00
 17925              	.LASF70:
 17926 031f 5F6E6275 		.ascii	"_nbuf\000"
 17926      6600
 17927              	.LASF690:
 17928 0325 5350495F 		.ascii	"SPI_STOP\000"
 17928      53544F50 
 17928      00
 17929              	.LASF128:
 17930 032e 5F756E75 		.ascii	"_unused\000"
 17930      73656400 
 17931              	.LASF456:
ARM GAS  /var/folders/qd/4mxf5pkd0zdf0b9dd1hp39180000gn/T//ccn3RVaQ.s 			page 319


 17932 0336 50424461 		.ascii	"PBData\000"
 17932      746100
 17933              	.LASF372:
 17934 033d 63685F73 		.ascii	"ch_size\000"
 17934      697A6500 
 17935              	.LASF793:
 17936 0345 48505458 		.ascii	"HPTXSTS\000"
 17936      53545300 
 17937              	.LASF449:
 17938 034d 6F747970 		.ascii	"otyper\000"
 17938      657200
 17939              	.LASF951:
 17940 0354 6D6F645F 		.ascii	"mod_mapping_getActualPosition\000"
 17940      6D617070 
 17940      696E675F 
 17940      67657441 
 17940      63747561 
 17941              	.LASF440:
 17942 0372 4F545950 		.ascii	"OTYPER\000"
 17942      455200
 17943              	.LASF533:
 17944 0379 64616370 		.ascii	"dacparams_t\000"
 17944      6172616D 
 17944      735F7400 
 17945              	.LASF668:
 17946 0385 5344435F 		.ascii	"SDC_MODE_1BIT\000"
 17946      4D4F4445 
 17946      5F314249 
 17946      5400
 17947              	.LASF749:
 17948 0393 48434348 		.ascii	"HCCHAR\000"
 17948      415200
 17949              	.LASF151:
 17950 039a 6D656173 		.ascii	"measurement_t\000"
 17950      7572656D 
 17950      656E745F 
 17950      7400
 17951              	.LASF183:
 17952 03a8 74687265 		.ascii	"thread_t\000"
 17952      61645F74 
 17952      00
 17953              	.LASF398:
 17954 03b1 656C5F65 		.ascii	"el_events\000"
 17954      76656E74 
 17954      7300
 17955              	.LASF637:
 17956 03bb 70776D73 		.ascii	"pwmstate_t\000"
 17956      74617465 
 17956      5F7400
 17957              	.LASF518:
 17958 03c6 736C6565 		.ascii	"sleep_event\000"
 17958      705F6576 
 17958      656E7400 
 17959              	.LASF228:
 17960 03d2 63685F76 		.ascii	"ch_virtual_timers_list\000"
 17960      69727475 
 17960      616C5F74 
ARM GAS  /var/folders/qd/4mxf5pkd0zdf0b9dd1hp39180000gn/T//ccn3RVaQ.s 			page 320


 17960      696D6572 
 17960      735F6C69 
 17961              	.LASF422:
 17962 03e9 76656374 		.ascii	"vector\000"
 17962      6F7200
 17963              	.LASF775:
 17964 03f0 47494E54 		.ascii	"GINTSTS\000"
 17964      53545300 
 17965              	.LASF909:
 17966 03f8 6368616E 		.ascii	"changeMotorsStateAsync\000"
 17966      67654D6F 
 17966      746F7273 
 17966      53746174 
 17966      65417379 
 17967              	.LASF167:
 17968 040f 696E7433 		.ascii	"int32_t\000"
 17968      325F7400 
 17969              	.LASF608:
 17970 0417 636C6F63 		.ascii	"clock_speed\000"
 17970      6B5F7370 
 17970      65656400 
 17971              	.LASF182:
 17972 0423 73797374 		.ascii	"systime_t\000"
 17972      696D655F 
 17972      7400
 17973              	.LASF551:
 17974 042d 44414344 		.ascii	"DACD2\000"
 17974      3200
 17975              	.LASF520:
 17976 0433 43414E44 		.ascii	"CANDriver\000"
 17976      72697665 
 17976      7200
 17977              	.LASF106:
 17978 043d 5F616464 		.ascii	"_add\000"
 17978      00
 17979              	.LASF299:
 17980 0442 4D304152 		.ascii	"M0AR\000"
 17980      00
 17981              	.LASF756:
 17982 0447 72657376 		.ascii	"resvd1c\000"
 17982      64316300 
 17983              	.LASF598:
 17984 044f 69326366 		.ascii	"i2cflags_t\000"
 17984      6C616773 
 17984      5F7400
 17985              	.LASF794:
 17986 045a 4841494E 		.ascii	"HAINT\000"
 17986      5400
 17987              	.LASF932:
 17988 0460 5F646267 		.ascii	"_dbg_check_lock\000"
 17988      5F636865 
 17988      636B5F6C 
 17988      6F636B00 
 17989              	.LASF160:
 17990 0470 61637475 		.ascii	"actualEnvironement_t\000"
 17990      616C456E 
 17990      7669726F 
ARM GAS  /var/folders/qd/4mxf5pkd0zdf0b9dd1hp39180000gn/T//ccn3RVaQ.s 			page 321


 17990      6E656D65 
 17990      6E745F74 
 17991              	.LASF652:
 17992 0485 53445F55 		.ascii	"SD_UNINIT\000"
 17992      4E494E49 
 17992      5400
 17993              	.LASF281:
 17994 048f 46413152 		.ascii	"FA1R\000"
 17994      00
 17995              	.LASF791:
 17996 0494 48464E55 		.ascii	"HFNUM\000"
 17996      4D00
 17997              	.LASF414:
 17998 049a 716E6F74 		.ascii	"qnotify_t\000"
 17998      6966795F 
 17998      7400
 17999              	.LASF473:
 18000 04a4 61646373 		.ascii	"adcstate_t\000"
 18000      74617465 
 18000      5F7400
 18001              	.LASF883:
 18002 04af 726F7461 		.ascii	"rotateAndMeasureWallsDistance\000"
 18002      7465416E 
 18002      644D6561 
 18002      73757265 
 18002      57616C6C 
 18003              	.LASF676:
 18004 04cd 63617264 		.ascii	"cardmode\000"
 18004      6D6F6465 
 18004      00
 18005              	.LASF420:
 18006 04d6 69736869 		.ascii	"ishift\000"
 18006      667400
 18007              	.LASF568:
 18008 04dd 4750545F 		.ascii	"GPT_ONESHOT\000"
 18008      4F4E4553 
 18008      484F5400 
 18009              	.LASF409:
 18010 04e9 715F746F 		.ascii	"q_top\000"
 18010      7000
 18011              	.LASF63:
 18012 04ef 5F6C6266 		.ascii	"_lbfsize\000"
 18012      73697A65 
 18012      00
 18013              	.LASF742:
 18014 04f8 75645F73 		.ascii	"ud_string\000"
 18014      7472696E 
 18014      6700
 18015              	.LASF611:
 18016 0502 49324344 		.ascii	"I2CDriver\000"
 18016      72697665 
 18016      7200
 18017              	.LASF593:
 18018 050c 4932435F 		.ascii	"I2C_ACTIVE_TX\000"
 18018      41435449 
 18018      56455F54 
 18018      5800
ARM GAS  /var/folders/qd/4mxf5pkd0zdf0b9dd1hp39180000gn/T//ccn3RVaQ.s 			page 322


 18019              	.LASF663:
 18020 051a 72656164 		.ascii	"read\000"
 18020      00
 18021              	.LASF599:
 18022 051f 4F504D4F 		.ascii	"OPMODE_I2C\000"
 18022      44455F49 
 18022      324300
 18023              	.LASF803:
 18024 052a 72657376 		.ascii	"resvd80C\000"
 18024      64383043 
 18024      00
 18025              	.LASF851:
 18026 0533 6576656E 		.ascii	"event_cb\000"
 18026      745F6362 
 18026      00
 18027              	.LASF770:
 18028 053c 474F5447 		.ascii	"GOTGCTL\000"
 18028      43544C00 
 18029              	.LASF953:
 18030 0544 6D6F645F 		.ascii	"mod_mapping_checkEnvironment\000"
 18030      6D617070 
 18030      696E675F 
 18030      63686563 
 18030      6B456E76 
 18031              	.LASF745:
 18032 0561 75736265 		.ascii	"usbepcallback_t\000"
 18032      7063616C 
 18032      6C626163 
 18032      6B5F7400 
 18033              	.LASF73:
 18034 0571 5F646174 		.ascii	"_data\000"
 18034      6100
 18035              	.LASF239:
 18036 0577 76746C69 		.ascii	"vtlist\000"
 18036      737400
 18037              	.LASF945:
 18038 057e 66726565 		.ascii	"free\000"
 18038      00
 18039              	.LASF304:
 18040 0583 54524953 		.ascii	"TRISE\000"
 18040      4500
 18041              	.LASF809:
 18042 0589 72657376 		.ascii	"resvd824\000"
 18042      64383234 
 18042      00
 18043              	.LASF198:
 18044 0592 705F7761 		.ascii	"p_waiting\000"
 18044      6974696E 
 18044      6700
 18045              	.LASF354:
 18046 059c 6B65726E 		.ascii	"kernel_stats_t\000"
 18046      656C5F73 
 18046      74617473 
 18046      5F7400
 18047              	.LASF3:
 18048 05ab 64697363 		.ascii	"discovering\000"
 18048      6F766572 
ARM GAS  /var/folders/qd/4mxf5pkd0zdf0b9dd1hp39180000gn/T//ccn3RVaQ.s 			page 323


 18048      696E6700 
 18049              	.LASF406:
 18050 05b7 715F7761 		.ascii	"q_waiting\000"
 18050      6974696E 
 18050      6700
 18051              	.LASF263:
 18052 05c1 43414E5F 		.ascii	"CAN_TxMailBox_TypeDef\000"
 18052      54784D61 
 18052      696C426F 
 18052      785F5479 
 18052      70654465 
 18053              	.LASF238:
 18054 05d7 726C6973 		.ascii	"rlist\000"
 18054      7400
 18055              	.LASF207:
 18056 05dd 74687265 		.ascii	"threads_list_t\000"
 18056      6164735F 
 18056      6C697374 
 18056      5F7400
 18057              	.LASF344:
 18058 05ec 746D5F63 		.ascii	"tm_calibration_t\000"
 18058      616C6962 
 18058      72617469 
 18058      6F6E5F74 
 18058      00
 18059              	.LASF415:
 18060 05fd 696E7075 		.ascii	"input_queue_t\000"
 18060      745F7175 
 18060      6575655F 
 18060      7400
 18061              	.LASF500:
 18062 060b 41444343 		.ascii	"ADCConversionGroup\000"
 18062      6F6E7665 
 18062      7273696F 
 18062      6E47726F 
 18062      757000
 18063              	.LASF802:
 18064 061e 44535453 		.ascii	"DSTS\000"
 18064      00
 18065              	.LASF129:
 18066 0623 5F5F6C6F 		.ascii	"__lock\000"
 18066      636B00
 18067              	.LASF603:
 18068 062a 5354445F 		.ascii	"STD_DUTY_CYCLE\000"
 18068      44555459 
 18068      5F435943 
 18068      4C4500
 18069              	.LASF77:
 18070 0639 5F726565 		.ascii	"_reent\000"
 18070      6E7400
 18071              	.LASF380:
 18072 0640 63665F6F 		.ascii	"cf_off_older\000"
 18072      66665F6F 
 18072      6C646572 
 18072      00
 18073              	.LASF171:
 18074 064d 72747469 		.ascii	"rttime_t\000"
ARM GAS  /var/folders/qd/4mxf5pkd0zdf0b9dd1hp39180000gn/T//ccn3RVaQ.s 			page 324


 18074      6D655F74 
 18074      00
 18075              	.LASF563:
 18076 0656 45585444 		.ascii	"EXTD1\000"
 18076      3100
 18077              	.LASF836:
 18078 065c 72787175 		.ascii	"rxqueued\000"
 18078      65756564 
 18078      00
 18079              	.LASF511:
 18080 0665 63616E73 		.ascii	"canstate_t\000"
 18080      74617465 
 18080      5F7400
 18081              	.LASF283:
 18082 0670 7346696C 		.ascii	"sFilterRegister\000"
 18082      74657252 
 18082      65676973 
 18082      74657200 
 18083              	.LASF98:
 18084 0680 5F5F7366 		.ascii	"__sf\000"
 18084      00
 18085              	.LASF808:
 18086 0685 72657376 		.ascii	"resvd820\000"
 18086      64383230 
 18086      00
 18087              	.LASF58:
 18088 068e 5F626173 		.ascii	"_base\000"
 18088      6500
 18089              	.LASF969:
 18090 0694 5F5F7374 		.ascii	"__stack_chk_fail\000"
 18090      61636B5F 
 18090      63686B5F 
 18090      6661696C 
 18090      00
 18091              	.LASF310:
 18092 06a5 52455350 		.ascii	"RESP1\000"
 18092      3100
 18093              	.LASF311:
 18094 06ab 52455350 		.ascii	"RESP2\000"
 18094      3200
 18095              	.LASF312:
 18096 06b1 52455350 		.ascii	"RESP3\000"
 18096      3300
 18097              	.LASF313:
 18098 06b7 52455350 		.ascii	"RESP4\000"
 18098      3400
 18099              	.LASF115:
 18100 06bd 5F6D6274 		.ascii	"_mbtowc_state\000"
 18100      6F77635F 
 18100      73746174 
 18100      6500
 18101              	.LASF590:
 18102 06cb 4932435F 		.ascii	"I2C_UNINIT\000"
 18102      554E494E 
 18102      495400
 18103              	.LASF747:
 18104 06d6 75736272 		.ascii	"usbreqhandler_t\000"
ARM GAS  /var/folders/qd/4mxf5pkd0zdf0b9dd1hp39180000gn/T//ccn3RVaQ.s 			page 325


 18104      65716861 
 18104      6E646C65 
 18104      725F7400 
 18105              	.LASF471:
 18106 06e6 4144435F 		.ascii	"ADC_COMPLETE\000"
 18106      434F4D50 
 18106      4C455445 
 18106      00
 18107              	.LASF587:
 18108 06f3 47505443 		.ascii	"GPTConfig\000"
 18108      6F6E6669 
 18108      6700
 18109              	.LASF153:
 18110 06fd 726F7461 		.ascii	"rotation\000"
 18110      74696F6E 
 18110      00
 18111              	.LASF176:
 18112 0706 74707269 		.ascii	"tprio_t\000"
 18112      6F5F7400 
 18113              	.LASF350:
 18114 070e 6E5F6972 		.ascii	"n_irq\000"
 18114      7100
 18115              	.LASF631:
 18116 0714 69327370 		.ascii	"i2spr\000"
 18116      7200
 18117              	.LASF937:
 18118 071a 63685379 		.ascii	"chSysHalt\000"
 18118      7348616C 
 18118      7400
 18119              	.LASF904:
 18120 0724 6D6F7665 		.ascii	"moveAndComputePositionRobotSpeedType\000"
 18120      416E6443 
 18120      6F6D7075 
 18120      7465506F 
 18120      73697469 
 18121              	.LASF902:
 18122 0749 6D6F7665 		.ascii	"moveWheelSpeedType\000"
 18122      57686565 
 18122      6C537065 
 18122      65645479 
 18122      706500
 18123              	.LASF812:
 18124 075c 72657376 		.ascii	"resvd830\000"
 18124      64383330 
 18124      00
 18125              	.LASF39:
 18126 0765 5F5F746D 		.ascii	"__tm\000"
 18126      00
 18127              	.LASF814:
 18128 076a 72657376 		.ascii	"resvd838\000"
 18128      64383338 
 18128      00
 18129              	.LASF606:
 18130 0773 69326364 		.ascii	"i2cdutycycle_t\000"
 18130      75747963 
 18130      79636C65 
 18130      5F7400
ARM GAS  /var/folders/qd/4mxf5pkd0zdf0b9dd1hp39180000gn/T//ccn3RVaQ.s 			page 326


 18131              	.LASF815:
 18132 0782 72657376 		.ascii	"resvd83C\000"
 18132      64383343 
 18132      00
 18133              	.LASF948:
 18134 078b 6D6F645F 		.ascii	"mod_mapping_checkEnvironmentLimitsRobotReferencial\000"
 18134      6D617070 
 18134      696E675F 
 18134      63686563 
 18134      6B456E76 
 18135              	.LASF485:
 18136 07be 74687265 		.ascii	"thread\000"
 18136      616400
 18137              	.LASF530:
 18138 07c5 72656773 		.ascii	"regshift\000"
 18138      68696674 
 18138      00
 18139              	.LASF710:
 18140 07ce 73657475 		.ascii	"setup\000"
 18140      7000
 18141              	.LASF689:
 18142 07d4 5350495F 		.ascii	"SPI_UNINIT\000"
 18142      554E494E 
 18142      495400
 18143              	.LASF763:
 18144 07df 44545846 		.ascii	"DTXFSTS\000"
 18144      53545300 
 18145              	.LASF435:
 18146 07e7 626C6B5F 		.ascii	"blk_size\000"
 18146      73697A65 
 18146      00
 18147              	.LASF592:
 18148 07f0 4932435F 		.ascii	"I2C_READY\000"
 18148      52454144 
 18148      5900
 18149              	.LASF864:
 18150 07fa 6368616E 		.ascii	"changeMotorsStateAsync_wa\000"
 18150      67654D6F 
 18150      746F7273 
 18150      53746174 
 18150      65417379 
 18151              	.LASF47:
 18152 0814 5F5F746D 		.ascii	"__tm_yday\000"
 18152      5F796461 
 18152      7900
 18153              	.LASF954:
 18154 081e 6D6F645F 		.ascii	"mod_sensors_getValueTOF\000"
 18154      73656E73 
 18154      6F72735F 
 18154      67657456 
 18154      616C7565 
 18155              	.LASF704:
 18156 0836 696E5F70 		.ascii	"in_params\000"
 18156      6172616D 
 18156      7300
 18157              	.LASF577:
 18158 0840 43434552 		.ascii	"CCER\000"
ARM GAS  /var/folders/qd/4mxf5pkd0zdf0b9dd1hp39180000gn/T//ccn3RVaQ.s 			page 327


 18158      00
 18159              	.LASF326:
 18160 0845 49325350 		.ascii	"I2SPR\000"
 18160      5200
 18161              	.LASF634:
 18162 084b 50574D5F 		.ascii	"PWM_UNINIT\000"
 18162      554E494E 
 18162      495400
 18163              	.LASF345:
 18164 0856 62657374 		.ascii	"best\000"
 18164      00
 18165              	.LASF772:
 18166 085b 47414842 		.ascii	"GAHBCFG\000"
 18166      43464700 
 18167              	.LASF540:
 18168 0863 64616363 		.ascii	"daccallback_t\000"
 18168      616C6C62 
 18168      61636B5F 
 18168      7400
 18169              	.LASF22:
 18170 0871 5F4C4F43 		.ascii	"_LOCK_T\000"
 18170      4B5F5400 
 18171              	.LASF816:
 18172 0879 72657376 		.ascii	"resvd840\000"
 18172      64383430 
 18172      00
 18173              	.LASF322:
 18174 0882 43524350 		.ascii	"CRCPR\000"
 18174      5200
 18175              	.LASF430:
 18176 0888 424C4B5F 		.ascii	"BLK_READY\000"
 18176      52454144 
 18176      5900
 18177              	.LASF13:
 18178 0892 5F5F696E 		.ascii	"__int16_t\000"
 18178      7431365F 
 18178      7400
 18179              	.LASF15:
 18180 089c 5F5F7569 		.ascii	"__uint16_t\000"
 18180      6E743136 
 18180      5F7400
 18181              	.LASF567:
 18182 08a7 4750545F 		.ascii	"GPT_CONTINUOUS\000"
 18182      434F4E54 
 18182      494E554F 
 18182      555300
 18183              	.LASF830:
 18184 08b6 74787175 		.ascii	"txqueued\000"
 18184      65756564 
 18184      00
 18185              	.LASF200:
 18186 08bf 705F6D73 		.ascii	"p_msg\000"
 18186      6700
 18187              	.LASF107:
 18188 08c5 5F756E75 		.ascii	"_unused_rand\000"
 18188      7365645F 
 18188      72616E64 
ARM GAS  /var/folders/qd/4mxf5pkd0zdf0b9dd1hp39180000gn/T//ccn3RVaQ.s 			page 328


 18188      00
 18189              	.LASF769:
 18190 08d2 73746D33 		.ascii	"stm32_otg_out_ep_t\000"
 18190      325F6F74 
 18190      675F6F75 
 18190      745F6570 
 18190      5F7400
 18191              	.LASF778:
 18192 08e5 47525853 		.ascii	"GRXSTSP\000"
 18192      54535000 
 18193              	.LASF777:
 18194 08ed 47525853 		.ascii	"GRXSTSR\000"
 18194      54535200 
 18195              	.LASF356:
 18196 08f5 65786974 		.ascii	"exitcode\000"
 18196      636F6465 
 18196      00
 18197              	.LASF300:
 18198 08fe 4D314152 		.ascii	"M1AR\000"
 18198      00
 18199              	.LASF717:
 18200 0903 77616974 		.ascii	"wait\000"
 18200      00
 18201              	.LASF301:
 18202 0908 444D415F 		.ascii	"DMA_Stream_TypeDef\000"
 18202      53747265 
 18202      616D5F54 
 18202      79706544 
 18202      656600
 18203              	.LASF724:
 18204 091b 5553425F 		.ascii	"USB_ACTIVE\000"
 18204      41435449 
 18204      564500
 18205              	.LASF927:
 18206 0926 6D6F645F 		.ascii	"mod_sensors_initSensors\000"
 18206      73656E73 
 18206      6F72735F 
 18206      696E6974 
 18206      53656E73 
 18207              	.LASF765:
 18208 093e 73746D33 		.ascii	"stm32_otg_in_ep_t\000"
 18208      325F6F74 
 18208      675F696E 
 18208      5F65705F 
 18208      7400
 18209              	.LASF838:
 18210 0950 7278636E 		.ascii	"rxcnt\000"
 18210      7400
 18211              	.LASF467:
 18212 0956 4144435F 		.ascii	"ADC_UNINIT\000"
 18212      554E494E 
 18212      495400
 18213              	.LASF614:
 18214 0961 7278646D 		.ascii	"rxdmamode\000"
 18214      616D6F64 
 18214      6500
 18215              	.LASF89:
ARM GAS  /var/folders/qd/4mxf5pkd0zdf0b9dd1hp39180000gn/T//ccn3RVaQ.s 			page 329


 18216 096b 5F726573 		.ascii	"_result_k\000"
 18216      756C745F 
 18216      6B00
 18217              	.LASF559:
 18218 0975 6D6F6465 		.ascii	"mode\000"
 18218      00
 18219              	.LASF81:
 18220 097a 5F737464 		.ascii	"_stderr\000"
 18220      65727200 
 18221              	.LASF88:
 18222 0982 5F726573 		.ascii	"_result\000"
 18222      756C7400 
 18223              	.LASF369:
 18224 098a 6D5F636E 		.ascii	"m_cnt\000"
 18224      7400
 18225              	.LASF556:
 18226 0990 45585444 		.ascii	"EXTDriver\000"
 18226      72697665 
 18226      7200
 18227              	.LASF51:
 18228 099a 5F64736F 		.ascii	"_dso_handle\000"
 18228      5F68616E 
 18228      646C6500 
 18229              	.LASF626:
 18230 09a6 69327363 		.ascii	"i2scallback_t\000"
 18230      616C6C62 
 18230      61636B5F 
 18230      7400
 18231              	.LASF698:
 18232 09b4 73737061 		.ascii	"sspad\000"
 18232      6400
 18233              	.LASF615:
 18234 09ba 7478646D 		.ascii	"txdmamode\000"
 18234      616D6F64 
 18234      6500
 18235              	.LASF583:
 18236 09c4 67707466 		.ascii	"gptfreq_t\000"
 18236      7265715F 
 18236      7400
 18237              	.LASF887:
 18238 09ce 7369676E 		.ascii	"signalEndMovement\000"
 18238      616C456E 
 18238      644D6F76 
 18238      656D656E 
 18238      7400
 18239              	.LASF46:
 18240 09e0 5F5F746D 		.ascii	"__tm_wday\000"
 18240      5F776461 
 18240      7900
 18241              	.LASF48:
 18242 09ea 5F5F746D 		.ascii	"__tm_isdst\000"
 18242      5F697364 
 18242      737400
 18243              	.LASF159:
 18244 09f5 6B6E6F77 		.ascii	"knownObjectsLocation\000"
 18244      6E4F626A 
 18244      65637473 
ARM GAS  /var/folders/qd/4mxf5pkd0zdf0b9dd1hp39180000gn/T//ccn3RVaQ.s 			page 330


 18244      4C6F6361 
 18244      74696F6E 
 18245              	.LASF823:
 18246 0a0a 72785F66 		.ascii	"rx_fifo_size\000"
 18246      69666F5F 
 18246      73697A65 
 18246      00
 18247              	.LASF139:
 18248 0a17 5F5F6664 		.ascii	"__fdlib_version\000"
 18248      6C69625F 
 18248      76657273 
 18248      696F6E00 
 18249              	.LASF538:
 18250 0a27 4441435F 		.ascii	"DAC_ERR_UNDERFLOW\000"
 18250      4552525F 
 18250      554E4445 
 18250      52464C4F 
 18250      5700
 18251              	.LASF519:
 18252 0a39 77616B65 		.ascii	"wakeup_event\000"
 18252      75705F65 
 18252      76656E74 
 18252      00
 18253              	.LASF223:
 18254 0a46 76745F70 		.ascii	"vt_prev\000"
 18254      72657600 
 18255              	.LASF942:
 18256 0a4e 6D616C6C 		.ascii	"malloc\000"
 18256      6F6300
 18257              	.LASF493:
 18258 0a55 656E645F 		.ascii	"end_cb\000"
 18258      636200
 18259              	.LASF926:
 18260 0a5c 63685468 		.ascii	"chThdCreateStatic\000"
 18260      64437265 
 18260      61746553 
 18260      74617469 
 18260      6300
 18261              	.LASF841:
 18262 0a6e 73657475 		.ascii	"setup_cb\000"
 18262      705F6362 
 18262      00
 18263              	.LASF12:
 18264 0a77 756E7369 		.ascii	"unsigned char\000"
 18264      676E6564 
 18264      20636861 
 18264      7200
 18265              	.LASF80:
 18266 0a85 5F737464 		.ascii	"_stdout\000"
 18266      6F757400 
 18267              	.LASF320:
 18268 0a8d 4649464F 		.ascii	"FIFO\000"
 18268      00
 18269              	.LASF341:
 18270 0a92 74625F62 		.ascii	"tb_buffer\000"
 18270      75666665 
 18270      7200
ARM GAS  /var/folders/qd/4mxf5pkd0zdf0b9dd1hp39180000gn/T//ccn3RVaQ.s 			page 331


 18271              	.LASF513:
 18272 0a9c 74787175 		.ascii	"txqueue\000"
 18272      65756500 
 18273              	.LASF364:
 18274 0aa4 735F636E 		.ascii	"s_cnt\000"
 18274      7400
 18275              	.LASF211:
 18276 0aaa 72656164 		.ascii	"ready_list_t\000"
 18276      795F6C69 
 18276      73745F74 
 18276      00
 18277              	.LASF184:
 18278 0ab7 63685F74 		.ascii	"ch_thread\000"
 18278      68726561 
 18278      6400
 18279              	.LASF601:
 18280 0ac1 4F504D4F 		.ascii	"OPMODE_SMBUS_HOST\000"
 18280      44455F53 
 18280      4D425553 
 18280      5F484F53 
 18280      5400
 18281              	.LASF901:
 18282 0ad3 77686565 		.ascii	"wheelSpeed\000"
 18282      6C537065 
 18282      656400
 18283              	.LASF122:
 18284 0ade 5F6D6273 		.ascii	"_mbsrtowcs_state\000"
 18284      72746F77 
 18284      63735F73 
 18284      74617465 
 18284      00
 18285              	.LASF719:
 18286 0aef 75736265 		.ascii	"usbep_t\000"
 18286      705F7400 
 18287              	.LASF37:
 18288 0af7 5F776473 		.ascii	"_wds\000"
 18288      00
 18289              	.LASF2:
 18290 0afc 666C6F61 		.ascii	"float\000"
 18290      7400
 18291              	.LASF552:
 18292 0b02 4558545F 		.ascii	"EXT_UNINIT\000"
 18292      554E494E 
 18292      495400
 18293              	.LASF510:
 18294 0b0d 43414E5F 		.ascii	"CAN_SLEEP\000"
 18294      534C4545 
 18294      5000
 18295              	.LASF337:
 18296 0b17 73655F73 		.ascii	"se_state\000"
 18296      74617465 
 18296      00
 18297              	.LASF59:
 18298 0b20 5F73697A 		.ascii	"_size\000"
 18298      6500
 18299              	.LASF688:
 18300 0b26 53444344 		.ascii	"SDCD1\000"
ARM GAS  /var/folders/qd/4mxf5pkd0zdf0b9dd1hp39180000gn/T//ccn3RVaQ.s 			page 332


 18300      3100
 18301              	.LASF230:
 18302 0b2c 73797374 		.ascii	"system_debug_t\000"
 18302      656D5F64 
 18302      65627567 
 18302      5F7400
 18303              	.LASF288:
 18304 0b3b 44485238 		.ascii	"DHR8R1\000"
 18304      523100
 18305              	.LASF291:
 18306 0b42 44485238 		.ascii	"DHR8R2\000"
 18306      523200
 18307              	.LASF574:
 18308 0b49 44494552 		.ascii	"DIER\000"
 18308      00
 18309              	.LASF188:
 18310 0b4e 705F6374 		.ascii	"p_ctx\000"
 18310      7800
 18311              	.LASF226:
 18312 0b54 76745F70 		.ascii	"vt_par\000"
 18312      617200
 18313              	.LASF247:
 18314 0b5b 4A4F4652 		.ascii	"JOFR1\000"
 18314      3100
 18315              	.LASF248:
 18316 0b61 4A4F4652 		.ascii	"JOFR2\000"
 18316      3200
 18317              	.LASF250:
 18318 0b67 4A4F4652 		.ascii	"JOFR4\000"
 18318      3400
 18319              	.LASF142:
 18320 0b6d 77686565 		.ascii	"wheelSpeed_t\000"
 18320      6C537065 
 18320      65645F74 
 18320      00
 18321              	.LASF66:
 18322 0b7a 5F777269 		.ascii	"_write\000"
 18322      746500
 18323              	.LASF324:
 18324 0b81 54584352 		.ascii	"TXCRCR\000"
 18324      435200
 18325              	.LASF545:
 18326 0b88 64616364 		.ascii	"dacdhrmode_t\000"
 18326      68726D6F 
 18326      64655F74 
 18326      00
 18327              	.LASF487:
 18328 0b95 646D6173 		.ascii	"dmastp\000"
 18328      747000
 18329              	.LASF605:
 18330 0b9c 46415354 		.ascii	"FAST_DUTY_CYCLE_16_9\000"
 18330      5F445554 
 18330      595F4359 
 18330      434C455F 
 18330      31365F39 
 18331              	.LASF169:
 18332 0bb1 75696E74 		.ascii	"uint64_t\000"
ARM GAS  /var/folders/qd/4mxf5pkd0zdf0b9dd1hp39180000gn/T//ccn3RVaQ.s 			page 333


 18332      36345F74 
 18332      00
 18333              	.LASF351:
 18334 0bba 6E5F6374 		.ascii	"n_ctxswc\000"
 18334      78737763 
 18334      00
 18335              	.LASF884:
 18336 0bc3 6E756D62 		.ascii	"number\000"
 18336      657200
 18337              	.LASF897:
 18338 0bca 726F626F 		.ascii	"robotDistance\000"
 18338      74446973 
 18338      74616E63 
 18338      6500
 18339              	.LASF389:
 18340 0bd8 63685F64 		.ascii	"ch_debug\000"
 18340      65627567 
 18340      00
 18341              	.LASF548:
 18342 0be1 696E6974 		.ascii	"init\000"
 18342      00
 18343              	.LASF275:
 18344 0be6 464D3152 		.ascii	"FM1R\000"
 18344      00
 18345              	.LASF464:
 18346 0beb 50414C43 		.ascii	"PALConfig\000"
 18346      6F6E6669 
 18346      6700
 18347              	.LASF832:
 18348 0bf5 7478636E 		.ascii	"txcnt\000"
 18348      7400
 18349              	.LASF746:
 18350 0bfb 75736265 		.ascii	"usbeventcb_t\000"
 18350      76656E74 
 18350      63625F74 
 18350      00
 18351              	.LASF427:
 18352 0c08 424C4B5F 		.ascii	"BLK_ACTIVE\000"
 18352      41435449 
 18352      564500
 18353              	.LASF45:
 18354 0c13 5F5F746D 		.ascii	"__tm_year\000"
 18354      5F796561 
 18354      7200
 18355              	.LASF394:
 18356 0c1d 6576656E 		.ascii	"event_listener_t\000"
 18356      745F6C69 
 18356      7374656E 
 18356      65725F74 
 18356      00
 18357              	.LASF824:
 18358 0c2e 6F74675F 		.ascii	"otg_ram_size\000"
 18358      72616D5F 
 18358      73697A65 
 18358      00
 18359              	.LASF826:
 18360 0c3b 73746D33 		.ascii	"stm32_otg_params_t\000"
ARM GAS  /var/folders/qd/4mxf5pkd0zdf0b9dd1hp39180000gn/T//ccn3RVaQ.s 			page 334


 18360      325F6F74 
 18360      675F7061 
 18360      72616D73 
 18360      5F7400
 18361              	.LASF819:
 18362 0c4e 72657376 		.ascii	"resvdD00\000"
 18362      64443030 
 18362      00
 18363              	.LASF323:
 18364 0c57 52584352 		.ascii	"RXCRCR\000"
 18364      435200
 18365              	.LASF835:
 18366 0c5e 72786275 		.ascii	"rxbuf\000"
 18366      6600
 18367              	.LASF105:
 18368 0c64 5F6D756C 		.ascii	"_mult\000"
 18368      7400
 18369              	.LASF365:
 18370 0c6a 63685F6D 		.ascii	"ch_mutex\000"
 18370      75746578 
 18370      00
 18371              	.LASF941:
 18372 0c73 6D6F645F 		.ascii	"mod_mapping_resetCoordinates\000"
 18372      6D617070 
 18372      696E675F 
 18372      72657365 
 18372      74436F6F 
 18373              	.LASF966:
 18374 0c90 2F557365 		.ascii	"/Users/nicolas/Library/Mobile Documents/com~apple~C"
 18374      72732F6E 
 18374      69636F6C 
 18374      61732F4C 
 18374      69627261 
 18375 0cc3 6C6F7564 		.ascii	"loudDocs/Projects/Cours/epuck_project/Sources\000"
 18375      446F6373 
 18375      2F50726F 
 18375      6A656374 
 18375      732F436F 
 18376              	.LASF638:
 18377 0cf1 50574D44 		.ascii	"PWMDriver\000"
 18377      72697665 
 18377      7200
 18378              	.LASF461:
 18379 0cfb 50474461 		.ascii	"PGData\000"
 18379      746100
 18380              	.LASF647:
 18381 0d02 50574D43 		.ascii	"PWMConfig\000"
 18381      6F6E6669 
 18381      6700
 18382              	.LASF120:
 18383 0d0c 5F6D6272 		.ascii	"_mbrlen_state\000"
 18383      6C656E5F 
 18383      73746174 
 18383      6500
 18384              	.LASF900:
 18385 0d1a 64656C74 		.ascii	"deltaTime\000"
 18385      6154696D 
ARM GAS  /var/folders/qd/4mxf5pkd0zdf0b9dd1hp39180000gn/T//ccn3RVaQ.s 			page 335


 18385      6500
 18386              	.LASF903:
 18387 0d24 74696D65 		.ascii	"time\000"
 18387      00
 18388              	.LASF150:
 18389 0d29 76616C75 		.ascii	"value\000"
 18389      6500
 18390              	.LASF379:
 18391 0d2f 63665F6F 		.ascii	"cf_off_newer\000"
 18391      66665F6E 
 18391      65776572 
 18391      00
 18392              	.LASF804:
 18393 0d3c 44494550 		.ascii	"DIEPMSK\000"
 18393      4D534B00 
 18394              	.LASF771:
 18395 0d44 474F5447 		.ascii	"GOTGINT\000"
 18395      494E5400 
 18396              	.LASF843:
 18397 0d4c 6F75745F 		.ascii	"out_cb\000"
 18397      636200
 18398              	.LASF795:
 18399 0d53 4841494E 		.ascii	"HAINTMSK\000"
 18399      544D534B 
 18399      00
 18400              	.LASF705:
 18401 0d5c 6F75745F 		.ascii	"out_params\000"
 18401      70617261 
 18401      6D7300
 18402              	.LASF336:
 18403 0d67 73655F77 		.ascii	"se_wtobjp\000"
 18403      746F626A 
 18403      7000
 18404              	.LASF254:
 18405 0d71 4A535152 		.ascii	"JSQR\000"
 18405      00
 18406              	.LASF79:
 18407 0d76 5F737464 		.ascii	"_stdin\000"
 18407      696E00
 18408              	.LASF127:
 18409 0d7d 5F6E6D61 		.ascii	"_nmalloc\000"
 18409      6C6C6F63 
 18409      00
 18410              	.LASF586:
 18411 0d86 64696572 		.ascii	"dier\000"
 18411      00
 18412              	.LASF683:
 18413 0d8b 69735F70 		.ascii	"is_protected\000"
 18413      726F7465 
 18413      63746564 
 18413      00
 18414              	.LASF220:
 18415 0d98 76697274 		.ascii	"virtual_timer_t\000"
 18415      75616C5F 
 18415      74696D65 
 18415      725F7400 
 18416              	.LASF845:
ARM GAS  /var/folders/qd/4mxf5pkd0zdf0b9dd1hp39180000gn/T//ccn3RVaQ.s 			page 336


 18417 0da8 6F75745F 		.ascii	"out_maxsize\000"
 18417      6D617873 
 18417      697A6500 
 18418              	.LASF215:
 18419 0db4 725F6374 		.ascii	"r_ctx\000"
 18419      7800
 18420              	.LASF222:
 18421 0dba 76745F6E 		.ascii	"vt_next\000"
 18421      65787400 
 18422              	.LASF620:
 18423 0dc2 4932535F 		.ascii	"I2S_STOP\000"
 18423      53544F50 
 18423      00
 18424              	.LASF256:
 18425 0dcb 4A445232 		.ascii	"JDR2\000"
 18425      00
 18426              	.LASF635:
 18427 0dd0 50574D5F 		.ascii	"PWM_STOP\000"
 18427      53544F50 
 18427      00
 18428              	.LASF170:
 18429 0dd9 7274636E 		.ascii	"rtcnt_t\000"
 18429      745F7400 
 18430              	.LASF486:
 18431 0de1 6D757465 		.ascii	"mutex\000"
 18431      7800
 18432              	.LASF629:
 18433 0de7 73697A65 		.ascii	"size\000"
 18433      00
 18434              	.LASF865:
 18435 0dec 64697363 		.ascii	"discover_wa\000"
 18435      6F766572 
 18435      5F776100 
 18436              	.LASF534:
 18437 0df8 44414344 		.ascii	"DACDriver\000"
 18437      72697665 
 18437      7200
 18438              	.LASF550:
 18439 0e02 44414343 		.ascii	"DACConfig\000"
 18439      6F6E6669 
 18439      6700
 18440              	.LASF141:
 18441 0e0c 72696768 		.ascii	"right\000"
 18441      7400
 18442              	.LASF892:
 18443 0e12 6368616E 		.ascii	"changeAngleRelative\000"
 18443      6765416E 
 18443      676C6552 
 18443      656C6174 
 18443      69766500 
 18444              	.LASF716:
 18445 0e26 74787065 		.ascii	"txpending\000"
 18445      6E64696E 
 18445      6700
 18446              	.LASF571:
 18447 0e30 636C6F63 		.ascii	"clock\000"
 18447      6B00
ARM GAS  /var/folders/qd/4mxf5pkd0zdf0b9dd1hp39180000gn/T//ccn3RVaQ.s 			page 337


 18448              	.LASF438:
 18449 0e36 636C6561 		.ascii	"clear\000"
 18449      7200
 18450              	.LASF581:
 18451 0e3c 43435852 		.ascii	"CCXR\000"
 18451      00
 18452              	.LASF870:
 18453 0e41 6D6F645F 		.ascii	"mod_explo_explorateTheAreaOnThread\000"
 18453      6578706C 
 18453      6F5F6578 
 18453      706C6F72 
 18453      61746554 
 18454              	.LASF284:
 18455 0e64 43414E5F 		.ascii	"CAN_TypeDef\000"
 18455      54797065 
 18455      44656600 
 18456              	.LASF23:
 18457 0e70 5F6F6666 		.ascii	"_off_t\000"
 18457      5F7400
 18458              	.LASF131:
 18459 0e77 68697374 		.ascii	"history\000"
 18459      6F727900 
 18460              	.LASF331:
 18461 0e7f 73746B61 		.ascii	"stkalign_t\000"
 18461      6C69676E 
 18461      5F7400
 18462              	.LASF338:
 18463 0e8a 63685F73 		.ascii	"ch_swc_event_t\000"
 18463      77635F65 
 18463      76656E74 
 18463      5F7400
 18464              	.LASF653:
 18465 0e99 53445F53 		.ascii	"SD_STOP\000"
 18465      544F5000 
 18466              	.LASF750:
 18467 0ea1 72657376 		.ascii	"resvd8\000"
 18467      643800
 18468              	.LASF7:
 18469 0ea8 73697A65 		.ascii	"size_t\000"
 18469      5F7400
 18470              	.LASF110:
 18471 0eaf 5F6C6F63 		.ascii	"_localtime_buf\000"
 18471      616C7469 
 18471      6D655F62 
 18471      756600
 18472              	.LASF817:
 18473 0ebe 72657376 		.ascii	"resvd880\000"
 18473      64383830 
 18473      00
 18474              	.LASF28:
 18475 0ec7 5F5F636F 		.ascii	"__count\000"
 18475      756E7400 
 18476              	.LASF164:
 18477 0ecf 75696E74 		.ascii	"uint8_t\000"
 18477      385F7400 
 18478              	.LASF754:
 18479 0ed7 72657376 		.ascii	"resvd14\000"
ARM GAS  /var/folders/qd/4mxf5pkd0zdf0b9dd1hp39180000gn/T//ccn3RVaQ.s 			page 338


 18479      64313400 
 18480              	.LASF506:
 18481 0edf 43414E5F 		.ascii	"CAN_UNINIT\000"
 18481      554E494E 
 18481      495400
 18482              	.LASF755:
 18483 0eea 72657376 		.ascii	"resvd18\000"
 18483      64313800 
 18484              	.LASF217:
 18485 0ef2 725F6F6C 		.ascii	"r_older\000"
 18485      64657200 
 18486              	.LASF186:
 18487 0efa 705F7072 		.ascii	"p_prev\000"
 18487      657600
 18488              	.LASF381:
 18489 0f01 63665F6F 		.ascii	"cf_off_name\000"
 18489      66665F6E 
 18489      616D6500 
 18490              	.LASF646:
 18491 0f0d 50574D43 		.ascii	"PWMChannelConfig\000"
 18491      68616E6E 
 18491      656C436F 
 18491      6E666967 
 18491      00
 18492              	.LASF645:
 18493 0f1e 70776D63 		.ascii	"pwmcnt_t\000"
 18493      6E745F74 
 18493      00
 18494              	.LASF813:
 18495 0f27 44494550 		.ascii	"DIEPEMPMSK\000"
 18495      454D504D 
 18495      534B00
 18496              	.LASF758:
 18497 0f32 44494550 		.ascii	"DIEPCTL\000"
 18497      43544C00 
 18498              	.LASF400:
 18499 0f3a 656C5F77 		.ascii	"el_wflags\000"
 18499      666C6167 
 18499      7300
 18500              	.LASF714:
 18501 0f44 6F746770 		.ascii	"otgparams\000"
 18501      6172616D 
 18501      7300
 18502              	.LASF339:
 18503 0f4e 74625F73 		.ascii	"tb_size\000"
 18503      697A6500 
 18504              	.LASF458:
 18505 0f56 50444461 		.ascii	"PDData\000"
 18505      746100
 18506              	.LASF678:
 18507 0f5d 73637261 		.ascii	"scratchpad\000"
 18507      74636870 
 18507      616400
 18508              	.LASF93:
 18509 0f68 5F637674 		.ascii	"_cvtbuf\000"
 18509      62756600 
 18510              	.LASF847:
ARM GAS  /var/folders/qd/4mxf5pkd0zdf0b9dd1hp39180000gn/T//ccn3RVaQ.s 			page 339


 18511 0f70 6F75745F 		.ascii	"out_state\000"
 18511      73746174 
 18511      6500
 18512              	.LASF404:
 18513 0f7a 696F5F71 		.ascii	"io_queue_t\000"
 18513      75657565 
 18513      5F7400
 18514              	.LASF694:
 18515 0f85 73706973 		.ascii	"spistate_t\000"
 18515      74617465 
 18515      5F7400
 18516              	.LASF591:
 18517 0f90 4932435F 		.ascii	"I2C_STOP\000"
 18517      53544F50 
 18517      00
 18518              	.LASF613:
 18519 0f99 61646472 		.ascii	"addr\000"
 18519      00
 18520              	.LASF269:
 18521 0f9e 52463052 		.ascii	"RF0R\000"
 18521      00
 18522              	.LASF476:
 18523 0fa3 4144435F 		.ascii	"ADC_ERR_DMAFAILURE\000"
 18523      4552525F 
 18523      444D4146 
 18523      41494C55 
 18523      524500
 18524              	.LASF692:
 18525 0fb6 5350495F 		.ascii	"SPI_ACTIVE\000"
 18525      41435449 
 18525      564500
 18526              	.LASF328:
 18527 0fc1 47545052 		.ascii	"GTPR\000"
 18527      00
 18528              	.LASF560:
 18529 0fc6 45585443 		.ascii	"EXTChannelConfig\000"
 18529      68616E6E 
 18529      656C436F 
 18529      6E666967 
 18529      00
 18530              	.LASF441:
 18531 0fd7 4F535045 		.ascii	"OSPEEDR\000"
 18531      45445200 
 18532              	.LASF524:
 18533 0fdf 4441435F 		.ascii	"DAC_READY\000"
 18533      52454144 
 18533      5900
 18534              	.LASF782:
 18535 0fe9 72657376 		.ascii	"resvd30\000"
 18535      64333000 
 18536              	.LASF27:
 18537 0ff1 5F5F7763 		.ascii	"__wchb\000"
 18537      686200
 18538              	.LASF121:
 18539 0ff8 5F6D6272 		.ascii	"_mbrtowc_state\000"
 18539      746F7763 
 18539      5F737461 
ARM GAS  /var/folders/qd/4mxf5pkd0zdf0b9dd1hp39180000gn/T//ccn3RVaQ.s 			page 340


 18539      746500
 18540              	.LASF811:
 18541 1007 44564255 		.ascii	"DVBUSPULSE\000"
 18541      5350554C 
 18541      534500
 18542              	.LASF42:
 18543 1012 5F5F746D 		.ascii	"__tm_hour\000"
 18543      5F686F75 
 18543      7200
 18544              	.LASF426:
 18545 101c 424C4B5F 		.ascii	"BLK_STOP\000"
 18545      53544F50 
 18545      00
 18546              	.LASF661:
 18547 1025 53657269 		.ascii	"SerialDriverVMT\000"
 18547      616C4472 
 18547      69766572 
 18547      564D5400 
 18548              	.LASF732:
 18549 1035 5553425F 		.ascii	"USB_EP0_ERROR\000"
 18549      4550305F 
 18549      4552524F 
 18549      5200
 18550              	.LASF25:
 18551 1043 77696E74 		.ascii	"wint_t\000"
 18551      5F7400
 18552              	.LASF684:
 18553 104a 636F6E6E 		.ascii	"connect\000"
 18553      65637400 
 18554              	.LASF94:
 18555 1052 5F6E6577 		.ascii	"_new\000"
 18555      00
 18556              	.LASF479:
 18557 1057 41444344 		.ascii	"ADCDriver\000"
 18557      72697665 
 18557      7200
 18558              	.LASF825:
 18559 1061 6E756D5F 		.ascii	"num_endpoints\000"
 18559      656E6470 
 18559      6F696E74 
 18559      7300
 18560              	.LASF502:
 18561 106f 41444343 		.ascii	"ADCConfig\000"
 18561      6F6E6669 
 18561      6700
 18562              	.LASF833:
 18563 1079 746F7473 		.ascii	"totsize\000"
 18563      697A6500 
 18564              	.LASF101:
 18565 1081 5F6E696F 		.ascii	"_niobs\000"
 18565      627300
 18566              	.LASF382:
 18567 1088 63665F6F 		.ascii	"cf_off_stklimit\000"
 18567      66665F73 
 18567      746B6C69 
 18567      6D697400 
 18568              	.LASF654:
ARM GAS  /var/folders/qd/4mxf5pkd0zdf0b9dd1hp39180000gn/T//ccn3RVaQ.s 			page 341


 18569 1098 53445F52 		.ascii	"SD_READY\000"
 18569      45414459 
 18569      00
 18570              	.LASF748:
 18571 10a1 75736267 		.ascii	"usbgetdescriptor_t\000"
 18571      65746465 
 18571      73637269 
 18571      70746F72 
 18571      5F7400
 18572              	.LASF964:
 18573 10b4 474E5520 		.ascii	"GNU C11 7.2.1 20170904 (release) [ARM/embedded-7-br"
 18573      43313120 
 18573      372E322E 
 18573      31203230 
 18573      31373039 
 18574 10e7 616E6368 		.ascii	"anch revision 255204] -mcpu=cortex-m4 -mfloat-abi=h"
 18574      20726576 
 18574      6973696F 
 18574      6E203235 
 18574      35323034 
 18575 111a 61726420 		.ascii	"ard -mfpu=fpv4-sp-d16 -mno-thumb-interwork -mthumb "
 18575      2D6D6670 
 18575      753D6670 
 18575      76342D73 
 18575      702D6431 
 18576 114d 2D676764 		.ascii	"-ggdb -O2 -fomit-frame-pointer -falign-functions=16"
 18576      62202D4F 
 18576      32202D66 
 18576      6F6D6974 
 18576      2D667261 
 18577 1180 202D666E 		.ascii	" -fno-strict-aliasing -fstack-protector-all -ffunct"
 18577      6F2D7374 
 18577      72696374 
 18577      2D616C69 
 18577      6173696E 
 18578 11b3 696F6E2D 		.ascii	"ion-sections -fdata-sections -fno-common -fsingle-p"
 18578      73656374 
 18578      696F6E73 
 18578      202D6664 
 18578      6174612D 
 18579 11e6 72656369 		.ascii	"recision-constant\000"
 18579      73696F6E 
 18579      2D636F6E 
 18579      7374616E 
 18579      7400
 18580              	.LASF527:
 18581 11f8 4441435F 		.ascii	"DAC_ERROR\000"
 18581      4552524F 
 18581      5200
 18582              	.LASF218:
 18583 1202 725F6375 		.ascii	"r_current\000"
 18583      7272656E 
 18583      7400
 18584              	.LASF78:
 18585 120c 5F657272 		.ascii	"_errno\000"
 18585      6E6F00
 18586              	.LASF727:
ARM GAS  /var/folders/qd/4mxf5pkd0zdf0b9dd1hp39180000gn/T//ccn3RVaQ.s 			page 342


 18587 1213 5553425F 		.ascii	"USB_EP0_TX\000"
 18587      4550305F 
 18587      545800
 18588              	.LASF706:
 18589 121e 65703073 		.ascii	"ep0state\000"
 18589      74617465 
 18589      00
 18590              	.LASF43:
 18591 1227 5F5F746D 		.ascii	"__tm_mday\000"
 18591      5F6D6461 
 18591      7900
 18592              	.LASF872:
 18593 1231 6D6F645F 		.ascii	"mod_explo_initModule\000"
 18593      6578706C 
 18593      6F5F696E 
 18593      69744D6F 
 18593      64756C65 
 18594              	.LASF419:
 18595 1246 69666372 		.ascii	"ifcr\000"
 18595      00
 18596              	.LASF619:
 18597 124b 4932535F 		.ascii	"I2S_UNINIT\000"
 18597      554E494E 
 18597      495400
 18598              	.LASF447:
 18599 1256 73746D33 		.ascii	"stm32_gpio_t\000"
 18599      325F6770 
 18599      696F5F74 
 18599      00
 18600              	.LASF355:
 18601 1263 7264796D 		.ascii	"rdymsg\000"
 18601      736700
 18602              	.LASF50:
 18603 126a 5F666E61 		.ascii	"_fnargs\000"
 18603      72677300 
 18604              	.LASF636:
 18605 1272 50574D5F 		.ascii	"PWM_READY\000"
 18605      52454144 
 18605      5900
 18606              	.LASF260:
 18607 127c 54445452 		.ascii	"TDTR\000"
 18607      00
 18608              	.LASF268:
 18609 1281 43414E5F 		.ascii	"CAN_FilterRegister_TypeDef\000"
 18609      46696C74 
 18609      65725265 
 18609      67697374 
 18609      65725F54 
 18610              	.LASF517:
 18611 129c 6572726F 		.ascii	"error_event\000"
 18611      725F6576 
 18611      656E7400 
 18612              	.LASF492:
 18613 12a8 6E756D5F 		.ascii	"num_channels\000"
 18613      6368616E 
 18613      6E656C73 
 18613      00
ARM GAS  /var/folders/qd/4mxf5pkd0zdf0b9dd1hp39180000gn/T//ccn3RVaQ.s 			page 343


 18614              	.LASF249:
 18615 12b5 4A4F4652 		.ascii	"JOFR3\000"
 18615      3300
 18616              	.LASF785:
 18617 12bb 72657376 		.ascii	"resvd58\000"
 18617      64353800 
 18618              	.LASF834:
 18619 12c3 55534249 		.ascii	"USBInEndpointState\000"
 18619      6E456E64 
 18619      706F696E 
 18619      74537461 
 18619      746500
 18620              	.LASF148:
 18621 12d6 706F696E 		.ascii	"point_t\000"
 18621      745F7400 
 18622              	.LASF405:
 18623 12de 696F5F71 		.ascii	"io_queue\000"
 18623      75657565 
 18623      00
 18624              	.LASF962:
 18625 12e7 63684D73 		.ascii	"chMsgRelease\000"
 18625      6752656C 
 18625      65617365 
 18625      00
 18626              	.LASF455:
 18627 12f4 50414461 		.ascii	"PAData\000"
 18627      746100
 18628              	.LASF21:
 18629 12fb 5F5F7569 		.ascii	"__uint64_t\000"
 18629      6E743634 
 18629      5F7400
 18630              	.LASF34:
 18631 1306 5F6E6578 		.ascii	"_next\000"
 18631      7400
 18632              	.LASF641:
 18633 130c 70776D63 		.ascii	"pwmcallback_t\000"
 18633      616C6C62 
 18633      61636B5F 
 18633      7400
 18634              	.LASF535:
 18635 131a 70617261 		.ascii	"params\000"
 18635      6D7300
 18636              	.LASF731:
 18637 1321 5553425F 		.ascii	"USB_EP0_SENDING_STS\000"
 18637      4550305F 
 18637      53454E44 
 18637      494E475F 
 18637      53545300 
 18638              	.LASF118:
 18639 1335 5F736967 		.ascii	"_signal_buf\000"
 18639      6E616C5F 
 18639      62756600 
 18640              	.LASF950:
 18641 1341 6D6F645F 		.ascii	"mod_image_sendPicture\000"
 18641      696D6167 
 18641      655F7365 
 18641      6E645069 
ARM GAS  /var/folders/qd/4mxf5pkd0zdf0b9dd1hp39180000gn/T//ccn3RVaQ.s 			page 344


 18641      63747572 
 18642              	.LASF596:
 18643 1357 69326373 		.ascii	"i2cstate_t\000"
 18643      74617465 
 18643      5F7400
 18644              	.LASF64:
 18645 1362 5F636F6F 		.ascii	"_cookie\000"
 18645      6B696500 
 18646              	.LASF958:
 18647 136a 6D6F645F 		.ascii	"mod_motors_changeStateWheelSpeedType\000"
 18647      6D6F746F 
 18647      72735F63 
 18647      68616E67 
 18647      65537461 
 18648              	.LASF733:
 18649 138f 75736265 		.ascii	"usbep0state_t\000"
 18649      70307374 
 18649      6174655F 
 18649      7400
 18650              	.LASF539:
 18651 139d 64616365 		.ascii	"dacerror_t\000"
 18651      72726F72 
 18651      5F7400
 18652              	.LASF272:
 18653 13a8 7354784D 		.ascii	"sTxMailBox\000"
 18653      61696C42 
 18653      6F7800
 18654              	.LASF474:
 18655 13b3 61646373 		.ascii	"adcsample_t\000"
 18655      616D706C 
 18655      655F7400 
 18656              	.LASF572:
 18657 13bf 67707463 		.ascii	"gptcallback_t\000"
 18657      616C6C62 
 18657      61636B5F 
 18657      7400
 18658              	.LASF408:
 18659 13cd 715F6275 		.ascii	"q_buffer\000"
 18659      66666572 
 18659      00
 18660              	.LASF858:
 18661 13d6 6578706C 		.ascii	"explorationThread\000"
 18661      6F726174 
 18661      696F6E54 
 18661      68726561 
 18661      6400
 18662              	.LASF185:
 18663 13e8 705F6E65 		.ascii	"p_next\000"
 18663      787400
 18664              	.LASF618:
 18665 13ef 49324344 		.ascii	"I2CD1\000"
 18665      3100
 18666              	.LASF759:
 18667 13f5 72657376 		.ascii	"resvd4\000"
 18667      643400
 18668              	.LASF701:
 18669 13fc 55534244 		.ascii	"USBDriver\000"
ARM GAS  /var/folders/qd/4mxf5pkd0zdf0b9dd1hp39180000gn/T//ccn3RVaQ.s 			page 345


 18669      72697665 
 18669      7200
 18670              	.LASF818:
 18671 1406 72657376 		.ascii	"resvd8C0\000"
 18671      64384330 
 18671      00
 18672              	.LASF855:
 18673 140f 55534243 		.ascii	"USBConfig\000"
 18673      6F6E6669 
 18673      6700
 18674              	.LASF761:
 18675 1419 72657376 		.ascii	"resvdC\000"
 18675      644300
 18676              	.LASF648:
 18677 1420 50574D44 		.ascii	"PWMD2\000"
 18677      3200
 18678              	.LASF649:
 18679 1426 50574D44 		.ascii	"PWMD3\000"
 18679      3300
 18680              	.LASF650:
 18681 142c 50574D44 		.ascii	"PWMD4\000"
 18681      3400
 18682              	.LASF651:
 18683 1432 50574D44 		.ascii	"PWMD5\000"
 18683      3500
 18684              	.LASF158:
 18685 1438 6E65774F 		.ascii	"newObjectsLocation\000"
 18685      626A6563 
 18685      74734C6F 
 18685      63617469 
 18685      6F6E00
 18686              	.LASF659:
 18687 144b 6F717565 		.ascii	"oqueue\000"
 18687      756500
 18688              	.LASF957:
 18689 1452 6D6F645F 		.ascii	"mod_motors_convertRobotSpeedToWheelspeed\000"
 18689      6D6F746F 
 18689      72735F63 
 18689      6F6E7665 
 18689      7274526F 
 18690              	.LASF174:
 18691 147b 74726566 		.ascii	"trefs_t\000"
 18691      735F7400 
 18692              	.LASF204:
 18693 1483 705F6D70 		.ascii	"p_mpool\000"
 18693      6F6F6C00 
 18694              	.LASF306:
 18695 148b 4932435F 		.ascii	"I2C_TypeDef\000"
 18695      54797065 
 18695      44656600 
 18696              	.LASF547:
 18697 1497 44414343 		.ascii	"DACConversionGroup\000"
 18697      6F6E7665 
 18697      7273696F 
 18697      6E47726F 
 18697      757000
 18698              	.LASF40:
ARM GAS  /var/folders/qd/4mxf5pkd0zdf0b9dd1hp39180000gn/T//ccn3RVaQ.s 			page 346


 18699 14aa 5F5F746D 		.ascii	"__tm_sec\000"
 18699      5F736563 
 18699      00
 18700              	.LASF848:
 18701 14b3 696E5F6D 		.ascii	"in_multiplier\000"
 18701      756C7469 
 18701      706C6965 
 18701      7200
 18702              	.LASF472:
 18703 14c1 4144435F 		.ascii	"ADC_ERROR\000"
 18703      4552524F 
 18703      5200
 18704              	.LASF869:
 18705 14cb 6D6F645F 		.ascii	"mod_explo_sendTheMap\000"
 18705      6578706C 
 18705      6F5F7365 
 18705      6E645468 
 18705      654D6170 
 18706              	.LASF49:
 18707 14e0 5F6F6E5F 		.ascii	"_on_exit_args\000"
 18707      65786974 
 18707      5F617267 
 18707      7300
 18708              	.LASF332:
 18709 14ee 636F6E74 		.ascii	"context\000"
 18709      65787400 
 18710              	.LASF172:
 18711 14f6 746D6F64 		.ascii	"tmode_t\000"
 18711      655F7400 
 18712              	.LASF470:
 18713 14fe 4144435F 		.ascii	"ADC_ACTIVE\000"
 18713      41435449 
 18713      564500
 18714              	.LASF251:
 18715 1509 53515231 		.ascii	"SQR1\000"
 18715      00
 18716              	.LASF252:
 18717 150e 53515232 		.ascii	"SQR2\000"
 18717      00
 18718              	.LASF253:
 18719 1513 53515233 		.ascii	"SQR3\000"
 18719      00
 18720              	.LASF443:
 18721 1518 42535252 		.ascii	"BSRR\000"
 18721      00
 18722              	.LASF905:
 18723 151d 6D6F7665 		.ascii	"moveAndComputePositionWheelSpeedType\000"
 18723      416E6443 
 18723      6F6D7075 
 18723      7465506F 
 18723      73697469 
 18724              	.LASF423:
 18725 1542 73746D33 		.ascii	"stm32_dma_stream_t\000"
 18725      325F646D 
 18725      615F7374 
 18725      7265616D 
 18725      5F7400
ARM GAS  /var/folders/qd/4mxf5pkd0zdf0b9dd1hp39180000gn/T//ccn3RVaQ.s 			page 347


 18726              	.LASF893:
 18727 1555 6E657741 		.ascii	"newAbsolutePosition\000"
 18727      62736F6C 
 18727      75746550 
 18727      6F736974 
 18727      696F6E00 
 18728              	.LASF853:
 18729 1569 72657175 		.ascii	"requests_hook_cb\000"
 18729      65737473 
 18729      5F686F6F 
 18729      6B5F6362 
 18729      00
 18730              	.LASF123:
 18731 157a 5F776372 		.ascii	"_wcrtomb_state\000"
 18731      746F6D62 
 18731      5F737461 
 18731      746500
 18732              	.LASF670:
 18733 1589 5344435F 		.ascii	"SDC_MODE_8BIT\000"
 18733      4D4F4445 
 18733      5F384249 
 18733      5400
 18734              	.LASF146:
 18735 1597 74686574 		.ascii	"theta\000"
 18735      6100
 18736              	.LASF934:
 18737 159d 63685365 		.ascii	"chSemSignalI\000"
 18737      6D536967 
 18737      6E616C49 
 18737      00
 18738              	.LASF831:
 18739 15aa 74787369 		.ascii	"txsize\000"
 18739      7A6500
 18740              	.LASF944:
 18741 15b1 6D6F645F 		.ascii	"mod_mapping_computeWallLocation\000"
 18741      6D617070 
 18741      696E675F 
 18741      636F6D70 
 18741      75746557 
 18742              	.LASF147:
 18743 15d1 726F626F 		.ascii	"robotPosition_t\000"
 18743      74506F73 
 18743      6974696F 
 18743      6E5F7400 
 18744              	.LASF543:
 18745 15e1 4441435F 		.ascii	"DAC_DHRM_12BIT_LEFT\000"
 18745      4448524D 
 18745      5F313242 
 18745      49545F4C 
 18745      45465400 
 18746              	.LASF639:
 18747 15f5 70657269 		.ascii	"period\000"
 18747      6F6400
 18748              	.LASF366:
 18749 15fc 6D5F7175 		.ascii	"m_queue\000"
 18749      65756500 
 18750              	.LASF890:
ARM GAS  /var/folders/qd/4mxf5pkd0zdf0b9dd1hp39180000gn/T//ccn3RVaQ.s 			page 348


 18751 1604 6162736F 		.ascii	"absoluteAngle\000"
 18751      6C757465 
 18751      416E676C 
 18751      6500
 18752              	.LASF595:
 18753 1612 4932435F 		.ascii	"I2C_LOCKED\000"
 18753      4C4F434B 
 18753      454400
 18754              	.LASF965:
 18755 161d 2E2F6D6F 		.ascii	"./modules/mod_exploration.c\000"
 18755      64756C65 
 18755      732F6D6F 
 18755      645F6578 
 18755      706C6F72 
 18756              	.LASF233:
 18757 1639 6973725F 		.ascii	"isr_cnt\000"
 18757      636E7400 
 18758              	.LASF722:
 18759 1641 5553425F 		.ascii	"USB_READY\000"
 18759      52454144 
 18759      5900
 18760              	.LASF667:
 18761 164b 72656164 		.ascii	"readt\000"
 18761      7400
 18762              	.LASF774:
 18763 1651 47525354 		.ascii	"GRSTCTL\000"
 18763      43544C00 
 18764              	.LASF569:
 18765 1659 67707473 		.ascii	"gptstate_t\000"
 18765      74617465 
 18765      5F7400
 18766              	.LASF33:
 18767 1664 5F5F554C 		.ascii	"__ULong\000"
 18767      6F6E6700 
 18768              	.LASF232:
 18769 166c 70616E69 		.ascii	"panic_msg\000"
 18769      635F6D73 
 18769      6700
 18770              	.LASF693:
 18771 1676 5350495F 		.ascii	"SPI_COMPLETE\000"
 18771      434F4D50 
 18771      4C455445 
 18771      00
 18772              	.LASF314:
 18773 1683 4454494D 		.ascii	"DTIMER\000"
 18773      455200
 18774              	.LASF216:
 18775 168a 725F6E65 		.ascii	"r_newer\000"
 18775      77657200 
 18776              	.LASF911:
 18777 1692 6C617374 		.ascii	"lastOrderTime\000"
 18777      4F726465 
 18777      7254696D 
 18777      6500
 18778              	.LASF739:
 18779 16a0 5553425F 		.ascii	"USB_EVENT_STALLED\000"
 18779      4556454E 
ARM GAS  /var/folders/qd/4mxf5pkd0zdf0b9dd1hp39180000gn/T//ccn3RVaQ.s 			page 349


 18779      545F5354 
 18779      414C4C45 
 18779      4400
 18780              	.LASF388:
 18781 16b2 63686465 		.ascii	"chdebug_t\000"
 18781      6275675F 
 18781      7400
 18782              	.LASF935:
 18783 16bc 5F646267 		.ascii	"_dbg_check_unlock\000"
 18783      5F636865 
 18783      636B5F75 
 18783      6E6C6F63 
 18783      6B00
 18784              	.LASF837:
 18785 16ce 72787369 		.ascii	"rxsize\000"
 18785      7A6500
 18786              	.LASF753:
 18787 16d5 48435453 		.ascii	"HCTSIZ\000"
 18787      495A00
 18788              	.LASF6:
 18789 16dc 68697374 		.ascii	"history_t\000"
 18789      6F72795F 
 18789      7400
 18790              	.LASF736:
 18791 16e6 5553425F 		.ascii	"USB_EVENT_CONFIGURED\000"
 18791      4556454E 
 18791      545F434F 
 18791      4E464947 
 18791      55524544 
 18792              	.LASF685:
 18793 16fb 64697363 		.ascii	"disconnect\000"
 18793      6F6E6E65 
 18793      637400
 18794              	.LASF881:
 18795 1706 746F446F 		.ascii	"toDo\000"
 18795      00
 18796              	.LASF664:
 18797 170b 70757474 		.ascii	"putt\000"
 18797      00
 18798              	.LASF175:
 18799 1710 74736C69 		.ascii	"tslices_t\000"
 18799      6365735F 
 18799      7400
 18800              	.LASF108:
 18801 171a 5F737472 		.ascii	"_strtok_last\000"
 18801      746F6B5F 
 18801      6C617374 
 18801      00
 18802              	.LASF375:
 18803 1727 63685F74 		.ascii	"ch_timesize\000"
 18803      696D6573 
 18803      697A6500 
 18804              	.LASF594:
 18805 1733 4932435F 		.ascii	"I2C_ACTIVE_RX\000"
 18805      41435449 
 18805      56455F52 
 18805      5800
ARM GAS  /var/folders/qd/4mxf5pkd0zdf0b9dd1hp39180000gn/T//ccn3RVaQ.s 			page 350


 18806              	.LASF718:
 18807 1741 77615F70 		.ascii	"wa_pump\000"
 18807      756D7000 
 18808              	.LASF319:
 18809 1749 4649464F 		.ascii	"FIFOCNT\000"
 18809      434E5400 
 18810              	.LASF403:
 18811 1751 6576656E 		.ascii	"event_source_t\000"
 18811      745F736F 
 18811      75726365 
 18811      5F7400
 18812              	.LASF788:
 18813 1760 72657376 		.ascii	"resvd140\000"
 18813      64313430 
 18813      00
 18814              	.LASF224:
 18815 1769 76745F64 		.ascii	"vt_delta\000"
 18815      656C7461 
 18815      00
 18816              	.LASF104:
 18817 1772 5F736565 		.ascii	"_seed\000"
 18817      6400
 18818              	.LASF340:
 18819 1778 74625F70 		.ascii	"tb_ptr\000"
 18819      747200
 18820              	.LASF546:
 18821 177f 74726967 		.ascii	"trigger\000"
 18821      67657200 
 18822              	.LASF67:
 18823 1787 5F736565 		.ascii	"_seek\000"
 18823      6B00
 18824              	.LASF737:
 18825 178d 5553425F 		.ascii	"USB_EVENT_SUSPEND\000"
 18825      4556454E 
 18825      545F5355 
 18825      5350454E 
 18825      4400
 18826              	.LASF161:
 18827 179f 656E7669 		.ascii	"environment\000"
 18827      726F6E6D 
 18827      656E7400 
 18828              	.LASF163:
 18829 17ab 53454E44 		.ascii	"SEND_MAP\000"
 18829      5F4D4150 
 18829      00
 18830              	.LASF565:
 18831 17b4 4750545F 		.ascii	"GPT_STOP\000"
 18831      53544F50 
 18831      00
 18832              	.LASF259:
 18833 17bd 4144435F 		.ascii	"ADC_TypeDef\000"
 18833      54797065 
 18833      44656600 
 18834              	.LASF766:
 18835 17c9 444F4550 		.ascii	"DOEPCTL\000"
 18835      43544C00 
 18836              	.LASF16:
ARM GAS  /var/folders/qd/4mxf5pkd0zdf0b9dd1hp39180000gn/T//ccn3RVaQ.s 			page 351


 18837 17d1 73686F72 		.ascii	"short unsigned int\000"
 18837      7420756E 
 18837      7369676E 
 18837      65642069 
 18837      6E7400
 18838              	.LASF607:
 18839 17e4 6F705F6D 		.ascii	"op_mode\000"
 18839      6F646500 
 18840              	.LASF10:
 18841 17ec 7369676E 		.ascii	"signed char\000"
 18841      65642063 
 18841      68617200 
 18842              	.LASF644:
 18843 17f8 70776D63 		.ascii	"pwmchnmsk_t\000"
 18843      686E6D73 
 18843      6B5F7400 
 18844              	.LASF196:
 18845 1804 705F7072 		.ascii	"p_preempt\000"
 18845      65656D70 
 18845      7400
 18846              	.LASF621:
 18847 180e 4932535F 		.ascii	"I2S_READY\000"
 18847      52454144 
 18847      5900
 18848              	.LASF181:
 18849 1818 75636E74 		.ascii	"ucnt_t\000"
 18849      5F7400
 18850              	.LASF262:
 18851 181f 54444852 		.ascii	"TDHR\000"
 18851      00
 18852              	.LASF468:
 18853 1824 4144435F 		.ascii	"ADC_STOP\000"
 18853      53544F50 
 18853      00
 18854              	.LASF730:
 18855 182d 5553425F 		.ascii	"USB_EP0_RX\000"
 18855      4550305F 
 18855      525800
 18856              	.LASF135:
 18857 1838 5F5F6664 		.ascii	"__fdlibm_ieee\000"
 18857      6C69626D 
 18857      5F696565 
 18857      6500
 18858              	.LASF943:
 18859 1846 61737365 		.ascii	"assert\000"
 18859      727400
 18860              	.LASF642:
 18861 184d 70776D6D 		.ascii	"pwmmode_t\000"
 18861      6F64655F 
 18861      7400
 18862              	.LASF711:
 18863 1857 73746174 		.ascii	"status\000"
 18863      757300
 18864              	.LASF315:
 18865 185e 444C454E 		.ascii	"DLEN\000"
 18865      00
 18866              	.LASF669:
ARM GAS  /var/folders/qd/4mxf5pkd0zdf0b9dd1hp39180000gn/T//ccn3RVaQ.s 			page 352


 18867 1863 5344435F 		.ascii	"SDC_MODE_4BIT\000"
 18867      4D4F4445 
 18867      5F344249 
 18867      5400
 18868              	.LASF743:
 18869 1871 55534244 		.ascii	"USBDescriptor\000"
 18869      65736372 
 18869      6970746F 
 18869      7200
 18870              	.LASF856:
 18871 187f 55534244 		.ascii	"USBD1\000"
 18871      3100
 18872              	.LASF696:
 18873 1885 73706963 		.ascii	"spicallback_t\000"
 18873      616C6C62 
 18873      61636B5F 
 18873      7400
 18874              	.LASF91:
 18875 1893 5F667265 		.ascii	"_freelist\000"
 18875      656C6973 
 18875      7400
 18876              	.LASF712:
 18877 189d 61646472 		.ascii	"address\000"
 18877      65737300 
 18878              	.LASF199:
 18879 18a5 705F6D73 		.ascii	"p_msgqueue\000"
 18879      67717565 
 18879      756500
 18880              	.LASF385:
 18881 18b0 63665F6F 		.ascii	"cf_off_refs\000"
 18881      66665F72 
 18881      65667300 
 18882              	.LASF871:
 18883 18bc 6D6F645F 		.ascii	"mod_explo_discoverTheAreaOnThread\000"
 18883      6578706C 
 18883      6F5F6469 
 18883      73636F76 
 18883      65725468 
 18884              	.LASF383:
 18885 18de 63665F6F 		.ascii	"cf_off_state\000"
 18885      66665F73 
 18885      74617465 
 18885      00
 18886              	.LASF875:
 18887 18eb 746F476F 		.ascii	"toGo\000"
 18887      00
 18888              	.LASF367:
 18889 18f0 6D5F6F77 		.ascii	"m_owner\000"
 18889      6E657200 
 18890              	.LASF912:
 18891 18f8 63684253 		.ascii	"chBSemSignal\000"
 18891      656D5369 
 18891      676E616C 
 18891      00
 18892              	.LASF72:
 18893 1905 5F6F6666 		.ascii	"_offset\000"
 18893      73657400 
ARM GAS  /var/folders/qd/4mxf5pkd0zdf0b9dd1hp39180000gn/T//ccn3RVaQ.s 			page 353


 18894              	.LASF244:
 18895 190d 53797374 		.ascii	"SystemCoreClock\000"
 18895      656D436F 
 18895      7265436C 
 18895      6F636B00 
 18896              	.LASF490:
 18897 191d 61646365 		.ascii	"adcerrorcallback_t\000"
 18897      72726F72 
 18897      63616C6C 
 18897      6261636B 
 18897      5F7400
 18898              	.LASF928:
 18899 1930 6D6F645F 		.ascii	"mod_motors_init\000"
 18899      6D6F746F 
 18899      72735F69 
 18899      6E697400 
 18900              	.LASF525:
 18901 1940 4441435F 		.ascii	"DAC_ACTIVE\000"
 18901      41435449 
 18901      564500
 18902              	.LASF157:
 18903 194b 6E756D62 		.ascii	"numberOfknownObjects\000"
 18903      65724F66 
 18903      6B6E6F77 
 18903      6E4F626A 
 18903      65637473 
 18904              	.LASF480:
 18905 1960 73746174 		.ascii	"state\000"
 18905      6500
 18906              	.LASF373:
 18907 1966 63685F76 		.ascii	"ch_version\000"
 18907      65727369 
 18907      6F6E00
 18908              	.LASF57:
 18909 1971 5F5F7362 		.ascii	"__sbuf\000"
 18909      756600
 18910              	.LASF677:
 18911 1978 7364696F 		.ascii	"sdio\000"
 18911      00
 18912              	.LASF285:
 18913 197d 53575452 		.ascii	"SWTRIGR\000"
 18913      49475200 
 18914              	.LASF729:
 18915 1985 5553425F 		.ascii	"USB_EP0_WAITING_STS\000"
 18915      4550305F 
 18915      57414954 
 18915      494E475F 
 18915      53545300 
 18916              	.LASF117:
 18917 1999 5F6C3634 		.ascii	"_l64a_buf\000"
 18917      615F6275 
 18917      6600
 18918              	.LASF266:
 18919 19a3 52444852 		.ascii	"RDHR\000"
 18919      00
 18920              	.LASF961:
 18921 19a8 6D6F645F 		.ascii	"mod_mapping_updatePositionWheelSpeedType\000"
ARM GAS  /var/folders/qd/4mxf5pkd0zdf0b9dd1hp39180000gn/T//ccn3RVaQ.s 			page 354


 18921      6D617070 
 18921      696E675F 
 18921      75706461 
 18921      7465506F 
 18922              	.LASF579:
 18923 19d1 444D4152 		.ascii	"DMAR\000"
 18923      00
 18924              	.LASF939:
 18925 19d6 6D6F645F 		.ascii	"mod_com_writeMessage\000"
 18925      636F6D5F 
 18925      77726974 
 18925      654D6573 
 18925      73616765 
 18926              	.LASF585:
 18927 19eb 63616C6C 		.ascii	"callback\000"
 18927      6261636B 
 18927      00
 18928              	.LASF237:
 18929 19f4 63685F73 		.ascii	"ch_system\000"
 18929      79737465 
 18929      6D00
 18930              	.LASF307:
 18931 19fe 504F5745 		.ascii	"POWER\000"
 18931      5200
 18932              	.LASF235:
 18933 1a04 74726163 		.ascii	"trace_buffer\000"
 18933      655F6275 
 18933      66666572 
 18933      00
 18934              	.LASF483:
 18935 1a11 64657074 		.ascii	"depth\000"
 18935      6800
 18936              	.LASF109:
 18937 1a17 5F617363 		.ascii	"_asctime_buf\000"
 18937      74696D65 
 18937      5F627566 
 18937      00
 18938              	.LASF544:
 18939 1a24 4441435F 		.ascii	"DAC_DHRM_8BIT_RIGHT\000"
 18939      4448524D 
 18939      5F384249 
 18939      545F5249 
 18939      47485400 
 18940              	.LASF564:
 18941 1a38 4750545F 		.ascii	"GPT_UNINIT\000"
 18941      554E494E 
 18941      495400
 18942              	.LASF26:
 18943 1a43 5F5F7763 		.ascii	"__wch\000"
 18943      6800
 18944              	.LASF362:
 18945 1a49 63685F73 		.ascii	"ch_semaphore\000"
 18945      656D6170 
 18945      686F7265 
 18945      00
 18946              	.LASF860:
 18947 1a56 77697045 		.ascii	"wipEndMovingSignal_sem\000"
ARM GAS  /var/folders/qd/4mxf5pkd0zdf0b9dd1hp39180000gn/T//ccn3RVaQ.s 			page 355


 18947      6E644D6F 
 18947      76696E67 
 18947      5369676E 
 18947      616C5F73 
 18948              	.LASF124:
 18949 1a6d 5F776373 		.ascii	"_wcsrtombs_state\000"
 18949      72746F6D 
 18949      62735F73 
 18949      74617465 
 18949      00
 18950              	.LASF762:
 18951 1a7e 44494550 		.ascii	"DIEPTSIZ\000"
 18951      5453495A 
 18951      00
 18952              	.LASF921:
 18953 1a87 706F7274 		.ascii	"port_unlock\000"
 18953      5F756E6C 
 18953      6F636B00 
 18954              	.LASF495:
 18955 1a93 736D7072 		.ascii	"smpr1\000"
 18955      3100
 18956              	.LASF496:
 18957 1a99 736D7072 		.ascii	"smpr2\000"
 18957      3200
 18958              	.LASF209:
 18959 1a9f 74687265 		.ascii	"threads_queue_t\000"
 18959      6164735F 
 18959      71756575 
 18959      655F7400 
 18960              	.LASF434:
 18961 1aaf 626C6B73 		.ascii	"blkstate_t\000"
 18961      74617465 
 18961      5F7400
 18962              	.LASF967:
 18963 1aba 5F5F6664 		.ascii	"__fdlibm_version\000"
 18963      6C69626D 
 18963      5F766572 
 18963      73696F6E 
 18963      00
 18964              	.LASF920:
 18965 1acb 63685379 		.ascii	"chSysLock\000"
 18965      734C6F63 
 18965      6B00
 18966              	.LASF197:
 18967 1ad5 705F7469 		.ascii	"p_time\000"
 18967      6D6500
 18968              	.LASF195:
 18969 1adc 705F7265 		.ascii	"p_refs\000"
 18969      667300
 18970              	.LASF840:
 18971 1ae3 65705F6D 		.ascii	"ep_mode\000"
 18971      6F646500 
 18972              	.LASF643:
 18973 1aeb 70776D63 		.ascii	"pwmchannel_t\000"
 18973      68616E6E 
 18973      656C5F74 
 18973      00
ARM GAS  /var/folders/qd/4mxf5pkd0zdf0b9dd1hp39180000gn/T//ccn3RVaQ.s 			page 356


 18974              	.LASF261:
 18975 1af8 54444C52 		.ascii	"TDLR\000"
 18975      00
 18976              	.LASF18:
 18977 1afd 6C6F6E67 		.ascii	"long int\000"
 18977      20696E74 
 18977      00
 18978              	.LASF882:
 18979 1b06 7363616E 		.ascii	"scanInFront\000"
 18979      496E4672 
 18979      6F6E7400 
 18980              	.LASF240:
 18981 1b12 6D61696E 		.ascii	"mainthread\000"
 18981      74687265 
 18981      616400
 18982              	.LASF708:
 18983 1b1d 6570306E 		.ascii	"ep0n\000"
 18983      00
 18984              	.LASF821:
 18985 1b22 72657376 		.ascii	"resvdE04\000"
 18985      64453034 
 18985      00
 18986              	.LASF597:
 18987 1b2b 69326361 		.ascii	"i2caddr_t\000"
 18987      6464725F 
 18987      7400
 18988              	.LASF116:
 18989 1b35 5F776374 		.ascii	"_wctomb_state\000"
 18989      6F6D625F 
 18989      73746174 
 18989      6500
 18990              	.LASF532:
 18991 1b43 646D6169 		.ascii	"dmairqprio\000"
 18991      72717072 
 18991      696F00
 18992              	.LASF570:
 18993 1b4e 47505444 		.ascii	"GPTDriver\000"
 18993      72697665 
 18993      7200
 18994              	.LASF407:
 18995 1b58 715F636F 		.ascii	"q_counter\000"
 18995      756E7465 
 18995      7200
 18996              	.LASF949:
 18997 1b62 6D6F645F 		.ascii	"mod_mapping_findObjectBestPosition\000"
 18997      6D617070 
 18997      696E675F 
 18997      66696E64 
 18997      4F626A65 
 18998              	.LASF462:
 18999 1b85 50484461 		.ascii	"PHData\000"
 18999      746100
 19000              	.LASF465:
 19001 1b8c 696F706F 		.ascii	"ioportid_t\000"
 19001      72746964 
 19001      5F7400
 19002              	.LASF503:
ARM GAS  /var/folders/qd/4mxf5pkd0zdf0b9dd1hp39180000gn/T//ccn3RVaQ.s 			page 357


 19003 1b97 41444344 		.ascii	"ADCD1\000"
 19003      3100
 19004              	.LASF504:
 19005 1b9d 41444344 		.ascii	"ADCD2\000"
 19005      3200
 19006              	.LASF505:
 19007 1ba3 41444344 		.ascii	"ADCD3\000"
 19007      3300
 19008              	.LASF789:
 19009 1ba9 48434647 		.ascii	"HCFG\000"
 19009      00
 19010              	.LASF488:
 19011 1bae 646D616D 		.ascii	"dmamode\000"
 19011      6F646500 
 19012              	.LASF348:
 19013 1bb6 63756D75 		.ascii	"cumulative\000"
 19013      6C617469 
 19013      766500
 19014              	.LASF102:
 19015 1bc1 5F696F62 		.ascii	"_iobs\000"
 19015      7300
 19016              	.LASF83:
 19017 1bc7 5F656D65 		.ascii	"_emergency\000"
 19017      7267656E 
 19017      637900
 19018              	.LASF665:
 19019 1bd2 67657474 		.ascii	"gett\000"
 19019      00
 19020              	.LASF358:
 19021 1bd7 77747472 		.ascii	"wttrp\000"
 19021      7000
 19022              	.LASF411:
 19023 1bdd 715F7264 		.ascii	"q_rdptr\000"
 19023      70747200 
 19024              	.LASF126:
 19025 1be5 5F6E6578 		.ascii	"_nextf\000"
 19025      746600
 19026              	.LASF662:
 19027 1bec 77726974 		.ascii	"write\000"
 19027      6500
 19028              	.LASF112:
 19029 1bf2 5F72616E 		.ascii	"_rand_next\000"
 19029      645F6E65 
 19029      787400
 19030              	.LASF658:
 19031 1bfd 69717565 		.ascii	"iqueue\000"
 19031      756500
 19032              	.LASF842:
 19033 1c04 696E5F63 		.ascii	"in_cb\000"
 19033      6200
 19034              	.LASF767:
 19035 1c0a 444F4550 		.ascii	"DOEPINT\000"
 19035      494E5400 
 19036              	.LASF347:
 19037 1c12 6C617374 		.ascii	"last\000"
 19037      00
 19038              	.LASF444:
ARM GAS  /var/folders/qd/4mxf5pkd0zdf0b9dd1hp39180000gn/T//ccn3RVaQ.s 			page 358


 19039 1c17 4C434B52 		.ascii	"LCKR\000"
 19039      00
 19040              	.LASF655:
 19041 1c1c 73647374 		.ascii	"sdstate_t\000"
 19041      6174655F 
 19041      7400
 19042              	.LASF168:
 19043 1c26 75696E74 		.ascii	"uint32_t\000"
 19043      33325F74 
 19043      00
 19044              	.LASF868:
 19045 1c2f 6D6F645F 		.ascii	"mod_explo_waitUntilEndOfWork\000"
 19045      6578706C 
 19045      6F5F7761 
 19045      6974556E 
 19045      74696C45 
 19046              	.LASF886:
 19047 1c4c 77616974 		.ascii	"waitForMovementEnd\000"
 19047      466F724D 
 19047      6F76656D 
 19047      656E7445 
 19047      6E6400
 19048              	.LASF529:
 19049 1c5f 64617461 		.ascii	"dataoffset\000"
 19049      6F666673 
 19049      657400
 19050              	.LASF35:
 19051 1c6a 5F6D6178 		.ascii	"_maxwds\000"
 19051      77647300 
 19052              	.LASF432:
 19053 1c72 424C4B5F 		.ascii	"BLK_WRITING\000"
 19053      57524954 
 19053      494E4700 
 19054              	.LASF265:
 19055 1c7e 52444C52 		.ascii	"RDLR\000"
 19055      00
 19056              	.LASF152:
 19057 1c83 7472616E 		.ascii	"translation\000"
 19057      736C6174 
 19057      696F6E00 
 19058              	.LASF922:
 19059 1c8f 706F7274 		.ascii	"port_lock\000"
 19059      5F6C6F63 
 19059      6B00
 19060              	.LASF9:
 19061 1c99 6C6F6E67 		.ascii	"long double\000"
 19061      20646F75 
 19061      626C6500 
 19062              	.LASF330:
 19063 1ca5 72656761 		.ascii	"regarm_t\000"
 19063      726D5F74 
 19063      00
 19064              	.LASF867:
 19065 1cae 6D6F645F 		.ascii	"mod_explo_doDefinedPath\000"
 19065      6578706C 
 19065      6F5F646F 
 19065      44656669 
ARM GAS  /var/folders/qd/4mxf5pkd0zdf0b9dd1hp39180000gn/T//ccn3RVaQ.s 			page 359


 19065      6E656450 
 19066              	.LASF178:
 19067 1cc6 6576656E 		.ascii	"eventmask_t\000"
 19067      746D6173 
 19067      6B5F7400 
 19068              	.LASF162:
 19069 1cd2 7375626F 		.ascii	"suboptarg\000"
 19069      70746172 
 19069      6700
 19070              	.LASF149:
 19071 1cdc 706F7369 		.ascii	"position\000"
 19071      74696F6E 
 19071      00
 19072              	.LASF279:
 19073 1ce5 46464131 		.ascii	"FFA1R\000"
 19073      5200
 19074              	.LASF270:
 19075 1ceb 52463152 		.ascii	"RF1R\000"
 19075      00
 19076              	.LASF723:
 19077 1cf0 5553425F 		.ascii	"USB_SELECTED\000"
 19077      53454C45 
 19077      43544544 
 19077      00
 19078              	.LASF509:
 19079 1cfd 43414E5F 		.ascii	"CAN_READY\000"
 19079      52454144 
 19079      5900
 19080              	.LASF938:
 19081 1d07 63685363 		.ascii	"chSchRescheduleS\000"
 19081      68526573 
 19081      63686564 
 19081      756C6553 
 19081      00
 19082              	.LASF20:
 19083 1d18 6C6F6E67 		.ascii	"long unsigned int\000"
 19083      20756E73 
 19083      69676E65 
 19083      6420696E 
 19083      7400
 19084              	.LASF622:
 19085 1d2a 4932535F 		.ascii	"I2S_ACTIVE\000"
 19085      41435449 
 19085      564500
 19086              	.LASF566:
 19087 1d35 4750545F 		.ascii	"GPT_READY\000"
 19087      52454144 
 19087      5900
 19088              	.LASF528:
 19089 1d3f 64616373 		.ascii	"dacstate_t\000"
 19089      74617465 
 19089      5F7400
 19090              	.LASF335:
 19091 1d4a 73655F74 		.ascii	"se_tp\000"
 19091      7000
 19092              	.LASF410:
 19093 1d50 715F7772 		.ascii	"q_wrptr\000"
ARM GAS  /var/folders/qd/4mxf5pkd0zdf0b9dd1hp39180000gn/T//ccn3RVaQ.s 			page 360


 19093      70747200 
 19094              	.LASF536:
 19095 1d58 64616373 		.ascii	"dacsample_t\000"
 19095      616D706C 
 19095      655F7400 
 19096              	.LASF735:
 19097 1d64 5553425F 		.ascii	"USB_EVENT_ADDRESS\000"
 19097      4556454E 
 19097      545F4144 
 19097      44524553 
 19097      5300
 19098              	.LASF630:
 19099 1d76 69327363 		.ascii	"i2scfgr\000"
 19099      66677200 
 19100              	.LASF309:
 19101 1d7e 52455350 		.ascii	"RESPCMD\000"
 19101      434D4400 
 19102              	.LASF515:
 19103 1d86 72786675 		.ascii	"rxfull_event\000"
 19103      6C6C5F65 
 19103      76656E74 
 19103      00
 19104              	.LASF516:
 19105 1d93 7478656D 		.ascii	"txempty_event\000"
 19105      7074795F 
 19105      6576656E 
 19105      7400
 19106              	.LASF956:
 19107 1da1 63684D73 		.ascii	"chMsgSend\000"
 19107      6753656E 
 19107      6400
 19108              	.LASF740:
 19109 1dab 75736265 		.ascii	"usbevent_t\000"
 19109      76656E74 
 19109      5F7400
 19110              	.LASF68:
 19111 1db6 5F636C6F 		.ascii	"_close\000"
 19111      736500
 19112              	.LASF32:
 19113 1dbd 63686172 		.ascii	"char\000"
 19113      00
 19114              	.LASF512:
 19115 1dc2 43414E43 		.ascii	"CANConfig\000"
 19115      6F6E6669 
 19115      6700
 19116              	.LASF459:
 19117 1dcc 50454461 		.ascii	"PEData\000"
 19117      746100
 19118              	.LASF213:
 19119 1dd3 725F7175 		.ascii	"r_queue\000"
 19119      65756500 
 19120              	.LASF100:
 19121 1ddb 5F676C75 		.ascii	"_glue\000"
 19121      6500
 19122              	.LASF885:
 19123 1de1 73746F72 		.ascii	"storeFrontDistanceSensorValue\000"
 19123      6546726F 
ARM GAS  /var/folders/qd/4mxf5pkd0zdf0b9dd1hp39180000gn/T//ccn3RVaQ.s 			page 361


 19123      6E744469 
 19123      7374616E 
 19123      63655365 
 19124              	.LASF680:
 19125 1dff 53444343 		.ascii	"SDCConfig\000"
 19125      6F6E6669 
 19125      6700
 19126              	.LASF640:
 19127 1e09 656E6162 		.ascii	"enabled\000"
 19127      6C656400 
 19128              	.LASF537:
 19129 1e11 4441435F 		.ascii	"DAC_ERR_DMAFAILURE\000"
 19129      4552525F 
 19129      444D4146 
 19129      41494C55 
 19129      524500
 19130              	.LASF779:
 19131 1e24 47525846 		.ascii	"GRXFSIZ\000"
 19131      53495A00 
 19132              	.LASF686:
 19133 1e2c 73796E63 		.ascii	"sync\000"
 19133      00
 19134              	.LASF660:
 19135 1e31 75736172 		.ascii	"usart\000"
 19135      7400
 19136              	.LASF936:
 19137 1e37 5F737461 		.ascii	"_stats_stop_measure_crit_thd\000"
 19137      74735F73 
 19137      746F705F 
 19137      6D656173 
 19137      7572655F 
 19138              	.LASF672:
 19139 1e54 7364636D 		.ascii	"sdcmode_t\000"
 19139      6F64655F 
 19139      7400
 19140              	.LASF413:
 19141 1e5e 715F6C69 		.ascii	"q_link\000"
 19141      6E6B00
 19142              	.LASF155:
 19143 1e65 6E656172 		.ascii	"nearWall\000"
 19143      57616C6C 
 19143      00
 19144              	.LASF417:
 19145 1e6e 6D6F645F 		.ascii	"mod_sensors_need_objectDetection\000"
 19145      73656E73 
 19145      6F72735F 
 19145      6E656564 
 19145      5F6F626A 
 19146              	.LASF800:
 19147 1e8f 44434647 		.ascii	"DCFG\000"
 19147      00
 19148              	.LASF38:
 19149 1e94 5F426967 		.ascii	"_Bigint\000"
 19149      696E7400 
 19150              	.LASF810:
 19151 1e9c 44564255 		.ascii	"DVBUSDIS\000"
 19151      53444953 
ARM GAS  /var/folders/qd/4mxf5pkd0zdf0b9dd1hp39180000gn/T//ccn3RVaQ.s 			page 362


 19151      00
 19152              	.LASF776:
 19153 1ea5 47494E54 		.ascii	"GINTMSK\000"
 19153      4D534B00 
 19154              	.LASF781:
 19155 1ead 484E5054 		.ascii	"HNPTXSTS\000"
 19155      58535453 
 19155      00
 19156              	.LASF713:
 19157 1eb6 636F6E66 		.ascii	"configuration\000"
 19157      69677572 
 19157      6174696F 
 19157      6E00
 19158              	.LASF877:
 19159 1ec4 62656767 		.ascii	"begginAngle\000"
 19159      696E416E 
 19159      676C6500 
 19160              	.LASF95:
 19161 1ed0 5F617465 		.ascii	"_atexit0\000"
 19161      78697430 
 19161      00
 19162              	.LASF454:
 19163 1ed9 73746D33 		.ascii	"stm32_gpio_setup_t\000"
 19163      325F6770 
 19163      696F5F73 
 19163      65747570 
 19163      5F7400
 19164              	.LASF914:
 19165 1eec 63684D73 		.ascii	"chMsgGet\000"
 19165      67476574 
 19165      00
 19166              	.LASF907:
 19167 1ef5 6368616E 		.ascii	"changeMotorsState\000"
 19167      67654D6F 
 19167      746F7273 
 19167      53746174 
 19167      6500
 19168              	.LASF933:
 19169 1f07 63684462 		.ascii	"chDbgCheckClassI\000"
 19169      67436865 
 19169      636B436C 
 19169      61737349 
 19169      00
 19170              	.LASF424:
 19171 1f18 5F73746D 		.ascii	"_stm32_dma_streams\000"
 19171      33325F64 
 19171      6D615F73 
 19171      74726561 
 19171      6D7300
 19172              	.LASF287:
 19173 1f2b 44485231 		.ascii	"DHR12L1\000"
 19173      324C3100 
 19174              	.LASF290:
 19175 1f33 44485231 		.ascii	"DHR12L2\000"
 19175      324C3200 
 19176              	.LASF952:
 19177 1f3b 6D6F645F 		.ascii	"mod_mapping_computeDistanceForPicture\000"
ARM GAS  /var/folders/qd/4mxf5pkd0zdf0b9dd1hp39180000gn/T//ccn3RVaQ.s 			page 363


 19177      6D617070 
 19177      696E675F 
 19177      636F6D70 
 19177      75746544 
 19178              	.LASF119:
 19179 1f61 5F676574 		.ascii	"_getdate_err\000"
 19179      64617465 
 19179      5F657272 
 19179      00
 19180              	.LASF671:
 19181 1f6e 73646362 		.ascii	"sdcbusmode_t\000"
 19181      75736D6F 
 19181      64655F74 
 19181      00
 19182              	.LASF293:
 19183 1f7b 44485231 		.ascii	"DHR12LD\000"
 19183      324C4400 
 19184              	.LASF241:
 19185 1f83 6B65726E 		.ascii	"kernel_stats\000"
 19185      656C5F73 
 19185      74617473 
 19185      00
 19186              	.LASF489:
 19187 1f90 61646363 		.ascii	"adccallback_t\000"
 19187      616C6C62 
 19187      61636B5F 
 19187      7400
 19188              	.LASF192:
 19189 1f9e 705F7374 		.ascii	"p_stklimit\000"
 19189      6B6C696D 
 19189      697400
 19190              	.LASF180:
 19191 1fa9 636E745F 		.ascii	"cnt_t\000"
 19191      7400
 19192              	.LASF555:
 19193 1faf 65787473 		.ascii	"extstate_t\000"
 19193      74617465 
 19193      5F7400
 19194              	.LASF728:
 19195 1fba 5553425F 		.ascii	"USB_EP0_WAITING_TX0\000"
 19195      4550305F 
 19195      57414954 
 19195      494E475F 
 19195      54583000 
 19196              	.LASF707:
 19197 1fce 6570306E 		.ascii	"ep0next\000"
 19197      65787400 
 19198              	.LASF757:
 19199 1fd6 73746D33 		.ascii	"stm32_otg_host_chn_t\000"
 19199      325F6F74 
 19199      675F686F 
 19199      73745F63 
 19199      686E5F74 
 19200              	.LASF446:
 19201 1feb 41465248 		.ascii	"AFRH\000"
 19201      00
 19202              	.LASF445:
ARM GAS  /var/folders/qd/4mxf5pkd0zdf0b9dd1hp39180000gn/T//ccn3RVaQ.s 			page 364


 19203 1ff0 4146524C 		.ascii	"AFRL\000"
 19203      00
 19204              	.LASF132:
 19205 1ff5 5F696D70 		.ascii	"_impure_ptr\000"
 19205      7572655F 
 19205      70747200 
 19206              	.LASF386:
 19207 2001 63665F6F 		.ascii	"cf_off_preempt\000"
 19207      66665F70 
 19207      7265656D 
 19207      707400
 19208              	.LASF526:
 19209 2010 4441435F 		.ascii	"DAC_COMPLETE\000"
 19209      434F4D50 
 19209      4C455445 
 19209      00
 19210              	.LASF71:
 19211 201d 5F626C6B 		.ascii	"_blksize\000"
 19211      73697A65 
 19211      00
 19212              	.LASF752:
 19213 2026 4843494E 		.ascii	"HCINTMSK\000"
 19213      544D534B 
 19213      00
 19214              	.LASF69:
 19215 202f 5F756275 		.ascii	"_ubuf\000"
 19215      6600
 19216              	.LASF481:
 19217 2035 636F6E66 		.ascii	"config\000"
 19217      696700
 19218              	.LASF963:
 19219 203c 63684D73 		.ascii	"chMsgWait\000"
 19219      67576169 
 19219      7400
 19220              	.LASF589:
 19221 2046 47505444 		.ascii	"GPTD11\000"
 19221      313100
 19222              	.LASF114:
 19223 204d 5F6D626C 		.ascii	"_mblen_state\000"
 19223      656E5F73 
 19223      74617465 
 19223      00
 19224              	.LASF97:
 19225 205a 5F5F7367 		.ascii	"__sglue\000"
 19225      6C756500 
 19226              	.LASF130:
 19227 2062 5F5F6C6F 		.ascii	"__locale_t\000"
 19227      63616C65 
 19227      5F7400
 19228              	.LASF428:
 19229 206d 424C4B5F 		.ascii	"BLK_CONNECTING\000"
 19229      434F4E4E 
 19229      45435449 
 19229      4E4700
 19230              	.LASF87:
 19231 207c 5F5F636C 		.ascii	"__cleanup\000"
 19231      65616E75 
ARM GAS  /var/folders/qd/4mxf5pkd0zdf0b9dd1hp39180000gn/T//ccn3RVaQ.s 			page 365


 19231      7000
 19232              	.LASF522:
 19233 2086 4441435F 		.ascii	"DAC_UNINIT\000"
 19233      554E494E 
 19233      495400
 19234              	.LASF475:
 19235 2091 6164635F 		.ascii	"adc_channels_num_t\000"
 19235      6368616E 
 19235      6E656C73 
 19235      5F6E756D 
 19235      5F7400
 19236              	.LASF219:
 19237 20a4 76746675 		.ascii	"vtfunc_t\000"
 19237      6E635F74 
 19237      00
 19238              	.LASF267:
 19239 20ad 43414E5F 		.ascii	"CAN_FIFOMailBox_TypeDef\000"
 19239      4649464F 
 19239      4D61696C 
 19239      426F785F 
 19239      54797065 
 19240              	.LASF297:
 19241 20c5 4441435F 		.ascii	"DAC_TypeDef\000"
 19241      54797065 
 19241      44656600 
 19242              	.LASF357:
 19243 20d1 77746F62 		.ascii	"wtobjp\000"
 19243      6A7000
 19244              	.LASF24:
 19245 20d8 5F66706F 		.ascii	"_fpos_t\000"
 19245      735F7400 
 19246              	.LASF542:
 19247 20e0 4441435F 		.ascii	"DAC_DHRM_12BIT_RIGHT\000"
 19247      4448524D 
 19247      5F313242 
 19247      49545F52 
 19247      49474854 
 19248              	.LASF62:
 19249 20f5 5F66696C 		.ascii	"_file\000"
 19249      6500
 19250              	.LASF203:
 19251 20fb 705F7265 		.ascii	"p_realprio\000"
 19251      616C7072 
 19251      696F00
 19252              	.LASF675:
 19253 2106 63617061 		.ascii	"capacity\000"
 19253      63697479 
 19253      00
 19254              	.LASF913:
 19255 210f 63684253 		.ascii	"chBSemSignalI\000"
 19255      656D5369 
 19255      676E616C 
 19255      4900
 19256              	.LASF412:
 19257 211d 715F6E6F 		.ascii	"q_notify\000"
 19257      74696679 
 19257      00
ARM GAS  /var/folders/qd/4mxf5pkd0zdf0b9dd1hp39180000gn/T//ccn3RVaQ.s 			page 366


 19258              	.LASF360:
 19259 2126 77746D74 		.ascii	"wtmtxp\000"
 19259      787000
 19260              	.LASF60:
 19261 212d 5F5F7346 		.ascii	"__sFILE\000"
 19261      494C4500 
 19262              	.LASF134:
 19263 2135 646F7562 		.ascii	"double\000"
 19263      6C6500
 19264              	.LASF56:
 19265 213c 5F666E73 		.ascii	"_fns\000"
 19265      00
 19266              	.LASF968:
 19267 2141 63685654 		.ascii	"chVTGetSystemTimeX\000"
 19267      47657453 
 19267      79737465 
 19267      6D54696D 
 19267      655800
 19268              	.LASF839:
 19269 2154 5553424F 		.ascii	"USBOutEndpointState\000"
 19269      7574456E 
 19269      64706F69 
 19269      6E745374 
 19269      61746500 
 19270              	.LASF796:
 19271 2168 72657376 		.ascii	"resvd41C\000"
 19271      64343143 
 19271      00
 19272              	.LASF876:
 19273 2171 7363616E 		.ascii	"scan360\000"
 19273      33363000 
 19274              	.LASF30:
 19275 2179 5F6D6273 		.ascii	"_mbstate_t\000"
 19275      74617465 
 19275      5F7400
 19276              	.LASF125:
 19277 2184 5F685F65 		.ascii	"_h_errno\000"
 19277      72726E6F 
 19277      00
 19278              	.LASF264:
 19279 218d 52445452 		.ascii	"RDTR\000"
 19279      00
 19280              	.LASF436:
 19281 2192 626C6B5F 		.ascii	"blk_num\000"
 19281      6E756D00 
 19282              	.LASF861:
 19283 219a 69734D65 		.ascii	"isMessage\000"
 19283      73736167 
 19283      6500
 19284              	.LASF880:
 19285 21a4 6E65774F 		.ascii	"newObject\000"
 19285      626A6563 
 19285      7400
 19286              	.LASF734:
 19287 21ae 5553425F 		.ascii	"USB_EVENT_RESET\000"
 19287      4556454E 
 19287      545F5245 
ARM GAS  /var/folders/qd/4mxf5pkd0zdf0b9dd1hp39180000gn/T//ccn3RVaQ.s 			page 367


 19287      53455400 
 19288              	.LASF212:
 19289 21be 63685F72 		.ascii	"ch_ready_list\000"
 19289      65616479 
 19289      5F6C6973 
 19289      7400
 19290              	.LASF442:
 19291 21cc 50555044 		.ascii	"PUPDR\000"
 19291      5200
 19292              	.LASF17:
 19293 21d2 5F5F696E 		.ascii	"__int32_t\000"
 19293      7433325F 
 19293      7400
 19294              	.LASF19:
 19295 21dc 5F5F7569 		.ascii	"__uint32_t\000"
 19295      6E743332 
 19295      5F7400
 19296              	.LASF231:
 19297 21e7 63685F73 		.ascii	"ch_system_debug\000"
 19297      79737465 
 19297      6D5F6465 
 19297      62756700 
 19298              	.LASF807:
 19299 21f7 4441494E 		.ascii	"DAINTMSK\000"
 19299      544D534B 
 19299      00
 19300              	.LASF925:
 19301 2200 6D6F645F 		.ascii	"mod_com_writeCommand\000"
 19301      636F6D5F 
 19301      77726974 
 19301      65436F6D 
 19301      6D616E64 
 19302              	.LASF562:
 19303 2215 45585443 		.ascii	"EXTConfig\000"
 19303      6F6E6669 
 19303      6700
 19304              	.LASF29:
 19305 221f 5F5F7661 		.ascii	"__value\000"
 19305      6C756500 
 19306              	.LASF726:
 19307 2227 5553425F 		.ascii	"USB_EP0_WAITING_SETUP\000"
 19307      4550305F 
 19307      57414954 
 19307      494E475F 
 19307      53455455 
 19308              	.LASF53:
 19309 223d 5F69735F 		.ascii	"_is_cxa\000"
 19309      63786100 
 19310              	.LASF431:
 19311 2245 424C4B5F 		.ascii	"BLK_READING\000"
 19311      52454144 
 19311      494E4700 
 19312              	.LASF452:
 19313 2251 6166726C 		.ascii	"afrl\000"
 19313      00
 19314              	.LASF829:
 19315 2256 71756575 		.ascii	"queue\000"
ARM GAS  /var/folders/qd/4mxf5pkd0zdf0b9dd1hp39180000gn/T//ccn3RVaQ.s 			page 368


 19315      6500
 19316              	.LASF709:
 19317 225c 65703065 		.ascii	"ep0endcb\000"
 19317      6E646362 
 19317      00
 19318              	.LASF879:
 19319 2265 64697374 		.ascii	"distance\000"
 19319      616E6365 
 19319      00
 19320              	.LASF421:
 19321 226e 73656C66 		.ascii	"selfindex\000"
 19321      696E6465 
 19321      7800
 19322              	.LASF393:
 19323 2278 6D757465 		.ascii	"mutex_t\000"
 19323      785F7400 
 19324              	.LASF90:
 19325 2280 5F703573 		.ascii	"_p5s\000"
 19325      00
 19326              	.LASF955:
 19327 2285 6D6F645F 		.ascii	"mod_mapping_getRelativeAngle\000"
 19327      6D617070 
 19327      696E675F 
 19327      67657452 
 19327      656C6174 
 19328              	.LASF201:
 19329 22a2 705F6570 		.ascii	"p_epending\000"
 19329      656E6469 
 19329      6E6700
 19330              	.LASF439:
 19331 22ad 4D4F4445 		.ascii	"MODER\000"
 19331      5200
 19332              	.LASF898:
 19333 22b3 6D6F7665 		.ascii	"moveRobotSpeedType\000"
 19333      526F626F 
 19333      74537065 
 19333      65645479 
 19333      706500
 19334              	.LASF863:
 19335 22c6 6D6F746F 		.ascii	"motorsControlThread\000"
 19335      7273436F 
 19335      6E74726F 
 19335      6C546872 
 19335      65616400 
 19336              	.LASF623:
 19337 22da 4932535F 		.ascii	"I2S_COMPLETE\000"
 19337      434F4D50 
 19337      4C455445 
 19337      00
 19338              	.LASF140:
 19339 22e7 6C656674 		.ascii	"left\000"
 19339      00
 19340              	.LASF271:
 19341 22ec 52455345 		.ascii	"RESERVED0\000"
 19341      52564544 
 19341      3000
 19342              	.LASF274:
ARM GAS  /var/folders/qd/4mxf5pkd0zdf0b9dd1hp39180000gn/T//ccn3RVaQ.s 			page 369


 19343 22f6 52455345 		.ascii	"RESERVED1\000"
 19343      52564544 
 19343      3100
 19344              	.LASF276:
 19345 2300 52455345 		.ascii	"RESERVED2\000"
 19345      52564544 
 19345      3200
 19346              	.LASF278:
 19347 230a 52455345 		.ascii	"RESERVED3\000"
 19347      52564544 
 19347      3300
 19348              	.LASF280:
 19349 2314 52455345 		.ascii	"RESERVED4\000"
 19349      52564544 
 19349      3400
 19350              	.LASF282:
 19351 231e 52455345 		.ascii	"RESERVED5\000"
 19351      52564544 
 19351      3500
 19352              	.LASF850:
 19353 2328 55534245 		.ascii	"USBEndpointConfig\000"
 19353      6E64706F 
 19353      696E7443 
 19353      6F6E6669 
 19353      6700
 19354              	.LASF286:
 19355 233a 44485231 		.ascii	"DHR12R1\000"
 19355      32523100 
 19356              	.LASF289:
 19357 2342 44485231 		.ascii	"DHR12R2\000"
 19357      32523200 
 19358              	.LASF558:
 19359 234a 65787463 		.ascii	"extcallback_t\000"
 19359      616C6C62 
 19359      61636B5F 
 19359      7400
 19360              	.LASF514:
 19361 2358 72787175 		.ascii	"rxqueue\000"
 19361      65756500 
 19362              	.LASF334:
 19363 2360 73655F74 		.ascii	"se_time\000"
 19363      696D6500 
 19364              	.LASF798:
 19365 2368 72657376 		.ascii	"resvd444\000"
 19365      64343434 
 19365      00
 19366              	.LASF466:
 19367 2371 70616C5F 		.ascii	"pal_default_config\000"
 19367      64656661 
 19367      756C745F 
 19367      636F6E66 
 19367      696700
 19368              	.LASF484:
 19369 2384 67727070 		.ascii	"grpp\000"
 19369      00
 19370              	.LASF292:
 19371 2389 44485231 		.ascii	"DHR12RD\000"
ARM GAS  /var/folders/qd/4mxf5pkd0zdf0b9dd1hp39180000gn/T//ccn3RVaQ.s 			page 370


 19371      32524400 
 19372              	.LASF397:
 19373 2391 656C5F6C 		.ascii	"el_listener\000"
 19373      69737465 
 19373      6E657200 
 19374              	.LASF828:
 19375 239d 6C696E65 		.ascii	"linear\000"
 19375      617200
 19376              	.LASF947:
 19377 23a4 63685468 		.ascii	"chThdSleep\000"
 19377      64536C65 
 19377      657000
 19378              	.LASF582:
 19379 23af 73746D33 		.ascii	"stm32_tim_t\000"
 19379      325F7469 
 19379      6D5F7400 
 19380              	.LASF214:
 19381 23bb 725F7072 		.ascii	"r_prio\000"
 19381      696F00
 19382              	.LASF715:
 19383 23c2 706D6E65 		.ascii	"pmnext\000"
 19383      787400
 19384              	.LASF243:
 19385 23c9 49544D5F 		.ascii	"ITM_RxBuffer\000"
 19385      52784275 
 19385      66666572 
 19385      00
 19386              	.LASF437:
 19387 23d6 426C6F63 		.ascii	"BlockDeviceInfo\000"
 19387      6B446576 
 19387      69636549 
 19387      6E666F00 
 19388              	.LASF0:
 19389 23e6 6C6F6E67 		.ascii	"long long unsigned int\000"
 19389      206C6F6E 
 19389      6720756E 
 19389      7369676E 
 19389      65642069 
 19390              	.LASF321:
 19391 23fd 5344494F 		.ascii	"SDIO_TypeDef\000"
 19391      5F547970 
 19391      65446566 
 19391      00
 19392              	.LASF343:
 19393 240a 6F666673 		.ascii	"offset\000"
 19393      657400
 19394              	.LASF866:
 19395 2411 6578706C 		.ascii	"exploration_wa\000"
 19395      6F726174 
 19395      696F6E5F 
 19395      776100
 19396              	.LASF700:
 19397 2420 53504944 		.ascii	"SPID1\000"
 19397      3100
 19398              	.LASF918:
 19399 2426 63685379 		.ascii	"chSysUnlock\000"
 19399      73556E6C 
ARM GAS  /var/folders/qd/4mxf5pkd0zdf0b9dd1hp39180000gn/T//ccn3RVaQ.s 			page 371


 19399      6F636B00 
 19400              	.LASF4:
 19401 2432 6578706C 		.ascii	"exploration\000"
 19401      6F726174 
 19401      696F6E00 
 19402              	.LASF298:
 19403 243e 4E445452 		.ascii	"NDTR\000"
 19403      00
 19404              	.LASF402:
 19405 2443 65735F6E 		.ascii	"es_next\000"
 19405      65787400 
 19406              	.LASF111:
 19407 244b 5F67616D 		.ascii	"_gamma_signgam\000"
 19407      6D615F73 
 19407      69676E67 
 19407      616D00
 19408              	.LASF764:
 19409 245a 72657376 		.ascii	"resvd1C\000"
 19409      64314300 
 19410              	.LASF242:
 19411 2462 69646C65 		.ascii	"idle_thread_wa\000"
 19411      5F746872 
 19411      6561645F 
 19411      776100
 19412              	.LASF760:
 19413 2471 44494550 		.ascii	"DIEPINT\000"
 19413      494E5400 
 19414              	.LASF165:
 19415 2479 696E7431 		.ascii	"int16_t\000"
 19415      365F7400 
 19416              	.LASF327:
 19417 2481 5350495F 		.ascii	"SPI_TypeDef\000"
 19417      54797065 
 19417      44656600 
 19418              	.LASF225:
 19419 248d 76745F66 		.ascii	"vt_func\000"
 19419      756E6300 
 19420              	.LASF573:
 19421 2495 534D4352 		.ascii	"SMCR\000"
 19421      00
 19422              	.LASF805:
 19423 249a 444F4550 		.ascii	"DOEPMSK\000"
 19423      4D534B00 
 19424              	.LASF221:
 19425 24a2 63685F76 		.ascii	"ch_virtual_timer\000"
 19425      69727475 
 19425      616C5F74 
 19425      696D6572 
 19425      00
 19426              	.LASF194:
 19427 24b3 705F666C 		.ascii	"p_flags\000"
 19427      61677300 
 19428              	.LASF361:
 19429 24bb 65776D61 		.ascii	"ewmask\000"
 19429      736B00
 19430              	.LASF399:
 19431 24c2 656C5F66 		.ascii	"el_flags\000"
ARM GAS  /var/folders/qd/4mxf5pkd0zdf0b9dd1hp39180000gn/T//ccn3RVaQ.s 			page 372


 19431      6C616773 
 19431      00
 19432              	.LASF401:
 19433 24cb 6576656E 		.ascii	"event_source\000"
 19433      745F736F 
 19433      75726365 
 19433      00
 19434              	.LASF202:
 19435 24d8 705F6D74 		.ascii	"p_mtxlist\000"
 19435      786C6973 
 19435      7400
 19436              	.LASF156:
 19437 24e2 6E756D62 		.ascii	"numberOfnewObjects\000"
 19437      65724F66 
 19437      6E65774F 
 19437      626A6563 
 19437      747300
 19438              	.LASF521:
 19439 24f5 43414E44 		.ascii	"CAND1\000"
 19439      3100
 19440              	.LASF277:
 19441 24fb 46533152 		.ascii	"FS1R\000"
 19441      00
 19442              	.LASF173:
 19443 2500 74737461 		.ascii	"tstate_t\000"
 19443      74655F74 
 19443      00
 19444              	.LASF133:
 19445 2509 5F676C6F 		.ascii	"_global_impure_ptr\000"
 19445      62616C5F 
 19445      696D7075 
 19445      72655F70 
 19445      747200
 19446              	.LASF806:
 19447 251c 4441494E 		.ascii	"DAINT\000"
 19447      5400
 19448              	.LASF699:
 19449 2522 53504943 		.ascii	"SPIConfig\000"
 19449      6F6E6669 
 19449      6700
 19450              	.LASF84:
 19451 252c 5F756E73 		.ascii	"_unspecified_locale_info\000"
 19451      70656369 
 19451      66696564 
 19451      5F6C6F63 
 19451      616C655F 
 19452              	.LASF451:
 19453 2545 70757064 		.ascii	"pupdr\000"
 19453      7200
 19454              	.LASF541:
 19455 254b 64616365 		.ascii	"dacerrorcallback_t\000"
 19455      72726F72 
 19455      63616C6C 
 19455      6261636B 
 19455      5F7400
 19456              	.LASF702:
 19457 255e 7472616E 		.ascii	"transmitting\000"
ARM GAS  /var/folders/qd/4mxf5pkd0zdf0b9dd1hp39180000gn/T//ccn3RVaQ.s 			page 373


 19457      736D6974 
 19457      74696E67 
 19457      00
 19458              	.LASF561:
 19459 256b 6368616E 		.ascii	"channels\000"
 19459      6E656C73 
 19459      00
 19460              	.LASF308:
 19461 2574 434C4B43 		.ascii	"CLKCR\000"
 19461      5200
 19462              	.LASF889:
 19463 257a 6368616E 		.ascii	"changeAngleAbsolute\000"
 19463      6765416E 
 19463      676C6541 
 19463      62736F6C 
 19463      75746500 
 19464              	.LASF674:
 19465 258e 53444344 		.ascii	"SDCDriver\000"
 19465      72697665 
 19465      7200
 19466              	.LASF191:
 19467 2598 705F6E61 		.ascii	"p_name\000"
 19467      6D6500
 19468              	.LASF86:
 19469 259f 5F5F7364 		.ascii	"__sdidinit\000"
 19469      6964696E 
 19469      697400
 19470              	.LASF656:
 19471 25aa 53657269 		.ascii	"SerialDriver\000"
 19471      616C4472 
 19471      69766572 
 19471      00
 19472              	.LASF255:
 19473 25b7 4A445231 		.ascii	"JDR1\000"
 19473      00
 19474              	.LASF138:
 19475 25bc 5F5F6664 		.ascii	"__fdlibm_posix\000"
 19475      6C69626D 
 19475      5F706F73 
 19475      697800
 19476              	.LASF257:
 19477 25cb 4A445233 		.ascii	"JDR3\000"
 19477      00
 19478              	.LASF258:
 19479 25d0 4A445234 		.ascii	"JDR4\000"
 19479      00
 19480              	.LASF768:
 19481 25d5 444F4550 		.ascii	"DOEPTSIZ\000"
 19481      5453495A 
 19481      00
 19482              	.LASF469:
 19483 25de 4144435F 		.ascii	"ADC_READY\000"
 19483      52454144 
 19483      5900
 19484              	.LASF378:
 19485 25e8 63665F6F 		.ascii	"cf_off_ctx\000"
 19485      66665F63 
ARM GAS  /var/folders/qd/4mxf5pkd0zdf0b9dd1hp39180000gn/T//ccn3RVaQ.s 			page 374


 19485      747800
 19486              	.LASF392:
 19487 25f3 62696E61 		.ascii	"binary_semaphore_t\000"
 19487      72795F73 
 19487      656D6170 
 19487      686F7265 
 19487      5F7400
 19488              	.LASF31:
 19489 2606 5F666C6F 		.ascii	"_flock_t\000"
 19489      636B5F74 
 19489      00
 19490              	.LASF227:
 19491 260f 76697274 		.ascii	"virtual_timers_list_t\000"
 19491      75616C5F 
 19491      74696D65 
 19491      72735F6C 
 19491      6973745F 
 19492              	.LASF792:
 19493 2625 72657376 		.ascii	"resvd40C\000"
 19493      64343043 
 19493      00
 19494              	.LASF491:
 19495 262e 63697263 		.ascii	"circular\000"
 19495      756C6172 
 19495      00
 19496              	.LASF624:
 19497 2637 69327373 		.ascii	"i2sstate_t\000"
 19497      74617465 
 19497      5F7400
 19498              	.LASF448:
 19499 2642 6D6F6465 		.ascii	"moder\000"
 19499      7200
 19500              	.LASF695:
 19501 2648 53504944 		.ascii	"SPIDriver\000"
 19501      72697665 
 19501      7200
 19502              	.LASF363:
 19503 2652 735F7175 		.ascii	"s_queue\000"
 19503      65756500 
 19504              	.LASF352:
 19505 265a 6D5F6372 		.ascii	"m_crit_thd\000"
 19505      69745F74 
 19505      686400
 19506              	.LASF523:
 19507 2665 4441435F 		.ascii	"DAC_STOP\000"
 19507      53544F50 
 19507      00
 19508              	.LASF799:
 19509 266e 72657376 		.ascii	"resvd700\000"
 19509      64373030 
 19509      00
 19510              	.LASF325:
 19511 2677 49325343 		.ascii	"I2SCFGR\000"
 19511      46475200 
 19512              	.LASF370:
 19513 267f 63685F69 		.ascii	"ch_identifier\000"
 19513      64656E74 
ARM GAS  /var/folders/qd/4mxf5pkd0zdf0b9dd1hp39180000gn/T//ccn3RVaQ.s 			page 375


 19513      69666965 
 19513      7200
 19514              	.LASF666:
 19515 268d 77726974 		.ascii	"writet\000"
 19515      657400
 19516              	.LASF915:
 19517 2694 63684253 		.ascii	"chBSemWait\000"
 19517      656D5761 
 19517      697400
 19518              	.LASF8:
 19519 269f 6C6F6E67 		.ascii	"long long int\000"
 19519      206C6F6E 
 19519      6720696E 
 19519      7400
 19520              	.LASF145:
 19521 26ad 726F626F 		.ascii	"robotSpeed_t\000"
 19521      74537065 
 19521      65645F74 
 19521      00
 19522              	.LASF786:
 19523 26ba 48505458 		.ascii	"HPTXFSIZ\000"
 19523      4653495A 
 19523      00
 19524              	.LASF377:
 19525 26c3 63665F6F 		.ascii	"cf_off_prio\000"
 19525      66665F70 
 19525      72696F00 
 19526              	.LASF76:
 19527 26cf 5F666C61 		.ascii	"_flags2\000"
 19527      67733200 
 19528              	.LASF349:
 19529 26d7 74696D65 		.ascii	"time_measurement_t\000"
 19529      5F6D6561 
 19529      73757265 
 19529      6D656E74 
 19529      5F7400
 19530              	.LASF916:
 19531 26ea 63685654 		.ascii	"chVTGetSystemTime\000"
 19531      47657453 
 19531      79737465 
 19531      6D54696D 
 19531      6500
 19532              	.LASF687:
 19533 26fc 6765745F 		.ascii	"get_info\000"
 19533      696E666F 
 19533      00
 19534              	.LASF896:
 19535 2705 6D6F7665 		.ascii	"moveAndComputePositionDistanceType\000"
 19535      416E6443 
 19535      6F6D7075 
 19535      7465506F 
 19535      73697469 
 19536              	.LASF478:
 19537 2728 61646365 		.ascii	"adcerror_t\000"
 19537      72726F72 
 19537      5F7400
 19538              	.LASF852:
ARM GAS  /var/folders/qd/4mxf5pkd0zdf0b9dd1hp39180000gn/T//ccn3RVaQ.s 			page 376


 19539 2733 6765745F 		.ascii	"get_descriptor_cb\000"
 19539      64657363 
 19539      72697074 
 19539      6F725F63 
 19539      6200
 19540              	.LASF85:
 19541 2745 5F6C6F63 		.ascii	"_locale\000"
 19541      616C6500 
 19542              	.LASF179:
 19543 274d 6576656E 		.ascii	"eventflags_t\000"
 19543      74666C61 
 19543      67735F74 
 19543      00
 19544              	.LASF691:
 19545 275a 5350495F 		.ascii	"SPI_READY\000"
 19545      52454144 
 19545      5900
 19546              	.LASF390:
 19547 2764 73656D61 		.ascii	"semaphore_t\000"
 19547      70686F72 
 19547      655F7400 
 19548              	.LASF273:
 19549 2770 73464946 		.ascii	"sFIFOMailBox\000"
 19549      4F4D6169 
 19549      6C426F78 
 19549      00
 19550              	.LASF679:
 19551 277d 6275735F 		.ascii	"bus_width\000"
 19551      77696474 
 19551      6800
 19552              	.LASF294:
 19553 2787 44485238 		.ascii	"DHR8RD\000"
 19553      524400
 19554              	.LASF801:
 19555 278e 4443544C 		.ascii	"DCTL\000"
 19555      00
 19556              	.LASF681:
 19557 2793 53444344 		.ascii	"SDCDriverVMT\000"
 19557      72697665 
 19557      72564D54 
 19557      00
 19558              	.LASF917:
 19559 27a0 73797374 		.ascii	"systime\000"
 19559      696D6500 
 19560              	.LASF827:
 19561 27a8 74786275 		.ascii	"txbuf\000"
 19561      6600
 19562              	.LASF820:
 19563 27ae 50434743 		.ascii	"PCGCCTL\000"
 19563      43544C00 
 19564              	.LASF738:
 19565 27b6 5553425F 		.ascii	"USB_EVENT_WAKEUP\000"
 19565      4556454E 
 19565      545F5741 
 19565      4B455550 
 19565      00
 19566              	.LASF923:
ARM GAS  /var/folders/qd/4mxf5pkd0zdf0b9dd1hp39180000gn/T//ccn3RVaQ.s 			page 377


 19567 27c7 5F5F7365 		.ascii	"__set_BASEPRI\000"
 19567      745F4241 
 19567      53455052 
 19567      4900
 19568              	.LASF878:
 19569 27d5 6E756D62 		.ascii	"numberOfScans\000"
 19569      65724F66 
 19569      5363616E 
 19569      7300
 19570              	.LASF190:
 19571 27e3 705F6F6C 		.ascii	"p_older\000"
 19571      64657200 
 19572              	.LASF960:
 19573 27eb 6D6F645F 		.ascii	"mod_motors_stop\000"
 19573      6D6F746F 
 19573      72735F73 
 19573      746F7000 
 19574              	.LASF433:
 19575 27fb 424C4B5F 		.ascii	"BLK_SYNCING\000"
 19575      53594E43 
 19575      494E4700 
 19576              	.LASF463:
 19577 2807 50494461 		.ascii	"PIData\000"
 19577      746100
 19578              	.LASF849:
 19579 280e 73657475 		.ascii	"setup_buf\000"
 19579      705F6275 
 19579      6600
 19580              	.LASF783:
 19581 2818 72657376 		.ascii	"resvd34\000"
 19581      64333400 
 19582              	.LASF588:
 19583 2820 47505444 		.ascii	"GPTD6\000"
 19583      3600
 19584              	.LASF494:
 19585 2826 6572726F 		.ascii	"error_cb\000"
 19585      725F6362 
 19585      00
 19586              	.LASF429:
 19587 282f 424C4B5F 		.ascii	"BLK_DISCONNECTING\000"
 19587      44495343 
 19587      4F4E4E45 
 19587      4354494E 
 19587      4700
 19588              	.LASF697:
 19589 2841 7373706F 		.ascii	"ssport\000"
 19589      727400
 19590              	.LASF206:
 19591 2848 74687265 		.ascii	"thread_reference_t\000"
 19591      61645F72 
 19591      65666572 
 19591      656E6365 
 19591      5F7400
 19592              	.LASF557:
 19593 285b 65787063 		.ascii	"expchannel_t\000"
 19593      68616E6E 
 19593      656C5F74 
ARM GAS  /var/folders/qd/4mxf5pkd0zdf0b9dd1hp39180000gn/T//ccn3RVaQ.s 			page 378


 19593      00
 19594              	.LASF895:
 19595 2868 6D6F7665 		.ascii	"moveInAbsoluteDirection\000"
 19595      496E4162 
 19595      736F6C75 
 19595      74654469 
 19595      72656374 
 19596              	.LASF703:
 19597 2880 72656365 		.ascii	"receiving\000"
 19597      6976696E 
 19597      6700
 19598              	.LASF99:
 19599 288a 5F5F4649 		.ascii	"__FILE\000"
 19599      4C4500
 19600              	.LASF959:
 19601 2891 63685468 		.ascii	"chThdSleepUntilWindowed\000"
 19601      64536C65 
 19601      6570556E 
 19601      74696C57 
 19601      696E646F 
 19602              	.LASF584:
 19603 28a9 66726571 		.ascii	"frequency\000"
 19603      75656E63 
 19603      7900
 19604              	.LASF931:
 19605 28b3 5F737461 		.ascii	"_stats_start_measure_crit_thd\000"
 19605      74735F73 
 19605      74617274 
 19605      5F6D6561 
 19605      73757265 
 19606              	.LASF36:
 19607 28d1 5F736967 		.ascii	"_sign\000"
 19607      6E00
 19608              	.LASF862:
 19609 28d7 6C617374 		.ascii	"lastOrder\000"
 19609      4F726465 
 19609      7200
 19610              	.LASF846:
 19611 28e1 696E5F73 		.ascii	"in_state\000"
 19611      74617465 
 19611      00
 19612              	.LASF41:
 19613 28ea 5F5F746D 		.ascii	"__tm_min\000"
 19613      5F6D696E 
 19613      00
 19614              	.LASF371:
 19615 28f3 63685F7A 		.ascii	"ch_zero\000"
 19615      65726F00 
 19616              	.LASF604:
 19617 28fb 46415354 		.ascii	"FAST_DUTY_CYCLE_2\000"
 19617      5F445554 
 19617      595F4359 
 19617      434C455F 
 19617      3200
 19618              	.LASF316:
 19619 290d 44435452 		.ascii	"DCTRL\000"
 19619      4C00
ARM GAS  /var/folders/qd/4mxf5pkd0zdf0b9dd1hp39180000gn/T//ccn3RVaQ.s 			page 379


 19620              	.LASF376:
 19621 2913 63685F74 		.ascii	"ch_threadsize\000"
 19621      68726561 
 19621      6473697A 
 19621      6500
 19622              	.LASF305:
 19623 2921 464C5452 		.ascii	"FLTR\000"
 19623      00
 19624              	.LASF575:
 19625 2926 43434D52 		.ascii	"CCMR1\000"
 19625      3100
 19626              	.LASF576:
 19627 292c 43434D52 		.ascii	"CCMR2\000"
 19627      3200
 19628              	.LASF580:
 19629 2932 43434D52 		.ascii	"CCMR3\000"
 19629      3300
 19630              	.LASF908:
 19631 2938 6F726465 		.ascii	"order\000"
 19631      7200
 19632              	.LASF1:
 19633 293e 756E7369 		.ascii	"unsigned int\000"
 19633      676E6564 
 19633      20696E74 
 19633      00
 19634              	.LASF498:
 19635 294b 73717232 		.ascii	"sqr2\000"
 19635      00
 19636              	.LASF499:
 19637 2950 73717233 		.ascii	"sqr3\000"
 19637      00
 19638              	.LASF113:
 19639 2955 5F723438 		.ascii	"_r48\000"
 19639      00
 19640              	.LASF790:
 19641 295a 48464952 		.ascii	"HFIR\000"
 19641      00
 19642              	.LASF720:
 19643 295f 5553425F 		.ascii	"USB_UNINIT\000"
 19643      554E494E 
 19643      495400
 19644              	.LASF418:
 19645 296a 73747265 		.ascii	"stream\000"
 19645      616D00
 19646              	.LASF501:
 19647 2971 64756D6D 		.ascii	"dummy\000"
 19647      7900
 19648              	.LASF602:
 19649 2977 6932636F 		.ascii	"i2copmode_t\000"
 19649      706D6F64 
 19649      655F7400 
 19650              	.LASF929:
 19651 2983 6D6F645F 		.ascii	"mod_mapping_init\000"
 19651      6D617070 
 19651      696E675F 
 19651      696E6974 
 19651      00
ARM GAS  /var/folders/qd/4mxf5pkd0zdf0b9dd1hp39180000gn/T//ccn3RVaQ.s 			page 380


 19652              	.LASF391:
 19653 2994 62735F73 		.ascii	"bs_sem\000"
 19653      656D00
 19654              	.LASF395:
 19655 299b 6576656E 		.ascii	"event_listener\000"
 19655      745F6C69 
 19655      7374656E 
 19655      657200
 19656              	.LASF14:
 19657 29aa 73686F72 		.ascii	"short int\000"
 19657      7420696E 
 19657      7400
 19658              	.LASF744:
 19659 29b4 75736263 		.ascii	"usbcallback_t\000"
 19659      616C6C62 
 19659      61636B5F 
 19659      7400
 19660              	.LASF143:
 19661 29c2 6D61696E 		.ascii	"mainSpeed\000"
 19661      53706565 
 19661      6400
 19662              	.LASF65:
 19663 29cc 5F726561 		.ascii	"_read\000"
 19663      6400
 19664              	.LASF773:
 19665 29d2 47555342 		.ascii	"GUSBCFG\000"
 19665      43464700 
 19666              	.LASF329:
 19667 29da 55534152 		.ascii	"USART_TypeDef\000"
 19667      545F5479 
 19667      70654465 
 19667      6600
 19668              	.LASF416:
 19669 29e8 6F757470 		.ascii	"output_queue_t\000"
 19669      75745F71 
 19669      75657565 
 19669      5F7400
 19670              	.LASF103:
 19671 29f7 5F72616E 		.ascii	"_rand48\000"
 19671      64343800 
 19672              	.LASF822:
 19673 29ff 73746D33 		.ascii	"stm32_otg_t\000"
 19673      325F6F74 
 19673      675F7400 
 19674              	.LASF625:
 19675 2a0b 49325344 		.ascii	"I2SDriver\000"
 19675      72697665 
 19675      7200
 19676              	.LASF609:
 19677 2a15 64757479 		.ascii	"duty_cycle\000"
 19677      5F637963 
 19677      6C6500
 19678              	.LASF632:
 19679 2a20 49325343 		.ascii	"I2SConfig\000"
 19679      6F6E6669 
 19679      6700
 19680              	.LASF741:
ARM GAS  /var/folders/qd/4mxf5pkd0zdf0b9dd1hp39180000gn/T//ccn3RVaQ.s 			page 381


 19681 2a2a 75645F73 		.ascii	"ud_size\000"
 19681      697A6500 
 19682              	.LASF859:
 19683 2a32 77697045 		.ascii	"wipEndSignal_sem\000"
 19683      6E645369 
 19683      676E616C 
 19683      5F73656D 
 19683      00
 19684              	.LASF844:
 19685 2a43 696E5F6D 		.ascii	"in_maxsize\000"
 19685      61787369 
 19685      7A6500
 19686              	.LASF460:
 19687 2a4e 50464461 		.ascii	"PFData\000"
 19687      746100
 19688              	.LASF553:
 19689 2a55 4558545F 		.ascii	"EXT_STOP\000"
 19689      53544F50 
 19689      00
 19690              	.LASF193:
 19691 2a5e 705F7374 		.ascii	"p_state\000"
 19691      61746500 
 19692              	.LASF633:
 19693 2a66 49325344 		.ascii	"I2SD2\000"
 19693      3200
 19694              	.LASF682:
 19695 2a6c 69735F69 		.ascii	"is_inserted\000"
 19695      6E736572 
 19695      74656400 
 19696              	.LASF208:
 19697 2a78 63685F74 		.ascii	"ch_threads_list\000"
 19697      68726561 
 19697      64735F6C 
 19697      69737400 
 19698              	.LASF317:
 19699 2a88 44434F55 		.ascii	"DCOUNT\000"
 19699      4E5400
 19700              	.LASF302:
 19701 2a8f 4F415231 		.ascii	"OAR1\000"
 19701      00
 19702              	.LASF303:
 19703 2a94 4F415232 		.ascii	"OAR2\000"
 19703      00
 19704              	.LASF205:
 19705 2a99 705F7374 		.ascii	"p_stats\000"
 19705      61747300 
 19706              	.LASF725:
 19707 2aa1 75736273 		.ascii	"usbstate_t\000"
 19707      74617465 
 19707      5F7400
 19708              		.ident	"GCC: (GNU Tools for Arm Embedded Processors 7-2017-q4-major) 7.2.1 20170904 (release) [ARM
ARM GAS  /var/folders/qd/4mxf5pkd0zdf0b9dd1hp39180000gn/T//ccn3RVaQ.s 			page 382


DEFINED SYMBOLS
                            *ABS*:0000000000000000 mod_exploration.c
/var/folders/qd/4mxf5pkd0zdf0b9dd1hp39180000gn/T//ccn3RVaQ.s:18     .text.changeMotorsStateAsync:0000000000000000 $t
/var/folders/qd/4mxf5pkd0zdf0b9dd1hp39180000gn/T//ccn3RVaQ.s:25     .text.changeMotorsStateAsync:0000000000000000 changeMotorsStateAsync
/var/folders/qd/4mxf5pkd0zdf0b9dd1hp39180000gn/T//ccn3RVaQ.s:497    .text.changeMotorsStateAsync:000000000000019c $d
/var/folders/qd/4mxf5pkd0zdf0b9dd1hp39180000gn/T//ccn3RVaQ.s:517    .text.changeMotorsState:0000000000000000 $t
/var/folders/qd/4mxf5pkd0zdf0b9dd1hp39180000gn/T//ccn3RVaQ.s:525    .text.changeMotorsState:0000000000000000 changeMotorsState
/var/folders/qd/4mxf5pkd0zdf0b9dd1hp39180000gn/T//ccn3RVaQ.s:571    .text.changeMotorsState:000000000000002c $d
/var/folders/qd/4mxf5pkd0zdf0b9dd1hp39180000gn/T//ccn3RVaQ.s:577    .text.stopMotors:0000000000000000 $t
/var/folders/qd/4mxf5pkd0zdf0b9dd1hp39180000gn/T//ccn3RVaQ.s:585    .text.stopMotors:0000000000000000 stopMotors
/var/folders/qd/4mxf5pkd0zdf0b9dd1hp39180000gn/T//ccn3RVaQ.s:648    .text.stopMotors:000000000000002c $d
/var/folders/qd/4mxf5pkd0zdf0b9dd1hp39180000gn/T//ccn3RVaQ.s:654    .text.moveAndComputePositionWheelSpeedType:0000000000000000 $t
/var/folders/qd/4mxf5pkd0zdf0b9dd1hp39180000gn/T//ccn3RVaQ.s:662    .text.moveAndComputePositionWheelSpeedType:0000000000000000 moveAndComputePositionWheelSpeedType
/var/folders/qd/4mxf5pkd0zdf0b9dd1hp39180000gn/T//ccn3RVaQ.s:866    .text.moveAndComputePositionWheelSpeedType:00000000000000b4 $d
/var/folders/qd/4mxf5pkd0zdf0b9dd1hp39180000gn/T//ccn3RVaQ.s:877    .text.moveAndComputePositionRobotSpeedType:0000000000000000 $t
/var/folders/qd/4mxf5pkd0zdf0b9dd1hp39180000gn/T//ccn3RVaQ.s:885    .text.moveAndComputePositionRobotSpeedType:0000000000000000 moveAndComputePositionRobotSpeedType
/var/folders/qd/4mxf5pkd0zdf0b9dd1hp39180000gn/T//ccn3RVaQ.s:936    .text.moveAndComputePositionRobotSpeedType:0000000000000034 $d
/var/folders/qd/4mxf5pkd0zdf0b9dd1hp39180000gn/T//ccn3RVaQ.s:941    .text.moveWheelSpeedType:0000000000000000 $t
/var/folders/qd/4mxf5pkd0zdf0b9dd1hp39180000gn/T//ccn3RVaQ.s:949    .text.moveWheelSpeedType:0000000000000000 moveWheelSpeedType
/var/folders/qd/4mxf5pkd0zdf0b9dd1hp39180000gn/T//ccn3RVaQ.s:1118   .text.moveWheelSpeedType:000000000000008c $d
/var/folders/qd/4mxf5pkd0zdf0b9dd1hp39180000gn/T//ccn3RVaQ.s:1127   .text.moveRobotSpeedType:0000000000000000 $t
/var/folders/qd/4mxf5pkd0zdf0b9dd1hp39180000gn/T//ccn3RVaQ.s:1135   .text.moveRobotSpeedType:0000000000000000 moveRobotSpeedType
/var/folders/qd/4mxf5pkd0zdf0b9dd1hp39180000gn/T//ccn3RVaQ.s:1194   .text.moveRobotSpeedType:0000000000000040 $d
/var/folders/qd/4mxf5pkd0zdf0b9dd1hp39180000gn/T//ccn3RVaQ.s:1204   .text.moveInAbsoluteDirection:0000000000000000 $t
/var/folders/qd/4mxf5pkd0zdf0b9dd1hp39180000gn/T//ccn3RVaQ.s:1212   .text.moveInAbsoluteDirection:0000000000000000 moveInAbsoluteDirection
/var/folders/qd/4mxf5pkd0zdf0b9dd1hp39180000gn/T//ccn3RVaQ.s:1323   .text.moveInAbsoluteDirection:00000000000000b0 $d
/var/folders/qd/4mxf5pkd0zdf0b9dd1hp39180000gn/T//ccn3RVaQ.s:1335   .text.changeAngleRelative:0000000000000000 $t
/var/folders/qd/4mxf5pkd0zdf0b9dd1hp39180000gn/T//ccn3RVaQ.s:1343   .text.changeAngleRelative:0000000000000000 changeAngleRelative
/var/folders/qd/4mxf5pkd0zdf0b9dd1hp39180000gn/T//ccn3RVaQ.s:1410   .text.changeAngleRelative:0000000000000068 $d
/var/folders/qd/4mxf5pkd0zdf0b9dd1hp39180000gn/T//ccn3RVaQ.s:1421   .text.moveAndComputePositionDistanceType:0000000000000000 $t
/var/folders/qd/4mxf5pkd0zdf0b9dd1hp39180000gn/T//ccn3RVaQ.s:1429   .text.moveAndComputePositionDistanceType:0000000000000000 moveAndComputePositionDistanceType
/var/folders/qd/4mxf5pkd0zdf0b9dd1hp39180000gn/T//ccn3RVaQ.s:1499   .text.moveAndComputePositionDistanceType:0000000000000064 $d
/var/folders/qd/4mxf5pkd0zdf0b9dd1hp39180000gn/T//ccn3RVaQ.s:1506   .text.changeAngleAbsolute:0000000000000000 $t
/var/folders/qd/4mxf5pkd0zdf0b9dd1hp39180000gn/T//ccn3RVaQ.s:1514   .text.changeAngleAbsolute:0000000000000000 changeAngleAbsolute
/var/folders/qd/4mxf5pkd0zdf0b9dd1hp39180000gn/T//ccn3RVaQ.s:1557   .text.changeAngleAbsolute:0000000000000024 $d
/var/folders/qd/4mxf5pkd0zdf0b9dd1hp39180000gn/T//ccn3RVaQ.s:1562   .text.goTo:0000000000000000 $t
/var/folders/qd/4mxf5pkd0zdf0b9dd1hp39180000gn/T//ccn3RVaQ.s:1570   .text.goTo:0000000000000000 goTo
/var/folders/qd/4mxf5pkd0zdf0b9dd1hp39180000gn/T//ccn3RVaQ.s:1614   .text.goTo:0000000000000028 $d
/var/folders/qd/4mxf5pkd0zdf0b9dd1hp39180000gn/T//ccn3RVaQ.s:1619   .text.signalEndOfWork:0000000000000000 $t
/var/folders/qd/4mxf5pkd0zdf0b9dd1hp39180000gn/T//ccn3RVaQ.s:1627   .text.signalEndOfWork:0000000000000000 signalEndOfWork
/var/folders/qd/4mxf5pkd0zdf0b9dd1hp39180000gn/T//ccn3RVaQ.s:1771   .text.signalEndOfWork:0000000000000068 $d
/var/folders/qd/4mxf5pkd0zdf0b9dd1hp39180000gn/T//ccn3RVaQ.s:1779   .text.signalEndMovement:0000000000000000 $t
/var/folders/qd/4mxf5pkd0zdf0b9dd1hp39180000gn/T//ccn3RVaQ.s:1787   .text.signalEndMovement:0000000000000000 signalEndMovement
/var/folders/qd/4mxf5pkd0zdf0b9dd1hp39180000gn/T//ccn3RVaQ.s:1931   .text.signalEndMovement:0000000000000068 $d
/var/folders/qd/4mxf5pkd0zdf0b9dd1hp39180000gn/T//ccn3RVaQ.s:1939   .text.waitForMovementEnd:0000000000000000 $t
/var/folders/qd/4mxf5pkd0zdf0b9dd1hp39180000gn/T//ccn3RVaQ.s:1947   .text.waitForMovementEnd:0000000000000000 waitForMovementEnd
/var/folders/qd/4mxf5pkd0zdf0b9dd1hp39180000gn/T//ccn3RVaQ.s:1993   .text.waitForMovementEnd:0000000000000024 $d
/var/folders/qd/4mxf5pkd0zdf0b9dd1hp39180000gn/T//ccn3RVaQ.s:2001   .text.storeFrontDistanceSensorValue:0000000000000000 $t
/var/folders/qd/4mxf5pkd0zdf0b9dd1hp39180000gn/T//ccn3RVaQ.s:2009   .text.storeFrontDistanceSensorValue:0000000000000000 storeFrontDistanceSensorValue
/var/folders/qd/4mxf5pkd0zdf0b9dd1hp39180000gn/T//ccn3RVaQ.s:2066   .text.storeFrontDistanceSensorValue:0000000000000034 $d
/var/folders/qd/4mxf5pkd0zdf0b9dd1hp39180000gn/T//ccn3RVaQ.s:2071   .text.rotateAndMeasureWallsDistance:0000000000000000 $t
/var/folders/qd/4mxf5pkd0zdf0b9dd1hp39180000gn/T//ccn3RVaQ.s:2079   .text.rotateAndMeasureWallsDistance:0000000000000000 rotateAndMeasureWallsDistance
/var/folders/qd/4mxf5pkd0zdf0b9dd1hp39180000gn/T//ccn3RVaQ.s:2170   .text.rotateAndMeasureWallsDistance:0000000000000064 $d
/var/folders/qd/4mxf5pkd0zdf0b9dd1hp39180000gn/T//ccn3RVaQ.s:2176   .text.discover:0000000000000000 $t
/var/folders/qd/4mxf5pkd0zdf0b9dd1hp39180000gn/T//ccn3RVaQ.s:2183   .text.discover:0000000000000000 discover
/var/folders/qd/4mxf5pkd0zdf0b9dd1hp39180000gn/T//ccn3RVaQ.s:2404   .text.discover:00000000000000b8 $d
/var/folders/qd/4mxf5pkd0zdf0b9dd1hp39180000gn/T//ccn3RVaQ.s:2413   .text.scanInFront:0000000000000000 $t
ARM GAS  /var/folders/qd/4mxf5pkd0zdf0b9dd1hp39180000gn/T//ccn3RVaQ.s 			page 383


/var/folders/qd/4mxf5pkd0zdf0b9dd1hp39180000gn/T//ccn3RVaQ.s:2421   .text.scanInFront:0000000000000000 scanInFront
/var/folders/qd/4mxf5pkd0zdf0b9dd1hp39180000gn/T//ccn3RVaQ.s:2630   .text.scanInFront:0000000000000114 $d
/var/folders/qd/4mxf5pkd0zdf0b9dd1hp39180000gn/T//ccn3RVaQ.s:2640   .text.scan360:0000000000000000 $t
/var/folders/qd/4mxf5pkd0zdf0b9dd1hp39180000gn/T//ccn3RVaQ.s:2648   .text.scan360:0000000000000000 scan360
/var/folders/qd/4mxf5pkd0zdf0b9dd1hp39180000gn/T//ccn3RVaQ.s:2917   .text.scan360:0000000000000170 $d
/var/folders/qd/4mxf5pkd0zdf0b9dd1hp39180000gn/T//ccn3RVaQ.s:2930   .text.exploration:0000000000000000 $t
/var/folders/qd/4mxf5pkd0zdf0b9dd1hp39180000gn/T//ccn3RVaQ.s:2937   .text.exploration:0000000000000000 exploration
/var/folders/qd/4mxf5pkd0zdf0b9dd1hp39180000gn/T//ccn3RVaQ.s:3097   .text.exploration:0000000000000074 $d
/var/folders/qd/4mxf5pkd0zdf0b9dd1hp39180000gn/T//ccn3RVaQ.s:3106   .text.mod_explo_initModule:0000000000000000 $t
/var/folders/qd/4mxf5pkd0zdf0b9dd1hp39180000gn/T//ccn3RVaQ.s:3114   .text.mod_explo_initModule:0000000000000000 mod_explo_initModule
/var/folders/qd/4mxf5pkd0zdf0b9dd1hp39180000gn/T//ccn3RVaQ.s:3174   .text.mod_explo_initModule:0000000000000040 $d
/var/folders/qd/4mxf5pkd0zdf0b9dd1hp39180000gn/T//ccn3RVaQ.s:3182   .text.mod_explo_discoverTheAreaOnThread:0000000000000000 $t
/var/folders/qd/4mxf5pkd0zdf0b9dd1hp39180000gn/T//ccn3RVaQ.s:3190   .text.mod_explo_discoverTheAreaOnThread:0000000000000000 mod_explo_discoverTheAreaOnThread
/var/folders/qd/4mxf5pkd0zdf0b9dd1hp39180000gn/T//ccn3RVaQ.s:3237   .text.mod_explo_discoverTheAreaOnThread:000000000000002c $d
/var/folders/qd/4mxf5pkd0zdf0b9dd1hp39180000gn/T//ccn3RVaQ.s:3244   .text.mod_explo_explorateTheAreaOnThread:0000000000000000 $t
/var/folders/qd/4mxf5pkd0zdf0b9dd1hp39180000gn/T//ccn3RVaQ.s:3252   .text.mod_explo_explorateTheAreaOnThread:0000000000000000 mod_explo_explorateTheAreaOnThread
/var/folders/qd/4mxf5pkd0zdf0b9dd1hp39180000gn/T//ccn3RVaQ.s:3299   .text.mod_explo_explorateTheAreaOnThread:000000000000002c $d
/var/folders/qd/4mxf5pkd0zdf0b9dd1hp39180000gn/T//ccn3RVaQ.s:3306   .text.mod_explo_sendTheMap:0000000000000000 $t
/var/folders/qd/4mxf5pkd0zdf0b9dd1hp39180000gn/T//ccn3RVaQ.s:3314   .text.mod_explo_sendTheMap:0000000000000000 mod_explo_sendTheMap
/var/folders/qd/4mxf5pkd0zdf0b9dd1hp39180000gn/T//ccn3RVaQ.s:3353   .text.mod_explo_sendTheMap:0000000000000024 $d
/var/folders/qd/4mxf5pkd0zdf0b9dd1hp39180000gn/T//ccn3RVaQ.s:3358   .text.mod_explo_waitUntilEndOfWork:0000000000000000 $t
/var/folders/qd/4mxf5pkd0zdf0b9dd1hp39180000gn/T//ccn3RVaQ.s:3366   .text.mod_explo_waitUntilEndOfWork:0000000000000000 mod_explo_waitUntilEndOfWork
/var/folders/qd/4mxf5pkd0zdf0b9dd1hp39180000gn/T//ccn3RVaQ.s:3412   .text.mod_explo_waitUntilEndOfWork:0000000000000024 $d
/var/folders/qd/4mxf5pkd0zdf0b9dd1hp39180000gn/T//ccn3RVaQ.s:3420   .text.mod_explo_doDefinedPath:0000000000000000 $t
/var/folders/qd/4mxf5pkd0zdf0b9dd1hp39180000gn/T//ccn3RVaQ.s:3428   .text.mod_explo_doDefinedPath:0000000000000000 mod_explo_doDefinedPath
/var/folders/qd/4mxf5pkd0zdf0b9dd1hp39180000gn/T//ccn3RVaQ.s:3460   .text.mod_explo_doDefinedPath:000000000000001c $d
/var/folders/qd/4mxf5pkd0zdf0b9dd1hp39180000gn/T//ccn3RVaQ.s:3508   .bss.lastOrder:0000000000000000 lastOrder
/var/folders/qd/4mxf5pkd0zdf0b9dd1hp39180000gn/T//ccn3RVaQ.s:3528   .data.isMessage:0000000000000000 isMessage
/var/folders/qd/4mxf5pkd0zdf0b9dd1hp39180000gn/T//ccn3RVaQ.s:3537   .data.wipEndMovingSignal_sem:0000000000000000 wipEndMovingSignal_sem
/var/folders/qd/4mxf5pkd0zdf0b9dd1hp39180000gn/T//ccn3RVaQ.s:3546   .data.wipEndSignal_sem:0000000000000000 wipEndSignal_sem
/var/folders/qd/4mxf5pkd0zdf0b9dd1hp39180000gn/T//ccn3RVaQ.s:3495   .bss.history:0000000000000000 history
/var/folders/qd/4mxf5pkd0zdf0b9dd1hp39180000gn/T//ccn3RVaQ.s:3470   .bss.changeMotorsStateAsync_wa:0000000000000000 $d
/var/folders/qd/4mxf5pkd0zdf0b9dd1hp39180000gn/T//ccn3RVaQ.s:3474   .bss.changeMotorsStateAsync_wa:0000000000000000 changeMotorsStateAsync_wa
/var/folders/qd/4mxf5pkd0zdf0b9dd1hp39180000gn/T//ccn3RVaQ.s:3477   .bss.discover_wa:0000000000000000 $d
/var/folders/qd/4mxf5pkd0zdf0b9dd1hp39180000gn/T//ccn3RVaQ.s:3481   .bss.discover_wa:0000000000000000 discover_wa
/var/folders/qd/4mxf5pkd0zdf0b9dd1hp39180000gn/T//ccn3RVaQ.s:3484   .bss.exploration_wa:0000000000000000 $d
/var/folders/qd/4mxf5pkd0zdf0b9dd1hp39180000gn/T//ccn3RVaQ.s:3488   .bss.exploration_wa:0000000000000000 exploration_wa
/var/folders/qd/4mxf5pkd0zdf0b9dd1hp39180000gn/T//ccn3RVaQ.s:3491   .bss.history:0000000000000000 $d
/var/folders/qd/4mxf5pkd0zdf0b9dd1hp39180000gn/T//ccn3RVaQ.s:3501   .bss.isMoving.11994:0000000000000000 isMoving.11994
/var/folders/qd/4mxf5pkd0zdf0b9dd1hp39180000gn/T//ccn3RVaQ.s:3502   .bss.isMoving.11994:0000000000000000 $d
/var/folders/qd/4mxf5pkd0zdf0b9dd1hp39180000gn/T//ccn3RVaQ.s:3504   .bss.lastOrder:0000000000000000 $d
/var/folders/qd/4mxf5pkd0zdf0b9dd1hp39180000gn/T//ccn3RVaQ.s:3511   .bss.lastOrderTime.11995:0000000000000000 $d
/var/folders/qd/4mxf5pkd0zdf0b9dd1hp39180000gn/T//ccn3RVaQ.s:3515   .bss.lastOrderTime.11995:0000000000000000 lastOrderTime.11995
/var/folders/qd/4mxf5pkd0zdf0b9dd1hp39180000gn/T//ccn3RVaQ.s:3518   .bss.motorsControlThread:0000000000000000 $d
/var/folders/qd/4mxf5pkd0zdf0b9dd1hp39180000gn/T//ccn3RVaQ.s:3522   .bss.motorsControlThread:0000000000000000 motorsControlThread
/var/folders/qd/4mxf5pkd0zdf0b9dd1hp39180000gn/T//ccn3RVaQ.s:3525   .data.isMessage:0000000000000000 $d
/var/folders/qd/4mxf5pkd0zdf0b9dd1hp39180000gn/T//ccn3RVaQ.s:3533   .data.wipEndMovingSignal_sem:0000000000000000 $d
/var/folders/qd/4mxf5pkd0zdf0b9dd1hp39180000gn/T//ccn3RVaQ.s:3542   .data.wipEndSignal_sem:0000000000000000 $d
/var/folders/qd/4mxf5pkd0zdf0b9dd1hp39180000gn/T//ccn3RVaQ.s:3551   .rodata.__func__.8398:0000000000000000 $d
/var/folders/qd/4mxf5pkd0zdf0b9dd1hp39180000gn/T//ccn3RVaQ.s:3555   .rodata.__func__.8398:0000000000000000 __func__.8398
/var/folders/qd/4mxf5pkd0zdf0b9dd1hp39180000gn/T//ccn3RVaQ.s:3558   .rodata.changeMotorsStateAsync.str1.4:0000000000000000 $d
/var/folders/qd/4mxf5pkd0zdf0b9dd1hp39180000gn/T//ccn3RVaQ.s:3564   .rodata.exploration.str1.4:0000000000000000 $d
/var/folders/qd/4mxf5pkd0zdf0b9dd1hp39180000gn/T//ccn3RVaQ.s:3568   .rodata.moveInAbsoluteDirection.str1.4:0000000000000000 $d
/var/folders/qd/4mxf5pkd0zdf0b9dd1hp39180000gn/T//ccn3RVaQ.s:3572   .rodata.moveWheelSpeedType.str1.4:0000000000000000 $d

UNDEFINED SYMBOLS
_stats_start_measure_crit_thd
ARM GAS  /var/folders/qd/4mxf5pkd0zdf0b9dd1hp39180000gn/T//ccn3RVaQ.s 			page 384


_dbg_check_lock
_dbg_check_unlock
_stats_stop_measure_crit_thd
chSysHalt
mod_motors_changeStateWheelSpeedType
mod_mapping_updatePositionWheelSpeedType
mod_com_writeMessage
chMsgRelease
chMsgWait
chDbgCheckClassI
chSchRescheduleS
chSemSignalI
__stack_chk_guard
ch
chMsgSend
__stack_chk_fail
chThdSleepUntilWindowed
chSemWait
mod_motors_convertRobotSpeedToWheelspeed
mod_motors_stop
__aeabi_f2d
__aeabi_dmul
__aeabi_ddiv
__aeabi_d2iz
mod_mapping_getRelativeAngle
__aeabi_i2d
mod_mapping_getRobotDisplacement
mod_sensors_getValueTOF
mod_mapping_getActualPosition
assert
chThdSleep
mod_mapping_resetCoordinates
malloc
mod_mapping_computeWallLocation
free
mod_mapping_getAreaCenter
mod_mapping_checkEnvironment
mod_mapping_computeDistanceForPicture
mod_image_sendPicture
environment
mod_mapping_checkEnvironmentLimitsRobotReferencial
mod_mapping_findObjectBestPosition
mod_sensors_initSensors
mod_motors_init
mod_mapping_init
mod_img_init
chThdCreateStatic
mod_com_writeCommand
