ARM GAS  /var/folders/qd/4mxf5pkd0zdf0b9dd1hp39180000gn/T//ccjV5QAK.s 			page 1


   1              		.cpu cortex-m4
   2              		.eabi_attribute 27, 1
   3              		.eabi_attribute 28, 1
   4              		.eabi_attribute 20, 1
   5              		.eabi_attribute 21, 1
   6              		.eabi_attribute 23, 3
   7              		.eabi_attribute 24, 1
   8              		.eabi_attribute 25, 1
   9              		.eabi_attribute 26, 1
  10              		.eabi_attribute 30, 2
  11              		.eabi_attribute 34, 1
  12              		.eabi_attribute 18, 4
  13              		.file	"mod_secure_conv.c"
  14              		.text
  15              	.Ltext0:
  16              		.cfi_sections	.debug_frame
  17              		.section	.text.size_t2int,"ax",%progbits
  18              		.align	1
  19              		.p2align 4,,15
  20              		.global	size_t2int
  21              		.syntax unified
  22              		.thumb
  23              		.thumb_func
  24              		.fpu fpv4-sp-d16
  25              		.type	size_t2int, %function
  26              	size_t2int:
  27              	.LFB0:
  28              		.file 1 "./modules/mod_secure_conv.c"
  29              		.loc 1 16 0
  30              		.cfi_startproc
  31              		@ args = 0, pretend = 0, frame = 8
  32              		@ frame_needed = 0, uses_anonymous_args = 0
  33              	.LVL0:
  34 0000 10B5     		push	{r4, lr}
  35              		.cfi_def_cfa_offset 8
  36              		.cfi_offset 4, -8
  37              		.cfi_offset 14, -4
  38 0002 0A4C     		ldr	r4, .L9
  39 0004 82B0     		sub	sp, sp, #8
  40              		.cfi_def_cfa_offset 16
  41              		.loc 1 16 0
  42 0006 2368     		ldr	r3, [r4]
  43 0008 0193     		str	r3, [sp, #4]
  44              		.loc 1 17 0
  45 000a B0F5803F 		cmp	r0, #65536
  46 000e 05D2     		bcs	.L7
  47              	.LVL1:
  48              	.L1:
  49              		.loc 1 22 0
  50 0010 019A     		ldr	r2, [sp, #4]
  51 0012 2368     		ldr	r3, [r4]
  52 0014 9A42     		cmp	r2, r3
  53 0016 07D1     		bne	.L8
  54 0018 02B0     		add	sp, sp, #8
  55              		.cfi_remember_state
  56              		.cfi_def_cfa_offset 8
  57              		@ sp needed
ARM GAS  /var/folders/qd/4mxf5pkd0zdf0b9dd1hp39180000gn/T//ccjV5QAK.s 			page 2


  58 001a 10BD     		pop	{r4, pc}
  59              	.LVL2:
  60              	.L7:
  61              		.cfi_restore_state
  62              		.loc 1 20 0
  63 001c 0220     		movs	r0, #2
  64              	.LVL3:
  65 001e FFF7FEFF 		bl	error
  66              	.LVL4:
  67              		.loc 1 21 0
  68 0022 4FF0FF30 		mov	r0, #-1
  69 0026 F3E7     		b	.L1
  70              	.L8:
  71              		.loc 1 22 0
  72 0028 FFF7FEFF 		bl	__stack_chk_fail
  73              	.LVL5:
  74              	.L10:
  75              		.align	2
  76              	.L9:
  77 002c 00000000 		.word	__stack_chk_guard
  78              		.cfi_endproc
  79              	.LFE0:
  80              		.size	size_t2int, .-size_t2int
  81              		.section	.text.int2size_t,"ax",%progbits
  82              		.align	1
  83              		.p2align 4,,15
  84              		.global	int2size_t
  85              		.syntax unified
  86              		.thumb
  87              		.thumb_func
  88              		.fpu fpv4-sp-d16
  89              		.type	int2size_t, %function
  90              	int2size_t:
  91              	.LFB1:
  92              		.loc 1 24 0
  93              		.cfi_startproc
  94              		@ args = 0, pretend = 0, frame = 8
  95              		@ frame_needed = 0, uses_anonymous_args = 0
  96              	.LVL6:
  97 0000 10B5     		push	{r4, lr}
  98              		.cfi_def_cfa_offset 8
  99              		.cfi_offset 4, -8
 100              		.cfi_offset 14, -4
 101 0002 0A4C     		ldr	r4, .L18
 102 0004 82B0     		sub	sp, sp, #8
 103              		.cfi_def_cfa_offset 16
 104              		.loc 1 24 0
 105 0006 2368     		ldr	r3, [r4]
 106 0008 0193     		str	r3, [sp, #4]
 107              		.loc 1 25 0
 108 000a 0028     		cmp	r0, #0
 109 000c 05DD     		ble	.L16
 110              	.LVL7:
 111              	.L11:
 112              		.loc 1 30 0
 113 000e 019A     		ldr	r2, [sp, #4]
 114 0010 2368     		ldr	r3, [r4]
ARM GAS  /var/folders/qd/4mxf5pkd0zdf0b9dd1hp39180000gn/T//ccjV5QAK.s 			page 3


 115 0012 9A42     		cmp	r2, r3
 116 0014 07D1     		bne	.L17
 117 0016 02B0     		add	sp, sp, #8
 118              		.cfi_remember_state
 119              		.cfi_def_cfa_offset 8
 120              		@ sp needed
 121 0018 10BD     		pop	{r4, pc}
 122              	.LVL8:
 123              	.L16:
 124              		.cfi_restore_state
 125              		.loc 1 28 0
 126 001a 0220     		movs	r0, #2
 127              	.LVL9:
 128 001c FFF7FEFF 		bl	error
 129              	.LVL10:
 130              		.loc 1 29 0
 131 0020 4FF0FF30 		mov	r0, #-1
 132 0024 F3E7     		b	.L11
 133              	.L17:
 134              		.loc 1 30 0
 135 0026 FFF7FEFF 		bl	__stack_chk_fail
 136              	.LVL11:
 137              	.L19:
 138 002a 00BF     		.align	2
 139              	.L18:
 140 002c 00000000 		.word	__stack_chk_guard
 141              		.cfi_endproc
 142              	.LFE1:
 143              		.size	int2size_t, .-int2size_t
 144              		.text
 145              	.Letext0:
 146              		.file 2 "/Applications/Eclipse_e-puck2.app/Contents/Eclipse_e-puck2/Tools/gcc-arm-none-eabi-7-2017
 147              		.file 3 "/Applications/Eclipse_e-puck2.app/Contents/Eclipse_e-puck2/Tools/gcc-arm-none-eabi-7-2017
 148              		.file 4 "/Applications/Eclipse_e-puck2.app/Contents/Eclipse_e-puck2/Tools/gcc-arm-none-eabi-7-2017
 149              		.file 5 "/Applications/Eclipse_e-puck2.app/Contents/Eclipse_e-puck2/Tools/gcc-arm-none-eabi-7-2017
 150              		.file 6 "/Applications/Eclipse_e-puck2.app/Contents/Eclipse_e-puck2/Tools/gcc-arm-none-eabi-7-2017
 151              		.file 7 "modules/headers/mod_errors.h"