ARM GAS  /var/folders/qd/4mxf5pkd0zdf0b9dd1hp39180000gn/T//cc0H01tt.s 			page 1


   1              		.cpu cortex-m4
   2              		.eabi_attribute 27, 1
   3              		.eabi_attribute 28, 1
   4              		.eabi_attribute 20, 1
   5              		.eabi_attribute 21, 1
   6              		.eabi_attribute 23, 3
   7              		.eabi_attribute 24, 1
   8              		.eabi_attribute 25, 1
   9              		.eabi_attribute 26, 1
  10              		.eabi_attribute 30, 2
  11              		.eabi_attribute 34, 1
  12              		.eabi_attribute 18, 4
  13              		.file	"mod_exploration.c"
  14              		.text
  15              	.Ltext0:
  16              		.cfi_sections	.debug_frame
  17              		.global	__aeabi_dcmpeq
  18              		.section	.text.changeMotorsStateAsync,"ax",%progbits
  19              		.align	1
  20              		.p2align 4,,15
  21              		.syntax unified
  22              		.thumb
  23              		.thumb_func
  24              		.fpu fpv4-sp-d16
  25              		.type	changeMotorsStateAsync, %function
  26              	changeMotorsStateAsync:
  27              	.LFB261:
  28              		.file 1 "./modules/mod_exploration.c"
  29              		.loc 1 114 0
  30              		.cfi_startproc
  31              		@ args = 0, pretend = 0, frame = 16
  32              		@ frame_needed = 0, uses_anonymous_args = 0
  33              	.LVL0:
  34 0000 2DE9F04F 		push	{r4, r5, r6, r7, r8, r9, r10, fp, lr}
  35              		.cfi_def_cfa_offset 36
  36              		.cfi_offset 4, -36
  37              		.cfi_offset 5, -32
  38              		.cfi_offset 6, -28
  39              		.cfi_offset 7, -24
  40              		.cfi_offset 8, -20
  41              		.cfi_offset 9, -16
  42              		.cfi_offset 10, -12
  43              		.cfi_offset 11, -8
  44              		.cfi_offset 14, -4
  45 0004 664B     		ldr	r3, .L22
  46 0006 DFF8B891 		ldr	r9, .L22+32
  47 000a 1B68     		ldr	r3, [r3]
  48 000c 654F     		ldr	r7, .L22+4
  49 000e DFF8B4B1 		ldr	fp, .L22+36
  50 0012 85B0     		sub	sp, sp, #20
  51              		.cfi_def_cfa_offset 56
  52              	.LBB181:
  53              	.LBB182:
  54              	.LBB183:
  55              	.LBB184:
  56              	.LBB185:
  57              	.LBB186:
ARM GAS  /var/folders/qd/4mxf5pkd0zdf0b9dd1hp39180000gn/T//cc0H01tt.s 			page 2


  58              	.LBB187:
  59              	.LBB188:
  60              		.file 2 "lib/e-puck2_main-processor/ChibiOS//os/ext/CMSIS/include/core_cmFunc.h"
  61              		.loc 2 546 0
  62 0014 4FF0000A 		mov	r10, #0
  63              	.LBE188:
  64              	.LBE187:
  65              	.LBE186:
  66              	.LBE185:
  67              	.LBE184:
  68              	.LBE183:
  69              	.LBE182:
  70              	.LBE181:
  71              		.loc 1 114 0
  72 0018 0393     		str	r3, [sp, #12]
  73 001a 6BE0     		b	.L13
  74              	.LVL1:
  75              	.L20:
  76              	.LBB256:
  77              	.LBB202:
  78              	.LBB203:
  79              	.LBB204:
  80              	.LBB205:
  81              	.LBB206:
  82              	.LBB207:
  83              	.LBB208:
  84              	.LBB209:
  85              		.loc 2 546 0
  86 001c 2023     		movs	r3, #32
  87              		.syntax unified
  88              	@ 546 "lib/e-puck2_main-processor/ChibiOS//os/ext/CMSIS/include/core_cmFunc.h" 1
  89 001e 83F31188 		MSR basepri, r3
  90              	@ 0 "" 2
  91              	.LVL2:
  92              		.thumb
  93              		.syntax unified
  94              	.LBE209:
  95              	.LBE208:
  96              	.LBE207:
  97              		.file 3 "lib/e-puck2_main-processor/ChibiOS//os/rt/include/chsys.h"
  98              		.loc 3 349 0
  99 0022 FFF7FEFF 		bl	_stats_start_measure_crit_thd
 100              	.LVL3:
 101              		.loc 3 350 0
 102 0026 FFF7FEFF 		bl	_dbg_check_lock
 103              	.LVL4:
 104              	.LBE206:
 105              	.LBE205:
 106              	.LBB210:
 107              	.LBB211:
 108              		.file 4 "lib/e-puck2_main-processor/ChibiOS//os/rt/include/chvt.h"
 109              		.loc 4 231 0
 110 002a BE6A     		ldr	r6, [r7, #40]
 111              	.LBE211:
 112              	.LBE210:
 113              	.LBB212:
 114              	.LBB213:
ARM GAS  /var/folders/qd/4mxf5pkd0zdf0b9dd1hp39180000gn/T//cc0H01tt.s 			page 3


 115              		.loc 3 360 0
 116 002c FFF7FEFF 		bl	_dbg_check_unlock
 117              	.LVL5:
 118              		.loc 3 361 0
 119 0030 FFF7FEFF 		bl	_stats_stop_measure_crit_thd
 120              	.LVL6:
 121              		.loc 3 367 0
 122 0034 3B68     		ldr	r3, [r7]
 123 0036 BB42     		cmp	r3, r7
 124 0038 07D0     		beq	.L3
 125 003a BA69     		ldr	r2, [r7, #24]
 126 003c 9B68     		ldr	r3, [r3, #8]
 127 003e 9268     		ldr	r2, [r2, #8]
 128 0040 9A42     		cmp	r2, r3
 129 0042 02D2     		bcs	.L3
 130 0044 5848     		ldr	r0, .L22+8
 131 0046 FFF7FEFF 		bl	chSysHalt
 132              	.LVL7:
 133              	.L3:
 134              	.LBB214:
 135              	.LBB215:
 136              	.LBB216:
 137              		.loc 2 546 0
 138              		.syntax unified
 139              	@ 546 "lib/e-puck2_main-processor/ChibiOS//os/ext/CMSIS/include/core_cmFunc.h" 1
 140 004a 8AF31188 		MSR basepri, r10
 141              	@ 0 "" 2
 142              	.LVL8:
 143              		.thumb
 144              		.syntax unified
 145              	.LBE216:
 146              	.LBE215:
 147              	.LBE214:
 148              	.LBE213:
 149              	.LBE212:
 150              	.LBE204:
 151              	.LBE203:
 152              	.LBB217:
 153              	.LBB218:
 154              	.LBB219:
 155              	.LBB220:
 156              	.LBB221:
 157              	.LBB222:
 158              	.LBB223:
 159 004e 2023     		movs	r3, #32
 160 0050 0136     		adds	r6, r6, #1
 161              	.LBE223:
 162              	.LBE222:
 163              	.LBE221:
 164              	.LBE220:
 165              	.LBE219:
 166              	.LBE218:
 167              	.LBE217:
 168              		.loc 1 123 0
 169 0052 DBF80080 		ldr	r8, [fp]
 170              	.LVL9:
 171              	.LBB237:
ARM GAS  /var/folders/qd/4mxf5pkd0zdf0b9dd1hp39180000gn/T//cc0H01tt.s 			page 4


 172              	.LBB236:
 173              	.LBB228:
 174              	.LBB227:
 175              	.LBB226:
 176              	.LBB225:
 177              	.LBB224:
 178              		.loc 2 546 0
 179              		.syntax unified
 180              	@ 546 "lib/e-puck2_main-processor/ChibiOS//os/ext/CMSIS/include/core_cmFunc.h" 1
 181 0056 83F31188 		MSR basepri, r3
 182              	@ 0 "" 2
 183              	.LVL10:
 184              		.thumb
 185              		.syntax unified
 186              	.LBE224:
 187              	.LBE225:
 188              	.LBE226:
 189              		.loc 3 349 0
 190 005a FFF7FEFF 		bl	_stats_start_measure_crit_thd
 191              	.LVL11:
 192              		.loc 3 350 0
 193 005e FFF7FEFF 		bl	_dbg_check_lock
 194              	.LVL12:
 195              	.LBE227:
 196              	.LBE228:
 197              	.LBB229:
 198              	.LBB230:
 199              		.loc 4 231 0
 200 0062 BB6A     		ldr	r3, [r7, #40]
 201 0064 0193     		str	r3, [sp, #4]
 202              	.LBE230:
 203              	.LBE229:
 204              	.LBB231:
 205              	.LBB232:
 206              		.loc 3 360 0
 207 0066 FFF7FEFF 		bl	_dbg_check_unlock
 208              	.LVL13:
 209              		.loc 3 361 0
 210 006a FFF7FEFF 		bl	_stats_stop_measure_crit_thd
 211              	.LVL14:
 212              		.loc 3 367 0
 213 006e 3B68     		ldr	r3, [r7]
 214 0070 BB42     		cmp	r3, r7
 215 0072 07D0     		beq	.L4
 216 0074 BA69     		ldr	r2, [r7, #24]
 217 0076 9B68     		ldr	r3, [r3, #8]
 218 0078 9268     		ldr	r2, [r2, #8]
 219 007a 9A42     		cmp	r2, r3
 220 007c 02D2     		bcs	.L4
 221 007e 4A48     		ldr	r0, .L22+8
 222 0080 FFF7FEFF 		bl	chSysHalt
 223              	.LVL15:
 224              	.L4:
 225              	.LBB233:
 226              	.LBB234:
 227              	.LBB235:
 228              		.loc 2 546 0
ARM GAS  /var/folders/qd/4mxf5pkd0zdf0b9dd1hp39180000gn/T//cc0H01tt.s 			page 5


 229              		.syntax unified
 230              	@ 546 "lib/e-puck2_main-processor/ChibiOS//os/ext/CMSIS/include/core_cmFunc.h" 1
 231 0084 8AF31188 		MSR basepri, r10
 232              	@ 0 "" 2
 233              	.LVL16:
 234              		.thumb
 235              		.syntax unified
 236              	.LBE235:
 237              	.LBE234:
 238              	.LBE233:
 239              	.LBE232:
 240              	.LBE231:
 241              	.LBE236:
 242              	.LBE237:
 243              		.loc 1 124 0
 244 0088 019B     		ldr	r3, [sp, #4]
 245 008a CBF80030 		str	r3, [fp]
 246              		.loc 1 125 0
 247 008e 94ED000B 		vldr.64	d0, [r4]
 248 0092 94ED021B 		vldr.64	d1, [r4, #8]
 249 0096 FFF7FEFF 		bl	mod_motors_changeStateWheelSpeedType
 250              	.LVL17:
 251              		.loc 1 126 0
 252 009a A6EB0806 		sub	r6, r6, r8
 253 009e 4FF47A71 		mov	r1, #1000
 254 00a2 01FB06F1 		mul	r1, r1, r6
 255 00a6 414B     		ldr	r3, .L22+12
 256 00a8 4148     		ldr	r0, .L22+16
 257 00aa 0139     		subs	r1, r1, #1
 258 00ac A3FB0131 		umull	r3, r1, r3, r1
 259 00b0 8909     		lsrs	r1, r1, #6
 260 00b2 FFF7FEFF 		bl	mod_mapping_updatePositionWheelSpeedType
 261              	.LVL18:
 262              	.L5:
 263              	.LBE202:
 264              		.loc 1 133 0
 265 00b6 0022     		movs	r2, #0
 266 00b8 0023     		movs	r3, #0
 267 00ba D4E90001 		ldrd	r0, [r4]
 268 00be FFF7FEFF 		bl	__aeabi_dcmpeq
 269              	.LVL19:
 270 00c2 38B1     		cbz	r0, .L7
 271              		.loc 1 133 0 is_stmt 0 discriminator 1
 272 00c4 0022     		movs	r2, #0
 273 00c6 0023     		movs	r3, #0
 274 00c8 D4E90201 		ldrd	r0, [r4, #8]
 275 00cc FFF7FEFF 		bl	__aeabi_dcmpeq
 276              	.LVL20:
 277 00d0 0028     		cmp	r0, #0
 278 00d2 39D1     		bne	.L19
 279              	.L7:
 280              		.loc 1 139 0 is_stmt 1
 281 00d4 0021     		movs	r1, #0
 282 00d6 3748     		ldr	r0, .L22+20
 283 00d8 FFF7FEFF 		bl	mod_com_writeMessage
 284              	.LVL21:
 285              		.loc 1 141 0
ARM GAS  /var/folders/qd/4mxf5pkd0zdf0b9dd1hp39180000gn/T//cc0H01tt.s 			page 6


 286 00dc 94E80F00 		ldm	r4, {r0, r1, r2, r3}
 287 00e0 334C     		ldr	r4, .L22+16
 288              	.LVL22:
 289 00e2 84E80F00 		stm	r4, {r0, r1, r2, r3}
 290              		.loc 1 140 0
 291 00e6 0123     		movs	r3, #1
 292 00e8 89F80030 		strb	r3, [r9]
 293              	.L12:
 294              		.loc 1 143 0
 295 00ec 2846     		mov	r0, r5
 296 00ee 0021     		movs	r1, #0
 297 00f0 FFF7FEFF 		bl	chMsgRelease
 298              	.LVL23:
 299              	.L13:
 300              		.loc 1 119 0
 301 00f4 FFF7FEFF 		bl	chMsgWait
 302              	.LVL24:
 303              		.loc 1 122 0
 304 00f8 99F80030 		ldrb	r3, [r9]	@ zero_extendqisi2
 305              		.loc 1 120 0
 306 00fc 846B     		ldr	r4, [r0, #56]
 307              		.loc 1 119 0
 308 00fe 0546     		mov	r5, r0
 309              	.LVL25:
 310              		.loc 1 122 0
 311 0100 002B     		cmp	r3, #0
 312 0102 8BD1     		bne	.L20
 313              	.LVL26:
 314              	.LBB238:
 315              	.LBB201:
 316              	.LBB193:
 317              	.LBB194:
 318              	.LBB195:
 319              	.LBB196:
 320              	.LBB197:
 321              		.loc 2 546 0
 322 0104 2023     		movs	r3, #32
 323              		.syntax unified
 324              	@ 546 "lib/e-puck2_main-processor/ChibiOS//os/ext/CMSIS/include/core_cmFunc.h" 1
 325 0106 83F31188 		MSR basepri, r3
 326              	@ 0 "" 2
 327              	.LVL27:
 328              		.thumb
 329              		.syntax unified
 330              	.LBE197:
 331              	.LBE196:
 332              	.LBE195:
 333              		.loc 3 349 0
 334 010a FFF7FEFF 		bl	_stats_start_measure_crit_thd
 335              	.LVL28:
 336              		.loc 3 350 0
 337 010e FFF7FEFF 		bl	_dbg_check_lock
 338              	.LVL29:
 339              	.LBE194:
 340              	.LBE193:
 341              	.LBB198:
 342              	.LBB199:
ARM GAS  /var/folders/qd/4mxf5pkd0zdf0b9dd1hp39180000gn/T//cc0H01tt.s 			page 7


 343              		.loc 4 231 0
 344 0112 BE6A     		ldr	r6, [r7, #40]
 345              	.LBE199:
 346              	.LBE198:
 347              	.LBB200:
 348              	.LBB192:
 349              		.loc 3 360 0
 350 0114 FFF7FEFF 		bl	_dbg_check_unlock
 351              	.LVL30:
 352              		.loc 3 361 0
 353 0118 FFF7FEFF 		bl	_stats_stop_measure_crit_thd
 354              	.LVL31:
 355              		.loc 3 367 0
 356 011c 3B68     		ldr	r3, [r7]
 357 011e BB42     		cmp	r3, r7
 358 0120 07D0     		beq	.L6
 359 0122 BA69     		ldr	r2, [r7, #24]
 360 0124 9B68     		ldr	r3, [r3, #8]
 361 0126 9268     		ldr	r2, [r2, #8]
 362 0128 9A42     		cmp	r2, r3
 363 012a 02D2     		bcs	.L6
 364 012c 1E48     		ldr	r0, .L22+8
 365 012e FFF7FEFF 		bl	chSysHalt
 366              	.LVL32:
 367              	.L6:
 368              	.LBB191:
 369              	.LBB190:
 370              	.LBB189:
 371              		.loc 2 546 0
 372              		.syntax unified
 373              	@ 546 "lib/e-puck2_main-processor/ChibiOS//os/ext/CMSIS/include/core_cmFunc.h" 1
 374 0132 8AF31188 		MSR basepri, r10
 375              	@ 0 "" 2
 376              	.LVL33:
 377              		.thumb
 378              		.syntax unified
 379              	.LBE189:
 380              	.LBE190:
 381              	.LBE191:
 382              	.LBE192:
 383              	.LBE200:
 384              	.LBE201:
 385              	.LBE238:
 386              		.loc 1 130 0
 387 0136 94ED000B 		vldr.64	d0, [r4]
 388 013a 94ED021B 		vldr.64	d1, [r4, #8]
 389              		.loc 1 129 0
 390 013e CBF80060 		str	r6, [fp]
 391              		.loc 1 130 0
 392 0142 FFF7FEFF 		bl	mod_motors_changeStateWheelSpeedType
 393              	.LVL34:
 394 0146 B6E7     		b	.L5
 395              	.L19:
 396              		.loc 1 134 0
 397 0148 0021     		movs	r1, #0
 398 014a 1B48     		ldr	r0, .L22+24
 399 014c FFF7FEFF 		bl	mod_com_writeMessage
ARM GAS  /var/folders/qd/4mxf5pkd0zdf0b9dd1hp39180000gn/T//cc0H01tt.s 			page 8


 400              	.LVL35:
 401              		.loc 1 135 0
 402 0150 89F800A0 		strb	r10, [r9]
 403              	.LVL36:
 404              	.LBB239:
 405              	.LBB240:
 406              	.LBB241:
 407              	.LBB242:
 408              	.LBB243:
 409              	.LBB244:
 410              	.LBB245:
 411              	.LBB246:
 412              		.loc 2 546 0
 413 0154 2023     		movs	r3, #32
 414              		.syntax unified
 415              	@ 546 "lib/e-puck2_main-processor/ChibiOS//os/ext/CMSIS/include/core_cmFunc.h" 1
 416 0156 83F31188 		MSR basepri, r3
 417              	@ 0 "" 2
 418              	.LVL37:
 419              		.thumb
 420              		.syntax unified
 421              	.LBE246:
 422              	.LBE245:
 423              	.LBE244:
 424              		.loc 3 349 0
 425 015a FFF7FEFF 		bl	_stats_start_measure_crit_thd
 426              	.LVL38:
 427              		.loc 3 350 0
 428 015e FFF7FEFF 		bl	_dbg_check_lock
 429              	.LVL39:
 430              	.LBE243:
 431              	.LBE242:
 432              	.LBB247:
 433              	.LBB248:
 434              		.file 5 "lib/e-puck2_main-processor/ChibiOS//os/rt/include/chbsem.h"
 435              		.loc 5 268 0
 436 0162 FFF7FEFF 		bl	chDbgCheckClassI
 437              	.LVL40:
 438              		.loc 5 270 0
 439 0166 154B     		ldr	r3, .L22+28
 440 0168 9B68     		ldr	r3, [r3, #8]
 441 016a 002B     		cmp	r3, #0
 442 016c 13DD     		ble	.L21
 443              	.L10:
 444              	.LVL41:
 445              	.LBE248:
 446              	.LBE247:
 447              		.loc 5 286 0
 448 016e FFF7FEFF 		bl	chSchRescheduleS
 449              	.LVL42:
 450              	.LBB250:
 451              	.LBB251:
 452              		.loc 3 360 0
 453 0172 FFF7FEFF 		bl	_dbg_check_unlock
 454              	.LVL43:
 455              		.loc 3 361 0
 456 0176 FFF7FEFF 		bl	_stats_stop_measure_crit_thd
ARM GAS  /var/folders/qd/4mxf5pkd0zdf0b9dd1hp39180000gn/T//cc0H01tt.s 			page 9


 457              	.LVL44:
 458              		.loc 3 367 0
 459 017a 3B68     		ldr	r3, [r7]
 460 017c BB42     		cmp	r3, r7
 461 017e 07D0     		beq	.L11
 462 0180 BA69     		ldr	r2, [r7, #24]
 463 0182 9B68     		ldr	r3, [r3, #8]
 464 0184 9268     		ldr	r2, [r2, #8]
 465 0186 9A42     		cmp	r2, r3
 466 0188 02D2     		bcs	.L11
 467 018a 0748     		ldr	r0, .L22+8
 468 018c FFF7FEFF 		bl	chSysHalt
 469              	.LVL45:
 470              	.L11:
 471              	.LBB252:
 472              	.LBB253:
 473              	.LBB254:
 474              		.loc 2 546 0
 475              		.syntax unified
 476              	@ 546 "lib/e-puck2_main-processor/ChibiOS//os/ext/CMSIS/include/core_cmFunc.h" 1
 477 0190 8AF31188 		MSR basepri, r10
 478              	@ 0 "" 2
 479              	.LVL46:
 480              		.thumb
 481              		.syntax unified
 482 0194 AAE7     		b	.L12
 483              	.LVL47:
 484              	.L21:
 485              	.LBE254:
 486              	.LBE253:
 487              	.LBE252:
 488              	.LBE251:
 489              	.LBE250:
 490              	.LBB255:
 491              	.LBB249:
 492              		.loc 5 271 0
 493 0196 0948     		ldr	r0, .L22+28
 494 0198 FFF7FEFF 		bl	chSemSignalI
 495              	.LVL48:
 496 019c E7E7     		b	.L10
 497              	.L23:
 498 019e 00BF     		.align	2
 499              	.L22:
 500 01a0 00000000 		.word	__stack_chk_guard
 501 01a4 00000000 		.word	ch
 502 01a8 00000000 		.word	.LANCHOR1
 503 01ac D34D6210 		.word	274877907
 504 01b0 00000000 		.word	.LANCHOR3
 505 01b4 14000000 		.word	.LC1
 506 01b8 00000000 		.word	.LC0
 507 01bc 00000000 		.word	.LANCHOR4
 508 01c0 00000000 		.word	.LANCHOR0
 509 01c4 00000000 		.word	.LANCHOR2
 510              	.LBE249:
 511              	.LBE255:
 512              	.LBE241:
 513              	.LBE240:
ARM GAS  /var/folders/qd/4mxf5pkd0zdf0b9dd1hp39180000gn/T//cc0H01tt.s 			page 10


 514              	.LBE239:
 515              	.LBE256:
 516              		.cfi_endproc
 517              	.LFE261:
 518              		.size	changeMotorsStateAsync, .-changeMotorsStateAsync
 519              		.section	.text.signalEndOfWork,"ax",%progbits
 520              		.align	1
 521              		.p2align 4,,15
 522              		.global	signalEndOfWork
 523              		.syntax unified
 524              		.thumb
 525              		.thumb_func
 526              		.fpu fpv4-sp-d16
 527              		.type	signalEndOfWork, %function
 528              	signalEndOfWork:
 529              	.LFB259:
 530              		.loc 1 105 0
 531              		.cfi_startproc
 532              		@ args = 0, pretend = 0, frame = 8
 533              		@ frame_needed = 0, uses_anonymous_args = 0
 534 0000 10B5     		push	{r4, lr}
 535              		.cfi_def_cfa_offset 8
 536              		.cfi_offset 4, -8
 537              		.cfi_offset 14, -4
 538 0002 194C     		ldr	r4, .L32
 539 0004 82B0     		sub	sp, sp, #8
 540              		.cfi_def_cfa_offset 16
 541              		.loc 1 105 0
 542 0006 2368     		ldr	r3, [r4]
 543 0008 0193     		str	r3, [sp, #4]
 544              	.LVL49:
 545              	.LBB271:
 546              	.LBB272:
 547              	.LBB273:
 548              	.LBB274:
 549              	.LBB275:
 550              	.LBB276:
 551              	.LBB277:
 552              		.loc 2 546 0
 553 000a 2023     		movs	r3, #32
 554              		.syntax unified
 555              	@ 546 "lib/e-puck2_main-processor/ChibiOS//os/ext/CMSIS/include/core_cmFunc.h" 1
 556 000c 83F31188 		MSR basepri, r3
 557              	@ 0 "" 2
 558              	.LVL50:
 559              		.thumb
 560              		.syntax unified
 561              	.LBE277:
 562              	.LBE276:
 563              	.LBE275:
 564              		.loc 3 349 0
 565 0010 FFF7FEFF 		bl	_stats_start_measure_crit_thd
 566              	.LVL51:
 567              		.loc 3 350 0
 568 0014 FFF7FEFF 		bl	_dbg_check_lock
 569              	.LVL52:
 570              	.LBE274:
ARM GAS  /var/folders/qd/4mxf5pkd0zdf0b9dd1hp39180000gn/T//cc0H01tt.s 			page 11


 571              	.LBE273:
 572              	.LBB278:
 573              	.LBB279:
 574              		.loc 5 268 0
 575 0018 FFF7FEFF 		bl	chDbgCheckClassI
 576              	.LVL53:
 577              		.loc 5 270 0
 578 001c 1348     		ldr	r0, .L32+4
 579 001e 8368     		ldr	r3, [r0, #8]
 580 0020 002B     		cmp	r3, #0
 581 0022 1BDD     		ble	.L29
 582              	.L25:
 583              	.LVL54:
 584              	.LBE279:
 585              	.LBE278:
 586              		.loc 5 286 0
 587 0024 FFF7FEFF 		bl	chSchRescheduleS
 588              	.LVL55:
 589              	.LBB281:
 590              	.LBB282:
 591              		.loc 3 360 0
 592 0028 FFF7FEFF 		bl	_dbg_check_unlock
 593              	.LVL56:
 594              		.loc 3 361 0
 595 002c FFF7FEFF 		bl	_stats_stop_measure_crit_thd
 596              	.LVL57:
 597              		.loc 3 367 0
 598 0030 0F4B     		ldr	r3, .L32+8
 599 0032 1A68     		ldr	r2, [r3]
 600 0034 9A42     		cmp	r2, r3
 601 0036 04D0     		beq	.L26
 602 0038 9969     		ldr	r1, [r3, #24]
 603 003a 9368     		ldr	r3, [r2, #8]
 604 003c 8A68     		ldr	r2, [r1, #8]
 605 003e 9A42     		cmp	r2, r3
 606 0040 08D3     		bcc	.L30
 607              	.L26:
 608              	.LVL58:
 609              	.LBB283:
 610              	.LBB284:
 611              	.LBB285:
 612              		.loc 2 546 0
 613 0042 0023     		movs	r3, #0
 614              		.syntax unified
 615              	@ 546 "lib/e-puck2_main-processor/ChibiOS//os/ext/CMSIS/include/core_cmFunc.h" 1
 616 0044 83F31188 		MSR basepri, r3
 617              	@ 0 "" 2
 618              	.LVL59:
 619              		.thumb
 620              		.syntax unified
 621              	.LBE285:
 622              	.LBE284:
 623              	.LBE283:
 624              	.LBE282:
 625              	.LBE281:
 626              	.LBE272:
 627              	.LBE271:
ARM GAS  /var/folders/qd/4mxf5pkd0zdf0b9dd1hp39180000gn/T//cc0H01tt.s 			page 12


 628              		.loc 1 107 0
 629 0048 019A     		ldr	r2, [sp, #4]
 630 004a 2368     		ldr	r3, [r4]
 631 004c 9A42     		cmp	r2, r3
 632 004e 08D1     		bne	.L31
 633 0050 02B0     		add	sp, sp, #8
 634              		.cfi_remember_state
 635              		.cfi_def_cfa_offset 8
 636              		@ sp needed
 637 0052 10BD     		pop	{r4, pc}
 638              	.LVL60:
 639              	.L30:
 640              		.cfi_restore_state
 641              	.LBB290:
 642              	.LBB289:
 643              	.LBB287:
 644              	.LBB286:
 645              		.loc 3 367 0
 646 0054 0748     		ldr	r0, .L32+12
 647 0056 FFF7FEFF 		bl	chSysHalt
 648              	.LVL61:
 649 005a F2E7     		b	.L26
 650              	.LVL62:
 651              	.L29:
 652              	.LBE286:
 653              	.LBE287:
 654              	.LBB288:
 655              	.LBB280:
 656              		.loc 5 271 0
 657 005c FFF7FEFF 		bl	chSemSignalI
 658              	.LVL63:
 659 0060 E0E7     		b	.L25
 660              	.LVL64:
 661              	.L31:
 662              	.LBE280:
 663              	.LBE288:
 664              	.LBE289:
 665              	.LBE290:
 666              		.loc 1 107 0
 667 0062 FFF7FEFF 		bl	__stack_chk_fail
 668              	.LVL65:
 669              	.L33:
 670 0066 00BF     		.align	2
 671              	.L32:
 672 0068 00000000 		.word	__stack_chk_guard
 673 006c 00000000 		.word	.LANCHOR5
 674 0070 00000000 		.word	ch
 675 0074 00000000 		.word	.LANCHOR1
 676              		.cfi_endproc
 677              	.LFE259:
 678              		.size	signalEndOfWork, .-signalEndOfWork
 679              		.section	.text.signalEndMovement,"ax",%progbits
 680              		.align	1
 681              		.p2align 4,,15
 682              		.global	signalEndMovement
 683              		.syntax unified
 684              		.thumb
ARM GAS  /var/folders/qd/4mxf5pkd0zdf0b9dd1hp39180000gn/T//cc0H01tt.s 			page 13


 685              		.thumb_func
 686              		.fpu fpv4-sp-d16
 687              		.type	signalEndMovement, %function
 688              	signalEndMovement:
 689              	.LFB260:
 690              		.loc 1 109 0
 691              		.cfi_startproc
 692              		@ args = 0, pretend = 0, frame = 8
 693              		@ frame_needed = 0, uses_anonymous_args = 0
 694 0000 10B5     		push	{r4, lr}
 695              		.cfi_def_cfa_offset 8
 696              		.cfi_offset 4, -8
 697              		.cfi_offset 14, -4
 698 0002 194C     		ldr	r4, .L42
 699 0004 82B0     		sub	sp, sp, #8
 700              		.cfi_def_cfa_offset 16
 701              		.loc 1 109 0
 702 0006 2368     		ldr	r3, [r4]
 703 0008 0193     		str	r3, [sp, #4]
 704              	.LVL66:
 705              	.LBB305:
 706              	.LBB306:
 707              	.LBB307:
 708              	.LBB308:
 709              	.LBB309:
 710              	.LBB310:
 711              	.LBB311:
 712              		.loc 2 546 0
 713 000a 2023     		movs	r3, #32
 714              		.syntax unified
 715              	@ 546 "lib/e-puck2_main-processor/ChibiOS//os/ext/CMSIS/include/core_cmFunc.h" 1
 716 000c 83F31188 		MSR basepri, r3
 717              	@ 0 "" 2
 718              	.LVL67:
 719              		.thumb
 720              		.syntax unified
 721              	.LBE311:
 722              	.LBE310:
 723              	.LBE309:
 724              		.loc 3 349 0
 725 0010 FFF7FEFF 		bl	_stats_start_measure_crit_thd
 726              	.LVL68:
 727              		.loc 3 350 0
 728 0014 FFF7FEFF 		bl	_dbg_check_lock
 729              	.LVL69:
 730              	.LBE308:
 731              	.LBE307:
 732              	.LBB312:
 733              	.LBB313:
 734              		.loc 5 268 0
 735 0018 FFF7FEFF 		bl	chDbgCheckClassI
 736              	.LVL70:
 737              		.loc 5 270 0
 738 001c 1348     		ldr	r0, .L42+4
 739 001e 8368     		ldr	r3, [r0, #8]
 740 0020 002B     		cmp	r3, #0
 741 0022 1BDD     		ble	.L39
ARM GAS  /var/folders/qd/4mxf5pkd0zdf0b9dd1hp39180000gn/T//cc0H01tt.s 			page 14


 742              	.L35:
 743              	.LVL71:
 744              	.LBE313:
 745              	.LBE312:
 746              		.loc 5 286 0
 747 0024 FFF7FEFF 		bl	chSchRescheduleS
 748              	.LVL72:
 749              	.LBB315:
 750              	.LBB316:
 751              		.loc 3 360 0
 752 0028 FFF7FEFF 		bl	_dbg_check_unlock
 753              	.LVL73:
 754              		.loc 3 361 0
 755 002c FFF7FEFF 		bl	_stats_stop_measure_crit_thd
 756              	.LVL74:
 757              		.loc 3 367 0
 758 0030 0F4B     		ldr	r3, .L42+8
 759 0032 1A68     		ldr	r2, [r3]
 760 0034 9A42     		cmp	r2, r3
 761 0036 04D0     		beq	.L36
 762 0038 9969     		ldr	r1, [r3, #24]
 763 003a 9368     		ldr	r3, [r2, #8]
 764 003c 8A68     		ldr	r2, [r1, #8]
 765 003e 9A42     		cmp	r2, r3
 766 0040 08D3     		bcc	.L40
 767              	.L36:
 768              	.LVL75:
 769              	.LBB317:
 770              	.LBB318:
 771              	.LBB319:
 772              		.loc 2 546 0
 773 0042 0023     		movs	r3, #0
 774              		.syntax unified
 775              	@ 546 "lib/e-puck2_main-processor/ChibiOS//os/ext/CMSIS/include/core_cmFunc.h" 1
 776 0044 83F31188 		MSR basepri, r3
 777              	@ 0 "" 2
 778              	.LVL76:
 779              		.thumb
 780              		.syntax unified
 781              	.LBE319:
 782              	.LBE318:
 783              	.LBE317:
 784              	.LBE316:
 785              	.LBE315:
 786              	.LBE306:
 787              	.LBE305:
 788              		.loc 1 111 0
 789 0048 019A     		ldr	r2, [sp, #4]
 790 004a 2368     		ldr	r3, [r4]
 791 004c 9A42     		cmp	r2, r3
 792 004e 08D1     		bne	.L41
 793 0050 02B0     		add	sp, sp, #8
 794              		.cfi_remember_state
 795              		.cfi_def_cfa_offset 8
 796              		@ sp needed
 797 0052 10BD     		pop	{r4, pc}
 798              	.LVL77:
ARM GAS  /var/folders/qd/4mxf5pkd0zdf0b9dd1hp39180000gn/T//cc0H01tt.s 			page 15


 799              	.L40:
 800              		.cfi_restore_state
 801              	.LBB324:
 802              	.LBB323:
 803              	.LBB321:
 804              	.LBB320:
 805              		.loc 3 367 0
 806 0054 0748     		ldr	r0, .L42+12
 807 0056 FFF7FEFF 		bl	chSysHalt
 808              	.LVL78:
 809 005a F2E7     		b	.L36
 810              	.LVL79:
 811              	.L39:
 812              	.LBE320:
 813              	.LBE321:
 814              	.LBB322:
 815              	.LBB314:
 816              		.loc 5 271 0
 817 005c FFF7FEFF 		bl	chSemSignalI
 818              	.LVL80:
 819 0060 E0E7     		b	.L35
 820              	.LVL81:
 821              	.L41:
 822              	.LBE314:
 823              	.LBE322:
 824              	.LBE323:
 825              	.LBE324:
 826              		.loc 1 111 0
 827 0062 FFF7FEFF 		bl	__stack_chk_fail
 828              	.LVL82:
 829              	.L43:
 830 0066 00BF     		.align	2
 831              	.L42:
 832 0068 00000000 		.word	__stack_chk_guard
 833 006c 00000000 		.word	.LANCHOR4
 834 0070 00000000 		.word	ch
 835 0074 00000000 		.word	.LANCHOR1
 836              		.cfi_endproc
 837              	.LFE260:
 838              		.size	signalEndMovement, .-signalEndMovement
 839              		.section	.text.waitForMovementEnd,"ax",%progbits
 840              		.align	1
 841              		.p2align 4,,15
 842              		.global	waitForMovementEnd
 843              		.syntax unified
 844              		.thumb
 845              		.thumb_func
 846              		.fpu fpv4-sp-d16
 847              		.type	waitForMovementEnd, %function
 848              	waitForMovementEnd:
 849              	.LFB262:
 850              		.loc 1 147 0
 851              		.cfi_startproc
 852              		@ args = 0, pretend = 0, frame = 8
 853              		@ frame_needed = 0, uses_anonymous_args = 0
 854 0000 00B5     		push	{lr}
 855              		.cfi_def_cfa_offset 4
ARM GAS  /var/folders/qd/4mxf5pkd0zdf0b9dd1hp39180000gn/T//cc0H01tt.s 			page 16


 856              		.cfi_offset 14, -4
 857 0002 084B     		ldr	r3, .L49
 858 0004 83B0     		sub	sp, sp, #12
 859              		.cfi_def_cfa_offset 16
 860              		.loc 1 147 0
 861 0006 1A68     		ldr	r2, [r3]
 862 0008 0192     		str	r2, [sp, #4]
 863              	.LVL83:
 864              	.LBB325:
 865              	.LBB326:
 866              		.loc 5 143 0
 867 000a 019A     		ldr	r2, [sp, #4]
 868 000c 1B68     		ldr	r3, [r3]
 869 000e 9A42     		cmp	r2, r3
 870 0010 05D1     		bne	.L48
 871 0012 0548     		ldr	r0, .L49+4
 872              	.LBE326:
 873              	.LBE325:
 874              		.loc 1 149 0
 875 0014 03B0     		add	sp, sp, #12
 876              		.cfi_remember_state
 877              		.cfi_def_cfa_offset 4
 878              		@ sp needed
 879 0016 5DF804EB 		ldr	lr, [sp], #4
 880              		.cfi_restore 14
 881              		.cfi_def_cfa_offset 0
 882              	.LBB328:
 883              	.LBB327:
 884              		.loc 5 143 0
 885 001a FFF7FEBF 		b	chSemWait
 886              	.LVL84:
 887              	.L48:
 888              		.cfi_restore_state
 889 001e FFF7FEFF 		bl	__stack_chk_fail
 890              	.LVL85:
 891              	.L50:
 892 0022 00BF     		.align	2
 893              	.L49:
 894 0024 00000000 		.word	__stack_chk_guard
 895 0028 00000000 		.word	.LANCHOR4
 896              	.LBE327:
 897              	.LBE328:
 898              		.cfi_endproc
 899              	.LFE262:
 900              		.size	waitForMovementEnd, .-waitForMovementEnd
 901              		.section	.text.changeMotorsState,"ax",%progbits
 902              		.align	1
 903              		.p2align 4,,15
 904              		.global	changeMotorsState
 905              		.syntax unified
 906              		.thumb
 907              		.thumb_func
 908              		.fpu fpv4-sp-d16
 909              		.type	changeMotorsState, %function
 910              	changeMotorsState:
 911              	.LFB263:
 912              		.loc 1 151 0
ARM GAS  /var/folders/qd/4mxf5pkd0zdf0b9dd1hp39180000gn/T//cc0H01tt.s 			page 17


 913              		.cfi_startproc
 914              		@ args = 0, pretend = 0, frame = 24
 915              		@ frame_needed = 0, uses_anonymous_args = 0
 916 0000 10B5     		push	{r4, lr}
 917              		.cfi_def_cfa_offset 8
 918              		.cfi_offset 4, -8
 919              		.cfi_offset 14, -4
 920              		.loc 1 152 0
 921 0002 0A4A     		ldr	r2, .L55
 922              		.loc 1 151 0
 923 0004 0A4C     		ldr	r4, .L55+4
 924              		.loc 1 152 0
 925 0006 1068     		ldr	r0, [r2]
 926              		.loc 1 151 0
 927 0008 2368     		ldr	r3, [r4]
 928 000a 86B0     		sub	sp, sp, #24
 929              		.cfi_def_cfa_offset 32
 930              		.loc 1 152 0
 931 000c 6946     		mov	r1, sp
 932              		.loc 1 151 0
 933 000e 0593     		str	r3, [sp, #20]
 934 0010 8DED000B 		vstr.64	d0, [sp]
 935 0014 8DED021B 		vstr.64	d1, [sp, #8]
 936              		.loc 1 152 0
 937 0018 FFF7FEFF 		bl	chMsgSend
 938              	.LVL86:
 939              		.loc 1 153 0
 940 001c 059A     		ldr	r2, [sp, #20]
 941 001e 2368     		ldr	r3, [r4]
 942 0020 9A42     		cmp	r2, r3
 943 0022 01D1     		bne	.L54
 944 0024 06B0     		add	sp, sp, #24
 945              		.cfi_remember_state
 946              		.cfi_def_cfa_offset 8
 947              		@ sp needed
 948 0026 10BD     		pop	{r4, pc}
 949              	.L54:
 950              		.cfi_restore_state
 951 0028 FFF7FEFF 		bl	__stack_chk_fail
 952              	.LVL87:
 953              	.L56:
 954              		.align	2
 955              	.L55:
 956 002c 00000000 		.word	.LANCHOR6
 957 0030 00000000 		.word	__stack_chk_guard
 958              		.cfi_endproc
 959              	.LFE263:
 960              		.size	changeMotorsState, .-changeMotorsState
 961              		.section	.text.stopMotors,"ax",%progbits
 962              		.align	1
 963              		.p2align 4,,15
 964              		.global	stopMotors
 965              		.syntax unified
 966              		.thumb
 967              		.thumb_func
 968              		.fpu fpv4-sp-d16
 969              		.type	stopMotors, %function
ARM GAS  /var/folders/qd/4mxf5pkd0zdf0b9dd1hp39180000gn/T//cc0H01tt.s 			page 18


 970              	stopMotors:
 971              	.LFB264:
 972              		.loc 1 155 0
 973              		.cfi_startproc
 974              		@ args = 0, pretend = 0, frame = 24
 975              		@ frame_needed = 0, uses_anonymous_args = 0
 976 0000 10B5     		push	{r4, lr}
 977              		.cfi_def_cfa_offset 8
 978              		.cfi_offset 4, -8
 979              		.cfi_offset 14, -4
 980 0002 0B4C     		ldr	r4, .L61
 981              	.LBB329:
 982              	.LBB330:
 983              		.loc 1 152 0
 984 0004 0B4A     		ldr	r2, .L61+4
 985              	.LBE330:
 986              	.LBE329:
 987              		.loc 1 155 0
 988 0006 2368     		ldr	r3, [r4]
 989              	.LBB333:
 990              	.LBB331:
 991              		.loc 1 152 0
 992 0008 1068     		ldr	r0, [r2]
 993              	.LBE331:
 994              	.LBE333:
 995              		.loc 1 155 0
 996 000a 86B0     		sub	sp, sp, #24
 997              		.cfi_def_cfa_offset 32
 998 000c 0022     		movs	r2, #0
 999              		.loc 1 155 0
 1000 000e 0593     		str	r3, [sp, #20]
 1001              	.LBB334:
 1002              	.LBB332:
 1003              		.loc 1 152 0
 1004 0010 6946     		mov	r1, sp
 1005 0012 0023     		movs	r3, #0
 1006 0014 CDE90023 		strd	r2, [sp]
 1007 0018 CDE90223 		strd	r2, [sp, #8]
 1008 001c FFF7FEFF 		bl	chMsgSend
 1009              	.LVL88:
 1010              	.LBE332:
 1011              	.LBE334:
 1012              		.loc 1 157 0
 1013 0020 059A     		ldr	r2, [sp, #20]
 1014 0022 2368     		ldr	r3, [r4]
 1015 0024 9A42     		cmp	r2, r3
 1016 0026 01D1     		bne	.L60
 1017 0028 06B0     		add	sp, sp, #24
 1018              		.cfi_remember_state
 1019              		.cfi_def_cfa_offset 8
 1020              		@ sp needed
 1021 002a 10BD     		pop	{r4, pc}
 1022              	.L60:
 1023              		.cfi_restore_state
 1024 002c FFF7FEFF 		bl	__stack_chk_fail
 1025              	.LVL89:
 1026              	.L62:
ARM GAS  /var/folders/qd/4mxf5pkd0zdf0b9dd1hp39180000gn/T//cc0H01tt.s 			page 19


 1027              		.align	2
 1028              	.L61:
 1029 0030 00000000 		.word	__stack_chk_guard
 1030 0034 00000000 		.word	.LANCHOR6
 1031              		.cfi_endproc
 1032              	.LFE264:
 1033              		.size	stopMotors, .-stopMotors
 1034              		.section	.text.moveAndComputePositionWheelSpeedType,"ax",%progbits
 1035              		.align	1
 1036              		.p2align 4,,15
 1037              		.global	moveAndComputePositionWheelSpeedType
 1038              		.syntax unified
 1039              		.thumb
 1040              		.thumb_func
 1041              		.fpu fpv4-sp-d16
 1042              		.type	moveAndComputePositionWheelSpeedType, %function
 1043              	moveAndComputePositionWheelSpeedType:
 1044              	.LFB265:
 1045              		.loc 1 159 0
 1046              		.cfi_startproc
 1047              		@ args = 0, pretend = 0, frame = 40
 1048              		@ frame_needed = 0, uses_anonymous_args = 0
 1049              	.LVL90:
 1050 0000 F0B5     		push	{r4, r5, r6, r7, lr}
 1051              		.cfi_def_cfa_offset 20
 1052              		.cfi_offset 4, -20
 1053              		.cfi_offset 5, -16
 1054              		.cfi_offset 6, -12
 1055              		.cfi_offset 7, -8
 1056              		.cfi_offset 14, -4
 1057 0002 2DED028B 		vpush.64	{d8}
 1058              		.cfi_def_cfa_offset 28
 1059              		.cfi_offset 80, -28
 1060              		.cfi_offset 81, -24
 1061 0006 08EE101A 		vmov	s16, r1	@ int
 1062 000a 0FC8     		ldm	r0, {r0, r1, r2, r3}
 1063              	.LVL91:
 1064 000c 8BB0     		sub	sp, sp, #44
 1065              		.cfi_def_cfa_offset 72
 1066              		.loc 1 159 0
 1067 000e 2B4D     		ldr	r5, .L69
 1068              	.LBB357:
 1069              	.LBB358:
 1070              		.loc 1 152 0
 1071 0010 2B4E     		ldr	r6, .L69+4
 1072 0012 04AC     		add	r4, sp, #16
 1073 0014 84E80F00 		stm	r4, {r0, r1, r2, r3}
 1074              	.LBE358:
 1075              	.LBE357:
 1076              		.loc 1 159 0
 1077 0018 2B68     		ldr	r3, [r5]
 1078              	.LBB361:
 1079              	.LBB359:
 1080              		.loc 1 152 0
 1081 001a 3068     		ldr	r0, [r6]
 1082              	.LBE359:
 1083              	.LBE361:
ARM GAS  /var/folders/qd/4mxf5pkd0zdf0b9dd1hp39180000gn/T//cc0H01tt.s 			page 20


 1084              		.loc 1 159 0
 1085 001c 0993     		str	r3, [sp, #36]
 1086              	.LBB362:
 1087              	.LBB360:
 1088              		.loc 1 152 0
 1089 001e 2146     		mov	r1, r4
 1090 0020 FFF7FEFF 		bl	chMsgSend
 1091              	.LVL92:
 1092              	.LBE360:
 1093              	.LBE362:
 1094              	.LBB363:
 1095              	.LBB364:
 1096              	.LBB365:
 1097              	.LBB366:
 1098              	.LBB367:
 1099              	.LBB368:
 1100              	.LBB369:
 1101              		.loc 2 546 0
 1102 0024 2023     		movs	r3, #32
 1103              		.syntax unified
 1104              	@ 546 "lib/e-puck2_main-processor/ChibiOS//os/ext/CMSIS/include/core_cmFunc.h" 1
 1105 0026 83F31188 		MSR basepri, r3
 1106              	@ 0 "" 2
 1107              	.LVL93:
 1108              		.thumb
 1109              		.syntax unified
 1110              	.LBE369:
 1111              	.LBE368:
 1112              	.LBE367:
 1113              	.LBE366:
 1114              	.LBE365:
 1115              	.LBB371:
 1116              	.LBB372:
 1117              		.loc 4 231 0
 1118 002a 264C     		ldr	r4, .L69+8
 1119              	.LBE372:
 1120              	.LBE371:
 1121              	.LBB374:
 1122              	.LBB370:
 1123              		.loc 3 349 0
 1124 002c FFF7FEFF 		bl	_stats_start_measure_crit_thd
 1125              	.LVL94:
 1126              		.loc 3 350 0
 1127 0030 FFF7FEFF 		bl	_dbg_check_lock
 1128              	.LVL95:
 1129              	.LBE370:
 1130              	.LBE374:
 1131              	.LBB375:
 1132              	.LBB373:
 1133              		.loc 4 231 0
 1134 0034 A76A     		ldr	r7, [r4, #40]
 1135              	.LBE373:
 1136              	.LBE375:
 1137              	.LBB376:
 1138              	.LBB377:
 1139              		.loc 3 360 0
 1140 0036 FFF7FEFF 		bl	_dbg_check_unlock
ARM GAS  /var/folders/qd/4mxf5pkd0zdf0b9dd1hp39180000gn/T//cc0H01tt.s 			page 21


 1141              	.LVL96:
 1142              		.loc 3 361 0
 1143 003a FFF7FEFF 		bl	_stats_stop_measure_crit_thd
 1144              	.LVL97:
 1145              		.loc 3 367 0
 1146 003e 2368     		ldr	r3, [r4]
 1147 0040 A342     		cmp	r3, r4
 1148 0042 04D0     		beq	.L64
 1149 0044 A269     		ldr	r2, [r4, #24]
 1150 0046 9B68     		ldr	r3, [r3, #8]
 1151 0048 9268     		ldr	r2, [r2, #8]
 1152 004a 9A42     		cmp	r2, r3
 1153 004c 2FD3     		bcc	.L67
 1154              	.L64:
 1155              	.LVL98:
 1156              	.LBB378:
 1157              	.LBB379:
 1158              	.LBB380:
 1159              		.loc 2 546 0
 1160 004e 0023     		movs	r3, #0
 1161              		.syntax unified
 1162              	@ 546 "lib/e-puck2_main-processor/ChibiOS//os/ext/CMSIS/include/core_cmFunc.h" 1
 1163 0050 83F31188 		MSR basepri, r3
 1164              	@ 0 "" 2
 1165              	.LVL99:
 1166              		.thumb
 1167              		.syntax unified
 1168              	.LBE380:
 1169              	.LBE379:
 1170              	.LBE378:
 1171              	.LBE377:
 1172              	.LBE376:
 1173              	.LBE364:
 1174              	.LBE363:
 1175              		.loc 1 163 0
 1176 0054 DFED1C7A 		vldr.32	s15, .L69+12
 1177 0058 1C4A     		ldr	r2, .L69+16
 1178 005a B8EEC88A 		vcvt.f32.s32	s16, s16
 1179              	.LVL100:
 1180 005e 4FF47A73 		mov	r3, #1000
 1181 0062 28EE278A 		vmul.f32	s16, s16, s15
 1182 0066 3846     		mov	r0, r7
 1183 0068 FCEEC87A 		vcvt.u32.f32	s15, s16
 1184 006c 17EE901A 		vmov	r1, s15	@ int
 1185 0070 03FB01F1 		mul	r1, r3, r1
 1186 0074 01F2E731 		addw	r1, r1, #999
 1187 0078 A2FB0131 		umull	r3, r1, r2, r1
 1188 007c 07EB9111 		add	r1, r7, r1, lsr #6
 1189 0080 FFF7FEFF 		bl	chThdSleepUntilWindowed
 1190              	.LVL101:
 1191 0084 0022     		movs	r2, #0
 1192 0086 0023     		movs	r3, #0
 1193              	.LBB384:
 1194              	.LBB385:
 1195              	.LBB386:
 1196              		.loc 1 152 0
 1197 0088 6946     		mov	r1, sp
ARM GAS  /var/folders/qd/4mxf5pkd0zdf0b9dd1hp39180000gn/T//cc0H01tt.s 			page 22


 1198 008a 3068     		ldr	r0, [r6]
 1199 008c CDE90023 		strd	r2, [sp]
 1200 0090 CDE90223 		strd	r2, [sp, #8]
 1201 0094 FFF7FEFF 		bl	chMsgSend
 1202              	.LVL102:
 1203              	.LBE386:
 1204              	.LBE385:
 1205              	.LBE384:
 1206              	.LBB387:
 1207              	.LBB388:
 1208              	.LBB389:
 1209              		.loc 5 143 0
 1210 0098 0D48     		ldr	r0, .L69+20
 1211 009a FFF7FEFF 		bl	chSemWait
 1212              	.LVL103:
 1213              	.LBE389:
 1214              	.LBE388:
 1215              	.LBE387:
 1216              		.loc 1 166 0
 1217 009e 099A     		ldr	r2, [sp, #36]
 1218 00a0 2B68     		ldr	r3, [r5]
 1219 00a2 9A42     		cmp	r2, r3
 1220 00a4 07D1     		bne	.L68
 1221 00a6 0BB0     		add	sp, sp, #44
 1222              		.cfi_remember_state
 1223              		.cfi_def_cfa_offset 28
 1224              		@ sp needed
 1225 00a8 BDEC028B 		vldm	sp!, {d8}
 1226              		.cfi_restore 80
 1227              		.cfi_restore 81
 1228              		.cfi_def_cfa_offset 20
 1229 00ac F0BD     		pop	{r4, r5, r6, r7, pc}
 1230              	.LVL104:
 1231              	.L67:
 1232              		.cfi_restore_state
 1233              	.LBB390:
 1234              	.LBB383:
 1235              	.LBB382:
 1236              	.LBB381:
 1237              		.loc 3 367 0
 1238 00ae 0948     		ldr	r0, .L69+24
 1239 00b0 FFF7FEFF 		bl	chSysHalt
 1240              	.LVL105:
 1241 00b4 CBE7     		b	.L64
 1242              	.LVL106:
 1243              	.L68:
 1244              	.LBE381:
 1245              	.LBE382:
 1246              	.LBE383:
 1247              	.LBE390:
 1248              		.loc 1 166 0
 1249 00b6 FFF7FEFF 		bl	__stack_chk_fail
 1250              	.LVL107:
 1251              	.L70:
 1252 00ba 00BF     		.align	2
 1253              	.L69:
 1254 00bc 00000000 		.word	__stack_chk_guard
ARM GAS  /var/folders/qd/4mxf5pkd0zdf0b9dd1hp39180000gn/T//cc0H01tt.s 			page 23


 1255 00c0 00000000 		.word	.LANCHOR6
 1256 00c4 00000000 		.word	ch
 1257 00c8 5C8F823F 		.word	1065520988
 1258 00cc D34D6210 		.word	274877907
 1259 00d0 00000000 		.word	.LANCHOR4
 1260 00d4 00000000 		.word	.LANCHOR1
 1261              		.cfi_endproc
 1262              	.LFE265:
 1263              		.size	moveAndComputePositionWheelSpeedType, .-moveAndComputePositionWheelSpeedType
 1264              		.section	.text.moveAndComputePositionRobotSpeedType,"ax",%progbits
 1265              		.align	1
 1266              		.p2align 4,,15
 1267              		.global	moveAndComputePositionRobotSpeedType
 1268              		.syntax unified
 1269              		.thumb
 1270              		.thumb_func
 1271              		.fpu fpv4-sp-d16
 1272              		.type	moveAndComputePositionRobotSpeedType, %function
 1273              	moveAndComputePositionRobotSpeedType:
 1274              	.LFB266:
 1275              		.loc 1 168 0
 1276              		.cfi_startproc
 1277              		@ args = 0, pretend = 0, frame = 24
 1278              		@ frame_needed = 0, uses_anonymous_args = 0
 1279              	.LVL108:
 1280 0000 30B5     		push	{r4, r5, lr}
 1281              		.cfi_def_cfa_offset 12
 1282              		.cfi_offset 4, -12
 1283              		.cfi_offset 5, -8
 1284              		.cfi_offset 14, -4
 1285 0002 0C4C     		ldr	r4, .L75
 1286 0004 87B0     		sub	sp, sp, #28
 1287              		.cfi_def_cfa_offset 40
 1288              		.loc 1 168 0
 1289 0006 2368     		ldr	r3, [r4]
 1290 0008 0593     		str	r3, [sp, #20]
 1291 000a 0D46     		mov	r5, r1
 1292              		.loc 1 169 0
 1293 000c 0FC8     		ldm	r0, {r0, r1, r2, r3}
 1294              	.LVL109:
 1295 000e FFF7FEFF 		bl	mod_motors_convertRobotSpeedToWheelspeed
 1296              	.LVL110:
 1297              		.loc 1 170 0
 1298 0012 2946     		mov	r1, r5
 1299 0014 6846     		mov	r0, sp
 1300              		.loc 1 169 0
 1301 0016 8DED000B 		vstr.64	d0, [sp]
 1302 001a 8DED021B 		vstr.64	d1, [sp, #8]
 1303              		.loc 1 170 0
 1304 001e FFF7FEFF 		bl	moveAndComputePositionWheelSpeedType
 1305              	.LVL111:
 1306              		.loc 1 171 0
 1307 0022 059A     		ldr	r2, [sp, #20]
 1308 0024 2368     		ldr	r3, [r4]
 1309 0026 9A42     		cmp	r2, r3
 1310 0028 01D1     		bne	.L74
 1311 002a 07B0     		add	sp, sp, #28
ARM GAS  /var/folders/qd/4mxf5pkd0zdf0b9dd1hp39180000gn/T//cc0H01tt.s 			page 24


 1312              		.cfi_remember_state
 1313              		.cfi_def_cfa_offset 12
 1314              		@ sp needed
 1315 002c 30BD     		pop	{r4, r5, pc}
 1316              	.LVL112:
 1317              	.L74:
 1318              		.cfi_restore_state
 1319 002e FFF7FEFF 		bl	__stack_chk_fail
 1320              	.LVL113:
 1321              	.L76:
 1322 0032 00BF     		.align	2
 1323              	.L75:
 1324 0034 00000000 		.word	__stack_chk_guard
 1325              		.cfi_endproc
 1326              	.LFE266:
 1327              		.size	moveAndComputePositionRobotSpeedType, .-moveAndComputePositionRobotSpeedType
 1328              		.section	.text.moveWheelSpeedType,"ax",%progbits
 1329              		.align	1
 1330              		.p2align 4,,15
 1331              		.global	moveWheelSpeedType
 1332              		.syntax unified
 1333              		.thumb
 1334              		.thumb_func
 1335              		.fpu fpv4-sp-d16
 1336              		.type	moveWheelSpeedType, %function
 1337              	moveWheelSpeedType:
 1338              	.LFB268:
 1339              		.loc 1 182 0
 1340              		.cfi_startproc
 1341              		@ args = 0, pretend = 0, frame = 8
 1342              		@ frame_needed = 0, uses_anonymous_args = 0
 1343              	.LVL114:
 1344 0000 F0B5     		push	{r4, r5, r6, r7, lr}
 1345              		.cfi_def_cfa_offset 20
 1346              		.cfi_offset 4, -20
 1347              		.cfi_offset 5, -16
 1348              		.cfi_offset 6, -12
 1349              		.cfi_offset 7, -8
 1350              		.cfi_offset 14, -4
 1351 0002 204D     		ldr	r5, .L84
 1352 0004 83B0     		sub	sp, sp, #12
 1353              		.cfi_def_cfa_offset 32
 1354              		.loc 1 182 0
 1355 0006 2B68     		ldr	r3, [r5]
 1356 0008 0193     		str	r3, [sp, #4]
 1357              		.loc 1 183 0
 1358 000a 90ED000B 		vldr.64	d0, [r0]
 1359 000e 90ED021B 		vldr.64	d1, [r0, #8]
 1360              		.loc 1 182 0
 1361 0012 0F46     		mov	r7, r1
 1362              		.loc 1 183 0
 1363 0014 FFF7FEFF 		bl	mod_motors_changeStateWheelSpeedType
 1364              	.LVL115:
 1365              	.LBB405:
 1366              	.LBB406:
 1367              	.LBB407:
 1368              	.LBB408:
ARM GAS  /var/folders/qd/4mxf5pkd0zdf0b9dd1hp39180000gn/T//cc0H01tt.s 			page 25


 1369              	.LBB409:
 1370              	.LBB410:
 1371              	.LBB411:
 1372              		.loc 2 546 0
 1373 0018 2023     		movs	r3, #32
 1374              		.syntax unified
 1375              	@ 546 "lib/e-puck2_main-processor/ChibiOS//os/ext/CMSIS/include/core_cmFunc.h" 1
 1376 001a 83F31188 		MSR basepri, r3
 1377              	@ 0 "" 2
 1378              	.LVL116:
 1379              		.thumb
 1380              		.syntax unified
 1381              	.LBE411:
 1382              	.LBE410:
 1383              	.LBE409:
 1384              	.LBE408:
 1385              	.LBE407:
 1386              	.LBB413:
 1387              	.LBB414:
 1388              		.loc 4 231 0
 1389 001e 1A4C     		ldr	r4, .L84+4
 1390              	.LBE414:
 1391              	.LBE413:
 1392              	.LBB416:
 1393              	.LBB412:
 1394              		.loc 3 349 0
 1395 0020 FFF7FEFF 		bl	_stats_start_measure_crit_thd
 1396              	.LVL117:
 1397              		.loc 3 350 0
 1398 0024 FFF7FEFF 		bl	_dbg_check_lock
 1399              	.LVL118:
 1400              	.LBE412:
 1401              	.LBE416:
 1402              	.LBB417:
 1403              	.LBB415:
 1404              		.loc 4 231 0
 1405 0028 A66A     		ldr	r6, [r4, #40]
 1406              	.LBE415:
 1407              	.LBE417:
 1408              	.LBB418:
 1409              	.LBB419:
 1410              		.loc 3 360 0
 1411 002a FFF7FEFF 		bl	_dbg_check_unlock
 1412              	.LVL119:
 1413              		.loc 3 361 0
 1414 002e FFF7FEFF 		bl	_stats_stop_measure_crit_thd
 1415              	.LVL120:
 1416              		.loc 3 367 0
 1417 0032 2368     		ldr	r3, [r4]
 1418 0034 A342     		cmp	r3, r4
 1419 0036 04D0     		beq	.L78
 1420 0038 A269     		ldr	r2, [r4, #24]
 1421 003a 9B68     		ldr	r3, [r3, #8]
 1422 003c 9268     		ldr	r2, [r2, #8]
 1423 003e 9A42     		cmp	r2, r3
 1424 0040 19D3     		bcc	.L82
 1425              	.L78:
ARM GAS  /var/folders/qd/4mxf5pkd0zdf0b9dd1hp39180000gn/T//cc0H01tt.s 			page 26


 1426              	.LVL121:
 1427              	.LBB420:
 1428              	.LBB421:
 1429              	.LBB422:
 1430              		.loc 2 546 0
 1431 0042 0023     		movs	r3, #0
 1432              		.syntax unified
 1433              	@ 546 "lib/e-puck2_main-processor/ChibiOS//os/ext/CMSIS/include/core_cmFunc.h" 1
 1434 0044 83F31188 		MSR basepri, r3
 1435              	@ 0 "" 2
 1436              	.LVL122:
 1437              		.thumb
 1438              		.syntax unified
 1439              	.LBE422:
 1440              	.LBE421:
 1441              	.LBE420:
 1442              	.LBE419:
 1443              	.LBE418:
 1444              	.LBE406:
 1445              	.LBE405:
 1446              		.loc 1 185 0
 1447 0048 4FF47A71 		mov	r1, #1000
 1448 004c 0F4B     		ldr	r3, .L84+8
 1449 004e 01FB07F1 		mul	r1, r1, r7
 1450 0052 01F2E731 		addw	r1, r1, #999
 1451 0056 A3FB0131 		umull	r3, r1, r3, r1
 1452 005a 06EB9111 		add	r1, r6, r1, lsr #6
 1453 005e 3046     		mov	r0, r6
 1454 0060 FFF7FEFF 		bl	chThdSleepUntilWindowed
 1455              	.LVL123:
 1456              		.loc 1 186 0
 1457 0064 019A     		ldr	r2, [sp, #4]
 1458 0066 2B68     		ldr	r3, [r5]
 1459 0068 9A42     		cmp	r2, r3
 1460 006a 08D1     		bne	.L83
 1461              		.loc 1 187 0
 1462 006c 03B0     		add	sp, sp, #12
 1463              		.cfi_remember_state
 1464              		.cfi_def_cfa_offset 20
 1465              		@ sp needed
 1466 006e BDE8F040 		pop	{r4, r5, r6, r7, lr}
 1467              		.cfi_restore 14
 1468              		.cfi_restore 7
 1469              		.cfi_restore 6
 1470              		.cfi_restore 5
 1471              		.cfi_restore 4
 1472              		.cfi_def_cfa_offset 0
 1473              	.LVL124:
 1474              		.loc 1 186 0
 1475 0072 FFF7FEBF 		b	mod_motors_stop
 1476              	.LVL125:
 1477              	.L82:
 1478              		.cfi_restore_state
 1479              	.LBB426:
 1480              	.LBB425:
 1481              	.LBB424:
 1482              	.LBB423:
ARM GAS  /var/folders/qd/4mxf5pkd0zdf0b9dd1hp39180000gn/T//cc0H01tt.s 			page 27


 1483              		.loc 3 367 0
 1484 0076 0648     		ldr	r0, .L84+12
 1485 0078 FFF7FEFF 		bl	chSysHalt
 1486              	.LVL126:
 1487 007c E1E7     		b	.L78
 1488              	.L83:
 1489              	.LBE423:
 1490              	.LBE424:
 1491              	.LBE425:
 1492              	.LBE426:
 1493              		.loc 1 186 0
 1494 007e FFF7FEFF 		bl	__stack_chk_fail
 1495              	.LVL127:
 1496              	.L85:
 1497 0082 00BF     		.align	2
 1498              	.L84:
 1499 0084 00000000 		.word	__stack_chk_guard
 1500 0088 00000000 		.word	ch
 1501 008c D34D6210 		.word	274877907
 1502 0090 00000000 		.word	.LANCHOR1
 1503              		.cfi_endproc
 1504              	.LFE268:
 1505              		.size	moveWheelSpeedType, .-moveWheelSpeedType
 1506              		.section	.text.moveRobotSpeedType,"ax",%progbits
 1507              		.align	1
 1508              		.p2align 4,,15
 1509              		.global	moveRobotSpeedType
 1510              		.syntax unified
 1511              		.thumb
 1512              		.thumb_func
 1513              		.fpu fpv4-sp-d16
 1514              		.type	moveRobotSpeedType, %function
 1515              	moveRobotSpeedType:
 1516              	.LFB269:
 1517              		.loc 1 189 0
 1518              		.cfi_startproc
 1519              		@ args = 0, pretend = 0, frame = 24
 1520              		@ frame_needed = 0, uses_anonymous_args = 0
 1521              	.LVL128:
 1522 0000 30B5     		push	{r4, r5, lr}
 1523              		.cfi_def_cfa_offset 12
 1524              		.cfi_offset 4, -12
 1525              		.cfi_offset 5, -8
 1526              		.cfi_offset 14, -4
 1527 0002 0C4C     		ldr	r4, .L90
 1528 0004 87B0     		sub	sp, sp, #28
 1529              		.cfi_def_cfa_offset 40
 1530              		.loc 1 189 0
 1531 0006 2368     		ldr	r3, [r4]
 1532 0008 0593     		str	r3, [sp, #20]
 1533 000a 0D46     		mov	r5, r1
 1534              		.loc 1 190 0
 1535 000c 0FC8     		ldm	r0, {r0, r1, r2, r3}
 1536              	.LVL129:
 1537 000e FFF7FEFF 		bl	mod_motors_convertRobotSpeedToWheelspeed
 1538              	.LVL130:
 1539              		.loc 1 191 0
ARM GAS  /var/folders/qd/4mxf5pkd0zdf0b9dd1hp39180000gn/T//cc0H01tt.s 			page 28


 1540 0012 2946     		mov	r1, r5
 1541 0014 6846     		mov	r0, sp
 1542              		.loc 1 190 0
 1543 0016 8DED000B 		vstr.64	d0, [sp]
 1544 001a 8DED021B 		vstr.64	d1, [sp, #8]
 1545              		.loc 1 191 0
 1546 001e FFF7FEFF 		bl	moveWheelSpeedType
 1547              	.LVL131:
 1548              		.loc 1 192 0
 1549 0022 059A     		ldr	r2, [sp, #20]
 1550 0024 2368     		ldr	r3, [r4]
 1551 0026 9A42     		cmp	r2, r3
 1552 0028 01D1     		bne	.L89
 1553 002a 07B0     		add	sp, sp, #28
 1554              		.cfi_remember_state
 1555              		.cfi_def_cfa_offset 12
 1556              		@ sp needed
 1557 002c 30BD     		pop	{r4, r5, pc}
 1558              	.LVL132:
 1559              	.L89:
 1560              		.cfi_restore_state
 1561 002e FFF7FEFF 		bl	__stack_chk_fail
 1562              	.LVL133:
 1563              	.L91:
 1564 0032 00BF     		.align	2
 1565              	.L90:
 1566 0034 00000000 		.word	__stack_chk_guard
 1567              		.cfi_endproc
 1568              	.LFE269:
 1569              		.size	moveRobotSpeedType, .-moveRobotSpeedType
 1570              		.section	.text.storeFrontDistanceSensorValue,"ax",%progbits
 1571              		.align	1
 1572              		.p2align 4,,15
 1573              		.global	storeFrontDistanceSensorValue
 1574              		.syntax unified
 1575              		.thumb
 1576              		.thumb_func
 1577              		.fpu fpv4-sp-d16
 1578              		.type	storeFrontDistanceSensorValue, %function
 1579              	storeFrontDistanceSensorValue:
 1580              	.LFB270:
 1581              		.loc 1 195 0
 1582              		.cfi_startproc
 1583              		@ args = 0, pretend = 0, frame = 24
 1584              		@ frame_needed = 0, uses_anonymous_args = 0
 1585              	.LVL134:
 1586 0000 F0B5     		push	{r4, r5, r6, r7, lr}
 1587              		.cfi_def_cfa_offset 20
 1588              		.cfi_offset 4, -20
 1589              		.cfi_offset 5, -16
 1590              		.cfi_offset 6, -12
 1591              		.cfi_offset 7, -8
 1592              		.cfi_offset 14, -4
 1593 0002 0C4E     		ldr	r6, .L96
 1594 0004 87B0     		sub	sp, sp, #28
 1595              		.cfi_def_cfa_offset 48
 1596              		.loc 1 195 0
ARM GAS  /var/folders/qd/4mxf5pkd0zdf0b9dd1hp39180000gn/T//cc0H01tt.s 			page 29


 1597 0006 3368     		ldr	r3, [r6]
 1598 0008 0593     		str	r3, [sp, #20]
 1599 000a 0446     		mov	r4, r0
 1600              		.loc 1 196 0
 1601 000c FFF7FEFF 		bl	mod_sensors_getValueTOF
 1602              	.LVL135:
 1603              		.loc 1 197 0
 1604 0010 6D46     		mov	r5, sp
 1605              		.loc 1 196 0
 1606 0012 0746     		mov	r7, r0
 1607              	.LVL136:
 1608              		.loc 1 197 0
 1609 0014 2846     		mov	r0, r5
 1610              	.LVL137:
 1611 0016 FFF7FEFF 		bl	mod_mapping_getActualPosition
 1612              	.LVL138:
 1613 001a 95E80F00 		ldm	r5, {r0, r1, r2, r3}
 1614 001e 84E80F00 		stm	r4, {r0, r1, r2, r3}
 1615              		.loc 1 198 0
 1616 0022 059A     		ldr	r2, [sp, #20]
 1617 0024 3368     		ldr	r3, [r6]
 1618              		.loc 1 197 0
 1619 0026 2761     		str	r7, [r4, #16]
 1620              		.loc 1 198 0
 1621 0028 9A42     		cmp	r2, r3
 1622 002a 01D1     		bne	.L95
 1623 002c 07B0     		add	sp, sp, #28
 1624              		.cfi_remember_state
 1625              		.cfi_def_cfa_offset 20
 1626              		@ sp needed
 1627 002e F0BD     		pop	{r4, r5, r6, r7, pc}
 1628              	.LVL139:
 1629              	.L95:
 1630              		.cfi_restore_state
 1631 0030 FFF7FEFF 		bl	__stack_chk_fail
 1632              	.LVL140:
 1633              	.L97:
 1634              		.align	2
 1635              	.L96:
 1636 0034 00000000 		.word	__stack_chk_guard
 1637              		.cfi_endproc
 1638              	.LFE270:
 1639              		.size	storeFrontDistanceSensorValue, .-storeFrontDistanceSensorValue
 1640              		.section	.text.rotateAndMeasureWallsDistance,"ax",%progbits
 1641              		.align	1
 1642              		.p2align 4,,15
 1643              		.global	rotateAndMeasureWallsDistance
 1644              		.syntax unified
 1645              		.thumb
 1646              		.thumb_func
 1647              		.fpu fpv4-sp-d16
 1648              		.type	rotateAndMeasureWallsDistance, %function
 1649              	rotateAndMeasureWallsDistance:
 1650              	.LFB271:
 1651              		.loc 1 202 0
 1652              		.cfi_startproc
 1653              		@ args = 0, pretend = 0, frame = 24
ARM GAS  /var/folders/qd/4mxf5pkd0zdf0b9dd1hp39180000gn/T//cc0H01tt.s 			page 30


 1654              		@ frame_needed = 0, uses_anonymous_args = 0
 1655              	.LVL141:
 1656 0000 2DE9F043 		push	{r4, r5, r6, r7, r8, r9, lr}
 1657              		.cfi_def_cfa_offset 28
 1658              		.cfi_offset 4, -28
 1659              		.cfi_offset 5, -24
 1660              		.cfi_offset 6, -20
 1661              		.cfi_offset 7, -16
 1662              		.cfi_offset 8, -12
 1663              		.cfi_offset 9, -8
 1664              		.cfi_offset 14, -4
 1665 0004 1A4F     		ldr	r7, .L105+8
 1666 0006 87B0     		sub	sp, sp, #28
 1667              		.cfi_def_cfa_offset 56
 1668              		.loc 1 203 0
 1669 0008 0446     		mov	r4, r0
 1670 000a 0030     		adds	r0, r0, #0
 1671              	.LVL142:
 1672              		.loc 1 202 0
 1673 000c 0D46     		mov	r5, r1
 1674 000e 3B68     		ldr	r3, [r7]
 1675 0010 0593     		str	r3, [sp, #20]
 1676              		.loc 1 203 0
 1677 0012 18BF     		it	ne
 1678 0014 0120     		movne	r0, #1
 1679 0016 FFF7FEFF 		bl	assert
 1680              	.LVL143:
 1681              		.loc 1 205 0
 1682 001a 002D     		cmp	r5, #0
 1683 001c 19DD     		ble	.L98
 1684              	.LBB427:
 1685              	.LBB428:
 1686              		.loc 1 227 0
 1687 001e 0FF24809 		adr	r9, .L105
 1688 0022 D9E90089 		ldrd	r8, [r9]
 1689 0026 05EB4505 		add	r5, r5, r5, lsl #1
 1690              	.LVL144:
 1691 002a 04EBC505 		add	r5, r4, r5, lsl #3
 1692 002e 0026     		movs	r6, #0
 1693              	.LVL145:
 1694              	.L100:
 1695              	.LBE428:
 1696              	.LBE427:
 1697              		.loc 1 206 0 discriminator 3
 1698 0030 C820     		movs	r0, #200
 1699 0032 FFF7FEFF 		bl	chThdSleep
 1700              	.LVL146:
 1701              		.loc 1 207 0 discriminator 3
 1702 0036 2046     		mov	r0, r4
 1703 0038 FFF7FEFF 		bl	storeFrontDistanceSensorValue
 1704              	.LVL147:
 1705 003c 1834     		adds	r4, r4, #24
 1706              	.LBB430:
 1707              	.LBB429:
 1708              		.loc 1 227 0 discriminator 3
 1709 003e 40F2BD21 		movw	r1, #701
 1710 0042 6846     		mov	r0, sp
ARM GAS  /var/folders/qd/4mxf5pkd0zdf0b9dd1hp39180000gn/T//cc0H01tt.s 			page 31


 1711 0044 0096     		str	r6, [sp]
 1712 0046 CDE90289 		strd	r8, [sp, #8]
 1713 004a FFF7FEFF 		bl	moveAndComputePositionRobotSpeedType
 1714              	.LVL148:
 1715              	.LBE429:
 1716              	.LBE430:
 1717              		.loc 1 205 0 discriminator 3
 1718 004e AC42     		cmp	r4, r5
 1719 0050 EED1     		bne	.L100
 1720              	.L98:
 1721              		.loc 1 210 0
 1722 0052 059A     		ldr	r2, [sp, #20]
 1723 0054 3B68     		ldr	r3, [r7]
 1724 0056 9A42     		cmp	r2, r3
 1725 0058 02D1     		bne	.L104
 1726 005a 07B0     		add	sp, sp, #28
 1727              		.cfi_remember_state
 1728              		.cfi_def_cfa_offset 28
 1729              		@ sp needed
 1730 005c BDE8F083 		pop	{r4, r5, r6, r7, r8, r9, pc}
 1731              	.L104:
 1732              		.cfi_restore_state
 1733 0060 FFF7FEFF 		bl	__stack_chk_fail
 1734              	.LVL149:
 1735              	.L106:
 1736 0064 AFF30080 		.align	3
 1737              	.L105:
 1738 0068 00000020 		.word	536870912
 1739 006c 85EBD13F 		.word	1070721925
 1740 0070 00000000 		.word	__stack_chk_guard
 1741              		.cfi_endproc
 1742              	.LFE271:
 1743              		.size	rotateAndMeasureWallsDistance, .-rotateAndMeasureWallsDistance
 1744              		.section	.text.discover,"ax",%progbits
 1745              		.align	1
 1746              		.p2align 4,,15
 1747              		.syntax unified
 1748              		.thumb
 1749              		.thumb_func
 1750              		.fpu fpv4-sp-d16
 1751              		.type	discover, %function
 1752              	discover:
 1753              	.LFB277:
 1754              		.loc 1 255 0
 1755              		.cfi_startproc
 1756              		@ args = 0, pretend = 0, frame = 24
 1757              		@ frame_needed = 0, uses_anonymous_args = 0
 1758              	.LVL150:
 1759 0000 F0B5     		push	{r4, r5, r6, r7, lr}
 1760              		.cfi_def_cfa_offset 20
 1761              		.cfi_offset 4, -20
 1762              		.cfi_offset 5, -16
 1763              		.cfi_offset 6, -12
 1764              		.cfi_offset 7, -8
 1765              		.cfi_offset 14, -4
 1766 0002 2F4D     		ldr	r5, .L115+8
 1767 0004 87B0     		sub	sp, sp, #28
ARM GAS  /var/folders/qd/4mxf5pkd0zdf0b9dd1hp39180000gn/T//cc0H01tt.s 			page 32


 1768              		.cfi_def_cfa_offset 48
 1769              	.LBB449:
 1770              	.LBB450:
 1771              		.loc 1 227 0
 1772 0006 2CA7     		adr	r7, .L115
 1773 0008 D7E90067 		ldrd	r6, [r7]
 1774              	.LBE450:
 1775              	.LBE449:
 1776              		.loc 1 255 0
 1777 000c 2B68     		ldr	r3, [r5]
 1778 000e 0593     		str	r3, [sp, #20]
 1779              	.LVL151:
 1780              	.LBB452:
 1781              	.LBB451:
 1782              		.loc 1 227 0
 1783 0010 45F2A771 		movw	r1, #22439
 1784 0014 0023     		movs	r3, #0
 1785 0016 6846     		mov	r0, sp
 1786              	.LVL152:
 1787 0018 0093     		str	r3, [sp]
 1788 001a CDE90267 		strd	r6, [sp, #8]
 1789 001e FFF7FEFF 		bl	moveAndComputePositionRobotSpeedType
 1790              	.LVL153:
 1791              	.LBE451:
 1792              	.LBE452:
 1793              		.loc 1 259 0
 1794 0022 4FF4FA60 		mov	r0, #2000
 1795 0026 FFF7FEFF 		bl	chThdSleep
 1796              	.LVL154:
 1797              		.loc 1 260 0
 1798 002a FFF7FEFF 		bl	mod_mapping_resetCoordinates
 1799              	.LVL155:
 1800              		.loc 1 262 0
 1801 002e 4FF44070 		mov	r0, #768
 1802 0032 FFF7FEFF 		bl	malloc
 1803              	.LVL156:
 1804              		.loc 1 263 0
 1805 0036 0446     		mov	r4, r0
 1806 0038 0030     		adds	r0, r0, #0
 1807              	.LVL157:
 1808 003a 18BF     		it	ne
 1809 003c 0120     		movne	r0, #1
 1810 003e FFF7FEFF 		bl	assert
 1811              	.LVL158:
 1812              		.loc 1 264 0
 1813 0042 2046     		mov	r0, r4
 1814 0044 2021     		movs	r1, #32
 1815 0046 FFF7FEFF 		bl	rotateAndMeasureWallsDistance
 1816              	.LVL159:
 1817              		.loc 1 265 0
 1818 004a 0221     		movs	r1, #2
 1819 004c 2046     		mov	r0, r4
 1820 004e FFF7FEFF 		bl	mod_mapping_computeWallLocation
 1821              	.LVL160:
 1822              		.loc 1 266 0
 1823 0052 2046     		mov	r0, r4
 1824 0054 FFF7FEFF 		bl	free
ARM GAS  /var/folders/qd/4mxf5pkd0zdf0b9dd1hp39180000gn/T//cc0H01tt.s 			page 33


 1825              	.LVL161:
 1826              	.LBB453:
 1827              	.LBB454:
 1828              	.LBB455:
 1829              	.LBB456:
 1830              	.LBB457:
 1831              	.LBB458:
 1832              	.LBB459:
 1833              	.LBB460:
 1834              		.loc 2 546 0
 1835 0058 2023     		movs	r3, #32
 1836              		.syntax unified
 1837              	@ 546 "lib/e-puck2_main-processor/ChibiOS//os/ext/CMSIS/include/core_cmFunc.h" 1
 1838 005a 83F31188 		MSR basepri, r3
 1839              	@ 0 "" 2
 1840              	.LVL162:
 1841              		.thumb
 1842              		.syntax unified
 1843              	.LBE460:
 1844              	.LBE459:
 1845              	.LBE458:
 1846              		.loc 3 349 0
 1847 005e FFF7FEFF 		bl	_stats_start_measure_crit_thd
 1848              	.LVL163:
 1849              		.loc 3 350 0
 1850 0062 FFF7FEFF 		bl	_dbg_check_lock
 1851              	.LVL164:
 1852              	.LBE457:
 1853              	.LBE456:
 1854              	.LBB461:
 1855              	.LBB462:
 1856              		.loc 5 268 0
 1857 0066 FFF7FEFF 		bl	chDbgCheckClassI
 1858              	.LVL165:
 1859              		.loc 5 270 0
 1860 006a 1648     		ldr	r0, .L115+12
 1861 006c 8368     		ldr	r3, [r0, #8]
 1862 006e 002B     		cmp	r3, #0
 1863 0070 1BDD     		ble	.L112
 1864              	.L108:
 1865              	.LVL166:
 1866              	.LBE462:
 1867              	.LBE461:
 1868              		.loc 5 286 0
 1869 0072 FFF7FEFF 		bl	chSchRescheduleS
 1870              	.LVL167:
 1871              	.LBB464:
 1872              	.LBB465:
 1873              		.loc 3 360 0
 1874 0076 FFF7FEFF 		bl	_dbg_check_unlock
 1875              	.LVL168:
 1876              		.loc 3 361 0
 1877 007a FFF7FEFF 		bl	_stats_stop_measure_crit_thd
 1878              	.LVL169:
 1879              		.loc 3 367 0
 1880 007e 124B     		ldr	r3, .L115+16
 1881 0080 1A68     		ldr	r2, [r3]
ARM GAS  /var/folders/qd/4mxf5pkd0zdf0b9dd1hp39180000gn/T//cc0H01tt.s 			page 34


 1882 0082 9A42     		cmp	r2, r3
 1883 0084 04D0     		beq	.L109
 1884 0086 9969     		ldr	r1, [r3, #24]
 1885 0088 9368     		ldr	r3, [r2, #8]
 1886 008a 8A68     		ldr	r2, [r1, #8]
 1887 008c 9A42     		cmp	r2, r3
 1888 008e 08D3     		bcc	.L113
 1889              	.L109:
 1890              	.LVL170:
 1891              	.LBB466:
 1892              	.LBB467:
 1893              	.LBB468:
 1894              		.loc 2 546 0
 1895 0090 0023     		movs	r3, #0
 1896              		.syntax unified
 1897              	@ 546 "lib/e-puck2_main-processor/ChibiOS//os/ext/CMSIS/include/core_cmFunc.h" 1
 1898 0092 83F31188 		MSR basepri, r3
 1899              	@ 0 "" 2
 1900              	.LVL171:
 1901              		.thumb
 1902              		.syntax unified
 1903              	.LBE468:
 1904              	.LBE467:
 1905              	.LBE466:
 1906              	.LBE465:
 1907              	.LBE464:
 1908              	.LBE455:
 1909              	.LBE454:
 1910              	.LBE453:
 1911              		.loc 1 270 0
 1912 0096 059A     		ldr	r2, [sp, #20]
 1913 0098 2B68     		ldr	r3, [r5]
 1914 009a 9A42     		cmp	r2, r3
 1915 009c 08D1     		bne	.L114
 1916 009e 07B0     		add	sp, sp, #28
 1917              		.cfi_remember_state
 1918              		.cfi_def_cfa_offset 20
 1919              		@ sp needed
 1920 00a0 F0BD     		pop	{r4, r5, r6, r7, pc}
 1921              	.LVL172:
 1922              	.L113:
 1923              		.cfi_restore_state
 1924              	.LBB474:
 1925              	.LBB473:
 1926              	.LBB472:
 1927              	.LBB470:
 1928              	.LBB469:
 1929              		.loc 3 367 0
 1930 00a2 0A48     		ldr	r0, .L115+20
 1931 00a4 FFF7FEFF 		bl	chSysHalt
 1932              	.LVL173:
 1933 00a8 F2E7     		b	.L109
 1934              	.LVL174:
 1935              	.L112:
 1936              	.LBE469:
 1937              	.LBE470:
 1938              	.LBB471:
ARM GAS  /var/folders/qd/4mxf5pkd0zdf0b9dd1hp39180000gn/T//cc0H01tt.s 			page 35


 1939              	.LBB463:
 1940              		.loc 5 271 0
 1941 00aa FFF7FEFF 		bl	chSemSignalI
 1942              	.LVL175:
 1943 00ae E0E7     		b	.L108
 1944              	.LVL176:
 1945              	.L114:
 1946              	.LBE463:
 1947              	.LBE471:
 1948              	.LBE472:
 1949              	.LBE473:
 1950              	.LBE474:
 1951              		.loc 1 270 0
 1952 00b0 FFF7FEFF 		bl	__stack_chk_fail
 1953              	.LVL177:
 1954              	.L116:
 1955 00b4 AFF30080 		.align	3
 1956              	.L115:
 1957 00b8 00000020 		.word	536870912
 1958 00bc 85EBD13F 		.word	1070721925
 1959 00c0 00000000 		.word	__stack_chk_guard
 1960 00c4 00000000 		.word	.LANCHOR5
 1961 00c8 00000000 		.word	ch
 1962 00cc 00000000 		.word	.LANCHOR1
 1963              		.cfi_endproc
 1964              	.LFE277:
 1965              		.size	discover, .-discover
 1966              		.global	__aeabi_dcmplt
 1967              		.global	__aeabi_dmul
 1968              		.global	__aeabi_ddiv
 1969              		.global	__aeabi_d2iz
 1970              		.section	.text.moveInDirection,"ax",%progbits
 1971              		.align	1
 1972              		.p2align 4,,15
 1973              		.global	moveInDirection
 1974              		.syntax unified
 1975              		.thumb
 1976              		.thumb_func
 1977              		.fpu fpv4-sp-d16
 1978              		.type	moveInDirection, %function
 1979              	moveInDirection:
 1980              	.LFB272:
 1981              		.loc 1 212 0
 1982              		.cfi_startproc
 1983              		@ args = 0, pretend = 0, frame = 88
 1984              		@ frame_needed = 0, uses_anonymous_args = 0
 1985              	.LVL178:
 1986 0000 2DE9F043 		push	{r4, r5, r6, r7, r8, r9, lr}
 1987              		.cfi_def_cfa_offset 28
 1988              		.cfi_offset 4, -28
 1989              		.cfi_offset 5, -24
 1990              		.cfi_offset 6, -20
 1991              		.cfi_offset 7, -16
 1992              		.cfi_offset 8, -12
 1993              		.cfi_offset 9, -8
 1994              		.cfi_offset 14, -4
 1995 0004 344D     		ldr	r5, .L123+16
ARM GAS  /var/folders/qd/4mxf5pkd0zdf0b9dd1hp39180000gn/T//cc0H01tt.s 			page 36


 1996 0006 97B0     		sub	sp, sp, #92
 1997              		.cfi_def_cfa_offset 120
 1998              		.loc 1 212 0
 1999 0008 2B68     		ldr	r3, [r5]
 2000 000a 1593     		str	r3, [sp, #84]
 2001              		.loc 1 213 0
 2002 000c FFF7FEFF 		bl	mod_mapping_getAngleForTranslation
 2003              	.LVL179:
 2004 0010 57EC106B 		vmov	r6, r7, d0
 2005              	.LVL180:
 2006              		.loc 1 214 0
 2007 0014 0024     		movs	r4, #0
 2008 0016 10EE100A 		vmov	r0, s0	@ int
 2009 001a 3946     		mov	r1, r7
 2010 001c 0022     		movs	r2, #0
 2011 001e 0023     		movs	r3, #0
 2012 0020 0094     		str	r4, [sp]
 2013 0022 FFF7FEFF 		bl	__aeabi_dcmplt
 2014              	.LVL181:
 2015 0026 0028     		cmp	r0, #0
 2016 0028 46D1     		bne	.L120
 2017 002a 0FF29C09 		adr	r9, .L123
 2018 002e D9E90089 		ldrd	r8, [r9]
 2019              	.L118:
 2020              		.loc 1 214 0 is_stmt 0 discriminator 4
 2021 0032 3046     		mov	r0, r6
 2022 0034 27F00041 		bic	r1, r7, #-2147483648
 2023 0038 0022     		movs	r2, #0
 2024 003a 284B     		ldr	r3, .L123+20
 2025 003c CDE90289 		strd	r8, [sp, #8]
 2026 0040 FFF7FEFF 		bl	__aeabi_dmul
 2027              	.LVL182:
 2028 0044 20A3     		adr	r3, .L123
 2029 0046 D3E90023 		ldrd	r2, [r3]
 2030 004a FFF7FEFF 		bl	__aeabi_ddiv
 2031              	.LVL183:
 2032 004e FFF7FEFF 		bl	__aeabi_d2iz
 2033              	.LVL184:
 2034              		.loc 1 215 0 is_stmt 1 discriminator 4
 2035 0052 0026     		movs	r6, #0
 2036              	.LVL185:
 2037 0054 0027     		movs	r7, #0
 2038              		.loc 1 214 0 discriminator 4
 2039 0056 0146     		mov	r1, r0
 2040 0058 6846     		mov	r0, sp
 2041 005a FFF7FEFF 		bl	moveAndComputePositionRobotSpeedType
 2042              	.LVL186:
 2043              		.loc 1 215 0 discriminator 4
 2044 005e CDE90667 		strd	r6, [sp, #24]
 2045 0062 2823     		movs	r3, #40
 2046 0064 0493     		str	r3, [sp, #16]
 2047 0066 04AB     		add	r3, sp, #16
 2048 0068 0FCB     		ldm	r3, {r0, r1, r2, r3}
 2049 006a FFF7FEFF 		bl	mod_motors_convertRobotSpeedToWheelspeed
 2050              	.LVL187:
 2051 006e 8DED080B 		vstr.64	d0, [sp, #32]
 2052 0072 8DED0A1B 		vstr.64	d1, [sp, #40]
ARM GAS  /var/folders/qd/4mxf5pkd0zdf0b9dd1hp39180000gn/T//cc0H01tt.s 			page 37


 2053 0076 08AB     		add	r3, sp, #32
 2054 0078 0FCB     		ldm	r3, {r0, r1, r2, r3}
 2055              	.LBB475:
 2056              	.LBB476:
 2057              		.loc 1 152 0 discriminator 4
 2058 007a DFF86880 		ldr	r8, .L123+28
 2059 007e 10AC     		add	r4, sp, #64
 2060 0080 84E80F00 		stm	r4, {r0, r1, r2, r3}
 2061 0084 2146     		mov	r1, r4
 2062 0086 D8F80000 		ldr	r0, [r8]
 2063 008a FFF7FEFF 		bl	chMsgSend
 2064              	.LVL188:
 2065              	.LBE476:
 2066              	.LBE475:
 2067              		.loc 1 216 0 discriminator 4
 2068 008e FFF7FEFF 		bl	mod_sensors_waitForObstacle
 2069              	.LVL189:
 2070              		.loc 1 217 0 discriminator 4
 2071 0092 134B     		ldr	r3, .L123+24
 2072              	.LBB477:
 2073              	.LBB478:
 2074              	.LBB479:
 2075              		.loc 1 152 0 discriminator 4
 2076 0094 D8F80000 		ldr	r0, [r8]
 2077              	.LBE479:
 2078              	.LBE478:
 2079              	.LBE477:
 2080              		.loc 1 217 0 discriminator 4
 2081 0098 0022     		movs	r2, #0
 2082              	.LBB484:
 2083              	.LBB482:
 2084              	.LBB480:
 2085              		.loc 1 152 0 discriminator 4
 2086 009a 0CA9     		add	r1, sp, #48
 2087              	.LBE480:
 2088              	.LBE482:
 2089              	.LBE484:
 2090              		.loc 1 217 0 discriminator 4
 2091 009c 1A70     		strb	r2, [r3]
 2092 009e CDE90C67 		strd	r6, [sp, #48]
 2093 00a2 CDE90E67 		strd	r6, [sp, #56]
 2094              	.LBB485:
 2095              	.LBB483:
 2096              	.LBB481:
 2097              		.loc 1 152 0 discriminator 4
 2098 00a6 FFF7FEFF 		bl	chMsgSend
 2099              	.LVL190:
 2100              	.LBE481:
 2101              	.LBE483:
 2102              	.LBE485:
 2103              		.loc 1 219 0 discriminator 4
 2104 00aa 159A     		ldr	r2, [sp, #84]
 2105 00ac 2B68     		ldr	r3, [r5]
 2106 00ae 9A42     		cmp	r2, r3
 2107 00b0 07D1     		bne	.L122
 2108              		.loc 1 219 0 is_stmt 0
 2109 00b2 17B0     		add	sp, sp, #92
ARM GAS  /var/folders/qd/4mxf5pkd0zdf0b9dd1hp39180000gn/T//cc0H01tt.s 			page 38


 2110              		.cfi_remember_state
 2111              		.cfi_def_cfa_offset 28
 2112              		@ sp needed
 2113 00b4 BDE8F083 		pop	{r4, r5, r6, r7, r8, r9, pc}
 2114              	.LVL191:
 2115              	.L120:
 2116              		.cfi_restore_state
 2117              		.loc 1 214 0 is_stmt 1
 2118 00b8 0FF21409 		adr	r9, .L123+8
 2119 00bc D9E90089 		ldrd	r8, [r9]
 2120 00c0 B7E7     		b	.L118
 2121              	.LVL192:
 2122              	.L122:
 2123              		.loc 1 219 0
 2124 00c2 FFF7FEFF 		bl	__stack_chk_fail
 2125              	.LVL193:
 2126              	.L124:
 2127 00c6 00BF     		.align	3
 2128              	.L123:
 2129 00c8 00000020 		.word	536870912
 2130 00cc 85EBD13F 		.word	1070721925
 2131 00d0 00000020 		.word	536870912
 2132 00d4 85EBD1BF 		.word	-1076761723
 2133 00d8 00000000 		.word	__stack_chk_guard
 2134 00dc 00408F40 		.word	1083129856
 2135 00e0 00000000 		.word	mod_sensors_need_objectDetection
 2136 00e4 00000000 		.word	.LANCHOR6
 2137              		.cfi_endproc
 2138              	.LFE272:
 2139              		.size	moveInDirection, .-moveInDirection
 2140              		.section	.text.changeAngleRelative,"ax",%progbits
 2141              		.align	1
 2142              		.p2align 4,,15
 2143              		.global	changeAngleRelative
 2144              		.syntax unified
 2145              		.thumb
 2146              		.thumb_func
 2147              		.fpu fpv4-sp-d16
 2148              		.type	changeAngleRelative, %function
 2149              	changeAngleRelative:
 2150              	.LFB274:
 2151              		.loc 1 226 0
 2152              		.cfi_startproc
 2153              		@ args = 0, pretend = 0, frame = 24
 2154              		@ frame_needed = 0, uses_anonymous_args = 0
 2155              	.LVL194:
 2156 0000 F0B5     		push	{r4, r5, r6, r7, lr}
 2157              		.cfi_def_cfa_offset 20
 2158              		.cfi_offset 4, -20
 2159              		.cfi_offset 5, -16
 2160              		.cfi_offset 6, -12
 2161              		.cfi_offset 7, -8
 2162              		.cfi_offset 14, -4
 2163 0002 1D4E     		ldr	r6, .L131+16
 2164 0004 87B0     		sub	sp, sp, #28
 2165              		.cfi_def_cfa_offset 48
 2166              		.loc 1 226 0
ARM GAS  /var/folders/qd/4mxf5pkd0zdf0b9dd1hp39180000gn/T//cc0H01tt.s 			page 39


 2167 0006 55EC104B 		vmov	r4, r5, d0
 2168 000a 3368     		ldr	r3, [r6]
 2169 000c 0593     		str	r3, [sp, #20]
 2170              		.loc 1 227 0
 2171 000e 0027     		movs	r7, #0
 2172 0010 10EE100A 		vmov	r0, s0	@ int
 2173 0014 2946     		mov	r1, r5
 2174 0016 0022     		movs	r2, #0
 2175 0018 0023     		movs	r3, #0
 2176 001a 0097     		str	r7, [sp]
 2177 001c FFF7FEFF 		bl	__aeabi_dcmplt
 2178              	.LVL195:
 2179 0020 E0B9     		cbnz	r0, .L128
 2180 0022 11A3     		adr	r3, .L131
 2181 0024 D3E90023 		ldrd	r2, [r3]
 2182              	.L126:
 2183              		.loc 1 227 0 is_stmt 0 discriminator 4
 2184 0028 CDE90223 		strd	r2, [sp, #8]
 2185 002c 2046     		mov	r0, r4
 2186 002e 0022     		movs	r2, #0
 2187 0030 124B     		ldr	r3, .L131+20
 2188 0032 25F00041 		bic	r1, r5, #-2147483648
 2189 0036 FFF7FEFF 		bl	__aeabi_dmul
 2190              	.LVL196:
 2191 003a 0BA3     		adr	r3, .L131
 2192 003c D3E90023 		ldrd	r2, [r3]
 2193 0040 FFF7FEFF 		bl	__aeabi_ddiv
 2194              	.LVL197:
 2195 0044 FFF7FEFF 		bl	__aeabi_d2iz
 2196              	.LVL198:
 2197 0048 0146     		mov	r1, r0
 2198 004a 6846     		mov	r0, sp
 2199 004c FFF7FEFF 		bl	moveAndComputePositionRobotSpeedType
 2200              	.LVL199:
 2201              		.loc 1 228 0 is_stmt 1 discriminator 4
 2202 0050 059A     		ldr	r2, [sp, #20]
 2203 0052 3368     		ldr	r3, [r6]
 2204 0054 9A42     		cmp	r2, r3
 2205 0056 05D1     		bne	.L130
 2206              		.loc 1 228 0 is_stmt 0
 2207 0058 07B0     		add	sp, sp, #28
 2208              		.cfi_remember_state
 2209              		.cfi_def_cfa_offset 20
 2210              		@ sp needed
 2211 005a F0BD     		pop	{r4, r5, r6, r7, pc}
 2212              	.LVL200:
 2213              	.L128:
 2214              		.cfi_restore_state
 2215              		.loc 1 227 0 is_stmt 1
 2216 005c 04A3     		adr	r3, .L131+8
 2217 005e D3E90023 		ldrd	r2, [r3]
 2218 0062 E1E7     		b	.L126
 2219              	.L130:
 2220              		.loc 1 228 0
 2221 0064 FFF7FEFF 		bl	__stack_chk_fail
 2222              	.LVL201:
 2223              	.L132:
ARM GAS  /var/folders/qd/4mxf5pkd0zdf0b9dd1hp39180000gn/T//cc0H01tt.s 			page 40


 2224              		.align	3
 2225              	.L131:
 2226 0068 00000020 		.word	536870912
 2227 006c 85EBD13F 		.word	1070721925
 2228 0070 00000020 		.word	536870912
 2229 0074 85EBD1BF 		.word	-1076761723
 2230 0078 00000000 		.word	__stack_chk_guard
 2231 007c 00408F40 		.word	1083129856
 2232              		.cfi_endproc
 2233              	.LFE274:
 2234              		.size	changeAngleRelative, .-changeAngleRelative
 2235              		.global	__aeabi_i2d
 2236              		.section	.text.moveAndComputePositionDistanceType,"ax",%progbits
 2237              		.align	1
 2238              		.p2align 4,,15
 2239              		.global	moveAndComputePositionDistanceType
 2240              		.syntax unified
 2241              		.thumb
 2242              		.thumb_func
 2243              		.fpu fpv4-sp-d16
 2244              		.type	moveAndComputePositionDistanceType, %function
 2245              	moveAndComputePositionDistanceType:
 2246              	.LFB267:
 2247              		.loc 1 173 0
 2248              		.cfi_startproc
 2249              		@ args = 0, pretend = 0, frame = 24
 2250              		@ frame_needed = 0, uses_anonymous_args = 0
 2251              	.LVL202:
 2252 0000 F0B5     		push	{r4, r5, r6, r7, lr}
 2253              		.cfi_def_cfa_offset 20
 2254              		.cfi_offset 4, -20
 2255              		.cfi_offset 5, -16
 2256              		.cfi_offset 6, -12
 2257              		.cfi_offset 7, -8
 2258              		.cfi_offset 14, -4
 2259 0002 1B4D     		ldr	r5, .L139
 2260 0004 87B0     		sub	sp, sp, #28
 2261              		.cfi_def_cfa_offset 48
 2262              		.loc 1 173 0
 2263 0006 0446     		mov	r4, r0
 2264              		.loc 1 175 0
 2265 0008 90ED020B 		vldr.64	d0, [r0, #8]
 2266              		.loc 1 173 0
 2267 000c 2B68     		ldr	r3, [r5]
 2268 000e 0593     		str	r3, [sp, #20]
 2269              		.loc 1 175 0
 2270 0010 FFF7FEFF 		bl	changeAngleRelative
 2271              	.LVL203:
 2272              		.loc 1 176 0
 2273 0014 2368     		ldr	r3, [r4]
 2274 0016 1748     		ldr	r0, .L139+4
 2275 0018 002B     		cmp	r3, #0
 2276 001a 80FB0320 		smull	r2, r0, r0, r3
 2277 001e 4FEAE373 		asr	r3, r3, #31
 2278 0022 B4BF     		ite	lt
 2279 0024 6FF02702 		mvnlt	r2, #39
 2280 0028 2822     		movge	r2, #40
ARM GAS  /var/folders/qd/4mxf5pkd0zdf0b9dd1hp39180000gn/T//cc0H01tt.s 			page 41


 2281 002a C3EB2010 		rsb	r0, r3, r0, asr #4
 2282 002e 0026     		movs	r6, #0
 2283 0030 0027     		movs	r7, #0
 2284 0032 0092     		str	r2, [sp]
 2285 0034 CDE90267 		strd	r6, [sp, #8]
 2286 0038 FFF7FEFF 		bl	__aeabi_i2d
 2287              	.LVL204:
 2288 003c 21F00043 		bic	r3, r1, #-2147483648
 2289 0040 0022     		movs	r2, #0
 2290 0042 1946     		mov	r1, r3
 2291 0044 0C4B     		ldr	r3, .L139+8
 2292 0046 FFF7FEFF 		bl	__aeabi_dmul
 2293              	.LVL205:
 2294 004a FFF7FEFF 		bl	__aeabi_d2iz
 2295              	.LVL206:
 2296 004e 0146     		mov	r1, r0
 2297 0050 6846     		mov	r0, sp
 2298 0052 FFF7FEFF 		bl	moveAndComputePositionRobotSpeedType
 2299              	.LVL207:
 2300              		.loc 1 177 0
 2301 0056 94ED040B 		vldr.64	d0, [r4, #16]
 2302 005a FFF7FEFF 		bl	changeAngleRelative
 2303              	.LVL208:
 2304              		.loc 1 178 0
 2305 005e 059A     		ldr	r2, [sp, #20]
 2306 0060 2B68     		ldr	r3, [r5]
 2307 0062 9A42     		cmp	r2, r3
 2308 0064 01D1     		bne	.L138
 2309 0066 07B0     		add	sp, sp, #28
 2310              		.cfi_remember_state
 2311              		.cfi_def_cfa_offset 20
 2312              		@ sp needed
 2313 0068 F0BD     		pop	{r4, r5, r6, r7, pc}
 2314              	.LVL209:
 2315              	.L138:
 2316              		.cfi_restore_state
 2317 006a FFF7FEFF 		bl	__stack_chk_fail
 2318              	.LVL210:
 2319              	.L140:
 2320 006e 00BF     		.align	2
 2321              	.L139:
 2322 0070 00000000 		.word	__stack_chk_guard
 2323 0074 67666666 		.word	1717986919
 2324 0078 00408F40 		.word	1083129856
 2325              		.cfi_endproc
 2326              	.LFE267:
 2327              		.size	moveAndComputePositionDistanceType, .-moveAndComputePositionDistanceType
 2328              		.section	.text.goTo,"ax",%progbits
 2329              		.align	1
 2330              		.p2align 4,,15
 2331              		.global	goTo
 2332              		.syntax unified
 2333              		.thumb
 2334              		.thumb_func
 2335              		.fpu fpv4-sp-d16
 2336              		.type	goTo, %function
 2337              	goTo:
ARM GAS  /var/folders/qd/4mxf5pkd0zdf0b9dd1hp39180000gn/T//cc0H01tt.s 			page 42


 2338              	.LFB273:
 2339              		.loc 1 221 0
 2340              		.cfi_startproc
 2341              		@ args = 0, pretend = 0, frame = 32
 2342              		@ frame_needed = 0, uses_anonymous_args = 0
 2343              	.LVL211:
 2344 0000 10B5     		push	{r4, lr}
 2345              		.cfi_def_cfa_offset 8
 2346              		.cfi_offset 4, -8
 2347              		.cfi_offset 14, -4
 2348 0002 094C     		ldr	r4, .L145
 2349 0004 88B0     		sub	sp, sp, #32
 2350              		.cfi_def_cfa_offset 40
 2351              		.loc 1 221 0
 2352 0006 2368     		ldr	r3, [r4]
 2353 0008 0793     		str	r3, [sp, #28]
 2354              		.loc 1 222 0
 2355 000a 0146     		mov	r1, r0
 2356 000c 6846     		mov	r0, sp
 2357              	.LVL212:
 2358 000e FFF7FEFF 		bl	mod_mapping_getRobotDisplacement
 2359              	.LVL213:
 2360              		.loc 1 223 0
 2361 0012 6846     		mov	r0, sp
 2362 0014 FFF7FEFF 		bl	moveAndComputePositionDistanceType
 2363              	.LVL214:
 2364              		.loc 1 224 0
 2365 0018 079A     		ldr	r2, [sp, #28]
 2366 001a 2368     		ldr	r3, [r4]
 2367 001c 9A42     		cmp	r2, r3
 2368 001e 01D1     		bne	.L144
 2369 0020 08B0     		add	sp, sp, #32
 2370              		.cfi_remember_state
 2371              		.cfi_def_cfa_offset 8
 2372              		@ sp needed
 2373 0022 10BD     		pop	{r4, pc}
 2374              	.L144:
 2375              		.cfi_restore_state
 2376 0024 FFF7FEFF 		bl	__stack_chk_fail
 2377              	.LVL215:
 2378              	.L146:
 2379              		.align	2
 2380              	.L145:
 2381 0028 00000000 		.word	__stack_chk_guard
 2382              		.cfi_endproc
 2383              	.LFE273:
 2384              		.size	goTo, .-goTo
 2385              		.section	.text.detectEnvironment,"ax",%progbits
 2386              		.align	1
 2387              		.p2align 4,,15
 2388              		.global	detectEnvironment
 2389              		.syntax unified
 2390              		.thumb
 2391              		.thumb_func
 2392              		.fpu fpv4-sp-d16
 2393              		.type	detectEnvironment, %function
 2394              	detectEnvironment:
ARM GAS  /var/folders/qd/4mxf5pkd0zdf0b9dd1hp39180000gn/T//cc0H01tt.s 			page 43


 2395              	.LFB275:
 2396              		.loc 1 233 0
 2397              		.cfi_startproc
 2398              		@ args = 0, pretend = 0, frame = 8
 2399              		@ frame_needed = 0, uses_anonymous_args = 0
 2400              	.LVL216:
 2401 0000 00B5     		push	{lr}
 2402              		.cfi_def_cfa_offset 4
 2403              		.cfi_offset 14, -4
 2404 0002 084B     		ldr	r3, .L152
 2405 0004 83B0     		sub	sp, sp, #12
 2406              		.cfi_def_cfa_offset 16
 2407              		.loc 1 233 0
 2408 0006 1A68     		ldr	r2, [r3]
 2409 0008 0192     		str	r2, [sp, #4]
 2410              		.loc 1 235 0
 2411 000a 019A     		ldr	r2, [sp, #4]
 2412 000c 1B68     		ldr	r3, [r3]
 2413 000e 9A42     		cmp	r2, r3
 2414 0010 05D1     		bne	.L151
 2415 0012 054A     		ldr	r2, .L152+4
 2416              		.loc 1 239 0
 2417 0014 03B0     		add	sp, sp, #12
 2418              		.cfi_remember_state
 2419              		.cfi_def_cfa_offset 4
 2420              		@ sp needed
 2421 0016 5DF804EB 		ldr	lr, [sp], #4
 2422              		.cfi_restore 14
 2423              		.cfi_def_cfa_offset 0
 2424              		.loc 1 235 0
 2425 001a FFF7FEBF 		b	mod_mapping_checkEnvironment
 2426              	.LVL217:
 2427              	.L151:
 2428              		.cfi_restore_state
 2429 001e FFF7FEFF 		bl	__stack_chk_fail
 2430              	.LVL218:
 2431              	.L153:
 2432 0022 00BF     		.align	2
 2433              	.L152:
 2434 0024 00000000 		.word	__stack_chk_guard
 2435 0028 00000000 		.word	.LANCHOR7
 2436              		.cfi_endproc
 2437              	.LFE275:
 2438              		.size	detectEnvironment, .-detectEnvironment
 2439              		.section	.text.scanInFront,"ax",%progbits
 2440              		.align	1
 2441              		.p2align 4,,15
 2442              		.global	scanInFront
 2443              		.syntax unified
 2444              		.thumb
 2445              		.thumb_func
 2446              		.fpu fpv4-sp-d16
 2447              		.type	scanInFront, %function
 2448              	scanInFront:
 2449              	.LFB276:
 2450              		.loc 1 241 0
 2451              		.cfi_startproc
ARM GAS  /var/folders/qd/4mxf5pkd0zdf0b9dd1hp39180000gn/T//cc0H01tt.s 			page 44


 2452              		@ args = 0, pretend = 0, frame = 56
 2453              		@ frame_needed = 0, uses_anonymous_args = 0
 2454 0000 2DE9F04F 		push	{r4, r5, r6, r7, r8, r9, r10, fp, lr}
 2455              		.cfi_def_cfa_offset 36
 2456              		.cfi_offset 4, -36
 2457              		.cfi_offset 5, -32
 2458              		.cfi_offset 6, -28
 2459              		.cfi_offset 7, -24
 2460              		.cfi_offset 8, -20
 2461              		.cfi_offset 9, -16
 2462              		.cfi_offset 10, -12
 2463              		.cfi_offset 11, -8
 2464              		.cfi_offset 14, -4
 2465 0004 DFF8A4A0 		ldr	r10, .L160+20
 2466              	.LBB486:
 2467              	.LBB487:
 2468              		.loc 1 227 0
 2469 0008 DFF8A480 		ldr	r8, .L160+24
 2470              	.LBE487:
 2471              	.LBE486:
 2472              		.loc 1 241 0
 2473 000c DAF80030 		ldr	r3, [r10]
 2474 0010 8FB0     		sub	sp, sp, #60
 2475              		.cfi_def_cfa_offset 96
 2476              		.loc 1 242 0
 2477 0012 4FF4F070 		mov	r0, #480
 2478              		.loc 1 241 0
 2479 0016 0D93     		str	r3, [sp, #52]
 2480              		.loc 1 242 0
 2481 0018 FFF7FEFF 		bl	malloc
 2482              	.LVL219:
 2483              	.LBB489:
 2484              	.LBB490:
 2485              		.loc 1 227 0
 2486 001c 1FA7     		adr	r7, .L160+4
 2487 001e D7E90067 		ldrd	r6, [r7]
 2488              	.LBE490:
 2489              	.LBE489:
 2490              		.loc 1 242 0
 2491 0022 8146     		mov	r9, r0
 2492              	.LVL220:
 2493              	.LBB492:
 2494              	.LBB491:
 2495              		.loc 1 227 0
 2496 0024 0023     		movs	r3, #0
 2497 0026 40F6F421 		movw	r1, #2804
 2498 002a 6846     		mov	r0, sp
 2499              	.LVL221:
 2500 002c CDE90267 		strd	r6, [sp, #8]
 2501 0030 0093     		str	r3, [sp]
 2502 0032 FFF7FEFF 		bl	moveAndComputePositionRobotSpeedType
 2503              	.LVL222:
 2504 0036 4C46     		mov	r4, r9
 2505 0038 09F5F07B 		add	fp, r9, #480
 2506              	.LVL223:
 2507              	.L155:
 2508              	.LBE491:
ARM GAS  /var/folders/qd/4mxf5pkd0zdf0b9dd1hp39180000gn/T//cc0H01tt.s 			page 45


 2509              	.LBE492:
 2510              		.loc 1 246 0 discriminator 3
 2511 003c 9620     		movs	r0, #150
 2512 003e FFF7FEFF 		bl	chThdSleep
 2513              	.LVL224:
 2514              		.loc 1 247 0 discriminator 3
 2515 0042 2046     		mov	r0, r4
 2516 0044 FFF7FEFF 		bl	storeFrontDistanceSensorValue
 2517              	.LVL225:
 2518 0048 1834     		adds	r4, r4, #24
 2519              	.LBB493:
 2520              	.LBB488:
 2521              		.loc 1 227 0 discriminator 3
 2522 004a 0025     		movs	r5, #0
 2523 004c 4146     		mov	r1, r8
 2524 004e 04A8     		add	r0, sp, #16
 2525 0050 CDE90667 		strd	r6, [sp, #24]
 2526 0054 0495     		str	r5, [sp, #16]
 2527 0056 FFF7FEFF 		bl	moveAndComputePositionRobotSpeedType
 2528              	.LVL226:
 2529              	.LBE488:
 2530              	.LBE493:
 2531              		.loc 1 245 0 discriminator 3
 2532 005a 5C45     		cmp	r4, fp
 2533 005c EED1     		bne	.L155
 2534              	.LVL227:
 2535              	.LBB494:
 2536              	.LBB495:
 2537              		.loc 1 227 0
 2538 005e 11A3     		adr	r3, .L160+12
 2539 0060 D3E90023 		ldrd	r2, [r3]
 2540 0064 40F6F421 		movw	r1, #2804
 2541 0068 08A8     		add	r0, sp, #32
 2542 006a CDE90A23 		strd	r2, [sp, #40]
 2543 006e 0895     		str	r5, [sp, #32]
 2544 0070 FFF7FEFF 		bl	moveAndComputePositionRobotSpeedType
 2545              	.LVL228:
 2546              	.LBE495:
 2547              	.LBE494:
 2548              	.LBB496:
 2549              	.LBB497:
 2550              		.loc 1 235 0
 2551 0074 084A     		ldr	r2, .L160
 2552 0076 4846     		mov	r0, r9
 2553 0078 1421     		movs	r1, #20
 2554 007a FFF7FEFF 		bl	mod_mapping_checkEnvironment
 2555              	.LVL229:
 2556              	.LBE497:
 2557              	.LBE496:
 2558              		.loc 1 252 0
 2559 007e 0D9A     		ldr	r2, [sp, #52]
 2560 0080 DAF80030 		ldr	r3, [r10]
 2561 0084 9A42     		cmp	r2, r3
 2562 0086 02D1     		bne	.L159
 2563 0088 0FB0     		add	sp, sp, #60
 2564              		.cfi_remember_state
 2565              		.cfi_def_cfa_offset 36
ARM GAS  /var/folders/qd/4mxf5pkd0zdf0b9dd1hp39180000gn/T//cc0H01tt.s 			page 46


 2566              		@ sp needed
 2567 008a BDE8F08F 		pop	{r4, r5, r6, r7, r8, r9, r10, fp, pc}
 2568              	.LVL230:
 2569              	.L159:
 2570              		.cfi_restore_state
 2571 008e FFF7FEFF 		bl	__stack_chk_fail
 2572              	.LVL231:
 2573              	.L161:
 2574 0092 00BFAFF3 		.align	3
 2574      0080
 2575              	.L160:
 2576 0098 00000000 		.word	.LANCHOR7
 2577 009c 00000020 		.word	536870912
 2578 00a0 85EBD13F 		.word	1070721925
 2579 00a4 00000020 		.word	536870912
 2580 00a8 85EBD1BF 		.word	-1076761723
 2581 00ac 00000000 		.word	__stack_chk_guard
 2582 00b0 47B60100 		.word	112199
 2583              		.cfi_endproc
 2584              	.LFE276:
 2585              		.size	scanInFront, .-scanInFront
 2586              		.section	.text.exploration,"ax",%progbits
 2587              		.align	1
 2588              		.p2align 4,,15
 2589              		.syntax unified
 2590              		.thumb
 2591              		.thumb_func
 2592              		.fpu fpv4-sp-d16
 2593              		.type	exploration, %function
 2594              	exploration:
 2595              	.LFB278:
 2596              		.loc 1 274 0
 2597              		.cfi_startproc
 2598              		@ args = 0, pretend = 0, frame = 24
 2599              		@ frame_needed = 0, uses_anonymous_args = 0
 2600              	.LVL232:
 2601 0000 D0B5     		push	{r4, r6, r7, lr}
 2602              		.cfi_def_cfa_offset 16
 2603              		.cfi_offset 4, -16
 2604              		.cfi_offset 6, -12
 2605              		.cfi_offset 7, -8
 2606              		.cfi_offset 14, -4
 2607 0002 254C     		ldr	r4, .L170+8
 2608 0004 86B0     		sub	sp, sp, #24
 2609              		.cfi_def_cfa_offset 40
 2610              	.LBB516:
 2611              	.LBB517:
 2612              		.loc 1 227 0
 2613 0006 22A7     		adr	r7, .L170
 2614 0008 D7E90067 		ldrd	r6, [r7]
 2615              	.LBE517:
 2616              	.LBE516:
 2617              		.loc 1 274 0
 2618 000c 2368     		ldr	r3, [r4]
 2619 000e 0593     		str	r3, [sp, #20]
 2620              	.LVL233:
 2621              	.LBB519:
ARM GAS  /var/folders/qd/4mxf5pkd0zdf0b9dd1hp39180000gn/T//cc0H01tt.s 			page 47


 2622              	.LBB518:
 2623              		.loc 1 227 0
 2624 0010 6846     		mov	r0, sp
 2625              	.LVL234:
 2626 0012 0023     		movs	r3, #0
 2627 0014 41F2E951 		movw	r1, #5609
 2628 0018 0093     		str	r3, [sp]
 2629 001a CDE90267 		strd	r6, [sp, #8]
 2630 001e FFF7FEFF 		bl	moveAndComputePositionRobotSpeedType
 2631              	.LVL235:
 2632              	.LBE518:
 2633              	.LBE519:
 2634              		.loc 1 277 0
 2635 0022 FFF7FEFF 		bl	scanInFront
 2636              	.LVL236:
 2637              		.loc 1 280 0
 2638 0026 0321     		movs	r1, #3
 2639 0028 1C48     		ldr	r0, .L170+12
 2640 002a FFF7FEFF 		bl	mod_com_writeMessage
 2641              	.LVL237:
 2642              	.LBB520:
 2643              	.LBB521:
 2644              	.LBB522:
 2645              	.LBB523:
 2646              	.LBB524:
 2647              	.LBB525:
 2648              	.LBB526:
 2649              	.LBB527:
 2650              		.loc 2 546 0
 2651 002e 2023     		movs	r3, #32
 2652              		.syntax unified
 2653              	@ 546 "lib/e-puck2_main-processor/ChibiOS//os/ext/CMSIS/include/core_cmFunc.h" 1
 2654 0030 83F31188 		MSR basepri, r3
 2655              	@ 0 "" 2
 2656              	.LVL238:
 2657              		.thumb
 2658              		.syntax unified
 2659              	.LBE527:
 2660              	.LBE526:
 2661              	.LBE525:
 2662              		.loc 3 349 0
 2663 0034 FFF7FEFF 		bl	_stats_start_measure_crit_thd
 2664              	.LVL239:
 2665              		.loc 3 350 0
 2666 0038 FFF7FEFF 		bl	_dbg_check_lock
 2667              	.LVL240:
 2668              	.LBE524:
 2669              	.LBE523:
 2670              	.LBB528:
 2671              	.LBB529:
 2672              		.loc 5 268 0
 2673 003c FFF7FEFF 		bl	chDbgCheckClassI
 2674              	.LVL241:
 2675              		.loc 5 270 0
 2676 0040 1748     		ldr	r0, .L170+16
 2677 0042 8368     		ldr	r3, [r0, #8]
 2678 0044 002B     		cmp	r3, #0
ARM GAS  /var/folders/qd/4mxf5pkd0zdf0b9dd1hp39180000gn/T//cc0H01tt.s 			page 48


 2679 0046 1BDD     		ble	.L167
 2680              	.L163:
 2681              	.LVL242:
 2682              	.LBE529:
 2683              	.LBE528:
 2684              		.loc 5 286 0
 2685 0048 FFF7FEFF 		bl	chSchRescheduleS
 2686              	.LVL243:
 2687              	.LBB531:
 2688              	.LBB532:
 2689              		.loc 3 360 0
 2690 004c FFF7FEFF 		bl	_dbg_check_unlock
 2691              	.LVL244:
 2692              		.loc 3 361 0
 2693 0050 FFF7FEFF 		bl	_stats_stop_measure_crit_thd
 2694              	.LVL245:
 2695              		.loc 3 367 0
 2696 0054 134B     		ldr	r3, .L170+20
 2697 0056 1A68     		ldr	r2, [r3]
 2698 0058 9A42     		cmp	r2, r3
 2699 005a 04D0     		beq	.L164
 2700 005c 9969     		ldr	r1, [r3, #24]
 2701 005e 9368     		ldr	r3, [r2, #8]
 2702 0060 8A68     		ldr	r2, [r1, #8]
 2703 0062 9A42     		cmp	r2, r3
 2704 0064 08D3     		bcc	.L168
 2705              	.L164:
 2706              	.LVL246:
 2707              	.LBB533:
 2708              	.LBB534:
 2709              	.LBB535:
 2710              		.loc 2 546 0
 2711 0066 0023     		movs	r3, #0
 2712              		.syntax unified
 2713              	@ 546 "lib/e-puck2_main-processor/ChibiOS//os/ext/CMSIS/include/core_cmFunc.h" 1
 2714 0068 83F31188 		MSR basepri, r3
 2715              	@ 0 "" 2
 2716              	.LVL247:
 2717              		.thumb
 2718              		.syntax unified
 2719              	.LBE535:
 2720              	.LBE534:
 2721              	.LBE533:
 2722              	.LBE532:
 2723              	.LBE531:
 2724              	.LBE522:
 2725              	.LBE521:
 2726              	.LBE520:
 2727              		.loc 1 283 0
 2728 006c 059A     		ldr	r2, [sp, #20]
 2729 006e 2368     		ldr	r3, [r4]
 2730 0070 9A42     		cmp	r2, r3
 2731 0072 08D1     		bne	.L169
 2732 0074 06B0     		add	sp, sp, #24
 2733              		.cfi_remember_state
 2734              		.cfi_def_cfa_offset 16
 2735              		@ sp needed
ARM GAS  /var/folders/qd/4mxf5pkd0zdf0b9dd1hp39180000gn/T//cc0H01tt.s 			page 49


 2736 0076 D0BD     		pop	{r4, r6, r7, pc}
 2737              	.LVL248:
 2738              	.L168:
 2739              		.cfi_restore_state
 2740              	.LBB541:
 2741              	.LBB540:
 2742              	.LBB539:
 2743              	.LBB537:
 2744              	.LBB536:
 2745              		.loc 3 367 0
 2746 0078 0B48     		ldr	r0, .L170+24
 2747 007a FFF7FEFF 		bl	chSysHalt
 2748              	.LVL249:
 2749 007e F2E7     		b	.L164
 2750              	.LVL250:
 2751              	.L167:
 2752              	.LBE536:
 2753              	.LBE537:
 2754              	.LBB538:
 2755              	.LBB530:
 2756              		.loc 5 271 0
 2757 0080 FFF7FEFF 		bl	chSemSignalI
 2758              	.LVL251:
 2759 0084 E0E7     		b	.L163
 2760              	.LVL252:
 2761              	.L169:
 2762              	.LBE530:
 2763              	.LBE538:
 2764              	.LBE539:
 2765              	.LBE540:
 2766              	.LBE541:
 2767              		.loc 1 283 0
 2768 0086 FFF7FEFF 		bl	__stack_chk_fail
 2769              	.LVL253:
 2770              	.L171:
 2771 008a 00BFAFF3 		.align	3
 2771      0080
 2772              	.L170:
 2773 0090 00000020 		.word	536870912
 2774 0094 85EBD1BF 		.word	-1076761723
 2775 0098 00000000 		.word	__stack_chk_guard
 2776 009c 00000000 		.word	.LC2
 2777 00a0 00000000 		.word	.LANCHOR5
 2778 00a4 00000000 		.word	ch
 2779 00a8 00000000 		.word	.LANCHOR1
 2780              		.cfi_endproc
 2781              	.LFE278:
 2782              		.size	exploration, .-exploration
 2783              		.section	.text.mod_explo_initModule,"ax",%progbits
 2784              		.align	1
 2785              		.p2align 4,,15
 2786              		.global	mod_explo_initModule
 2787              		.syntax unified
 2788              		.thumb
 2789              		.thumb_func
 2790              		.fpu fpv4-sp-d16
 2791              		.type	mod_explo_initModule, %function
ARM GAS  /var/folders/qd/4mxf5pkd0zdf0b9dd1hp39180000gn/T//cc0H01tt.s 			page 50


 2792              	mod_explo_initModule:
 2793              	.LFB279:
 2794              		.loc 1 291 0
 2795              		.cfi_startproc
 2796              		@ args = 0, pretend = 0, frame = 8
 2797              		@ frame_needed = 0, uses_anonymous_args = 0
 2798 0000 10B5     		push	{r4, lr}
 2799              		.cfi_def_cfa_offset 8
 2800              		.cfi_offset 4, -8
 2801              		.cfi_offset 14, -4
 2802 0002 0F4C     		ldr	r4, .L176
 2803 0004 84B0     		sub	sp, sp, #16
 2804              		.cfi_def_cfa_offset 24
 2805              		.loc 1 291 0
 2806 0006 2368     		ldr	r3, [r4]
 2807 0008 0393     		str	r3, [sp, #12]
 2808              		.loc 1 292 0
 2809 000a FFF7FEFF 		bl	mod_sensors_initSensors
 2810              	.LVL254:
 2811              		.loc 1 293 0
 2812 000e FFF7FEFF 		bl	mod_motors_init
 2813              	.LVL255:
 2814              		.loc 1 294 0
 2815 0012 FFF7FEFF 		bl	mod_mapping_init
 2816              	.LVL256:
 2817              		.loc 1 295 0
 2818 0016 FFF7FEFF 		bl	mod_sensors_initObjectDetection
 2819              	.LVL257:
 2820              		.loc 1 296 0
 2821 001a 0023     		movs	r3, #0
 2822 001c 0093     		str	r3, [sp]
 2823 001e 4A22     		movs	r2, #74
 2824 0020 084B     		ldr	r3, .L176+4
 2825 0022 0948     		ldr	r0, .L176+8
 2826 0024 4FF4AF61 		mov	r1, #1400
 2827 0028 FFF7FEFF 		bl	chThdCreateStatic
 2828              	.LVL258:
 2829              		.loc 1 300 0
 2830 002c 039A     		ldr	r2, [sp, #12]
 2831 002e 2368     		ldr	r3, [r4]
 2832              		.loc 1 296 0
 2833 0030 0649     		ldr	r1, .L176+12
 2834              		.loc 1 300 0
 2835 0032 9A42     		cmp	r2, r3
 2836              		.loc 1 296 0
 2837 0034 0860     		str	r0, [r1]
 2838              		.loc 1 300 0
 2839 0036 01D1     		bne	.L175
 2840 0038 04B0     		add	sp, sp, #16
 2841              		.cfi_remember_state
 2842              		.cfi_def_cfa_offset 8
 2843              		@ sp needed
 2844 003a 10BD     		pop	{r4, pc}
 2845              	.L175:
 2846              		.cfi_restore_state
 2847 003c FFF7FEFF 		bl	__stack_chk_fail
 2848              	.LVL259:
ARM GAS  /var/folders/qd/4mxf5pkd0zdf0b9dd1hp39180000gn/T//cc0H01tt.s 			page 51


 2849              	.L177:
 2850              		.align	2
 2851              	.L176:
 2852 0040 00000000 		.word	__stack_chk_guard
 2853 0044 00000000 		.word	changeMotorsStateAsync
 2854 0048 00000000 		.word	.LANCHOR8
 2855 004c 00000000 		.word	.LANCHOR6
 2856              		.cfi_endproc
 2857              	.LFE279:
 2858              		.size	mod_explo_initModule, .-mod_explo_initModule
 2859              		.section	.text.mod_explo_calibration,"ax",%progbits
 2860              		.align	1
 2861              		.p2align 4,,15
 2862              		.global	mod_explo_calibration
 2863              		.syntax unified
 2864              		.thumb
 2865              		.thumb_func
 2866              		.fpu fpv4-sp-d16
 2867              		.type	mod_explo_calibration, %function
 2868              	mod_explo_calibration:
 2869              	.LFB280:
 2870              		.loc 1 303 0
 2871              		.cfi_startproc
 2872              		@ args = 0, pretend = 0, frame = 8
 2873              		@ frame_needed = 0, uses_anonymous_args = 0
 2874 0000 00B5     		push	{lr}
 2875              		.cfi_def_cfa_offset 4
 2876              		.cfi_offset 14, -4
 2877 0002 074B     		ldr	r3, .L183
 2878 0004 83B0     		sub	sp, sp, #12
 2879              		.cfi_def_cfa_offset 16
 2880              		.loc 1 303 0
 2881 0006 1A68     		ldr	r2, [r3]
 2882 0008 0192     		str	r2, [sp, #4]
 2883              		.loc 1 305 0
 2884 000a 019A     		ldr	r2, [sp, #4]
 2885 000c 1B68     		ldr	r3, [r3]
 2886 000e 9A42     		cmp	r2, r3
 2887 0010 04D1     		bne	.L182
 2888              		.loc 1 360 0
 2889 0012 03B0     		add	sp, sp, #12
 2890              		.cfi_remember_state
 2891              		.cfi_def_cfa_offset 4
 2892              		@ sp needed
 2893 0014 5DF804EB 		ldr	lr, [sp], #4
 2894              		.cfi_restore 14
 2895              		.cfi_def_cfa_offset 0
 2896              		.loc 1 305 0
 2897 0018 FFF7FEBF 		b	mod_sensors_calibrateIRSensors
 2898              	.LVL260:
 2899              	.L182:
 2900              		.cfi_restore_state
 2901 001c FFF7FEFF 		bl	__stack_chk_fail
 2902              	.LVL261:
 2903              	.L184:
 2904              		.align	2
 2905              	.L183:
ARM GAS  /var/folders/qd/4mxf5pkd0zdf0b9dd1hp39180000gn/T//cc0H01tt.s 			page 52


 2906 0020 00000000 		.word	__stack_chk_guard
 2907              		.cfi_endproc
 2908              	.LFE280:
 2909              		.size	mod_explo_calibration, .-mod_explo_calibration
 2910              		.section	.text.mod_explo_discoverTheAreaOnThread,"ax",%progbits
 2911              		.align	1
 2912              		.p2align 4,,15
 2913              		.global	mod_explo_discoverTheAreaOnThread
 2914              		.syntax unified
 2915              		.thumb
 2916              		.thumb_func
 2917              		.fpu fpv4-sp-d16
 2918              		.type	mod_explo_discoverTheAreaOnThread, %function
 2919              	mod_explo_discoverTheAreaOnThread:
 2920              	.LFB281:
 2921              		.loc 1 362 0
 2922              		.cfi_startproc
 2923              		@ args = 0, pretend = 0, frame = 8
 2924              		@ frame_needed = 0, uses_anonymous_args = 0
 2925 0000 10B5     		push	{r4, lr}
 2926              		.cfi_def_cfa_offset 8
 2927              		.cfi_offset 4, -8
 2928              		.cfi_offset 14, -4
 2929 0002 0A4C     		ldr	r4, .L189
 2930              		.loc 1 363 0
 2931 0004 0A4B     		ldr	r3, .L189+4
 2932              		.loc 1 362 0
 2933 0006 2268     		ldr	r2, [r4]
 2934              		.loc 1 363 0
 2935 0008 0A48     		ldr	r0, .L189+8
 2936              		.loc 1 362 0
 2937 000a 84B0     		sub	sp, sp, #16
 2938              		.cfi_def_cfa_offset 24
 2939              		.loc 1 363 0
 2940 000c 4FF4AF61 		mov	r1, #1400
 2941              		.loc 1 362 0
 2942 0010 0392     		str	r2, [sp, #12]
 2943              		.loc 1 363 0
 2944 0012 0022     		movs	r2, #0
 2945 0014 0092     		str	r2, [sp]
 2946 0016 4922     		movs	r2, #73
 2947 0018 FFF7FEFF 		bl	chThdCreateStatic
 2948              	.LVL262:
 2949              		.loc 1 365 0
 2950 001c 039A     		ldr	r2, [sp, #12]
 2951 001e 2368     		ldr	r3, [r4]
 2952 0020 9A42     		cmp	r2, r3
 2953 0022 01D1     		bne	.L188
 2954 0024 04B0     		add	sp, sp, #16
 2955              		.cfi_remember_state
 2956              		.cfi_def_cfa_offset 8
 2957              		@ sp needed
 2958 0026 10BD     		pop	{r4, pc}
 2959              	.L188:
 2960              		.cfi_restore_state
 2961 0028 FFF7FEFF 		bl	__stack_chk_fail
 2962              	.LVL263:
ARM GAS  /var/folders/qd/4mxf5pkd0zdf0b9dd1hp39180000gn/T//cc0H01tt.s 			page 53


 2963              	.L190:
 2964              		.align	2
 2965              	.L189:
 2966 002c 00000000 		.word	__stack_chk_guard
 2967 0030 00000000 		.word	discover
 2968 0034 00000000 		.word	.LANCHOR9
 2969              		.cfi_endproc
 2970              	.LFE281:
 2971              		.size	mod_explo_discoverTheAreaOnThread, .-mod_explo_discoverTheAreaOnThread
 2972              		.section	.text.mod_explo_explorateTheAreaOnThread,"ax",%progbits
 2973              		.align	1
 2974              		.p2align 4,,15
 2975              		.global	mod_explo_explorateTheAreaOnThread
 2976              		.syntax unified
 2977              		.thumb
 2978              		.thumb_func
 2979              		.fpu fpv4-sp-d16
 2980              		.type	mod_explo_explorateTheAreaOnThread, %function
 2981              	mod_explo_explorateTheAreaOnThread:
 2982              	.LFB282:
 2983              		.loc 1 367 0
 2984              		.cfi_startproc
 2985              		@ args = 0, pretend = 0, frame = 8
 2986              		@ frame_needed = 0, uses_anonymous_args = 0
 2987 0000 10B5     		push	{r4, lr}
 2988              		.cfi_def_cfa_offset 8
 2989              		.cfi_offset 4, -8
 2990              		.cfi_offset 14, -4
 2991 0002 0A4C     		ldr	r4, .L195
 2992              		.loc 1 368 0
 2993 0004 0A4B     		ldr	r3, .L195+4
 2994              		.loc 1 367 0
 2995 0006 2268     		ldr	r2, [r4]
 2996              		.loc 1 368 0
 2997 0008 0A48     		ldr	r0, .L195+8
 2998              		.loc 1 367 0
 2999 000a 84B0     		sub	sp, sp, #16
 3000              		.cfi_def_cfa_offset 24
 3001              		.loc 1 368 0
 3002 000c 4FF4AF61 		mov	r1, #1400
 3003              		.loc 1 367 0
 3004 0010 0392     		str	r2, [sp, #12]
 3005              		.loc 1 368 0
 3006 0012 0022     		movs	r2, #0
 3007 0014 0092     		str	r2, [sp]
 3008 0016 4222     		movs	r2, #66
 3009 0018 FFF7FEFF 		bl	chThdCreateStatic
 3010              	.LVL264:
 3011              		.loc 1 369 0
 3012 001c 039A     		ldr	r2, [sp, #12]
 3013 001e 2368     		ldr	r3, [r4]
 3014 0020 9A42     		cmp	r2, r3
 3015 0022 01D1     		bne	.L194
 3016 0024 04B0     		add	sp, sp, #16
 3017              		.cfi_remember_state
 3018              		.cfi_def_cfa_offset 8
 3019              		@ sp needed
ARM GAS  /var/folders/qd/4mxf5pkd0zdf0b9dd1hp39180000gn/T//cc0H01tt.s 			page 54


 3020 0026 10BD     		pop	{r4, pc}
 3021              	.L194:
 3022              		.cfi_restore_state
 3023 0028 FFF7FEFF 		bl	__stack_chk_fail
 3024              	.LVL265:
 3025              	.L196:
 3026              		.align	2
 3027              	.L195:
 3028 002c 00000000 		.word	__stack_chk_guard
 3029 0030 00000000 		.word	exploration
 3030 0034 00000000 		.word	.LANCHOR10
 3031              		.cfi_endproc
 3032              	.LFE282:
 3033              		.size	mod_explo_explorateTheAreaOnThread, .-mod_explo_explorateTheAreaOnThread
 3034              		.section	.text.mod_explo_sendTheMap,"ax",%progbits
 3035              		.align	1
 3036              		.p2align 4,,15
 3037              		.global	mod_explo_sendTheMap
 3038              		.syntax unified
 3039              		.thumb
 3040              		.thumb_func
 3041              		.fpu fpv4-sp-d16
 3042              		.type	mod_explo_sendTheMap, %function
 3043              	mod_explo_sendTheMap:
 3044              	.LFB283:
 3045              		.loc 1 371 0
 3046              		.cfi_startproc
 3047              		@ args = 0, pretend = 0, frame = 8
 3048              		@ frame_needed = 0, uses_anonymous_args = 0
 3049 0000 00B5     		push	{lr}
 3050              		.cfi_def_cfa_offset 4
 3051              		.cfi_offset 14, -4
 3052 0002 084B     		ldr	r3, .L202
 3053 0004 83B0     		sub	sp, sp, #12
 3054              		.cfi_def_cfa_offset 16
 3055              		.loc 1 371 0
 3056 0006 1A68     		ldr	r2, [r3]
 3057 0008 0192     		str	r2, [sp, #4]
 3058              		.loc 1 372 0
 3059 000a 019A     		ldr	r2, [sp, #4]
 3060 000c 1B68     		ldr	r3, [r3]
 3061 000e 9A42     		cmp	r2, r3
 3062 0010 05D1     		bne	.L201
 3063 0012 0020     		movs	r0, #0
 3064              		.loc 1 373 0
 3065 0014 03B0     		add	sp, sp, #12
 3066              		.cfi_remember_state
 3067              		.cfi_def_cfa_offset 4
 3068              		@ sp needed
 3069 0016 5DF804EB 		ldr	lr, [sp], #4
 3070              		.cfi_restore 14
 3071              		.cfi_def_cfa_offset 0
 3072              		.loc 1 372 0
 3073 001a FFF7FEBF 		b	mod_com_writeCommand
 3074              	.LVL266:
 3075              	.L201:
 3076              		.cfi_restore_state
ARM GAS  /var/folders/qd/4mxf5pkd0zdf0b9dd1hp39180000gn/T//cc0H01tt.s 			page 55


 3077 001e FFF7FEFF 		bl	__stack_chk_fail
 3078              	.LVL267:
 3079              	.L203:
 3080 0022 00BF     		.align	2
 3081              	.L202:
 3082 0024 00000000 		.word	__stack_chk_guard
 3083              		.cfi_endproc
 3084              	.LFE283:
 3085              		.size	mod_explo_sendTheMap, .-mod_explo_sendTheMap
 3086              		.section	.text.mod_explo_waitUntilEndOfWork,"ax",%progbits
 3087              		.align	1
 3088              		.p2align 4,,15
 3089              		.global	mod_explo_waitUntilEndOfWork
 3090              		.syntax unified
 3091              		.thumb
 3092              		.thumb_func
 3093              		.fpu fpv4-sp-d16
 3094              		.type	mod_explo_waitUntilEndOfWork, %function
 3095              	mod_explo_waitUntilEndOfWork:
 3096              	.LFB284:
 3097              		.loc 1 375 0
 3098              		.cfi_startproc
 3099              		@ args = 0, pretend = 0, frame = 8
 3100              		@ frame_needed = 0, uses_anonymous_args = 0
 3101 0000 00B5     		push	{lr}
 3102              		.cfi_def_cfa_offset 4
 3103              		.cfi_offset 14, -4
 3104 0002 084B     		ldr	r3, .L209
 3105 0004 83B0     		sub	sp, sp, #12
 3106              		.cfi_def_cfa_offset 16
 3107              		.loc 1 375 0
 3108 0006 1A68     		ldr	r2, [r3]
 3109 0008 0192     		str	r2, [sp, #4]
 3110              	.LVL268:
 3111              	.LBB542:
 3112              	.LBB543:
 3113              		.loc 5 143 0
 3114 000a 019A     		ldr	r2, [sp, #4]
 3115 000c 1B68     		ldr	r3, [r3]
 3116 000e 9A42     		cmp	r2, r3
 3117 0010 05D1     		bne	.L208
 3118 0012 0548     		ldr	r0, .L209+4
 3119              	.LBE543:
 3120              	.LBE542:
 3121              		.loc 1 377 0
 3122 0014 03B0     		add	sp, sp, #12
 3123              		.cfi_remember_state
 3124              		.cfi_def_cfa_offset 4
 3125              		@ sp needed
 3126 0016 5DF804EB 		ldr	lr, [sp], #4
 3127              		.cfi_restore 14
 3128              		.cfi_def_cfa_offset 0
 3129              	.LBB545:
 3130              	.LBB544:
 3131              		.loc 5 143 0
 3132 001a FFF7FEBF 		b	chSemWait
 3133              	.LVL269:
ARM GAS  /var/folders/qd/4mxf5pkd0zdf0b9dd1hp39180000gn/T//cc0H01tt.s 			page 56


 3134              	.L208:
 3135              		.cfi_restore_state
 3136 001e FFF7FEFF 		bl	__stack_chk_fail
 3137              	.LVL270:
 3138              	.L210:
 3139 0022 00BF     		.align	2
 3140              	.L209:
 3141 0024 00000000 		.word	__stack_chk_guard
 3142 0028 00000000 		.word	.LANCHOR5
 3143              	.LBE544:
 3144              	.LBE545:
 3145              		.cfi_endproc
 3146              	.LFE284:
 3147              		.size	mod_explo_waitUntilEndOfWork, .-mod_explo_waitUntilEndOfWork
 3148              		.global	environmentObstacles
 3149              		.global	lastOrder
 3150              		.global	isMessage
 3151              		.global	wipEndMovingSignal_sem
 3152              		.global	wipEndSignal_sem
 3153              		.section	.bss.changeMotorsStateAsync_wa,"aw",%nobits
 3154              		.align	3
 3155              		.set	.LANCHOR8,. + 0
 3156              		.type	changeMotorsStateAsync_wa, %object
 3157              		.size	changeMotorsStateAsync_wa, 1400
 3158              	changeMotorsStateAsync_wa:
 3159 0000 00000000 		.space	1400
 3159      00000000 
 3159      00000000 
 3159      00000000 
 3159      00000000 
 3160              		.section	.bss.discover_wa,"aw",%nobits
 3161              		.align	3
 3162              		.set	.LANCHOR9,. + 0
 3163              		.type	discover_wa, %object
 3164              		.size	discover_wa, 1400
 3165              	discover_wa:
 3166 0000 00000000 		.space	1400
 3166      00000000 
 3166      00000000 
 3166      00000000 
 3166      00000000 
 3167              		.section	.bss.environmentObstacles,"aw",%nobits
 3168              		.align	2
 3169              		.set	.LANCHOR7,. + 0
 3170              		.type	environmentObstacles, %object
 3171              		.size	environmentObstacles, 60
 3172              	environmentObstacles:
 3173 0000 00000000 		.space	60
 3173      00000000 
 3173      00000000 
 3173      00000000 
 3173      00000000 
 3174              		.section	.bss.exploration_wa,"aw",%nobits
 3175              		.align	3
 3176              		.set	.LANCHOR10,. + 0
 3177              		.type	exploration_wa, %object
 3178              		.size	exploration_wa, 1400
ARM GAS  /var/folders/qd/4mxf5pkd0zdf0b9dd1hp39180000gn/T//cc0H01tt.s 			page 57


 3179              	exploration_wa:
 3180 0000 00000000 		.space	1400
 3180      00000000 
 3180      00000000 
 3180      00000000 
 3180      00000000 
 3181              		.section	.bss.isMoving.11964,"aw",%nobits
 3182              		.set	.LANCHOR0,. + 0
 3183              		.type	isMoving.11964, %object
 3184              		.size	isMoving.11964, 1
 3185              	isMoving.11964:
 3186 0000 00       		.space	1
 3187              		.section	.bss.lastOrder,"aw",%nobits
 3188              		.align	3
 3189              		.set	.LANCHOR3,. + 0
 3190              		.type	lastOrder, %object
 3191              		.size	lastOrder, 16
 3192              	lastOrder:
 3193 0000 00000000 		.space	16
 3193      00000000 
 3193      00000000 
 3193      00000000 
 3194              		.section	.bss.lastOrderTime.11965,"aw",%nobits
 3195              		.align	2
 3196              		.set	.LANCHOR2,. + 0
 3197              		.type	lastOrderTime.11965, %object
 3198              		.size	lastOrderTime.11965, 4
 3199              	lastOrderTime.11965:
 3200 0000 00000000 		.space	4
 3201              		.section	.bss.motorsControlThread,"aw",%nobits
 3202              		.align	2
 3203              		.set	.LANCHOR6,. + 0
 3204              		.type	motorsControlThread, %object
 3205              		.size	motorsControlThread, 4
 3206              	motorsControlThread:
 3207 0000 00000000 		.space	4
 3208              		.section	.data.isMessage,"aw",%progbits
 3209              		.align	2
 3210              		.type	isMessage, %object
 3211              		.size	isMessage, 12
 3212              	isMessage:
 3213 0000 00000000 		.word	isMessage
 3214 0004 00000000 		.word	isMessage
 3215 0008 00000000 		.word	0
 3216              		.section	.data.wipEndMovingSignal_sem,"aw",%progbits
 3217              		.align	2
 3218              		.set	.LANCHOR4,. + 0
 3219              		.type	wipEndMovingSignal_sem, %object
 3220              		.size	wipEndMovingSignal_sem, 12
 3221              	wipEndMovingSignal_sem:
 3222 0000 00000000 		.word	wipEndMovingSignal_sem
 3223 0004 00000000 		.word	wipEndMovingSignal_sem
 3224 0008 00000000 		.word	0
 3225              		.section	.data.wipEndSignal_sem,"aw",%progbits
 3226              		.align	2
 3227              		.set	.LANCHOR5,. + 0
 3228              		.type	wipEndSignal_sem, %object
ARM GAS  /var/folders/qd/4mxf5pkd0zdf0b9dd1hp39180000gn/T//cc0H01tt.s 			page 58


 3229              		.size	wipEndSignal_sem, 12
 3230              	wipEndSignal_sem:
 3231 0000 00000000 		.word	wipEndSignal_sem
 3232 0004 00000000 		.word	wipEndSignal_sem
 3233 0008 00000000 		.word	0
 3234              		.section	.rodata.__func__.8385,"a",%progbits
 3235              		.align	2
 3236              		.set	.LANCHOR1,. + 0
 3237              		.type	__func__.8385, %object
 3238              		.size	__func__.8385, 12
 3239              	__func__.8385:
 3240 0000 63685379 		.ascii	"chSysUnlock\000"
 3240      73556E6C 
 3240      6F636B00 
 3241              		.section	.rodata.changeMotorsStateAsync.str1.4,"aMS",%progbits,1
 3242              		.align	2
 3243              	.LC0:
 3244 0000 526F626F 		.ascii	"Robot is not moving\000"
 3244      74206973 
 3244      206E6F74 
 3244      206D6F76 
 3244      696E6700 
 3245              	.LC1:
 3246 0014 526F626F 		.ascii	"Robot is moving\000"
 3246      74206973 
 3246      206D6F76 
 3246      696E6700 
 3247              		.section	.rodata.exploration.str1.4,"aMS",%progbits,1
 3248              		.align	2
 3249              	.LC2:
 3250 0000 456E7465 		.ascii	"Entering exploration thread\000"
 3250      72696E67 
 3250      20657870 
 3250      6C6F7261 
 3250      74696F6E 
 3251              		.text
 3252              	.Letext0:
 3253              		.file 6 "/Applications/Eclipse_e-puck2.app/Contents/Eclipse_e-puck2/Tools/gcc-arm-none-eabi-7-2017
 3254              		.file 7 "/Applications/Eclipse_e-puck2.app/Contents/Eclipse_e-puck2/Tools/gcc-arm-none-eabi-7-2017
 3255              		.file 8 "/Applications/Eclipse_e-puck2.app/Contents/Eclipse_e-puck2/Tools/gcc-arm-none-eabi-7-2017
 3256              		.file 9 "/Applications/Eclipse_e-puck2.app/Contents/Eclipse_e-puck2/Tools/gcc-arm-none-eabi-7-2017
 3257              		.file 10 "/Applications/Eclipse_e-puck2.app/Contents/Eclipse_e-puck2/Tools/gcc-arm-none-eabi-7-201
 3258              		.file 11 "/Applications/Eclipse_e-puck2.app/Contents/Eclipse_e-puck2/Tools/gcc-arm-none-eabi-7-201
 3259              		.file 12 "modules/headers/structs.h"
 3260              		.file 13 "modules/headers/mod_mapping.h"
 3261              		.file 14 "/Applications/Eclipse_e-puck2.app/Contents/Eclipse_e-puck2/Tools/gcc-arm-none-eabi-7-201
 3262              		.file 15 "/Applications/Eclipse_e-puck2.app/Contents/Eclipse_e-puck2/Tools/gcc-arm-none-eabi-7-201
 3263              		.file 16 "lib/e-puck2_main-processor/ChibiOS//os/rt/ports/ARMCMx/compilers/GCC/chtypes.h"
 3264              		.file 17 "lib/e-puck2_main-processor/ChibiOS//os/rt/include/chsystypes.h"
 3265              		.file 18 "lib/e-puck2_main-processor/ChibiOS//os/rt/include/chschd.h"
 3266              		.file 19 "lib/e-puck2_main-processor/ChibiOS//os/ext/CMSIS/include/core_cm4.h"
 3267              		.file 20 "lib/e-puck2_main-processor/ChibiOS//os/ext/CMSIS/ST/system_stm32f4xx.h"
 3268              		.file 21 "lib/e-puck2_main-processor/ChibiOS//os/ext/CMSIS/ST/stm32f407xx.h"
 3269              		.file 22 "lib/e-puck2_main-processor/ChibiOS//os/rt/ports/ARMCMx/chcore.h"
 3270              		.file 23 "lib/e-puck2_main-processor/ChibiOS//os/rt/ports/ARMCMx/chcore_v7m.h"
 3271              		.file 24 "lib/e-puck2_main-processor/ChibiOS//os/rt/include/chdebug.h"
 3272              		.file 25 "lib/e-puck2_main-processor/ChibiOS//os/rt/include/chtm.h"
ARM GAS  /var/folders/qd/4mxf5pkd0zdf0b9dd1hp39180000gn/T//cc0H01tt.s 			page 59


 3273              		.file 26 "lib/e-puck2_main-processor/ChibiOS//os/rt/include/chstats.h"
 3274              		.file 27 "lib/e-puck2_main-processor/ChibiOS//os/rt/include/chsem.h"
 3275              		.file 28 "lib/e-puck2_main-processor/ChibiOS//os/rt/include/chmtx.h"
 3276              		.file 29 "lib/e-puck2_main-processor/ChibiOS//os/rt/include/chregistry.h"
 3277              		.file 30 "lib/e-puck2_main-processor/ChibiOS//os/rt/include/chevents.h"
 3278              		.file 31 "lib/e-puck2_main-processor/ChibiOS//os/rt/include/chqueues.h"
 3279              		.file 32 "modules/headers/mod_sensors.h"
 3280              		.file 33 "lib/e-puck2_main-processor/ChibiOS//os/hal/ports/STM32/STM32F4xx/stm32_dma.h"
 3281              		.file 34 "modules/headers/mod_communication.h"
 3282              		.file 35 "lib/e-puck2_main-processor/ChibiOS//os/hal/include/hal_ioblock.h"
 3283              		.file 36 "lib/e-puck2_main-processor/ChibiOS//os/hal/ports/STM32/LLD/GPIOv2/pal_lld.h"
 3284              		.file 37 "lib/e-puck2_main-processor/ChibiOS//os/hal/include/adc.h"
 3285              		.file 38 "lib/e-puck2_main-processor/ChibiOS//os/hal/ports/STM32/STM32F4xx/adc_lld.h"
 3286              		.file 39 "lib/e-puck2_main-processor/ChibiOS//os/hal/include/can.h"
 3287              		.file 40 "lib/e-puck2_main-processor/ChibiOS//os/hal/ports/STM32/LLD/can_lld.h"
 3288              		.file 41 "lib/e-puck2_main-processor/ChibiOS//os/hal/include/dac.h"
 3289              		.file 42 "lib/e-puck2_main-processor/ChibiOS//os/hal/ports/STM32/LLD/DACv1/dac_lld.h"
 3290              		.file 43 "lib/e-puck2_main-processor/ChibiOS//os/hal/include/ext.h"
 3291              		.file 44 "lib/e-puck2_main-processor/ChibiOS//os/hal/ports/STM32/LLD/ext_lld.h"
 3292              		.file 45 "lib/e-puck2_main-processor/ChibiOS//os/hal/include/gpt.h"
 3293              		.file 46 "lib/e-puck2_main-processor/ChibiOS//os/hal/ports/STM32/LLD/TIMv1/gpt_lld.h"
 3294              		.file 47 "lib/e-puck2_main-processor/ChibiOS//os/hal/ports/STM32/LLD/TIMv1/stm32_tim.h"
 3295              		.file 48 "lib/e-puck2_main-processor/ChibiOS//os/hal/include/i2c.h"
 3296              		.file 49 "lib/e-puck2_main-processor/ChibiOS//os/hal/ports/STM32/LLD/I2Cv1/i2c_lld.h"
 3297              		.file 50 "lib/e-puck2_main-processor/ChibiOS//os/hal/include/i2s.h"
 3298              		.file 51 "lib/e-puck2_main-processor/ChibiOS//os/hal/ports/STM32/LLD/SPIv1/i2s_lld.h"
 3299              		.file 52 "lib/e-puck2_main-processor/ChibiOS//os/hal/include/pwm.h"
 3300              		.file 53 "lib/e-puck2_main-processor/ChibiOS//os/hal/ports/STM32/LLD/TIMv1/pwm_lld.h"
 3301              		.file 54 "lib/e-puck2_main-processor/ChibiOS//os/hal/include/serial.h"
 3302              		.file 55 "lib/e-puck2_main-processor/ChibiOS//os/hal/ports/STM32/LLD/USARTv1/serial_lld.h"
 3303              		.file 56 "lib/e-puck2_main-processor/ChibiOS//os/hal/include/sdc.h"
 3304              		.file 57 "lib/e-puck2_main-processor/ChibiOS//os/hal/ports/STM32/LLD/sdc_lld.h"
 3305              		.file 58 "lib/e-puck2_main-processor/ChibiOS//os/hal/include/spi.h"
 3306              		.file 59 "lib/e-puck2_main-processor/ChibiOS//os/hal/ports/STM32/LLD/SPIv1/spi_lld.h"
 3307              		.file 60 "lib/e-puck2_main-processor/ChibiOS//os/hal/include/usb.h"
 3308              		.file 61 "lib/e-puck2_main-processor/ChibiOS//os/hal/ports/STM32/LLD/OTGv1/usb_lld.h"
 3309              		.file 62 "lib/e-puck2_main-processor/ChibiOS//os/hal/ports/STM32/LLD/OTGv1/stm32_otg.h"
 3310              		.file 63 "lib/e-puck2_main-processor/ChibiOS//os/rt/include/chmsg.h"
 3311              		.file 64 "lib/e-puck2_main-processor/ChibiOS//os/rt/include/chthreads.h"
 3312              		.file 65 "modules/headers/mod_motors.h"
 3313              		.file 66 "modules/headers/mod_check.h"
 3314              		.section	.debug_info,"",%progbits
 3315              	.Ldebug_info0:
 3316 0000 9E5A0000 		.4byte	0x5a9e
 3317 0004 0400     		.2byte	0x4
 3318 0006 00000000 		.4byte	.Ldebug_abbrev0
 3319 000a 04       		.byte	0x4
 3320 000b 01       		.uleb128 0x1
 3321 000c BB100000 		.4byte	.LASF953
 3322 0010 0C       		.byte	0xc
 3323 0011 FC150000 		.4byte	.LASF954
 3324 0015 7C0C0000 		.4byte	.LASF955
 3325 0019 A8030000 		.4byte	.Ldebug_ranges0+0x3a8
 3326 001d 00000000 		.4byte	0
 3327 0021 00000000 		.4byte	.Ldebug_line0
 3328 0025 02       		.uleb128 0x2
 3329 0026 08       		.byte	0x8
ARM GAS  /var/folders/qd/4mxf5pkd0zdf0b9dd1hp39180000gn/T//cc0H01tt.s 			page 60


 3330 0027 07       		.byte	0x7
 3331 0028 3B230000 		.4byte	.LASF0
 3332 002c 02       		.uleb128 0x2
 3333 002d 04       		.byte	0x4
 3334 002e 07       		.byte	0x7
 3335 002f A0280000 		.4byte	.LASF1
 3336 0033 02       		.uleb128 0x2
 3337 0034 08       		.byte	0x8
 3338 0035 04       		.byte	0x4
 3339 0036 C2200000 		.4byte	.LASF2
 3340 003a 02       		.uleb128 0x2
 3341 003b 04       		.byte	0x4
 3342 003c 04       		.byte	0x4
 3343 003d E80A0000 		.4byte	.LASF3
 3344 0041 03       		.uleb128 0x3
 3345 0042 04       		.byte	0x4
 3346 0043 05       		.byte	0x5
 3347 0044 696E7400 		.ascii	"int\000"
 3348 0048 04       		.uleb128 0x4
 3349 0049 AF0E0000 		.4byte	.LASF7
 3350 004d 06       		.byte	0x6
 3351 004e D8       		.byte	0xd8
 3352 004f 2C000000 		.4byte	0x2c
 3353 0053 02       		.uleb128 0x2
 3354 0054 08       		.byte	0x8
 3355 0055 05       		.byte	0x5
 3356 0056 0B260000 		.4byte	.LASF4
 3357 005a 02       		.uleb128 0x2
 3358 005b 08       		.byte	0x8
 3359 005c 04       		.byte	0x4
 3360 005d 701C0000 		.4byte	.LASF5
 3361 0061 02       		.uleb128 0x2
 3362 0062 01       		.byte	0x1
 3363 0063 06       		.byte	0x6
 3364 0064 B5170000 		.4byte	.LASF6
 3365 0068 04       		.uleb128 0x4
 3366 0069 FC000000 		.4byte	.LASF8
 3367 006d 07       		.byte	0x7
 3368 006e 2B       		.byte	0x2b
 3369 006f 73000000 		.4byte	0x73
 3370 0073 02       		.uleb128 0x2
 3371 0074 01       		.byte	0x1
 3372 0075 08       		.byte	0x8
 3373 0076 630A0000 		.4byte	.LASF9
 3374 007a 04       		.uleb128 0x4
 3375 007b 7E080000 		.4byte	.LASF10
 3376 007f 07       		.byte	0x7
 3377 0080 37       		.byte	0x37
 3378 0081 85000000 		.4byte	0x85
 3379 0085 02       		.uleb128 0x2
 3380 0086 02       		.byte	0x2
 3381 0087 05       		.byte	0x5
 3382 0088 0C290000 		.4byte	.LASF11
 3383 008c 04       		.uleb128 0x4
 3384 008d 88080000 		.4byte	.LASF12
 3385 0091 07       		.byte	0x7
 3386 0092 39       		.byte	0x39
ARM GAS  /var/folders/qd/4mxf5pkd0zdf0b9dd1hp39180000gn/T//cc0H01tt.s 			page 61


 3387 0093 97000000 		.4byte	0x97
 3388 0097 02       		.uleb128 0x2
 3389 0098 02       		.byte	0x2
 3390 0099 07       		.byte	0x7
 3391 009a 9A170000 		.4byte	.LASF13
 3392 009e 04       		.uleb128 0x4
 3393 009f 4D210000 		.4byte	.LASF14
 3394 00a3 07       		.byte	0x7
 3395 00a4 4D       		.byte	0x4d
 3396 00a5 A9000000 		.4byte	0xa9
 3397 00a9 02       		.uleb128 0x2
 3398 00aa 04       		.byte	0x4
 3399 00ab 05       		.byte	0x5
 3400 00ac E11A0000 		.4byte	.LASF15
 3401 00b0 04       		.uleb128 0x4
 3402 00b1 57210000 		.4byte	.LASF16
 3403 00b5 07       		.byte	0x7
 3404 00b6 4F       		.byte	0x4f
 3405 00b7 BB000000 		.4byte	0xbb
 3406 00bb 02       		.uleb128 0x2
 3407 00bc 04       		.byte	0x4
 3408 00bd 07       		.byte	0x7
 3409 00be D71C0000 		.4byte	.LASF17
 3410 00c2 04       		.uleb128 0x4
 3411 00c3 02130000 		.4byte	.LASF18
 3412 00c7 07       		.byte	0x7
 3413 00c8 69       		.byte	0x69
 3414 00c9 25000000 		.4byte	0x25
 3415 00cd 04       		.uleb128 0x4
 3416 00ce 5D080000 		.4byte	.LASF19
 3417 00d2 08       		.byte	0x8
 3418 00d3 22       		.byte	0x22
 3419 00d4 D8000000 		.4byte	0xd8
 3420 00d8 05       		.uleb128 0x5
 3421 00d9 04       		.byte	0x4
 3422 00da DE000000 		.4byte	0xde
 3423 00de 06       		.uleb128 0x6
 3424 00df 24060000 		.4byte	.LASF126
 3425 00e3 04       		.uleb128 0x4
 3426 00e4 7F0E0000 		.4byte	.LASF20
 3427 00e8 09       		.byte	0x9
 3428 00e9 2C       		.byte	0x2c
 3429 00ea A9000000 		.4byte	0xa9
 3430 00ee 04       		.uleb128 0x4
 3431 00ef 65200000 		.4byte	.LASF21
 3432 00f3 09       		.byte	0x9
 3433 00f4 72       		.byte	0x72
 3434 00f5 A9000000 		.4byte	0xa9
 3435 00f9 07       		.uleb128 0x7
 3436 00fa 4A100000 		.4byte	.LASF22
 3437 00fe 06       		.byte	0x6
 3438 00ff 6501     		.2byte	0x165
 3439 0101 2C000000 		.4byte	0x2c
 3440 0105 08       		.uleb128 0x8
 3441 0106 04       		.byte	0x4
 3442 0107 09       		.byte	0x9
 3443 0108 A6       		.byte	0xa6
ARM GAS  /var/folders/qd/4mxf5pkd0zdf0b9dd1hp39180000gn/T//cc0H01tt.s 			page 62


 3444 0109 24010000 		.4byte	0x124
 3445 010d 09       		.uleb128 0x9
 3446 010e 271A0000 		.4byte	.LASF23
 3447 0112 09       		.byte	0x9
 3448 0113 A8       		.byte	0xa8
 3449 0114 F9000000 		.4byte	0xf9
 3450 0118 09       		.uleb128 0x9
 3451 0119 F80F0000 		.4byte	.LASF24
 3452 011d 09       		.byte	0x9
 3453 011e A9       		.byte	0xa9
 3454 011f 24010000 		.4byte	0x124
 3455 0123 00       		.byte	0
 3456 0124 0A       		.uleb128 0xa
 3457 0125 73000000 		.4byte	0x73
 3458 0129 34010000 		.4byte	0x134
 3459 012d 0B       		.uleb128 0xb
 3460 012e 2C000000 		.4byte	0x2c
 3461 0132 03       		.byte	0x3
 3462 0133 00       		.byte	0
 3463 0134 0C       		.uleb128 0xc
 3464 0135 08       		.byte	0x8
 3465 0136 09       		.byte	0x9
 3466 0137 A3       		.byte	0xa3
 3467 0138 55010000 		.4byte	0x155
 3468 013c 0D       		.uleb128 0xd
 3469 013d CE0E0000 		.4byte	.LASF25
 3470 0141 09       		.byte	0x9
 3471 0142 A5       		.byte	0xa5
 3472 0143 41000000 		.4byte	0x41
 3473 0147 00       		.byte	0
 3474 0148 0D       		.uleb128 0xd
 3475 0149 9A210000 		.4byte	.LASF26
 3476 014d 09       		.byte	0x9
 3477 014e AA       		.byte	0xaa
 3478 014f 05010000 		.4byte	0x105
 3479 0153 04       		.byte	0x4
 3480 0154 00       		.byte	0
 3481 0155 04       		.uleb128 0x4
 3482 0156 FE200000 		.4byte	.LASF27
 3483 015a 09       		.byte	0x9
 3484 015b AB       		.byte	0xab
 3485 015c 34010000 		.4byte	0x134
 3486 0160 04       		.uleb128 0x4
 3487 0161 4D250000 		.4byte	.LASF28
 3488 0165 09       		.byte	0x9
 3489 0166 AF       		.byte	0xaf
 3490 0167 CD000000 		.4byte	0xcd
 3491 016b 0E       		.uleb128 0xe
 3492 016c 04       		.byte	0x4
 3493 016d 05       		.uleb128 0x5
 3494 016e 04       		.byte	0x4
 3495 016f 73010000 		.4byte	0x173
 3496 0173 02       		.uleb128 0x2
 3497 0174 01       		.byte	0x1
 3498 0175 08       		.byte	0x8
 3499 0176 7C1D0000 		.4byte	.LASF29
 3500 017a 0F       		.uleb128 0xf
ARM GAS  /var/folders/qd/4mxf5pkd0zdf0b9dd1hp39180000gn/T//cc0H01tt.s 			page 63


 3501 017b 73010000 		.4byte	0x173
 3502 017f 04       		.uleb128 0x4
 3503 0180 43160000 		.4byte	.LASF30
 3504 0184 0A       		.byte	0xa
 3505 0185 16       		.byte	0x16
 3506 0186 BB000000 		.4byte	0xbb
 3507 018a 10       		.uleb128 0x10
 3508 018b 531E0000 		.4byte	.LASF35
 3509 018f 18       		.byte	0x18
 3510 0190 0A       		.byte	0xa
 3511 0191 2F       		.byte	0x2f
 3512 0192 DD010000 		.4byte	0x1dd
 3513 0196 0D       		.uleb128 0xd
 3514 0197 0D130000 		.4byte	.LASF31
 3515 019b 0A       		.byte	0xa
 3516 019c 31       		.byte	0x31
 3517 019d DD010000 		.4byte	0x1dd
 3518 01a1 00       		.byte	0
 3519 01a2 11       		.uleb128 0x11
 3520 01a3 5F6B00   		.ascii	"_k\000"
 3521 01a6 0A       		.byte	0xa
 3522 01a7 32       		.byte	0x32
 3523 01a8 41000000 		.4byte	0x41
 3524 01ac 04       		.byte	0x4
 3525 01ad 0D       		.uleb128 0xd
 3526 01ae 411C0000 		.4byte	.LASF32
 3527 01b2 0A       		.byte	0xa
 3528 01b3 32       		.byte	0x32
 3529 01b4 41000000 		.4byte	0x41
 3530 01b8 08       		.byte	0x8
 3531 01b9 0D       		.uleb128 0xd
 3532 01ba 33280000 		.4byte	.LASF33
 3533 01be 0A       		.byte	0xa
 3534 01bf 32       		.byte	0x32
 3535 01c0 41000000 		.4byte	0x41
 3536 01c4 0C       		.byte	0xc
 3537 01c5 0D       		.uleb128 0xd
 3538 01c6 E30A0000 		.4byte	.LASF34
 3539 01ca 0A       		.byte	0xa
 3540 01cb 32       		.byte	0x32
 3541 01cc 41000000 		.4byte	0x41
 3542 01d0 10       		.byte	0x10
 3543 01d1 11       		.uleb128 0x11
 3544 01d2 5F7800   		.ascii	"_x\000"
 3545 01d5 0A       		.byte	0xa
 3546 01d6 33       		.byte	0x33
 3547 01d7 E3010000 		.4byte	0x1e3
 3548 01db 14       		.byte	0x14
 3549 01dc 00       		.byte	0
 3550 01dd 05       		.uleb128 0x5
 3551 01de 04       		.byte	0x4
 3552 01df 8A010000 		.4byte	0x18a
 3553 01e3 0A       		.uleb128 0xa
 3554 01e4 7F010000 		.4byte	0x17f
 3555 01e8 F3010000 		.4byte	0x1f3
 3556 01ec 0B       		.uleb128 0xb
 3557 01ed 2C000000 		.4byte	0x2c
ARM GAS  /var/folders/qd/4mxf5pkd0zdf0b9dd1hp39180000gn/T//cc0H01tt.s 			page 64


 3558 01f1 00       		.byte	0
 3559 01f2 00       		.byte	0
 3560 01f3 10       		.uleb128 0x10
 3561 01f4 72070000 		.4byte	.LASF36
 3562 01f8 24       		.byte	0x24
 3563 01f9 0A       		.byte	0xa
 3564 01fa 37       		.byte	0x37
 3565 01fb 6C020000 		.4byte	0x26c
 3566 01ff 0D       		.uleb128 0xd
 3567 0200 89140000 		.4byte	.LASF37
 3568 0204 0A       		.byte	0xa
 3569 0205 39       		.byte	0x39
 3570 0206 41000000 		.4byte	0x41
 3571 020a 00       		.byte	0
 3572 020b 0D       		.uleb128 0xd
 3573 020c 4C280000 		.4byte	.LASF38
 3574 0210 0A       		.byte	0xa
 3575 0211 3A       		.byte	0x3a
 3576 0212 41000000 		.4byte	0x41
 3577 0216 04       		.byte	0x4
 3578 0217 0D       		.uleb128 0xd
 3579 0218 19100000 		.4byte	.LASF39
 3580 021c 0A       		.byte	0xa
 3581 021d 3B       		.byte	0x3b
 3582 021e 41000000 		.4byte	0x41
 3583 0222 08       		.byte	0x8
 3584 0223 0D       		.uleb128 0xd
 3585 0224 2E120000 		.4byte	.LASF40
 3586 0228 0A       		.byte	0xa
 3587 0229 3C       		.byte	0x3c
 3588 022a 41000000 		.4byte	0x41
 3589 022e 0C       		.byte	0xc
 3590 022f 0D       		.uleb128 0xd
 3591 0230 D1010000 		.4byte	.LASF41
 3592 0234 0A       		.byte	0xa
 3593 0235 3D       		.byte	0x3d
 3594 0236 41000000 		.4byte	0x41
 3595 023a 10       		.byte	0x10
 3596 023b 0D       		.uleb128 0xd
 3597 023c FF0B0000 		.4byte	.LASF42
 3598 0240 0A       		.byte	0xa
 3599 0241 3E       		.byte	0x3e
 3600 0242 41000000 		.4byte	0x41
 3601 0246 14       		.byte	0x14
 3602 0247 0D       		.uleb128 0xd
 3603 0248 CC090000 		.4byte	.LASF43
 3604 024c 0A       		.byte	0xa
 3605 024d 3F       		.byte	0x3f
 3606 024e 41000000 		.4byte	0x41
 3607 0252 18       		.byte	0x18
 3608 0253 0D       		.uleb128 0xd
 3609 0254 EE070000 		.4byte	.LASF44
 3610 0258 0A       		.byte	0xa
 3611 0259 40       		.byte	0x40
 3612 025a 41000000 		.4byte	0x41
 3613 025e 1C       		.byte	0x1c
 3614 025f 0D       		.uleb128 0xd
ARM GAS  /var/folders/qd/4mxf5pkd0zdf0b9dd1hp39180000gn/T//cc0H01tt.s 			page 65


 3615 0260 D6090000 		.4byte	.LASF45
 3616 0264 0A       		.byte	0xa
 3617 0265 41       		.byte	0x41
 3618 0266 41000000 		.4byte	0x41
 3619 026a 20       		.byte	0x20
 3620 026b 00       		.byte	0
 3621 026c 12       		.uleb128 0x12
 3622 026d BF140000 		.4byte	.LASF46
 3623 0271 0801     		.2byte	0x108
 3624 0273 0A       		.byte	0xa
 3625 0274 4A       		.byte	0x4a
 3626 0275 AC020000 		.4byte	0x2ac
 3627 0279 0D       		.uleb128 0xd
 3628 027a 71120000 		.4byte	.LASF47
 3629 027e 0A       		.byte	0xa
 3630 027f 4B       		.byte	0x4b
 3631 0280 AC020000 		.4byte	0x2ac
 3632 0284 00       		.byte	0
 3633 0285 0D       		.uleb128 0xd
 3634 0286 86090000 		.4byte	.LASF48
 3635 028a 0A       		.byte	0xa
 3636 028b 4C       		.byte	0x4c
 3637 028c AC020000 		.4byte	0x2ac
 3638 0290 80       		.byte	0x80
 3639 0291 13       		.uleb128 0x13
 3640 0292 DA010000 		.4byte	.LASF49
 3641 0296 0A       		.byte	0xa
 3642 0297 4E       		.byte	0x4e
 3643 0298 7F010000 		.4byte	0x17f
 3644 029c 0001     		.2byte	0x100
 3645 029e 13       		.uleb128 0x13
 3646 029f B8210000 		.4byte	.LASF50
 3647 02a3 0A       		.byte	0xa
 3648 02a4 51       		.byte	0x51
 3649 02a5 7F010000 		.4byte	0x17f
 3650 02a9 0401     		.2byte	0x104
 3651 02ab 00       		.byte	0
 3652 02ac 0A       		.uleb128 0xa
 3653 02ad 6B010000 		.4byte	0x16b
 3654 02b1 BC020000 		.4byte	0x2bc
 3655 02b5 0B       		.uleb128 0xb
 3656 02b6 2C000000 		.4byte	0x2c
 3657 02ba 1F       		.byte	0x1f
 3658 02bb 00       		.byte	0
 3659 02bc 12       		.uleb128 0x12
 3660 02bd 66010000 		.4byte	.LASF51
 3661 02c1 9001     		.2byte	0x190
 3662 02c3 0A       		.byte	0xa
 3663 02c4 5D       		.byte	0x5d
 3664 02c5 FA020000 		.4byte	0x2fa
 3665 02c9 0D       		.uleb128 0xd
 3666 02ca 0D130000 		.4byte	.LASF31
 3667 02ce 0A       		.byte	0xa
 3668 02cf 5E       		.byte	0x5e
 3669 02d0 FA020000 		.4byte	0x2fa
 3670 02d4 00       		.byte	0
 3671 02d5 0D       		.uleb128 0xd
ARM GAS  /var/folders/qd/4mxf5pkd0zdf0b9dd1hp39180000gn/T//cc0H01tt.s 			page 66


 3672 02d6 0C020000 		.4byte	.LASF52
 3673 02da 0A       		.byte	0xa
 3674 02db 5F       		.byte	0x5f
 3675 02dc 41000000 		.4byte	0x41
 3676 02e0 04       		.byte	0x4
 3677 02e1 0D       		.uleb128 0xd
 3678 02e2 C9200000 		.4byte	.LASF53
 3679 02e6 0A       		.byte	0xa
 3680 02e7 61       		.byte	0x61
 3681 02e8 00030000 		.4byte	0x300
 3682 02ec 08       		.byte	0x8
 3683 02ed 0D       		.uleb128 0xd
 3684 02ee BF140000 		.4byte	.LASF46
 3685 02f2 0A       		.byte	0xa
 3686 02f3 62       		.byte	0x62
 3687 02f4 6C020000 		.4byte	0x26c
 3688 02f8 88       		.byte	0x88
 3689 02f9 00       		.byte	0
 3690 02fa 05       		.uleb128 0x5
 3691 02fb 04       		.byte	0x4
 3692 02fc BC020000 		.4byte	0x2bc
 3693 0300 0A       		.uleb128 0xa
 3694 0301 10030000 		.4byte	0x310
 3695 0305 10030000 		.4byte	0x310
 3696 0309 0B       		.uleb128 0xb
 3697 030a 2C000000 		.4byte	0x2c
 3698 030e 1F       		.byte	0x1f
 3699 030f 00       		.byte	0
 3700 0310 05       		.uleb128 0x5
 3701 0311 04       		.byte	0x4
 3702 0312 16030000 		.4byte	0x316
 3703 0316 14       		.uleb128 0x14
 3704 0317 10       		.uleb128 0x10
 3705 0318 55190000 		.4byte	.LASF54
 3706 031c 08       		.byte	0x8
 3707 031d 0A       		.byte	0xa
 3708 031e 75       		.byte	0x75
 3709 031f 3C030000 		.4byte	0x33c
 3710 0323 0D       		.uleb128 0xd
 3711 0324 9B060000 		.4byte	.LASF55
 3712 0328 0A       		.byte	0xa
 3713 0329 76       		.byte	0x76
 3714 032a 3C030000 		.4byte	0x33c
 3715 032e 00       		.byte	0
 3716 032f 0D       		.uleb128 0xd
 3717 0330 0C0B0000 		.4byte	.LASF56
 3718 0334 0A       		.byte	0xa
 3719 0335 77       		.byte	0x77
 3720 0336 41000000 		.4byte	0x41
 3721 033a 04       		.byte	0x4
 3722 033b 00       		.byte	0
 3723 033c 05       		.uleb128 0x5
 3724 033d 04       		.byte	0x4
 3725 033e 73000000 		.4byte	0x73
 3726 0342 10       		.uleb128 0x10
 3727 0343 BA200000 		.4byte	.LASF57
 3728 0347 68       		.byte	0x68
ARM GAS  /var/folders/qd/4mxf5pkd0zdf0b9dd1hp39180000gn/T//cc0H01tt.s 			page 67


 3729 0348 0A       		.byte	0xa
 3730 0349 B5       		.byte	0xb5
 3731 034a 6C040000 		.4byte	0x46c
 3732 034e 11       		.uleb128 0x11
 3733 034f 5F7000   		.ascii	"_p\000"
 3734 0352 0A       		.byte	0xa
 3735 0353 B6       		.byte	0xb6
 3736 0354 3C030000 		.4byte	0x33c
 3737 0358 00       		.byte	0
 3738 0359 11       		.uleb128 0x11
 3739 035a 5F7200   		.ascii	"_r\000"
 3740 035d 0A       		.byte	0xa
 3741 035e B7       		.byte	0xb7
 3742 035f 41000000 		.4byte	0x41
 3743 0363 04       		.byte	0x4
 3744 0364 11       		.uleb128 0x11
 3745 0365 5F7700   		.ascii	"_w\000"
 3746 0368 0A       		.byte	0xa
 3747 0369 B8       		.byte	0xb8
 3748 036a 41000000 		.4byte	0x41
 3749 036e 08       		.byte	0x8
 3750 036f 0D       		.uleb128 0xd
 3751 0370 5C020000 		.4byte	.LASF58
 3752 0374 0A       		.byte	0xa
 3753 0375 B9       		.byte	0xb9
 3754 0376 85000000 		.4byte	0x85
 3755 037a 0C       		.byte	0xc
 3756 037b 0D       		.uleb128 0xd
 3757 037c 82200000 		.4byte	.LASF59
 3758 0380 0A       		.byte	0xa
 3759 0381 BA       		.byte	0xba
 3760 0382 85000000 		.4byte	0x85
 3761 0386 0E       		.byte	0xe
 3762 0387 11       		.uleb128 0x11
 3763 0388 5F626600 		.ascii	"_bf\000"
 3764 038c 0A       		.byte	0xa
 3765 038d BB       		.byte	0xbb
 3766 038e 17030000 		.4byte	0x317
 3767 0392 10       		.byte	0x10
 3768 0393 0D       		.uleb128 0xd
 3769 0394 FC040000 		.4byte	.LASF60
 3770 0398 0A       		.byte	0xa
 3771 0399 BC       		.byte	0xbc
 3772 039a 41000000 		.4byte	0x41
 3773 039e 18       		.byte	0x18
 3774 039f 0D       		.uleb128 0xd
 3775 03a0 53130000 		.4byte	.LASF61
 3776 03a4 0A       		.byte	0xa
 3777 03a5 C3       		.byte	0xc3
 3778 03a6 6B010000 		.4byte	0x16b
 3779 03aa 1C       		.byte	0x1c
 3780 03ab 0D       		.uleb128 0xd
 3781 03ac 2E290000 		.4byte	.LASF62
 3782 03b0 0A       		.byte	0xa
 3783 03b1 C5       		.byte	0xc5
 3784 03b2 C7050000 		.4byte	0x5c7
 3785 03b6 20       		.byte	0x20
ARM GAS  /var/folders/qd/4mxf5pkd0zdf0b9dd1hp39180000gn/T//cc0H01tt.s 			page 68


 3786 03b7 0D       		.uleb128 0xd
 3787 03b8 660B0000 		.4byte	.LASF63
 3788 03bc 0A       		.byte	0xa
 3789 03bd C7       		.byte	0xc7
 3790 03be F6050000 		.4byte	0x5f6
 3791 03c2 24       		.byte	0x24
 3792 03c3 0D       		.uleb128 0xd
 3793 03c4 5C170000 		.4byte	.LASF64
 3794 03c8 0A       		.byte	0xa
 3795 03c9 CA       		.byte	0xca
 3796 03ca 1A060000 		.4byte	0x61a
 3797 03ce 28       		.byte	0x28
 3798 03cf 0D       		.uleb128 0xd
 3799 03d0 751D0000 		.4byte	.LASF65
 3800 03d4 0A       		.byte	0xa
 3801 03d5 CB       		.byte	0xcb
 3802 03d6 34060000 		.4byte	0x634
 3803 03da 2C       		.byte	0x2c
 3804 03db 11       		.uleb128 0x11
 3805 03dc 5F756200 		.ascii	"_ub\000"
 3806 03e0 0A       		.byte	0xa
 3807 03e1 CE       		.byte	0xce
 3808 03e2 17030000 		.4byte	0x317
 3809 03e6 30       		.byte	0x30
 3810 03e7 11       		.uleb128 0x11
 3811 03e8 5F757000 		.ascii	"_up\000"
 3812 03ec 0A       		.byte	0xa
 3813 03ed CF       		.byte	0xcf
 3814 03ee 3C030000 		.4byte	0x33c
 3815 03f2 38       		.byte	0x38
 3816 03f3 11       		.uleb128 0x11
 3817 03f4 5F757200 		.ascii	"_ur\000"
 3818 03f8 0A       		.byte	0xa
 3819 03f9 D0       		.byte	0xd0
 3820 03fa 41000000 		.4byte	0x41
 3821 03fe 3C       		.byte	0x3c
 3822 03ff 0D       		.uleb128 0xd
 3823 0400 BC1F0000 		.4byte	.LASF66
 3824 0404 0A       		.byte	0xa
 3825 0405 D3       		.byte	0xd3
 3826 0406 3A060000 		.4byte	0x63a
 3827 040a 40       		.byte	0x40
 3828 040b 0D       		.uleb128 0xd
 3829 040c 0D030000 		.4byte	.LASF67
 3830 0410 0A       		.byte	0xa
 3831 0411 D4       		.byte	0xd4
 3832 0412 4A060000 		.4byte	0x64a
 3833 0416 43       		.byte	0x43
 3834 0417 11       		.uleb128 0x11
 3835 0418 5F6C6200 		.ascii	"_lb\000"
 3836 041c 0A       		.byte	0xa
 3837 041d D7       		.byte	0xd7
 3838 041e 17030000 		.4byte	0x317
 3839 0422 44       		.byte	0x44
 3840 0423 0D       		.uleb128 0xd
 3841 0424 AA1F0000 		.4byte	.LASF68
 3842 0428 0A       		.byte	0xa
ARM GAS  /var/folders/qd/4mxf5pkd0zdf0b9dd1hp39180000gn/T//cc0H01tt.s 			page 69


 3843 0429 DA       		.byte	0xda
 3844 042a 41000000 		.4byte	0x41
 3845 042e 4C       		.byte	0x4c
 3846 042f 0D       		.uleb128 0xd
 3847 0430 E9180000 		.4byte	.LASF69
 3848 0434 0A       		.byte	0xa
 3849 0435 DB       		.byte	0xdb
 3850 0436 E3000000 		.4byte	0xe3
 3851 043a 50       		.byte	0x50
 3852 043b 0D       		.uleb128 0xd
 3853 043c 7E050000 		.4byte	.LASF70
 3854 0440 0A       		.byte	0xa
 3855 0441 DE       		.byte	0xde
 3856 0442 8A040000 		.4byte	0x48a
 3857 0446 54       		.byte	0x54
 3858 0447 0D       		.uleb128 0xd
 3859 0448 07030000 		.4byte	.LASF71
 3860 044c 0A       		.byte	0xa
 3861 044d E2       		.byte	0xe2
 3862 044e 60010000 		.4byte	0x160
 3863 0452 58       		.byte	0x58
 3864 0453 0D       		.uleb128 0xd
 3865 0454 5D010000 		.4byte	.LASF72
 3866 0458 0A       		.byte	0xa
 3867 0459 E4       		.byte	0xe4
 3868 045a 55010000 		.4byte	0x155
 3869 045e 5C       		.byte	0x5c
 3870 045f 0D       		.uleb128 0xd
 3871 0460 3B260000 		.4byte	.LASF73
 3872 0464 0A       		.byte	0xa
 3873 0465 E5       		.byte	0xe5
 3874 0466 41000000 		.4byte	0x41
 3875 046a 64       		.byte	0x64
 3876 046b 00       		.byte	0
 3877 046c 15       		.uleb128 0x15
 3878 046d 41000000 		.4byte	0x41
 3879 0471 8A040000 		.4byte	0x48a
 3880 0475 16       		.uleb128 0x16
 3881 0476 8A040000 		.4byte	0x48a
 3882 047a 16       		.uleb128 0x16
 3883 047b 6B010000 		.4byte	0x16b
 3884 047f 16       		.uleb128 0x16
 3885 0480 6D010000 		.4byte	0x16d
 3886 0484 16       		.uleb128 0x16
 3887 0485 41000000 		.4byte	0x41
 3888 0489 00       		.byte	0
 3889 048a 05       		.uleb128 0x5
 3890 048b 04       		.byte	0x4
 3891 048c 95040000 		.4byte	0x495
 3892 0490 0F       		.uleb128 0xf
 3893 0491 8A040000 		.4byte	0x48a
 3894 0495 17       		.uleb128 0x17
 3895 0496 3A060000 		.4byte	.LASF74
 3896 049a 2804     		.2byte	0x428
 3897 049c 0A       		.byte	0xa
 3898 049d 3902     		.2byte	0x239
 3899 049f C7050000 		.4byte	0x5c7
ARM GAS  /var/folders/qd/4mxf5pkd0zdf0b9dd1hp39180000gn/T//cc0H01tt.s 			page 70


 3900 04a3 18       		.uleb128 0x18
 3901 04a4 13120000 		.4byte	.LASF75
 3902 04a8 0A       		.byte	0xa
 3903 04a9 3B02     		.2byte	0x23b
 3904 04ab 41000000 		.4byte	0x41
 3905 04af 00       		.byte	0
 3906 04b0 18       		.uleb128 0x18
 3907 04b1 620D0000 		.4byte	.LASF76
 3908 04b5 0A       		.byte	0xa
 3909 04b6 4002     		.2byte	0x240
 3910 04b8 A1060000 		.4byte	0x6a1
 3911 04bc 04       		.byte	0x4
 3912 04bd 18       		.uleb128 0x18
 3913 04be 710A0000 		.4byte	.LASF77
 3914 04c2 0A       		.byte	0xa
 3915 04c3 4002     		.2byte	0x240
 3916 04c5 A1060000 		.4byte	0x6a1
 3917 04c9 08       		.byte	0x8
 3918 04ca 18       		.uleb128 0x18
 3919 04cb 66090000 		.4byte	.LASF78
 3920 04cf 0A       		.byte	0xa
 3921 04d0 4002     		.2byte	0x240
 3922 04d2 A1060000 		.4byte	0x6a1
 3923 04d6 0C       		.byte	0xc
 3924 04d7 18       		.uleb128 0x18
 3925 04d8 07020000 		.4byte	.LASF79
 3926 04dc 0A       		.byte	0xa
 3927 04dd 4202     		.2byte	0x242
 3928 04df 41000000 		.4byte	0x41
 3929 04e3 10       		.byte	0x10
 3930 04e4 18       		.uleb128 0x18
 3931 04e5 9E1B0000 		.4byte	.LASF80
 3932 04e9 0A       		.byte	0xa
 3933 04ea 4302     		.2byte	0x243
 3934 04ec 83080000 		.4byte	0x883
 3935 04f0 14       		.byte	0x14
 3936 04f1 18       		.uleb128 0x18
 3937 04f2 87240000 		.4byte	.LASF81
 3938 04f6 0A       		.byte	0xa
 3939 04f7 4602     		.2byte	0x246
 3940 04f9 41000000 		.4byte	0x41
 3941 04fd 30       		.byte	0x30
 3942 04fe 18       		.uleb128 0x18
 3943 04ff B1260000 		.4byte	.LASF82
 3944 0503 0A       		.byte	0xa
 3945 0504 4702     		.2byte	0x247
 3946 0506 98080000 		.4byte	0x898
 3947 050a 34       		.byte	0x34
 3948 050b 18       		.uleb128 0x18
 3949 050c E6240000 		.4byte	.LASF83
 3950 0510 0A       		.byte	0xa
 3951 0511 4902     		.2byte	0x249
 3952 0513 41000000 		.4byte	0x41
 3953 0517 38       		.byte	0x38
 3954 0518 18       		.uleb128 0x18
 3955 0519 09200000 		.4byte	.LASF84
 3956 051d 0A       		.byte	0xa
ARM GAS  /var/folders/qd/4mxf5pkd0zdf0b9dd1hp39180000gn/T//cc0H01tt.s 			page 71


 3957 051e 4B02     		.2byte	0x24b
 3958 0520 A9080000 		.4byte	0x8a9
 3959 0524 3C       		.byte	0x3c
 3960 0525 18       		.uleb128 0x18
 3961 0526 6E090000 		.4byte	.LASF85
 3962 052a 0A       		.byte	0xa
 3963 052b 4E02     		.2byte	0x24e
 3964 052d DD010000 		.4byte	0x1dd
 3965 0531 40       		.byte	0x40
 3966 0532 18       		.uleb128 0x18
 3967 0533 57090000 		.4byte	.LASF86
 3968 0537 0A       		.byte	0xa
 3969 0538 4F02     		.2byte	0x24f
 3970 053a 41000000 		.4byte	0x41
 3971 053e 44       		.byte	0x44
 3972 053f 18       		.uleb128 0x18
 3973 0540 F2210000 		.4byte	.LASF87
 3974 0544 0A       		.byte	0xa
 3975 0545 5002     		.2byte	0x250
 3976 0547 DD010000 		.4byte	0x1dd
 3977 054b 48       		.byte	0x48
 3978 054c 18       		.uleb128 0x18
 3979 054d 7C180000 		.4byte	.LASF88
 3980 0551 0A       		.byte	0xa
 3981 0552 5102     		.2byte	0x251
 3982 0554 AF080000 		.4byte	0x8af
 3983 0558 4C       		.byte	0x4c
 3984 0559 18       		.uleb128 0x18
 3985 055a 91020000 		.4byte	.LASF89
 3986 055e 0A       		.byte	0xa
 3987 055f 5402     		.2byte	0x254
 3988 0561 41000000 		.4byte	0x41
 3989 0565 50       		.byte	0x50
 3990 0566 18       		.uleb128 0x18
 3991 0567 6F0F0000 		.4byte	.LASF90
 3992 056b 0A       		.byte	0xa
 3993 056c 5502     		.2byte	0x255
 3994 056e 6D010000 		.4byte	0x16d
 3995 0572 54       		.byte	0x54
 3996 0573 18       		.uleb128 0x18
 3997 0574 59100000 		.4byte	.LASF91
 3998 0578 0A       		.byte	0xa
 3999 0579 7802     		.2byte	0x278
 4000 057b 61080000 		.4byte	0x861
 4001 057f 58       		.byte	0x58
 4002 0580 19       		.uleb128 0x19
 4003 0581 66010000 		.4byte	.LASF51
 4004 0585 0A       		.byte	0xa
 4005 0586 7C02     		.2byte	0x27c
 4006 0588 FA020000 		.4byte	0x2fa
 4007 058c 4801     		.2byte	0x148
 4008 058e 19       		.uleb128 0x19
 4009 058f 831E0000 		.4byte	.LASF92
 4010 0593 0A       		.byte	0xa
 4011 0594 7D02     		.2byte	0x27d
 4012 0596 BC020000 		.4byte	0x2bc
 4013 059a 4C01     		.2byte	0x14c
ARM GAS  /var/folders/qd/4mxf5pkd0zdf0b9dd1hp39180000gn/T//cc0H01tt.s 			page 72


 4014 059c 19       		.uleb128 0x19
 4015 059d C1020000 		.4byte	.LASF93
 4016 05a1 0A       		.byte	0xa
 4017 05a2 8102     		.2byte	0x281
 4018 05a4 C0080000 		.4byte	0x8c0
 4019 05a8 DC02     		.2byte	0x2dc
 4020 05aa 19       		.uleb128 0x19
 4021 05ab E71F0000 		.4byte	.LASF94
 4022 05af 0A       		.byte	0xa
 4023 05b0 8602     		.2byte	0x286
 4024 05b2 66060000 		.4byte	0x666
 4025 05b6 E002     		.2byte	0x2e0
 4026 05b8 19       		.uleb128 0x19
 4027 05b9 8D060000 		.4byte	.LASF95
 4028 05bd 0A       		.byte	0xa
 4029 05be 8802     		.2byte	0x288
 4030 05c0 CC080000 		.4byte	0x8cc
 4031 05c4 EC02     		.2byte	0x2ec
 4032 05c6 00       		.byte	0
 4033 05c7 05       		.uleb128 0x5
 4034 05c8 04       		.byte	0x4
 4035 05c9 6C040000 		.4byte	0x46c
 4036 05cd 15       		.uleb128 0x15
 4037 05ce 41000000 		.4byte	0x41
 4038 05d2 EB050000 		.4byte	0x5eb
 4039 05d6 16       		.uleb128 0x16
 4040 05d7 8A040000 		.4byte	0x48a
 4041 05db 16       		.uleb128 0x16
 4042 05dc 6B010000 		.4byte	0x16b
 4043 05e0 16       		.uleb128 0x16
 4044 05e1 EB050000 		.4byte	0x5eb
 4045 05e5 16       		.uleb128 0x16
 4046 05e6 41000000 		.4byte	0x41
 4047 05ea 00       		.byte	0
 4048 05eb 05       		.uleb128 0x5
 4049 05ec 04       		.byte	0x4
 4050 05ed 7A010000 		.4byte	0x17a
 4051 05f1 1A       		.uleb128 0x1a
 4052 05f2 EB050000 		.4byte	0x5eb
 4053 05f6 05       		.uleb128 0x5
 4054 05f7 04       		.byte	0x4
 4055 05f8 CD050000 		.4byte	0x5cd
 4056 05fc 15       		.uleb128 0x15
 4057 05fd EE000000 		.4byte	0xee
 4058 0601 1A060000 		.4byte	0x61a
 4059 0605 16       		.uleb128 0x16
 4060 0606 8A040000 		.4byte	0x48a
 4061 060a 16       		.uleb128 0x16
 4062 060b 6B010000 		.4byte	0x16b
 4063 060f 16       		.uleb128 0x16
 4064 0610 EE000000 		.4byte	0xee
 4065 0614 16       		.uleb128 0x16
 4066 0615 41000000 		.4byte	0x41
 4067 0619 00       		.byte	0
 4068 061a 05       		.uleb128 0x5
 4069 061b 04       		.byte	0x4
 4070 061c FC050000 		.4byte	0x5fc
ARM GAS  /var/folders/qd/4mxf5pkd0zdf0b9dd1hp39180000gn/T//cc0H01tt.s 			page 73


 4071 0620 15       		.uleb128 0x15
 4072 0621 41000000 		.4byte	0x41
 4073 0625 34060000 		.4byte	0x634
 4074 0629 16       		.uleb128 0x16
 4075 062a 8A040000 		.4byte	0x48a
 4076 062e 16       		.uleb128 0x16
 4077 062f 6B010000 		.4byte	0x16b
 4078 0633 00       		.byte	0
 4079 0634 05       		.uleb128 0x5
 4080 0635 04       		.byte	0x4
 4081 0636 20060000 		.4byte	0x620
 4082 063a 0A       		.uleb128 0xa
 4083 063b 73000000 		.4byte	0x73
 4084 063f 4A060000 		.4byte	0x64a
 4085 0643 0B       		.uleb128 0xb
 4086 0644 2C000000 		.4byte	0x2c
 4087 0648 02       		.byte	0x2
 4088 0649 00       		.byte	0
 4089 064a 0A       		.uleb128 0xa
 4090 064b 73000000 		.4byte	0x73
 4091 064f 5A060000 		.4byte	0x65a
 4092 0653 0B       		.uleb128 0xb
 4093 0654 2C000000 		.4byte	0x2c
 4094 0658 00       		.byte	0
 4095 0659 00       		.byte	0
 4096 065a 07       		.uleb128 0x7
 4097 065b EC270000 		.4byte	.LASF96
 4098 065f 0A       		.byte	0xa
 4099 0660 1F01     		.2byte	0x11f
 4100 0662 42030000 		.4byte	0x342
 4101 0666 1B       		.uleb128 0x1b
 4102 0667 9A1D0000 		.4byte	.LASF97
 4103 066b 0C       		.byte	0xc
 4104 066c 0A       		.byte	0xa
 4105 066d 2301     		.2byte	0x123
 4106 066f 9B060000 		.4byte	0x69b
 4107 0673 18       		.uleb128 0x18
 4108 0674 0D130000 		.4byte	.LASF31
 4109 0678 0A       		.byte	0xa
 4110 0679 2501     		.2byte	0x125
 4111 067b 9B060000 		.4byte	0x69b
 4112 067f 00       		.byte	0
 4113 0680 18       		.uleb128 0x18
 4114 0681 88100000 		.4byte	.LASF98
 4115 0685 0A       		.byte	0xa
 4116 0686 2601     		.2byte	0x126
 4117 0688 41000000 		.4byte	0x41
 4118 068c 04       		.byte	0x4
 4119 068d 18       		.uleb128 0x18
 4120 068e 981B0000 		.4byte	.LASF99
 4121 0692 0A       		.byte	0xa
 4122 0693 2701     		.2byte	0x127
 4123 0695 A1060000 		.4byte	0x6a1
 4124 0699 08       		.byte	0x8
 4125 069a 00       		.byte	0
 4126 069b 05       		.uleb128 0x5
 4127 069c 04       		.byte	0x4
ARM GAS  /var/folders/qd/4mxf5pkd0zdf0b9dd1hp39180000gn/T//cc0H01tt.s 			page 74


 4128 069d 66060000 		.4byte	0x666
 4129 06a1 05       		.uleb128 0x5
 4130 06a2 04       		.byte	0x4
 4131 06a3 5A060000 		.4byte	0x65a
 4132 06a7 1B       		.uleb128 0x1b
 4133 06a8 59290000 		.4byte	.LASF100
 4134 06ac 0E       		.byte	0xe
 4135 06ad 0A       		.byte	0xa
 4136 06ae 3F01     		.2byte	0x13f
 4137 06b0 DC060000 		.4byte	0x6dc
 4138 06b4 18       		.uleb128 0x18
 4139 06b5 47170000 		.4byte	.LASF101
 4140 06b9 0A       		.byte	0xa
 4141 06ba 4001     		.2byte	0x140
 4142 06bc DC060000 		.4byte	0x6dc
 4143 06c0 00       		.byte	0
 4144 06c1 18       		.uleb128 0x18
 4145 06c2 500C0000 		.4byte	.LASF102
 4146 06c6 0A       		.byte	0xa
 4147 06c7 4101     		.2byte	0x141
 4148 06c9 DC060000 		.4byte	0x6dc
 4149 06cd 06       		.byte	0x6
 4150 06ce 18       		.uleb128 0x18
 4151 06cf 2B040000 		.4byte	.LASF103
 4152 06d3 0A       		.byte	0xa
 4153 06d4 4201     		.2byte	0x142
 4154 06d6 97000000 		.4byte	0x97
 4155 06da 0C       		.byte	0xc
 4156 06db 00       		.byte	0
 4157 06dc 0A       		.uleb128 0xa
 4158 06dd 97000000 		.4byte	0x97
 4159 06e1 EC060000 		.4byte	0x6ec
 4160 06e5 0B       		.uleb128 0xb
 4161 06e6 2C000000 		.4byte	0x2c
 4162 06ea 02       		.byte	0x2
 4163 06eb 00       		.byte	0
 4164 06ec 1C       		.uleb128 0x1c
 4165 06ed D0       		.byte	0xd0
 4166 06ee 0A       		.byte	0xa
 4167 06ef 5902     		.2byte	0x259
 4168 06f1 ED070000 		.4byte	0x7ed
 4169 06f5 18       		.uleb128 0x18
 4170 06f6 B1080000 		.4byte	.LASF104
 4171 06fa 0A       		.byte	0xa
 4172 06fb 5B02     		.2byte	0x25b
 4173 06fd 2C000000 		.4byte	0x2c
 4174 0701 00       		.byte	0
 4175 0702 18       		.uleb128 0x18
 4176 0703 EF160000 		.4byte	.LASF105
 4177 0707 0A       		.byte	0xa
 4178 0708 5C02     		.2byte	0x25c
 4179 070a 6D010000 		.4byte	0x16d
 4180 070e 04       		.byte	0x4
 4181 070f 18       		.uleb128 0x18
 4182 0710 FB190000 		.4byte	.LASF106
 4183 0714 0A       		.byte	0xa
 4184 0715 5D02     		.2byte	0x25d
ARM GAS  /var/folders/qd/4mxf5pkd0zdf0b9dd1hp39180000gn/T//cc0H01tt.s 			page 75


 4185 0717 ED070000 		.4byte	0x7ed
 4186 071b 08       		.byte	0x8
 4187 071c 18       		.uleb128 0x18
 4188 071d B60E0000 		.4byte	.LASF107
 4189 0721 0A       		.byte	0xa
 4190 0722 5E02     		.2byte	0x25e
 4191 0724 F3010000 		.4byte	0x1f3
 4192 0728 24       		.byte	0x24
 4193 0729 18       		.uleb128 0x18
 4194 072a A6230000 		.4byte	.LASF108
 4195 072e 0A       		.byte	0xa
 4196 072f 5F02     		.2byte	0x25f
 4197 0731 41000000 		.4byte	0x41
 4198 0735 48       		.byte	0x48
 4199 0736 18       		.uleb128 0x18
 4200 0737 C91B0000 		.4byte	.LASF109
 4201 073b 0A       		.byte	0xa
 4202 073c 6002     		.2byte	0x260
 4203 073e 25000000 		.4byte	0x25
 4204 0742 50       		.byte	0x50
 4205 0743 18       		.uleb128 0x18
 4206 0744 B7280000 		.4byte	.LASF110
 4207 0748 0A       		.byte	0xa
 4208 0749 6102     		.2byte	0x261
 4209 074b A7060000 		.4byte	0x6a7
 4210 074f 58       		.byte	0x58
 4211 0750 18       		.uleb128 0x18
 4212 0751 DA1F0000 		.4byte	.LASF111
 4213 0755 0A       		.byte	0xa
 4214 0756 6202     		.2byte	0x262
 4215 0758 55010000 		.4byte	0x155
 4216 075c 68       		.byte	0x68
 4217 075d 18       		.uleb128 0x18
 4218 075e CA060000 		.4byte	.LASF112
 4219 0762 0A       		.byte	0xa
 4220 0763 6302     		.2byte	0x263
 4221 0765 55010000 		.4byte	0x155
 4222 0769 70       		.byte	0x70
 4223 076a 18       		.uleb128 0x18
 4224 076b 2F1B0000 		.4byte	.LASF113
 4225 076f 0A       		.byte	0xa
 4226 0770 6402     		.2byte	0x264
 4227 0772 55010000 		.4byte	0x155
 4228 0776 78       		.byte	0x78
 4229 0777 18       		.uleb128 0x18
 4230 0778 7D190000 		.4byte	.LASF114
 4231 077c 0A       		.byte	0xa
 4232 077d 6502     		.2byte	0x265
 4233 077f FD070000 		.4byte	0x7fd
 4234 0783 80       		.byte	0x80
 4235 0784 18       		.uleb128 0x18
 4236 0785 3C130000 		.4byte	.LASF115
 4237 0789 0A       		.byte	0xa
 4238 078a 6602     		.2byte	0x266
 4239 078c 0D080000 		.4byte	0x80d
 4240 0790 88       		.byte	0x88
 4241 0791 18       		.uleb128 0x18
ARM GAS  /var/folders/qd/4mxf5pkd0zdf0b9dd1hp39180000gn/T//cc0H01tt.s 			page 76


 4242 0792 EE1E0000 		.4byte	.LASF116
 4243 0796 0A       		.byte	0xa
 4244 0797 6702     		.2byte	0x267
 4245 0799 41000000 		.4byte	0x41
 4246 079d A0       		.byte	0xa0
 4247 079e 18       		.uleb128 0x18
 4248 079f F80C0000 		.4byte	.LASF117
 4249 07a3 0A       		.byte	0xa
 4250 07a4 6802     		.2byte	0x268
 4251 07a6 55010000 		.4byte	0x155
 4252 07aa A4       		.byte	0xa4
 4253 07ab 18       		.uleb128 0x18
 4254 07ac FF0F0000 		.4byte	.LASF118
 4255 07b0 0A       		.byte	0xa
 4256 07b1 6902     		.2byte	0x269
 4257 07b3 55010000 		.4byte	0x155
 4258 07b7 AC       		.byte	0xac
 4259 07b8 18       		.uleb128 0x18
 4260 07b9 CA0A0000 		.4byte	.LASF119
 4261 07bd 0A       		.byte	0xa
 4262 07be 6A02     		.2byte	0x26a
 4263 07c0 55010000 		.4byte	0x155
 4264 07c4 B4       		.byte	0xb4
 4265 07c5 18       		.uleb128 0x18
 4266 07c6 59150000 		.4byte	.LASF120
 4267 07ca 0A       		.byte	0xa
 4268 07cb 6B02     		.2byte	0x26b
 4269 07cd 55010000 		.4byte	0x155
 4270 07d1 BC       		.byte	0xbc
 4271 07d2 18       		.uleb128 0x18
 4272 07d3 511A0000 		.4byte	.LASF121
 4273 07d7 0A       		.byte	0xa
 4274 07d8 6C02     		.2byte	0x26c
 4275 07da 55010000 		.4byte	0x155
 4276 07de C4       		.byte	0xc4
 4277 07df 18       		.uleb128 0x18
 4278 07e0 09210000 		.4byte	.LASF122
 4279 07e4 0A       		.byte	0xa
 4280 07e5 6D02     		.2byte	0x26d
 4281 07e7 41000000 		.4byte	0x41
 4282 07eb CC       		.byte	0xcc
 4283 07ec 00       		.byte	0
 4284 07ed 0A       		.uleb128 0xa
 4285 07ee 73010000 		.4byte	0x173
 4286 07f2 FD070000 		.4byte	0x7fd
 4287 07f6 0B       		.uleb128 0xb
 4288 07f7 2C000000 		.4byte	0x2c
 4289 07fb 19       		.byte	0x19
 4290 07fc 00       		.byte	0
 4291 07fd 0A       		.uleb128 0xa
 4292 07fe 73010000 		.4byte	0x173
 4293 0802 0D080000 		.4byte	0x80d
 4294 0806 0B       		.uleb128 0xb
 4295 0807 2C000000 		.4byte	0x2c
 4296 080b 07       		.byte	0x7
 4297 080c 00       		.byte	0
 4298 080d 0A       		.uleb128 0xa
ARM GAS  /var/folders/qd/4mxf5pkd0zdf0b9dd1hp39180000gn/T//cc0H01tt.s 			page 77


 4299 080e 73010000 		.4byte	0x173
 4300 0812 1D080000 		.4byte	0x81d
 4301 0816 0B       		.uleb128 0xb
 4302 0817 2C000000 		.4byte	0x2c
 4303 081b 17       		.byte	0x17
 4304 081c 00       		.byte	0
 4305 081d 1C       		.uleb128 0x1c
 4306 081e F0       		.byte	0xf0
 4307 081f 0A       		.byte	0xa
 4308 0820 7202     		.2byte	0x272
 4309 0822 41080000 		.4byte	0x841
 4310 0826 18       		.uleb128 0x18
 4311 0827 BC1B0000 		.4byte	.LASF123
 4312 082b 0A       		.byte	0xa
 4313 082c 7502     		.2byte	0x275
 4314 082e 41080000 		.4byte	0x841
 4315 0832 00       		.byte	0
 4316 0833 18       		.uleb128 0x18
 4317 0834 690D0000 		.4byte	.LASF124
 4318 0838 0A       		.byte	0xa
 4319 0839 7602     		.2byte	0x276
 4320 083b 51080000 		.4byte	0x851
 4321 083f 78       		.byte	0x78
 4322 0840 00       		.byte	0
 4323 0841 0A       		.uleb128 0xa
 4324 0842 3C030000 		.4byte	0x33c
 4325 0846 51080000 		.4byte	0x851
 4326 084a 0B       		.uleb128 0xb
 4327 084b 2C000000 		.4byte	0x2c
 4328 084f 1D       		.byte	0x1d
 4329 0850 00       		.byte	0
 4330 0851 0A       		.uleb128 0xa
 4331 0852 2C000000 		.4byte	0x2c
 4332 0856 61080000 		.4byte	0x861
 4333 085a 0B       		.uleb128 0xb
 4334 085b 2C000000 		.4byte	0x2c
 4335 085f 1D       		.byte	0x1d
 4336 0860 00       		.byte	0
 4337 0861 1D       		.uleb128 0x1d
 4338 0862 F0       		.byte	0xf0
 4339 0863 0A       		.byte	0xa
 4340 0864 5702     		.2byte	0x257
 4341 0866 83080000 		.4byte	0x883
 4342 086a 1E       		.uleb128 0x1e
 4343 086b 3A060000 		.4byte	.LASF74
 4344 086f 0A       		.byte	0xa
 4345 0870 6E02     		.2byte	0x26e
 4346 0872 EC060000 		.4byte	0x6ec
 4347 0876 1E       		.uleb128 0x1e
 4348 0877 1C030000 		.4byte	.LASF125
 4349 087b 0A       		.byte	0xa
 4350 087c 7702     		.2byte	0x277
 4351 087e 1D080000 		.4byte	0x81d
 4352 0882 00       		.byte	0
 4353 0883 0A       		.uleb128 0xa
 4354 0884 73010000 		.4byte	0x173
 4355 0888 93080000 		.4byte	0x893
ARM GAS  /var/folders/qd/4mxf5pkd0zdf0b9dd1hp39180000gn/T//cc0H01tt.s 			page 78


 4356 088c 0B       		.uleb128 0xb
 4357 088d 2C000000 		.4byte	0x2c
 4358 0891 18       		.byte	0x18
 4359 0892 00       		.byte	0
 4360 0893 06       		.uleb128 0x6
 4361 0894 EF1F0000 		.4byte	.LASF127
 4362 0898 05       		.uleb128 0x5
 4363 0899 04       		.byte	0x4
 4364 089a 93080000 		.4byte	0x893
 4365 089e 1F       		.uleb128 0x1f
 4366 089f A9080000 		.4byte	0x8a9
 4367 08a3 16       		.uleb128 0x16
 4368 08a4 8A040000 		.4byte	0x48a
 4369 08a8 00       		.byte	0
 4370 08a9 05       		.uleb128 0x5
 4371 08aa 04       		.byte	0x4
 4372 08ab 9E080000 		.4byte	0x89e
 4373 08af 05       		.uleb128 0x5
 4374 08b0 04       		.byte	0x4
 4375 08b1 DD010000 		.4byte	0x1dd
 4376 08b5 1F       		.uleb128 0x1f
 4377 08b6 C0080000 		.4byte	0x8c0
 4378 08ba 16       		.uleb128 0x16
 4379 08bb 41000000 		.4byte	0x41
 4380 08bf 00       		.byte	0
 4381 08c0 05       		.uleb128 0x5
 4382 08c1 04       		.byte	0x4
 4383 08c2 C6080000 		.4byte	0x8c6
 4384 08c6 05       		.uleb128 0x5
 4385 08c7 04       		.byte	0x4
 4386 08c8 B5080000 		.4byte	0x8b5
 4387 08cc 0A       		.uleb128 0xa
 4388 08cd 5A060000 		.4byte	0x65a
 4389 08d1 DC080000 		.4byte	0x8dc
 4390 08d5 0B       		.uleb128 0xb
 4391 08d6 2C000000 		.4byte	0x2c
 4392 08da 02       		.byte	0x2
 4393 08db 00       		.byte	0
 4394 08dc 20       		.uleb128 0x20
 4395 08dd 821F0000 		.4byte	.LASF128
 4396 08e1 0A       		.byte	0xa
 4397 08e2 0703     		.2byte	0x307
 4398 08e4 8A040000 		.4byte	0x48a
 4399 08e8 20       		.uleb128 0x20
 4400 08e9 64240000 		.4byte	.LASF129
 4401 08ed 0A       		.byte	0xa
 4402 08ee 0803     		.2byte	0x308
 4403 08f0 90040000 		.4byte	0x490
 4404 08f4 21       		.uleb128 0x21
 4405 08f5 9E1A0000 		.4byte	.LASF956
 4406 08f9 05       		.byte	0x5
 4407 08fa 01       		.byte	0x1
 4408 08fb 61000000 		.4byte	0x61
 4409 08ff 0B       		.byte	0xb
 4410 0900 8202     		.2byte	0x282
 4411 0902 1F090000 		.4byte	0x91f
 4412 0906 22       		.uleb128 0x22
ARM GAS  /var/folders/qd/4mxf5pkd0zdf0b9dd1hp39180000gn/T//cc0H01tt.s 			page 79


 4413 0907 01180000 		.4byte	.LASF130
 4414 090b 7F       		.sleb128 -1
 4415 090c 23       		.uleb128 0x23
 4416 090d B3020000 		.4byte	.LASF131
 4417 0911 00       		.byte	0
 4418 0912 23       		.uleb128 0x23
 4419 0913 B7000000 		.4byte	.LASF132
 4420 0917 01       		.byte	0x1
 4421 0918 23       		.uleb128 0x23
 4422 0919 03250000 		.4byte	.LASF133
 4423 091d 02       		.byte	0x2
 4424 091e 00       		.byte	0
 4425 091f 20       		.uleb128 0x20
 4426 0920 030A0000 		.4byte	.LASF134
 4427 0924 0B       		.byte	0xb
 4428 0925 8D02     		.2byte	0x28d
 4429 0927 F4080000 		.4byte	0x8f4
 4430 092b 0C       		.uleb128 0xc
 4431 092c 10       		.byte	0x10
 4432 092d 0C       		.byte	0xc
 4433 092e 0F       		.byte	0xf
 4434 092f 4C090000 		.4byte	0x94c
 4435 0933 0D       		.uleb128 0xd
 4436 0934 3C220000 		.4byte	.LASF135
 4437 0938 0C       		.byte	0xc
 4438 0939 10       		.byte	0x10
 4439 093a 33000000 		.4byte	0x33
 4440 093e 00       		.byte	0
 4441 093f 0D       		.uleb128 0xd
 4442 0940 1B0E0000 		.4byte	.LASF136
 4443 0944 0C       		.byte	0xc
 4444 0945 11       		.byte	0x11
 4445 0946 33000000 		.4byte	0x33
 4446 094a 08       		.byte	0x8
 4447 094b 00       		.byte	0
 4448 094c 04       		.uleb128 0x4
 4449 094d 590B0000 		.4byte	.LASF137
 4450 0951 0C       		.byte	0xc
 4451 0952 12       		.byte	0x12
 4452 0953 2B090000 		.4byte	0x92b
 4453 0957 0F       		.uleb128 0xf
 4454 0958 4C090000 		.4byte	0x94c
 4455 095c 0C       		.uleb128 0xc
 4456 095d 10       		.byte	0x10
 4457 095e 0C       		.byte	0xc
 4458 095f 14       		.byte	0x14
 4459 0960 7D090000 		.4byte	0x97d
 4460 0964 0D       		.uleb128 0xd
 4461 0965 24290000 		.4byte	.LASF138
 4462 0969 0C       		.byte	0xc
 4463 096a 15       		.byte	0x15
 4464 096b 41000000 		.4byte	0x41
 4465 096f 00       		.byte	0
 4466 0970 0D       		.uleb128 0xd
 4467 0971 E3010000 		.4byte	.LASF139
 4468 0975 0C       		.byte	0xc
 4469 0976 16       		.byte	0x16
ARM GAS  /var/folders/qd/4mxf5pkd0zdf0b9dd1hp39180000gn/T//cc0H01tt.s 			page 80


 4470 0977 33000000 		.4byte	0x33
 4471 097b 08       		.byte	0x8
 4472 097c 00       		.byte	0
 4473 097d 04       		.uleb128 0x4
 4474 097e 19260000 		.4byte	.LASF140
 4475 0982 0C       		.byte	0xc
 4476 0983 17       		.byte	0x17
 4477 0984 5C090000 		.4byte	0x95c
 4478 0988 0F       		.uleb128 0xf
 4479 0989 7D090000 		.4byte	0x97d
 4480 098d 0C       		.uleb128 0xc
 4481 098e 10       		.byte	0x10
 4482 098f 0D       		.byte	0xd
 4483 0990 19       		.byte	0x19
 4484 0991 B6090000 		.4byte	0x9b6
 4485 0995 11       		.uleb128 0x11
 4486 0996 7800     		.ascii	"x\000"
 4487 0998 0D       		.byte	0xd
 4488 0999 1A       		.byte	0x1a
 4489 099a 41000000 		.4byte	0x41
 4490 099e 00       		.byte	0
 4491 099f 11       		.uleb128 0x11
 4492 09a0 7900     		.ascii	"y\000"
 4493 09a2 0D       		.byte	0xd
 4494 09a3 1B       		.byte	0x1b
 4495 09a4 41000000 		.4byte	0x41
 4496 09a8 04       		.byte	0x4
 4497 09a9 0D       		.uleb128 0xd
 4498 09aa 76150000 		.4byte	.LASF141
 4499 09ae 0D       		.byte	0xd
 4500 09af 1C       		.byte	0x1c
 4501 09b0 33000000 		.4byte	0x33
 4502 09b4 08       		.byte	0x8
 4503 09b5 00       		.byte	0
 4504 09b6 04       		.uleb128 0x4
 4505 09b7 B0150000 		.4byte	.LASF142
 4506 09bb 0D       		.byte	0xd
 4507 09bc 1D       		.byte	0x1d
 4508 09bd 8D090000 		.4byte	0x98d
 4509 09c1 0F       		.uleb128 0xf
 4510 09c2 B6090000 		.4byte	0x9b6
 4511 09c6 0C       		.uleb128 0xc
 4512 09c7 08       		.byte	0x8
 4513 09c8 0D       		.byte	0xd
 4514 09c9 1F       		.byte	0x1f
 4515 09ca E3090000 		.4byte	0x9e3
 4516 09ce 11       		.uleb128 0x11
 4517 09cf 7800     		.ascii	"x\000"
 4518 09d1 0D       		.byte	0xd
 4519 09d2 20       		.byte	0x20
 4520 09d3 41000000 		.4byte	0x41
 4521 09d7 00       		.byte	0
 4522 09d8 11       		.uleb128 0x11
 4523 09d9 7900     		.ascii	"y\000"
 4524 09db 0D       		.byte	0xd
 4525 09dc 21       		.byte	0x21
 4526 09dd 41000000 		.4byte	0x41
ARM GAS  /var/folders/qd/4mxf5pkd0zdf0b9dd1hp39180000gn/T//cc0H01tt.s 			page 81


 4527 09e1 04       		.byte	0x4
 4528 09e2 00       		.byte	0
 4529 09e3 04       		.uleb128 0x4
 4530 09e4 DD120000 		.4byte	.LASF143
 4531 09e8 0D       		.byte	0xd
 4532 09e9 22       		.byte	0x22
 4533 09ea C6090000 		.4byte	0x9c6
 4534 09ee 0C       		.uleb128 0xc
 4535 09ef 18       		.byte	0x18
 4536 09f0 0D       		.byte	0xd
 4537 09f1 24       		.byte	0x24
 4538 09f2 0F0A0000 		.4byte	0xa0f
 4539 09f6 0D       		.uleb128 0xd
 4540 09f7 9B1C0000 		.4byte	.LASF144
 4541 09fb 0D       		.byte	0xd
 4542 09fc 25       		.byte	0x25
 4543 09fd B6090000 		.4byte	0x9b6
 4544 0a01 00       		.byte	0
 4545 0a02 0D       		.uleb128 0xd
 4546 0a03 150D0000 		.4byte	.LASF145
 4547 0a07 0D       		.byte	0xd
 4548 0a08 26       		.byte	0x26
 4549 0a09 41000000 		.4byte	0x41
 4550 0a0d 10       		.byte	0x10
 4551 0a0e 00       		.byte	0
 4552 0a0f 04       		.uleb128 0x4
 4553 0a10 88030000 		.4byte	.LASF146
 4554 0a14 0D       		.byte	0xd
 4555 0a15 27       		.byte	0x27
 4556 0a16 EE090000 		.4byte	0x9ee
 4557 0a1a 0C       		.uleb128 0xc
 4558 0a1b 18       		.byte	0x18
 4559 0a1c 0D       		.byte	0xd
 4560 0a1d 29       		.byte	0x29
 4561 0a1e 3B0A0000 		.4byte	0xa3b
 4562 0a22 0D       		.uleb128 0xd
 4563 0a23 5A1C0000 		.4byte	.LASF147
 4564 0a27 0D       		.byte	0xd
 4565 0a28 2A       		.byte	0x2a
 4566 0a29 41000000 		.4byte	0x41
 4567 0a2d 00       		.byte	0
 4568 0a2e 0D       		.uleb128 0xd
 4569 0a2f 0A070000 		.4byte	.LASF148
 4570 0a33 0D       		.byte	0xd
 4571 0a34 2B       		.byte	0x2b
 4572 0a35 3B0A0000 		.4byte	0xa3b
 4573 0a39 08       		.byte	0x8
 4574 0a3a 00       		.byte	0
 4575 0a3b 0A       		.uleb128 0xa
 4576 0a3c 33000000 		.4byte	0x33
 4577 0a40 4B0A0000 		.4byte	0xa4b
 4578 0a44 0B       		.uleb128 0xb
 4579 0a45 2C000000 		.4byte	0x2c
 4580 0a49 01       		.byte	0x1
 4581 0a4a 00       		.byte	0
 4582 0a4b 04       		.uleb128 0x4
 4583 0a4c DE020000 		.4byte	.LASF149
ARM GAS  /var/folders/qd/4mxf5pkd0zdf0b9dd1hp39180000gn/T//cc0H01tt.s 			page 82


 4584 0a50 0D       		.byte	0xd
 4585 0a51 2C       		.byte	0x2c
 4586 0a52 1A0A0000 		.4byte	0xa1a
 4587 0a56 0F       		.uleb128 0xf
 4588 0a57 4B0A0000 		.4byte	0xa4b
 4589 0a5b 0C       		.uleb128 0xc
 4590 0a5c 3C       		.byte	0x3c
 4591 0a5d 0D       		.byte	0xd
 4592 0a5e 2F       		.byte	0x2f
 4593 0a5f A00A0000 		.4byte	0xaa0
 4594 0a63 0D       		.uleb128 0xd
 4595 0a64 241E0000 		.4byte	.LASF150
 4596 0a68 0D       		.byte	0xd
 4597 0a69 30       		.byte	0x30
 4598 0a6a A00A0000 		.4byte	0xaa0
 4599 0a6e 00       		.byte	0
 4600 0a6f 0D       		.uleb128 0xd
 4601 0a70 3D240000 		.4byte	.LASF151
 4602 0a74 0D       		.byte	0xd
 4603 0a75 31       		.byte	0x31
 4604 0a76 41000000 		.4byte	0x41
 4605 0a7a 04       		.byte	0x4
 4606 0a7b 0D       		.uleb128 0xd
 4607 0a7c 2F190000 		.4byte	.LASF152
 4608 0a80 0D       		.byte	0xd
 4609 0a81 32       		.byte	0x32
 4610 0a82 41000000 		.4byte	0x41
 4611 0a86 08       		.byte	0x8
 4612 0a87 0D       		.uleb128 0xd
 4613 0a88 17140000 		.4byte	.LASF153
 4614 0a8c 0D       		.byte	0xd
 4615 0a8d 33       		.byte	0x33
 4616 0a8e B70A0000 		.4byte	0xab7
 4617 0a92 0C       		.byte	0xc
 4618 0a93 0D       		.uleb128 0xd
 4619 0a94 E1090000 		.4byte	.LASF154
 4620 0a98 0D       		.byte	0xd
 4621 0a99 34       		.byte	0x34
 4622 0a9a B70A0000 		.4byte	0xab7
 4623 0a9e 24       		.byte	0x24
 4624 0a9f 00       		.byte	0
 4625 0aa0 0A       		.uleb128 0xa
 4626 0aa1 B00A0000 		.4byte	0xab0
 4627 0aa5 B00A0000 		.4byte	0xab0
 4628 0aa9 0B       		.uleb128 0xb
 4629 0aaa 2C000000 		.4byte	0x2c
 4630 0aae 03       		.byte	0x3
 4631 0aaf 00       		.byte	0
 4632 0ab0 02       		.uleb128 0x2
 4633 0ab1 01       		.byte	0x1
 4634 0ab2 02       		.byte	0x2
 4635 0ab3 39010000 		.4byte	.LASF155
 4636 0ab7 0A       		.uleb128 0xa
 4637 0ab8 E3090000 		.4byte	0x9e3
 4638 0abc C70A0000 		.4byte	0xac7
 4639 0ac0 0B       		.uleb128 0xb
 4640 0ac1 2C000000 		.4byte	0x2c
ARM GAS  /var/folders/qd/4mxf5pkd0zdf0b9dd1hp39180000gn/T//cc0H01tt.s 			page 83


 4641 0ac5 02       		.byte	0x2
 4642 0ac6 00       		.byte	0
 4643 0ac7 04       		.uleb128 0x4
 4644 0ac8 5E040000 		.4byte	.LASF156
 4645 0acc 0D       		.byte	0xd
 4646 0acd 35       		.byte	0x35
 4647 0ace 5B0A0000 		.4byte	0xa5b
 4648 0ad2 05       		.uleb128 0x5
 4649 0ad3 04       		.byte	0x4
 4650 0ad4 D80A0000 		.4byte	0xad8
 4651 0ad8 24       		.uleb128 0x24
 4652 0ad9 25       		.uleb128 0x25
 4653 0ada 911C0000 		.4byte	.LASF157
 4654 0ade 0E       		.byte	0xe
 4655 0adf 63       		.byte	0x63
 4656 0ae0 6D010000 		.4byte	0x16d
 4657 0ae4 26       		.uleb128 0x26
 4658 0ae5 07       		.byte	0x7
 4659 0ae6 01       		.byte	0x1
 4660 0ae7 73000000 		.4byte	0x73
 4661 0aeb 22       		.byte	0x22
 4662 0aec 11       		.byte	0x11
 4663 0aed F80A0000 		.4byte	0xaf8
 4664 0af1 23       		.uleb128 0x23
 4665 0af2 74170000 		.4byte	.LASF158
 4666 0af6 00       		.byte	0
 4667 0af7 00       		.byte	0
 4668 0af8 04       		.uleb128 0x4
 4669 0af9 D60E0000 		.4byte	.LASF159
 4670 0afd 0F       		.byte	0xf
 4671 0afe 18       		.byte	0x18
 4672 0aff 68000000 		.4byte	0x68
 4673 0b03 0F       		.uleb128 0xf
 4674 0b04 F80A0000 		.4byte	0xaf8
 4675 0b08 04       		.uleb128 0x4
 4676 0b09 D4230000 		.4byte	.LASF160
 4677 0b0d 0F       		.byte	0xf
 4678 0b0e 20       		.byte	0x20
 4679 0b0f 7A000000 		.4byte	0x7a
 4680 0b13 04       		.uleb128 0x4
 4681 0b14 3B020000 		.4byte	.LASF161
 4682 0b18 0F       		.byte	0xf
 4683 0b19 24       		.byte	0x24
 4684 0b1a 8C000000 		.4byte	0x8c
 4685 0b1e 04       		.uleb128 0x4
 4686 0b1f FD030000 		.4byte	.LASF162
 4687 0b23 0F       		.byte	0xf
 4688 0b24 2C       		.byte	0x2c
 4689 0b25 9E000000 		.4byte	0x9e
 4690 0b29 1A       		.uleb128 0x1a
 4691 0b2a 1E0B0000 		.4byte	0xb1e
 4692 0b2e 04       		.uleb128 0x4
 4693 0b2f FD1B0000 		.4byte	.LASF163
 4694 0b33 0F       		.byte	0xf
 4695 0b34 30       		.byte	0x30
 4696 0b35 B0000000 		.4byte	0xb0
 4697 0b39 1A       		.uleb128 0x1a
ARM GAS  /var/folders/qd/4mxf5pkd0zdf0b9dd1hp39180000gn/T//cc0H01tt.s 			page 84


 4698 0b3a 2E0B0000 		.4byte	0xb2e
 4699 0b3e 0F       		.uleb128 0xf
 4700 0b3f 390B0000 		.4byte	0xb39
 4701 0b43 04       		.uleb128 0x4
 4702 0b44 9D0B0000 		.4byte	.LASF164
 4703 0b48 0F       		.byte	0xf
 4704 0b49 3C       		.byte	0x3c
 4705 0b4a C2000000 		.4byte	0xc2
 4706 0b4e 04       		.uleb128 0x4
 4707 0b4f C50D0000 		.4byte	.LASF165
 4708 0b53 10       		.byte	0x10
 4709 0b54 45       		.byte	0x45
 4710 0b55 2E0B0000 		.4byte	0xb2e
 4711 0b59 04       		.uleb128 0x4
 4712 0b5a 4E060000 		.4byte	.LASF166
 4713 0b5e 10       		.byte	0x10
 4714 0b5f 46       		.byte	0x46
 4715 0b60 430B0000 		.4byte	0xb43
 4716 0b64 04       		.uleb128 0x4
 4717 0b65 D5140000 		.4byte	.LASF167
 4718 0b69 10       		.byte	0x10
 4719 0b6a 48       		.byte	0x48
 4720 0b6b F80A0000 		.4byte	0xaf8
 4721 0b6f 04       		.uleb128 0x4
 4722 0b70 5B240000 		.4byte	.LASF168
 4723 0b74 10       		.byte	0x10
 4724 0b75 49       		.byte	0x49
 4725 0b76 F80A0000 		.4byte	0xaf8
 4726 0b7a 04       		.uleb128 0x4
 4727 0b7b 5A140000 		.4byte	.LASF169
 4728 0b7f 10       		.byte	0x10
 4729 0b80 4A       		.byte	0x4a
 4730 0b81 F80A0000 		.4byte	0xaf8
 4731 0b85 04       		.uleb128 0x4
 4732 0b86 E5160000 		.4byte	.LASF170
 4733 0b8a 10       		.byte	0x10
 4734 0b8b 4B       		.byte	0x4b
 4735 0b8c F80A0000 		.4byte	0xaf8
 4736 0b90 04       		.uleb128 0x4
 4737 0b91 13070000 		.4byte	.LASF171
 4738 0b95 10       		.byte	0x10
 4739 0b96 4C       		.byte	0x4c
 4740 0b97 2E0B0000 		.4byte	0xb2e
 4741 0b9b 04       		.uleb128 0x4
 4742 0b9c 6D000000 		.4byte	.LASF172
 4743 0ba0 10       		.byte	0x10
 4744 0ba1 4D       		.byte	0x4d
 4745 0ba2 1E0B0000 		.4byte	0xb1e
 4746 0ba6 04       		.uleb128 0x4
 4747 0ba7 851C0000 		.4byte	.LASF173
 4748 0bab 10       		.byte	0x10
 4749 0bac 4F       		.byte	0x4f
 4750 0bad 2E0B0000 		.4byte	0xb2e
 4751 0bb1 04       		.uleb128 0x4
 4752 0bb2 B9260000 		.4byte	.LASF174
 4753 0bb6 10       		.byte	0x10
 4754 0bb7 50       		.byte	0x50
ARM GAS  /var/folders/qd/4mxf5pkd0zdf0b9dd1hp39180000gn/T//cc0H01tt.s 			page 85


 4755 0bb8 2E0B0000 		.4byte	0xb2e
 4756 0bbc 04       		.uleb128 0x4
 4757 0bbd 361F0000 		.4byte	.LASF175
 4758 0bc1 10       		.byte	0x10
 4759 0bc2 51       		.byte	0x51
 4760 0bc3 1E0B0000 		.4byte	0xb1e
 4761 0bc7 04       		.uleb128 0x4
 4762 0bc8 E1170000 		.4byte	.LASF176
 4763 0bcc 10       		.byte	0x10
 4764 0bcd 52       		.byte	0x52
 4765 0bce 2E0B0000 		.4byte	0xb2e
 4766 0bd2 04       		.uleb128 0x4
 4767 0bd3 11040000 		.4byte	.LASF177
 4768 0bd7 11       		.byte	0x11
 4769 0bd8 33       		.byte	0x33
 4770 0bd9 2E0B0000 		.4byte	0xb2e
 4771 0bdd 1A       		.uleb128 0x1a
 4772 0bde D20B0000 		.4byte	0xbd2
 4773 0be2 04       		.uleb128 0x4
 4774 0be3 96030000 		.4byte	.LASF178
 4775 0be7 11       		.byte	0x11
 4776 0be8 3F       		.byte	0x3f
 4777 0be9 ED0B0000 		.4byte	0xbed
 4778 0bed 10       		.uleb128 0x10
 4779 0bee A30A0000 		.4byte	.LASF179
 4780 0bf2 68       		.byte	0x68
 4781 0bf3 12       		.byte	0x12
 4782 0bf4 C2       		.byte	0xc2
 4783 0bf5 0B0D0000 		.4byte	0xd0b
 4784 0bf9 0D       		.uleb128 0xd
 4785 0bfa C7130000 		.4byte	.LASF180
 4786 0bfe 12       		.byte	0x12
 4787 0bff C3       		.byte	0xc3
 4788 0c00 160D0000 		.4byte	0xd16
 4789 0c04 00       		.byte	0
 4790 0c05 0D       		.uleb128 0xd
 4791 0c06 010F0000 		.4byte	.LASF181
 4792 0c0a 12       		.byte	0x12
 4793 0c0b C5       		.byte	0xc5
 4794 0c0c 160D0000 		.4byte	0xd16
 4795 0c10 04       		.byte	0x4
 4796 0c11 0D       		.uleb128 0xd
 4797 0c12 CF000000 		.4byte	.LASF182
 4798 0c16 12       		.byte	0x12
 4799 0c17 C7       		.byte	0xc7
 4800 0c18 900B0000 		.4byte	0xb90
 4801 0c1c 08       		.byte	0x8
 4802 0c1d 0D       		.uleb128 0xd
 4803 0c1e 3A0B0000 		.4byte	.LASF183
 4804 0c22 12       		.byte	0x12
 4805 0c23 C8       		.byte	0xc8
 4806 0c24 1E170000 		.4byte	0x171e
 4807 0c28 0C       		.byte	0xc
 4808 0c29 0D       		.uleb128 0xd
 4809 0c2a CB020000 		.4byte	.LASF184
 4810 0c2e 12       		.byte	0x12
 4811 0c2f CA       		.byte	0xca
ARM GAS  /var/folders/qd/4mxf5pkd0zdf0b9dd1hp39180000gn/T//cc0H01tt.s 			page 86


 4812 0c30 160D0000 		.4byte	0xd16
 4813 0c34 10       		.byte	0x10
 4814 0c35 0D       		.uleb128 0xd
 4815 0c36 5D270000 		.4byte	.LASF185
 4816 0c3a 12       		.byte	0x12
 4817 0c3b CB       		.byte	0xcb
 4818 0c3c 160D0000 		.4byte	0xd16
 4819 0c40 14       		.byte	0x14
 4820 0c41 0D       		.uleb128 0xd
 4821 0c42 DF240000 		.4byte	.LASF186
 4822 0c46 12       		.byte	0x12
 4823 0c47 D2       		.byte	0xd2
 4824 0c48 EB050000 		.4byte	0x5eb
 4825 0c4c 18       		.byte	0x18
 4826 0c4d 0D       		.uleb128 0xd
 4827 0c4e 2B1F0000 		.4byte	.LASF187
 4828 0c52 12       		.byte	0x12
 4829 0c53 D8       		.byte	0xd8
 4830 0c54 941A0000 		.4byte	0x1a94
 4831 0c58 1C       		.byte	0x1c
 4832 0c59 0D       		.uleb128 0xd
 4833 0c5a C0290000 		.4byte	.LASF188
 4834 0c5e 12       		.byte	0x12
 4835 0c5f DD       		.byte	0xdd
 4836 0c60 6F0B0000 		.4byte	0xb6f
 4837 0c64 20       		.byte	0x20
 4838 0c65 0D       		.uleb128 0xd
 4839 0c66 0E240000 		.4byte	.LASF189
 4840 0c6a 12       		.byte	0x12
 4841 0c6b E1       		.byte	0xe1
 4842 0c6c 640B0000 		.4byte	0xb64
 4843 0c70 21       		.byte	0x21
 4844 0c71 0D       		.uleb128 0xd
 4845 0c72 C01A0000 		.4byte	.LASF190
 4846 0c76 12       		.byte	0x12
 4847 0c77 E6       		.byte	0xe6
 4848 0c78 7A0B0000 		.4byte	0xb7a
 4849 0c7c 22       		.byte	0x22
 4850 0c7d 0D       		.uleb128 0xd
 4851 0c7e CD170000 		.4byte	.LASF191
 4852 0c82 12       		.byte	0x12
 4853 0c83 EC       		.byte	0xec
 4854 0c84 850B0000 		.4byte	0xb85
 4855 0c88 23       		.byte	0x23
 4856 0c89 0D       		.uleb128 0xd
 4857 0c8a B91A0000 		.4byte	.LASF192
 4858 0c8e 12       		.byte	0x12
 4859 0c8f F3       		.byte	0xf3
 4860 0c90 DD0B0000 		.4byte	0xbdd
 4861 0c94 24       		.byte	0x24
 4862 0c95 27       		.uleb128 0x27
 4863 0c96 705F7500 		.ascii	"p_u\000"
 4864 0c9a 12       		.byte	0x12
 4865 0c9b 3101     		.2byte	0x131
 4866 0c9d C3190000 		.4byte	0x19c3
 4867 0ca1 28       		.byte	0x28
 4868 0ca2 18       		.uleb128 0x18
ARM GAS  /var/folders/qd/4mxf5pkd0zdf0b9dd1hp39180000gn/T//cc0H01tt.s 			page 87


 4869 0ca3 9F050000 		.4byte	.LASF193
 4870 0ca7 12       		.byte	0x12
 4871 0ca8 3601     		.2byte	0x136
 4872 0caa 1C0D0000 		.4byte	0xd1c
 4873 0cae 2C       		.byte	0x2c
 4874 0caf 18       		.uleb128 0x18
 4875 0cb0 8E180000 		.4byte	.LASF194
 4876 0cb4 12       		.byte	0x12
 4877 0cb5 3C01     		.2byte	0x13c
 4878 0cb7 400D0000 		.4byte	0xd40
 4879 0cbb 30       		.byte	0x30
 4880 0cbc 18       		.uleb128 0x18
 4881 0cbd AB080000 		.4byte	.LASF195
 4882 0cc1 12       		.byte	0x12
 4883 0cc2 4001     		.2byte	0x140
 4884 0cc4 9B0B0000 		.4byte	0xb9b
 4885 0cc8 38       		.byte	0x38
 4886 0cc9 18       		.uleb128 0x18
 4887 0cca F7210000 		.4byte	.LASF196
 4888 0cce 12       		.byte	0x12
 4889 0ccf 4601     		.2byte	0x146
 4890 0cd1 A60B0000 		.4byte	0xba6
 4891 0cd5 3C       		.byte	0x3c
 4892 0cd6 18       		.uleb128 0x18
 4893 0cd7 33240000 		.4byte	.LASF197
 4894 0cdb 12       		.byte	0x12
 4895 0cdc 4D01     		.2byte	0x14d
 4896 0cde 8E1A0000 		.4byte	0x1a8e
 4897 0ce2 40       		.byte	0x40
 4898 0ce3 18       		.uleb128 0x18
 4899 0ce4 88200000 		.4byte	.LASF198
 4900 0ce8 12       		.byte	0x12
 4901 0ce9 5101     		.2byte	0x151
 4902 0ceb 900B0000 		.4byte	0xb90
 4903 0cef 44       		.byte	0x44
 4904 0cf0 18       		.uleb128 0x18
 4905 0cf1 62140000 		.4byte	.LASF199
 4906 0cf5 12       		.byte	0x12
 4907 0cf6 5801     		.2byte	0x158
 4908 0cf8 6B010000 		.4byte	0x16b
 4909 0cfc 48       		.byte	0x48
 4910 0cfd 18       		.uleb128 0x18
 4911 0cfe FB290000 		.4byte	.LASF200
 4912 0d02 12       		.byte	0x12
 4913 0d03 5E01     		.2byte	0x15e
 4914 0d05 74190000 		.4byte	0x1974
 4915 0d09 50       		.byte	0x50
 4916 0d0a 00       		.byte	0
 4917 0d0b 04       		.uleb128 0x4
 4918 0d0c C2270000 		.4byte	.LASF201
 4919 0d10 11       		.byte	0x11
 4920 0d11 44       		.byte	0x44
 4921 0d12 160D0000 		.4byte	0xd16
 4922 0d16 05       		.uleb128 0x5
 4923 0d17 04       		.byte	0x4
 4924 0d18 E20B0000 		.4byte	0xbe2
 4925 0d1c 04       		.uleb128 0x4
ARM GAS  /var/folders/qd/4mxf5pkd0zdf0b9dd1hp39180000gn/T//cc0H01tt.s 			page 88


 4926 0d1d DE050000 		.4byte	.LASF202
 4927 0d21 11       		.byte	0x11
 4928 0d22 49       		.byte	0x49
 4929 0d23 270D0000 		.4byte	0xd27
 4930 0d27 10       		.uleb128 0x10
 4931 0d28 DA290000 		.4byte	.LASF203
 4932 0d2c 04       		.byte	0x4
 4933 0d2d 12       		.byte	0x12
 4934 0d2e B0       		.byte	0xb0
 4935 0d2f 400D0000 		.4byte	0xd40
 4936 0d33 0D       		.uleb128 0xd
 4937 0d34 C7130000 		.4byte	.LASF180
 4938 0d38 12       		.byte	0x12
 4939 0d39 B1       		.byte	0xb1
 4940 0d3a 160D0000 		.4byte	0xd16
 4941 0d3e 00       		.byte	0
 4942 0d3f 00       		.byte	0
 4943 0d40 04       		.uleb128 0x4
 4944 0d41 831A0000 		.4byte	.LASF204
 4945 0d45 11       		.byte	0x11
 4946 0d46 50       		.byte	0x50
 4947 0d47 4B0D0000 		.4byte	0xd4b
 4948 0d4b 10       		.uleb128 0x10
 4949 0d4c A2020000 		.4byte	.LASF205
 4950 0d50 08       		.byte	0x8
 4951 0d51 12       		.byte	0x12
 4952 0d52 B7       		.byte	0xb7
 4953 0d53 700D0000 		.4byte	0xd70
 4954 0d57 0D       		.uleb128 0xd
 4955 0d58 C7130000 		.4byte	.LASF180
 4956 0d5c 12       		.byte	0x12
 4957 0d5d B8       		.byte	0xb8
 4958 0d5e 160D0000 		.4byte	0xd16
 4959 0d62 00       		.byte	0
 4960 0d63 0D       		.uleb128 0xd
 4961 0d64 010F0000 		.4byte	.LASF181
 4962 0d68 12       		.byte	0x12
 4963 0d69 B9       		.byte	0xb9
 4964 0d6a 160D0000 		.4byte	0xd16
 4965 0d6e 04       		.byte	0x4
 4966 0d6f 00       		.byte	0
 4967 0d70 04       		.uleb128 0x4
 4968 0d71 960A0000 		.4byte	.LASF206
 4969 0d75 11       		.byte	0x11
 4970 0d76 57       		.byte	0x57
 4971 0d77 7B0D0000 		.4byte	0xd7b
 4972 0d7b 1B       		.uleb128 0x1b
 4973 0d7c 39210000 		.4byte	.LASF207
 4974 0d80 1C       		.byte	0x1c
 4975 0d81 12       		.byte	0x12
 4976 0d82 9001     		.2byte	0x190
 4977 0d84 D70D0000 		.4byte	0xdd7
 4978 0d88 18       		.uleb128 0x18
 4979 0d89 921D0000 		.4byte	.LASF208
 4980 0d8d 12       		.byte	0x12
 4981 0d8e 9101     		.2byte	0x191
 4982 0d90 400D0000 		.4byte	0xd40
ARM GAS  /var/folders/qd/4mxf5pkd0zdf0b9dd1hp39180000gn/T//cc0H01tt.s 			page 89


 4983 0d94 00       		.byte	0
 4984 0d95 18       		.uleb128 0x18
 4985 0d96 10230000 		.4byte	.LASF209
 4986 0d9a 12       		.byte	0x12
 4987 0d9b 9201     		.2byte	0x192
 4988 0d9d 900B0000 		.4byte	0xb90
 4989 0da1 08       		.byte	0x8
 4990 0da2 18       		.uleb128 0x18
 4991 0da3 A00D0000 		.4byte	.LASF210
 4992 0da7 12       		.byte	0x12
 4993 0da8 9401     		.2byte	0x194
 4994 0daa 1E170000 		.4byte	0x171e
 4995 0dae 0C       		.byte	0xc
 4996 0daf 18       		.uleb128 0x18
 4997 0db0 69160000 		.4byte	.LASF211
 4998 0db4 12       		.byte	0x12
 4999 0db5 9701     		.2byte	0x197
 5000 0db7 160D0000 		.4byte	0xd16
 5001 0dbb 10       		.byte	0x10
 5002 0dbc 18       		.uleb128 0x18
 5003 0dbd F90E0000 		.4byte	.LASF212
 5004 0dc1 12       		.byte	0x12
 5005 0dc2 9801     		.2byte	0x198
 5006 0dc4 160D0000 		.4byte	0xd16
 5007 0dc8 14       		.byte	0x14
 5008 0dc9 18       		.uleb128 0x18
 5009 0dca 09120000 		.4byte	.LASF213
 5010 0dce 12       		.byte	0x12
 5011 0dcf 9B01     		.2byte	0x19b
 5012 0dd1 160D0000 		.4byte	0xd16
 5013 0dd5 18       		.byte	0x18
 5014 0dd6 00       		.byte	0
 5015 0dd7 04       		.uleb128 0x4
 5016 0dd8 31200000 		.4byte	.LASF214
 5017 0ddc 11       		.byte	0x11
 5018 0ddd 5C       		.byte	0x5c
 5019 0dde E20D0000 		.4byte	0xde2
 5020 0de2 05       		.uleb128 0x5
 5021 0de3 04       		.byte	0x4
 5022 0de4 E80D0000 		.4byte	0xde8
 5023 0de8 1F       		.uleb128 0x1f
 5024 0de9 F30D0000 		.4byte	0xdf3
 5025 0ded 16       		.uleb128 0x16
 5026 0dee 6B010000 		.4byte	0x16b
 5027 0df2 00       		.byte	0
 5028 0df3 04       		.uleb128 0x4
 5029 0df4 840D0000 		.4byte	.LASF215
 5030 0df8 11       		.byte	0x11
 5031 0df9 61       		.byte	0x61
 5032 0dfa FE0D0000 		.4byte	0xdfe
 5033 0dfe 1B       		.uleb128 0x1b
 5034 0dff FD230000 		.4byte	.LASF216
 5035 0e03 14       		.byte	0x14
 5036 0e04 12       		.byte	0x12
 5037 0e05 6B01     		.2byte	0x16b
 5038 0e07 4D0E0000 		.4byte	0xe4d
 5039 0e0b 18       		.uleb128 0x18
ARM GAS  /var/folders/qd/4mxf5pkd0zdf0b9dd1hp39180000gn/T//cc0H01tt.s 			page 90


 5040 0e0c A60D0000 		.4byte	.LASF217
 5041 0e10 12       		.byte	0x12
 5042 0e11 6C01     		.2byte	0x16c
 5043 0e13 9A1A0000 		.4byte	0x1a9a
 5044 0e17 00       		.byte	0
 5045 0e18 18       		.uleb128 0x18
 5046 0e19 320A0000 		.4byte	.LASF218
 5047 0e1d 12       		.byte	0x12
 5048 0e1e 6D01     		.2byte	0x16d
 5049 0e20 9A1A0000 		.4byte	0x1a9a
 5050 0e24 04       		.byte	0x4
 5051 0e25 18       		.uleb128 0x18
 5052 0e26 3E170000 		.4byte	.LASF219
 5053 0e2a 12       		.byte	0x12
 5054 0e2b 6E01     		.2byte	0x16e
 5055 0e2d D20B0000 		.4byte	0xbd2
 5056 0e31 08       		.byte	0x8
 5057 0e32 18       		.uleb128 0x18
 5058 0e33 E8230000 		.4byte	.LASF220
 5059 0e37 12       		.byte	0x12
 5060 0e38 6F01     		.2byte	0x16f
 5061 0e3a D70D0000 		.4byte	0xdd7
 5062 0e3e 0C       		.byte	0xc
 5063 0e3f 18       		.uleb128 0x18
 5064 0e40 400B0000 		.4byte	.LASF221
 5065 0e44 12       		.byte	0x12
 5066 0e45 7101     		.2byte	0x171
 5067 0e47 6B010000 		.4byte	0x16b
 5068 0e4b 10       		.byte	0x10
 5069 0e4c 00       		.byte	0
 5070 0e4d 04       		.uleb128 0x4
 5071 0e4e 56250000 		.4byte	.LASF222
 5072 0e52 11       		.byte	0x11
 5073 0e53 66       		.byte	0x66
 5074 0e54 580E0000 		.4byte	0xe58
 5075 0e58 1B       		.uleb128 0x1b
 5076 0e59 C0030000 		.4byte	.LASF223
 5077 0e5d 10       		.byte	0x10
 5078 0e5e 12       		.byte	0x12
 5079 0e5f 7B01     		.2byte	0x17b
 5080 0e61 9A0E0000 		.4byte	0xe9a
 5081 0e65 18       		.uleb128 0x18
 5082 0e66 A60D0000 		.4byte	.LASF217
 5083 0e6a 12       		.byte	0x12
 5084 0e6b 7C01     		.2byte	0x17c
 5085 0e6d 9A1A0000 		.4byte	0x1a9a
 5086 0e71 00       		.byte	0
 5087 0e72 18       		.uleb128 0x18
 5088 0e73 320A0000 		.4byte	.LASF218
 5089 0e77 12       		.byte	0x12
 5090 0e78 7E01     		.2byte	0x17e
 5091 0e7a 9A1A0000 		.4byte	0x1a9a
 5092 0e7e 04       		.byte	0x4
 5093 0e7f 18       		.uleb128 0x18
 5094 0e80 3E170000 		.4byte	.LASF219
 5095 0e84 12       		.byte	0x12
 5096 0e85 8001     		.2byte	0x180
ARM GAS  /var/folders/qd/4mxf5pkd0zdf0b9dd1hp39180000gn/T//cc0H01tt.s 			page 91


 5097 0e87 D20B0000 		.4byte	0xbd2
 5098 0e8b 08       		.byte	0x8
 5099 0e8c 18       		.uleb128 0x18
 5100 0e8d B2010000 		.4byte	.LASF224
 5101 0e91 12       		.byte	0x12
 5102 0e92 8201     		.2byte	0x182
 5103 0e94 DD0B0000 		.4byte	0xbdd
 5104 0e98 0C       		.byte	0xc
 5105 0e99 00       		.byte	0
 5106 0e9a 04       		.uleb128 0x4
 5107 0e9b 180B0000 		.4byte	.LASF225
 5108 0e9f 11       		.byte	0x11
 5109 0ea0 6B       		.byte	0x6b
 5110 0ea1 A50E0000 		.4byte	0xea5
 5111 0ea5 17       		.uleb128 0x17
 5112 0ea6 62210000 		.4byte	.LASF226
 5113 0eaa 1404     		.2byte	0x414
 5114 0eac 12       		.byte	0x12
 5115 0ead A201     		.2byte	0x1a2
 5116 0eaf E80E0000 		.4byte	0xee8
 5117 0eb3 18       		.uleb128 0x18
 5118 0eb4 4B160000 		.4byte	.LASF227
 5119 0eb8 12       		.byte	0x12
 5120 0eb9 AA01     		.2byte	0x1aa
 5121 0ebb F1050000 		.4byte	0x5f1
 5122 0ebf 00       		.byte	0
 5123 0ec0 18       		.uleb128 0x18
 5124 0ec1 18160000 		.4byte	.LASF228
 5125 0ec5 12       		.byte	0x12
 5126 0ec6 AF01     		.2byte	0x1af
 5127 0ec8 BC0B0000 		.4byte	0xbbc
 5128 0ecc 04       		.byte	0x4
 5129 0ecd 18       		.uleb128 0x18
 5130 0ece 99020000 		.4byte	.LASF229
 5131 0ed2 12       		.byte	0x12
 5132 0ed3 B301     		.2byte	0x1b3
 5133 0ed5 BC0B0000 		.4byte	0xbbc
 5134 0ed9 08       		.byte	0x8
 5135 0eda 18       		.uleb128 0x18
 5136 0edb E8190000 		.4byte	.LASF230
 5137 0edf 12       		.byte	0x12
 5138 0ee0 B901     		.2byte	0x1b9
 5139 0ee2 06190000 		.4byte	0x1906
 5140 0ee6 0C       		.byte	0xc
 5141 0ee7 00       		.byte	0
 5142 0ee8 04       		.uleb128 0x4
 5143 0ee9 F0000000 		.4byte	.LASF231
 5144 0eed 11       		.byte	0x11
 5145 0eee 70       		.byte	0x70
 5146 0eef F30E0000 		.4byte	0xef3
 5147 0ef3 17       		.uleb128 0x17
 5148 0ef4 D8190000 		.4byte	.LASF232
 5149 0ef8 7006     		.2byte	0x670
 5150 0efa 12       		.byte	0x12
 5151 0efb C201     		.2byte	0x1c2
 5152 0efd 600F0000 		.4byte	0xf60
 5153 0f01 18       		.uleb128 0x18
ARM GAS  /var/folders/qd/4mxf5pkd0zdf0b9dd1hp39180000gn/T//cc0H01tt.s 			page 92


 5154 0f02 D8050000 		.4byte	.LASF233
 5155 0f06 12       		.byte	0x12
 5156 0f07 C601     		.2byte	0x1c6
 5157 0f09 700D0000 		.4byte	0xd70
 5158 0f0d 00       		.byte	0
 5159 0f0e 18       		.uleb128 0x18
 5160 0f0f 84050000 		.4byte	.LASF234
 5161 0f13 12       		.byte	0x12
 5162 0f14 CA01     		.2byte	0x1ca
 5163 0f16 4D0E0000 		.4byte	0xe4d
 5164 0f1a 1C       		.byte	0x1c
 5165 0f1b 27       		.uleb128 0x27
 5166 0f1c 64626700 		.ascii	"dbg\000"
 5167 0f20 12       		.byte	0x12
 5168 0f21 CE01     		.2byte	0x1ce
 5169 0f23 9A0E0000 		.4byte	0xe9a
 5170 0f27 2C       		.byte	0x2c
 5171 0f28 19       		.uleb128 0x19
 5172 0f29 F61A0000 		.4byte	.LASF235
 5173 0f2d 12       		.byte	0x12
 5174 0f2e D201     		.2byte	0x1d2
 5175 0f30 E20B0000 		.4byte	0xbe2
 5176 0f34 4004     		.2byte	0x440
 5177 0f36 28       		.uleb128 0x28
 5178 0f37 746D00   		.ascii	"tm\000"
 5179 0f3a 12       		.byte	0x12
 5180 0f3b D701     		.2byte	0x1d7
 5181 0f3d 26190000 		.4byte	0x1926
 5182 0f41 A804     		.2byte	0x4a8
 5183 0f43 19       		.uleb128 0x19
 5184 0f44 101F0000 		.4byte	.LASF236
 5185 0f48 12       		.byte	0x12
 5186 0f49 DD01     		.2byte	0x1dd
 5187 0f4b B8190000 		.4byte	0x19b8
 5188 0f4f B004     		.2byte	0x4b0
 5189 0f51 19       		.uleb128 0x19
 5190 0f52 BD230000 		.4byte	.LASF237
 5191 0f56 12       		.byte	0x12
 5192 0f57 E301     		.2byte	0x1e3
 5193 0f59 A01A0000 		.4byte	0x1aa0
 5194 0f5d E804     		.2byte	0x4e8
 5195 0f5f 00       		.byte	0
 5196 0f60 0A       		.uleb128 0xa
 5197 0f61 2E0B0000 		.4byte	0xb2e
 5198 0f65 700F0000 		.4byte	0xf70
 5199 0f69 0B       		.uleb128 0xb
 5200 0f6a 2C000000 		.4byte	0x2c
 5201 0f6e 01       		.byte	0x1
 5202 0f6f 00       		.byte	0
 5203 0f70 0A       		.uleb128 0xa
 5204 0f71 2E0B0000 		.4byte	0xb2e
 5205 0f75 800F0000 		.4byte	0xf80
 5206 0f79 0B       		.uleb128 0xb
 5207 0f7a 2C000000 		.4byte	0x2c
 5208 0f7e 07       		.byte	0x7
 5209 0f7f 00       		.byte	0
 5210 0f80 20       		.uleb128 0x20
ARM GAS  /var/folders/qd/4mxf5pkd0zdf0b9dd1hp39180000gn/T//cc0H01tt.s 			page 93


 5211 0f81 1E230000 		.4byte	.LASF238
 5212 0f85 13       		.byte	0x13
 5213 0f86 A706     		.2byte	0x6a7
 5214 0f88 290B0000 		.4byte	0xb29
 5215 0f8c 25       		.uleb128 0x25
 5216 0f8d F1180000 		.4byte	.LASF239
 5217 0f91 14       		.byte	0x14
 5218 0f92 4C       		.byte	0x4c
 5219 0f93 2E0B0000 		.4byte	0xb2e
 5220 0f97 0C       		.uleb128 0xc
 5221 0f98 50       		.byte	0x50
 5222 0f99 15       		.byte	0x15
 5223 0f9a C4       		.byte	0xc4
 5224 0f9b 8E100000 		.4byte	0x108e
 5225 0f9f 11       		.uleb128 0x11
 5226 0fa0 535200   		.ascii	"SR\000"
 5227 0fa3 15       		.byte	0x15
 5228 0fa4 C6       		.byte	0xc6
 5229 0fa5 390B0000 		.4byte	0xb39
 5230 0fa9 00       		.byte	0
 5231 0faa 11       		.uleb128 0x11
 5232 0fab 43523100 		.ascii	"CR1\000"
 5233 0faf 15       		.byte	0x15
 5234 0fb0 C7       		.byte	0xc7
 5235 0fb1 390B0000 		.4byte	0xb39
 5236 0fb5 04       		.byte	0x4
 5237 0fb6 11       		.uleb128 0x11
 5238 0fb7 43523200 		.ascii	"CR2\000"
 5239 0fbb 15       		.byte	0x15
 5240 0fbc C8       		.byte	0xc8
 5241 0fbd 390B0000 		.4byte	0xb39
 5242 0fc1 08       		.byte	0x8
 5243 0fc2 0D       		.uleb128 0xd
 5244 0fc3 EE020000 		.4byte	.LASF240
 5245 0fc7 15       		.byte	0x15
 5246 0fc8 C9       		.byte	0xc9
 5247 0fc9 390B0000 		.4byte	0xb39
 5248 0fcd 0C       		.byte	0xc
 5249 0fce 0D       		.uleb128 0xd
 5250 0fcf F4020000 		.4byte	.LASF241
 5251 0fd3 15       		.byte	0x15
 5252 0fd4 CA       		.byte	0xca
 5253 0fd5 390B0000 		.4byte	0xb39
 5254 0fd9 10       		.byte	0x10
 5255 0fda 0D       		.uleb128 0xd
 5256 0fdb 470B0000 		.4byte	.LASF242
 5257 0fdf 15       		.byte	0x15
 5258 0fe0 CB       		.byte	0xcb
 5259 0fe1 390B0000 		.4byte	0xb39
 5260 0fe5 14       		.byte	0x14
 5261 0fe6 0D       		.uleb128 0xd
 5262 0fe7 4D0B0000 		.4byte	.LASF243
 5263 0feb 15       		.byte	0x15
 5264 0fec CC       		.byte	0xcc
 5265 0fed 390B0000 		.4byte	0xb39
 5266 0ff1 18       		.byte	0x18
 5267 0ff2 0D       		.uleb128 0xd
ARM GAS  /var/folders/qd/4mxf5pkd0zdf0b9dd1hp39180000gn/T//cc0H01tt.s 			page 94


 5268 0ff3 BC120000 		.4byte	.LASF244
 5269 0ff7 15       		.byte	0x15
 5270 0ff8 CD       		.byte	0xcd
 5271 0ff9 390B0000 		.4byte	0xb39
 5272 0ffd 1C       		.byte	0x1c
 5273 0ffe 0D       		.uleb128 0xd
 5274 0fff 530B0000 		.4byte	.LASF245
 5275 1003 15       		.byte	0x15
 5276 1004 CE       		.byte	0xce
 5277 1005 390B0000 		.4byte	0xb39
 5278 1009 20       		.byte	0x20
 5279 100a 11       		.uleb128 0x11
 5280 100b 48545200 		.ascii	"HTR\000"
 5281 100f 15       		.byte	0x15
 5282 1010 CF       		.byte	0xcf
 5283 1011 390B0000 		.4byte	0xb39
 5284 1015 24       		.byte	0x24
 5285 1016 11       		.uleb128 0x11
 5286 1017 4C545200 		.ascii	"LTR\000"
 5287 101b 15       		.byte	0x15
 5288 101c D0       		.byte	0xd0
 5289 101d 390B0000 		.4byte	0xb39
 5290 1021 28       		.byte	0x28
 5291 1022 0D       		.uleb128 0xd
 5292 1023 E8140000 		.4byte	.LASF246
 5293 1027 15       		.byte	0x15
 5294 1028 D1       		.byte	0xd1
 5295 1029 390B0000 		.4byte	0xb39
 5296 102d 2C       		.byte	0x2c
 5297 102e 0D       		.uleb128 0xd
 5298 102f ED140000 		.4byte	.LASF247
 5299 1033 15       		.byte	0x15
 5300 1034 D2       		.byte	0xd2
 5301 1035 390B0000 		.4byte	0xb39
 5302 1039 30       		.byte	0x30
 5303 103a 0D       		.uleb128 0xd
 5304 103b F2140000 		.4byte	.LASF248
 5305 103f 15       		.byte	0x15
 5306 1040 D3       		.byte	0xd3
 5307 1041 390B0000 		.4byte	0xb39
 5308 1045 34       		.byte	0x34
 5309 1046 0D       		.uleb128 0xd
 5310 1047 5D0D0000 		.4byte	.LASF249
 5311 104b 15       		.byte	0x15
 5312 104c D4       		.byte	0xd4
 5313 104d 390B0000 		.4byte	0xb39
 5314 1051 38       		.byte	0x38
 5315 1052 0D       		.uleb128 0xd
 5316 1053 FE240000 		.4byte	.LASF250
 5317 1057 15       		.byte	0x15
 5318 1058 D5       		.byte	0xd5
 5319 1059 390B0000 		.4byte	0xb39
 5320 105d 3C       		.byte	0x3c
 5321 105e 0D       		.uleb128 0xd
 5322 105f B70D0000 		.4byte	.LASF251
 5323 1063 15       		.byte	0x15
 5324 1064 D6       		.byte	0xd6
ARM GAS  /var/folders/qd/4mxf5pkd0zdf0b9dd1hp39180000gn/T//cc0H01tt.s 			page 95


 5325 1065 390B0000 		.4byte	0xb39
 5326 1069 40       		.byte	0x40
 5327 106a 0D       		.uleb128 0xd
 5328 106b 12250000 		.4byte	.LASF252
 5329 106f 15       		.byte	0x15
 5330 1070 D7       		.byte	0xd7
 5331 1071 390B0000 		.4byte	0xb39
 5332 1075 44       		.byte	0x44
 5333 1076 0D       		.uleb128 0xd
 5334 1077 17250000 		.4byte	.LASF253
 5335 107b 15       		.byte	0x15
 5336 107c D8       		.byte	0xd8
 5337 107d 390B0000 		.4byte	0xb39
 5338 1081 48       		.byte	0x48
 5339 1082 11       		.uleb128 0x11
 5340 1083 445200   		.ascii	"DR\000"
 5341 1086 15       		.byte	0x15
 5342 1087 D9       		.byte	0xd9
 5343 1088 390B0000 		.4byte	0xb39
 5344 108c 4C       		.byte	0x4c
 5345 108d 00       		.byte	0
 5346 108e 04       		.uleb128 0x4
 5347 108f 86170000 		.4byte	.LASF254
 5348 1093 15       		.byte	0x15
 5349 1094 DA       		.byte	0xda
 5350 1095 970F0000 		.4byte	0xf97
 5351 1099 0C       		.uleb128 0xc
 5352 109a 10       		.byte	0x10
 5353 109b 15       		.byte	0x15
 5354 109c E9       		.byte	0xe9
 5355 109d D2100000 		.4byte	0x10d2
 5356 10a1 11       		.uleb128 0x11
 5357 10a2 54495200 		.ascii	"TIR\000"
 5358 10a6 15       		.byte	0x15
 5359 10a7 EB       		.byte	0xeb
 5360 10a8 390B0000 		.4byte	0xb39
 5361 10ac 00       		.byte	0
 5362 10ad 0D       		.uleb128 0xd
 5363 10ae 83120000 		.4byte	.LASF255
 5364 10b2 15       		.byte	0x15
 5365 10b3 EC       		.byte	0xec
 5366 10b4 390B0000 		.4byte	0xb39
 5367 10b8 04       		.byte	0x4
 5368 10b9 0D       		.uleb128 0xd
 5369 10ba DC1A0000 		.4byte	.LASF256
 5370 10be 15       		.byte	0x15
 5371 10bf ED       		.byte	0xed
 5372 10c0 390B0000 		.4byte	0xb39
 5373 10c4 08       		.byte	0x8
 5374 10c5 0D       		.uleb128 0xd
 5375 10c6 E8170000 		.4byte	.LASF257
 5376 10ca 15       		.byte	0x15
 5377 10cb EE       		.byte	0xee
 5378 10cc 390B0000 		.4byte	0xb39
 5379 10d0 0C       		.byte	0xc
 5380 10d1 00       		.byte	0
 5381 10d2 04       		.uleb128 0x4
ARM GAS  /var/folders/qd/4mxf5pkd0zdf0b9dd1hp39180000gn/T//cc0H01tt.s 			page 96


 5382 10d3 C2050000 		.4byte	.LASF258
 5383 10d7 15       		.byte	0x15
 5384 10d8 EF       		.byte	0xef
 5385 10d9 99100000 		.4byte	0x1099
 5386 10dd 0C       		.uleb128 0xc
 5387 10de 10       		.byte	0x10
 5388 10df 15       		.byte	0x15
 5389 10e0 F5       		.byte	0xf5
 5390 10e1 16110000 		.4byte	0x1116
 5391 10e5 11       		.uleb128 0x11
 5392 10e6 52495200 		.ascii	"RIR\000"
 5393 10ea 15       		.byte	0x15
 5394 10eb F7       		.byte	0xf7
 5395 10ec 390B0000 		.4byte	0xb39
 5396 10f0 00       		.byte	0
 5397 10f1 0D       		.uleb128 0xd
 5398 10f2 12210000 		.4byte	.LASF259
 5399 10f6 15       		.byte	0x15
 5400 10f7 F8       		.byte	0xf8
 5401 10f8 390B0000 		.4byte	0xb39
 5402 10fc 04       		.byte	0x4
 5403 10fd 0D       		.uleb128 0xd
 5404 10fe 551C0000 		.4byte	.LASF260
 5405 1102 15       		.byte	0x15
 5406 1103 F9       		.byte	0xf9
 5407 1104 390B0000 		.4byte	0xb39
 5408 1108 08       		.byte	0x8
 5409 1109 0D       		.uleb128 0xd
 5410 110a 87190000 		.4byte	.LASF261
 5411 110e 15       		.byte	0x15
 5412 110f FA       		.byte	0xfa
 5413 1110 390B0000 		.4byte	0xb39
 5414 1114 0C       		.byte	0xc
 5415 1115 00       		.byte	0
 5416 1116 04       		.uleb128 0x4
 5417 1117 3A200000 		.4byte	.LASF262
 5418 111b 15       		.byte	0x15
 5419 111c FB       		.byte	0xfb
 5420 111d DD100000 		.4byte	0x10dd
 5421 1121 1C       		.uleb128 0x1c
 5422 1122 08       		.byte	0x8
 5423 1123 15       		.byte	0x15
 5424 1124 0101     		.2byte	0x101
 5425 1126 45110000 		.4byte	0x1145
 5426 112a 27       		.uleb128 0x27
 5427 112b 46523100 		.ascii	"FR1\000"
 5428 112f 15       		.byte	0x15
 5429 1130 0301     		.2byte	0x103
 5430 1132 390B0000 		.4byte	0xb39
 5431 1136 00       		.byte	0
 5432 1137 27       		.uleb128 0x27
 5433 1138 46523200 		.ascii	"FR2\000"
 5434 113c 15       		.byte	0x15
 5435 113d 0401     		.2byte	0x104
 5436 113f 390B0000 		.4byte	0xb39
 5437 1143 04       		.byte	0x4
 5438 1144 00       		.byte	0
ARM GAS  /var/folders/qd/4mxf5pkd0zdf0b9dd1hp39180000gn/T//cc0H01tt.s 			page 97


 5439 1145 07       		.uleb128 0x7
 5440 1146 88120000 		.4byte	.LASF263
 5441 114a 15       		.byte	0x15
 5442 114b 0501     		.2byte	0x105
 5443 114d 21110000 		.4byte	0x1121
 5444 1151 29       		.uleb128 0x29
 5445 1152 2003     		.2byte	0x320
 5446 1154 15       		.byte	0x15
 5447 1155 0B01     		.2byte	0x10b
 5448 1157 87120000 		.4byte	0x1287
 5449 115b 27       		.uleb128 0x27
 5450 115c 4D435200 		.ascii	"MCR\000"
 5451 1160 15       		.byte	0x15
 5452 1161 0D01     		.2byte	0x10d
 5453 1163 390B0000 		.4byte	0xb39
 5454 1167 00       		.byte	0
 5455 1168 27       		.uleb128 0x27
 5456 1169 4D535200 		.ascii	"MSR\000"
 5457 116d 15       		.byte	0x15
 5458 116e 0E01     		.2byte	0x10e
 5459 1170 390B0000 		.4byte	0xb39
 5460 1174 04       		.byte	0x4
 5461 1175 27       		.uleb128 0x27
 5462 1176 54535200 		.ascii	"TSR\000"
 5463 117a 15       		.byte	0x15
 5464 117b 0F01     		.2byte	0x10f
 5465 117d 390B0000 		.4byte	0xb39
 5466 1181 08       		.byte	0x8
 5467 1182 18       		.uleb128 0x18
 5468 1183 A50F0000 		.4byte	.LASF264
 5469 1187 15       		.byte	0x15
 5470 1188 1001     		.2byte	0x110
 5471 118a 390B0000 		.4byte	0xb39
 5472 118e 0C       		.byte	0xc
 5473 118f 18       		.uleb128 0x18
 5474 1190 AA1C0000 		.4byte	.LASF265
 5475 1194 15       		.byte	0x15
 5476 1195 1101     		.2byte	0x111
 5477 1197 390B0000 		.4byte	0xb39
 5478 119b 10       		.byte	0x10
 5479 119c 27       		.uleb128 0x27
 5480 119d 49455200 		.ascii	"IER\000"
 5481 11a1 15       		.byte	0x15
 5482 11a2 1201     		.2byte	0x112
 5483 11a4 390B0000 		.4byte	0xb39
 5484 11a8 14       		.byte	0x14
 5485 11a9 27       		.uleb128 0x27
 5486 11aa 45535200 		.ascii	"ESR\000"
 5487 11ae 15       		.byte	0x15
 5488 11af 1301     		.2byte	0x113
 5489 11b1 390B0000 		.4byte	0xb39
 5490 11b5 18       		.byte	0x18
 5491 11b6 27       		.uleb128 0x27
 5492 11b7 42545200 		.ascii	"BTR\000"
 5493 11bb 15       		.byte	0x15
 5494 11bc 1401     		.2byte	0x114
 5495 11be 390B0000 		.4byte	0xb39
ARM GAS  /var/folders/qd/4mxf5pkd0zdf0b9dd1hp39180000gn/T//cc0H01tt.s 			page 98


 5496 11c2 1C       		.byte	0x1c
 5497 11c3 18       		.uleb128 0x18
 5498 11c4 41220000 		.4byte	.LASF266
 5499 11c8 15       		.byte	0x15
 5500 11c9 1501     		.2byte	0x115
 5501 11cb 87120000 		.4byte	0x1287
 5502 11cf 20       		.byte	0x20
 5503 11d0 19       		.uleb128 0x19
 5504 11d1 99130000 		.4byte	.LASF267
 5505 11d5 15       		.byte	0x15
 5506 11d6 1601     		.2byte	0x116
 5507 11d8 97120000 		.4byte	0x1297
 5508 11dc 8001     		.2byte	0x180
 5509 11de 19       		.uleb128 0x19
 5510 11df F8260000 		.4byte	.LASF268
 5511 11e3 15       		.byte	0x15
 5512 11e4 1701     		.2byte	0x117
 5513 11e6 A7120000 		.4byte	0x12a7
 5514 11ea B001     		.2byte	0x1b0
 5515 11ec 19       		.uleb128 0x19
 5516 11ed 4B220000 		.4byte	.LASF269
 5517 11f1 15       		.byte	0x15
 5518 11f2 1801     		.2byte	0x118
 5519 11f4 B7120000 		.4byte	0x12b7
 5520 11f8 D001     		.2byte	0x1d0
 5521 11fa 28       		.uleb128 0x28
 5522 11fb 464D5200 		.ascii	"FMR\000"
 5523 11ff 15       		.byte	0x15
 5524 1200 1901     		.2byte	0x119
 5525 1202 390B0000 		.4byte	0xb39
 5526 1206 0002     		.2byte	0x200
 5527 1208 19       		.uleb128 0x19
 5528 1209 D20B0000 		.4byte	.LASF270
 5529 120d 15       		.byte	0x15
 5530 120e 1A01     		.2byte	0x11a
 5531 1210 390B0000 		.4byte	0xb39
 5532 1214 0402     		.2byte	0x204
 5533 1216 19       		.uleb128 0x19
 5534 1217 55220000 		.4byte	.LASF271
 5535 121b 15       		.byte	0x15
 5536 121c 1B01     		.2byte	0x11b
 5537 121e 2E0B0000 		.4byte	0xb2e
 5538 1222 0802     		.2byte	0x208
 5539 1224 19       		.uleb128 0x19
 5540 1225 56240000 		.4byte	.LASF272
 5541 1229 15       		.byte	0x15
 5542 122a 1C01     		.2byte	0x11c
 5543 122c 390B0000 		.4byte	0xb39
 5544 1230 0C02     		.2byte	0x20c
 5545 1232 19       		.uleb128 0x19
 5546 1233 5F220000 		.4byte	.LASF273
 5547 1237 15       		.byte	0x15
 5548 1238 1D01     		.2byte	0x11d
 5549 123a 2E0B0000 		.4byte	0xb2e
 5550 123e 1002     		.2byte	0x210
 5551 1240 19       		.uleb128 0x19
 5552 1241 A41C0000 		.4byte	.LASF274
ARM GAS  /var/folders/qd/4mxf5pkd0zdf0b9dd1hp39180000gn/T//cc0H01tt.s 			page 99


 5553 1245 15       		.byte	0x15
 5554 1246 1E01     		.2byte	0x11e
 5555 1248 390B0000 		.4byte	0xb39
 5556 124c 1402     		.2byte	0x214
 5557 124e 19       		.uleb128 0x19
 5558 124f 69220000 		.4byte	.LASF275
 5559 1253 15       		.byte	0x15
 5560 1254 1F01     		.2byte	0x11f
 5561 1256 2E0B0000 		.4byte	0xb2e
 5562 125a 1802     		.2byte	0x218
 5563 125c 19       		.uleb128 0x19
 5564 125d 9C040000 		.4byte	.LASF276
 5565 1261 15       		.byte	0x15
 5566 1262 2001     		.2byte	0x120
 5567 1264 390B0000 		.4byte	0xb39
 5568 1268 1C02     		.2byte	0x21c
 5569 126a 19       		.uleb128 0x19
 5570 126b 73220000 		.4byte	.LASF277
 5571 126f 15       		.byte	0x15
 5572 1270 2101     		.2byte	0x121
 5573 1272 700F0000 		.4byte	0xf70
 5574 1276 2002     		.2byte	0x220
 5575 1278 19       		.uleb128 0x19
 5576 1279 71060000 		.4byte	.LASF278
 5577 127d 15       		.byte	0x15
 5578 127e 2201     		.2byte	0x122
 5579 1280 C7120000 		.4byte	0x12c7
 5580 1284 4002     		.2byte	0x240
 5581 1286 00       		.byte	0
 5582 1287 0A       		.uleb128 0xa
 5583 1288 2E0B0000 		.4byte	0xb2e
 5584 128c 97120000 		.4byte	0x1297
 5585 1290 0B       		.uleb128 0xb
 5586 1291 2C000000 		.4byte	0x2c
 5587 1295 57       		.byte	0x57
 5588 1296 00       		.byte	0
 5589 1297 0A       		.uleb128 0xa
 5590 1298 D2100000 		.4byte	0x10d2
 5591 129c A7120000 		.4byte	0x12a7
 5592 12a0 0B       		.uleb128 0xb
 5593 12a1 2C000000 		.4byte	0x2c
 5594 12a5 02       		.byte	0x2
 5595 12a6 00       		.byte	0
 5596 12a7 0A       		.uleb128 0xa
 5597 12a8 16110000 		.4byte	0x1116
 5598 12ac B7120000 		.4byte	0x12b7
 5599 12b0 0B       		.uleb128 0xb
 5600 12b1 2C000000 		.4byte	0x2c
 5601 12b5 01       		.byte	0x1
 5602 12b6 00       		.byte	0
 5603 12b7 0A       		.uleb128 0xa
 5604 12b8 2E0B0000 		.4byte	0xb2e
 5605 12bc C7120000 		.4byte	0x12c7
 5606 12c0 0B       		.uleb128 0xb
 5607 12c1 2C000000 		.4byte	0x2c
 5608 12c5 0B       		.byte	0xb
 5609 12c6 00       		.byte	0
ARM GAS  /var/folders/qd/4mxf5pkd0zdf0b9dd1hp39180000gn/T//cc0H01tt.s 			page 100


 5610 12c7 0A       		.uleb128 0xa
 5611 12c8 45110000 		.4byte	0x1145
 5612 12cc D7120000 		.4byte	0x12d7
 5613 12d0 0B       		.uleb128 0xb
 5614 12d1 2C000000 		.4byte	0x2c
 5615 12d5 1B       		.byte	0x1b
 5616 12d6 00       		.byte	0
 5617 12d7 07       		.uleb128 0x7
 5618 12d8 730E0000 		.4byte	.LASF279
 5619 12dc 15       		.byte	0x15
 5620 12dd 2301     		.2byte	0x123
 5621 12df 51110000 		.4byte	0x1151
 5622 12e3 1C       		.uleb128 0x1c
 5623 12e4 38       		.byte	0x38
 5624 12e5 15       		.byte	0x15
 5625 12e6 3601     		.2byte	0x136
 5626 12e8 A1130000 		.4byte	0x13a1
 5627 12ec 27       		.uleb128 0x27
 5628 12ed 435200   		.ascii	"CR\000"
 5629 12f0 15       		.byte	0x15
 5630 12f1 3801     		.2byte	0x138
 5631 12f3 390B0000 		.4byte	0xb39
 5632 12f7 00       		.byte	0
 5633 12f8 18       		.uleb128 0x18
 5634 12f9 61190000 		.4byte	.LASF280
 5635 12fd 15       		.byte	0x15
 5636 12fe 3901     		.2byte	0x139
 5637 1300 390B0000 		.4byte	0xb39
 5638 1304 04       		.byte	0x4
 5639 1305 18       		.uleb128 0x18
 5640 1306 8F220000 		.4byte	.LASF281
 5641 130a 15       		.byte	0x15
 5642 130b 3A01     		.2byte	0x13a
 5643 130d 390B0000 		.4byte	0xb39
 5644 1311 08       		.byte	0x8
 5645 1312 18       		.uleb128 0x18
 5646 1313 DE1E0000 		.4byte	.LASF282
 5647 1317 15       		.byte	0x15
 5648 1318 3B01     		.2byte	0x13b
 5649 131a 390B0000 		.4byte	0xb39
 5650 131e 0C       		.byte	0xc
 5651 131f 18       		.uleb128 0x18
 5652 1320 270B0000 		.4byte	.LASF283
 5653 1324 15       		.byte	0x15
 5654 1325 3C01     		.2byte	0x13c
 5655 1327 390B0000 		.4byte	0xb39
 5656 132b 10       		.byte	0x10
 5657 132c 18       		.uleb128 0x18
 5658 132d 97220000 		.4byte	.LASF284
 5659 1331 15       		.byte	0x15
 5660 1332 3D01     		.2byte	0x13d
 5661 1334 390B0000 		.4byte	0xb39
 5662 1338 14       		.byte	0x14
 5663 1339 18       		.uleb128 0x18
 5664 133a E61E0000 		.4byte	.LASF285
 5665 133e 15       		.byte	0x15
 5666 133f 3E01     		.2byte	0x13e
ARM GAS  /var/folders/qd/4mxf5pkd0zdf0b9dd1hp39180000gn/T//cc0H01tt.s 			page 101


 5667 1341 390B0000 		.4byte	0xb39
 5668 1345 18       		.byte	0x18
 5669 1346 18       		.uleb128 0x18
 5670 1347 2E0B0000 		.4byte	.LASF286
 5671 134b 15       		.byte	0x15
 5672 134c 3F01     		.2byte	0x13f
 5673 134e 390B0000 		.4byte	0xb39
 5674 1352 1C       		.byte	0x1c
 5675 1353 18       		.uleb128 0x18
 5676 1354 DE220000 		.4byte	.LASF287
 5677 1358 15       		.byte	0x15
 5678 1359 4001     		.2byte	0x140
 5679 135b 390B0000 		.4byte	0xb39
 5680 135f 20       		.byte	0x20
 5681 1360 18       		.uleb128 0x18
 5682 1361 081F0000 		.4byte	.LASF288
 5683 1365 15       		.byte	0x15
 5684 1366 4101     		.2byte	0x141
 5685 1368 390B0000 		.4byte	0xb39
 5686 136c 24       		.byte	0x24
 5687 136d 18       		.uleb128 0x18
 5688 136e 0F270000 		.4byte	.LASF289
 5689 1372 15       		.byte	0x15
 5690 1373 4201     		.2byte	0x142
 5691 1375 390B0000 		.4byte	0xb39
 5692 1379 28       		.byte	0x28
 5693 137a 18       		.uleb128 0x18
 5694 137b BD010000 		.4byte	.LASF290
 5695 137f 15       		.byte	0x15
 5696 1380 4301     		.2byte	0x143
 5697 1382 390B0000 		.4byte	0xb39
 5698 1386 2C       		.byte	0x2c
 5699 1387 18       		.uleb128 0x18
 5700 1388 C2010000 		.4byte	.LASF291
 5701 138c 15       		.byte	0x15
 5702 138d 4401     		.2byte	0x144
 5703 138f 390B0000 		.4byte	0xb39
 5704 1393 30       		.byte	0x30
 5705 1394 27       		.uleb128 0x27
 5706 1395 535200   		.ascii	"SR\000"
 5707 1398 15       		.byte	0x15
 5708 1399 4501     		.2byte	0x145
 5709 139b 390B0000 		.4byte	0xb39
 5710 139f 34       		.byte	0x34
 5711 13a0 00       		.byte	0
 5712 13a1 07       		.uleb128 0x7
 5713 13a2 52200000 		.4byte	.LASF292
 5714 13a6 15       		.byte	0x15
 5715 13a7 4601     		.2byte	0x146
 5716 13a9 E3120000 		.4byte	0x12e3
 5717 13ad 1C       		.uleb128 0x1c
 5718 13ae 18       		.byte	0x18
 5719 13af 15       		.byte	0x15
 5720 13b0 6B01     		.2byte	0x16b
 5721 13b2 04140000 		.4byte	0x1404
 5722 13b6 27       		.uleb128 0x27
 5723 13b7 435200   		.ascii	"CR\000"
ARM GAS  /var/folders/qd/4mxf5pkd0zdf0b9dd1hp39180000gn/T//cc0H01tt.s 			page 102


 5724 13ba 15       		.byte	0x15
 5725 13bb 6D01     		.2byte	0x16d
 5726 13bd 390B0000 		.4byte	0xb39
 5727 13c1 00       		.byte	0
 5728 13c2 18       		.uleb128 0x18
 5729 13c3 99230000 		.4byte	.LASF293
 5730 13c7 15       		.byte	0x15
 5731 13c8 6E01     		.2byte	0x16e
 5732 13ca 390B0000 		.4byte	0xb39
 5733 13ce 04       		.byte	0x4
 5734 13cf 27       		.uleb128 0x27
 5735 13d0 50415200 		.ascii	"PAR\000"
 5736 13d4 15       		.byte	0x15
 5737 13d5 6F01     		.2byte	0x16f
 5738 13d7 390B0000 		.4byte	0xb39
 5739 13db 08       		.byte	0x8
 5740 13dc 18       		.uleb128 0x18
 5741 13dd 30040000 		.4byte	.LASF294
 5742 13e1 15       		.byte	0x15
 5743 13e2 7001     		.2byte	0x170
 5744 13e4 390B0000 		.4byte	0xb39
 5745 13e8 0C       		.byte	0xc
 5746 13e9 18       		.uleb128 0x18
 5747 13ea EA080000 		.4byte	.LASF295
 5748 13ee 15       		.byte	0x15
 5749 13ef 7101     		.2byte	0x171
 5750 13f1 390B0000 		.4byte	0xb39
 5751 13f5 10       		.byte	0x10
 5752 13f6 27       		.uleb128 0x27
 5753 13f7 46435200 		.ascii	"FCR\000"
 5754 13fb 15       		.byte	0x15
 5755 13fc 7201     		.2byte	0x172
 5756 13fe 390B0000 		.4byte	0xb39
 5757 1402 14       		.byte	0x14
 5758 1403 00       		.byte	0
 5759 1404 07       		.uleb128 0x7
 5760 1405 F4080000 		.4byte	.LASF296
 5761 1409 15       		.byte	0x15
 5762 140a 7301     		.2byte	0x173
 5763 140c AD130000 		.4byte	0x13ad
 5764 1410 0A       		.uleb128 0xa
 5765 1411 390B0000 		.4byte	0xb39
 5766 1415 20140000 		.4byte	0x1420
 5767 1419 0B       		.uleb128 0xb
 5768 141a 2C000000 		.4byte	0x2c
 5769 141e 01       		.byte	0x1
 5770 141f 00       		.byte	0
 5771 1420 1A       		.uleb128 0x1a
 5772 1421 10140000 		.4byte	0x1410
 5773 1425 0A       		.uleb128 0xa
 5774 1426 390B0000 		.4byte	0xb39
 5775 142a 35140000 		.4byte	0x1435
 5776 142e 0B       		.uleb128 0xb
 5777 142f 2C000000 		.4byte	0x2c
 5778 1433 03       		.byte	0x3
 5779 1434 00       		.byte	0
 5780 1435 1A       		.uleb128 0x1a
ARM GAS  /var/folders/qd/4mxf5pkd0zdf0b9dd1hp39180000gn/T//cc0H01tt.s 			page 103


 5781 1436 25140000 		.4byte	0x1425
 5782 143a 1C       		.uleb128 0x1c
 5783 143b 28       		.byte	0x28
 5784 143c 15       		.byte	0x15
 5785 143d 3F02     		.2byte	0x23f
 5786 143f C5140000 		.4byte	0x14c5
 5787 1443 27       		.uleb128 0x27
 5788 1444 43523100 		.ascii	"CR1\000"
 5789 1448 15       		.byte	0x15
 5790 1449 4102     		.2byte	0x241
 5791 144b 390B0000 		.4byte	0xb39
 5792 144f 00       		.byte	0
 5793 1450 27       		.uleb128 0x27
 5794 1451 43523200 		.ascii	"CR2\000"
 5795 1455 15       		.byte	0x15
 5796 1456 4202     		.2byte	0x242
 5797 1458 390B0000 		.4byte	0xb39
 5798 145c 04       		.byte	0x4
 5799 145d 18       		.uleb128 0x18
 5800 145e F1290000 		.4byte	.LASF297
 5801 1462 15       		.byte	0x15
 5802 1463 4302     		.2byte	0x243
 5803 1465 390B0000 		.4byte	0xb39
 5804 1469 08       		.byte	0x8
 5805 146a 18       		.uleb128 0x18
 5806 146b F6290000 		.4byte	.LASF298
 5807 146f 15       		.byte	0x15
 5808 1470 4402     		.2byte	0x244
 5809 1472 390B0000 		.4byte	0xb39
 5810 1476 0C       		.byte	0xc
 5811 1477 27       		.uleb128 0x27
 5812 1478 445200   		.ascii	"DR\000"
 5813 147b 15       		.byte	0x15
 5814 147c 4502     		.2byte	0x245
 5815 147e 390B0000 		.4byte	0xb39
 5816 1482 10       		.byte	0x10
 5817 1483 27       		.uleb128 0x27
 5818 1484 53523100 		.ascii	"SR1\000"
 5819 1488 15       		.byte	0x15
 5820 1489 4602     		.2byte	0x246
 5821 148b 390B0000 		.4byte	0xb39
 5822 148f 14       		.byte	0x14
 5823 1490 27       		.uleb128 0x27
 5824 1491 53523200 		.ascii	"SR2\000"
 5825 1495 15       		.byte	0x15
 5826 1496 4702     		.2byte	0x247
 5827 1498 390B0000 		.4byte	0xb39
 5828 149c 18       		.byte	0x18
 5829 149d 27       		.uleb128 0x27
 5830 149e 43435200 		.ascii	"CCR\000"
 5831 14a2 15       		.byte	0x15
 5832 14a3 4802     		.2byte	0x248
 5833 14a5 390B0000 		.4byte	0xb39
 5834 14a9 1C       		.byte	0x1c
 5835 14aa 18       		.uleb128 0x18
 5836 14ab 90050000 		.4byte	.LASF299
 5837 14af 15       		.byte	0x15
ARM GAS  /var/folders/qd/4mxf5pkd0zdf0b9dd1hp39180000gn/T//cc0H01tt.s 			page 104


 5838 14b0 4902     		.2byte	0x249
 5839 14b2 390B0000 		.4byte	0xb39
 5840 14b6 20       		.byte	0x20
 5841 14b7 18       		.uleb128 0x18
 5842 14b8 83280000 		.4byte	.LASF300
 5843 14bc 15       		.byte	0x15
 5844 14bd 4A02     		.2byte	0x24a
 5845 14bf 390B0000 		.4byte	0xb39
 5846 14c3 24       		.byte	0x24
 5847 14c4 00       		.byte	0
 5848 14c5 07       		.uleb128 0x7
 5849 14c6 6A140000 		.4byte	.LASF301
 5850 14ca 15       		.byte	0x15
 5851 14cb 4B02     		.2byte	0x24b
 5852 14cd 3A140000 		.4byte	0x143a
 5853 14d1 1C       		.uleb128 0x1c
 5854 14d2 84       		.byte	0x84
 5855 14d3 15       		.byte	0x15
 5856 14d4 BF02     		.2byte	0x2bf
 5857 14d6 DF150000 		.4byte	0x15df
 5858 14da 18       		.uleb128 0x18
 5859 14db E2190000 		.4byte	.LASF302
 5860 14df 15       		.byte	0x15
 5861 14e0 C102     		.2byte	0x2c1
 5862 14e2 390B0000 		.4byte	0xb39
 5863 14e6 00       		.byte	0
 5864 14e7 18       		.uleb128 0x18
 5865 14e8 CF240000 		.4byte	.LASF303
 5866 14ec 15       		.byte	0x15
 5867 14ed C202     		.2byte	0x2c2
 5868 14ef 390B0000 		.4byte	0xb39
 5869 14f3 04       		.byte	0x4
 5870 14f4 27       		.uleb128 0x27
 5871 14f5 41524700 		.ascii	"ARG\000"
 5872 14f9 15       		.byte	0x15
 5873 14fa C302     		.2byte	0x2c3
 5874 14fc 390B0000 		.4byte	0xb39
 5875 1500 08       		.byte	0x8
 5876 1501 27       		.uleb128 0x27
 5877 1502 434D4400 		.ascii	"CMD\000"
 5878 1506 15       		.byte	0x15
 5879 1507 C402     		.2byte	0x2c4
 5880 1509 390B0000 		.4byte	0xb39
 5881 150d 0C       		.byte	0xc
 5882 150e 18       		.uleb128 0x18
 5883 150f 3D1D0000 		.4byte	.LASF304
 5884 1513 15       		.byte	0x15
 5885 1514 C502     		.2byte	0x2c5
 5886 1516 3E0B0000 		.4byte	0xb3e
 5887 151a 10       		.byte	0x10
 5888 151b 18       		.uleb128 0x18
 5889 151c B2060000 		.4byte	.LASF305
 5890 1520 15       		.byte	0x15
 5891 1521 C602     		.2byte	0x2c6
 5892 1523 3E0B0000 		.4byte	0xb3e
 5893 1527 14       		.byte	0x14
 5894 1528 18       		.uleb128 0x18
ARM GAS  /var/folders/qd/4mxf5pkd0zdf0b9dd1hp39180000gn/T//cc0H01tt.s 			page 105


 5895 1529 B8060000 		.4byte	.LASF306
 5896 152d 15       		.byte	0x15
 5897 152e C702     		.2byte	0x2c7
 5898 1530 3E0B0000 		.4byte	0xb3e
 5899 1534 18       		.byte	0x18
 5900 1535 18       		.uleb128 0x18
 5901 1536 BE060000 		.4byte	.LASF307
 5902 153a 15       		.byte	0x15
 5903 153b C802     		.2byte	0x2c8
 5904 153d 3E0B0000 		.4byte	0xb3e
 5905 1541 1C       		.byte	0x1c
 5906 1542 18       		.uleb128 0x18
 5907 1543 C4060000 		.4byte	.LASF308
 5908 1547 15       		.byte	0x15
 5909 1548 C902     		.2byte	0x2c9
 5910 154a 3E0B0000 		.4byte	0xb3e
 5911 154e 20       		.byte	0x20
 5912 154f 18       		.uleb128 0x18
 5913 1550 62160000 		.4byte	.LASF309
 5914 1554 15       		.byte	0x15
 5915 1555 CA02     		.2byte	0x2ca
 5916 1557 390B0000 		.4byte	0xb39
 5917 155b 24       		.byte	0x24
 5918 155c 18       		.uleb128 0x18
 5919 155d 47180000 		.4byte	.LASF310
 5920 1561 15       		.byte	0x15
 5921 1562 CB02     		.2byte	0x2cb
 5922 1564 390B0000 		.4byte	0xb39
 5923 1568 28       		.byte	0x28
 5924 1569 18       		.uleb128 0x18
 5925 156a 6F280000 		.4byte	.LASF311
 5926 156e 15       		.byte	0x15
 5927 156f CC02     		.2byte	0x2cc
 5928 1571 390B0000 		.4byte	0xb39
 5929 1575 2C       		.byte	0x2c
 5930 1576 18       		.uleb128 0x18
 5931 1577 EA290000 		.4byte	.LASF312
 5932 157b 15       		.byte	0x15
 5933 157c CD02     		.2byte	0x2cd
 5934 157e 3E0B0000 		.4byte	0xb3e
 5935 1582 30       		.byte	0x30
 5936 1583 27       		.uleb128 0x27
 5937 1584 53544100 		.ascii	"STA\000"
 5938 1588 15       		.byte	0x15
 5939 1589 CE02     		.2byte	0x2ce
 5940 158b 3E0B0000 		.4byte	0xb3e
 5941 158f 34       		.byte	0x34
 5942 1590 27       		.uleb128 0x27
 5943 1591 49435200 		.ascii	"ICR\000"
 5944 1595 15       		.byte	0x15
 5945 1596 CF02     		.2byte	0x2cf
 5946 1598 390B0000 		.4byte	0xb39
 5947 159c 38       		.byte	0x38
 5948 159d 18       		.uleb128 0x18
 5949 159e 11020000 		.4byte	.LASF313
 5950 15a2 15       		.byte	0x15
 5951 15a3 D002     		.2byte	0x2d0
ARM GAS  /var/folders/qd/4mxf5pkd0zdf0b9dd1hp39180000gn/T//cc0H01tt.s 			page 106


 5952 15a5 390B0000 		.4byte	0xb39
 5953 15a9 3C       		.byte	0x3c
 5954 15aa 18       		.uleb128 0x18
 5955 15ab 41220000 		.4byte	.LASF266
 5956 15af 15       		.byte	0x15
 5957 15b0 D102     		.2byte	0x2d1
 5958 15b2 600F0000 		.4byte	0xf60
 5959 15b6 40       		.byte	0x40
 5960 15b7 18       		.uleb128 0x18
 5961 15b8 1E170000 		.4byte	.LASF314
 5962 15bc 15       		.byte	0x15
 5963 15bd D202     		.2byte	0x2d2
 5964 15bf 3E0B0000 		.4byte	0xb3e
 5965 15c3 48       		.byte	0x48
 5966 15c4 18       		.uleb128 0x18
 5967 15c5 4B220000 		.4byte	.LASF269
 5968 15c9 15       		.byte	0x15
 5969 15ca D302     		.2byte	0x2d3
 5970 15cc DF150000 		.4byte	0x15df
 5971 15d0 4C       		.byte	0x4c
 5972 15d1 18       		.uleb128 0x18
 5973 15d2 790A0000 		.4byte	.LASF315
 5974 15d6 15       		.byte	0x15
 5975 15d7 D402     		.2byte	0x2d4
 5976 15d9 390B0000 		.4byte	0xb39
 5977 15dd 80       		.byte	0x80
 5978 15de 00       		.byte	0
 5979 15df 0A       		.uleb128 0xa
 5980 15e0 2E0B0000 		.4byte	0xb2e
 5981 15e4 EF150000 		.4byte	0x15ef
 5982 15e8 0B       		.uleb128 0xb
 5983 15e9 2C000000 		.4byte	0x2c
 5984 15ed 0C       		.byte	0xc
 5985 15ee 00       		.byte	0
 5986 15ef 07       		.uleb128 0x7
 5987 15f0 52230000 		.4byte	.LASF316
 5988 15f4 15       		.byte	0x15
 5989 15f5 D502     		.2byte	0x2d5
 5990 15f7 D1140000 		.4byte	0x14d1
 5991 15fb 1C       		.uleb128 0x1c
 5992 15fc 24       		.byte	0x24
 5993 15fd 15       		.byte	0x15
 5994 15fe DB02     		.2byte	0x2db
 5995 1600 78160000 		.4byte	0x1678
 5996 1604 27       		.uleb128 0x27
 5997 1605 43523100 		.ascii	"CR1\000"
 5998 1609 15       		.byte	0x15
 5999 160a DD02     		.2byte	0x2dd
 6000 160c 390B0000 		.4byte	0xb39
 6001 1610 00       		.byte	0
 6002 1611 27       		.uleb128 0x27
 6003 1612 43523200 		.ascii	"CR2\000"
 6004 1616 15       		.byte	0x15
 6005 1617 DE02     		.2byte	0x2de
 6006 1619 390B0000 		.4byte	0xb39
 6007 161d 04       		.byte	0x4
 6008 161e 27       		.uleb128 0x27
ARM GAS  /var/folders/qd/4mxf5pkd0zdf0b9dd1hp39180000gn/T//cc0H01tt.s 			page 107


 6009 161f 535200   		.ascii	"SR\000"
 6010 1622 15       		.byte	0x15
 6011 1623 DF02     		.2byte	0x2df
 6012 1625 390B0000 		.4byte	0xb39
 6013 1629 08       		.byte	0x8
 6014 162a 27       		.uleb128 0x27
 6015 162b 445200   		.ascii	"DR\000"
 6016 162e 15       		.byte	0x15
 6017 162f E002     		.2byte	0x2e0
 6018 1631 390B0000 		.4byte	0xb39
 6019 1635 0C       		.byte	0xc
 6020 1636 18       		.uleb128 0x18
 6021 1637 6E080000 		.4byte	.LASF317
 6022 163b 15       		.byte	0x15
 6023 163c E102     		.2byte	0x2e1
 6024 163e 390B0000 		.4byte	0xb39
 6025 1642 10       		.byte	0x10
 6026 1643 18       		.uleb128 0x18
 6027 1644 430C0000 		.4byte	.LASF318
 6028 1648 15       		.byte	0x15
 6029 1649 E202     		.2byte	0x2e2
 6030 164b 390B0000 		.4byte	0xb39
 6031 164f 14       		.byte	0x14
 6032 1650 18       		.uleb128 0x18
 6033 1651 6D0B0000 		.4byte	.LASF319
 6034 1655 15       		.byte	0x15
 6035 1656 E302     		.2byte	0x2e3
 6036 1658 390B0000 		.4byte	0xb39
 6037 165c 18       		.byte	0x18
 6038 165d 18       		.uleb128 0x18
 6039 165e D3250000 		.4byte	.LASF320
 6040 1662 15       		.byte	0x15
 6041 1663 E402     		.2byte	0x2e4
 6042 1665 390B0000 		.4byte	0xb39
 6043 1669 1C       		.byte	0x1c
 6044 166a 18       		.uleb128 0x18
 6045 166b 31080000 		.4byte	.LASF321
 6046 166f 15       		.byte	0x15
 6047 1670 E502     		.2byte	0x2e5
 6048 1672 390B0000 		.4byte	0xb39
 6049 1676 20       		.byte	0x20
 6050 1677 00       		.byte	0
 6051 1678 07       		.uleb128 0x7
 6052 1679 DC230000 		.4byte	.LASF322
 6053 167d 15       		.byte	0x15
 6054 167e E602     		.2byte	0x2e6
 6055 1680 FB150000 		.4byte	0x15fb
 6056 1684 1C       		.uleb128 0x1c
 6057 1685 1C       		.byte	0x1c
 6058 1686 15       		.byte	0x15
 6059 1687 0903     		.2byte	0x309
 6060 1689 E7160000 		.4byte	0x16e7
 6061 168d 27       		.uleb128 0x27
 6062 168e 535200   		.ascii	"SR\000"
 6063 1691 15       		.byte	0x15
 6064 1692 0B03     		.2byte	0x30b
 6065 1694 390B0000 		.4byte	0xb39
ARM GAS  /var/folders/qd/4mxf5pkd0zdf0b9dd1hp39180000gn/T//cc0H01tt.s 			page 108


 6066 1698 00       		.byte	0
 6067 1699 27       		.uleb128 0x27
 6068 169a 445200   		.ascii	"DR\000"
 6069 169d 15       		.byte	0x15
 6070 169e 0C03     		.2byte	0x30c
 6071 16a0 390B0000 		.4byte	0xb39
 6072 16a4 04       		.byte	0x4
 6073 16a5 27       		.uleb128 0x27
 6074 16a6 42525200 		.ascii	"BRR\000"
 6075 16aa 15       		.byte	0x15
 6076 16ab 0D03     		.2byte	0x30d
 6077 16ad 390B0000 		.4byte	0xb39
 6078 16b1 08       		.byte	0x8
 6079 16b2 27       		.uleb128 0x27
 6080 16b3 43523100 		.ascii	"CR1\000"
 6081 16b7 15       		.byte	0x15
 6082 16b8 0E03     		.2byte	0x30e
 6083 16ba 390B0000 		.4byte	0xb39
 6084 16be 0C       		.byte	0xc
 6085 16bf 27       		.uleb128 0x27
 6086 16c0 43523200 		.ascii	"CR2\000"
 6087 16c4 15       		.byte	0x15
 6088 16c5 0F03     		.2byte	0x30f
 6089 16c7 390B0000 		.4byte	0xb39
 6090 16cb 10       		.byte	0x10
 6091 16cc 27       		.uleb128 0x27
 6092 16cd 43523300 		.ascii	"CR3\000"
 6093 16d1 15       		.byte	0x15
 6094 16d2 1003     		.2byte	0x310
 6095 16d4 390B0000 		.4byte	0xb39
 6096 16d8 14       		.byte	0x14
 6097 16d9 18       		.uleb128 0x18
 6098 16da C80F0000 		.4byte	.LASF323
 6099 16de 15       		.byte	0x15
 6100 16df 1103     		.2byte	0x311
 6101 16e1 390B0000 		.4byte	0xb39
 6102 16e5 18       		.byte	0x18
 6103 16e6 00       		.byte	0
 6104 16e7 07       		.uleb128 0x7
 6105 16e8 3C290000 		.4byte	.LASF324
 6106 16ec 15       		.byte	0x15
 6107 16ed 1203     		.2byte	0x312
 6108 16ef 84160000 		.4byte	0x1684
 6109 16f3 0A       		.uleb128 0xa
 6110 16f4 390B0000 		.4byte	0xb39
 6111 16f8 03170000 		.4byte	0x1703
 6112 16fc 0B       		.uleb128 0xb
 6113 16fd 2C000000 		.4byte	0x2c
 6114 1701 0E       		.byte	0xe
 6115 1702 00       		.byte	0
 6116 1703 1A       		.uleb128 0x1a
 6117 1704 F3160000 		.4byte	0x16f3
 6118 1708 04       		.uleb128 0x4
 6119 1709 7C1C0000 		.4byte	.LASF325
 6120 170d 16       		.byte	0x16
 6121 170e 65       		.byte	0x65
 6122 170f 6B010000 		.4byte	0x16b
ARM GAS  /var/folders/qd/4mxf5pkd0zdf0b9dd1hp39180000gn/T//cc0H01tt.s 			page 109


 6123 1713 04       		.uleb128 0x4
 6124 1714 860E0000 		.4byte	.LASF326
 6125 1718 16       		.byte	0x16
 6126 1719 6D       		.byte	0x6d
 6127 171a 430B0000 		.4byte	0xb43
 6128 171e 10       		.uleb128 0x10
 6129 171f CD140000 		.4byte	.LASF327
 6130 1723 04       		.byte	0x4
 6131 1724 16       		.byte	0x16
 6132 1725 89       		.byte	0x89
 6133 1726 37170000 		.4byte	0x1737
 6134 172a 11       		.uleb128 0x11
 6135 172b 72313300 		.ascii	"r13\000"
 6136 172f 16       		.byte	0x16
 6137 1730 8A       		.byte	0x8a
 6138 1731 78180000 		.4byte	0x1878
 6139 1735 00       		.byte	0
 6140 1736 00       		.byte	0
 6141 1737 10       		.uleb128 0x10
 6142 1738 1E000000 		.4byte	.LASF328
 6143 173c 64       		.byte	0x64
 6144 173d 17       		.byte	0x17
 6145 173e F4       		.byte	0xf4
 6146 173f 78180000 		.4byte	0x1878
 6147 1743 11       		.uleb128 0x11
 6148 1744 73313600 		.ascii	"s16\000"
 6149 1748 17       		.byte	0x17
 6150 1749 F6       		.byte	0xf6
 6151 174a 08170000 		.4byte	0x1708
 6152 174e 00       		.byte	0
 6153 174f 11       		.uleb128 0x11
 6154 1750 73313700 		.ascii	"s17\000"
 6155 1754 17       		.byte	0x17
 6156 1755 F7       		.byte	0xf7
 6157 1756 08170000 		.4byte	0x1708
 6158 175a 04       		.byte	0x4
 6159 175b 11       		.uleb128 0x11
 6160 175c 73313800 		.ascii	"s18\000"
 6161 1760 17       		.byte	0x17
 6162 1761 F8       		.byte	0xf8
 6163 1762 08170000 		.4byte	0x1708
 6164 1766 08       		.byte	0x8
 6165 1767 11       		.uleb128 0x11
 6166 1768 73313900 		.ascii	"s19\000"
 6167 176c 17       		.byte	0x17
 6168 176d F9       		.byte	0xf9
 6169 176e 08170000 		.4byte	0x1708
 6170 1772 0C       		.byte	0xc
 6171 1773 11       		.uleb128 0x11
 6172 1774 73323000 		.ascii	"s20\000"
 6173 1778 17       		.byte	0x17
 6174 1779 FA       		.byte	0xfa
 6175 177a 08170000 		.4byte	0x1708
 6176 177e 10       		.byte	0x10
 6177 177f 11       		.uleb128 0x11
 6178 1780 73323100 		.ascii	"s21\000"
 6179 1784 17       		.byte	0x17
ARM GAS  /var/folders/qd/4mxf5pkd0zdf0b9dd1hp39180000gn/T//cc0H01tt.s 			page 110


 6180 1785 FB       		.byte	0xfb
 6181 1786 08170000 		.4byte	0x1708
 6182 178a 14       		.byte	0x14
 6183 178b 11       		.uleb128 0x11
 6184 178c 73323200 		.ascii	"s22\000"
 6185 1790 17       		.byte	0x17
 6186 1791 FC       		.byte	0xfc
 6187 1792 08170000 		.4byte	0x1708
 6188 1796 18       		.byte	0x18
 6189 1797 11       		.uleb128 0x11
 6190 1798 73323300 		.ascii	"s23\000"
 6191 179c 17       		.byte	0x17
 6192 179d FD       		.byte	0xfd
 6193 179e 08170000 		.4byte	0x1708
 6194 17a2 1C       		.byte	0x1c
 6195 17a3 11       		.uleb128 0x11
 6196 17a4 73323400 		.ascii	"s24\000"
 6197 17a8 17       		.byte	0x17
 6198 17a9 FE       		.byte	0xfe
 6199 17aa 08170000 		.4byte	0x1708
 6200 17ae 20       		.byte	0x20
 6201 17af 11       		.uleb128 0x11
 6202 17b0 73323500 		.ascii	"s25\000"
 6203 17b4 17       		.byte	0x17
 6204 17b5 FF       		.byte	0xff
 6205 17b6 08170000 		.4byte	0x1708
 6206 17ba 24       		.byte	0x24
 6207 17bb 27       		.uleb128 0x27
 6208 17bc 73323600 		.ascii	"s26\000"
 6209 17c0 17       		.byte	0x17
 6210 17c1 0001     		.2byte	0x100
 6211 17c3 08170000 		.4byte	0x1708
 6212 17c7 28       		.byte	0x28
 6213 17c8 27       		.uleb128 0x27
 6214 17c9 73323700 		.ascii	"s27\000"
 6215 17cd 17       		.byte	0x17
 6216 17ce 0101     		.2byte	0x101
 6217 17d0 08170000 		.4byte	0x1708
 6218 17d4 2C       		.byte	0x2c
 6219 17d5 27       		.uleb128 0x27
 6220 17d6 73323800 		.ascii	"s28\000"
 6221 17da 17       		.byte	0x17
 6222 17db 0201     		.2byte	0x102
 6223 17dd 08170000 		.4byte	0x1708
 6224 17e1 30       		.byte	0x30
 6225 17e2 27       		.uleb128 0x27
 6226 17e3 73323900 		.ascii	"s29\000"
 6227 17e7 17       		.byte	0x17
 6228 17e8 0301     		.2byte	0x103
 6229 17ea 08170000 		.4byte	0x1708
 6230 17ee 34       		.byte	0x34
 6231 17ef 27       		.uleb128 0x27
 6232 17f0 73333000 		.ascii	"s30\000"
 6233 17f4 17       		.byte	0x17
 6234 17f5 0401     		.2byte	0x104
 6235 17f7 08170000 		.4byte	0x1708
 6236 17fb 38       		.byte	0x38
ARM GAS  /var/folders/qd/4mxf5pkd0zdf0b9dd1hp39180000gn/T//cc0H01tt.s 			page 111


 6237 17fc 27       		.uleb128 0x27
 6238 17fd 73333100 		.ascii	"s31\000"
 6239 1801 17       		.byte	0x17
 6240 1802 0501     		.2byte	0x105
 6241 1804 08170000 		.4byte	0x1708
 6242 1808 3C       		.byte	0x3c
 6243 1809 27       		.uleb128 0x27
 6244 180a 723400   		.ascii	"r4\000"
 6245 180d 17       		.byte	0x17
 6246 180e 0701     		.2byte	0x107
 6247 1810 08170000 		.4byte	0x1708
 6248 1814 40       		.byte	0x40
 6249 1815 27       		.uleb128 0x27
 6250 1816 723500   		.ascii	"r5\000"
 6251 1819 17       		.byte	0x17
 6252 181a 0801     		.2byte	0x108
 6253 181c 08170000 		.4byte	0x1708
 6254 1820 44       		.byte	0x44
 6255 1821 27       		.uleb128 0x27
 6256 1822 723600   		.ascii	"r6\000"
 6257 1825 17       		.byte	0x17
 6258 1826 0901     		.2byte	0x109
 6259 1828 08170000 		.4byte	0x1708
 6260 182c 48       		.byte	0x48
 6261 182d 27       		.uleb128 0x27
 6262 182e 723700   		.ascii	"r7\000"
 6263 1831 17       		.byte	0x17
 6264 1832 0A01     		.2byte	0x10a
 6265 1834 08170000 		.4byte	0x1708
 6266 1838 4C       		.byte	0x4c
 6267 1839 27       		.uleb128 0x27
 6268 183a 723800   		.ascii	"r8\000"
 6269 183d 17       		.byte	0x17
 6270 183e 0B01     		.2byte	0x10b
 6271 1840 08170000 		.4byte	0x1708
 6272 1844 50       		.byte	0x50
 6273 1845 27       		.uleb128 0x27
 6274 1846 723900   		.ascii	"r9\000"
 6275 1849 17       		.byte	0x17
 6276 184a 0C01     		.2byte	0x10c
 6277 184c 08170000 		.4byte	0x1708
 6278 1850 54       		.byte	0x54
 6279 1851 27       		.uleb128 0x27
 6280 1852 72313000 		.ascii	"r10\000"
 6281 1856 17       		.byte	0x17
 6282 1857 0D01     		.2byte	0x10d
 6283 1859 08170000 		.4byte	0x1708
 6284 185d 58       		.byte	0x58
 6285 185e 27       		.uleb128 0x27
 6286 185f 72313100 		.ascii	"r11\000"
 6287 1863 17       		.byte	0x17
 6288 1864 0E01     		.2byte	0x10e
 6289 1866 08170000 		.4byte	0x1708
 6290 186a 5C       		.byte	0x5c
 6291 186b 27       		.uleb128 0x27
 6292 186c 6C7200   		.ascii	"lr\000"
 6293 186f 17       		.byte	0x17
ARM GAS  /var/folders/qd/4mxf5pkd0zdf0b9dd1hp39180000gn/T//cc0H01tt.s 			page 112


 6294 1870 0F01     		.2byte	0x10f
 6295 1872 08170000 		.4byte	0x1708
 6296 1876 60       		.byte	0x60
 6297 1877 00       		.byte	0
 6298 1878 05       		.uleb128 0x5
 6299 1879 04       		.byte	0x4
 6300 187a 37170000 		.4byte	0x1737
 6301 187e 0C       		.uleb128 0xc
 6302 187f 10       		.byte	0x10
 6303 1880 18       		.byte	0x18
 6304 1881 51       		.byte	0x51
 6305 1882 B7180000 		.4byte	0x18b7
 6306 1886 0D       		.uleb128 0xd
 6307 1887 B5220000 		.4byte	.LASF329
 6308 188b 18       		.byte	0x18
 6309 188c 55       		.byte	0x55
 6310 188d D20B0000 		.4byte	0xbd2
 6311 1891 00       		.byte	0
 6312 1892 0D       		.uleb128 0xd
 6313 1893 091D0000 		.4byte	.LASF330
 6314 1897 18       		.byte	0x18
 6315 1898 59       		.byte	0x59
 6316 1899 160D0000 		.4byte	0xd16
 6317 189d 04       		.byte	0x4
 6318 189e 0D       		.uleb128 0xd
 6319 189f 530D0000 		.4byte	.LASF331
 6320 18a3 18       		.byte	0x18
 6321 18a4 5D       		.byte	0x5d
 6322 18a5 6B010000 		.4byte	0x16b
 6323 18a9 08       		.byte	0x8
 6324 18aa 0D       		.uleb128 0xd
 6325 18ab 030B0000 		.4byte	.LASF332
 6326 18af 18       		.byte	0x18
 6327 18b0 61       		.byte	0x61
 6328 18b1 F80A0000 		.4byte	0xaf8
 6329 18b5 0C       		.byte	0xc
 6330 18b6 00       		.byte	0
 6331 18b7 04       		.uleb128 0x4
 6332 18b8 910E0000 		.4byte	.LASF333
 6333 18bc 18       		.byte	0x18
 6334 18bd 62       		.byte	0x62
 6335 18be 7E180000 		.4byte	0x187e
 6336 18c2 2A       		.uleb128 0x2a
 6337 18c3 0804     		.2byte	0x408
 6338 18c5 18       		.byte	0x18
 6339 18c6 67       		.byte	0x67
 6340 18c7 F0180000 		.4byte	0x18f0
 6341 18cb 0D       		.uleb128 0xd
 6342 18cc 550F0000 		.4byte	.LASF334
 6343 18d0 18       		.byte	0x18
 6344 18d1 6B       		.byte	0x6b
 6345 18d2 2C000000 		.4byte	0x2c
 6346 18d6 00       		.byte	0
 6347 18d7 0D       		.uleb128 0xd
 6348 18d8 4D170000 		.4byte	.LASF335
 6349 18dc 18       		.byte	0x18
 6350 18dd 6F       		.byte	0x6f
ARM GAS  /var/folders/qd/4mxf5pkd0zdf0b9dd1hp39180000gn/T//cc0H01tt.s 			page 113


 6351 18de F0180000 		.4byte	0x18f0
 6352 18e2 04       		.byte	0x4
 6353 18e3 0D       		.uleb128 0xd
 6354 18e4 7E0A0000 		.4byte	.LASF336
 6355 18e8 18       		.byte	0x18
 6356 18e9 73       		.byte	0x73
 6357 18ea F6180000 		.4byte	0x18f6
 6358 18ee 08       		.byte	0x8
 6359 18ef 00       		.byte	0
 6360 18f0 05       		.uleb128 0x5
 6361 18f1 04       		.byte	0x4
 6362 18f2 B7180000 		.4byte	0x18b7
 6363 18f6 0A       		.uleb128 0xa
 6364 18f7 B7180000 		.4byte	0x18b7
 6365 18fb 06190000 		.4byte	0x1906
 6366 18ff 0B       		.uleb128 0xb
 6367 1900 2C000000 		.4byte	0x2c
 6368 1904 3F       		.byte	0x3f
 6369 1905 00       		.byte	0
 6370 1906 04       		.uleb128 0x4
 6371 1907 2A000000 		.4byte	.LASF337
 6372 190b 18       		.byte	0x18
 6373 190c 74       		.byte	0x74
 6374 190d C2180000 		.4byte	0x18c2
 6375 1911 0C       		.uleb128 0xc
 6376 1912 04       		.byte	0x4
 6377 1913 19       		.byte	0x19
 6378 1914 38       		.byte	0x38
 6379 1915 26190000 		.4byte	0x1926
 6380 1919 0D       		.uleb128 0xd
 6381 191a 5F230000 		.4byte	.LASF338
 6382 191e 19       		.byte	0x19
 6383 191f 3C       		.byte	0x3c
 6384 1920 4E0B0000 		.4byte	0xb4e
 6385 1924 00       		.byte	0
 6386 1925 00       		.byte	0
 6387 1926 04       		.uleb128 0x4
 6388 1927 ED050000 		.4byte	.LASF339
 6389 192b 19       		.byte	0x19
 6390 192c 3D       		.byte	0x3d
 6391 192d 11190000 		.4byte	0x1911
 6392 1931 0C       		.uleb128 0xc
 6393 1932 18       		.byte	0x18
 6394 1933 19       		.byte	0x19
 6395 1934 48       		.byte	0x48
 6396 1935 74190000 		.4byte	0x1974
 6397 1939 0D       		.uleb128 0xd
 6398 193a 42080000 		.4byte	.LASF340
 6399 193e 19       		.byte	0x19
 6400 193f 49       		.byte	0x49
 6401 1940 4E0B0000 		.4byte	0xb4e
 6402 1944 00       		.byte	0
 6403 1945 0D       		.uleb128 0xd
 6404 1946 AC010000 		.4byte	.LASF341
 6405 194a 19       		.byte	0x19
 6406 194b 4A       		.byte	0x4a
 6407 194c 4E0B0000 		.4byte	0xb4e
ARM GAS  /var/folders/qd/4mxf5pkd0zdf0b9dd1hp39180000gn/T//cc0H01tt.s 			page 114


 6408 1950 04       		.byte	0x4
 6409 1951 0D       		.uleb128 0xd
 6410 1952 E91B0000 		.4byte	.LASF342
 6411 1956 19       		.byte	0x19
 6412 1957 4B       		.byte	0x4b
 6413 1958 4E0B0000 		.4byte	0xb4e
 6414 195c 08       		.byte	0x8
 6415 195d 11       		.uleb128 0x11
 6416 195e 6E00     		.ascii	"n\000"
 6417 1960 19       		.byte	0x19
 6418 1961 4C       		.byte	0x4c
 6419 1962 C70B0000 		.4byte	0xbc7
 6420 1966 0C       		.byte	0xc
 6421 1967 0D       		.uleb128 0xd
 6422 1968 8D1B0000 		.4byte	.LASF343
 6423 196c 19       		.byte	0x19
 6424 196d 4D       		.byte	0x4d
 6425 196e 590B0000 		.4byte	0xb59
 6426 1972 10       		.byte	0x10
 6427 1973 00       		.byte	0
 6428 1974 04       		.uleb128 0x4
 6429 1975 43260000 		.4byte	.LASF344
 6430 1979 19       		.byte	0x19
 6431 197a 4E       		.byte	0x4e
 6432 197b 31190000 		.4byte	0x1931
 6433 197f 0C       		.uleb128 0xc
 6434 1980 38       		.byte	0x38
 6435 1981 1A       		.byte	0x1a
 6436 1982 38       		.byte	0x38
 6437 1983 B8190000 		.4byte	0x19b8
 6438 1987 0D       		.uleb128 0xd
 6439 1988 1B070000 		.4byte	.LASF345
 6440 198c 1A       		.byte	0x1a
 6441 198d 39       		.byte	0x39
 6442 198e C70B0000 		.4byte	0xbc7
 6443 1992 00       		.byte	0
 6444 1993 0D       		.uleb128 0xd
 6445 1994 A60B0000 		.4byte	.LASF346
 6446 1998 1A       		.byte	0x1a
 6447 1999 3A       		.byte	0x3a
 6448 199a C70B0000 		.4byte	0xbc7
 6449 199e 04       		.byte	0x4
 6450 199f 0D       		.uleb128 0xd
 6451 19a0 B6250000 		.4byte	.LASF347
 6452 19a4 1A       		.byte	0x1a
 6453 19a5 3B       		.byte	0x3b
 6454 19a6 74190000 		.4byte	0x1974
 6455 19aa 08       		.byte	0x8
 6456 19ab 0D       		.uleb128 0xd
 6457 19ac 8C000000 		.4byte	.LASF348
 6458 19b0 1A       		.byte	0x1a
 6459 19b1 3D       		.byte	0x3d
 6460 19b2 74190000 		.4byte	0x1974
 6461 19b6 20       		.byte	0x20
 6462 19b7 00       		.byte	0
 6463 19b8 04       		.uleb128 0x4
 6464 19b9 A9050000 		.4byte	.LASF349
ARM GAS  /var/folders/qd/4mxf5pkd0zdf0b9dd1hp39180000gn/T//cc0H01tt.s 			page 115


 6465 19bd 1A       		.byte	0x1a
 6466 19be 3F       		.byte	0x3f
 6467 19bf 7F190000 		.4byte	0x197f
 6468 19c3 08       		.uleb128 0x8
 6469 19c4 04       		.byte	0x4
 6470 19c5 12       		.byte	0x12
 6471 19c6 FA       		.byte	0xfa
 6472 19c7 201A0000 		.4byte	0x1a20
 6473 19cb 1E       		.uleb128 0x1e
 6474 19cc 6A120000 		.4byte	.LASF350
 6475 19d0 12       		.byte	0x12
 6476 19d1 0101     		.2byte	0x101
 6477 19d3 9B0B0000 		.4byte	0xb9b
 6478 19d7 1E       		.uleb128 0x1e
 6479 19d8 E1080000 		.4byte	.LASF351
 6480 19dc 12       		.byte	0x12
 6481 19dd 0801     		.2byte	0x108
 6482 19df 9B0B0000 		.4byte	0xb9b
 6483 19e3 1E       		.uleb128 0x1e
 6484 19e4 5E200000 		.4byte	.LASF352
 6485 19e8 12       		.byte	0x12
 6486 19e9 0F01     		.2byte	0x10f
 6487 19eb 6B010000 		.4byte	0x16b
 6488 19ef 1E       		.uleb128 0x1e
 6489 19f0 AE1B0000 		.4byte	.LASF353
 6490 19f4 12       		.byte	0x12
 6491 19f5 1601     		.2byte	0x116
 6492 19f7 201A0000 		.4byte	0x1a20
 6493 19fb 1E       		.uleb128 0x1e
 6494 19fc 11010000 		.4byte	.LASF354
 6495 1a00 12       		.byte	0x12
 6496 1a01 1E01     		.2byte	0x11e
 6497 1a03 4B1A0000 		.4byte	0x1a4b
 6498 1a07 1E       		.uleb128 0x1e
 6499 1a08 B3200000 		.4byte	.LASF355
 6500 1a0c 12       		.byte	0x12
 6501 1a0d 2701     		.2byte	0x127
 6502 1a0f 8E1A0000 		.4byte	0x1a8e
 6503 1a13 1E       		.uleb128 0x1e
 6504 1a14 16240000 		.4byte	.LASF356
 6505 1a18 12       		.byte	0x12
 6506 1a19 2F01     		.2byte	0x12f
 6507 1a1b A60B0000 		.4byte	0xba6
 6508 1a1f 00       		.byte	0
 6509 1a20 05       		.uleb128 0x5
 6510 1a21 04       		.byte	0x4
 6511 1a22 0B0D0000 		.4byte	0xd0b
 6512 1a26 10       		.uleb128 0x10
 6513 1a27 2D1A0000 		.4byte	.LASF357
 6514 1a2b 0C       		.byte	0xc
 6515 1a2c 1B       		.byte	0x1b
 6516 1a2d 34       		.byte	0x34
 6517 1a2e 4B1A0000 		.4byte	0x1a4b
 6518 1a32 0D       		.uleb128 0xd
 6519 1a33 AE250000 		.4byte	.LASF358
 6520 1a37 1B       		.byte	0x1b
 6521 1a38 35       		.byte	0x35
ARM GAS  /var/folders/qd/4mxf5pkd0zdf0b9dd1hp39180000gn/T//cc0H01tt.s 			page 116


 6522 1a39 400D0000 		.4byte	0xd40
 6523 1a3d 00       		.byte	0
 6524 1a3e 0D       		.uleb128 0xd
 6525 1a3f 900A0000 		.4byte	.LASF359
 6526 1a43 1B       		.byte	0x1b
 6527 1a44 37       		.byte	0x37
 6528 1a45 BC0B0000 		.4byte	0xbbc
 6529 1a49 08       		.byte	0x8
 6530 1a4a 00       		.byte	0
 6531 1a4b 05       		.uleb128 0x5
 6532 1a4c 04       		.byte	0x4
 6533 1a4d 261A0000 		.4byte	0x1a26
 6534 1a51 10       		.uleb128 0x10
 6535 1a52 560C0000 		.4byte	.LASF360
 6536 1a56 14       		.byte	0x14
 6537 1a57 1C       		.byte	0x1c
 6538 1a58 39       		.byte	0x39
 6539 1a59 8E1A0000 		.4byte	0x1a8e
 6540 1a5d 0D       		.uleb128 0xd
 6541 1a5e DB150000 		.4byte	.LASF361
 6542 1a62 1C       		.byte	0x1c
 6543 1a63 3A       		.byte	0x3a
 6544 1a64 400D0000 		.4byte	0xd40
 6545 1a68 00       		.byte	0
 6546 1a69 0D       		.uleb128 0xd
 6547 1a6a D4180000 		.4byte	.LASF362
 6548 1a6e 1C       		.byte	0x1c
 6549 1a6f 3C       		.byte	0x3c
 6550 1a70 160D0000 		.4byte	0xd16
 6551 1a74 08       		.byte	0x8
 6552 1a75 0D       		.uleb128 0xd
 6553 1a76 E9010000 		.4byte	.LASF363
 6554 1a7a 1C       		.byte	0x1c
 6555 1a7b 3E       		.byte	0x3e
 6556 1a7c FD1B0000 		.4byte	0x1bfd
 6557 1a80 0C       		.byte	0xc
 6558 1a81 0D       		.uleb128 0xd
 6559 1a82 76090000 		.4byte	.LASF364
 6560 1a86 1C       		.byte	0x1c
 6561 1a87 41       		.byte	0x41
 6562 1a88 BC0B0000 		.4byte	0xbbc
 6563 1a8c 10       		.byte	0x10
 6564 1a8d 00       		.byte	0
 6565 1a8e 05       		.uleb128 0x5
 6566 1a8f 04       		.byte	0x4
 6567 1a90 511A0000 		.4byte	0x1a51
 6568 1a94 05       		.uleb128 0x5
 6569 1a95 04       		.byte	0x4
 6570 1a96 13170000 		.4byte	0x1713
 6571 1a9a 05       		.uleb128 0x5
 6572 1a9b 04       		.byte	0x4
 6573 1a9c F30D0000 		.4byte	0xdf3
 6574 1aa0 0A       		.uleb128 0xa
 6575 1aa1 13170000 		.4byte	0x1713
 6576 1aa5 B01A0000 		.4byte	0x1ab0
 6577 1aa9 0B       		.uleb128 0xb
 6578 1aaa 2C000000 		.4byte	0x2c
ARM GAS  /var/folders/qd/4mxf5pkd0zdf0b9dd1hp39180000gn/T//cc0H01tt.s 			page 117


 6579 1aae 30       		.byte	0x30
 6580 1aaf 00       		.byte	0
 6581 1ab0 2B       		.uleb128 0x2b
 6582 1ab1 636800   		.ascii	"ch\000"
 6583 1ab4 12       		.byte	0x12
 6584 1ab5 0902     		.2byte	0x209
 6585 1ab7 E80E0000 		.4byte	0xee8
 6586 1abb 0C       		.uleb128 0xc
 6587 1abc 16       		.byte	0x16
 6588 1abd 1D       		.byte	0x1d
 6589 1abe 34       		.byte	0x34
 6590 1abf 9C1B0000 		.4byte	0x1b9c
 6591 1ac3 0D       		.uleb128 0xd
 6592 1ac4 EB250000 		.4byte	.LASF365
 6593 1ac8 1D       		.byte	0x1d
 6594 1ac9 35       		.byte	0x35
 6595 1aca 9C1B0000 		.4byte	0x1b9c
 6596 1ace 00       		.byte	0
 6597 1acf 0D       		.uleb128 0xd
 6598 1ad0 55280000 		.4byte	.LASF366
 6599 1ad4 1D       		.byte	0x1d
 6600 1ad5 36       		.byte	0x36
 6601 1ad6 F80A0000 		.4byte	0xaf8
 6602 1ada 04       		.byte	0x4
 6603 1adb 0D       		.uleb128 0xd
 6604 1adc 2B030000 		.4byte	.LASF367
 6605 1ae0 1D       		.byte	0x1d
 6606 1ae1 37       		.byte	0x37
 6607 1ae2 F80A0000 		.4byte	0xaf8
 6608 1ae6 05       		.byte	0x5
 6609 1ae7 0D       		.uleb128 0xd
 6610 1ae8 4A190000 		.4byte	.LASF368
 6611 1aec 1D       		.byte	0x1d
 6612 1aed 38       		.byte	0x38
 6613 1aee 130B0000 		.4byte	0xb13
 6614 1af2 06       		.byte	0x6
 6615 1af3 0D       		.uleb128 0xd
 6616 1af4 3C000000 		.4byte	.LASF369
 6617 1af8 1D       		.byte	0x1d
 6618 1af9 39       		.byte	0x39
 6619 1afa F80A0000 		.4byte	0xaf8
 6620 1afe 08       		.byte	0x8
 6621 1aff 0D       		.uleb128 0xd
 6622 1b00 FC160000 		.4byte	.LASF370
 6623 1b04 1D       		.byte	0x1d
 6624 1b05 3A       		.byte	0x3a
 6625 1b06 F80A0000 		.4byte	0xaf8
 6626 1b0a 09       		.byte	0x9
 6627 1b0b 0D       		.uleb128 0xd
 6628 1b0c 75280000 		.4byte	.LASF371
 6629 1b10 1D       		.byte	0x1d
 6630 1b11 3B       		.byte	0x3b
 6631 1b12 F80A0000 		.4byte	0xaf8
 6632 1b16 0A       		.byte	0xa
 6633 1b17 0D       		.uleb128 0xd
 6634 1b18 2F260000 		.4byte	.LASF372
 6635 1b1c 1D       		.byte	0x1d
ARM GAS  /var/folders/qd/4mxf5pkd0zdf0b9dd1hp39180000gn/T//cc0H01tt.s 			page 118


 6636 1b1d 3C       		.byte	0x3c
 6637 1b1e F80A0000 		.4byte	0xaf8
 6638 1b22 0B       		.byte	0xb
 6639 1b23 0D       		.uleb128 0xd
 6640 1b24 2F250000 		.4byte	.LASF373
 6641 1b28 1D       		.byte	0x1d
 6642 1b29 3D       		.byte	0x3d
 6643 1b2a F80A0000 		.4byte	0xaf8
 6644 1b2e 0C       		.byte	0xc
 6645 1b2f 0D       		.uleb128 0xd
 6646 1b30 1B0D0000 		.4byte	.LASF374
 6647 1b34 1D       		.byte	0x1d
 6648 1b35 3E       		.byte	0x3e
 6649 1b36 F80A0000 		.4byte	0xaf8
 6650 1b3a 0D       		.byte	0xd
 6651 1b3b 0D       		.uleb128 0xd
 6652 1b3c 41060000 		.4byte	.LASF375
 6653 1b40 1D       		.byte	0x1d
 6654 1b41 3F       		.byte	0x3f
 6655 1b42 F80A0000 		.4byte	0xaf8
 6656 1b46 0E       		.byte	0xe
 6657 1b47 0D       		.uleb128 0xd
 6658 1b48 080F0000 		.4byte	.LASF376
 6659 1b4c 1D       		.byte	0x1d
 6660 1b4d 40       		.byte	0x40
 6661 1b4e F80A0000 		.4byte	0xaf8
 6662 1b52 0F       		.byte	0xf
 6663 1b53 0D       		.uleb128 0xd
 6664 1b54 8F100000 		.4byte	.LASF377
 6665 1b58 1D       		.byte	0x1d
 6666 1b59 41       		.byte	0x41
 6667 1b5a F80A0000 		.4byte	0xaf8
 6668 1b5e 10       		.byte	0x10
 6669 1b5f 0D       		.uleb128 0xd
 6670 1b60 C7180000 		.4byte	.LASF378
 6671 1b64 1D       		.byte	0x1d
 6672 1b65 43       		.byte	0x43
 6673 1b66 F80A0000 		.4byte	0xaf8
 6674 1b6a 11       		.byte	0x11
 6675 1b6b 0D       		.uleb128 0xd
 6676 1b6c FA020000 		.4byte	.LASF379
 6677 1b70 1D       		.byte	0x1d
 6678 1b71 44       		.byte	0x44
 6679 1b72 F80A0000 		.4byte	0xaf8
 6680 1b76 12       		.byte	0x12
 6681 1b77 0D       		.uleb128 0xd
 6682 1b78 99180000 		.4byte	.LASF380
 6683 1b7c 1D       		.byte	0x1d
 6684 1b7d 45       		.byte	0x45
 6685 1b7e F80A0000 		.4byte	0xaf8
 6686 1b82 13       		.byte	0x13
 6687 1b83 0D       		.uleb128 0xd
 6688 1b84 8E1F0000 		.4byte	.LASF381
 6689 1b88 1D       		.byte	0x1d
 6690 1b89 46       		.byte	0x46
 6691 1b8a F80A0000 		.4byte	0xaf8
 6692 1b8e 14       		.byte	0x14
ARM GAS  /var/folders/qd/4mxf5pkd0zdf0b9dd1hp39180000gn/T//cc0H01tt.s 			page 119


 6693 1b8f 0D       		.uleb128 0xd
 6694 1b90 D6000000 		.4byte	.LASF382
 6695 1b94 1D       		.byte	0x1d
 6696 1b95 48       		.byte	0x48
 6697 1b96 F80A0000 		.4byte	0xaf8
 6698 1b9a 15       		.byte	0x15
 6699 1b9b 00       		.byte	0
 6700 1b9c 0A       		.uleb128 0xa
 6701 1b9d 73010000 		.4byte	0x173
 6702 1ba1 AC1B0000 		.4byte	0x1bac
 6703 1ba5 0B       		.uleb128 0xb
 6704 1ba6 2C000000 		.4byte	0x2c
 6705 1baa 03       		.byte	0x3
 6706 1bab 00       		.byte	0
 6707 1bac 04       		.uleb128 0x4
 6708 1bad 91160000 		.4byte	.LASF383
 6709 1bb1 1D       		.byte	0x1d
 6710 1bb2 49       		.byte	0x49
 6711 1bb3 BB1A0000 		.4byte	0x1abb
 6712 1bb7 0F       		.uleb128 0xf
 6713 1bb8 AC1B0000 		.4byte	0x1bac
 6714 1bbc 25       		.uleb128 0x25
 6715 1bbd C40B0000 		.4byte	.LASF384
 6716 1bc1 1D       		.byte	0x1d
 6717 1bc2 6E       		.byte	0x6e
 6718 1bc3 B71B0000 		.4byte	0x1bb7
 6719 1bc7 04       		.uleb128 0x4
 6720 1bc8 EC260000 		.4byte	.LASF385
 6721 1bcc 1B       		.byte	0x1b
 6722 1bcd 38       		.byte	0x38
 6723 1bce 261A0000 		.4byte	0x1a26
 6724 1bd2 0C       		.uleb128 0xc
 6725 1bd3 0C       		.byte	0xc
 6726 1bd4 05       		.byte	0x5
 6727 1bd5 4B       		.byte	0x4b
 6728 1bd6 E71B0000 		.4byte	0x1be7
 6729 1bda 0D       		.uleb128 0xd
 6730 1bdb F6280000 		.4byte	.LASF386
 6731 1bdf 05       		.byte	0x5
 6732 1be0 4C       		.byte	0x4c
 6733 1be1 C71B0000 		.4byte	0x1bc7
 6734 1be5 00       		.byte	0
 6735 1be6 00       		.byte	0
 6736 1be7 04       		.uleb128 0x4
 6737 1be8 3A250000 		.4byte	.LASF387
 6738 1bec 05       		.byte	0x5
 6739 1bed 4D       		.byte	0x4d
 6740 1bee D21B0000 		.4byte	0x1bd2
 6741 1bf2 04       		.uleb128 0x4
 6742 1bf3 EA210000 		.4byte	.LASF388
 6743 1bf7 1C       		.byte	0x1c
 6744 1bf8 34       		.byte	0x34
 6745 1bf9 511A0000 		.4byte	0x1a51
 6746 1bfd 05       		.uleb128 0x5
 6747 1bfe 04       		.byte	0x4
 6748 1bff F21B0000 		.4byte	0x1bf2
 6749 1c03 04       		.uleb128 0x4
ARM GAS  /var/folders/qd/4mxf5pkd0zdf0b9dd1hp39180000gn/T//cc0H01tt.s 			page 120


 6750 1c04 090C0000 		.4byte	.LASF389
 6751 1c08 1E       		.byte	0x1e
 6752 1c09 34       		.byte	0x34
 6753 1c0a 0E1C0000 		.4byte	0x1c0e
 6754 1c0e 10       		.uleb128 0x10
 6755 1c0f FD280000 		.4byte	.LASF390
 6756 1c13 14       		.byte	0x14
 6757 1c14 1E       		.byte	0x1e
 6758 1c15 39       		.byte	0x39
 6759 1c16 571C0000 		.4byte	0x1c57
 6760 1c1a 0D       		.uleb128 0xd
 6761 1c1b 78020000 		.4byte	.LASF391
 6762 1c1f 1E       		.byte	0x1e
 6763 1c20 3A       		.byte	0x3a
 6764 1c21 571C0000 		.4byte	0x1c57
 6765 1c25 00       		.byte	0
 6766 1c26 0D       		.uleb128 0xd
 6767 1c27 E6220000 		.4byte	.LASF392
 6768 1c2b 1E       		.byte	0x1e
 6769 1c2c 3D       		.byte	0x3d
 6770 1c2d 160D0000 		.4byte	0xd16
 6771 1c31 04       		.byte	0x4
 6772 1c32 0D       		.uleb128 0xd
 6773 1c33 9F030000 		.4byte	.LASF393
 6774 1c37 1E       		.byte	0x1e
 6775 1c38 3F       		.byte	0x3f
 6776 1c39 A60B0000 		.4byte	0xba6
 6777 1c3d 08       		.byte	0x8
 6778 1c3e 0D       		.uleb128 0xd
 6779 1c3f 1D240000 		.4byte	.LASF394
 6780 1c43 1E       		.byte	0x1e
 6781 1c44 41       		.byte	0x41
 6782 1c45 B10B0000 		.4byte	0xbb1
 6783 1c49 0C       		.byte	0xc
 6784 1c4a 0D       		.uleb128 0xd
 6785 1c4b 410F0000 		.4byte	.LASF395
 6786 1c4f 1E       		.byte	0x1e
 6787 1c50 43       		.byte	0x43
 6788 1c51 B10B0000 		.4byte	0xbb1
 6789 1c55 10       		.byte	0x10
 6790 1c56 00       		.byte	0
 6791 1c57 05       		.uleb128 0x5
 6792 1c58 04       		.byte	0x4
 6793 1c59 031C0000 		.4byte	0x1c03
 6794 1c5d 10       		.uleb128 0x10
 6795 1c5e 26240000 		.4byte	.LASF396
 6796 1c62 04       		.byte	0x4
 6797 1c63 1E       		.byte	0x1e
 6798 1c64 4A       		.byte	0x4a
 6799 1c65 761C0000 		.4byte	0x1c76
 6800 1c69 0D       		.uleb128 0xd
 6801 1c6a 9E230000 		.4byte	.LASF397
 6802 1c6e 1E       		.byte	0x1e
 6803 1c6f 4B       		.byte	0x4b
 6804 1c70 571C0000 		.4byte	0x1c57
 6805 1c74 00       		.byte	0
 6806 1c75 00       		.byte	0
ARM GAS  /var/folders/qd/4mxf5pkd0zdf0b9dd1hp39180000gn/T//cc0H01tt.s 			page 121


 6807 1c76 04       		.uleb128 0x4
 6808 1c77 26170000 		.4byte	.LASF398
 6809 1c7b 1E       		.byte	0x1e
 6810 1c7c 4E       		.byte	0x4e
 6811 1c7d 5D1C0000 		.4byte	0x1c5d
 6812 1c81 04       		.uleb128 0x4
 6813 1c82 810F0000 		.4byte	.LASF399
 6814 1c86 1F       		.byte	0x1f
 6815 1c87 3F       		.byte	0x3f
 6816 1c88 8C1C0000 		.4byte	0x1c8c
 6817 1c8c 10       		.uleb128 0x10
 6818 1c8d E5120000 		.4byte	.LASF400
 6819 1c91 24       		.byte	0x24
 6820 1c92 1F       		.byte	0x1f
 6821 1c93 4D       		.byte	0x4d
 6822 1c94 F91C0000 		.4byte	0x1cf9
 6823 1c98 0D       		.uleb128 0xd
 6824 1c99 B8050000 		.4byte	.LASF401
 6825 1c9d 1F       		.byte	0x1f
 6826 1c9e 4E       		.byte	0x4e
 6827 1c9f 400D0000 		.4byte	0xd40
 6828 1ca3 00       		.byte	0
 6829 1ca4 0D       		.uleb128 0xd
 6830 1ca5 521B0000 		.4byte	.LASF402
 6831 1ca9 1F       		.byte	0x1f
 6832 1caa 4F       		.byte	0x4f
 6833 1cab 48000000 		.4byte	0x48
 6834 1caf 08       		.byte	0x8
 6835 1cb0 0D       		.uleb128 0xd
 6836 1cb1 BE130000 		.4byte	.LASF403
 6837 1cb5 1F       		.byte	0x1f
 6838 1cb6 50       		.byte	0x50
 6839 1cb7 1B1D0000 		.4byte	0x1d1b
 6840 1cbb 0C       		.byte	0xc
 6841 1cbc 0D       		.uleb128 0xd
 6842 1cbd F6040000 		.4byte	.LASF404
 6843 1cc1 1F       		.byte	0x1f
 6844 1cc2 51       		.byte	0x51
 6845 1cc3 1B1D0000 		.4byte	0x1d1b
 6846 1cc7 10       		.byte	0x10
 6847 1cc8 0D       		.uleb128 0xd
 6848 1cc9 0F1D0000 		.4byte	.LASF405
 6849 1ccd 1F       		.byte	0x1f
 6850 1cce 53       		.byte	0x53
 6851 1ccf 1B1D0000 		.4byte	0x1d1b
 6852 1cd3 14       		.byte	0x14
 6853 1cd4 0D       		.uleb128 0xd
 6854 1cd5 B41B0000 		.4byte	.LASF406
 6855 1cd9 1F       		.byte	0x1f
 6856 1cda 54       		.byte	0x54
 6857 1cdb 1B1D0000 		.4byte	0x1d1b
 6858 1cdf 18       		.byte	0x18
 6859 1ce0 0D       		.uleb128 0xd
 6860 1ce1 AA200000 		.4byte	.LASF407
 6861 1ce5 1F       		.byte	0x1f
 6862 1ce6 55       		.byte	0x55
 6863 1ce7 F91C0000 		.4byte	0x1cf9
ARM GAS  /var/folders/qd/4mxf5pkd0zdf0b9dd1hp39180000gn/T//cc0H01tt.s 			page 122


 6864 1ceb 1C       		.byte	0x1c
 6865 1cec 0D       		.uleb128 0xd
 6866 1ced 1D1E0000 		.4byte	.LASF408
 6867 1cf1 1F       		.byte	0x1f
 6868 1cf2 56       		.byte	0x56
 6869 1cf3 6B010000 		.4byte	0x16b
 6870 1cf7 20       		.byte	0x20
 6871 1cf8 00       		.byte	0
 6872 1cf9 04       		.uleb128 0x4
 6873 1cfa A7040000 		.4byte	.LASF409
 6874 1cfe 1F       		.byte	0x1f
 6875 1cff 42       		.byte	0x42
 6876 1d00 041D0000 		.4byte	0x1d04
 6877 1d04 05       		.uleb128 0x5
 6878 1d05 04       		.byte	0x4
 6879 1d06 0A1D0000 		.4byte	0x1d0a
 6880 1d0a 1F       		.uleb128 0x1f
 6881 1d0b 151D0000 		.4byte	0x1d15
 6882 1d0f 16       		.uleb128 0x16
 6883 1d10 151D0000 		.4byte	0x1d15
 6884 1d14 00       		.byte	0
 6885 1d15 05       		.uleb128 0x5
 6886 1d16 04       		.byte	0x4
 6887 1d17 811C0000 		.4byte	0x1c81
 6888 1d1b 05       		.uleb128 0x5
 6889 1d1c 04       		.byte	0x4
 6890 1d1d F80A0000 		.4byte	0xaf8
 6891 1d21 04       		.uleb128 0x4
 6892 1d22 FE050000 		.4byte	.LASF410
 6893 1d26 1F       		.byte	0x1f
 6894 1d27 64       		.byte	0x64
 6895 1d28 811C0000 		.4byte	0x1c81
 6896 1d2c 04       		.uleb128 0x4
 6897 1d2d 4A290000 		.4byte	.LASF411
 6898 1d31 1F       		.byte	0x1f
 6899 1d32 71       		.byte	0x71
 6900 1d33 811C0000 		.4byte	0x1c81
 6901 1d37 15       		.uleb128 0x15
 6902 1d38 48000000 		.4byte	0x48
 6903 1d3c 501D0000 		.4byte	0x1d50
 6904 1d40 16       		.uleb128 0x16
 6905 1d41 6B010000 		.4byte	0x16b
 6906 1d45 16       		.uleb128 0x16
 6907 1d46 501D0000 		.4byte	0x1d50
 6908 1d4a 16       		.uleb128 0x16
 6909 1d4b 48000000 		.4byte	0x48
 6910 1d4f 00       		.byte	0
 6911 1d50 05       		.uleb128 0x5
 6912 1d51 04       		.byte	0x4
 6913 1d52 030B0000 		.4byte	0xb03
 6914 1d56 05       		.uleb128 0x5
 6915 1d57 04       		.byte	0x4
 6916 1d58 371D0000 		.4byte	0x1d37
 6917 1d5c 15       		.uleb128 0x15
 6918 1d5d 48000000 		.4byte	0x48
 6919 1d61 751D0000 		.4byte	0x1d75
 6920 1d65 16       		.uleb128 0x16
ARM GAS  /var/folders/qd/4mxf5pkd0zdf0b9dd1hp39180000gn/T//cc0H01tt.s 			page 123


 6921 1d66 6B010000 		.4byte	0x16b
 6922 1d6a 16       		.uleb128 0x16
 6923 1d6b 1B1D0000 		.4byte	0x1d1b
 6924 1d6f 16       		.uleb128 0x16
 6925 1d70 48000000 		.4byte	0x48
 6926 1d74 00       		.byte	0
 6927 1d75 05       		.uleb128 0x5
 6928 1d76 04       		.byte	0x4
 6929 1d77 5C1D0000 		.4byte	0x1d5c
 6930 1d7b 15       		.uleb128 0x15
 6931 1d7c 9B0B0000 		.4byte	0xb9b
 6932 1d80 8F1D0000 		.4byte	0x1d8f
 6933 1d84 16       		.uleb128 0x16
 6934 1d85 6B010000 		.4byte	0x16b
 6935 1d89 16       		.uleb128 0x16
 6936 1d8a F80A0000 		.4byte	0xaf8
 6937 1d8e 00       		.byte	0
 6938 1d8f 05       		.uleb128 0x5
 6939 1d90 04       		.byte	0x4
 6940 1d91 7B1D0000 		.4byte	0x1d7b
 6941 1d95 15       		.uleb128 0x15
 6942 1d96 9B0B0000 		.4byte	0xb9b
 6943 1d9a A41D0000 		.4byte	0x1da4
 6944 1d9e 16       		.uleb128 0x16
 6945 1d9f 6B010000 		.4byte	0x16b
 6946 1da3 00       		.byte	0
 6947 1da4 05       		.uleb128 0x5
 6948 1da5 04       		.byte	0x4
 6949 1da6 951D0000 		.4byte	0x1d95
 6950 1daa 25       		.uleb128 0x25
 6951 1dab 2D1E0000 		.4byte	.LASF412
 6952 1daf 20       		.byte	0x20
 6953 1db0 1A       		.byte	0x1a
 6954 1db1 B00A0000 		.4byte	0xab0
 6955 1db5 0C       		.uleb128 0xc
 6956 1db6 0C       		.byte	0xc
 6957 1db7 21       		.byte	0x21
 6958 1db8 DA       		.byte	0xda
 6959 1db9 FA1D0000 		.4byte	0x1dfa
 6960 1dbd 0D       		.uleb128 0xd
 6961 1dbe CC280000 		.4byte	.LASF413
 6962 1dc2 21       		.byte	0x21
 6963 1dc3 DB       		.byte	0xdb
 6964 1dc4 FA1D0000 		.4byte	0x1dfa
 6965 1dc8 00       		.byte	0
 6966 1dc9 0D       		.uleb128 0xd
 6967 1dca 4D120000 		.4byte	.LASF414
 6968 1dce 21       		.byte	0x21
 6969 1dcf DC       		.byte	0xdc
 6970 1dd0 001E0000 		.4byte	0x1e00
 6971 1dd4 04       		.byte	0x4
 6972 1dd5 0D       		.uleb128 0xd
 6973 1dd6 E3040000 		.4byte	.LASF415
 6974 1dda 21       		.byte	0x21
 6975 1ddb DD       		.byte	0xdd
 6976 1ddc F80A0000 		.4byte	0xaf8
 6977 1de0 08       		.byte	0x8
ARM GAS  /var/folders/qd/4mxf5pkd0zdf0b9dd1hp39180000gn/T//cc0H01tt.s 			page 124


 6978 1de1 0D       		.uleb128 0xd
 6979 1de2 E0210000 		.4byte	.LASF416
 6980 1de6 21       		.byte	0x21
 6981 1de7 DF       		.byte	0xdf
 6982 1de8 F80A0000 		.4byte	0xaf8
 6983 1dec 09       		.byte	0x9
 6984 1ded 0D       		.uleb128 0xd
 6985 1dee D7030000 		.4byte	.LASF417
 6986 1df2 21       		.byte	0x21
 6987 1df3 E0       		.byte	0xe0
 6988 1df4 F80A0000 		.4byte	0xaf8
 6989 1df8 0A       		.byte	0xa
 6990 1df9 00       		.byte	0
 6991 1dfa 05       		.uleb128 0x5
 6992 1dfb 04       		.byte	0x4
 6993 1dfc 04140000 		.4byte	0x1404
 6994 1e00 05       		.uleb128 0x5
 6995 1e01 04       		.byte	0x4
 6996 1e02 390B0000 		.4byte	0xb39
 6997 1e06 04       		.uleb128 0x4
 6998 1e07 21150000 		.4byte	.LASF418
 6999 1e0b 21       		.byte	0x21
 7000 1e0c E1       		.byte	0xe1
 7001 1e0d B51D0000 		.4byte	0x1db5
 7002 1e11 0F       		.uleb128 0xf
 7003 1e12 061E0000 		.4byte	0x1e06
 7004 1e16 0A       		.uleb128 0xa
 7005 1e17 111E0000 		.4byte	0x1e11
 7006 1e1b 261E0000 		.4byte	0x1e26
 7007 1e1f 0B       		.uleb128 0xb
 7008 1e20 2C000000 		.4byte	0x2c
 7009 1e24 0F       		.byte	0xf
 7010 1e25 00       		.byte	0
 7011 1e26 0F       		.uleb128 0xf
 7012 1e27 161E0000 		.4byte	0x1e16
 7013 1e2b 20       		.uleb128 0x20
 7014 1e2c CB1E0000 		.4byte	.LASF419
 7015 1e30 21       		.byte	0x21
 7016 1e31 BB01     		.2byte	0x1bb
 7017 1e33 261E0000 		.4byte	0x1e26
 7018 1e37 15       		.uleb128 0x15
 7019 1e38 9B0B0000 		.4byte	0xb9b
 7020 1e3c 501E0000 		.4byte	0x1e50
 7021 1e40 16       		.uleb128 0x16
 7022 1e41 6B010000 		.4byte	0x16b
 7023 1e45 16       		.uleb128 0x16
 7024 1e46 F80A0000 		.4byte	0xaf8
 7025 1e4a 16       		.uleb128 0x16
 7026 1e4b D20B0000 		.4byte	0xbd2
 7027 1e4f 00       		.byte	0
 7028 1e50 05       		.uleb128 0x5
 7029 1e51 04       		.byte	0x4
 7030 1e52 371E0000 		.4byte	0x1e37
 7031 1e56 15       		.uleb128 0x15
 7032 1e57 9B0B0000 		.4byte	0xb9b
 7033 1e5b 6A1E0000 		.4byte	0x1e6a
 7034 1e5f 16       		.uleb128 0x16
ARM GAS  /var/folders/qd/4mxf5pkd0zdf0b9dd1hp39180000gn/T//cc0H01tt.s 			page 125


 7035 1e60 6B010000 		.4byte	0x16b
 7036 1e64 16       		.uleb128 0x16
 7037 1e65 D20B0000 		.4byte	0xbd2
 7038 1e69 00       		.byte	0
 7039 1e6a 05       		.uleb128 0x5
 7040 1e6b 04       		.byte	0x4
 7041 1e6c 561E0000 		.4byte	0x1e56
 7042 1e70 15       		.uleb128 0x15
 7043 1e71 48000000 		.4byte	0x48
 7044 1e75 8E1E0000 		.4byte	0x1e8e
 7045 1e79 16       		.uleb128 0x16
 7046 1e7a 6B010000 		.4byte	0x16b
 7047 1e7e 16       		.uleb128 0x16
 7048 1e7f 501D0000 		.4byte	0x1d50
 7049 1e83 16       		.uleb128 0x16
 7050 1e84 48000000 		.4byte	0x48
 7051 1e88 16       		.uleb128 0x16
 7052 1e89 D20B0000 		.4byte	0xbd2
 7053 1e8d 00       		.byte	0
 7054 1e8e 05       		.uleb128 0x5
 7055 1e8f 04       		.byte	0x4
 7056 1e90 701E0000 		.4byte	0x1e70
 7057 1e94 15       		.uleb128 0x15
 7058 1e95 48000000 		.4byte	0x48
 7059 1e99 B21E0000 		.4byte	0x1eb2
 7060 1e9d 16       		.uleb128 0x16
 7061 1e9e 6B010000 		.4byte	0x16b
 7062 1ea2 16       		.uleb128 0x16
 7063 1ea3 1B1D0000 		.4byte	0x1d1b
 7064 1ea7 16       		.uleb128 0x16
 7065 1ea8 48000000 		.4byte	0x48
 7066 1eac 16       		.uleb128 0x16
 7067 1ead D20B0000 		.4byte	0xbd2
 7068 1eb1 00       		.byte	0
 7069 1eb2 05       		.uleb128 0x5
 7070 1eb3 04       		.byte	0x4
 7071 1eb4 941E0000 		.4byte	0x1e94
 7072 1eb8 26       		.uleb128 0x26
 7073 1eb9 07       		.byte	0x7
 7074 1eba 01       		.byte	0x1
 7075 1ebb 73000000 		.4byte	0x73
 7076 1ebf 23       		.byte	0x23
 7077 1ec0 28       		.byte	0x28
 7078 1ec1 FC1E0000 		.4byte	0x1efc
 7079 1ec5 23       		.uleb128 0x23
 7080 1ec6 87010000 		.4byte	.LASF420
 7081 1eca 00       		.byte	0
 7082 1ecb 23       		.uleb128 0x23
 7083 1ecc 23100000 		.4byte	.LASF421
 7084 1ed0 01       		.byte	0x1
 7085 1ed1 23       		.uleb128 0x23
 7086 1ed2 F40B0000 		.4byte	.LASF422
 7087 1ed6 02       		.byte	0x2
 7088 1ed7 23       		.uleb128 0x23
 7089 1ed8 FA1F0000 		.4byte	.LASF423
 7090 1edc 03       		.byte	0x3
 7091 1edd 23       		.uleb128 0x23
ARM GAS  /var/folders/qd/4mxf5pkd0zdf0b9dd1hp39180000gn/T//cc0H01tt.s 			page 126


 7092 1ede A9270000 		.4byte	.LASF424
 7093 1ee2 04       		.byte	0x4
 7094 1ee3 23       		.uleb128 0x23
 7095 1ee4 74080000 		.4byte	.LASF425
 7096 1ee8 05       		.byte	0x5
 7097 1ee9 23       		.uleb128 0x23
 7098 1eea C0210000 		.4byte	.LASF426
 7099 1eee 06       		.byte	0x6
 7100 1eef 23       		.uleb128 0x23
 7101 1ef0 491C0000 		.4byte	.LASF427
 7102 1ef4 07       		.byte	0x7
 7103 1ef5 23       		.uleb128 0x23
 7104 1ef6 75270000 		.4byte	.LASF428
 7105 1efa 08       		.byte	0x8
 7106 1efb 00       		.byte	0
 7107 1efc 04       		.uleb128 0x4
 7108 1efd 931A0000 		.4byte	.LASF429
 7109 1f01 23       		.byte	0x23
 7110 1f02 32       		.byte	0x32
 7111 1f03 B81E0000 		.4byte	0x1eb8
 7112 1f07 0C       		.uleb128 0xc
 7113 1f08 08       		.byte	0x8
 7114 1f09 23       		.byte	0x23
 7115 1f0a 37       		.byte	0x37
 7116 1f0b 281F0000 		.4byte	0x1f28
 7117 1f0f 0D       		.uleb128 0xd
 7118 1f10 C1070000 		.4byte	.LASF430
 7119 1f14 23       		.byte	0x23
 7120 1f15 38       		.byte	0x38
 7121 1f16 2E0B0000 		.4byte	0xb2e
 7122 1f1a 00       		.byte	0
 7123 1f1b 0D       		.uleb128 0xd
 7124 1f1c 17210000 		.4byte	.LASF431
 7125 1f20 23       		.byte	0x23
 7126 1f21 39       		.byte	0x39
 7127 1f22 2E0B0000 		.4byte	0xb2e
 7128 1f26 04       		.byte	0x4
 7129 1f27 00       		.byte	0
 7130 1f28 04       		.uleb128 0x4
 7131 1f29 2B230000 		.4byte	.LASF432
 7132 1f2d 23       		.byte	0x23
 7133 1f2e 3A       		.byte	0x3a
 7134 1f2f 071F0000 		.4byte	0x1f07
 7135 1f33 15       		.uleb128 0x15
 7136 1f34 B00A0000 		.4byte	0xab0
 7137 1f38 421F0000 		.4byte	0x1f42
 7138 1f3c 16       		.uleb128 0x16
 7139 1f3d 6B010000 		.4byte	0x16b
 7140 1f41 00       		.byte	0
 7141 1f42 05       		.uleb128 0x5
 7142 1f43 04       		.byte	0x4
 7143 1f44 331F0000 		.4byte	0x1f33
 7144 1f48 15       		.uleb128 0x15
 7145 1f49 B00A0000 		.4byte	0xab0
 7146 1f4d 661F0000 		.4byte	0x1f66
 7147 1f51 16       		.uleb128 0x16
 7148 1f52 6B010000 		.4byte	0x16b
ARM GAS  /var/folders/qd/4mxf5pkd0zdf0b9dd1hp39180000gn/T//cc0H01tt.s 			page 127


 7149 1f56 16       		.uleb128 0x16
 7150 1f57 2E0B0000 		.4byte	0xb2e
 7151 1f5b 16       		.uleb128 0x16
 7152 1f5c 1B1D0000 		.4byte	0x1d1b
 7153 1f60 16       		.uleb128 0x16
 7154 1f61 2E0B0000 		.4byte	0xb2e
 7155 1f65 00       		.byte	0
 7156 1f66 05       		.uleb128 0x5
 7157 1f67 04       		.byte	0x4
 7158 1f68 481F0000 		.4byte	0x1f48
 7159 1f6c 15       		.uleb128 0x15
 7160 1f6d B00A0000 		.4byte	0xab0
 7161 1f71 8A1F0000 		.4byte	0x1f8a
 7162 1f75 16       		.uleb128 0x16
 7163 1f76 6B010000 		.4byte	0x16b
 7164 1f7a 16       		.uleb128 0x16
 7165 1f7b 2E0B0000 		.4byte	0xb2e
 7166 1f7f 16       		.uleb128 0x16
 7167 1f80 501D0000 		.4byte	0x1d50
 7168 1f84 16       		.uleb128 0x16
 7169 1f85 2E0B0000 		.4byte	0xb2e
 7170 1f89 00       		.byte	0
 7171 1f8a 05       		.uleb128 0x5
 7172 1f8b 04       		.byte	0x4
 7173 1f8c 6C1F0000 		.4byte	0x1f6c
 7174 1f90 15       		.uleb128 0x15
 7175 1f91 B00A0000 		.4byte	0xab0
 7176 1f95 A41F0000 		.4byte	0x1fa4
 7177 1f99 16       		.uleb128 0x16
 7178 1f9a 6B010000 		.4byte	0x16b
 7179 1f9e 16       		.uleb128 0x16
 7180 1f9f A41F0000 		.4byte	0x1fa4
 7181 1fa3 00       		.byte	0
 7182 1fa4 05       		.uleb128 0x5
 7183 1fa5 04       		.byte	0x4
 7184 1fa6 281F0000 		.4byte	0x1f28
 7185 1faa 05       		.uleb128 0x5
 7186 1fab 04       		.byte	0x4
 7187 1fac 901F0000 		.4byte	0x1f90
 7188 1fb0 0A       		.uleb128 0xa
 7189 1fb1 2E0B0000 		.4byte	0xb2e
 7190 1fb5 C01F0000 		.4byte	0x1fc0
 7191 1fb9 0B       		.uleb128 0xb
 7192 1fba 2C000000 		.4byte	0x2c
 7193 1fbe 03       		.byte	0x3
 7194 1fbf 00       		.byte	0
 7195 1fc0 0C       		.uleb128 0xc
 7196 1fc1 04       		.byte	0x4
 7197 1fc2 24       		.byte	0x24
 7198 1fc3 B3       		.byte	0xb3
 7199 1fc4 E11F0000 		.4byte	0x1fe1
 7200 1fc8 11       		.uleb128 0x11
 7201 1fc9 73657400 		.ascii	"set\000"
 7202 1fcd 24       		.byte	0x24
 7203 1fce B4       		.byte	0xb4
 7204 1fcf 130B0000 		.4byte	0xb13
 7205 1fd3 00       		.byte	0
ARM GAS  /var/folders/qd/4mxf5pkd0zdf0b9dd1hp39180000gn/T//cc0H01tt.s 			page 128


 7206 1fd4 0D       		.uleb128 0xd
 7207 1fd5 450E0000 		.4byte	.LASF433
 7208 1fd9 24       		.byte	0x24
 7209 1fda B5       		.byte	0xb5
 7210 1fdb 130B0000 		.4byte	0xb13
 7211 1fdf 02       		.byte	0x2
 7212 1fe0 00       		.byte	0
 7213 1fe1 08       		.uleb128 0x8
 7214 1fe2 04       		.byte	0x4
 7215 1fe3 24       		.byte	0x24
 7216 1fe4 B1       		.byte	0xb1
 7217 1fe5 FC1F0000 		.4byte	0x1ffc
 7218 1fe9 2C       		.uleb128 0x2c
 7219 1fea 5700     		.ascii	"W\000"
 7220 1fec 24       		.byte	0x24
 7221 1fed B2       		.byte	0xb2
 7222 1fee 2E0B0000 		.4byte	0xb2e
 7223 1ff2 2C       		.uleb128 0x2c
 7224 1ff3 4800     		.ascii	"H\000"
 7225 1ff5 24       		.byte	0x24
 7226 1ff6 B6       		.byte	0xb6
 7227 1ff7 C01F0000 		.4byte	0x1fc0
 7228 1ffb 00       		.byte	0
 7229 1ffc 1A       		.uleb128 0x1a
 7230 1ffd E11F0000 		.4byte	0x1fe1
 7231 2001 0C       		.uleb128 0xc
 7232 2002 2C       		.byte	0x2c
 7233 2003 24       		.byte	0x24
 7234 2004 A9       		.byte	0xa9
 7235 2005 8E200000 		.4byte	0x208e
 7236 2009 0D       		.uleb128 0xd
 7237 200a 02220000 		.4byte	.LASF434
 7238 200e 24       		.byte	0x24
 7239 200f AB       		.byte	0xab
 7240 2010 390B0000 		.4byte	0xb39
 7241 2014 00       		.byte	0
 7242 2015 0D       		.uleb128 0xd
 7243 2016 60030000 		.4byte	.LASF435
 7244 201a 24       		.byte	0x24
 7245 201b AC       		.byte	0xac
 7246 201c 390B0000 		.4byte	0xb39
 7247 2020 04       		.byte	0x4
 7248 2021 0D       		.uleb128 0xd
 7249 2022 DE0F0000 		.4byte	.LASF436
 7250 2026 24       		.byte	0x24
 7251 2027 AD       		.byte	0xad
 7252 2028 390B0000 		.4byte	0xb39
 7253 202c 08       		.byte	0x8
 7254 202d 0D       		.uleb128 0xd
 7255 202e 47210000 		.4byte	.LASF437
 7256 2032 24       		.byte	0x24
 7257 2033 AE       		.byte	0xae
 7258 2034 390B0000 		.4byte	0xb39
 7259 2038 0C       		.byte	0xc
 7260 2039 11       		.uleb128 0x11
 7261 203a 49445200 		.ascii	"IDR\000"
 7262 203e 24       		.byte	0x24
ARM GAS  /var/folders/qd/4mxf5pkd0zdf0b9dd1hp39180000gn/T//cc0H01tt.s 			page 129


 7263 203f AF       		.byte	0xaf
 7264 2040 390B0000 		.4byte	0xb39
 7265 2044 10       		.byte	0x10
 7266 2045 11       		.uleb128 0x11
 7267 2046 4F445200 		.ascii	"ODR\000"
 7268 204a 24       		.byte	0x24
 7269 204b B0       		.byte	0xb0
 7270 204c 390B0000 		.4byte	0xb39
 7271 2050 14       		.byte	0x14
 7272 2051 0D       		.uleb128 0xd
 7273 2052 F7140000 		.4byte	.LASF438
 7274 2056 24       		.byte	0x24
 7275 2057 B7       		.byte	0xb7
 7276 2058 FC1F0000 		.4byte	0x1ffc
 7277 205c 18       		.byte	0x18
 7278 205d 0D       		.uleb128 0xd
 7279 205e EE1B0000 		.4byte	.LASF439
 7280 2062 24       		.byte	0x24
 7281 2063 B8       		.byte	0xb8
 7282 2064 390B0000 		.4byte	0xb39
 7283 2068 1C       		.byte	0x1c
 7284 2069 0D       		.uleb128 0xd
 7285 206a 7D1F0000 		.4byte	.LASF440
 7286 206e 24       		.byte	0x24
 7287 206f B9       		.byte	0xb9
 7288 2070 390B0000 		.4byte	0xb39
 7289 2074 20       		.byte	0x20
 7290 2075 0D       		.uleb128 0xd
 7291 2076 781F0000 		.4byte	.LASF441
 7292 207a 24       		.byte	0x24
 7293 207b BA       		.byte	0xba
 7294 207c 390B0000 		.4byte	0xb39
 7295 2080 24       		.byte	0x24
 7296 2081 11       		.uleb128 0x11
 7297 2082 42525200 		.ascii	"BRR\000"
 7298 2086 24       		.byte	0x24
 7299 2087 BB       		.byte	0xbb
 7300 2088 390B0000 		.4byte	0xb39
 7301 208c 28       		.byte	0x28
 7302 208d 00       		.byte	0
 7303 208e 04       		.uleb128 0x4
 7304 208f 5D120000 		.4byte	.LASF442
 7305 2093 24       		.byte	0x24
 7306 2094 BC       		.byte	0xbc
 7307 2095 01200000 		.4byte	0x2001
 7308 2099 0C       		.uleb128 0xc
 7309 209a 1C       		.byte	0x1c
 7310 209b 24       		.byte	0x24
 7311 209c C1       		.byte	0xc1
 7312 209d F6200000 		.4byte	0x20f6
 7313 20a1 0D       		.uleb128 0xd
 7314 20a2 89250000 		.4byte	.LASF443
 7315 20a6 24       		.byte	0x24
 7316 20a7 C3       		.byte	0xc3
 7317 20a8 2E0B0000 		.4byte	0xb2e
 7318 20ac 00       		.byte	0
 7319 20ad 0D       		.uleb128 0xd
ARM GAS  /var/folders/qd/4mxf5pkd0zdf0b9dd1hp39180000gn/T//cc0H01tt.s 			page 130


 7320 20ae 3B030000 		.4byte	.LASF444
 7321 20b2 24       		.byte	0x24
 7322 20b3 C5       		.byte	0xc5
 7323 20b4 2E0B0000 		.4byte	0xb2e
 7324 20b8 04       		.byte	0x4
 7325 20b9 0D       		.uleb128 0xd
 7326 20ba 63020000 		.4byte	.LASF445
 7327 20be 24       		.byte	0x24
 7328 20bf C7       		.byte	0xc7
 7329 20c0 2E0B0000 		.4byte	0xb2e
 7330 20c4 08       		.byte	0x8
 7331 20c5 0D       		.uleb128 0xd
 7332 20c6 A0240000 		.4byte	.LASF446
 7333 20ca 24       		.byte	0x24
 7334 20cb C9       		.byte	0xc9
 7335 20cc 2E0B0000 		.4byte	0xb2e
 7336 20d0 0C       		.byte	0xc
 7337 20d1 11       		.uleb128 0x11
 7338 20d2 6F647200 		.ascii	"odr\000"
 7339 20d6 24       		.byte	0x24
 7340 20d7 CB       		.byte	0xcb
 7341 20d8 2E0B0000 		.4byte	0xb2e
 7342 20dc 10       		.byte	0x10
 7343 20dd 0D       		.uleb128 0xd
 7344 20de CC210000 		.4byte	.LASF447
 7345 20e2 24       		.byte	0x24
 7346 20e3 CD       		.byte	0xcd
 7347 20e4 2E0B0000 		.4byte	0xb2e
 7348 20e8 14       		.byte	0x14
 7349 20e9 0D       		.uleb128 0xd
 7350 20ea 73000000 		.4byte	.LASF448
 7351 20ee 24       		.byte	0x24
 7352 20ef CF       		.byte	0xcf
 7353 20f0 2E0B0000 		.4byte	0xb2e
 7354 20f4 18       		.byte	0x18
 7355 20f5 00       		.byte	0
 7356 20f6 04       		.uleb128 0x4
 7357 20f7 8C1E0000 		.4byte	.LASF449
 7358 20fb 24       		.byte	0x24
 7359 20fc D0       		.byte	0xd0
 7360 20fd 99200000 		.4byte	0x2099
 7361 2101 0C       		.uleb128 0xc
 7362 2102 FC       		.byte	0xfc
 7363 2103 24       		.byte	0x24
 7364 2104 D9       		.byte	0xd9
 7365 2105 76210000 		.4byte	0x2176
 7366 2109 0D       		.uleb128 0xd
 7367 210a FB120000 		.4byte	.LASF450
 7368 210e 24       		.byte	0x24
 7369 210f DC       		.byte	0xdc
 7370 2110 F6200000 		.4byte	0x20f6
 7371 2114 00       		.byte	0
 7372 2115 0D       		.uleb128 0xd
 7373 2116 24030000 		.4byte	.LASF451
 7374 211a 24       		.byte	0x24
 7375 211b E0       		.byte	0xe0
 7376 211c F6200000 		.4byte	0x20f6
ARM GAS  /var/folders/qd/4mxf5pkd0zdf0b9dd1hp39180000gn/T//cc0H01tt.s 			page 131


 7377 2120 1C       		.byte	0x1c
 7378 2121 0D       		.uleb128 0xd
 7379 2122 F0010000 		.4byte	.LASF452
 7380 2126 24       		.byte	0x24
 7381 2127 E4       		.byte	0xe4
 7382 2128 F6200000 		.4byte	0x20f6
 7383 212c 38       		.byte	0x38
 7384 212d 0D       		.uleb128 0xd
 7385 212e 5D0F0000 		.4byte	.LASF453
 7386 2132 24       		.byte	0x24
 7387 2133 E8       		.byte	0xe8
 7388 2134 F6200000 		.4byte	0x20f6
 7389 2138 54       		.byte	0x54
 7390 2139 0D       		.uleb128 0xd
 7391 213a 8B1D0000 		.4byte	.LASF454
 7392 213e 24       		.byte	0x24
 7393 213f EC       		.byte	0xec
 7394 2140 F6200000 		.4byte	0x20f6
 7395 2144 70       		.byte	0x70
 7396 2145 0D       		.uleb128 0xd
 7397 2146 B0290000 		.4byte	.LASF455
 7398 214a 24       		.byte	0x24
 7399 214b F0       		.byte	0xf0
 7400 214c F6200000 		.4byte	0x20f6
 7401 2150 8C       		.byte	0x8c
 7402 2151 0D       		.uleb128 0xd
 7403 2152 E70C0000 		.4byte	.LASF456
 7404 2156 24       		.byte	0x24
 7405 2157 F4       		.byte	0xf4
 7406 2158 F6200000 		.4byte	0x20f6
 7407 215c A8       		.byte	0xa8
 7408 215d 0D       		.uleb128 0xd
 7409 215e 5C1B0000 		.4byte	.LASF457
 7410 2162 24       		.byte	0x24
 7411 2163 F8       		.byte	0xf8
 7412 2164 F6200000 		.4byte	0x20f6
 7413 2168 C4       		.byte	0xc4
 7414 2169 0D       		.uleb128 0xd
 7415 216a 81270000 		.4byte	.LASF458
 7416 216e 24       		.byte	0x24
 7417 216f FC       		.byte	0xfc
 7418 2170 F6200000 		.4byte	0x20f6
 7419 2174 E0       		.byte	0xe0
 7420 2175 00       		.byte	0
 7421 2176 04       		.uleb128 0x4
 7422 2177 D70B0000 		.4byte	.LASF459
 7423 217b 24       		.byte	0x24
 7424 217c FE       		.byte	0xfe
 7425 217d 01210000 		.4byte	0x2101
 7426 2181 0F       		.uleb128 0xf
 7427 2182 76210000 		.4byte	0x2176
 7428 2186 07       		.uleb128 0x7
 7429 2187 631B0000 		.4byte	.LASF460
 7430 218b 24       		.byte	0x24
 7431 218c 1B01     		.2byte	0x11b
 7432 218e 92210000 		.4byte	0x2192
 7433 2192 05       		.uleb128 0x5
ARM GAS  /var/folders/qd/4mxf5pkd0zdf0b9dd1hp39180000gn/T//cc0H01tt.s 			page 132


 7434 2193 04       		.byte	0x4
 7435 2194 8E200000 		.4byte	0x208e
 7436 2198 20       		.uleb128 0x20
 7437 2199 C6220000 		.4byte	.LASF461
 7438 219d 24       		.byte	0x24
 7439 219e DA01     		.2byte	0x1da
 7440 21a0 81210000 		.4byte	0x2181
 7441 21a4 26       		.uleb128 0x26
 7442 21a5 07       		.byte	0x7
 7443 21a6 01       		.byte	0x1
 7444 21a7 73000000 		.4byte	0x73
 7445 21ab 25       		.byte	0x25
 7446 21ac 46       		.byte	0x46
 7447 21ad D6210000 		.4byte	0x21d6
 7448 21b1 23       		.uleb128 0x23
 7449 21b2 42090000 		.4byte	.LASF462
 7450 21b6 00       		.byte	0
 7451 21b7 23       		.uleb128 0x23
 7452 21b8 ED170000 		.4byte	.LASF463
 7453 21bc 01       		.byte	0x1
 7454 21bd 23       		.uleb128 0x23
 7455 21be 25250000 		.4byte	.LASF464
 7456 21c2 02       		.byte	0x2
 7457 21c3 23       		.uleb128 0x23
 7458 21c4 DD140000 		.4byte	.LASF465
 7459 21c8 03       		.byte	0x3
 7460 21c9 23       		.uleb128 0x23
 7461 21ca F3060000 		.4byte	.LASF466
 7462 21ce 04       		.byte	0x4
 7463 21cf 23       		.uleb128 0x23
 7464 21d0 A0140000 		.4byte	.LASF467
 7465 21d4 05       		.byte	0x5
 7466 21d5 00       		.byte	0
 7467 21d6 04       		.uleb128 0x4
 7468 21d7 B1040000 		.4byte	.LASF468
 7469 21db 25       		.byte	0x25
 7470 21dc 4D       		.byte	0x4d
 7471 21dd A4210000 		.4byte	0x21a4
 7472 21e1 07       		.uleb128 0x7
 7473 21e2 A4130000 		.4byte	.LASF469
 7474 21e6 26       		.byte	0x26
 7475 21e7 2701     		.2byte	0x127
 7476 21e9 130B0000 		.4byte	0xb13
 7477 21ed 07       		.uleb128 0x7
 7478 21ee 1E200000 		.4byte	.LASF470
 7479 21f2 26       		.byte	0x26
 7480 21f3 2C01     		.2byte	0x12c
 7481 21f5 130B0000 		.4byte	0xb13
 7482 21f9 2D       		.uleb128 0x2d
 7483 21fa 07       		.byte	0x7
 7484 21fb 01       		.byte	0x1
 7485 21fc 73000000 		.4byte	0x73
 7486 2200 26       		.byte	0x26
 7487 2201 3301     		.2byte	0x133
 7488 2203 14220000 		.4byte	0x2214
 7489 2207 23       		.uleb128 0x23
 7490 2208 AA0F0000 		.4byte	.LASF471
ARM GAS  /var/folders/qd/4mxf5pkd0zdf0b9dd1hp39180000gn/T//cc0H01tt.s 			page 133


 7491 220c 00       		.byte	0
 7492 220d 23       		.uleb128 0x23
 7493 220e 80020000 		.4byte	.LASF472
 7494 2212 01       		.byte	0x1
 7495 2213 00       		.byte	0
 7496 2214 07       		.uleb128 0x7
 7497 2215 94260000 		.4byte	.LASF473
 7498 2219 26       		.byte	0x26
 7499 221a 3601     		.2byte	0x136
 7500 221c F9210000 		.4byte	0x21f9
 7501 2220 07       		.uleb128 0x7
 7502 2221 5E100000 		.4byte	.LASF474
 7503 2225 26       		.byte	0x26
 7504 2226 3B01     		.2byte	0x13b
 7505 2228 2C220000 		.4byte	0x222c
 7506 222c 1B       		.uleb128 0x1b
 7507 222d 5E100000 		.4byte	.LASF474
 7508 2231 38       		.byte	0x38
 7509 2232 26       		.byte	0x26
 7510 2233 9F01     		.2byte	0x19f
 7511 2235 BC220000 		.4byte	0x22bc
 7512 2239 18       		.uleb128 0x18
 7513 223a 44190000 		.4byte	.LASF475
 7514 223e 26       		.byte	0x26
 7515 223f A301     		.2byte	0x1a3
 7516 2241 D6210000 		.4byte	0x21d6
 7517 2245 00       		.byte	0
 7518 2246 18       		.uleb128 0x18
 7519 2247 C21F0000 		.4byte	.LASF476
 7520 224b 26       		.byte	0x26
 7521 224c A701     		.2byte	0x1a7
 7522 224e E3230000 		.4byte	0x23e3
 7523 2252 04       		.byte	0x4
 7524 2253 18       		.uleb128 0x18
 7525 2254 16020000 		.4byte	.LASF477
 7526 2258 26       		.byte	0x26
 7527 2259 AB01     		.2byte	0x1ab
 7528 225b E9220000 		.4byte	0x22e9
 7529 225f 08       		.byte	0x8
 7530 2260 18       		.uleb128 0x18
 7531 2261 F5190000 		.4byte	.LASF478
 7532 2265 26       		.byte	0x26
 7533 2266 AF01     		.2byte	0x1af
 7534 2268 48000000 		.4byte	0x48
 7535 226c 0C       		.byte	0xc
 7536 226d 18       		.uleb128 0x18
 7537 226e D9220000 		.4byte	.LASF479
 7538 2272 26       		.byte	0x26
 7539 2273 B301     		.2byte	0x1b3
 7540 2275 E9230000 		.4byte	0x23e9
 7541 2279 10       		.byte	0x10
 7542 227a 18       		.uleb128 0x18
 7543 227b 98070000 		.4byte	.LASF480
 7544 227f 26       		.byte	0x26
 7545 2280 B801     		.2byte	0x1b8
 7546 2282 0B0D0000 		.4byte	0xd0b
 7547 2286 14       		.byte	0x14
ARM GAS  /var/folders/qd/4mxf5pkd0zdf0b9dd1hp39180000gn/T//cc0H01tt.s 			page 134


 7548 2287 18       		.uleb128 0x18
 7549 2288 CD0D0000 		.4byte	.LASF481
 7550 228c 26       		.byte	0x26
 7551 228d BE01     		.2byte	0x1be
 7552 228f F21B0000 		.4byte	0x1bf2
 7553 2293 18       		.byte	0x18
 7554 2294 27       		.uleb128 0x27
 7555 2295 61646300 		.ascii	"adc\000"
 7556 2299 26       		.byte	0x26
 7557 229a C701     		.2byte	0x1c7
 7558 229c EF230000 		.4byte	0x23ef
 7559 22a0 2C       		.byte	0x2c
 7560 22a1 18       		.uleb128 0x18
 7561 22a2 810B0000 		.4byte	.LASF482
 7562 22a6 26       		.byte	0x26
 7563 22a7 CB01     		.2byte	0x1cb
 7564 22a9 F5230000 		.4byte	0x23f5
 7565 22ad 30       		.byte	0x30
 7566 22ae 18       		.uleb128 0x18
 7567 22af 851B0000 		.4byte	.LASF483
 7568 22b3 26       		.byte	0x26
 7569 22b4 CF01     		.2byte	0x1cf
 7570 22b6 2E0B0000 		.4byte	0xb2e
 7571 22ba 34       		.byte	0x34
 7572 22bb 00       		.byte	0
 7573 22bc 07       		.uleb128 0x7
 7574 22bd 1D1F0000 		.4byte	.LASF484
 7575 22c1 26       		.byte	0x26
 7576 22c2 4501     		.2byte	0x145
 7577 22c4 C8220000 		.4byte	0x22c8
 7578 22c8 05       		.uleb128 0x5
 7579 22c9 04       		.byte	0x4
 7580 22ca CE220000 		.4byte	0x22ce
 7581 22ce 1F       		.uleb128 0x1f
 7582 22cf E3220000 		.4byte	0x22e3
 7583 22d3 16       		.uleb128 0x16
 7584 22d4 E3220000 		.4byte	0x22e3
 7585 22d8 16       		.uleb128 0x16
 7586 22d9 E9220000 		.4byte	0x22e9
 7587 22dd 16       		.uleb128 0x16
 7588 22de 48000000 		.4byte	0x48
 7589 22e2 00       		.byte	0
 7590 22e3 05       		.uleb128 0x5
 7591 22e4 04       		.byte	0x4
 7592 22e5 20220000 		.4byte	0x2220
 7593 22e9 05       		.uleb128 0x5
 7594 22ea 04       		.byte	0x4
 7595 22eb E1210000 		.4byte	0x21e1
 7596 22ef 07       		.uleb128 0x7
 7597 22f0 01190000 		.4byte	.LASF485
 7598 22f4 26       		.byte	0x26
 7599 22f5 4E01     		.2byte	0x14e
 7600 22f7 FB220000 		.4byte	0x22fb
 7601 22fb 05       		.uleb128 0x5
 7602 22fc 04       		.byte	0x4
 7603 22fd 01230000 		.4byte	0x2301
 7604 2301 1F       		.uleb128 0x1f
ARM GAS  /var/folders/qd/4mxf5pkd0zdf0b9dd1hp39180000gn/T//cc0H01tt.s 			page 135


 7605 2302 11230000 		.4byte	0x2311
 7606 2306 16       		.uleb128 0x16
 7607 2307 E3220000 		.4byte	0x22e3
 7608 230b 16       		.uleb128 0x16
 7609 230c 14220000 		.4byte	0x2214
 7610 2310 00       		.byte	0
 7611 2311 1C       		.uleb128 0x1c
 7612 2312 28       		.byte	0x28
 7613 2313 26       		.byte	0x26
 7614 2314 5801     		.2byte	0x158
 7615 2316 AA230000 		.4byte	0x23aa
 7616 231a 18       		.uleb128 0x18
 7617 231b 75250000 		.4byte	.LASF486
 7618 231f 26       		.byte	0x26
 7619 2320 5C01     		.2byte	0x15c
 7620 2322 B00A0000 		.4byte	0xab0
 7621 2326 00       		.byte	0
 7622 2327 18       		.uleb128 0x18
 7623 2328 AF120000 		.4byte	.LASF487
 7624 232c 26       		.byte	0x26
 7625 232d 6001     		.2byte	0x160
 7626 232f ED210000 		.4byte	0x21ed
 7627 2333 02       		.byte	0x2
 7628 2334 18       		.uleb128 0x18
 7629 2335 410A0000 		.4byte	.LASF488
 7630 2339 26       		.byte	0x26
 7631 233a 6401     		.2byte	0x164
 7632 233c BC220000 		.4byte	0x22bc
 7633 2340 04       		.byte	0x4
 7634 2341 18       		.uleb128 0x18
 7635 2342 A0270000 		.4byte	.LASF489
 7636 2346 26       		.byte	0x26
 7637 2347 6801     		.2byte	0x168
 7638 2349 EF220000 		.4byte	0x22ef
 7639 234d 08       		.byte	0x8
 7640 234e 27       		.uleb128 0x27
 7641 234f 63723100 		.ascii	"cr1\000"
 7642 2353 26       		.byte	0x26
 7643 2354 6F01     		.2byte	0x16f
 7644 2356 2E0B0000 		.4byte	0xb2e
 7645 235a 0C       		.byte	0xc
 7646 235b 27       		.uleb128 0x27
 7647 235c 63723200 		.ascii	"cr2\000"
 7648 2360 26       		.byte	0x26
 7649 2361 7601     		.2byte	0x176
 7650 2363 2E0B0000 		.4byte	0xb2e
 7651 2367 10       		.byte	0x10
 7652 2368 18       		.uleb128 0x18
 7653 2369 771A0000 		.4byte	.LASF490
 7654 236d 26       		.byte	0x26
 7655 236e 7C01     		.2byte	0x17c
 7656 2370 2E0B0000 		.4byte	0xb2e
 7657 2374 14       		.byte	0x14
 7658 2375 18       		.uleb128 0x18
 7659 2376 7D1A0000 		.4byte	.LASF491
 7660 237a 26       		.byte	0x26
 7661 237b 8201     		.2byte	0x182
ARM GAS  /var/folders/qd/4mxf5pkd0zdf0b9dd1hp39180000gn/T//cc0H01tt.s 			page 136


 7662 237d 2E0B0000 		.4byte	0xb2e
 7663 2381 18       		.byte	0x18
 7664 2382 18       		.uleb128 0x18
 7665 2383 77010000 		.4byte	.LASF492
 7666 2387 26       		.byte	0x26
 7667 2388 8701     		.2byte	0x187
 7668 238a 2E0B0000 		.4byte	0xb2e
 7669 238e 1C       		.byte	0x1c
 7670 238f 18       		.uleb128 0x18
 7671 2390 AD280000 		.4byte	.LASF493
 7672 2394 26       		.byte	0x26
 7673 2395 8C01     		.2byte	0x18c
 7674 2397 2E0B0000 		.4byte	0xb2e
 7675 239b 20       		.byte	0x20
 7676 239c 18       		.uleb128 0x18
 7677 239d B2280000 		.4byte	.LASF494
 7678 23a1 26       		.byte	0x26
 7679 23a2 9101     		.2byte	0x191
 7680 23a4 2E0B0000 		.4byte	0xb2e
 7681 23a8 24       		.byte	0x24
 7682 23a9 00       		.byte	0
 7683 23aa 07       		.uleb128 0x7
 7684 23ab 0C060000 		.4byte	.LASF495
 7685 23af 26       		.byte	0x26
 7686 23b0 9201     		.2byte	0x192
 7687 23b2 11230000 		.4byte	0x2311
 7688 23b6 0F       		.uleb128 0xf
 7689 23b7 AA230000 		.4byte	0x23aa
 7690 23bb 1C       		.uleb128 0x1c
 7691 23bc 04       		.byte	0x4
 7692 23bd 26       		.byte	0x26
 7693 23be 9801     		.2byte	0x198
 7694 23c0 D2230000 		.4byte	0x23d2
 7695 23c4 18       		.uleb128 0x18
 7696 23c5 D3280000 		.4byte	.LASF496
 7697 23c9 26       		.byte	0x26
 7698 23ca 9901     		.2byte	0x199
 7699 23cc 2E0B0000 		.4byte	0xb2e
 7700 23d0 00       		.byte	0
 7701 23d1 00       		.byte	0
 7702 23d2 07       		.uleb128 0x7
 7703 23d3 76100000 		.4byte	.LASF497
 7704 23d7 26       		.byte	0x26
 7705 23d8 9A01     		.2byte	0x19a
 7706 23da BB230000 		.4byte	0x23bb
 7707 23de 0F       		.uleb128 0xf
 7708 23df D2230000 		.4byte	0x23d2
 7709 23e3 05       		.uleb128 0x5
 7710 23e4 04       		.byte	0x4
 7711 23e5 DE230000 		.4byte	0x23de
 7712 23e9 05       		.uleb128 0x5
 7713 23ea 04       		.byte	0x4
 7714 23eb B6230000 		.4byte	0x23b6
 7715 23ef 05       		.uleb128 0x5
 7716 23f0 04       		.byte	0x4
 7717 23f1 8E100000 		.4byte	0x108e
 7718 23f5 05       		.uleb128 0x5
ARM GAS  /var/folders/qd/4mxf5pkd0zdf0b9dd1hp39180000gn/T//cc0H01tt.s 			page 137


 7719 23f6 04       		.byte	0x4
 7720 23f7 111E0000 		.4byte	0x1e11
 7721 23fb 20       		.uleb128 0x20
 7722 23fc 6E1B0000 		.4byte	.LASF498
 7723 2400 26       		.byte	0x26
 7724 2401 1402     		.2byte	0x214
 7725 2403 20220000 		.4byte	0x2220
 7726 2407 20       		.uleb128 0x20
 7727 2408 741B0000 		.4byte	.LASF499
 7728 240c 26       		.byte	0x26
 7729 240d 1802     		.2byte	0x218
 7730 240f 20220000 		.4byte	0x2220
 7731 2413 20       		.uleb128 0x20
 7732 2414 7A1B0000 		.4byte	.LASF500
 7733 2418 26       		.byte	0x26
 7734 2419 1C02     		.2byte	0x21c
 7735 241b 20220000 		.4byte	0x2220
 7736 241f 26       		.uleb128 0x26
 7737 2420 07       		.byte	0x7
 7738 2421 01       		.byte	0x1
 7739 2422 73000000 		.4byte	0x73
 7740 2426 27       		.byte	0x27
 7741 2427 5F       		.byte	0x5f
 7742 2428 4B240000 		.4byte	0x244b
 7743 242c 23       		.uleb128 0x23
 7744 242d E60E0000 		.4byte	.LASF501
 7745 2431 00       		.byte	0
 7746 2432 23       		.uleb128 0x23
 7747 2433 C6000000 		.4byte	.LASF502
 7748 2437 01       		.byte	0x1
 7749 2438 23       		.uleb128 0x23
 7750 2439 4D000000 		.4byte	.LASF503
 7751 243d 02       		.byte	0x2
 7752 243e 23       		.uleb128 0x23
 7753 243f BC1C0000 		.4byte	.LASF504
 7754 2443 03       		.byte	0x3
 7755 2444 23       		.uleb128 0x23
 7756 2445 F90A0000 		.4byte	.LASF505
 7757 2449 04       		.byte	0x4
 7758 244a 00       		.byte	0
 7759 244b 04       		.uleb128 0x4
 7760 244c 66060000 		.4byte	.LASF506
 7761 2450 27       		.byte	0x27
 7762 2451 65       		.byte	0x65
 7763 2452 1F240000 		.4byte	0x241f
 7764 2456 0A       		.uleb128 0xa
 7765 2457 F80A0000 		.4byte	0xaf8
 7766 245b 66240000 		.4byte	0x2466
 7767 245f 0B       		.uleb128 0xb
 7768 2460 2C000000 		.4byte	0x2c
 7769 2464 07       		.byte	0x7
 7770 2465 00       		.byte	0
 7771 2466 0C       		.uleb128 0xc
 7772 2467 08       		.byte	0x8
 7773 2468 28       		.byte	0x28
 7774 2469 F4       		.byte	0xf4
 7775 246a 88240000 		.4byte	0x2488
ARM GAS  /var/folders/qd/4mxf5pkd0zdf0b9dd1hp39180000gn/T//cc0H01tt.s 			page 138


 7776 246e 11       		.uleb128 0x11
 7777 246f 6D637200 		.ascii	"mcr\000"
 7778 2473 28       		.byte	0x28
 7779 2474 FA       		.byte	0xfa
 7780 2475 2E0B0000 		.4byte	0xb2e
 7781 2479 00       		.byte	0
 7782 247a 27       		.uleb128 0x27
 7783 247b 62747200 		.ascii	"btr\000"
 7784 247f 28       		.byte	0x28
 7785 2480 0001     		.2byte	0x100
 7786 2482 2E0B0000 		.4byte	0xb2e
 7787 2486 04       		.byte	0x4
 7788 2487 00       		.byte	0
 7789 2488 07       		.uleb128 0x7
 7790 2489 811D0000 		.4byte	.LASF507
 7791 248d 28       		.byte	0x28
 7792 248e 0101     		.2byte	0x101
 7793 2490 66240000 		.4byte	0x2466
 7794 2494 0F       		.uleb128 0xf
 7795 2495 88240000 		.4byte	0x2488
 7796 2499 1C       		.uleb128 0x1c
 7797 249a 30       		.byte	0x30
 7798 249b 28       		.byte	0x28
 7799 249c 0601     		.2byte	0x106
 7800 249e 25250000 		.4byte	0x2525
 7801 24a2 18       		.uleb128 0x18
 7802 24a3 44190000 		.4byte	.LASF475
 7803 24a7 28       		.byte	0x28
 7804 24a8 0A01     		.2byte	0x10a
 7805 24aa 4B240000 		.4byte	0x244b
 7806 24ae 00       		.byte	0
 7807 24af 18       		.uleb128 0x18
 7808 24b0 C21F0000 		.4byte	.LASF476
 7809 24b4 28       		.byte	0x28
 7810 24b5 0E01     		.2byte	0x10e
 7811 24b7 25250000 		.4byte	0x2525
 7812 24bb 04       		.byte	0x4
 7813 24bc 18       		.uleb128 0x18
 7814 24bd 880A0000 		.4byte	.LASF508
 7815 24c1 28       		.byte	0x28
 7816 24c2 1201     		.2byte	0x112
 7817 24c4 400D0000 		.4byte	0xd40
 7818 24c8 08       		.byte	0x8
 7819 24c9 18       		.uleb128 0x18
 7820 24ca AD220000 		.4byte	.LASF509
 7821 24ce 28       		.byte	0x28
 7822 24cf 1601     		.2byte	0x116
 7823 24d1 400D0000 		.4byte	0xd40
 7824 24d5 10       		.byte	0x10
 7825 24d6 18       		.uleb128 0x18
 7826 24d7 451D0000 		.4byte	.LASF510
 7827 24db 28       		.byte	0x28
 7828 24dc 2301     		.2byte	0x123
 7829 24de 761C0000 		.4byte	0x1c76
 7830 24e2 18       		.byte	0x18
 7831 24e3 18       		.uleb128 0x18
 7832 24e4 521D0000 		.4byte	.LASF511
ARM GAS  /var/folders/qd/4mxf5pkd0zdf0b9dd1hp39180000gn/T//cc0H01tt.s 			page 139


 7833 24e8 28       		.byte	0x28
 7834 24e9 2A01     		.2byte	0x12a
 7835 24eb 761C0000 		.4byte	0x1c76
 7836 24ef 1C       		.byte	0x1c
 7837 24f0 18       		.uleb128 0x18
 7838 24f1 A3120000 		.4byte	.LASF512
 7839 24f5 28       		.byte	0x28
 7840 24f6 3001     		.2byte	0x130
 7841 24f8 761C0000 		.4byte	0x1c76
 7842 24fc 20       		.byte	0x20
 7843 24fd 18       		.uleb128 0x18
 7844 24fe B4030000 		.4byte	.LASF513
 7845 2502 28       		.byte	0x28
 7846 2503 3501     		.2byte	0x135
 7847 2505 761C0000 		.4byte	0x1c76
 7848 2509 24       		.byte	0x24
 7849 250a 18       		.uleb128 0x18
 7850 250b 250A0000 		.4byte	.LASF514
 7851 250f 28       		.byte	0x28
 7852 2510 3901     		.2byte	0x139
 7853 2512 761C0000 		.4byte	0x1c76
 7854 2516 28       		.byte	0x28
 7855 2517 27       		.uleb128 0x27
 7856 2518 63616E00 		.ascii	"can\000"
 7857 251c 28       		.byte	0x28
 7858 251d 3F01     		.2byte	0x13f
 7859 251f 2B250000 		.4byte	0x252b
 7860 2523 2C       		.byte	0x2c
 7861 2524 00       		.byte	0
 7862 2525 05       		.uleb128 0x5
 7863 2526 04       		.byte	0x4
 7864 2527 94240000 		.4byte	0x2494
 7865 252b 05       		.uleb128 0x5
 7866 252c 04       		.byte	0x4
 7867 252d D7120000 		.4byte	0x12d7
 7868 2531 07       		.uleb128 0x7
 7869 2532 21040000 		.4byte	.LASF515
 7870 2536 28       		.byte	0x28
 7871 2537 4001     		.2byte	0x140
 7872 2539 99240000 		.4byte	0x2499
 7873 253d 20       		.uleb128 0x20
 7874 253e 50240000 		.4byte	.LASF516
 7875 2542 28       		.byte	0x28
 7876 2543 4B01     		.2byte	0x14b
 7877 2545 31250000 		.4byte	0x2531
 7878 2549 26       		.uleb128 0x26
 7879 254a 07       		.byte	0x7
 7880 254b 01       		.byte	0x1
 7881 254c 73000000 		.4byte	0x73
 7882 2550 29       		.byte	0x29
 7883 2551 46       		.byte	0x46
 7884 2552 7B250000 		.4byte	0x257b
 7885 2556 23       		.uleb128 0x23
 7886 2557 13200000 		.4byte	.LASF517
 7887 255b 00       		.byte	0
 7888 255c 23       		.uleb128 0x23
 7889 255d C1250000 		.4byte	.LASF518
ARM GAS  /var/folders/qd/4mxf5pkd0zdf0b9dd1hp39180000gn/T//cc0H01tt.s 			page 140


 7890 2561 01       		.byte	0x1
 7891 2562 23       		.uleb128 0x23
 7892 2563 E60F0000 		.4byte	.LASF519
 7893 2567 02       		.byte	0x2
 7894 2568 23       		.uleb128 0x23
 7895 2569 24190000 		.4byte	.LASF520
 7896 256d 03       		.byte	0x3
 7897 256e 23       		.uleb128 0x23
 7898 256f 9D1F0000 		.4byte	.LASF521
 7899 2573 04       		.byte	0x4
 7900 2574 23       		.uleb128 0x23
 7901 2575 FF110000 		.4byte	.LASF522
 7902 2579 05       		.byte	0x5
 7903 257a 00       		.byte	0
 7904 257b 04       		.uleb128 0x4
 7905 257c FE1C0000 		.4byte	.LASF523
 7906 2580 29       		.byte	0x29
 7907 2581 4D       		.byte	0x4d
 7908 2582 49250000 		.4byte	0x2549
 7909 2586 0C       		.uleb128 0xc
 7910 2587 1C       		.byte	0x1c
 7911 2588 2A       		.byte	0x2a
 7912 2589 F9       		.byte	0xf9
 7913 258a E9250000 		.4byte	0x25e9
 7914 258e 11       		.uleb128 0x11
 7915 258f 64616300 		.ascii	"dac\000"
 7916 2593 2A       		.byte	0x2a
 7917 2594 FD       		.byte	0xfd
 7918 2595 E9250000 		.4byte	0x25e9
 7919 2599 00       		.byte	0
 7920 259a 18       		.uleb128 0x18
 7921 259b 361C0000 		.4byte	.LASF524
 7922 259f 2A       		.byte	0x2a
 7923 25a0 0101     		.2byte	0x101
 7924 25a2 2E0B0000 		.4byte	0xb2e
 7925 25a6 04       		.byte	0x4
 7926 25a7 18       		.uleb128 0x18
 7927 25a8 9F070000 		.4byte	.LASF525
 7928 25ac 2A       		.byte	0x2a
 7929 25ad 0501     		.2byte	0x105
 7930 25af 2E0B0000 		.4byte	0xb2e
 7931 25b3 08       		.byte	0x8
 7932 25b4 18       		.uleb128 0x18
 7933 25b5 29020000 		.4byte	.LASF526
 7934 25b9 2A       		.byte	0x2a
 7935 25ba 0901     		.2byte	0x109
 7936 25bc 2E0B0000 		.4byte	0xb2e
 7937 25c0 0C       		.byte	0xc
 7938 25c1 27       		.uleb128 0x27
 7939 25c2 646D6100 		.ascii	"dma\000"
 7940 25c6 2A       		.byte	0x2a
 7941 25c7 0D01     		.2byte	0x10d
 7942 25c9 F5230000 		.4byte	0x23f5
 7943 25cd 10       		.byte	0x10
 7944 25ce 18       		.uleb128 0x18
 7945 25cf 851B0000 		.4byte	.LASF483
 7946 25d3 2A       		.byte	0x2a
ARM GAS  /var/folders/qd/4mxf5pkd0zdf0b9dd1hp39180000gn/T//cc0H01tt.s 			page 141


 7947 25d4 1101     		.2byte	0x111
 7948 25d6 2E0B0000 		.4byte	0xb2e
 7949 25da 14       		.byte	0x14
 7950 25db 18       		.uleb128 0x18
 7951 25dc 3D1B0000 		.4byte	.LASF527
 7952 25e0 2A       		.byte	0x2a
 7953 25e1 1501     		.2byte	0x115
 7954 25e3 2E0B0000 		.4byte	0xb2e
 7955 25e7 18       		.byte	0x18
 7956 25e8 00       		.byte	0
 7957 25e9 05       		.uleb128 0x5
 7958 25ea 04       		.byte	0x4
 7959 25eb A1130000 		.4byte	0x13a1
 7960 25ef 07       		.uleb128 0x7
 7961 25f0 67030000 		.4byte	.LASF528
 7962 25f4 2A       		.byte	0x2a
 7963 25f5 1601     		.2byte	0x116
 7964 25f7 86250000 		.4byte	0x2586
 7965 25fb 0F       		.uleb128 0xf
 7966 25fc EF250000 		.4byte	0x25ef
 7967 2600 07       		.uleb128 0x7
 7968 2601 E40D0000 		.4byte	.LASF529
 7969 2605 2A       		.byte	0x2a
 7970 2606 1B01     		.2byte	0x11b
 7971 2608 0C260000 		.4byte	0x260c
 7972 260c 1B       		.uleb128 0x1b
 7973 260d E40D0000 		.4byte	.LASF529
 7974 2611 30       		.byte	0x30
 7975 2612 2A       		.byte	0x2a
 7976 2613 7B01     		.2byte	0x17b
 7977 2615 82260000 		.4byte	0x2682
 7978 2619 18       		.uleb128 0x18
 7979 261a 44190000 		.4byte	.LASF475
 7980 261e 2A       		.byte	0x2a
 7981 261f 7F01     		.2byte	0x17f
 7982 2621 7B250000 		.4byte	0x257b
 7983 2625 00       		.byte	0
 7984 2626 18       		.uleb128 0x18
 7985 2627 D9220000 		.4byte	.LASF479
 7986 262b 2A       		.byte	0x2a
 7987 262c 8301     		.2byte	0x183
 7988 262e C0270000 		.4byte	0x27c0
 7989 2632 04       		.byte	0x4
 7990 2633 18       		.uleb128 0x18
 7991 2634 16020000 		.4byte	.LASF477
 7992 2638 2A       		.byte	0x2a
 7993 2639 8701     		.2byte	0x187
 7994 263b E7260000 		.4byte	0x26e7
 7995 263f 08       		.byte	0x8
 7996 2640 18       		.uleb128 0x18
 7997 2641 F5190000 		.4byte	.LASF478
 7998 2645 2A       		.byte	0x2a
 7999 2646 8B01     		.2byte	0x18b
 8000 2648 130B0000 		.4byte	0xb13
 8001 264c 0C       		.byte	0xc
 8002 264d 18       		.uleb128 0x18
 8003 264e C21F0000 		.4byte	.LASF476
ARM GAS  /var/folders/qd/4mxf5pkd0zdf0b9dd1hp39180000gn/T//cc0H01tt.s 			page 142


 8004 2652 2A       		.byte	0x2a
 8005 2653 8F01     		.2byte	0x18f
 8006 2655 C6270000 		.4byte	0x27c6
 8007 2659 10       		.byte	0x10
 8008 265a 18       		.uleb128 0x18
 8009 265b 98070000 		.4byte	.LASF480
 8010 265f 2A       		.byte	0x2a
 8011 2660 9401     		.2byte	0x194
 8012 2662 0B0D0000 		.4byte	0xd0b
 8013 2666 14       		.byte	0x14
 8014 2667 18       		.uleb128 0x18
 8015 2668 CD0D0000 		.4byte	.LASF481
 8016 266c 2A       		.byte	0x2a
 8017 266d 9A01     		.2byte	0x19a
 8018 266f F21B0000 		.4byte	0x1bf2
 8019 2673 18       		.byte	0x18
 8020 2674 18       		.uleb128 0x18
 8021 2675 21130000 		.4byte	.LASF530
 8022 2679 2A       		.byte	0x2a
 8023 267a A301     		.2byte	0x1a3
 8024 267c CC270000 		.4byte	0x27cc
 8025 2680 2C       		.byte	0x2c
 8026 2681 00       		.byte	0
 8027 2682 07       		.uleb128 0x7
 8028 2683 171D0000 		.4byte	.LASF531
 8029 2687 2A       		.byte	0x2a
 8030 2688 2001     		.2byte	0x120
 8031 268a 130B0000 		.4byte	0xb13
 8032 268e 0F       		.uleb128 0xf
 8033 268f 82260000 		.4byte	0x2682
 8034 2693 2D       		.uleb128 0x2d
 8035 2694 07       		.byte	0x7
 8036 2695 01       		.byte	0x1
 8037 2696 73000000 		.4byte	0x73
 8038 269a 2A       		.byte	0x2a
 8039 269b 2701     		.2byte	0x127
 8040 269d AE260000 		.4byte	0x26ae
 8041 26a1 23       		.uleb128 0x23
 8042 26a2 D01D0000 		.4byte	.LASF532
 8043 26a6 00       		.byte	0
 8044 26a7 23       		.uleb128 0x23
 8045 26a8 130A0000 		.4byte	.LASF533
 8046 26ac 01       		.byte	0x1
 8047 26ad 00       		.byte	0
 8048 26ae 07       		.uleb128 0x7
 8049 26af 8E130000 		.4byte	.LASF534
 8050 26b3 2A       		.byte	0x2a
 8051 26b4 2A01     		.2byte	0x12a
 8052 26b6 93260000 		.4byte	0x2693
 8053 26ba 07       		.uleb128 0x7
 8054 26bb 4F080000 		.4byte	.LASF535
 8055 26bf 2A       		.byte	0x2a
 8056 26c0 3401     		.2byte	0x134
 8057 26c2 C6260000 		.4byte	0x26c6
 8058 26c6 05       		.uleb128 0x5
 8059 26c7 04       		.byte	0x4
 8060 26c8 CC260000 		.4byte	0x26cc
ARM GAS  /var/folders/qd/4mxf5pkd0zdf0b9dd1hp39180000gn/T//cc0H01tt.s 			page 143


 8061 26cc 1F       		.uleb128 0x1f
 8062 26cd E1260000 		.4byte	0x26e1
 8063 26d1 16       		.uleb128 0x16
 8064 26d2 E1260000 		.4byte	0x26e1
 8065 26d6 16       		.uleb128 0x16
 8066 26d7 E7260000 		.4byte	0x26e7
 8067 26db 16       		.uleb128 0x16
 8068 26dc 48000000 		.4byte	0x48
 8069 26e0 00       		.byte	0
 8070 26e1 05       		.uleb128 0x5
 8071 26e2 04       		.byte	0x4
 8072 26e3 00260000 		.4byte	0x2600
 8073 26e7 05       		.uleb128 0x5
 8074 26e8 04       		.byte	0x4
 8075 26e9 8E260000 		.4byte	0x268e
 8076 26ed 07       		.uleb128 0x7
 8077 26ee A6240000 		.4byte	.LASF536
 8078 26f2 2A       		.byte	0x2a
 8079 26f3 3F01     		.2byte	0x13f
 8080 26f5 F9260000 		.4byte	0x26f9
 8081 26f9 05       		.uleb128 0x5
 8082 26fa 04       		.byte	0x4
 8083 26fb FF260000 		.4byte	0x26ff
 8084 26ff 1F       		.uleb128 0x1f
 8085 2700 0F270000 		.4byte	0x270f
 8086 2704 16       		.uleb128 0x16
 8087 2705 E1260000 		.4byte	0x26e1
 8088 2709 16       		.uleb128 0x16
 8089 270a AE260000 		.4byte	0x26ae
 8090 270e 00       		.byte	0
 8091 270f 2D       		.uleb128 0x2d
 8092 2710 07       		.byte	0x7
 8093 2711 01       		.byte	0x1
 8094 2712 73000000 		.4byte	0x73
 8095 2716 2A       		.byte	0x2a
 8096 2717 4401     		.2byte	0x144
 8097 2719 30270000 		.4byte	0x2730
 8098 271d 23       		.uleb128 0x23
 8099 271e 6D200000 		.4byte	.LASF537
 8100 2722 00       		.byte	0
 8101 2723 23       		.uleb128 0x23
 8102 2724 C0150000 		.4byte	.LASF538
 8103 2728 01       		.byte	0x1
 8104 2729 23       		.uleb128 0x23
 8105 272a 081A0000 		.4byte	.LASF539
 8106 272e 02       		.byte	0x2
 8107 272f 00       		.byte	0
 8108 2730 07       		.uleb128 0x7
 8109 2731 740B0000 		.4byte	.LASF540
 8110 2735 2A       		.byte	0x2a
 8111 2736 4D01     		.2byte	0x14d
 8112 2738 0F270000 		.4byte	0x270f
 8113 273c 1C       		.uleb128 0x1c
 8114 273d 10       		.byte	0x10
 8115 273e 2A       		.byte	0x2a
 8116 273f 5201     		.2byte	0x152
 8117 2741 7A270000 		.4byte	0x277a
ARM GAS  /var/folders/qd/4mxf5pkd0zdf0b9dd1hp39180000gn/T//cc0H01tt.s 			page 144


 8118 2745 18       		.uleb128 0x18
 8119 2746 AF120000 		.4byte	.LASF487
 8120 274a 2A       		.byte	0x2a
 8121 274b 5601     		.2byte	0x156
 8122 274d 2E0B0000 		.4byte	0xb2e
 8123 2751 00       		.byte	0
 8124 2752 18       		.uleb128 0x18
 8125 2753 410A0000 		.4byte	.LASF488
 8126 2757 2A       		.byte	0x2a
 8127 2758 5A01     		.2byte	0x15a
 8128 275a BA260000 		.4byte	0x26ba
 8129 275e 04       		.byte	0x4
 8130 275f 18       		.uleb128 0x18
 8131 2760 A0270000 		.4byte	.LASF489
 8132 2764 2A       		.byte	0x2a
 8133 2765 5E01     		.2byte	0x15e
 8134 2767 ED260000 		.4byte	0x26ed
 8135 276b 08       		.byte	0x8
 8136 276c 18       		.uleb128 0x18
 8137 276d 54170000 		.4byte	.LASF541
 8138 2771 2A       		.byte	0x2a
 8139 2772 6601     		.2byte	0x166
 8140 2774 2E0B0000 		.4byte	0xb2e
 8141 2778 0C       		.byte	0xc
 8142 2779 00       		.byte	0
 8143 277a 07       		.uleb128 0x7
 8144 277b 76140000 		.4byte	.LASF542
 8145 277f 2A       		.byte	0x2a
 8146 2780 6701     		.2byte	0x167
 8147 2782 3C270000 		.4byte	0x273c
 8148 2786 0F       		.uleb128 0xf
 8149 2787 7A270000 		.4byte	0x277a
 8150 278b 1C       		.uleb128 0x1c
 8151 278c 04       		.byte	0x4
 8152 278d 2A       		.byte	0x2a
 8153 278e 6C01     		.2byte	0x16c
 8154 2790 AF270000 		.4byte	0x27af
 8155 2794 18       		.uleb128 0x18
 8156 2795 CD0B0000 		.4byte	.LASF543
 8157 2799 2A       		.byte	0x2a
 8158 279a 7101     		.2byte	0x171
 8159 279c 82260000 		.4byte	0x2682
 8160 27a0 00       		.byte	0
 8161 27a1 18       		.uleb128 0x18
 8162 27a2 4E010000 		.4byte	.LASF544
 8163 27a6 2A       		.byte	0x2a
 8164 27a7 7501     		.2byte	0x175
 8165 27a9 30270000 		.4byte	0x2730
 8166 27ad 02       		.byte	0x2
 8167 27ae 00       		.byte	0
 8168 27af 07       		.uleb128 0x7
 8169 27b0 EE0D0000 		.4byte	.LASF545
 8170 27b4 2A       		.byte	0x2a
 8171 27b5 7601     		.2byte	0x176
 8172 27b7 8B270000 		.4byte	0x278b
 8173 27bb 0F       		.uleb128 0xf
 8174 27bc AF270000 		.4byte	0x27af
ARM GAS  /var/folders/qd/4mxf5pkd0zdf0b9dd1hp39180000gn/T//cc0H01tt.s 			page 145


 8175 27c0 05       		.uleb128 0x5
 8176 27c1 04       		.byte	0x4
 8177 27c2 86270000 		.4byte	0x2786
 8178 27c6 05       		.uleb128 0x5
 8179 27c7 04       		.byte	0x4
 8180 27c8 BB270000 		.4byte	0x27bb
 8181 27cc 05       		.uleb128 0x5
 8182 27cd 04       		.byte	0x4
 8183 27ce FB250000 		.4byte	0x25fb
 8184 27d2 20       		.uleb128 0x20
 8185 27d3 1B040000 		.4byte	.LASF546
 8186 27d7 2A       		.byte	0x2a
 8187 27d8 B301     		.2byte	0x1b3
 8188 27da 00260000 		.4byte	0x2600
 8189 27de 26       		.uleb128 0x26
 8190 27df 07       		.byte	0x7
 8191 27e0 01       		.byte	0x1
 8192 27e1 73000000 		.4byte	0x73
 8193 27e5 2B       		.byte	0x2b
 8194 27e6 3F       		.byte	0x3f
 8195 27e7 FE270000 		.4byte	0x27fe
 8196 27eb 23       		.uleb128 0x23
 8197 27ec EE0A0000 		.4byte	.LASF547
 8198 27f0 00       		.byte	0
 8199 27f1 23       		.uleb128 0x23
 8200 27f2 B7290000 		.4byte	.LASF548
 8201 27f6 01       		.byte	0x1
 8202 27f7 23       		.uleb128 0x23
 8203 27f8 51020000 		.4byte	.LASF549
 8204 27fc 02       		.byte	0x2
 8205 27fd 00       		.byte	0
 8206 27fe 04       		.uleb128 0x4
 8207 27ff 3C1F0000 		.4byte	.LASF550
 8208 2803 2B       		.byte	0x2b
 8209 2804 43       		.byte	0x43
 8210 2805 DE270000 		.4byte	0x27de
 8211 2809 04       		.uleb128 0x4
 8212 280a 7C090000 		.4byte	.LASF551
 8213 280e 2B       		.byte	0x2b
 8214 280f 48       		.byte	0x48
 8215 2810 14280000 		.4byte	0x2814
 8216 2814 10       		.uleb128 0x10
 8217 2815 7C090000 		.4byte	.LASF551
 8218 2819 08       		.byte	0x8
 8219 281a 2C       		.byte	0x2c
 8220 281b 71       		.byte	0x71
 8221 281c 39280000 		.4byte	0x2839
 8222 2820 0D       		.uleb128 0xd
 8223 2821 44190000 		.4byte	.LASF475
 8224 2825 2C       		.byte	0x2c
 8225 2826 75       		.byte	0x75
 8226 2827 FE270000 		.4byte	0x27fe
 8227 282b 00       		.byte	0
 8228 282c 0D       		.uleb128 0xd
 8229 282d C21F0000 		.4byte	.LASF476
 8230 2831 2C       		.byte	0x2c
 8231 2832 79       		.byte	0x79
ARM GAS  /var/folders/qd/4mxf5pkd0zdf0b9dd1hp39180000gn/T//cc0H01tt.s 			page 146


 8232 2833 CB280000 		.4byte	0x28cb
 8233 2837 04       		.byte	0x4
 8234 2838 00       		.byte	0
 8235 2839 04       		.uleb128 0x4
 8236 283a D5270000 		.4byte	.LASF552
 8237 283e 2C       		.byte	0x2c
 8238 283f 47       		.byte	0x47
 8239 2840 2E0B0000 		.4byte	0xb2e
 8240 2844 04       		.uleb128 0x4
 8241 2845 9F220000 		.4byte	.LASF553
 8242 2849 2C       		.byte	0x2c
 8243 284a 4F       		.byte	0x4f
 8244 284b 4F280000 		.4byte	0x284f
 8245 284f 05       		.uleb128 0x5
 8246 2850 04       		.byte	0x4
 8247 2851 55280000 		.4byte	0x2855
 8248 2855 1F       		.uleb128 0x1f
 8249 2856 65280000 		.4byte	0x2865
 8250 285a 16       		.uleb128 0x16
 8251 285b 65280000 		.4byte	0x2865
 8252 285f 16       		.uleb128 0x16
 8253 2860 39280000 		.4byte	0x2839
 8254 2864 00       		.byte	0
 8255 2865 05       		.uleb128 0x5
 8256 2866 04       		.byte	0x4
 8257 2867 09280000 		.4byte	0x2809
 8258 286b 0C       		.uleb128 0xc
 8259 286c 08       		.byte	0x8
 8260 286d 2C       		.byte	0x2c
 8261 286e 54       		.byte	0x54
 8262 286f 8B280000 		.4byte	0x288b
 8263 2873 0D       		.uleb128 0xd
 8264 2874 61090000 		.4byte	.LASF554
 8265 2878 2C       		.byte	0x2c
 8266 2879 58       		.byte	0x58
 8267 287a 2E0B0000 		.4byte	0xb2e
 8268 287e 00       		.byte	0
 8269 287f 11       		.uleb128 0x11
 8270 2880 636200   		.ascii	"cb\000"
 8271 2883 2C       		.byte	0x2c
 8272 2884 5F       		.byte	0x5f
 8273 2885 44280000 		.4byte	0x2844
 8274 2889 04       		.byte	0x4
 8275 288a 00       		.byte	0
 8276 288b 04       		.uleb128 0x4
 8277 288c CD0F0000 		.4byte	.LASF555
 8278 2890 2C       		.byte	0x2c
 8279 2891 60       		.byte	0x60
 8280 2892 6B280000 		.4byte	0x286b
 8281 2896 0C       		.uleb128 0xc
 8282 2897 B8       		.byte	0xb8
 8283 2898 2C       		.byte	0x2c
 8284 2899 66       		.byte	0x66
 8285 289a AB280000 		.4byte	0x28ab
 8286 289e 0D       		.uleb128 0xd
 8287 289f C6240000 		.4byte	.LASF556
 8288 28a3 2C       		.byte	0x2c
ARM GAS  /var/folders/qd/4mxf5pkd0zdf0b9dd1hp39180000gn/T//cc0H01tt.s 			page 147


 8289 28a4 6A       		.byte	0x6a
 8290 28a5 AB280000 		.4byte	0x28ab
 8291 28a9 00       		.byte	0
 8292 28aa 00       		.byte	0
 8293 28ab 0A       		.uleb128 0xa
 8294 28ac 8B280000 		.4byte	0x288b
 8295 28b0 BB280000 		.4byte	0x28bb
 8296 28b4 0B       		.uleb128 0xb
 8297 28b5 2C000000 		.4byte	0x2c
 8298 28b9 16       		.byte	0x16
 8299 28ba 00       		.byte	0
 8300 28bb 04       		.uleb128 0x4
 8301 28bc 90210000 		.4byte	.LASF557
 8302 28c0 2C       		.byte	0x2c
 8303 28c1 6C       		.byte	0x6c
 8304 28c2 96280000 		.4byte	0x2896
 8305 28c6 0F       		.uleb128 0xf
 8306 28c7 BB280000 		.4byte	0x28bb
 8307 28cb 05       		.uleb128 0x5
 8308 28cc 04       		.byte	0x4
 8309 28cd C6280000 		.4byte	0x28c6
 8310 28d1 25       		.uleb128 0x25
 8311 28d2 57060000 		.4byte	.LASF558
 8312 28d6 2C       		.byte	0x2c
 8313 28d7 86       		.byte	0x86
 8314 28d8 09280000 		.4byte	0x2809
 8315 28dc 26       		.uleb128 0x26
 8316 28dd 07       		.byte	0x7
 8317 28de 01       		.byte	0x1
 8318 28df 73000000 		.4byte	0x73
 8319 28e3 2D       		.byte	0x2d
 8320 28e4 31       		.byte	0x31
 8321 28e5 08290000 		.4byte	0x2908
 8322 28e9 23       		.uleb128 0x23
 8323 28ea 1C1A0000 		.4byte	.LASF559
 8324 28ee 00       		.byte	0
 8325 28ef 23       		.uleb128 0x23
 8326 28f0 7D170000 		.4byte	.LASF560
 8327 28f4 01       		.byte	0x1
 8328 28f5 23       		.uleb128 0x23
 8329 28f6 F41C0000 		.4byte	.LASF561
 8330 28fa 02       		.byte	0x2
 8331 28fb 23       		.uleb128 0x23
 8332 28fc 93080000 		.4byte	.LASF562
 8333 2900 03       		.byte	0x3
 8334 2901 23       		.uleb128 0x23
 8335 2902 EA040000 		.4byte	.LASF563
 8336 2906 04       		.byte	0x4
 8337 2907 00       		.byte	0
 8338 2908 04       		.uleb128 0x4
 8339 2909 38160000 		.4byte	.LASF564
 8340 290d 2D       		.byte	0x2d
 8341 290e 37       		.byte	0x37
 8342 290f DC280000 		.4byte	0x28dc
 8343 2913 04       		.uleb128 0x4
 8344 2914 481B0000 		.4byte	.LASF565
 8345 2918 2D       		.byte	0x2d
ARM GAS  /var/folders/qd/4mxf5pkd0zdf0b9dd1hp39180000gn/T//cc0H01tt.s 			page 148


 8346 2919 3C       		.byte	0x3c
 8347 291a 1E290000 		.4byte	0x291e
 8348 291e 1B       		.uleb128 0x1b
 8349 291f 481B0000 		.4byte	.LASF565
 8350 2923 10       		.byte	0x10
 8351 2924 2E       		.byte	0x2e
 8352 2925 9701     		.2byte	0x197
 8353 2927 60290000 		.4byte	0x2960
 8354 292b 18       		.uleb128 0x18
 8355 292c 44190000 		.4byte	.LASF475
 8356 2930 2E       		.byte	0x2e
 8357 2931 9B01     		.2byte	0x19b
 8358 2933 08290000 		.4byte	0x2908
 8359 2937 00       		.byte	0
 8360 2938 18       		.uleb128 0x18
 8361 2939 C21F0000 		.4byte	.LASF476
 8362 293d 2E       		.byte	0x2e
 8363 293e 9F01     		.2byte	0x19f
 8364 2940 F52A0000 		.4byte	0x2af5
 8365 2944 04       		.byte	0x4
 8366 2945 18       		.uleb128 0x18
 8367 2946 3F0E0000 		.4byte	.LASF566
 8368 294a 2E       		.byte	0x2e
 8369 294b A701     		.2byte	0x1a7
 8370 294d 2E0B0000 		.4byte	0xb2e
 8371 2951 08       		.byte	0x8
 8372 2952 27       		.uleb128 0x27
 8373 2953 74696D00 		.ascii	"tim\000"
 8374 2957 2E       		.byte	0x2e
 8375 2958 AB01     		.2byte	0x1ab
 8376 295a FB2A0000 		.4byte	0x2afb
 8377 295e 0C       		.byte	0xc
 8378 295f 00       		.byte	0
 8379 2960 04       		.uleb128 0x4
 8380 2961 B0130000 		.4byte	.LASF567
 8381 2965 2D       		.byte	0x2d
 8382 2966 43       		.byte	0x43
 8383 2967 6B290000 		.4byte	0x296b
 8384 296b 05       		.uleb128 0x5
 8385 296c 04       		.byte	0x4
 8386 296d 71290000 		.4byte	0x2971
 8387 2971 1F       		.uleb128 0x1f
 8388 2972 7C290000 		.4byte	0x297c
 8389 2976 16       		.uleb128 0x16
 8390 2977 7C290000 		.4byte	0x297c
 8391 297b 00       		.byte	0
 8392 297c 05       		.uleb128 0x5
 8393 297d 04       		.byte	0x4
 8394 297e 13290000 		.4byte	0x2913
 8395 2982 1C       		.uleb128 0x1c
 8396 2983 60       		.byte	0x60
 8397 2984 2F       		.byte	0x2f
 8398 2985 9E01     		.2byte	0x19e
 8399 2987 8E2A0000 		.4byte	0x2a8e
 8400 298b 27       		.uleb128 0x27
 8401 298c 43523100 		.ascii	"CR1\000"
 8402 2990 2F       		.byte	0x2f
ARM GAS  /var/folders/qd/4mxf5pkd0zdf0b9dd1hp39180000gn/T//cc0H01tt.s 			page 149


 8403 2991 9F01     		.2byte	0x19f
 8404 2993 390B0000 		.4byte	0xb39
 8405 2997 00       		.byte	0
 8406 2998 27       		.uleb128 0x27
 8407 2999 43523200 		.ascii	"CR2\000"
 8408 299d 2F       		.byte	0x2f
 8409 299e A001     		.2byte	0x1a0
 8410 29a0 390B0000 		.4byte	0xb39
 8411 29a4 04       		.byte	0x4
 8412 29a5 18       		.uleb128 0x18
 8413 29a6 F0230000 		.4byte	.LASF568
 8414 29aa 2F       		.byte	0x2f
 8415 29ab A101     		.2byte	0x1a1
 8416 29ad 390B0000 		.4byte	0xb39
 8417 29b1 08       		.byte	0x8
 8418 29b2 18       		.uleb128 0x18
 8419 29b3 350B0000 		.4byte	.LASF569
 8420 29b7 2F       		.byte	0x2f
 8421 29b8 A201     		.2byte	0x1a2
 8422 29ba 390B0000 		.4byte	0xb39
 8423 29be 0C       		.byte	0xc
 8424 29bf 27       		.uleb128 0x27
 8425 29c0 535200   		.ascii	"SR\000"
 8426 29c3 2F       		.byte	0x2f
 8427 29c4 A301     		.2byte	0x1a3
 8428 29c6 390B0000 		.4byte	0xb39
 8429 29ca 10       		.byte	0x10
 8430 29cb 27       		.uleb128 0x27
 8431 29cc 45475200 		.ascii	"EGR\000"
 8432 29d0 2F       		.byte	0x2f
 8433 29d1 A401     		.2byte	0x1a4
 8434 29d3 390B0000 		.4byte	0xb39
 8435 29d7 14       		.byte	0x14
 8436 29d8 18       		.uleb128 0x18
 8437 29d9 88280000 		.4byte	.LASF570
 8438 29dd 2F       		.byte	0x2f
 8439 29de A501     		.2byte	0x1a5
 8440 29e0 390B0000 		.4byte	0xb39
 8441 29e4 18       		.byte	0x18
 8442 29e5 18       		.uleb128 0x18
 8443 29e6 8E280000 		.4byte	.LASF571
 8444 29ea 2F       		.byte	0x2f
 8445 29eb A601     		.2byte	0x1a6
 8446 29ed 390B0000 		.4byte	0xb39
 8447 29f1 1C       		.byte	0x1c
 8448 29f2 18       		.uleb128 0x18
 8449 29f3 2C080000 		.4byte	.LASF572
 8450 29f7 2F       		.byte	0x2f
 8451 29f8 A701     		.2byte	0x1a7
 8452 29fa 390B0000 		.4byte	0xb39
 8453 29fe 20       		.byte	0x20
 8454 29ff 27       		.uleb128 0x27
 8455 2a00 434E5400 		.ascii	"CNT\000"
 8456 2a04 2F       		.byte	0x2f
 8457 2a05 A801     		.2byte	0x1a8
 8458 2a07 390B0000 		.4byte	0xb39
 8459 2a0b 24       		.byte	0x24
ARM GAS  /var/folders/qd/4mxf5pkd0zdf0b9dd1hp39180000gn/T//cc0H01tt.s 			page 150


 8460 2a0c 27       		.uleb128 0x27
 8461 2a0d 50534300 		.ascii	"PSC\000"
 8462 2a11 2F       		.byte	0x2f
 8463 2a12 A901     		.2byte	0x1a9
 8464 2a14 390B0000 		.4byte	0xb39
 8465 2a18 28       		.byte	0x28
 8466 2a19 27       		.uleb128 0x27
 8467 2a1a 41525200 		.ascii	"ARR\000"
 8468 2a1e 2F       		.byte	0x2f
 8469 2a1f AA01     		.2byte	0x1aa
 8470 2a21 390B0000 		.4byte	0xb39
 8471 2a25 2C       		.byte	0x2c
 8472 2a26 27       		.uleb128 0x27
 8473 2a27 52435200 		.ascii	"RCR\000"
 8474 2a2b 2F       		.byte	0x2f
 8475 2a2c AB01     		.2byte	0x1ab
 8476 2a2e 390B0000 		.4byte	0xb39
 8477 2a32 30       		.byte	0x30
 8478 2a33 27       		.uleb128 0x27
 8479 2a34 43435200 		.ascii	"CCR\000"
 8480 2a38 2F       		.byte	0x2f
 8481 2a39 AC01     		.2byte	0x1ac
 8482 2a3b 35140000 		.4byte	0x1435
 8483 2a3f 34       		.byte	0x34
 8484 2a40 18       		.uleb128 0x18
 8485 2a41 24020000 		.4byte	.LASF573
 8486 2a45 2F       		.byte	0x2f
 8487 2a46 AD01     		.2byte	0x1ad
 8488 2a48 390B0000 		.4byte	0xb39
 8489 2a4c 44       		.byte	0x44
 8490 2a4d 27       		.uleb128 0x27
 8491 2a4e 44435200 		.ascii	"DCR\000"
 8492 2a52 2F       		.byte	0x2f
 8493 2a53 AE01     		.2byte	0x1ae
 8494 2a55 390B0000 		.4byte	0xb39
 8495 2a59 48       		.byte	0x48
 8496 2a5a 18       		.uleb128 0x18
 8497 2a5b B5190000 		.4byte	.LASF574
 8498 2a5f 2F       		.byte	0x2f
 8499 2a60 AF01     		.2byte	0x1af
 8500 2a62 390B0000 		.4byte	0xb39
 8501 2a66 4C       		.byte	0x4c
 8502 2a67 27       		.uleb128 0x27
 8503 2a68 4F5200   		.ascii	"OR\000"
 8504 2a6b 2F       		.byte	0x2f
 8505 2a6c B001     		.2byte	0x1b0
 8506 2a6e 390B0000 		.4byte	0xb39
 8507 2a72 50       		.byte	0x50
 8508 2a73 18       		.uleb128 0x18
 8509 2a74 94280000 		.4byte	.LASF575
 8510 2a78 2F       		.byte	0x2f
 8511 2a79 B101     		.2byte	0x1b1
 8512 2a7b 390B0000 		.4byte	0xb39
 8513 2a7f 54       		.byte	0x54
 8514 2a80 18       		.uleb128 0x18
 8515 2a81 4B0E0000 		.4byte	.LASF576
 8516 2a85 2F       		.byte	0x2f
ARM GAS  /var/folders/qd/4mxf5pkd0zdf0b9dd1hp39180000gn/T//cc0H01tt.s 			page 151


 8517 2a86 B201     		.2byte	0x1b2
 8518 2a88 20140000 		.4byte	0x1420
 8519 2a8c 58       		.byte	0x58
 8520 2a8d 00       		.byte	0
 8521 2a8e 07       		.uleb128 0x7
 8522 2a8f 04230000 		.4byte	.LASF577
 8523 2a93 2F       		.byte	0x2f
 8524 2a94 B301     		.2byte	0x1b3
 8525 2a96 82290000 		.4byte	0x2982
 8526 2a9a 07       		.uleb128 0x7
 8527 2a9b B0090000 		.4byte	.LASF578
 8528 2a9f 2E       		.byte	0x2e
 8529 2aa0 6D01     		.2byte	0x16d
 8530 2aa2 2E0B0000 		.4byte	0xb2e
 8531 2aa6 1C       		.uleb128 0x1c
 8532 2aa7 10       		.byte	0x10
 8533 2aa8 2E       		.byte	0x2e
 8534 2aa9 7801     		.2byte	0x178
 8535 2aab E42A0000 		.4byte	0x2ae4
 8536 2aaf 18       		.uleb128 0x18
 8537 2ab0 0B280000 		.4byte	.LASF579
 8538 2ab4 2E       		.byte	0x2e
 8539 2ab5 7E01     		.2byte	0x17e
 8540 2ab7 9A2A0000 		.4byte	0x2a9a
 8541 2abb 00       		.byte	0
 8542 2abc 18       		.uleb128 0x18
 8543 2abd CF190000 		.4byte	.LASF580
 8544 2ac1 2E       		.byte	0x2e
 8545 2ac2 8501     		.2byte	0x185
 8546 2ac4 60290000 		.4byte	0x2960
 8547 2ac8 04       		.byte	0x4
 8548 2ac9 27       		.uleb128 0x27
 8549 2aca 63723200 		.ascii	"cr2\000"
 8550 2ace 2E       		.byte	0x2e
 8551 2acf 8B01     		.2byte	0x18b
 8552 2ad1 2E0B0000 		.4byte	0xb2e
 8553 2ad5 08       		.byte	0x8
 8554 2ad6 18       		.uleb128 0x18
 8555 2ad7 720D0000 		.4byte	.LASF581
 8556 2adb 2E       		.byte	0x2e
 8557 2adc 9101     		.2byte	0x191
 8558 2ade 2E0B0000 		.4byte	0xb2e
 8559 2ae2 0C       		.byte	0xc
 8560 2ae3 00       		.byte	0
 8561 2ae4 07       		.uleb128 0x7
 8562 2ae5 00070000 		.4byte	.LASF582
 8563 2ae9 2E       		.byte	0x2e
 8564 2aea 9201     		.2byte	0x192
 8565 2aec A62A0000 		.4byte	0x2aa6
 8566 2af0 0F       		.uleb128 0xf
 8567 2af1 E42A0000 		.4byte	0x2ae4
 8568 2af5 05       		.uleb128 0x5
 8569 2af6 04       		.byte	0x4
 8570 2af7 F02A0000 		.4byte	0x2af0
 8571 2afb 05       		.uleb128 0x5
 8572 2afc 04       		.byte	0x4
 8573 2afd 8E2A0000 		.4byte	0x2a8e
ARM GAS  /var/folders/qd/4mxf5pkd0zdf0b9dd1hp39180000gn/T//cc0H01tt.s 			page 152


 8574 2b01 20       		.uleb128 0x20
 8575 2b02 9A270000 		.4byte	.LASF583
 8576 2b06 2E       		.byte	0x2e
 8577 2b07 F201     		.2byte	0x1f2
 8578 2b09 13290000 		.4byte	0x2913
 8579 2b0d 20       		.uleb128 0x20
 8580 2b0e D31F0000 		.4byte	.LASF584
 8581 2b12 2E       		.byte	0x2e
 8582 2b13 0202     		.2byte	0x202
 8583 2b15 13290000 		.4byte	0x2913
 8584 2b19 26       		.uleb128 0x26
 8585 2b1a 07       		.byte	0x7
 8586 2b1b 01       		.byte	0x1
 8587 2b1c 73000000 		.4byte	0x73
 8588 2b20 30       		.byte	0x30
 8589 2b21 4C       		.byte	0x4c
 8590 2b22 4B2B0000 		.4byte	0x2b4b
 8591 2b26 23       		.uleb128 0x23
 8592 2b27 D8060000 		.4byte	.LASF585
 8593 2b2b 00       		.byte	0
 8594 2b2c 23       		.uleb128 0x23
 8595 2b2d 970F0000 		.4byte	.LASF586
 8596 2b31 01       		.byte	0x1
 8597 2b32 23       		.uleb128 0x23
 8598 2b33 CA070000 		.4byte	.LASF587
 8599 2b37 02       		.byte	0x2
 8600 2b38 23       		.uleb128 0x23
 8601 2b39 19050000 		.4byte	.LASF588
 8602 2b3d 03       		.byte	0x3
 8603 2b3e 23       		.uleb128 0x23
 8604 2b3f 08170000 		.4byte	.LASF589
 8605 2b43 04       		.byte	0x4
 8606 2b44 23       		.uleb128 0x23
 8607 2b45 F1150000 		.4byte	.LASF590
 8608 2b49 05       		.byte	0x5
 8609 2b4a 00       		.byte	0
 8610 2b4b 04       		.uleb128 0x4
 8611 2b4c 48130000 		.4byte	.LASF591
 8612 2b50 30       		.byte	0x30
 8613 2b51 53       		.byte	0x53
 8614 2b52 192B0000 		.4byte	0x2b19
 8615 2b56 07       		.uleb128 0x7
 8616 2b57 251B0000 		.4byte	.LASF592
 8617 2b5b 31       		.byte	0x31
 8618 2b5c 6A01     		.2byte	0x16a
 8619 2b5e 130B0000 		.4byte	0xb13
 8620 2b62 07       		.uleb128 0x7
 8621 2b63 3D040000 		.4byte	.LASF593
 8622 2b67 31       		.byte	0x31
 8623 2b68 6F01     		.2byte	0x16f
 8624 2b6a 2E0B0000 		.4byte	0xb2e
 8625 2b6e 2D       		.uleb128 0x2d
 8626 2b6f 07       		.byte	0x7
 8627 2b70 01       		.byte	0x1
 8628 2b71 73000000 		.4byte	0x73
 8629 2b75 31       		.byte	0x31
 8630 2b76 7401     		.2byte	0x174
ARM GAS  /var/folders/qd/4mxf5pkd0zdf0b9dd1hp39180000gn/T//cc0H01tt.s 			page 153


 8631 2b78 8F2B0000 		.4byte	0x2b8f
 8632 2b7c 23       		.uleb128 0x23
 8633 2b7d 2C050000 		.4byte	.LASF594
 8634 2b81 01       		.byte	0x1
 8635 2b82 23       		.uleb128 0x23
 8636 2b83 78000000 		.4byte	.LASF595
 8637 2b87 02       		.byte	0x2
 8638 2b88 23       		.uleb128 0x23
 8639 2b89 AD0A0000 		.4byte	.LASF596
 8640 2b8d 03       		.byte	0x3
 8641 2b8e 00       		.byte	0
 8642 2b8f 07       		.uleb128 0x7
 8643 2b90 D9280000 		.4byte	.LASF597
 8644 2b94 31       		.byte	0x31
 8645 2b95 7801     		.2byte	0x178
 8646 2b97 6E2B0000 		.4byte	0x2b6e
 8647 2b9b 2D       		.uleb128 0x2d
 8648 2b9c 07       		.byte	0x7
 8649 2b9d 01       		.byte	0x1
 8650 2b9e 73000000 		.4byte	0x73
 8651 2ba2 31       		.byte	0x31
 8652 2ba3 7D01     		.2byte	0x17d
 8653 2ba5 BC2B0000 		.4byte	0x2bbc
 8654 2ba9 23       		.uleb128 0x23
 8655 2baa 2B060000 		.4byte	.LASF598
 8656 2bae 01       		.byte	0x1
 8657 2baf 23       		.uleb128 0x23
 8658 2bb0 5D280000 		.4byte	.LASF599
 8659 2bb4 02       		.byte	0x2
 8660 2bb5 23       		.uleb128 0x23
 8661 2bb6 880B0000 		.4byte	.LASF600
 8662 2bba 03       		.byte	0x3
 8663 2bbb 00       		.byte	0
 8664 2bbc 07       		.uleb128 0x7
 8665 2bbd 80070000 		.4byte	.LASF601
 8666 2bc1 31       		.byte	0x31
 8667 2bc2 8101     		.2byte	0x181
 8668 2bc4 9B2B0000 		.4byte	0x2b9b
 8669 2bc8 1C       		.uleb128 0x1c
 8670 2bc9 0C       		.byte	0xc
 8671 2bca 31       		.byte	0x31
 8672 2bcb 8601     		.2byte	0x186
 8673 2bcd F92B0000 		.4byte	0x2bf9
 8674 2bd1 18       		.uleb128 0x18
 8675 2bd2 AD170000 		.4byte	.LASF602
 8676 2bd6 31       		.byte	0x31
 8677 2bd7 8801     		.2byte	0x188
 8678 2bd9 8F2B0000 		.4byte	0x2b8f
 8679 2bdd 00       		.byte	0
 8680 2bde 18       		.uleb128 0x18
 8681 2bdf 05040000 		.4byte	.LASF603
 8682 2be3 31       		.byte	0x31
 8683 2be4 8901     		.2byte	0x189
 8684 2be6 2E0B0000 		.4byte	0xb2e
 8685 2bea 04       		.byte	0x4
 8686 2beb 18       		.uleb128 0x18
 8687 2bec 77290000 		.4byte	.LASF604
ARM GAS  /var/folders/qd/4mxf5pkd0zdf0b9dd1hp39180000gn/T//cc0H01tt.s 			page 154


 8688 2bf0 31       		.byte	0x31
 8689 2bf1 8C01     		.2byte	0x18c
 8690 2bf3 BC2B0000 		.4byte	0x2bbc
 8691 2bf7 08       		.byte	0x8
 8692 2bf8 00       		.byte	0
 8693 2bf9 07       		.uleb128 0x7
 8694 2bfa 31020000 		.4byte	.LASF605
 8695 2bfe 31       		.byte	0x31
 8696 2bff 8E01     		.2byte	0x18e
 8697 2c01 C82B0000 		.4byte	0x2bc8
 8698 2c05 0F       		.uleb128 0xf
 8699 2c06 F92B0000 		.4byte	0x2bf9
 8700 2c0a 07       		.uleb128 0x7
 8701 2c0b 0F050000 		.4byte	.LASF606
 8702 2c0f 31       		.byte	0x31
 8703 2c10 9301     		.2byte	0x193
 8704 2c12 162C0000 		.4byte	0x2c16
 8705 2c16 1B       		.uleb128 0x1b
 8706 2c17 0F050000 		.4byte	.LASF606
 8707 2c1b 3C       		.byte	0x3c
 8708 2c1c 31       		.byte	0x31
 8709 2c1d 9801     		.2byte	0x198
 8710 2c1f B32C0000 		.4byte	0x2cb3
 8711 2c23 18       		.uleb128 0x18
 8712 2c24 44190000 		.4byte	.LASF475
 8713 2c28 31       		.byte	0x31
 8714 2c29 9C01     		.2byte	0x19c
 8715 2c2b 4B2B0000 		.4byte	0x2b4b
 8716 2c2f 00       		.byte	0
 8717 2c30 18       		.uleb128 0x18
 8718 2c31 C21F0000 		.4byte	.LASF476
 8719 2c35 31       		.byte	0x31
 8720 2c36 A001     		.2byte	0x1a0
 8721 2c38 B32C0000 		.4byte	0x2cb3
 8722 2c3c 04       		.byte	0x4
 8723 2c3d 18       		.uleb128 0x18
 8724 2c3e A5010000 		.4byte	.LASF607
 8725 2c42 31       		.byte	0x31
 8726 2c43 A401     		.2byte	0x1a4
 8727 2c45 622B0000 		.4byte	0x2b62
 8728 2c49 08       		.byte	0x8
 8729 2c4a 18       		.uleb128 0x18
 8730 2c4b CD0D0000 		.4byte	.LASF481
 8731 2c4f 31       		.byte	0x31
 8732 2c50 A901     		.2byte	0x1a9
 8733 2c52 F21B0000 		.4byte	0x1bf2
 8734 2c56 0C       		.byte	0xc
 8735 2c57 18       		.uleb128 0x18
 8736 2c58 98070000 		.4byte	.LASF480
 8737 2c5c 31       		.byte	0x31
 8738 2c5d B201     		.2byte	0x1b2
 8739 2c5f 0B0D0000 		.4byte	0xd0b
 8740 2c63 20       		.byte	0x20
 8741 2c64 18       		.uleb128 0x18
 8742 2c65 A00F0000 		.4byte	.LASF608
 8743 2c69 31       		.byte	0x31
 8744 2c6a B601     		.2byte	0x1b6
ARM GAS  /var/folders/qd/4mxf5pkd0zdf0b9dd1hp39180000gn/T//cc0H01tt.s 			page 155


 8745 2c6c 562B0000 		.4byte	0x2b56
 8746 2c70 24       		.byte	0x24
 8747 2c71 18       		.uleb128 0x18
 8748 2c72 4D090000 		.4byte	.LASF609
 8749 2c76 31       		.byte	0x31
 8750 2c77 BA01     		.2byte	0x1ba
 8751 2c79 2E0B0000 		.4byte	0xb2e
 8752 2c7d 28       		.byte	0x28
 8753 2c7e 18       		.uleb128 0x18
 8754 2c7f A6090000 		.4byte	.LASF610
 8755 2c83 31       		.byte	0x31
 8756 2c84 BE01     		.2byte	0x1be
 8757 2c86 2E0B0000 		.4byte	0xb2e
 8758 2c8a 2C       		.byte	0x2c
 8759 2c8b 18       		.uleb128 0x18
 8760 2c8c 57010000 		.4byte	.LASF611
 8761 2c90 31       		.byte	0x31
 8762 2c91 C201     		.2byte	0x1c2
 8763 2c93 F5230000 		.4byte	0x23f5
 8764 2c97 30       		.byte	0x30
 8765 2c98 18       		.uleb128 0x18
 8766 2c99 44020000 		.4byte	.LASF612
 8767 2c9d 31       		.byte	0x31
 8768 2c9e C601     		.2byte	0x1c6
 8769 2ca0 F5230000 		.4byte	0x23f5
 8770 2ca4 34       		.byte	0x34
 8771 2ca5 27       		.uleb128 0x27
 8772 2ca6 69326300 		.ascii	"i2c\000"
 8773 2caa 31       		.byte	0x31
 8774 2cab CA01     		.2byte	0x1ca
 8775 2cad B92C0000 		.4byte	0x2cb9
 8776 2cb1 38       		.byte	0x38
 8777 2cb2 00       		.byte	0
 8778 2cb3 05       		.uleb128 0x5
 8779 2cb4 04       		.byte	0x4
 8780 2cb5 052C0000 		.4byte	0x2c05
 8781 2cb9 05       		.uleb128 0x5
 8782 2cba 04       		.byte	0x4
 8783 2cbb C5140000 		.4byte	0x14c5
 8784 2cbf 20       		.uleb128 0x20
 8785 2cc0 CE130000 		.4byte	.LASF613
 8786 2cc4 31       		.byte	0x31
 8787 2cc5 E001     		.2byte	0x1e0
 8788 2cc7 0A2C0000 		.4byte	0x2c0a
 8789 2ccb 26       		.uleb128 0x26
 8790 2ccc 07       		.byte	0x7
 8791 2ccd 01       		.byte	0x1
 8792 2cce 73000000 		.4byte	0x73
 8793 2cd2 32       		.byte	0x32
 8794 2cd3 39       		.byte	0x39
 8795 2cd4 F72C0000 		.4byte	0x2cf7
 8796 2cd8 23       		.uleb128 0x23
 8797 2cd9 52120000 		.4byte	.LASF614
 8798 2cdd 00       		.byte	0
 8799 2cde 23       		.uleb128 0x23
 8800 2cdf AE0D0000 		.4byte	.LASF615
 8801 2ce3 01       		.byte	0x1
ARM GAS  /var/folders/qd/4mxf5pkd0zdf0b9dd1hp39180000gn/T//cc0H01tt.s 			page 156


 8802 2ce4 23       		.uleb128 0x23
 8803 2ce5 D7170000 		.4byte	.LASF616
 8804 2ce9 02       		.byte	0x2
 8805 2cea 23       		.uleb128 0x23
 8806 2ceb E91C0000 		.4byte	.LASF617
 8807 2cef 03       		.byte	0x3
 8808 2cf0 23       		.uleb128 0x23
 8809 2cf1 2F220000 		.4byte	.LASF618
 8810 2cf5 04       		.byte	0x4
 8811 2cf6 00       		.byte	0
 8812 2cf7 04       		.uleb128 0x4
 8813 2cf8 7E250000 		.4byte	.LASF619
 8814 2cfc 32       		.byte	0x32
 8815 2cfd 3F       		.byte	0x3f
 8816 2cfe CB2C0000 		.4byte	0x2ccb
 8817 2d02 04       		.uleb128 0x4
 8818 2d03 6D290000 		.4byte	.LASF620
 8819 2d07 33       		.byte	0x33
 8820 2d08 E2       		.byte	0xe2
 8821 2d09 0D2D0000 		.4byte	0x2d0d
 8822 2d0d 1B       		.uleb128 0x1b
 8823 2d0e 6D290000 		.4byte	.LASF620
 8824 2d12 20       		.byte	0x20
 8825 2d13 33       		.byte	0x33
 8826 2d14 1B01     		.2byte	0x11b
 8827 2d16 832D0000 		.4byte	0x2d83
 8828 2d1a 18       		.uleb128 0x18
 8829 2d1b 44190000 		.4byte	.LASF475
 8830 2d1f 33       		.byte	0x33
 8831 2d20 1F01     		.2byte	0x11f
 8832 2d22 F72C0000 		.4byte	0x2cf7
 8833 2d26 00       		.byte	0
 8834 2d27 18       		.uleb128 0x18
 8835 2d28 C21F0000 		.4byte	.LASF476
 8836 2d2c 33       		.byte	0x33
 8837 2d2d 2301     		.2byte	0x123
 8838 2d2f 142E0000 		.4byte	0x2e14
 8839 2d33 04       		.byte	0x4
 8840 2d34 27       		.uleb128 0x27
 8841 2d35 73706900 		.ascii	"spi\000"
 8842 2d39 33       		.byte	0x33
 8843 2d3a 2801     		.2byte	0x128
 8844 2d3c 1A2E0000 		.4byte	0x2e1a
 8845 2d40 08       		.byte	0x8
 8846 2d41 27       		.uleb128 0x27
 8847 2d42 63666700 		.ascii	"cfg\000"
 8848 2d46 33       		.byte	0x33
 8849 2d47 2C01     		.2byte	0x12c
 8850 2d49 130B0000 		.4byte	0xb13
 8851 2d4d 0C       		.byte	0xc
 8852 2d4e 18       		.uleb128 0x18
 8853 2d4f 57010000 		.4byte	.LASF611
 8854 2d53 33       		.byte	0x33
 8855 2d54 3001     		.2byte	0x130
 8856 2d56 F5230000 		.4byte	0x23f5
 8857 2d5a 10       		.byte	0x10
 8858 2d5b 18       		.uleb128 0x18
ARM GAS  /var/folders/qd/4mxf5pkd0zdf0b9dd1hp39180000gn/T//cc0H01tt.s 			page 157


 8859 2d5c 44020000 		.4byte	.LASF612
 8860 2d60 33       		.byte	0x33
 8861 2d61 3401     		.2byte	0x134
 8862 2d63 F5230000 		.4byte	0x23f5
 8863 2d67 14       		.byte	0x14
 8864 2d68 18       		.uleb128 0x18
 8865 2d69 4D090000 		.4byte	.LASF609
 8866 2d6d 33       		.byte	0x33
 8867 2d6e 3801     		.2byte	0x138
 8868 2d70 2E0B0000 		.4byte	0xb2e
 8869 2d74 18       		.byte	0x18
 8870 2d75 18       		.uleb128 0x18
 8871 2d76 A6090000 		.4byte	.LASF610
 8872 2d7a 33       		.byte	0x33
 8873 2d7b 3C01     		.2byte	0x13c
 8874 2d7d 2E0B0000 		.4byte	0xb2e
 8875 2d81 1C       		.byte	0x1c
 8876 2d82 00       		.byte	0
 8877 2d83 04       		.uleb128 0x4
 8878 2d84 92090000 		.4byte	.LASF621
 8879 2d88 33       		.byte	0x33
 8880 2d89 EB       		.byte	0xeb
 8881 2d8a 8E2D0000 		.4byte	0x2d8e
 8882 2d8e 05       		.uleb128 0x5
 8883 2d8f 04       		.byte	0x4
 8884 2d90 942D0000 		.4byte	0x2d94
 8885 2d94 1F       		.uleb128 0x1f
 8886 2d95 A92D0000 		.4byte	0x2da9
 8887 2d99 16       		.uleb128 0x16
 8888 2d9a A92D0000 		.4byte	0x2da9
 8889 2d9e 16       		.uleb128 0x16
 8890 2d9f 48000000 		.4byte	0x48
 8891 2da3 16       		.uleb128 0x16
 8892 2da4 48000000 		.4byte	0x48
 8893 2da8 00       		.byte	0
 8894 2da9 05       		.uleb128 0x5
 8895 2daa 04       		.byte	0x4
 8896 2dab 022D0000 		.4byte	0x2d02
 8897 2daf 0C       		.uleb128 0xc
 8898 2db0 14       		.byte	0x14
 8899 2db1 33       		.byte	0x33
 8900 2db2 F1       		.byte	0xf1
 8901 2db3 032E0000 		.4byte	0x2e03
 8902 2db7 0D       		.uleb128 0xd
 8903 2db8 C7010000 		.4byte	.LASF622
 8904 2dbc 33       		.byte	0x33
 8905 2dbd F6       		.byte	0xf6
 8906 2dbe D20A0000 		.4byte	0xad2
 8907 2dc2 00       		.byte	0
 8908 2dc3 0D       		.uleb128 0xd
 8909 2dc4 9B010000 		.4byte	.LASF623
 8910 2dc8 33       		.byte	0x33
 8911 2dc9 FB       		.byte	0xfb
 8912 2dca 6B010000 		.4byte	0x16b
 8913 2dce 04       		.byte	0x4
 8914 2dcf 0D       		.uleb128 0xd
 8915 2dd0 D30D0000 		.4byte	.LASF624
ARM GAS  /var/folders/qd/4mxf5pkd0zdf0b9dd1hp39180000gn/T//cc0H01tt.s 			page 158


 8916 2dd4 33       		.byte	0x33
 8917 2dd5 FF       		.byte	0xff
 8918 2dd6 48000000 		.4byte	0x48
 8919 2dda 08       		.byte	0x8
 8920 2ddb 18       		.uleb128 0x18
 8921 2ddc 410A0000 		.4byte	.LASF488
 8922 2de0 33       		.byte	0x33
 8923 2de1 0301     		.2byte	0x103
 8924 2de3 832D0000 		.4byte	0x2d83
 8925 2de7 0C       		.byte	0xc
 8926 2de8 18       		.uleb128 0x18
 8927 2de9 351D0000 		.4byte	.LASF625
 8928 2ded 33       		.byte	0x33
 8929 2dee 0F01     		.2byte	0x10f
 8930 2df0 080B0000 		.4byte	0xb08
 8931 2df4 10       		.byte	0x10
 8932 2df5 18       		.uleb128 0x18
 8933 2df6 21070000 		.4byte	.LASF626
 8934 2dfa 33       		.byte	0x33
 8935 2dfb 1501     		.2byte	0x115
 8936 2dfd 080B0000 		.4byte	0xb08
 8937 2e01 12       		.byte	0x12
 8938 2e02 00       		.byte	0
 8939 2e03 07       		.uleb128 0x7
 8940 2e04 82290000 		.4byte	.LASF627
 8941 2e08 33       		.byte	0x33
 8942 2e09 1601     		.2byte	0x116
 8943 2e0b AF2D0000 		.4byte	0x2daf
 8944 2e0f 0F       		.uleb128 0xf
 8945 2e10 032E0000 		.4byte	0x2e03
 8946 2e14 05       		.uleb128 0x5
 8947 2e15 04       		.byte	0x4
 8948 2e16 0F2E0000 		.4byte	0x2e0f
 8949 2e1a 05       		.uleb128 0x5
 8950 2e1b 04       		.byte	0x4
 8951 2e1c 78160000 		.4byte	0x1678
 8952 2e20 20       		.uleb128 0x20
 8953 2e21 C8290000 		.4byte	.LASF628
 8954 2e25 33       		.byte	0x33
 8955 2e26 4801     		.2byte	0x148
 8956 2e28 022D0000 		.4byte	0x2d02
 8957 2e2c 26       		.uleb128 0x26
 8958 2e2d 07       		.byte	0x7
 8959 2e2e 01       		.byte	0x1
 8960 2e2f 73000000 		.4byte	0x73
 8961 2e33 34       		.byte	0x34
 8962 2e34 4A       		.byte	0x4a
 8963 2e35 4C2E0000 		.4byte	0x2e4c
 8964 2e39 23       		.uleb128 0x23
 8965 2e3a 37080000 		.4byte	.LASF629
 8966 2e3e 00       		.byte	0
 8967 2e3f 23       		.uleb128 0x23
 8968 2e40 BC0D0000 		.4byte	.LASF630
 8969 2e44 01       		.byte	0x1
 8970 2e45 23       		.uleb128 0x23
 8971 2e46 79120000 		.4byte	.LASF631
 8972 2e4a 02       		.byte	0x2
ARM GAS  /var/folders/qd/4mxf5pkd0zdf0b9dd1hp39180000gn/T//cc0H01tt.s 			page 159


 8973 2e4b 00       		.byte	0
 8974 2e4c 04       		.uleb128 0x4
 8975 2e4d A9030000 		.4byte	.LASF632
 8976 2e51 34       		.byte	0x34
 8977 2e52 4E       		.byte	0x4e
 8978 2e53 2C2E0000 		.4byte	0x2e2c
 8979 2e57 04       		.uleb128 0x4
 8980 2e58 DD0C0000 		.4byte	.LASF633
 8981 2e5c 34       		.byte	0x34
 8982 2e5d 53       		.byte	0x53
 8983 2e5e 622E0000 		.4byte	0x2e62
 8984 2e62 1B       		.uleb128 0x1b
 8985 2e63 DD0C0000 		.4byte	.LASF633
 8986 2e67 1C       		.byte	0x1c
 8987 2e68 35       		.byte	0x35
 8988 2e69 7901     		.2byte	0x179
 8989 2e6b CB2E0000 		.4byte	0x2ecb
 8990 2e6f 18       		.uleb128 0x18
 8991 2e70 44190000 		.4byte	.LASF475
 8992 2e74 35       		.byte	0x35
 8993 2e75 7D01     		.2byte	0x17d
 8994 2e77 4C2E0000 		.4byte	0x2e4c
 8995 2e7b 00       		.byte	0
 8996 2e7c 18       		.uleb128 0x18
 8997 2e7d C21F0000 		.4byte	.LASF476
 8998 2e81 35       		.byte	0x35
 8999 2e82 8101     		.2byte	0x181
 9000 2e84 C62F0000 		.4byte	0x2fc6
 9001 2e88 04       		.byte	0x4
 9002 2e89 18       		.uleb128 0x18
 9003 2e8a D4150000 		.4byte	.LASF634
 9004 2e8e 35       		.byte	0x35
 9005 2e8f 8501     		.2byte	0x185
 9006 2e91 112F0000 		.4byte	0x2f11
 9007 2e95 08       		.byte	0x8
 9008 2e96 18       		.uleb128 0x18
 9009 2e97 C81D0000 		.4byte	.LASF635
 9010 2e9b 35       		.byte	0x35
 9011 2e9c 8901     		.2byte	0x189
 9012 2e9e 052F0000 		.4byte	0x2f05
 9013 2ea2 0C       		.byte	0xc
 9014 2ea3 18       		.uleb128 0x18
 9015 2ea4 C6240000 		.4byte	.LASF556
 9016 2ea8 35       		.byte	0x35
 9017 2ea9 8D01     		.2byte	0x18d
 9018 2eab F92E0000 		.4byte	0x2ef9
 9019 2eaf 10       		.byte	0x10
 9020 2eb0 18       		.uleb128 0x18
 9021 2eb1 3F0E0000 		.4byte	.LASF566
 9022 2eb5 35       		.byte	0x35
 9023 2eb6 9501     		.2byte	0x195
 9024 2eb8 2E0B0000 		.4byte	0xb2e
 9025 2ebc 14       		.byte	0x14
 9026 2ebd 27       		.uleb128 0x27
 9027 2ebe 74696D00 		.ascii	"tim\000"
 9028 2ec2 35       		.byte	0x35
 9029 2ec3 9901     		.2byte	0x199
ARM GAS  /var/folders/qd/4mxf5pkd0zdf0b9dd1hp39180000gn/T//cc0H01tt.s 			page 160


 9030 2ec5 FB2A0000 		.4byte	0x2afb
 9031 2ec9 18       		.byte	0x18
 9032 2eca 00       		.byte	0
 9033 2ecb 04       		.uleb128 0x4
 9034 2ecc 13130000 		.4byte	.LASF636
 9035 2ed0 34       		.byte	0x34
 9036 2ed1 5A       		.byte	0x5a
 9037 2ed2 D62E0000 		.4byte	0x2ed6
 9038 2ed6 05       		.uleb128 0x5
 9039 2ed7 04       		.byte	0x4
 9040 2ed8 DC2E0000 		.4byte	0x2edc
 9041 2edc 1F       		.uleb128 0x1f
 9042 2edd E72E0000 		.4byte	0x2ee7
 9043 2ee1 16       		.uleb128 0x16
 9044 2ee2 E72E0000 		.4byte	0x2ee7
 9045 2ee6 00       		.byte	0
 9046 2ee7 05       		.uleb128 0x5
 9047 2ee8 04       		.byte	0x4
 9048 2ee9 572E0000 		.4byte	0x2e57
 9049 2eed 07       		.uleb128 0x7
 9050 2eee 16180000 		.4byte	.LASF637
 9051 2ef2 35       		.byte	0x35
 9052 2ef3 2501     		.2byte	0x125
 9053 2ef5 2E0B0000 		.4byte	0xb2e
 9054 2ef9 07       		.uleb128 0x7
 9055 2efa CF1A0000 		.4byte	.LASF638
 9056 2efe 35       		.byte	0x35
 9057 2eff 2A01     		.2byte	0x12a
 9058 2f01 F80A0000 		.4byte	0xaf8
 9059 2f05 07       		.uleb128 0x7
 9060 2f06 C1170000 		.4byte	.LASF639
 9061 2f0a 35       		.byte	0x35
 9062 2f0b 2F01     		.2byte	0x12f
 9063 2f0d 2E0B0000 		.4byte	0xb2e
 9064 2f11 07       		.uleb128 0x7
 9065 2f12 250F0000 		.4byte	.LASF640
 9066 2f16 35       		.byte	0x35
 9067 2f17 3401     		.2byte	0x134
 9068 2f19 2E0B0000 		.4byte	0xb2e
 9069 2f1d 1C       		.uleb128 0x1c
 9070 2f1e 08       		.byte	0x8
 9071 2f1f 35       		.byte	0x35
 9072 2f20 3901     		.2byte	0x139
 9073 2f22 412F0000 		.4byte	0x2f41
 9074 2f26 18       		.uleb128 0x18
 9075 2f27 61090000 		.4byte	.LASF554
 9076 2f2b 35       		.byte	0x35
 9077 2f2c 3D01     		.2byte	0x13d
 9078 2f2e ED2E0000 		.4byte	0x2eed
 9079 2f32 00       		.byte	0
 9080 2f33 18       		.uleb128 0x18
 9081 2f34 CF190000 		.4byte	.LASF580
 9082 2f38 35       		.byte	0x35
 9083 2f39 4301     		.2byte	0x143
 9084 2f3b CB2E0000 		.4byte	0x2ecb
 9085 2f3f 04       		.byte	0x4
 9086 2f40 00       		.byte	0
ARM GAS  /var/folders/qd/4mxf5pkd0zdf0b9dd1hp39180000gn/T//cc0H01tt.s 			page 161


 9087 2f41 07       		.uleb128 0x7
 9088 2f42 140F0000 		.4byte	.LASF641
 9089 2f46 35       		.byte	0x35
 9090 2f47 4501     		.2byte	0x145
 9091 2f49 1D2F0000 		.4byte	0x2f1d
 9092 2f4d 1C       		.uleb128 0x1c
 9093 2f4e 34       		.byte	0x34
 9094 2f4f 35       		.byte	0x35
 9095 2f50 4A01     		.2byte	0x14a
 9096 2f52 A52F0000 		.4byte	0x2fa5
 9097 2f56 18       		.uleb128 0x18
 9098 2f57 0B280000 		.4byte	.LASF579
 9099 2f5b 35       		.byte	0x35
 9100 2f5c 5001     		.2byte	0x150
 9101 2f5e 2E0B0000 		.4byte	0xb2e
 9102 2f62 00       		.byte	0
 9103 2f63 18       		.uleb128 0x18
 9104 2f64 D4150000 		.4byte	.LASF634
 9105 2f68 35       		.byte	0x35
 9106 2f69 5601     		.2byte	0x156
 9107 2f6b 112F0000 		.4byte	0x2f11
 9108 2f6f 04       		.byte	0x4
 9109 2f70 18       		.uleb128 0x18
 9110 2f71 CF190000 		.4byte	.LASF580
 9111 2f75 35       		.byte	0x35
 9112 2f76 5C01     		.2byte	0x15c
 9113 2f78 CB2E0000 		.4byte	0x2ecb
 9114 2f7c 08       		.byte	0x8
 9115 2f7d 18       		.uleb128 0x18
 9116 2f7e C6240000 		.4byte	.LASF556
 9117 2f82 35       		.byte	0x35
 9118 2f83 6001     		.2byte	0x160
 9119 2f85 A52F0000 		.4byte	0x2fa5
 9120 2f89 0C       		.byte	0xc
 9121 2f8a 27       		.uleb128 0x27
 9122 2f8b 63723200 		.ascii	"cr2\000"
 9123 2f8f 35       		.byte	0x35
 9124 2f90 6601     		.2byte	0x166
 9125 2f92 2E0B0000 		.4byte	0xb2e
 9126 2f96 2C       		.byte	0x2c
 9127 2f97 18       		.uleb128 0x18
 9128 2f98 720D0000 		.4byte	.LASF581
 9129 2f9c 35       		.byte	0x35
 9130 2f9d 7301     		.2byte	0x173
 9131 2f9f 2E0B0000 		.4byte	0xb2e
 9132 2fa3 30       		.byte	0x30
 9133 2fa4 00       		.byte	0
 9134 2fa5 0A       		.uleb128 0xa
 9135 2fa6 412F0000 		.4byte	0x2f41
 9136 2faa B52F0000 		.4byte	0x2fb5
 9137 2fae 0B       		.uleb128 0xb
 9138 2faf 2C000000 		.4byte	0x2c
 9139 2fb3 03       		.byte	0x3
 9140 2fb4 00       		.byte	0
 9141 2fb5 07       		.uleb128 0x7
 9142 2fb6 EE0C0000 		.4byte	.LASF642
 9143 2fba 35       		.byte	0x35
ARM GAS  /var/folders/qd/4mxf5pkd0zdf0b9dd1hp39180000gn/T//cc0H01tt.s 			page 162


 9144 2fbb 7401     		.2byte	0x174
 9145 2fbd 4D2F0000 		.4byte	0x2f4d
 9146 2fc1 0F       		.uleb128 0xf
 9147 2fc2 B52F0000 		.4byte	0x2fb5
 9148 2fc6 05       		.uleb128 0x5
 9149 2fc7 04       		.byte	0x4
 9150 2fc8 C12F0000 		.4byte	0x2fc1
 9151 2fcc 20       		.uleb128 0x20
 9152 2fcd FF130000 		.4byte	.LASF643
 9153 2fd1 35       		.byte	0x35
 9154 2fd2 BC01     		.2byte	0x1bc
 9155 2fd4 572E0000 		.4byte	0x2e57
 9156 2fd8 20       		.uleb128 0x20
 9157 2fd9 05140000 		.4byte	.LASF644
 9158 2fdd 35       		.byte	0x35
 9159 2fde C001     		.2byte	0x1c0
 9160 2fe0 572E0000 		.4byte	0x2e57
 9161 2fe4 20       		.uleb128 0x20
 9162 2fe5 0B140000 		.4byte	.LASF645
 9163 2fe9 35       		.byte	0x35
 9164 2fea C401     		.2byte	0x1c4
 9165 2fec 572E0000 		.4byte	0x2e57
 9166 2ff0 20       		.uleb128 0x20
 9167 2ff1 11140000 		.4byte	.LASF646
 9168 2ff5 35       		.byte	0x35
 9169 2ff6 C801     		.2byte	0x1c8
 9170 2ff8 572E0000 		.4byte	0x2e57
 9171 2ffc 26       		.uleb128 0x26
 9172 2ffd 07       		.byte	0x7
 9173 2ffe 01       		.byte	0x1
 9174 2fff 73000000 		.4byte	0x73
 9175 3003 36       		.byte	0x36
 9176 3004 55       		.byte	0x55
 9177 3005 1C300000 		.4byte	0x301c
 9178 3009 23       		.uleb128 0x23
 9179 300a 73040000 		.4byte	.LASF647
 9180 300e 00       		.byte	0
 9181 300f 23       		.uleb128 0x23
 9182 3010 A00E0000 		.4byte	.LASF648
 9183 3014 01       		.byte	0x1
 9184 3015 23       		.uleb128 0x23
 9185 3016 9F100000 		.4byte	.LASF649
 9186 301a 02       		.byte	0x2
 9187 301b 00       		.byte	0
 9188 301c 04       		.uleb128 0x4
 9189 301d F31B0000 		.4byte	.LASF650
 9190 3021 36       		.byte	0x36
 9191 3022 59       		.byte	0x59
 9192 3023 FC2F0000 		.4byte	0x2ffc
 9193 3027 04       		.uleb128 0x4
 9194 3028 F1240000 		.4byte	.LASF651
 9195 302c 36       		.byte	0x36
 9196 302d 5E       		.byte	0x5e
 9197 302e 32300000 		.4byte	0x3032
 9198 3032 10       		.uleb128 0x10
 9199 3033 F1240000 		.4byte	.LASF651
 9200 3037 78       		.byte	0x78
ARM GAS  /var/folders/qd/4mxf5pkd0zdf0b9dd1hp39180000gn/T//cc0H01tt.s 			page 163


 9201 3038 36       		.byte	0x36
 9202 3039 78       		.byte	0x78
 9203 303a 9D300000 		.4byte	0x309d
 9204 303e 11       		.uleb128 0x11
 9205 303f 766D7400 		.ascii	"vmt\000"
 9206 3043 36       		.byte	0x36
 9207 3044 7A       		.byte	0x7a
 9208 3045 1B310000 		.4byte	0x311b
 9209 3049 00       		.byte	0
 9210 304a 0D       		.uleb128 0xd
 9211 304b 47000000 		.4byte	.LASF652
 9212 304f 36       		.byte	0x36
 9213 3050 7B       		.byte	0x7b
 9214 3051 761C0000 		.4byte	0x1c76
 9215 3055 04       		.byte	0x4
 9216 3056 0D       		.uleb128 0xd
 9217 3057 44190000 		.4byte	.LASF475
 9218 305b 36       		.byte	0x36
 9219 305c 7B       		.byte	0x7b
 9220 305d 1C300000 		.4byte	0x301c
 9221 3061 08       		.byte	0x8
 9222 3062 0D       		.uleb128 0xd
 9223 3063 D41B0000 		.4byte	.LASF653
 9224 3067 36       		.byte	0x36
 9225 3068 7B       		.byte	0x7b
 9226 3069 211D0000 		.4byte	0x1d21
 9227 306d 0C       		.byte	0xc
 9228 306e 0D       		.uleb128 0xd
 9229 306f 2A140000 		.4byte	.LASF654
 9230 3073 36       		.byte	0x36
 9231 3074 7B       		.byte	0x7b
 9232 3075 2C1D0000 		.4byte	0x1d2c
 9233 3079 30       		.byte	0x30
 9234 307a 11       		.uleb128 0x11
 9235 307b 696200   		.ascii	"ib\000"
 9236 307e 36       		.byte	0x36
 9237 307f 7B       		.byte	0x7b
 9238 3080 21310000 		.4byte	0x3121
 9239 3084 54       		.byte	0x54
 9240 3085 11       		.uleb128 0x11
 9241 3086 6F6200   		.ascii	"ob\000"
 9242 3089 36       		.byte	0x36
 9243 308a 7B       		.byte	0x7b
 9244 308b 21310000 		.4byte	0x3121
 9245 308f 64       		.byte	0x64
 9246 3090 0D       		.uleb128 0xd
 9247 3091 F01D0000 		.4byte	.LASF655
 9248 3095 36       		.byte	0x36
 9249 3096 7B       		.byte	0x7b
 9250 3097 31310000 		.4byte	0x3131
 9251 309b 74       		.byte	0x74
 9252 309c 00       		.byte	0
 9253 309d 2B       		.uleb128 0x2b
 9254 309e 53443300 		.ascii	"SD3\000"
 9255 30a2 37       		.byte	0x37
 9256 30a3 1501     		.2byte	0x115
 9257 30a5 27300000 		.4byte	0x3027
ARM GAS  /var/folders/qd/4mxf5pkd0zdf0b9dd1hp39180000gn/T//cc0H01tt.s 			page 164


 9258 30a9 10       		.uleb128 0x10
 9259 30aa 2C100000 		.4byte	.LASF656
 9260 30ae 20       		.byte	0x20
 9261 30af 36       		.byte	0x36
 9262 30b0 6D       		.byte	0x6d
 9263 30b1 16310000 		.4byte	0x3116
 9264 30b5 0D       		.uleb128 0xd
 9265 30b6 C31B0000 		.4byte	.LASF657
 9266 30ba 36       		.byte	0x36
 9267 30bb 6E       		.byte	0x6e
 9268 30bc 561D0000 		.4byte	0x1d56
 9269 30c0 00       		.byte	0
 9270 30c1 0D       		.uleb128 0xd
 9271 30c2 27050000 		.4byte	.LASF658
 9272 30c6 36       		.byte	0x36
 9273 30c7 6E       		.byte	0x6e
 9274 30c8 751D0000 		.4byte	0x1d75
 9275 30cc 04       		.byte	0x4
 9276 30cd 11       		.uleb128 0x11
 9277 30ce 70757400 		.ascii	"put\000"
 9278 30d2 36       		.byte	0x36
 9279 30d3 6E       		.byte	0x6e
 9280 30d4 8F1D0000 		.4byte	0x1d8f
 9281 30d8 08       		.byte	0x8
 9282 30d9 11       		.uleb128 0x11
 9283 30da 67657400 		.ascii	"get\000"
 9284 30de 36       		.byte	0x36
 9285 30df 6E       		.byte	0x6e
 9286 30e0 A41D0000 		.4byte	0x1da4
 9287 30e4 0C       		.byte	0xc
 9288 30e5 0D       		.uleb128 0xd
 9289 30e6 E0160000 		.4byte	.LASF659
 9290 30ea 36       		.byte	0x36
 9291 30eb 6E       		.byte	0x6e
 9292 30ec 501E0000 		.4byte	0x1e50
 9293 30f0 10       		.byte	0x10
 9294 30f1 0D       		.uleb128 0xd
 9295 30f2 A91B0000 		.4byte	.LASF660
 9296 30f6 36       		.byte	0x36
 9297 30f7 6E       		.byte	0x6e
 9298 30f8 6A1E0000 		.4byte	0x1e6a
 9299 30fc 14       		.byte	0x14
 9300 30fd 0D       		.uleb128 0xd
 9301 30fe F9250000 		.4byte	.LASF661
 9302 3102 36       		.byte	0x36
 9303 3103 6E       		.byte	0x6e
 9304 3104 8E1E0000 		.4byte	0x1e8e
 9305 3108 18       		.byte	0x18
 9306 3109 0D       		.uleb128 0xd
 9307 310a 2A160000 		.4byte	.LASF662
 9308 310e 36       		.byte	0x36
 9309 310f 6E       		.byte	0x6e
 9310 3110 B21E0000 		.4byte	0x1eb2
 9311 3114 1C       		.byte	0x1c
 9312 3115 00       		.byte	0
 9313 3116 0F       		.uleb128 0xf
 9314 3117 A9300000 		.4byte	0x30a9
ARM GAS  /var/folders/qd/4mxf5pkd0zdf0b9dd1hp39180000gn/T//cc0H01tt.s 			page 165


 9315 311b 05       		.uleb128 0x5
 9316 311c 04       		.byte	0x4
 9317 311d 16310000 		.4byte	0x3116
 9318 3121 0A       		.uleb128 0xa
 9319 3122 F80A0000 		.4byte	0xaf8
 9320 3126 31310000 		.4byte	0x3131
 9321 312a 0B       		.uleb128 0xb
 9322 312b 2C000000 		.4byte	0x2c
 9323 312f 0F       		.byte	0xf
 9324 3130 00       		.byte	0
 9325 3131 05       		.uleb128 0x5
 9326 3132 04       		.byte	0x4
 9327 3133 E7160000 		.4byte	0x16e7
 9328 3137 26       		.uleb128 0x26
 9329 3138 07       		.byte	0x7
 9330 3139 01       		.byte	0x1
 9331 313a 73000000 		.4byte	0x73
 9332 313e 38       		.byte	0x38
 9333 313f 6C       		.byte	0x6c
 9334 3140 57310000 		.4byte	0x3157
 9335 3144 23       		.uleb128 0x23
 9336 3145 73030000 		.4byte	.LASF663
 9337 3149 00       		.byte	0
 9338 314a 23       		.uleb128 0x23
 9339 314b 4C180000 		.4byte	.LASF664
 9340 314f 01       		.byte	0x1
 9341 3150 23       		.uleb128 0x23
 9342 3151 68150000 		.4byte	.LASF665
 9343 3155 02       		.byte	0x2
 9344 3156 00       		.byte	0
 9345 3157 04       		.uleb128 0x4
 9346 3158 FB1E0000 		.4byte	.LASF666
 9347 315c 38       		.byte	0x38
 9348 315d 70       		.byte	0x70
 9349 315e 37310000 		.4byte	0x3137
 9350 3162 04       		.uleb128 0x4
 9351 3163 131E0000 		.4byte	.LASF667
 9352 3167 39       		.byte	0x39
 9353 3168 BF       		.byte	0xbf
 9354 3169 2E0B0000 		.4byte	0xb2e
 9355 316d 04       		.uleb128 0x4
 9356 316e A3000000 		.4byte	.LASF668
 9357 3172 39       		.byte	0x39
 9358 3173 C4       		.byte	0xc4
 9359 3174 2E0B0000 		.4byte	0xb2e
 9360 3178 04       		.uleb128 0x4
 9361 3179 D5240000 		.4byte	.LASF669
 9362 317d 39       		.byte	0x39
 9363 317e C9       		.byte	0xc9
 9364 317f 83310000 		.4byte	0x3183
 9365 3183 10       		.uleb128 0x10
 9366 3184 D5240000 		.4byte	.LASF669
 9367 3188 4C       		.byte	0x4c
 9368 3189 39       		.byte	0x39
 9369 318a F2       		.byte	0xf2
 9370 318b 32320000 		.4byte	0x3232
 9371 318f 11       		.uleb128 0x11
ARM GAS  /var/folders/qd/4mxf5pkd0zdf0b9dd1hp39180000gn/T//cc0H01tt.s 			page 166


 9372 3190 766D7400 		.ascii	"vmt\000"
 9373 3194 39       		.byte	0x39
 9374 3195 F6       		.byte	0xf6
 9375 3196 D5320000 		.4byte	0x32d5
 9376 319a 00       		.byte	0
 9377 319b 0D       		.uleb128 0xd
 9378 319c 44190000 		.4byte	.LASF475
 9379 31a0 39       		.byte	0x39
 9380 31a1 F7       		.byte	0xf7
 9381 31a2 FC1E0000 		.4byte	0x1efc
 9382 31a6 04       		.byte	0x4
 9383 31a7 11       		.uleb128 0x11
 9384 31a8 63696400 		.ascii	"cid\000"
 9385 31ac 39       		.byte	0x39
 9386 31ad F7       		.byte	0xf7
 9387 31ae B01F0000 		.4byte	0x1fb0
 9388 31b2 08       		.byte	0x8
 9389 31b3 11       		.uleb128 0x11
 9390 31b4 63736400 		.ascii	"csd\000"
 9391 31b8 39       		.byte	0x39
 9392 31b9 F7       		.byte	0xf7
 9393 31ba B01F0000 		.4byte	0x1fb0
 9394 31be 18       		.byte	0x18
 9395 31bf 0D       		.uleb128 0xd
 9396 31c0 93200000 		.4byte	.LASF670
 9397 31c4 39       		.byte	0x39
 9398 31c5 F7       		.byte	0xf7
 9399 31c6 2E0B0000 		.4byte	0xb2e
 9400 31ca 28       		.byte	0x28
 9401 31cb 0D       		.uleb128 0xd
 9402 31cc C21F0000 		.4byte	.LASF476
 9403 31d0 39       		.byte	0x39
 9404 31d1 FB       		.byte	0xfb
 9405 31d2 DB320000 		.4byte	0x32db
 9406 31d6 2C       		.byte	0x2c
 9407 31d7 0D       		.uleb128 0xd
 9408 31d8 DA040000 		.4byte	.LASF671
 9409 31dc 39       		.byte	0x39
 9410 31dd FF       		.byte	0xff
 9411 31de 62310000 		.4byte	0x3162
 9412 31e2 30       		.byte	0x30
 9413 31e3 18       		.uleb128 0x18
 9414 31e4 A5010000 		.4byte	.LASF607
 9415 31e8 39       		.byte	0x39
 9416 31e9 0301     		.2byte	0x103
 9417 31eb 6D310000 		.4byte	0x316d
 9418 31ef 34       		.byte	0x34
 9419 31f0 27       		.uleb128 0x27
 9420 31f1 72636100 		.ascii	"rca\000"
 9421 31f5 39       		.byte	0x39
 9422 31f6 0701     		.2byte	0x107
 9423 31f8 2E0B0000 		.4byte	0xb2e
 9424 31fc 38       		.byte	0x38
 9425 31fd 18       		.uleb128 0x18
 9426 31fe 98070000 		.4byte	.LASF480
 9427 3202 39       		.byte	0x39
 9428 3203 0C01     		.2byte	0x10c
ARM GAS  /var/folders/qd/4mxf5pkd0zdf0b9dd1hp39180000gn/T//cc0H01tt.s 			page 167


 9429 3205 0B0D0000 		.4byte	0xd0b
 9430 3209 3C       		.byte	0x3c
 9431 320a 18       		.uleb128 0x18
 9432 320b 851B0000 		.4byte	.LASF483
 9433 320f 39       		.byte	0x39
 9434 3210 1001     		.2byte	0x110
 9435 3212 2E0B0000 		.4byte	0xb2e
 9436 3216 40       		.byte	0x40
 9437 3217 27       		.uleb128 0x27
 9438 3218 646D6100 		.ascii	"dma\000"
 9439 321c 39       		.byte	0x39
 9440 321d 1401     		.2byte	0x114
 9441 321f F5230000 		.4byte	0x23f5
 9442 3223 44       		.byte	0x44
 9443 3224 18       		.uleb128 0x18
 9444 3225 5C190000 		.4byte	.LASF672
 9445 3229 39       		.byte	0x39
 9446 322a 1901     		.2byte	0x119
 9447 322c E1320000 		.4byte	0x32e1
 9448 3230 48       		.byte	0x48
 9449 3231 00       		.byte	0
 9450 3232 0C       		.uleb128 0xc
 9451 3233 08       		.byte	0x8
 9452 3234 39       		.byte	0x39
 9453 3235 CF       		.byte	0xcf
 9454 3236 53320000 		.4byte	0x3253
 9455 323a 0D       		.uleb128 0xd
 9456 323b 640F0000 		.4byte	.LASF673
 9457 323f 39       		.byte	0x39
 9458 3240 D8       		.byte	0xd8
 9459 3241 1B1D0000 		.4byte	0x1d1b
 9460 3245 00       		.byte	0
 9461 3246 0D       		.uleb128 0xd
 9462 3247 05270000 		.4byte	.LASF674
 9463 324b 39       		.byte	0x39
 9464 324c DC       		.byte	0xdc
 9465 324d 57310000 		.4byte	0x3157
 9466 3251 04       		.byte	0x4
 9467 3252 00       		.byte	0
 9468 3253 04       		.uleb128 0x4
 9469 3254 BE1D0000 		.4byte	.LASF675
 9470 3258 39       		.byte	0x39
 9471 3259 DE       		.byte	0xde
 9472 325a 32320000 		.4byte	0x3232
 9473 325e 0F       		.uleb128 0xf
 9474 325f 53320000 		.4byte	0x3253
 9475 3263 10       		.uleb128 0x10
 9476 3264 1B270000 		.4byte	.LASF676
 9477 3268 20       		.byte	0x20
 9478 3269 39       		.byte	0x39
 9479 326a EB       		.byte	0xeb
 9480 326b D0320000 		.4byte	0x32d0
 9481 326f 0D       		.uleb128 0xd
 9482 3270 CE290000 		.4byte	.LASF677
 9483 3274 39       		.byte	0x39
 9484 3275 EC       		.byte	0xec
 9485 3276 421F0000 		.4byte	0x1f42
ARM GAS  /var/folders/qd/4mxf5pkd0zdf0b9dd1hp39180000gn/T//cc0H01tt.s 			page 168


 9486 327a 00       		.byte	0
 9487 327b 0D       		.uleb128 0xd
 9488 327c 770D0000 		.4byte	.LASF678
 9489 3280 39       		.byte	0x39
 9490 3281 EC       		.byte	0xec
 9491 3282 421F0000 		.4byte	0x1f42
 9492 3286 04       		.byte	0x4
 9493 3287 0D       		.uleb128 0xd
 9494 3288 51100000 		.4byte	.LASF679
 9495 328c 39       		.byte	0x39
 9496 328d EC       		.byte	0xec
 9497 328e 421F0000 		.4byte	0x1f42
 9498 3292 08       		.byte	0x8
 9499 3293 0D       		.uleb128 0xd
 9500 3294 D0160000 		.4byte	.LASF680
 9501 3298 39       		.byte	0x39
 9502 3299 EC       		.byte	0xec
 9503 329a 421F0000 		.4byte	0x1f42
 9504 329e 0C       		.byte	0xc
 9505 329f 0D       		.uleb128 0xd
 9506 32a0 27050000 		.4byte	.LASF658
 9507 32a4 39       		.byte	0x39
 9508 32a5 EC       		.byte	0xec
 9509 32a6 661F0000 		.4byte	0x1f66
 9510 32aa 10       		.byte	0x10
 9511 32ab 0D       		.uleb128 0xd
 9512 32ac C31B0000 		.4byte	.LASF657
 9513 32b0 39       		.byte	0x39
 9514 32b1 EC       		.byte	0xec
 9515 32b2 8A1F0000 		.4byte	0x1f8a
 9516 32b6 14       		.byte	0x14
 9517 32b7 0D       		.uleb128 0xd
 9518 32b8 EB1D0000 		.4byte	.LASF681
 9519 32bc 39       		.byte	0x39
 9520 32bd EC       		.byte	0xec
 9521 32be 421F0000 		.4byte	0x1f42
 9522 32c2 18       		.byte	0x18
 9523 32c3 0D       		.uleb128 0xd
 9524 32c4 68260000 		.4byte	.LASF682
 9525 32c8 39       		.byte	0x39
 9526 32c9 EC       		.byte	0xec
 9527 32ca AA1F0000 		.4byte	0x1faa
 9528 32ce 1C       		.byte	0x1c
 9529 32cf 00       		.byte	0
 9530 32d0 0F       		.uleb128 0xf
 9531 32d1 63320000 		.4byte	0x3263
 9532 32d5 05       		.uleb128 0x5
 9533 32d6 04       		.byte	0x4
 9534 32d7 D0320000 		.4byte	0x32d0
 9535 32db 05       		.uleb128 0x5
 9536 32dc 04       		.byte	0x4
 9537 32dd 5E320000 		.4byte	0x325e
 9538 32e1 05       		.uleb128 0x5
 9539 32e2 04       		.byte	0x4
 9540 32e3 EF150000 		.4byte	0x15ef
 9541 32e7 20       		.uleb128 0x20
 9542 32e8 120B0000 		.4byte	.LASF683
ARM GAS  /var/folders/qd/4mxf5pkd0zdf0b9dd1hp39180000gn/T//cc0H01tt.s 			page 169


 9543 32ec 39       		.byte	0x39
 9544 32ed 2501     		.2byte	0x125
 9545 32ef 78310000 		.4byte	0x3178
 9546 32f3 26       		.uleb128 0x26
 9547 32f4 07       		.byte	0x7
 9548 32f5 01       		.byte	0x1
 9549 32f6 73000000 		.4byte	0x73
 9550 32fa 3A       		.byte	0x3a
 9551 32fb 46       		.byte	0x46
 9552 32fc 1F330000 		.4byte	0x331f
 9553 3300 23       		.uleb128 0x23
 9554 3301 AE070000 		.4byte	.LASF684
 9555 3305 00       		.byte	0
 9556 3306 23       		.uleb128 0x23
 9557 3307 13030000 		.4byte	.LASF685
 9558 330b 01       		.byte	0x1
 9559 330c 23       		.uleb128 0x23
 9560 330d C6260000 		.4byte	.LASF686
 9561 3311 02       		.byte	0x2
 9562 3312 23       		.uleb128 0x23
 9563 3313 BD0F0000 		.4byte	.LASF687
 9564 3317 03       		.byte	0x3
 9565 3318 23       		.uleb128 0x23
 9566 3319 55160000 		.4byte	.LASF688
 9567 331d 04       		.byte	0x4
 9568 331e 00       		.byte	0
 9569 331f 04       		.uleb128 0x4
 9570 3320 8C0F0000 		.4byte	.LASF689
 9571 3324 3A       		.byte	0x3a
 9572 3325 4C       		.byte	0x4c
 9573 3326 F3320000 		.4byte	0x32f3
 9574 332a 07       		.uleb128 0x7
 9575 332b A4250000 		.4byte	.LASF690
 9576 332f 3B       		.byte	0x3b
 9577 3330 9601     		.2byte	0x196
 9578 3332 36330000 		.4byte	0x3336
 9579 3336 1B       		.uleb128 0x1b
 9580 3337 A4250000 		.4byte	.LASF690
 9581 333b 34       		.byte	0x34
 9582 333c 3B       		.byte	0x3b
 9583 333d BA01     		.2byte	0x1ba
 9584 333f B9330000 		.4byte	0x33b9
 9585 3343 18       		.uleb128 0x18
 9586 3344 44190000 		.4byte	.LASF475
 9587 3348 3B       		.byte	0x3b
 9588 3349 BE01     		.2byte	0x1be
 9589 334b 1F330000 		.4byte	0x331f
 9590 334f 00       		.byte	0
 9591 3350 18       		.uleb128 0x18
 9592 3351 C21F0000 		.4byte	.LASF476
 9593 3355 3B       		.byte	0x3b
 9594 3356 C201     		.2byte	0x1c2
 9595 3358 2B340000 		.4byte	0x342b
 9596 335c 04       		.byte	0x4
 9597 335d 18       		.uleb128 0x18
 9598 335e 98070000 		.4byte	.LASF480
 9599 3362 3B       		.byte	0x3b
ARM GAS  /var/folders/qd/4mxf5pkd0zdf0b9dd1hp39180000gn/T//cc0H01tt.s 			page 170


 9600 3363 C701     		.2byte	0x1c7
 9601 3365 0B0D0000 		.4byte	0xd0b
 9602 3369 08       		.byte	0x8
 9603 336a 18       		.uleb128 0x18
 9604 336b CD0D0000 		.4byte	.LASF481
 9605 336f 3B       		.byte	0x3b
 9606 3370 CD01     		.2byte	0x1cd
 9607 3372 F21B0000 		.4byte	0x1bf2
 9608 3376 0C       		.byte	0xc
 9609 3377 27       		.uleb128 0x27
 9610 3378 73706900 		.ascii	"spi\000"
 9611 337c 3B       		.byte	0x3b
 9612 337d D601     		.2byte	0x1d6
 9613 337f 1A2E0000 		.4byte	0x2e1a
 9614 3383 20       		.byte	0x20
 9615 3384 18       		.uleb128 0x18
 9616 3385 57010000 		.4byte	.LASF611
 9617 3389 3B       		.byte	0x3b
 9618 338a DA01     		.2byte	0x1da
 9619 338c F5230000 		.4byte	0x23f5
 9620 3390 24       		.byte	0x24
 9621 3391 18       		.uleb128 0x18
 9622 3392 44020000 		.4byte	.LASF612
 9623 3396 3B       		.byte	0x3b
 9624 3397 DE01     		.2byte	0x1de
 9625 3399 F5230000 		.4byte	0x23f5
 9626 339d 28       		.byte	0x28
 9627 339e 18       		.uleb128 0x18
 9628 339f 4D090000 		.4byte	.LASF609
 9629 33a3 3B       		.byte	0x3b
 9630 33a4 E201     		.2byte	0x1e2
 9631 33a6 2E0B0000 		.4byte	0xb2e
 9632 33aa 2C       		.byte	0x2c
 9633 33ab 18       		.uleb128 0x18
 9634 33ac A6090000 		.4byte	.LASF610
 9635 33b0 3B       		.byte	0x3b
 9636 33b1 E601     		.2byte	0x1e6
 9637 33b3 2E0B0000 		.4byte	0xb2e
 9638 33b7 30       		.byte	0x30
 9639 33b8 00       		.byte	0
 9640 33b9 07       		.uleb128 0x7
 9641 33ba 6E180000 		.4byte	.LASF691
 9642 33be 3B       		.byte	0x3b
 9643 33bf 9E01     		.2byte	0x19e
 9644 33c1 C5330000 		.4byte	0x33c5
 9645 33c5 05       		.uleb128 0x5
 9646 33c6 04       		.byte	0x4
 9647 33c7 CB330000 		.4byte	0x33cb
 9648 33cb 1F       		.uleb128 0x1f
 9649 33cc D6330000 		.4byte	0x33d6
 9650 33d0 16       		.uleb128 0x16
 9651 33d1 D6330000 		.4byte	0x33d6
 9652 33d5 00       		.byte	0
 9653 33d6 05       		.uleb128 0x5
 9654 33d7 04       		.byte	0x4
 9655 33d8 2A330000 		.4byte	0x332a
 9656 33dc 1C       		.uleb128 0x1c
ARM GAS  /var/folders/qd/4mxf5pkd0zdf0b9dd1hp39180000gn/T//cc0H01tt.s 			page 171


 9657 33dd 0C       		.byte	0xc
 9658 33de 3B       		.byte	0x3b
 9659 33df A301     		.2byte	0x1a3
 9660 33e1 1A340000 		.4byte	0x341a
 9661 33e5 18       		.uleb128 0x18
 9662 33e6 410A0000 		.4byte	.LASF488
 9663 33ea 3B       		.byte	0x3b
 9664 33eb A701     		.2byte	0x1a7
 9665 33ed B9330000 		.4byte	0x33b9
 9666 33f1 00       		.byte	0
 9667 33f2 18       		.uleb128 0x18
 9668 33f3 BB270000 		.4byte	.LASF692
 9669 33f7 3B       		.byte	0x3b
 9670 33f8 AC01     		.2byte	0x1ac
 9671 33fa 86210000 		.4byte	0x2186
 9672 33fe 04       		.byte	0x4
 9673 33ff 18       		.uleb128 0x18
 9674 3400 A0090000 		.4byte	.LASF693
 9675 3404 3B       		.byte	0x3b
 9676 3405 B001     		.2byte	0x1b0
 9677 3407 130B0000 		.4byte	0xb13
 9678 340b 08       		.byte	0x8
 9679 340c 27       		.uleb128 0x27
 9680 340d 63723100 		.ascii	"cr1\000"
 9681 3411 3B       		.byte	0x3b
 9682 3412 B401     		.2byte	0x1b4
 9683 3414 130B0000 		.4byte	0xb13
 9684 3418 0A       		.byte	0xa
 9685 3419 00       		.byte	0
 9686 341a 07       		.uleb128 0x7
 9687 341b 7D240000 		.4byte	.LASF694
 9688 341f 3B       		.byte	0x3b
 9689 3420 B501     		.2byte	0x1b5
 9690 3422 DC330000 		.4byte	0x33dc
 9691 3426 0F       		.uleb128 0xf
 9692 3427 1A340000 		.4byte	0x341a
 9693 342b 05       		.uleb128 0x5
 9694 342c 04       		.byte	0x4
 9695 342d 26340000 		.4byte	0x3426
 9696 3431 20       		.uleb128 0x20
 9697 3432 75230000 		.4byte	.LASF695
 9698 3436 3B       		.byte	0x3b
 9699 3437 F201     		.2byte	0x1f2
 9700 3439 2A330000 		.4byte	0x332a
 9701 343d 04       		.uleb128 0x4
 9702 343e DB130000 		.4byte	.LASF696
 9703 3442 3C       		.byte	0x3c
 9704 3443 FA       		.byte	0xfa
 9705 3444 48340000 		.4byte	0x3448
 9706 3448 17       		.uleb128 0x17
 9707 3449 DB130000 		.4byte	.LASF696
 9708 344d 6002     		.2byte	0x260
 9709 344f 3D       		.byte	0x3d
 9710 3450 7701     		.2byte	0x177
 9711 3452 74350000 		.4byte	0x3574
 9712 3456 18       		.uleb128 0x18
 9713 3457 44190000 		.4byte	.LASF475
ARM GAS  /var/folders/qd/4mxf5pkd0zdf0b9dd1hp39180000gn/T//cc0H01tt.s 			page 172


 9714 345b 3D       		.byte	0x3d
 9715 345c 7B01     		.2byte	0x17b
 9716 345e AC350000 		.4byte	0x35ac
 9717 3462 00       		.byte	0
 9718 3463 18       		.uleb128 0x18
 9719 3464 C21F0000 		.4byte	.LASF476
 9720 3468 3D       		.byte	0x3d
 9721 3469 7F01     		.2byte	0x17f
 9722 346b CF3E0000 		.4byte	0x3ecf
 9723 346f 04       		.byte	0x4
 9724 3470 18       		.uleb128 0x18
 9725 3471 B9240000 		.4byte	.LASF697
 9726 3475 3D       		.byte	0x3d
 9727 3476 8301     		.2byte	0x183
 9728 3478 130B0000 		.4byte	0xb13
 9729 347c 08       		.byte	0x8
 9730 347d 18       		.uleb128 0x18
 9731 347e E2270000 		.4byte	.LASF698
 9732 3482 3D       		.byte	0x3d
 9733 3483 8701     		.2byte	0x187
 9734 3485 130B0000 		.4byte	0xb13
 9735 3489 0A       		.byte	0xa
 9736 348a 27       		.uleb128 0x27
 9737 348b 65706300 		.ascii	"epc\000"
 9738 348f 3D       		.byte	0x3d
 9739 3490 8B01     		.2byte	0x18b
 9740 3492 D53E0000 		.4byte	0x3ed5
 9741 3496 0C       		.byte	0xc
 9742 3497 18       		.uleb128 0x18
 9743 3498 22080000 		.4byte	.LASF699
 9744 349c 3D       		.byte	0x3d
 9745 349d 9201     		.2byte	0x192
 9746 349f EB3E0000 		.4byte	0x3eeb
 9747 34a3 1C       		.byte	0x1c
 9748 34a4 18       		.uleb128 0x18
 9749 34a5 480D0000 		.4byte	.LASF700
 9750 34a9 3D       		.byte	0x3d
 9751 34aa 9901     		.2byte	0x199
 9752 34ac EB3E0000 		.4byte	0x3eeb
 9753 34b0 28       		.byte	0x28
 9754 34b1 18       		.uleb128 0x18
 9755 34b2 25120000 		.4byte	.LASF701
 9756 34b6 3D       		.byte	0x3d
 9757 34b7 9D01     		.2byte	0x19d
 9758 34b9 F1350000 		.4byte	0x35f1
 9759 34bd 34       		.byte	0x34
 9760 34be 18       		.uleb128 0x18
 9761 34bf 5B1F0000 		.4byte	.LASF702
 9762 34c3 3D       		.byte	0x3d
 9763 34c4 A101     		.2byte	0x1a1
 9764 34c6 1B1D0000 		.4byte	0x1d1b
 9765 34ca 38       		.byte	0x38
 9766 34cb 18       		.uleb128 0x18
 9767 34cc 011B0000 		.4byte	.LASF703
 9768 34d0 3D       		.byte	0x3d
 9769 34d1 A501     		.2byte	0x1a5
 9770 34d3 48000000 		.4byte	0x48
ARM GAS  /var/folders/qd/4mxf5pkd0zdf0b9dd1hp39180000gn/T//cc0H01tt.s 			page 173


 9771 34d7 3C       		.byte	0x3c
 9772 34d8 18       		.uleb128 0x18
 9773 34d9 D7210000 		.4byte	.LASF704
 9774 34dd 3D       		.byte	0x3d
 9775 34de A901     		.2byte	0x1a9
 9776 34e0 71360000 		.4byte	0x3671
 9777 34e4 40       		.byte	0x40
 9778 34e5 18       		.uleb128 0x18
 9779 34e6 A8070000 		.4byte	.LASF705
 9780 34ea 3D       		.byte	0x3d
 9781 34eb AD01     		.2byte	0x1ad
 9782 34ed 56240000 		.4byte	0x2456
 9783 34f1 44       		.byte	0x44
 9784 34f2 18       		.uleb128 0x18
 9785 34f3 40180000 		.4byte	.LASF706
 9786 34f7 3D       		.byte	0x3d
 9787 34f8 B101     		.2byte	0x1b1
 9788 34fa 130B0000 		.4byte	0xb13
 9789 34fe 4C       		.byte	0x4c
 9790 34ff 18       		.uleb128 0x18
 9791 3500 86180000 		.4byte	.LASF707
 9792 3504 3D       		.byte	0x3d
 9793 3505 B501     		.2byte	0x1b5
 9794 3507 F80A0000 		.4byte	0xaf8
 9795 350b 4E       		.byte	0x4e
 9796 350c 18       		.uleb128 0x18
 9797 350d 751E0000 		.4byte	.LASF708
 9798 3511 3D       		.byte	0x3d
 9799 3512 B901     		.2byte	0x1b9
 9800 3514 F80A0000 		.4byte	0xaf8
 9801 3518 4F       		.byte	0x4f
 9802 3519 27       		.uleb128 0x27
 9803 351a 6F746700 		.ascii	"otg\000"
 9804 351e 3D       		.byte	0x3d
 9805 351f C101     		.2byte	0x1c1
 9806 3521 FB3E0000 		.4byte	0x3efb
 9807 3525 50       		.byte	0x50
 9808 3526 18       		.uleb128 0x18
 9809 3527 4B0F0000 		.4byte	.LASF709
 9810 352b 3D       		.byte	0x3d
 9811 352c C501     		.2byte	0x1c5
 9812 352e 013F0000 		.4byte	0x3f01
 9813 3532 54       		.byte	0x54
 9814 3533 18       		.uleb128 0x18
 9815 3534 17230000 		.4byte	.LASF710
 9816 3538 3D       		.byte	0x3d
 9817 3539 C901     		.2byte	0x1c9
 9818 353b 2E0B0000 		.4byte	0xb2e
 9819 353f 58       		.byte	0x58
 9820 3540 18       		.uleb128 0x18
 9821 3541 350E0000 		.4byte	.LASF711
 9822 3545 3D       		.byte	0x3d
 9823 3546 CD01     		.2byte	0x1cd
 9824 3548 2E0B0000 		.4byte	0xb2e
 9825 354c 5C       		.byte	0x5c
 9826 354d 18       		.uleb128 0x18
 9827 354e EF080000 		.4byte	.LASF712
ARM GAS  /var/folders/qd/4mxf5pkd0zdf0b9dd1hp39180000gn/T//cc0H01tt.s 			page 174


 9828 3552 3D       		.byte	0x3d
 9829 3553 D101     		.2byte	0x1d1
 9830 3555 0B0D0000 		.4byte	0xd0b
 9831 3559 60       		.byte	0x60
 9832 355a 27       		.uleb128 0x27
 9833 355b 747200   		.ascii	"tr\000"
 9834 355e 3D       		.byte	0x3d
 9835 355f D601     		.2byte	0x1d6
 9836 3561 0B0D0000 		.4byte	0xd0b
 9837 3565 64       		.byte	0x64
 9838 3566 18       		.uleb128 0x18
 9839 3567 16170000 		.4byte	.LASF713
 9840 356b 3D       		.byte	0x3d
 9841 356c DA01     		.2byte	0x1da
 9842 356e 073F0000 		.4byte	0x3f07
 9843 3572 68       		.byte	0x68
 9844 3573 00       		.byte	0
 9845 3574 04       		.uleb128 0x4
 9846 3575 DB0A0000 		.4byte	.LASF714
 9847 3579 3C       		.byte	0x3c
 9848 357a FF       		.byte	0xff
 9849 357b F80A0000 		.4byte	0xaf8
 9850 357f 2D       		.uleb128 0x2d
 9851 3580 07       		.byte	0x7
 9852 3581 01       		.byte	0x1
 9853 3582 73000000 		.4byte	0x73
 9854 3586 3C       		.byte	0x3c
 9855 3587 0401     		.2byte	0x104
 9856 3589 AC350000 		.4byte	0x35ac
 9857 358d 23       		.uleb128 0x23
 9858 358e C1280000 		.4byte	.LASF715
 9859 3592 00       		.byte	0
 9860 3593 23       		.uleb128 0x23
 9861 3594 15000000 		.4byte	.LASF716
 9862 3598 01       		.byte	0x1
 9863 3599 23       		.uleb128 0x23
 9864 359a 20160000 		.4byte	.LASF717
 9865 359e 02       		.byte	0x2
 9866 359f 23       		.uleb128 0x23
 9867 35a0 AF1C0000 		.4byte	.LASF718
 9868 35a4 03       		.byte	0x3
 9869 35a5 23       		.uleb128 0x23
 9870 35a6 07090000 		.4byte	.LASF719
 9871 35aa 04       		.byte	0x4
 9872 35ab 00       		.byte	0
 9873 35ac 07       		.uleb128 0x7
 9874 35ad 032A0000 		.4byte	.LASF720
 9875 35b1 3C       		.byte	0x3c
 9876 35b2 0A01     		.2byte	0x10a
 9877 35b4 7F350000 		.4byte	0x357f
 9878 35b8 2D       		.uleb128 0x2d
 9879 35b9 07       		.byte	0x7
 9880 35ba 01       		.byte	0x1
 9881 35bb 73000000 		.4byte	0x73
 9882 35bf 3C       		.byte	0x3c
 9883 35c0 1801     		.2byte	0x118
 9884 35c2 F1350000 		.4byte	0x35f1
ARM GAS  /var/folders/qd/4mxf5pkd0zdf0b9dd1hp39180000gn/T//cc0H01tt.s 			page 175


 9885 35c6 23       		.uleb128 0x23
 9886 35c7 A2210000 		.4byte	.LASF721
 9887 35cb 00       		.byte	0
 9888 35cc 23       		.uleb128 0x23
 9889 35cd 1A120000 		.4byte	.LASF722
 9890 35d1 01       		.byte	0x1
 9891 35d2 23       		.uleb128 0x23
 9892 35d3 471F0000 		.4byte	.LASF723
 9893 35d7 02       		.byte	0x2
 9894 35d8 23       		.uleb128 0x23
 9895 35d9 69190000 		.4byte	.LASF724
 9896 35dd 03       		.byte	0x3
 9897 35de 23       		.uleb128 0x23
 9898 35df F6170000 		.4byte	.LASF725
 9899 35e3 04       		.byte	0x4
 9900 35e4 23       		.uleb128 0x23
 9901 35e5 28130000 		.4byte	.LASF726
 9902 35e9 05       		.byte	0x5
 9903 35ea 23       		.uleb128 0x23
 9904 35eb 3C100000 		.4byte	.LASF727
 9905 35ef 06       		.byte	0x6
 9906 35f0 00       		.byte	0
 9907 35f1 07       		.uleb128 0x7
 9908 35f2 80130000 		.4byte	.LASF728
 9909 35f6 3C       		.byte	0x3c
 9910 35f7 2001     		.2byte	0x120
 9911 35f9 B8350000 		.4byte	0x35b8
 9912 35fd 2D       		.uleb128 0x2d
 9913 35fe 07       		.byte	0x7
 9914 35ff 01       		.byte	0x1
 9915 3600 73000000 		.4byte	0x73
 9916 3604 3C       		.byte	0x3c
 9917 3605 2501     		.2byte	0x125
 9918 3607 30360000 		.4byte	0x3630
 9919 360b 23       		.uleb128 0x23
 9920 360c 29210000 		.4byte	.LASF729
 9921 3610 00       		.byte	0
 9922 3611 23       		.uleb128 0x23
 9923 3612 231D0000 		.4byte	.LASF730
 9924 3616 01       		.byte	0x1
 9925 3617 23       		.uleb128 0x23
 9926 3618 BB160000 		.4byte	.LASF731
 9927 361c 02       		.byte	0x2
 9928 361d 23       		.uleb128 0x23
 9929 361e 62170000 		.4byte	.LASF732
 9930 3622 03       		.byte	0x3
 9931 3623 23       		.uleb128 0x23
 9932 3624 3E270000 		.4byte	.LASF733
 9933 3628 04       		.byte	0x4
 9934 3629 23       		.uleb128 0x23
 9935 362a 7F160000 		.4byte	.LASF734
 9936 362e 05       		.byte	0x5
 9937 362f 00       		.byte	0
 9938 3630 07       		.uleb128 0x7
 9939 3631 6A1D0000 		.4byte	.LASF735
 9940 3635 3C       		.byte	0x3c
 9941 3636 2C01     		.2byte	0x12c
ARM GAS  /var/folders/qd/4mxf5pkd0zdf0b9dd1hp39180000gn/T//cc0H01tt.s 			page 176


 9942 3638 FD350000 		.4byte	0x35fd
 9943 363c 1C       		.uleb128 0x1c
 9944 363d 08       		.byte	0x8
 9945 363e 3C       		.byte	0x3c
 9946 363f 3101     		.2byte	0x131
 9947 3641 60360000 		.4byte	0x3660
 9948 3645 18       		.uleb128 0x18
 9949 3646 8C290000 		.4byte	.LASF736
 9950 364a 3C       		.byte	0x3c
 9951 364b 3501     		.2byte	0x135
 9952 364d 48000000 		.4byte	0x48
 9953 3651 00       		.byte	0
 9954 3652 18       		.uleb128 0x18
 9955 3653 05050000 		.4byte	.LASF737
 9956 3657 3C       		.byte	0x3c
 9957 3658 3901     		.2byte	0x139
 9958 365a 501D0000 		.4byte	0x1d50
 9959 365e 04       		.byte	0x4
 9960 365f 00       		.byte	0
 9961 3660 07       		.uleb128 0x7
 9962 3661 5A180000 		.4byte	.LASF738
 9963 3665 3C       		.byte	0x3c
 9964 3666 3A01     		.2byte	0x13a
 9965 3668 3C360000 		.4byte	0x363c
 9966 366c 0F       		.uleb128 0xf
 9967 366d 60360000 		.4byte	0x3660
 9968 3671 07       		.uleb128 0x7
 9969 3672 16290000 		.4byte	.LASF739
 9970 3676 3C       		.byte	0x3c
 9971 3677 4201     		.2byte	0x142
 9972 3679 7D360000 		.4byte	0x367d
 9973 367d 05       		.uleb128 0x5
 9974 367e 04       		.byte	0x4
 9975 367f 83360000 		.4byte	0x3683
 9976 3683 1F       		.uleb128 0x1f
 9977 3684 8E360000 		.4byte	0x368e
 9978 3688 16       		.uleb128 0x16
 9979 3689 8E360000 		.4byte	0x368e
 9980 368d 00       		.byte	0
 9981 368e 05       		.uleb128 0x5
 9982 368f 04       		.byte	0x4
 9983 3690 3D340000 		.4byte	0x343d
 9984 3694 07       		.uleb128 0x7
 9985 3695 6E050000 		.4byte	.LASF740
 9986 3699 3C       		.byte	0x3c
 9987 369a 4B01     		.2byte	0x14b
 9988 369c A0360000 		.4byte	0x36a0
 9989 36a0 05       		.uleb128 0x5
 9990 36a1 04       		.byte	0x4
 9991 36a2 A6360000 		.4byte	0x36a6
 9992 36a6 1F       		.uleb128 0x1f
 9993 36a7 B6360000 		.4byte	0x36b6
 9994 36ab 16       		.uleb128 0x16
 9995 36ac 8E360000 		.4byte	0x368e
 9996 36b0 16       		.uleb128 0x16
 9997 36b1 74350000 		.4byte	0x3574
 9998 36b5 00       		.byte	0
ARM GAS  /var/folders/qd/4mxf5pkd0zdf0b9dd1hp39180000gn/T//cc0H01tt.s 			page 177


 9999 36b6 07       		.uleb128 0x7
 10000 36b7 E70B0000 		.4byte	.LASF741
 10001 36bb 3C       		.byte	0x3c
 10002 36bc 5401     		.2byte	0x154
 10003 36be C2360000 		.4byte	0x36c2
 10004 36c2 05       		.uleb128 0x5
 10005 36c3 04       		.byte	0x4
 10006 36c4 C8360000 		.4byte	0x36c8
 10007 36c8 1F       		.uleb128 0x1f
 10008 36c9 D8360000 		.4byte	0x36d8
 10009 36cd 16       		.uleb128 0x16
 10010 36ce 8E360000 		.4byte	0x368e
 10011 36d2 16       		.uleb128 0x16
 10012 36d3 30360000 		.4byte	0x3630
 10013 36d7 00       		.byte	0
 10014 36d8 07       		.uleb128 0x7
 10015 36d9 E3060000 		.4byte	.LASF742
 10016 36dd 3C       		.byte	0x3c
 10017 36de 6001     		.2byte	0x160
 10018 36e0 E4360000 		.4byte	0x36e4
 10019 36e4 05       		.uleb128 0x5
 10020 36e5 04       		.byte	0x4
 10021 36e6 EA360000 		.4byte	0x36ea
 10022 36ea 15       		.uleb128 0x15
 10023 36eb B00A0000 		.4byte	0xab0
 10024 36ef F9360000 		.4byte	0x36f9
 10025 36f3 16       		.uleb128 0x16
 10026 36f4 8E360000 		.4byte	0x368e
 10027 36f8 00       		.byte	0
 10028 36f9 07       		.uleb128 0x7
 10029 36fa A8100000 		.4byte	.LASF743
 10030 36fe 3C       		.byte	0x3c
 10031 36ff 6501     		.2byte	0x165
 10032 3701 05370000 		.4byte	0x3705
 10033 3705 05       		.uleb128 0x5
 10034 3706 04       		.byte	0x4
 10035 3707 0B370000 		.4byte	0x370b
 10036 370b 15       		.uleb128 0x15
 10037 370c 29370000 		.4byte	0x3729
 10038 3710 29370000 		.4byte	0x3729
 10039 3714 16       		.uleb128 0x16
 10040 3715 8E360000 		.4byte	0x368e
 10041 3719 16       		.uleb128 0x16
 10042 371a F80A0000 		.4byte	0xaf8
 10043 371e 16       		.uleb128 0x16
 10044 371f F80A0000 		.4byte	0xaf8
 10045 3723 16       		.uleb128 0x16
 10046 3724 130B0000 		.4byte	0xb13
 10047 3728 00       		.byte	0
 10048 3729 05       		.uleb128 0x5
 10049 372a 04       		.byte	0x4
 10050 372b 6C360000 		.4byte	0x366c
 10051 372f 0C       		.uleb128 0xc
 10052 3730 20       		.byte	0x20
 10053 3731 3E       		.byte	0x3e
 10054 3732 35       		.byte	0x35
 10055 3733 98370000 		.4byte	0x3798
ARM GAS  /var/folders/qd/4mxf5pkd0zdf0b9dd1hp39180000gn/T//cc0H01tt.s 			page 178


 10056 3737 0D       		.uleb128 0xd
 10057 3738 81030000 		.4byte	.LASF744
 10058 373c 3E       		.byte	0x3e
 10059 373d 36       		.byte	0x36
 10060 373e 390B0000 		.4byte	0xb39
 10061 3742 00       		.byte	0
 10062 3743 0D       		.uleb128 0xd
 10063 3744 A80E0000 		.4byte	.LASF745
 10064 3748 3E       		.byte	0x3e
 10065 3749 38       		.byte	0x38
 10066 374a 390B0000 		.4byte	0xb39
 10067 374e 04       		.byte	0x4
 10068 374f 0D       		.uleb128 0xd
 10069 3750 D8020000 		.4byte	.LASF746
 10070 3754 3E       		.byte	0x3e
 10071 3755 39       		.byte	0x39
 10072 3756 390B0000 		.4byte	0xb39
 10073 375a 08       		.byte	0x8
 10074 375b 0D       		.uleb128 0xd
 10075 375c B31F0000 		.4byte	.LASF747
 10076 3760 3E       		.byte	0x3e
 10077 3761 3A       		.byte	0x3a
 10078 3762 390B0000 		.4byte	0xb39
 10079 3766 0C       		.byte	0xc
 10080 3767 0D       		.uleb128 0xd
 10081 3768 B4160000 		.4byte	.LASF748
 10082 376c 3E       		.byte	0x3e
 10083 376d 3C       		.byte	0x3c
 10084 376e 390B0000 		.4byte	0xb39
 10085 3772 10       		.byte	0x10
 10086 3773 0D       		.uleb128 0xd
 10087 3774 DE0E0000 		.4byte	.LASF749
 10088 3778 3E       		.byte	0x3e
 10089 3779 3E       		.byte	0x3e
 10090 377a 390B0000 		.4byte	0xb39
 10091 377e 14       		.byte	0x14
 10092 377f 0D       		.uleb128 0xd
 10093 3780 F10E0000 		.4byte	.LASF750
 10094 3784 3E       		.byte	0x3e
 10095 3785 3F       		.byte	0x3f
 10096 3786 390B0000 		.4byte	0xb39
 10097 378a 18       		.byte	0x18
 10098 378b 0D       		.uleb128 0xd
 10099 378c 35040000 		.4byte	.LASF751
 10100 3790 3E       		.byte	0x3e
 10101 3791 40       		.byte	0x40
 10102 3792 390B0000 		.4byte	0xb39
 10103 3796 1C       		.byte	0x1c
 10104 3797 00       		.byte	0
 10105 3798 04       		.uleb128 0x4
 10106 3799 631F0000 		.4byte	.LASF752
 10107 379d 3E       		.byte	0x3e
 10108 379e 41       		.byte	0x41
 10109 379f 2F370000 		.4byte	0x372f
 10110 37a3 0C       		.uleb128 0xc
 10111 37a4 20       		.byte	0x20
 10112 37a5 3E       		.byte	0x3e
ARM GAS  /var/folders/qd/4mxf5pkd0zdf0b9dd1hp39180000gn/T//cc0H01tt.s 			page 179


 10113 37a6 46       		.byte	0x46
 10114 37a7 0C380000 		.4byte	0x380c
 10115 37ab 0D       		.uleb128 0xd
 10116 37ac 390F0000 		.4byte	.LASF753
 10117 37b0 3E       		.byte	0x3e
 10118 37b1 47       		.byte	0x47
 10119 37b2 390B0000 		.4byte	0xb39
 10120 37b6 00       		.byte	0
 10121 37b7 0D       		.uleb128 0xd
 10122 37b8 D4130000 		.4byte	.LASF754
 10123 37bc 3E       		.byte	0x3e
 10124 37bd 49       		.byte	0x49
 10125 37be 390B0000 		.4byte	0xb39
 10126 37c2 04       		.byte	0x4
 10127 37c3 0D       		.uleb128 0xd
 10128 37c4 CC230000 		.4byte	.LASF755
 10129 37c8 3E       		.byte	0x3e
 10130 37c9 4A       		.byte	0x4a
 10131 37ca 390B0000 		.4byte	0xb39
 10132 37ce 08       		.byte	0x8
 10133 37cf 0D       		.uleb128 0xd
 10134 37d0 F8130000 		.4byte	.LASF756
 10135 37d4 3E       		.byte	0x3e
 10136 37d5 4C       		.byte	0x4c
 10137 37d6 390B0000 		.4byte	0xb39
 10138 37da 0C       		.byte	0xc
 10139 37db 0D       		.uleb128 0xd
 10140 37dc 621A0000 		.4byte	.LASF757
 10141 37e0 3E       		.byte	0x3e
 10142 37e1 4D       		.byte	0x4d
 10143 37e2 390B0000 		.4byte	0xb39
 10144 37e6 10       		.byte	0x10
 10145 37e7 0D       		.uleb128 0xd
 10146 37e8 DE0E0000 		.4byte	.LASF749
 10147 37ec 3E       		.byte	0x3e
 10148 37ed 4F       		.byte	0x4f
 10149 37ee 390B0000 		.4byte	0xb39
 10150 37f2 14       		.byte	0x14
 10151 37f3 0D       		.uleb128 0xd
 10152 37f4 B9070000 		.4byte	.LASF758
 10153 37f8 3E       		.byte	0x3e
 10154 37f9 50       		.byte	0x50
 10155 37fa 390B0000 		.4byte	0xb39
 10156 37fe 18       		.byte	0x18
 10157 37ff 0D       		.uleb128 0xd
 10158 3800 B5230000 		.4byte	.LASF759
 10159 3804 3E       		.byte	0x3e
 10160 3805 52       		.byte	0x52
 10161 3806 390B0000 		.4byte	0xb39
 10162 380a 1C       		.byte	0x1c
 10163 380b 00       		.byte	0
 10164 380c 04       		.uleb128 0x4
 10165 380d 2A090000 		.4byte	.LASF760
 10166 3811 3E       		.byte	0x3e
 10167 3812 53       		.byte	0x53
 10168 3813 A3370000 		.4byte	0x37a3
 10169 3817 0C       		.uleb128 0xc
ARM GAS  /var/folders/qd/4mxf5pkd0zdf0b9dd1hp39180000gn/T//cc0H01tt.s 			page 180


 10170 3818 20       		.byte	0x20
 10171 3819 3E       		.byte	0x3e
 10172 381a 58       		.byte	0x58
 10173 381b 80380000 		.4byte	0x3880
 10174 381f 0D       		.uleb128 0xd
 10175 3820 92170000 		.4byte	.LASF761
 10176 3824 3E       		.byte	0x3e
 10177 3825 59       		.byte	0x59
 10178 3826 390B0000 		.4byte	0xb39
 10179 382a 00       		.byte	0
 10180 382b 0D       		.uleb128 0xd
 10181 382c D4130000 		.4byte	.LASF754
 10182 3830 3E       		.byte	0x3e
 10183 3831 5B       		.byte	0x5b
 10184 3832 390B0000 		.4byte	0xb39
 10185 3836 04       		.byte	0x4
 10186 3837 0D       		.uleb128 0xd
 10187 3838 E11B0000 		.4byte	.LASF762
 10188 383c 3E       		.byte	0x3e
 10189 383d 5C       		.byte	0x5c
 10190 383e 390B0000 		.4byte	0xb39
 10191 3842 08       		.byte	0x8
 10192 3843 0D       		.uleb128 0xd
 10193 3844 F8130000 		.4byte	.LASF756
 10194 3848 3E       		.byte	0x3e
 10195 3849 5E       		.byte	0x5e
 10196 384a 390B0000 		.4byte	0xb39
 10197 384e 0C       		.byte	0xc
 10198 384f 0D       		.uleb128 0xd
 10199 3850 1C250000 		.4byte	.LASF763
 10200 3854 3E       		.byte	0x3e
 10201 3855 5F       		.byte	0x5f
 10202 3856 390B0000 		.4byte	0xb39
 10203 385a 10       		.byte	0x10
 10204 385b 0D       		.uleb128 0xd
 10205 385c DE0E0000 		.4byte	.LASF749
 10206 3860 3E       		.byte	0x3e
 10207 3861 61       		.byte	0x61
 10208 3862 390B0000 		.4byte	0xb39
 10209 3866 14       		.byte	0x14
 10210 3867 0D       		.uleb128 0xd
 10211 3868 F10E0000 		.4byte	.LASF750
 10212 386c 3E       		.byte	0x3e
 10213 386d 62       		.byte	0x62
 10214 386e 390B0000 		.4byte	0xb39
 10215 3872 18       		.byte	0x18
 10216 3873 0D       		.uleb128 0xd
 10217 3874 B5230000 		.4byte	.LASF759
 10218 3878 3E       		.byte	0x3e
 10219 3879 63       		.byte	0x63
 10220 387a 390B0000 		.4byte	0xb39
 10221 387e 1C       		.byte	0x1c
 10222 387f 00       		.byte	0
 10223 3880 04       		.uleb128 0x4
 10224 3881 BE080000 		.4byte	.LASF764
 10225 3885 3E       		.byte	0x3e
 10226 3886 64       		.byte	0x64
ARM GAS  /var/folders/qd/4mxf5pkd0zdf0b9dd1hp39180000gn/T//cc0H01tt.s 			page 181


 10227 3887 17380000 		.4byte	0x3817
 10228 388b 2E       		.uleb128 0x2e
 10229 388c 00100100 		.4byte	0x11000
 10230 3890 3E       		.byte	0x3e
 10231 3891 69       		.byte	0x69
 10232 3892 683B0000 		.4byte	0x3b68
 10233 3896 0D       		.uleb128 0xd
 10234 3897 49050000 		.4byte	.LASF765
 10235 389b 3E       		.byte	0x3e
 10236 389c 6A       		.byte	0x6a
 10237 389d 390B0000 		.4byte	0xb39
 10238 38a1 00       		.byte	0
 10239 38a2 0D       		.uleb128 0xd
 10240 38a3 300D0000 		.4byte	.LASF766
 10241 38a7 3E       		.byte	0x3e
 10242 38a8 6B       		.byte	0x6b
 10243 38a9 390B0000 		.4byte	0xb39
 10244 38ad 04       		.byte	0x4
 10245 38ae 0D       		.uleb128 0xd
 10246 38af 47080000 		.4byte	.LASF767
 10247 38b3 3E       		.byte	0x3e
 10248 38b4 6C       		.byte	0x6c
 10249 38b5 390B0000 		.4byte	0xb39
 10250 38b9 08       		.byte	0x8
 10251 38ba 0D       		.uleb128 0xd
 10252 38bb 34290000 		.4byte	.LASF768
 10253 38bf 3E       		.byte	0x3e
 10254 38c0 6D       		.byte	0x6d
 10255 38c1 390B0000 		.4byte	0xb39
 10256 38c5 0C       		.byte	0xc
 10257 38c6 0D       		.uleb128 0xd
 10258 38c7 30160000 		.4byte	.LASF769
 10259 38cb 3E       		.byte	0x3e
 10260 38cc 6E       		.byte	0x6e
 10261 38cd 390B0000 		.4byte	0xb39
 10262 38d1 10       		.byte	0x10
 10263 38d2 0D       		.uleb128 0xd
 10264 38d3 DE030000 		.4byte	.LASF770
 10265 38d7 3E       		.byte	0x3e
 10266 38d8 6F       		.byte	0x6f
 10267 38d9 390B0000 		.4byte	0xb39
 10268 38dd 14       		.byte	0x14
 10269 38de 0D       		.uleb128 0xd
 10270 38df 641E0000 		.4byte	.LASF771
 10271 38e3 3E       		.byte	0x3e
 10272 38e4 70       		.byte	0x70
 10273 38e5 390B0000 		.4byte	0xb39
 10274 38e9 18       		.byte	0x18
 10275 38ea 0D       		.uleb128 0xd
 10276 38eb D9080000 		.4byte	.LASF772
 10277 38ef 3E       		.byte	0x3e
 10278 38f0 71       		.byte	0x71
 10279 38f1 390B0000 		.4byte	0xb39
 10280 38f5 1C       		.byte	0x1c
 10281 38f6 0D       		.uleb128 0xd
 10282 38f7 D1080000 		.4byte	.LASF773
 10283 38fb 3E       		.byte	0x3e
ARM GAS  /var/folders/qd/4mxf5pkd0zdf0b9dd1hp39180000gn/T//cc0H01tt.s 			page 182


 10284 38fc 73       		.byte	0x73
 10285 38fd 390B0000 		.4byte	0xb39
 10286 3901 20       		.byte	0x20
 10287 3902 0D       		.uleb128 0xd
 10288 3903 E31D0000 		.4byte	.LASF774
 10289 3907 3E       		.byte	0x3e
 10290 3908 75       		.byte	0x75
 10291 3909 390B0000 		.4byte	0xb39
 10292 390d 24       		.byte	0x24
 10293 390e 0D       		.uleb128 0xd
 10294 390f AE000000 		.4byte	.LASF775
 10295 3913 3E       		.byte	0x3e
 10296 3914 76       		.byte	0x76
 10297 3915 390B0000 		.4byte	0xb39
 10298 3919 28       		.byte	0x28
 10299 391a 0D       		.uleb128 0xd
 10300 391b 6C1E0000 		.4byte	.LASF776
 10301 391f 3E       		.byte	0x3e
 10302 3920 78       		.byte	0x78
 10303 3921 390B0000 		.4byte	0xb39
 10304 3925 2C       		.byte	0x2c
 10305 3926 0D       		.uleb128 0xd
 10306 3927 F00F0000 		.4byte	.LASF777
 10307 392b 3E       		.byte	0x3e
 10308 392c 7A       		.byte	0x7a
 10309 392d 390B0000 		.4byte	0xb39
 10310 3931 30       		.byte	0x30
 10311 3932 0D       		.uleb128 0xd
 10312 3933 92270000 		.4byte	.LASF778
 10313 3937 3E       		.byte	0x3e
 10314 3938 7B       		.byte	0x7b
 10315 3939 390B0000 		.4byte	0xb39
 10316 393d 34       		.byte	0x34
 10317 393e 0D       		.uleb128 0xd
 10318 393f 1E020000 		.4byte	.LASF779
 10319 3943 3E       		.byte	0x3e
 10320 3944 7C       		.byte	0x7c
 10321 3945 390B0000 		.4byte	0xb39
 10322 3949 38       		.byte	0x38
 10323 394a 11       		.uleb128 0x11
 10324 394b 43494400 		.ascii	"CID\000"
 10325 394f 3E       		.byte	0x3e
 10326 3950 7D       		.byte	0x7d
 10327 3951 390B0000 		.4byte	0xb39
 10328 3955 3C       		.byte	0x3c
 10329 3956 0D       		.uleb128 0xd
 10330 3957 C2120000 		.4byte	.LASF780
 10331 395b 3E       		.byte	0x3e
 10332 395c 7E       		.byte	0x7e
 10333 395d 783B0000 		.4byte	0x3b78
 10334 3961 40       		.byte	0x40
 10335 3962 13       		.uleb128 0x13
 10336 3963 26260000 		.4byte	.LASF781
 10337 3967 3E       		.byte	0x3e
 10338 3968 7F       		.byte	0x7f
 10339 3969 390B0000 		.4byte	0xb39
 10340 396d 0001     		.2byte	0x100
ARM GAS  /var/folders/qd/4mxf5pkd0zdf0b9dd1hp39180000gn/T//cc0H01tt.s 			page 183


 10341 396f 13       		.uleb128 0x13
 10342 3970 70020000 		.4byte	.LASF782
 10343 3974 3E       		.byte	0x3e
 10344 3975 81       		.byte	0x81
 10345 3976 03170000 		.4byte	0x1703
 10346 397a 0401     		.2byte	0x104
 10347 397c 13       		.uleb128 0x13
 10348 397d 35170000 		.4byte	.LASF783
 10349 3981 3E       		.byte	0x3e
 10350 3982 83       		.byte	0x83
 10351 3983 8D3B0000 		.4byte	0x3b8d
 10352 3987 4001     		.2byte	0x140
 10353 3989 13       		.uleb128 0x13
 10354 398a 801B0000 		.4byte	.LASF784
 10355 398e 3E       		.byte	0x3e
 10356 398f 84       		.byte	0x84
 10357 3990 390B0000 		.4byte	0xb39
 10358 3994 0004     		.2byte	0x400
 10359 3996 13       		.uleb128 0x13
 10360 3997 BC280000 		.4byte	.LASF785
 10361 399b 3E       		.byte	0x3e
 10362 399c 85       		.byte	0x85
 10363 399d 390B0000 		.4byte	0xb39
 10364 39a1 0404     		.2byte	0x404
 10365 39a3 13       		.uleb128 0x13
 10366 39a4 A1040000 		.4byte	.LASF786
 10367 39a8 3E       		.byte	0x3e
 10368 39a9 86       		.byte	0x86
 10369 39aa 390B0000 		.4byte	0xb39
 10370 39ae 0804     		.2byte	0x408
 10371 39b0 13       		.uleb128 0x13
 10372 39b1 6C250000 		.4byte	.LASF787
 10373 39b5 3E       		.byte	0x3e
 10374 39b6 88       		.byte	0x88
 10375 39b7 390B0000 		.4byte	0xb39
 10376 39bb 0C04     		.2byte	0x40c
 10377 39bd 13       		.uleb128 0x13
 10378 39be 33030000 		.4byte	.LASF788
 10379 39c2 3E       		.byte	0x3e
 10380 39c3 89       		.byte	0x89
 10381 39c4 390B0000 		.4byte	0xb39
 10382 39c8 1004     		.2byte	0x410
 10383 39ca 13       		.uleb128 0x13
 10384 39cb 48040000 		.4byte	.LASF789
 10385 39cf 3E       		.byte	0x3e
 10386 39d0 8B       		.byte	0x8b
 10387 39d1 390B0000 		.4byte	0xb39
 10388 39d5 1404     		.2byte	0x414
 10389 39d7 13       		.uleb128 0x13
 10390 39d8 3F0D0000 		.4byte	.LASF790
 10391 39dc 3E       		.byte	0x3e
 10392 39dd 8D       		.byte	0x8d
 10393 39de 390B0000 		.4byte	0xb39
 10394 39e2 1804     		.2byte	0x418
 10395 39e4 13       		.uleb128 0x13
 10396 39e5 F5200000 		.4byte	.LASF791
 10397 39e9 3E       		.byte	0x3e
ARM GAS  /var/folders/qd/4mxf5pkd0zdf0b9dd1hp39180000gn/T//cc0H01tt.s 			page 184


 10398 39ea 8F       		.byte	0x8f
 10399 39eb A23B0000 		.4byte	0x3ba2
 10400 39ef 1C04     		.2byte	0x41c
 10401 39f1 13       		.uleb128 0x13
 10402 39f2 D3020000 		.4byte	.LASF792
 10403 39f6 3E       		.byte	0x3e
 10404 39f7 90       		.byte	0x90
 10405 39f8 390B0000 		.4byte	0xb39
 10406 39fc 4004     		.2byte	0x440
 10407 39fe 13       		.uleb128 0x13
 10408 39ff BD220000 		.4byte	.LASF793
 10409 3a03 3E       		.byte	0x3e
 10410 3a04 92       		.byte	0x92
 10411 3a05 B73B0000 		.4byte	0x3bb7
 10412 3a09 4404     		.2byte	0x444
 10413 3a0b 2F       		.uleb128 0x2f
 10414 3a0c 686300   		.ascii	"hc\000"
 10415 3a0f 3E       		.byte	0x3e
 10416 3a10 93       		.byte	0x93
 10417 3a11 BC3B0000 		.4byte	0x3bbc
 10418 3a15 0005     		.2byte	0x500
 10419 3a17 13       		.uleb128 0x13
 10420 3a18 CA250000 		.4byte	.LASF794
 10421 3a1c 3E       		.byte	0x3e
 10422 3a1d 94       		.byte	0x94
 10423 3a1e DC3B0000 		.4byte	0x3bdc
 10424 3a22 0007     		.2byte	0x700
 10425 3a24 13       		.uleb128 0x13
 10426 3a25 4E1E0000 		.4byte	.LASF795
 10427 3a29 3E       		.byte	0x3e
 10428 3a2a 95       		.byte	0x95
 10429 3a2b 390B0000 		.4byte	0xb39
 10430 3a2f 0008     		.2byte	0x800
 10431 3a31 13       		.uleb128 0x13
 10432 3a32 16270000 		.4byte	.LASF796
 10433 3a36 3E       		.byte	0x3e
 10434 3a37 96       		.byte	0x96
 10435 3a38 390B0000 		.4byte	0xb39
 10436 3a3c 0408     		.2byte	0x804
 10437 3a3e 13       		.uleb128 0x13
 10438 3a3f 1F060000 		.4byte	.LASF797
 10439 3a43 3E       		.byte	0x3e
 10440 3a44 97       		.byte	0x97
 10441 3a45 390B0000 		.4byte	0xb39
 10442 3a49 0808     		.2byte	0x808
 10443 3a4b 13       		.uleb128 0x13
 10444 3a4c 37050000 		.4byte	.LASF798
 10445 3a50 3E       		.byte	0x3e
 10446 3a51 98       		.byte	0x98
 10447 3a52 390B0000 		.4byte	0xb39
 10448 3a56 0C08     		.2byte	0x80c
 10449 3a58 13       		.uleb128 0x13
 10450 3a59 280D0000 		.4byte	.LASF799
 10451 3a5d 3E       		.byte	0x3e
 10452 3a5e 99       		.byte	0x99
 10453 3a5f 390B0000 		.4byte	0xb39
 10454 3a63 1008     		.2byte	0x810
ARM GAS  /var/folders/qd/4mxf5pkd0zdf0b9dd1hp39180000gn/T//cc0H01tt.s 			page 185


 10455 3a65 13       		.uleb128 0x13
 10456 3a66 F5230000 		.4byte	.LASF800
 10457 3a6a 3E       		.byte	0x3e
 10458 3a6b 9B       		.byte	0x9b
 10459 3a6c 390B0000 		.4byte	0xb39
 10460 3a70 1408     		.2byte	0x814
 10461 3a72 13       		.uleb128 0x13
 10462 3a73 77240000 		.4byte	.LASF801
 10463 3a77 3E       		.byte	0x3e
 10464 3a78 9D       		.byte	0x9d
 10465 3a79 390B0000 		.4byte	0xb39
 10466 3a7d 1808     		.2byte	0x818
 10467 3a7f 13       		.uleb128 0x13
 10468 3a80 72210000 		.4byte	.LASF802
 10469 3a84 3E       		.byte	0x3e
 10470 3a85 9F       		.byte	0x9f
 10471 3a86 390B0000 		.4byte	0xb39
 10472 3a8a 1C08     		.2byte	0x81c
 10473 3a8c 13       		.uleb128 0x13
 10474 3a8d 92060000 		.4byte	.LASF803
 10475 3a91 3E       		.byte	0x3e
 10476 3a92 A1       		.byte	0xa1
 10477 3a93 390B0000 		.4byte	0xb39
 10478 3a97 2008     		.2byte	0x820
 10479 3a99 13       		.uleb128 0x13
 10480 3a9a 96050000 		.4byte	.LASF804
 10481 3a9e 3E       		.byte	0x3e
 10482 3a9f A2       		.byte	0xa2
 10483 3aa0 390B0000 		.4byte	0xb39
 10484 3aa4 2408     		.2byte	0x824
 10485 3aa6 13       		.uleb128 0x13
 10486 3aa7 5B1E0000 		.4byte	.LASF805
 10487 3aab 3E       		.byte	0x3e
 10488 3aac A3       		.byte	0xa3
 10489 3aad 390B0000 		.4byte	0xb39
 10490 3ab1 2808     		.2byte	0x828
 10491 3ab3 13       		.uleb128 0x13
 10492 3ab4 0E100000 		.4byte	.LASF806
 10493 3ab8 3E       		.byte	0x3e
 10494 3ab9 A5       		.byte	0xa5
 10495 3aba 390B0000 		.4byte	0xb39
 10496 3abe 2C08     		.2byte	0x82c
 10497 3ac0 13       		.uleb128 0x13
 10498 3ac1 69070000 		.4byte	.LASF807
 10499 3ac5 3E       		.byte	0x3e
 10500 3ac6 A7       		.byte	0xa7
 10501 3ac7 390B0000 		.4byte	0xb39
 10502 3acb 3008     		.2byte	0x830
 10503 3acd 13       		.uleb128 0x13
 10504 3ace 2E0F0000 		.4byte	.LASF808
 10505 3ad2 3E       		.byte	0x3e
 10506 3ad3 A8       		.byte	0xa8
 10507 3ad4 390B0000 		.4byte	0xb39
 10508 3ad8 3408     		.2byte	0x834
 10509 3ada 13       		.uleb128 0x13
 10510 3adb 77070000 		.4byte	.LASF809
 10511 3adf 3E       		.byte	0x3e
ARM GAS  /var/folders/qd/4mxf5pkd0zdf0b9dd1hp39180000gn/T//cc0H01tt.s 			page 186


 10512 3ae0 AA       		.byte	0xaa
 10513 3ae1 390B0000 		.4byte	0xb39
 10514 3ae5 3808     		.2byte	0x838
 10515 3ae7 13       		.uleb128 0x13
 10516 3ae8 8F070000 		.4byte	.LASF810
 10517 3aec 3E       		.byte	0x3e
 10518 3aed AB       		.byte	0xab
 10519 3aee 390B0000 		.4byte	0xb39
 10520 3af2 3C08     		.2byte	0x83c
 10521 3af4 13       		.uleb128 0x13
 10522 3af5 65080000 		.4byte	.LASF811
 10523 3af9 3E       		.byte	0x3e
 10524 3afa AC       		.byte	0xac
 10525 3afb F13B0000 		.4byte	0x3bf1
 10526 3aff 4008     		.2byte	0x840
 10527 3b01 13       		.uleb128 0x13
 10528 3b02 C50E0000 		.4byte	.LASF812
 10529 3b06 3E       		.byte	0x3e
 10530 3b07 AD       		.byte	0xad
 10531 3b08 F13B0000 		.4byte	0x3bf1
 10532 3b0c 8008     		.2byte	0x880
 10533 3b0e 13       		.uleb128 0x13
 10534 3b0f E5130000 		.4byte	.LASF813
 10535 3b13 3E       		.byte	0x3e
 10536 3b14 AE       		.byte	0xae
 10537 3b15 F13B0000 		.4byte	0x3bf1
 10538 3b19 C008     		.2byte	0x8c0
 10539 3b1b 2F       		.uleb128 0x2f
 10540 3b1c 696500   		.ascii	"ie\000"
 10541 3b1f 3E       		.byte	0x3e
 10542 3b20 AF       		.byte	0xaf
 10543 3b21 F63B0000 		.4byte	0x3bf6
 10544 3b25 0009     		.2byte	0x900
 10545 3b27 2F       		.uleb128 0x2f
 10546 3b28 6F6500   		.ascii	"oe\000"
 10547 3b2b 3E       		.byte	0x3e
 10548 3b2c B0       		.byte	0xb0
 10549 3b2d 063C0000 		.4byte	0x3c06
 10550 3b31 000B     		.2byte	0xb00
 10551 3b33 13       		.uleb128 0x13
 10552 3b34 3A0C0000 		.4byte	.LASF814
 10553 3b38 3E       		.byte	0x3e
 10554 3b39 B1       		.byte	0xb1
 10555 3b3a DC3B0000 		.4byte	0x3bdc
 10556 3b3e 000D     		.2byte	0xd00
 10557 3b40 13       		.uleb128 0x13
 10558 3b41 36270000 		.4byte	.LASF815
 10559 3b45 3E       		.byte	0x3e
 10560 3b46 B2       		.byte	0xb2
 10561 3b47 390B0000 		.4byte	0xb39
 10562 3b4b 000E     		.2byte	0xe00
 10563 3b4d 13       		.uleb128 0x13
 10564 3b4e 061B0000 		.4byte	.LASF816
 10565 3b52 3E       		.byte	0x3e
 10566 3b53 B4       		.byte	0xb4
 10567 3b54 263C0000 		.4byte	0x3c26
 10568 3b58 040E     		.2byte	0xe04
ARM GAS  /var/folders/qd/4mxf5pkd0zdf0b9dd1hp39180000gn/T//cc0H01tt.s 			page 187


 10569 3b5a 13       		.uleb128 0x13
 10570 3b5b 790A0000 		.4byte	.LASF315
 10571 3b5f 3E       		.byte	0x3e
 10572 3b60 B5       		.byte	0xb5
 10573 3b61 423C0000 		.4byte	0x3c42
 10574 3b65 0010     		.2byte	0x1000
 10575 3b67 00       		.byte	0
 10576 3b68 0A       		.uleb128 0xa
 10577 3b69 390B0000 		.4byte	0xb39
 10578 3b6d 783B0000 		.4byte	0x3b78
 10579 3b71 0B       		.uleb128 0xb
 10580 3b72 2C000000 		.4byte	0x2c
 10581 3b76 2F       		.byte	0x2f
 10582 3b77 00       		.byte	0
 10583 3b78 1A       		.uleb128 0x1a
 10584 3b79 683B0000 		.4byte	0x3b68
 10585 3b7d 0A       		.uleb128 0xa
 10586 3b7e 390B0000 		.4byte	0xb39
 10587 3b82 8D3B0000 		.4byte	0x3b8d
 10588 3b86 0B       		.uleb128 0xb
 10589 3b87 2C000000 		.4byte	0x2c
 10590 3b8b AF       		.byte	0xaf
 10591 3b8c 00       		.byte	0
 10592 3b8d 1A       		.uleb128 0x1a
 10593 3b8e 7D3B0000 		.4byte	0x3b7d
 10594 3b92 0A       		.uleb128 0xa
 10595 3b93 390B0000 		.4byte	0xb39
 10596 3b97 A23B0000 		.4byte	0x3ba2
 10597 3b9b 0B       		.uleb128 0xb
 10598 3b9c 2C000000 		.4byte	0x2c
 10599 3ba0 08       		.byte	0x8
 10600 3ba1 00       		.byte	0
 10601 3ba2 1A       		.uleb128 0x1a
 10602 3ba3 923B0000 		.4byte	0x3b92
 10603 3ba7 0A       		.uleb128 0xa
 10604 3ba8 390B0000 		.4byte	0xb39
 10605 3bac B73B0000 		.4byte	0x3bb7
 10606 3bb0 0B       		.uleb128 0xb
 10607 3bb1 2C000000 		.4byte	0x2c
 10608 3bb5 2E       		.byte	0x2e
 10609 3bb6 00       		.byte	0
 10610 3bb7 1A       		.uleb128 0x1a
 10611 3bb8 A73B0000 		.4byte	0x3ba7
 10612 3bbc 0A       		.uleb128 0xa
 10613 3bbd 98370000 		.4byte	0x3798
 10614 3bc1 CC3B0000 		.4byte	0x3bcc
 10615 3bc5 0B       		.uleb128 0xb
 10616 3bc6 2C000000 		.4byte	0x2c
 10617 3bca 0F       		.byte	0xf
 10618 3bcb 00       		.byte	0
 10619 3bcc 0A       		.uleb128 0xa
 10620 3bcd 390B0000 		.4byte	0xb39
 10621 3bd1 DC3B0000 		.4byte	0x3bdc
 10622 3bd5 0B       		.uleb128 0xb
 10623 3bd6 2C000000 		.4byte	0x2c
 10624 3bda 3F       		.byte	0x3f
 10625 3bdb 00       		.byte	0
ARM GAS  /var/folders/qd/4mxf5pkd0zdf0b9dd1hp39180000gn/T//cc0H01tt.s 			page 188


 10626 3bdc 1A       		.uleb128 0x1a
 10627 3bdd CC3B0000 		.4byte	0x3bcc
 10628 3be1 0A       		.uleb128 0xa
 10629 3be2 390B0000 		.4byte	0xb39
 10630 3be6 F13B0000 		.4byte	0x3bf1
 10631 3bea 0B       		.uleb128 0xb
 10632 3beb 2C000000 		.4byte	0x2c
 10633 3bef 0F       		.byte	0xf
 10634 3bf0 00       		.byte	0
 10635 3bf1 1A       		.uleb128 0x1a
 10636 3bf2 E13B0000 		.4byte	0x3be1
 10637 3bf6 0A       		.uleb128 0xa
 10638 3bf7 0C380000 		.4byte	0x380c
 10639 3bfb 063C0000 		.4byte	0x3c06
 10640 3bff 0B       		.uleb128 0xb
 10641 3c00 2C000000 		.4byte	0x2c
 10642 3c04 0F       		.byte	0xf
 10643 3c05 00       		.byte	0
 10644 3c06 0A       		.uleb128 0xa
 10645 3c07 80380000 		.4byte	0x3880
 10646 3c0b 163C0000 		.4byte	0x3c16
 10647 3c0f 0B       		.uleb128 0xb
 10648 3c10 2C000000 		.4byte	0x2c
 10649 3c14 0F       		.byte	0xf
 10650 3c15 00       		.byte	0
 10651 3c16 0A       		.uleb128 0xa
 10652 3c17 390B0000 		.4byte	0xb39
 10653 3c1b 263C0000 		.4byte	0x3c26
 10654 3c1f 0B       		.uleb128 0xb
 10655 3c20 2C000000 		.4byte	0x2c
 10656 3c24 7E       		.byte	0x7e
 10657 3c25 00       		.byte	0
 10658 3c26 1A       		.uleb128 0x1a
 10659 3c27 163C0000 		.4byte	0x3c16
 10660 3c2b 0A       		.uleb128 0xa
 10661 3c2c 390B0000 		.4byte	0xb39
 10662 3c30 423C0000 		.4byte	0x3c42
 10663 3c34 0B       		.uleb128 0xb
 10664 3c35 2C000000 		.4byte	0x2c
 10665 3c39 0F       		.byte	0xf
 10666 3c3a 30       		.uleb128 0x30
 10667 3c3b 2C000000 		.4byte	0x2c
 10668 3c3f FF03     		.2byte	0x3ff
 10669 3c41 00       		.byte	0
 10670 3c42 1A       		.uleb128 0x1a
 10671 3c43 2B3C0000 		.4byte	0x3c2b
 10672 3c47 04       		.uleb128 0x4
 10673 3c48 61290000 		.4byte	.LASF817
 10674 3c4c 3E       		.byte	0x3e
 10675 3c4d B6       		.byte	0xb6
 10676 3c4e 8B380000 		.4byte	0x388b
 10677 3c52 0C       		.uleb128 0xc
 10678 3c53 0C       		.byte	0xc
 10679 3c54 3D       		.byte	0x3d
 10680 3c55 C6       		.byte	0xc6
 10681 3c56 7F3C0000 		.4byte	0x3c7f
 10682 3c5a 0D       		.uleb128 0xd
ARM GAS  /var/folders/qd/4mxf5pkd0zdf0b9dd1hp39180000gn/T//cc0H01tt.s 			page 189


 10683 3c5b F6090000 		.4byte	.LASF818
 10684 3c5f 3D       		.byte	0x3d
 10685 3c60 C7       		.byte	0xc7
 10686 3c61 2E0B0000 		.4byte	0xb2e
 10687 3c65 00       		.byte	0
 10688 3c66 0D       		.uleb128 0xd
 10689 3c67 1A0C0000 		.4byte	.LASF819
 10690 3c6b 3D       		.byte	0x3d
 10691 3c6c C8       		.byte	0xc8
 10692 3c6d 2E0B0000 		.4byte	0xb2e
 10693 3c71 04       		.byte	0x4
 10694 3c72 0D       		.uleb128 0xd
 10695 3c73 68100000 		.4byte	.LASF820
 10696 3c77 3D       		.byte	0x3d
 10697 3c78 C9       		.byte	0xc9
 10698 3c79 2E0B0000 		.4byte	0xb2e
 10699 3c7d 08       		.byte	0x8
 10700 3c7e 00       		.byte	0
 10701 3c7f 04       		.uleb128 0x4
 10702 3c80 270C0000 		.4byte	.LASF821
 10703 3c84 3D       		.byte	0x3d
 10704 3c85 CA       		.byte	0xca
 10705 3c86 523C0000 		.4byte	0x3c52
 10706 3c8a 0F       		.uleb128 0xf
 10707 3c8b 7F3C0000 		.4byte	0x3c7f
 10708 3c8f 0C       		.uleb128 0xc
 10709 3c90 04       		.byte	0x4
 10710 3c91 3D       		.byte	0x3d
 10711 3c92 DD       		.byte	0xdd
 10712 3c93 A43C0000 		.4byte	0x3ca4
 10713 3c97 0D       		.uleb128 0xd
 10714 3c98 30270000 		.4byte	.LASF822
 10715 3c9c 3D       		.byte	0x3d
 10716 3c9d E1       		.byte	0xe1
 10717 3c9e 501D0000 		.4byte	0x1d50
 10718 3ca2 00       		.byte	0
 10719 3ca3 00       		.byte	0
 10720 3ca4 0C       		.uleb128 0xc
 10721 3ca5 04       		.byte	0x4
 10722 3ca6 3D       		.byte	0x3d
 10723 3ca7 E3       		.byte	0xe3
 10724 3ca8 B93C0000 		.4byte	0x3cb9
 10725 3cac 0D       		.uleb128 0xd
 10726 3cad 880A0000 		.4byte	.LASF508
 10727 3cb1 3D       		.byte	0x3d
 10728 3cb2 E7       		.byte	0xe7
 10729 3cb3 B93C0000 		.4byte	0x3cb9
 10730 3cb7 00       		.byte	0
 10731 3cb8 00       		.byte	0
 10732 3cb9 05       		.uleb128 0x5
 10733 3cba 04       		.byte	0x4
 10734 3cbb 2C1D0000 		.4byte	0x1d2c
 10735 3cbf 08       		.uleb128 0x8
 10736 3cc0 04       		.byte	0x4
 10737 3cc1 3D       		.byte	0x3d
 10738 3cc2 DC       		.byte	0xdc
 10739 3cc3 DE3C0000 		.4byte	0x3cde
ARM GAS  /var/folders/qd/4mxf5pkd0zdf0b9dd1hp39180000gn/T//cc0H01tt.s 			page 190


 10740 3cc7 09       		.uleb128 0x9
 10741 3cc8 F2220000 		.4byte	.LASF823
 10742 3ccc 3D       		.byte	0x3d
 10743 3ccd E2       		.byte	0xe2
 10744 3cce 8F3C0000 		.4byte	0x3c8f
 10745 3cd2 09       		.uleb128 0x9
 10746 3cd3 D1210000 		.4byte	.LASF824
 10747 3cd7 3D       		.byte	0x3d
 10748 3cd8 E8       		.byte	0xe8
 10749 3cd9 A43C0000 		.4byte	0x3ca4
 10750 3cdd 00       		.byte	0
 10751 3cde 0C       		.uleb128 0xc
 10752 3cdf 14       		.byte	0x14
 10753 3ce0 3D       		.byte	0x3d
 10754 3ce1 CF       		.byte	0xcf
 10755 3ce2 233D0000 		.4byte	0x3d23
 10756 3ce6 0D       		.uleb128 0xd
 10757 3ce7 A2080000 		.4byte	.LASF825
 10758 3ceb 3D       		.byte	0x3d
 10759 3cec D3       		.byte	0xd3
 10760 3ced B00A0000 		.4byte	0xab0
 10761 3cf1 00       		.byte	0
 10762 3cf2 0D       		.uleb128 0xd
 10763 3cf3 89150000 		.4byte	.LASF826
 10764 3cf7 3D       		.byte	0x3d
 10765 3cf8 D7       		.byte	0xd7
 10766 3cf9 48000000 		.4byte	0x48
 10767 3cfd 04       		.byte	0x4
 10768 3cfe 0D       		.uleb128 0xd
 10769 3cff E10B0000 		.4byte	.LASF827
 10770 3d03 3D       		.byte	0x3d
 10771 3d04 DB       		.byte	0xdb
 10772 3d05 48000000 		.4byte	0x48
 10773 3d09 08       		.byte	0x8
 10774 3d0a 0D       		.uleb128 0xd
 10775 3d0b 61090000 		.4byte	.LASF554
 10776 3d0f 3D       		.byte	0x3d
 10777 3d10 E9       		.byte	0xe9
 10778 3d11 BF3C0000 		.4byte	0x3cbf
 10779 3d15 0C       		.byte	0xc
 10780 3d16 0D       		.uleb128 0xd
 10781 3d17 80100000 		.4byte	.LASF828
 10782 3d1b 3D       		.byte	0x3d
 10783 3d1c ED       		.byte	0xed
 10784 3d1d 48000000 		.4byte	0x48
 10785 3d21 10       		.byte	0x10
 10786 3d22 00       		.byte	0
 10787 3d23 04       		.uleb128 0x4
 10788 3d24 CA120000 		.4byte	.LASF829
 10789 3d28 3D       		.byte	0x3d
 10790 3d29 EE       		.byte	0xee
 10791 3d2a DE3C0000 		.4byte	0x3cde
 10792 3d2e 1C       		.uleb128 0x1c
 10793 3d2f 04       		.byte	0x4
 10794 3d30 3D       		.byte	0x3d
 10795 3d31 0101     		.2byte	0x101
 10796 3d33 453D0000 		.4byte	0x3d45
ARM GAS  /var/folders/qd/4mxf5pkd0zdf0b9dd1hp39180000gn/T//cc0H01tt.s 			page 191


 10797 3d37 18       		.uleb128 0x18
 10798 3d38 4A0C0000 		.4byte	.LASF830
 10799 3d3c 3D       		.byte	0x3d
 10800 3d3d 0501     		.2byte	0x105
 10801 3d3f 1B1D0000 		.4byte	0x1d1b
 10802 3d43 00       		.byte	0
 10803 3d44 00       		.byte	0
 10804 3d45 1C       		.uleb128 0x1c
 10805 3d46 04       		.byte	0x4
 10806 3d47 3D       		.byte	0x3d
 10807 3d48 0701     		.2byte	0x107
 10808 3d4a 5C3D0000 		.4byte	0x3d5c
 10809 3d4e 18       		.uleb128 0x18
 10810 3d4f AD220000 		.4byte	.LASF509
 10811 3d53 3D       		.byte	0x3d
 10812 3d54 0B01     		.2byte	0x10b
 10813 3d56 5C3D0000 		.4byte	0x3d5c
 10814 3d5a 00       		.byte	0
 10815 3d5b 00       		.byte	0
 10816 3d5c 05       		.uleb128 0x5
 10817 3d5d 04       		.byte	0x4
 10818 3d5e 211D0000 		.4byte	0x1d21
 10819 3d62 1D       		.uleb128 0x1d
 10820 3d63 04       		.byte	0x4
 10821 3d64 3D       		.byte	0x3d
 10822 3d65 0001     		.2byte	0x100
 10823 3d67 843D0000 		.4byte	0x3d84
 10824 3d6b 1E       		.uleb128 0x1e
 10825 3d6c F2220000 		.4byte	.LASF823
 10826 3d70 3D       		.byte	0x3d
 10827 3d71 0601     		.2byte	0x106
 10828 3d73 2E3D0000 		.4byte	0x3d2e
 10829 3d77 1E       		.uleb128 0x1e
 10830 3d78 D1210000 		.4byte	.LASF824
 10831 3d7c 3D       		.byte	0x3d
 10832 3d7d 0C01     		.2byte	0x10c
 10833 3d7f 453D0000 		.4byte	0x3d45
 10834 3d83 00       		.byte	0
 10835 3d84 0C       		.uleb128 0xc
 10836 3d85 14       		.byte	0x14
 10837 3d86 3D       		.byte	0x3d
 10838 3d87 F3       		.byte	0xf3
 10839 3d88 CB3D0000 		.4byte	0x3dcb
 10840 3d8c 0D       		.uleb128 0xd
 10841 3d8d 5D060000 		.4byte	.LASF831
 10842 3d91 3D       		.byte	0x3d
 10843 3d92 F7       		.byte	0xf7
 10844 3d93 B00A0000 		.4byte	0xab0
 10845 3d97 00       		.byte	0
 10846 3d98 0D       		.uleb128 0xd
 10847 3d99 AD160000 		.4byte	.LASF832
 10848 3d9d 3D       		.byte	0x3d
 10849 3d9e FB       		.byte	0xfb
 10850 3d9f 48000000 		.4byte	0x48
 10851 3da3 04       		.byte	0x4
 10852 3da4 0D       		.uleb128 0xd
 10853 3da5 3C090000 		.4byte	.LASF833
ARM GAS  /var/folders/qd/4mxf5pkd0zdf0b9dd1hp39180000gn/T//cc0H01tt.s 			page 192


 10854 3da9 3D       		.byte	0x3d
 10855 3daa FF       		.byte	0xff
 10856 3dab 48000000 		.4byte	0x48
 10857 3daf 08       		.byte	0x8
 10858 3db0 18       		.uleb128 0x18
 10859 3db1 61090000 		.4byte	.LASF554
 10860 3db5 3D       		.byte	0x3d
 10861 3db6 0D01     		.2byte	0x10d
 10862 3db8 623D0000 		.4byte	0x3d62
 10863 3dbc 0C       		.byte	0xc
 10864 3dbd 18       		.uleb128 0x18
 10865 3dbe 80100000 		.4byte	.LASF828
 10866 3dc2 3D       		.byte	0x3d
 10867 3dc3 1101     		.2byte	0x111
 10868 3dc5 48000000 		.4byte	0x48
 10869 3dc9 10       		.byte	0x10
 10870 3dca 00       		.byte	0
 10871 3dcb 07       		.uleb128 0x7
 10872 3dcc E1200000 		.4byte	.LASF834
 10873 3dd0 3D       		.byte	0x3d
 10874 3dd1 1201     		.2byte	0x112
 10875 3dd3 843D0000 		.4byte	0x3d84
 10876 3dd7 1C       		.uleb128 0x1c
 10877 3dd8 24       		.byte	0x24
 10878 3dd9 3D       		.byte	0x3d
 10879 3dda 1801     		.2byte	0x118
 10880 3ddc 633E0000 		.4byte	0x3e63
 10881 3de0 18       		.uleb128 0x18
 10882 3de1 C71A0000 		.4byte	.LASF835
 10883 3de5 3D       		.byte	0x3d
 10884 3de6 1C01     		.2byte	0x11c
 10885 3de8 2E0B0000 		.4byte	0xb2e
 10886 3dec 00       		.byte	0
 10887 3ded 18       		.uleb128 0x18
 10888 3dee 5A0A0000 		.4byte	.LASF836
 10889 3df2 3D       		.byte	0x3d
 10890 3df3 2701     		.2byte	0x127
 10891 3df5 94360000 		.4byte	0x3694
 10892 3df9 04       		.byte	0x4
 10893 3dfa 18       		.uleb128 0x18
 10894 3dfb DB1B0000 		.4byte	.LASF837
 10895 3dff 3D       		.byte	0x3d
 10896 3e00 2D01     		.2byte	0x12d
 10897 3e02 94360000 		.4byte	0x3694
 10898 3e06 08       		.byte	0x8
 10899 3e07 18       		.uleb128 0x18
 10900 3e08 380D0000 		.4byte	.LASF838
 10901 3e0c 3D       		.byte	0x3d
 10902 3e0d 3301     		.2byte	0x133
 10903 3e0f 94360000 		.4byte	0x3694
 10904 3e13 0C       		.byte	0xc
 10905 3e14 18       		.uleb128 0x18
 10906 3e15 A5290000 		.4byte	.LASF839
 10907 3e19 3D       		.byte	0x3d
 10908 3e1a 3901     		.2byte	0x139
 10909 3e1c 130B0000 		.4byte	0xb13
 10910 3e20 10       		.byte	0x10
ARM GAS  /var/folders/qd/4mxf5pkd0zdf0b9dd1hp39180000gn/T//cc0H01tt.s 			page 193


 10911 3e21 18       		.uleb128 0x18
 10912 3e22 940D0000 		.4byte	.LASF840
 10913 3e26 3D       		.byte	0x3d
 10914 3e27 3F01     		.2byte	0x13f
 10915 3e29 130B0000 		.4byte	0xb13
 10916 3e2d 12       		.byte	0x12
 10917 3e2e 18       		.uleb128 0x18
 10918 3e2f 43280000 		.4byte	.LASF841
 10919 3e33 3D       		.byte	0x3d
 10920 3e34 4401     		.2byte	0x144
 10921 3e36 633E0000 		.4byte	0x3e63
 10922 3e3a 14       		.byte	0x14
 10923 3e3b 18       		.uleb128 0x18
 10924 3e3c 770F0000 		.4byte	.LASF842
 10925 3e40 3D       		.byte	0x3d
 10926 3e41 4901     		.2byte	0x149
 10927 3e43 693E0000 		.4byte	0x3e69
 10928 3e47 18       		.byte	0x18
 10929 3e48 18       		.uleb128 0x18
 10930 3e49 92140000 		.4byte	.LASF843
 10931 3e4d 3D       		.byte	0x3d
 10932 3e4e 5001     		.2byte	0x150
 10933 3e50 130B0000 		.4byte	0xb13
 10934 3e54 1C       		.byte	0x1c
 10935 3e55 18       		.uleb128 0x18
 10936 3e56 88270000 		.4byte	.LASF844
 10937 3e5a 3D       		.byte	0x3d
 10938 3e5b 5601     		.2byte	0x156
 10939 3e5d 1B1D0000 		.4byte	0x1d1b
 10940 3e61 20       		.byte	0x20
 10941 3e62 00       		.byte	0
 10942 3e63 05       		.uleb128 0x5
 10943 3e64 04       		.byte	0x4
 10944 3e65 233D0000 		.4byte	0x3d23
 10945 3e69 05       		.uleb128 0x5
 10946 3e6a 04       		.byte	0x4
 10947 3e6b CB3D0000 		.4byte	0x3dcb
 10948 3e6f 07       		.uleb128 0x7
 10949 3e70 7D220000 		.4byte	.LASF845
 10950 3e74 3D       		.byte	0x3d
 10951 3e75 5701     		.2byte	0x157
 10952 3e77 D73D0000 		.4byte	0x3dd7
 10953 3e7b 0F       		.uleb128 0xf
 10954 3e7c 6F3E0000 		.4byte	0x3e6f
 10955 3e80 1C       		.uleb128 0x1c
 10956 3e81 10       		.byte	0x10
 10957 3e82 3D       		.byte	0x3d
 10958 3e83 5C01     		.2byte	0x15c
 10959 3e85 BE3E0000 		.4byte	0x3ebe
 10960 3e89 18       		.uleb128 0x18
 10961 3e8a 40050000 		.4byte	.LASF846
 10962 3e8e 3D       		.byte	0x3d
 10963 3e8f 6101     		.2byte	0x161
 10964 3e91 B6360000 		.4byte	0x36b6
 10965 3e95 00       		.byte	0
 10966 3e96 18       		.uleb128 0x18
 10967 3e97 9F260000 		.4byte	.LASF847
ARM GAS  /var/folders/qd/4mxf5pkd0zdf0b9dd1hp39180000gn/T//cc0H01tt.s 			page 194


 10968 3e9b 3D       		.byte	0x3d
 10969 3e9c 6601     		.2byte	0x166
 10970 3e9e F9360000 		.4byte	0x36f9
 10971 3ea2 04       		.byte	0x4
 10972 3ea3 18       		.uleb128 0x18
 10973 3ea4 48150000 		.4byte	.LASF848
 10974 3ea8 3D       		.byte	0x3d
 10975 3ea9 6C01     		.2byte	0x16c
 10976 3eab D8360000 		.4byte	0x36d8
 10977 3eaf 08       		.byte	0x8
 10978 3eb0 18       		.uleb128 0x18
 10979 3eb1 4A020000 		.4byte	.LASF849
 10980 3eb5 3D       		.byte	0x3d
 10981 3eb6 7001     		.2byte	0x170
 10982 3eb8 71360000 		.4byte	0x3671
 10983 3ebc 0C       		.byte	0xc
 10984 3ebd 00       		.byte	0
 10985 3ebe 07       		.uleb128 0x7
 10986 3ebf EE130000 		.4byte	.LASF850
 10987 3ec3 3D       		.byte	0x3d
 10988 3ec4 7201     		.2byte	0x172
 10989 3ec6 803E0000 		.4byte	0x3e80
 10990 3eca 0F       		.uleb128 0xf
 10991 3ecb BE3E0000 		.4byte	0x3ebe
 10992 3ecf 05       		.uleb128 0x5
 10993 3ed0 04       		.byte	0x4
 10994 3ed1 CA3E0000 		.4byte	0x3eca
 10995 3ed5 0A       		.uleb128 0xa
 10996 3ed6 E53E0000 		.4byte	0x3ee5
 10997 3eda E53E0000 		.4byte	0x3ee5
 10998 3ede 0B       		.uleb128 0xb
 10999 3edf 2C000000 		.4byte	0x2c
 11000 3ee3 03       		.byte	0x3
 11001 3ee4 00       		.byte	0
 11002 3ee5 05       		.uleb128 0x5
 11003 3ee6 04       		.byte	0x4
 11004 3ee7 7B3E0000 		.4byte	0x3e7b
 11005 3eeb 0A       		.uleb128 0xa
 11006 3eec 6B010000 		.4byte	0x16b
 11007 3ef0 FB3E0000 		.4byte	0x3efb
 11008 3ef4 0B       		.uleb128 0xb
 11009 3ef5 2C000000 		.4byte	0x2c
 11010 3ef9 02       		.byte	0x2
 11011 3efa 00       		.byte	0
 11012 3efb 05       		.uleb128 0x5
 11013 3efc 04       		.byte	0x4
 11014 3efd 473C0000 		.4byte	0x3c47
 11015 3f01 05       		.uleb128 0x5
 11016 3f02 04       		.byte	0x4
 11017 3f03 8A3C0000 		.4byte	0x3c8a
 11018 3f07 0A       		.uleb128 0xa
 11019 3f08 13170000 		.4byte	0x1713
 11020 3f0c 173F0000 		.4byte	0x3f17
 11021 3f10 0B       		.uleb128 0xb
 11022 3f11 2C000000 		.4byte	0x2c
 11023 3f15 3E       		.byte	0x3e
 11024 3f16 00       		.byte	0
ARM GAS  /var/folders/qd/4mxf5pkd0zdf0b9dd1hp39180000gn/T//cc0H01tt.s 			page 195


 11025 3f17 20       		.uleb128 0x20
 11026 3f18 68180000 		.4byte	.LASF851
 11027 3f1c 3D       		.byte	0x3d
 11028 3f1d 0602     		.2byte	0x206
 11029 3f1f 3D340000 		.4byte	0x343d
 11030 3f23 31       		.uleb128 0x31
 11031 3f24 3F010000 		.4byte	.LASF852
 11032 3f28 01       		.byte	0x1
 11033 3f29 23       		.byte	0x23
 11034 3f2a 160D0000 		.4byte	0xd16
 11035 3f2e 31       		.uleb128 0x31
 11036 3f2f 87230000 		.4byte	.LASF853
 11037 3f33 01       		.byte	0x1
 11038 3f34 24       		.byte	0x24
 11039 3f35 160D0000 		.4byte	0xd16
 11040 3f39 32       		.uleb128 0x32
 11041 3f3a 1B220000 		.4byte	.LASF858
 11042 3f3e 01       		.byte	0x1
 11043 3f3f 25       		.byte	0x25
 11044 3f40 160D0000 		.4byte	0xd16
 11045 3f44 05       		.uleb128 0x5
 11046 3f45 03       		.byte	0x3
 11047 3f46 00000000 		.4byte	motorsControlThread
 11048 3f4a 33       		.uleb128 0x33
 11049 3f4b 94290000 		.4byte	.LASF854
 11050 3f4f 01       		.byte	0x1
 11051 3f50 27       		.byte	0x27
 11052 3f51 E71B0000 		.4byte	0x1be7
 11053 3f55 05       		.uleb128 0x5
 11054 3f56 03       		.byte	0x3
 11055 3f57 00000000 		.4byte	wipEndSignal_sem
 11056 3f5b 33       		.uleb128 0x33
 11057 3f5c 3A1A0000 		.4byte	.LASF855
 11058 3f60 01       		.byte	0x1
 11059 3f61 28       		.byte	0x28
 11060 3f62 E71B0000 		.4byte	0x1be7
 11061 3f66 05       		.uleb128 0x5
 11062 3f67 03       		.byte	0x3
 11063 3f68 00000000 		.4byte	wipEndMovingSignal_sem
 11064 3f6c 33       		.uleb128 0x33
 11065 3f6d 1F210000 		.4byte	.LASF856
 11066 3f71 01       		.byte	0x1
 11067 3f72 29       		.byte	0x29
 11068 3f73 E71B0000 		.4byte	0x1be7
 11069 3f77 05       		.uleb128 0x5
 11070 3f78 03       		.byte	0x3
 11071 3f79 00000000 		.4byte	isMessage
 11072 3f7d 33       		.uleb128 0x33
 11073 3f7e 39280000 		.4byte	.LASF857
 11074 3f82 01       		.byte	0x1
 11075 3f83 60       		.byte	0x60
 11076 3f84 4C090000 		.4byte	0x94c
 11077 3f88 05       		.uleb128 0x5
 11078 3f89 03       		.byte	0x3
 11079 3f8a 00000000 		.4byte	lastOrder
 11080 3f8e 0A       		.uleb128 0xa
 11081 3f8f 13170000 		.4byte	0x1713
ARM GAS  /var/folders/qd/4mxf5pkd0zdf0b9dd1hp39180000gn/T//cc0H01tt.s 			page 196


 11082 3f93 9E3F0000 		.4byte	0x3f9e
 11083 3f97 0B       		.uleb128 0xb
 11084 3f98 2C000000 		.4byte	0x2c
 11085 3f9c AE       		.byte	0xae
 11086 3f9d 00       		.byte	0
 11087 3f9e 32       		.uleb128 0x32
 11088 3f9f D4070000 		.4byte	.LASF859
 11089 3fa3 01       		.byte	0x1
 11090 3fa4 71       		.byte	0x71
 11091 3fa5 8E3F0000 		.4byte	0x3f8e
 11092 3fa9 05       		.uleb128 0x5
 11093 3faa 03       		.byte	0x3
 11094 3fab 00000000 		.4byte	changeMotorsStateAsync_wa
 11095 3faf 33       		.uleb128 0x33
 11096 3fb0 00000000 		.4byte	.LASF860
 11097 3fb4 01       		.byte	0x1
 11098 3fb5 E6       		.byte	0xe6
 11099 3fb6 C70A0000 		.4byte	0xac7
 11100 3fba 05       		.uleb128 0x5
 11101 3fbb 03       		.byte	0x3
 11102 3fbc 00000000 		.4byte	environmentObstacles
 11103 3fc0 32       		.uleb128 0x32
 11104 3fc1 D80D0000 		.4byte	.LASF861
 11105 3fc5 01       		.byte	0x1
 11106 3fc6 FE       		.byte	0xfe
 11107 3fc7 8E3F0000 		.4byte	0x3f8e
 11108 3fcb 05       		.uleb128 0x5
 11109 3fcc 03       		.byte	0x3
 11110 3fcd 00000000 		.4byte	discover_wa
 11111 3fd1 34       		.uleb128 0x34
 11112 3fd2 66230000 		.4byte	.LASF862
 11113 3fd6 01       		.byte	0x1
 11114 3fd7 1101     		.2byte	0x111
 11115 3fd9 8E3F0000 		.4byte	0x3f8e
 11116 3fdd 05       		.uleb128 0x5
 11117 3fde 03       		.byte	0x3
 11118 3fdf 00000000 		.4byte	exploration_wa
 11119 3fe3 35       		.uleb128 0x35
 11120 3fe4 061C0000 		.4byte	.LASF863
 11121 3fe8 01       		.byte	0x1
 11122 3fe9 7701     		.2byte	0x177
 11123 3feb 00000000 		.4byte	.LFB284
 11124 3fef 2C000000 		.4byte	.LFE284-.LFB284
 11125 3ff3 01       		.uleb128 0x1
 11126 3ff4 9C       		.byte	0x9c
 11127 3ff5 37400000 		.4byte	0x4037
 11128 3ff9 36       		.uleb128 0x36
 11129 3ffa 7C540000 		.4byte	0x547c
 11130 3ffe 0A000000 		.4byte	.LBB542
 11131 4002 90030000 		.4byte	.Ldebug_ranges0+0x390
 11132 4006 01       		.byte	0x1
 11133 4007 7801     		.2byte	0x178
 11134 4009 37       		.uleb128 0x37
 11135 400a 8C540000 		.4byte	0x548c
 11136 400e 06       		.uleb128 0x6
 11137 400f 03       		.byte	0x3
 11138 4010 00000000 		.4byte	wipEndSignal_sem
ARM GAS  /var/folders/qd/4mxf5pkd0zdf0b9dd1hp39180000gn/T//cc0H01tt.s 			page 197


 11139 4014 9F       		.byte	0x9f
 11140 4015 38       		.uleb128 0x38
 11141 4016 1E000000 		.4byte	.LVL269
 11142 401a FF580000 		.4byte	0x58ff
 11143 401e 2C400000 		.4byte	0x402c
 11144 4022 39       		.uleb128 0x39
 11145 4023 01       		.uleb128 0x1
 11146 4024 50       		.byte	0x50
 11147 4025 05       		.uleb128 0x5
 11148 4026 03       		.byte	0x3
 11149 4027 00000000 		.4byte	.LANCHOR5
 11150 402b 00       		.byte	0
 11151 402c 3A       		.uleb128 0x3a
 11152 402d 22000000 		.4byte	.LVL270
 11153 4031 0A590000 		.4byte	0x590a
 11154 4035 00       		.byte	0
 11155 4036 00       		.byte	0
 11156 4037 35       		.uleb128 0x35
 11157 4038 AA140000 		.4byte	.LASF864
 11158 403c 01       		.byte	0x1
 11159 403d 7301     		.2byte	0x173
 11160 403f 00000000 		.4byte	.LFB283
 11161 4043 28000000 		.4byte	.LFE283-.LFB283
 11162 4047 01       		.uleb128 0x1
 11163 4048 9C       		.byte	0x9c
 11164 4049 6A400000 		.4byte	0x406a
 11165 404d 38       		.uleb128 0x38
 11166 404e 1E000000 		.4byte	.LVL266
 11167 4052 13590000 		.4byte	0x5913
 11168 4056 60400000 		.4byte	0x4060
 11169 405a 39       		.uleb128 0x39
 11170 405b 01       		.uleb128 0x1
 11171 405c 50       		.byte	0x50
 11172 405d 01       		.uleb128 0x1
 11173 405e 30       		.byte	0x30
 11174 405f 00       		.byte	0
 11175 4060 3A       		.uleb128 0x3a
 11176 4061 22000000 		.4byte	.LVL267
 11177 4065 0A590000 		.4byte	0x590a
 11178 4069 00       		.byte	0
 11179 406a 35       		.uleb128 0x35
 11180 406b 500E0000 		.4byte	.LASF865
 11181 406f 01       		.byte	0x1
 11182 4070 6F01     		.2byte	0x16f
 11183 4072 00000000 		.4byte	.LFB282
 11184 4076 38000000 		.4byte	.LFE282-.LFB282
 11185 407a 01       		.uleb128 0x1
 11186 407b 9C       		.byte	0x9c
 11187 407c BD400000 		.4byte	0x40bd
 11188 4080 3B       		.uleb128 0x3b
 11189 4081 1C000000 		.4byte	.LVL264
 11190 4085 1E590000 		.4byte	0x591e
 11191 4089 B3400000 		.4byte	0x40b3
 11192 408d 39       		.uleb128 0x39
 11193 408e 01       		.uleb128 0x1
 11194 408f 50       		.byte	0x50
 11195 4090 05       		.uleb128 0x5
ARM GAS  /var/folders/qd/4mxf5pkd0zdf0b9dd1hp39180000gn/T//cc0H01tt.s 			page 198


 11196 4091 03       		.byte	0x3
 11197 4092 00000000 		.4byte	.LANCHOR10
 11198 4096 39       		.uleb128 0x39
 11199 4097 01       		.uleb128 0x1
 11200 4098 51       		.byte	0x51
 11201 4099 03       		.uleb128 0x3
 11202 409a 0A       		.byte	0xa
 11203 409b 7805     		.2byte	0x578
 11204 409d 39       		.uleb128 0x39
 11205 409e 01       		.uleb128 0x1
 11206 409f 52       		.byte	0x52
 11207 40a0 02       		.uleb128 0x2
 11208 40a1 08       		.byte	0x8
 11209 40a2 42       		.byte	0x42
 11210 40a3 39       		.uleb128 0x39
 11211 40a4 01       		.uleb128 0x1
 11212 40a5 53       		.byte	0x53
 11213 40a6 05       		.uleb128 0x5
 11214 40a7 03       		.byte	0x3
 11215 40a8 00000000 		.4byte	exploration
 11216 40ac 39       		.uleb128 0x39
 11217 40ad 02       		.uleb128 0x2
 11218 40ae 7D       		.byte	0x7d
 11219 40af 00       		.sleb128 0
 11220 40b0 01       		.uleb128 0x1
 11221 40b1 30       		.byte	0x30
 11222 40b2 00       		.byte	0
 11223 40b3 3A       		.uleb128 0x3a
 11224 40b4 2C000000 		.4byte	.LVL265
 11225 40b8 0A590000 		.4byte	0x590a
 11226 40bc 00       		.byte	0
 11227 40bd 35       		.uleb128 0x35
 11228 40be A5180000 		.4byte	.LASF866
 11229 40c2 01       		.byte	0x1
 11230 40c3 6A01     		.2byte	0x16a
 11231 40c5 00000000 		.4byte	.LFB281
 11232 40c9 38000000 		.4byte	.LFE281-.LFB281
 11233 40cd 01       		.uleb128 0x1
 11234 40ce 9C       		.byte	0x9c
 11235 40cf 10410000 		.4byte	0x4110
 11236 40d3 3B       		.uleb128 0x3b
 11237 40d4 1C000000 		.4byte	.LVL262
 11238 40d8 1E590000 		.4byte	0x591e
 11239 40dc 06410000 		.4byte	0x4106
 11240 40e0 39       		.uleb128 0x39
 11241 40e1 01       		.uleb128 0x1
 11242 40e2 50       		.byte	0x50
 11243 40e3 05       		.uleb128 0x5
 11244 40e4 03       		.byte	0x3
 11245 40e5 00000000 		.4byte	.LANCHOR9
 11246 40e9 39       		.uleb128 0x39
 11247 40ea 01       		.uleb128 0x1
 11248 40eb 51       		.byte	0x51
 11249 40ec 03       		.uleb128 0x3
 11250 40ed 0A       		.byte	0xa
 11251 40ee 7805     		.2byte	0x578
 11252 40f0 39       		.uleb128 0x39
ARM GAS  /var/folders/qd/4mxf5pkd0zdf0b9dd1hp39180000gn/T//cc0H01tt.s 			page 199


 11253 40f1 01       		.uleb128 0x1
 11254 40f2 52       		.byte	0x52
 11255 40f3 02       		.uleb128 0x2
 11256 40f4 08       		.byte	0x8
 11257 40f5 49       		.byte	0x49
 11258 40f6 39       		.uleb128 0x39
 11259 40f7 01       		.uleb128 0x1
 11260 40f8 53       		.byte	0x53
 11261 40f9 05       		.uleb128 0x5
 11262 40fa 03       		.byte	0x3
 11263 40fb 00000000 		.4byte	discover
 11264 40ff 39       		.uleb128 0x39
 11265 4100 02       		.uleb128 0x2
 11266 4101 7D       		.byte	0x7d
 11267 4102 00       		.sleb128 0
 11268 4103 01       		.uleb128 0x1
 11269 4104 30       		.byte	0x30
 11270 4105 00       		.byte	0
 11271 4106 3A       		.uleb128 0x3a
 11272 4107 2C000000 		.4byte	.LVL263
 11273 410b 0A590000 		.4byte	0x590a
 11274 410f 00       		.byte	0
 11275 4110 35       		.uleb128 0x35
 11276 4111 0F1B0000 		.4byte	.LASF867
 11277 4115 01       		.byte	0x1
 11278 4116 2F01     		.2byte	0x12f
 11279 4118 00000000 		.4byte	.LFB280
 11280 411c 24000000 		.4byte	.LFE280-.LFB280
 11281 4120 01       		.uleb128 0x1
 11282 4121 9C       		.byte	0x9c
 11283 4122 39410000 		.4byte	0x4139
 11284 4126 3C       		.uleb128 0x3c
 11285 4127 1C000000 		.4byte	.LVL260
 11286 412b 29590000 		.4byte	0x5929
 11287 412f 3A       		.uleb128 0x3a
 11288 4130 20000000 		.4byte	.LVL261
 11289 4134 0A590000 		.4byte	0x590a
 11290 4138 00       		.byte	0
 11291 4139 35       		.uleb128 0x35
 11292 413a 38120000 		.4byte	.LASF868
 11293 413e 01       		.byte	0x1
 11294 413f 2301     		.2byte	0x123
 11295 4141 00000000 		.4byte	.LFB279
 11296 4145 50000000 		.4byte	.LFE279-.LFB279
 11297 4149 01       		.uleb128 0x1
 11298 414a 9C       		.byte	0x9c
 11299 414b B0410000 		.4byte	0x41b0
 11300 414f 3A       		.uleb128 0x3a
 11301 4150 0E000000 		.4byte	.LVL254
 11302 4154 34590000 		.4byte	0x5934
 11303 4158 3A       		.uleb128 0x3a
 11304 4159 12000000 		.4byte	.LVL255
 11305 415d 3F590000 		.4byte	0x593f
 11306 4161 3A       		.uleb128 0x3a
 11307 4162 16000000 		.4byte	.LVL256
 11308 4166 4A590000 		.4byte	0x594a
 11309 416a 3A       		.uleb128 0x3a
ARM GAS  /var/folders/qd/4mxf5pkd0zdf0b9dd1hp39180000gn/T//cc0H01tt.s 			page 200


 11310 416b 1A000000 		.4byte	.LVL257
 11311 416f 55590000 		.4byte	0x5955
 11312 4173 3B       		.uleb128 0x3b
 11313 4174 2C000000 		.4byte	.LVL258
 11314 4178 1E590000 		.4byte	0x591e
 11315 417c A6410000 		.4byte	0x41a6
 11316 4180 39       		.uleb128 0x39
 11317 4181 01       		.uleb128 0x1
 11318 4182 50       		.byte	0x50
 11319 4183 05       		.uleb128 0x5
 11320 4184 03       		.byte	0x3
 11321 4185 00000000 		.4byte	.LANCHOR8
 11322 4189 39       		.uleb128 0x39
 11323 418a 01       		.uleb128 0x1
 11324 418b 51       		.byte	0x51
 11325 418c 03       		.uleb128 0x3
 11326 418d 0A       		.byte	0xa
 11327 418e 7805     		.2byte	0x578
 11328 4190 39       		.uleb128 0x39
 11329 4191 01       		.uleb128 0x1
 11330 4192 52       		.byte	0x52
 11331 4193 02       		.uleb128 0x2
 11332 4194 08       		.byte	0x8
 11333 4195 4A       		.byte	0x4a
 11334 4196 39       		.uleb128 0x39
 11335 4197 01       		.uleb128 0x1
 11336 4198 53       		.byte	0x53
 11337 4199 05       		.uleb128 0x5
 11338 419a 03       		.byte	0x3
 11339 419b 00000000 		.4byte	changeMotorsStateAsync
 11340 419f 39       		.uleb128 0x39
 11341 41a0 02       		.uleb128 0x2
 11342 41a1 7D       		.byte	0x7d
 11343 41a2 00       		.sleb128 0
 11344 41a3 01       		.uleb128 0x1
 11345 41a4 30       		.byte	0x30
 11346 41a5 00       		.byte	0
 11347 41a6 3A       		.uleb128 0x3a
 11348 41a7 40000000 		.4byte	.LVL259
 11349 41ab 0A590000 		.4byte	0x590a
 11350 41af 00       		.byte	0
 11351 41b0 3D       		.uleb128 0x3d
 11352 41b1 81060000 		.4byte	.LASF869
 11353 41b5 01       		.byte	0x1
 11354 41b6 1201     		.2byte	0x112
 11355 41b8 00000000 		.4byte	.LFB278
 11356 41bc AC000000 		.4byte	.LFE278-.LFB278
 11357 41c0 01       		.uleb128 0x1
 11358 41c1 9C       		.byte	0x9c
 11359 41c2 6B430000 		.4byte	0x436b
 11360 41c6 3E       		.uleb128 0x3e
 11361 41c7 61726700 		.ascii	"arg\000"
 11362 41cb 01       		.byte	0x1
 11363 41cc 1201     		.2byte	0x112
 11364 41ce 6B010000 		.4byte	0x16b
 11365 41d2 00000000 		.4byte	.LLST60
 11366 41d6 3F       		.uleb128 0x3f
ARM GAS  /var/folders/qd/4mxf5pkd0zdf0b9dd1hp39180000gn/T//cc0H01tt.s 			page 201


 11367 41d7 28470000 		.4byte	0x4728
 11368 41db 06000000 		.4byte	.LBB516
 11369 41df 30030000 		.4byte	.Ldebug_ranges0+0x330
 11370 41e3 01       		.byte	0x1
 11371 41e4 1401     		.2byte	0x114
 11372 41e6 0B420000 		.4byte	0x420b
 11373 41ea 40       		.uleb128 0x40
 11374 41eb 34470000 		.4byte	0x4734
 11375 41ef 21000000 		.4byte	.LLST61
 11376 41f3 41       		.uleb128 0x41
 11377 41f4 22000000 		.4byte	.LVL235
 11378 41f8 154C0000 		.4byte	0x4c15
 11379 41fc 39       		.uleb128 0x39
 11380 41fd 01       		.uleb128 0x1
 11381 41fe 50       		.byte	0x50
 11382 41ff 02       		.uleb128 0x2
 11383 4200 7D       		.byte	0x7d
 11384 4201 00       		.sleb128 0
 11385 4202 39       		.uleb128 0x39
 11386 4203 01       		.uleb128 0x1
 11387 4204 51       		.byte	0x51
 11388 4205 03       		.uleb128 0x3
 11389 4206 0A       		.byte	0xa
 11390 4207 E915     		.2byte	0x15e9
 11391 4209 00       		.byte	0
 11392 420a 00       		.byte	0
 11393 420b 3F       		.uleb128 0x3f
 11394 420c 1F540000 		.4byte	0x541f
 11395 4210 2E000000 		.4byte	.LBB520
 11396 4214 48030000 		.4byte	.Ldebug_ranges0+0x348
 11397 4218 01       		.byte	0x1
 11398 4219 1A01     		.2byte	0x11a
 11399 421b 3C430000 		.4byte	0x433c
 11400 421f 42       		.uleb128 0x42
 11401 4220 42540000 		.4byte	0x5442
 11402 4224 2E000000 		.4byte	.LBB521
 11403 4228 48030000 		.4byte	.Ldebug_ranges0+0x348
 11404 422c 01       		.byte	0x1
 11405 422d 6A       		.byte	0x6a
 11406 422e 40       		.uleb128 0x40
 11407 422f 4F540000 		.4byte	0x544f
 11408 4233 3D000000 		.4byte	.LLST62
 11409 4237 43       		.uleb128 0x43
 11410 4238 F0540000 		.4byte	0x54f0
 11411 423c 2E000000 		.4byte	.LBB523
 11412 4240 0E000000 		.4byte	.LBE523-.LBB523
 11413 4244 05       		.byte	0x5
 11414 4245 1C01     		.2byte	0x11c
 11415 4247 8D420000 		.4byte	0x428d
 11416 424b 43       		.uleb128 0x43
 11417 424c 02550000 		.4byte	0x5502
 11418 4250 2E000000 		.4byte	.LBB525
 11419 4254 06000000 		.4byte	.LBE525-.LBB525
 11420 4258 03       		.byte	0x3
 11421 4259 5C01     		.2byte	0x15c
 11422 425b 7A420000 		.4byte	0x427a
 11423 425f 44       		.uleb128 0x44
ARM GAS  /var/folders/qd/4mxf5pkd0zdf0b9dd1hp39180000gn/T//cc0H01tt.s 			page 202


 11424 4260 0B550000 		.4byte	0x550b
 11425 4264 2E000000 		.4byte	.LBB526
 11426 4268 06000000 		.4byte	.LBE526-.LBB526
 11427 426c 17       		.byte	0x17
 11428 426d BF01     		.2byte	0x1bf
 11429 426f 40       		.uleb128 0x40
 11430 4270 18550000 		.4byte	0x5518
 11431 4274 65000000 		.4byte	.LLST63
 11432 4278 00       		.byte	0
 11433 4279 00       		.byte	0
 11434 427a 3A       		.uleb128 0x3a
 11435 427b 38000000 		.4byte	.LVL239
 11436 427f 60590000 		.4byte	0x5960
 11437 4283 3A       		.uleb128 0x3a
 11438 4284 3C000000 		.4byte	.LVL240
 11439 4288 6B590000 		.4byte	0x596b
 11440 428c 00       		.byte	0
 11441 428d 3F       		.uleb128 0x3f
 11442 428e 62540000 		.4byte	0x5462
 11443 4292 3C000000 		.4byte	.LBB528
 11444 4296 60030000 		.4byte	.Ldebug_ranges0+0x360
 11445 429a 05       		.byte	0x5
 11446 429b 1D01     		.2byte	0x11d
 11447 429d BD420000 		.4byte	0x42bd
 11448 42a1 40       		.uleb128 0x40
 11449 42a2 6F540000 		.4byte	0x546f
 11450 42a6 7A000000 		.4byte	.LLST64
 11451 42aa 3A       		.uleb128 0x3a
 11452 42ab 40000000 		.4byte	.LVL241
 11453 42af 76590000 		.4byte	0x5976
 11454 42b3 3A       		.uleb128 0x3a
 11455 42b4 84000000 		.4byte	.LVL251
 11456 42b8 81590000 		.4byte	0x5981
 11457 42bc 00       		.byte	0
 11458 42bd 3F       		.uleb128 0x3f
 11459 42be C0540000 		.4byte	0x54c0
 11460 42c2 4C000000 		.4byte	.LBB531
 11461 42c6 78030000 		.4byte	.Ldebug_ranges0+0x378
 11462 42ca 05       		.byte	0x5
 11463 42cb 1F01     		.2byte	0x11f
 11464 42cd 31430000 		.4byte	0x4331
 11465 42d1 45       		.uleb128 0x45
 11466 42d2 78030000 		.4byte	.Ldebug_ranges0+0x378
 11467 42d6 46       		.uleb128 0x46
 11468 42d7 CD540000 		.4byte	0x54cd
 11469 42db 43       		.uleb128 0x43
 11470 42dc F9540000 		.4byte	0x54f9
 11471 42e0 66000000 		.4byte	.LBB533
 11472 42e4 06000000 		.4byte	.LBE533-.LBB533
 11473 42e8 03       		.byte	0x3
 11474 42e9 7301     		.2byte	0x173
 11475 42eb 0A430000 		.4byte	0x430a
 11476 42ef 44       		.uleb128 0x44
 11477 42f0 0B550000 		.4byte	0x550b
 11478 42f4 66000000 		.4byte	.LBB534
 11479 42f8 06000000 		.4byte	.LBE534-.LBB534
 11480 42fc 17       		.byte	0x17
ARM GAS  /var/folders/qd/4mxf5pkd0zdf0b9dd1hp39180000gn/T//cc0H01tt.s 			page 203


 11481 42fd CD01     		.2byte	0x1cd
 11482 42ff 40       		.uleb128 0x40
 11483 4300 18550000 		.4byte	0x5518
 11484 4304 A2000000 		.4byte	.LLST65
 11485 4308 00       		.byte	0
 11486 4309 00       		.byte	0
 11487 430a 3A       		.uleb128 0x3a
 11488 430b 50000000 		.4byte	.LVL244
 11489 430f 8C590000 		.4byte	0x598c
 11490 4313 3A       		.uleb128 0x3a
 11491 4314 54000000 		.4byte	.LVL245
 11492 4318 97590000 		.4byte	0x5997
 11493 431c 41       		.uleb128 0x41
 11494 431d 7E000000 		.4byte	.LVL249
 11495 4321 A2590000 		.4byte	0x59a2
 11496 4325 39       		.uleb128 0x39
 11497 4326 01       		.uleb128 0x1
 11498 4327 50       		.byte	0x50
 11499 4328 05       		.uleb128 0x5
 11500 4329 03       		.byte	0x3
 11501 432a 00000000 		.4byte	.LANCHOR1
 11502 432e 00       		.byte	0
 11503 432f 00       		.byte	0
 11504 4330 00       		.byte	0
 11505 4331 3A       		.uleb128 0x3a
 11506 4332 4C000000 		.4byte	.LVL243
 11507 4336 AE590000 		.4byte	0x59ae
 11508 433a 00       		.byte	0
 11509 433b 00       		.byte	0
 11510 433c 3A       		.uleb128 0x3a
 11511 433d 26000000 		.4byte	.LVL236
 11512 4341 AD450000 		.4byte	0x45ad
 11513 4345 3B       		.uleb128 0x3b
 11514 4346 2E000000 		.4byte	.LVL237
 11515 434a BA590000 		.4byte	0x59ba
 11516 434e 61430000 		.4byte	0x4361
 11517 4352 39       		.uleb128 0x39
 11518 4353 01       		.uleb128 0x1
 11519 4354 50       		.byte	0x50
 11520 4355 05       		.uleb128 0x5
 11521 4356 03       		.byte	0x3
 11522 4357 00000000 		.4byte	.LC2
 11523 435b 39       		.uleb128 0x39
 11524 435c 01       		.uleb128 0x1
 11525 435d 51       		.byte	0x51
 11526 435e 01       		.uleb128 0x1
 11527 435f 33       		.byte	0x33
 11528 4360 00       		.byte	0
 11529 4361 3A       		.uleb128 0x3a
 11530 4362 8A000000 		.4byte	.LVL253
 11531 4366 0A590000 		.4byte	0x590a
 11532 436a 00       		.byte	0
 11533 436b 47       		.uleb128 0x47
 11534 436c 6E010000 		.4byte	.LASF870
 11535 4370 01       		.byte	0x1
 11536 4371 FF       		.byte	0xff
 11537 4372 00000000 		.4byte	.LFB277
ARM GAS  /var/folders/qd/4mxf5pkd0zdf0b9dd1hp39180000gn/T//cc0H01tt.s 			page 204


 11538 4376 D0000000 		.4byte	.LFE277-.LFB277
 11539 437a 01       		.uleb128 0x1
 11540 437b 9C       		.byte	0x9c
 11541 437c A7450000 		.4byte	0x45a7
 11542 4380 48       		.uleb128 0x48
 11543 4381 61726700 		.ascii	"arg\000"
 11544 4385 01       		.byte	0x1
 11545 4386 FF       		.byte	0xff
 11546 4387 6B010000 		.4byte	0x16b
 11547 438b B6000000 		.4byte	.LLST39
 11548 438f 49       		.uleb128 0x49
 11549 4390 97000000 		.4byte	.LASF871
 11550 4394 01       		.byte	0x1
 11551 4395 0601     		.2byte	0x106
 11552 4397 A7450000 		.4byte	0x45a7
 11553 439b D7000000 		.4byte	.LLST40
 11554 439f 3F       		.uleb128 0x3f
 11555 43a0 28470000 		.4byte	0x4728
 11556 43a4 06000000 		.4byte	.LBB449
 11557 43a8 80020000 		.4byte	.Ldebug_ranges0+0x280
 11558 43ac 01       		.byte	0x1
 11559 43ad 0201     		.2byte	0x102
 11560 43af D4430000 		.4byte	0x43d4
 11561 43b3 40       		.uleb128 0x40
 11562 43b4 34470000 		.4byte	0x4734
 11563 43b8 01010000 		.4byte	.LLST41
 11564 43bc 41       		.uleb128 0x41
 11565 43bd 22000000 		.4byte	.LVL153
 11566 43c1 154C0000 		.4byte	0x4c15
 11567 43c5 39       		.uleb128 0x39
 11568 43c6 01       		.uleb128 0x1
 11569 43c7 50       		.byte	0x50
 11570 43c8 02       		.uleb128 0x2
 11571 43c9 7D       		.byte	0x7d
 11572 43ca 00       		.sleb128 0
 11573 43cb 39       		.uleb128 0x39
 11574 43cc 01       		.uleb128 0x1
 11575 43cd 51       		.byte	0x51
 11576 43ce 03       		.uleb128 0x3
 11577 43cf 0A       		.byte	0xa
 11578 43d0 A757     		.2byte	0x57a7
 11579 43d2 00       		.byte	0
 11580 43d3 00       		.byte	0
 11581 43d4 3F       		.uleb128 0x3f
 11582 43d5 1F540000 		.4byte	0x541f
 11583 43d9 58000000 		.4byte	.LBB453
 11584 43dd 98020000 		.4byte	.Ldebug_ranges0+0x298
 11585 43e1 01       		.byte	0x1
 11586 43e2 0D01     		.2byte	0x10d
 11587 43e4 05450000 		.4byte	0x4505
 11588 43e8 42       		.uleb128 0x42
 11589 43e9 42540000 		.4byte	0x5442
 11590 43ed 58000000 		.4byte	.LBB454
 11591 43f1 98020000 		.4byte	.Ldebug_ranges0+0x298
 11592 43f5 01       		.byte	0x1
 11593 43f6 6A       		.byte	0x6a
 11594 43f7 40       		.uleb128 0x40
ARM GAS  /var/folders/qd/4mxf5pkd0zdf0b9dd1hp39180000gn/T//cc0H01tt.s 			page 205


 11595 43f8 4F540000 		.4byte	0x544f
 11596 43fc 1D010000 		.4byte	.LLST42
 11597 4400 43       		.uleb128 0x43
 11598 4401 F0540000 		.4byte	0x54f0
 11599 4405 58000000 		.4byte	.LBB456
 11600 4409 0E000000 		.4byte	.LBE456-.LBB456
 11601 440d 05       		.byte	0x5
 11602 440e 1C01     		.2byte	0x11c
 11603 4410 56440000 		.4byte	0x4456
 11604 4414 43       		.uleb128 0x43
 11605 4415 02550000 		.4byte	0x5502
 11606 4419 58000000 		.4byte	.LBB458
 11607 441d 06000000 		.4byte	.LBE458-.LBB458
 11608 4421 03       		.byte	0x3
 11609 4422 5C01     		.2byte	0x15c
 11610 4424 43440000 		.4byte	0x4443
 11611 4428 44       		.uleb128 0x44
 11612 4429 0B550000 		.4byte	0x550b
 11613 442d 58000000 		.4byte	.LBB459
 11614 4431 06000000 		.4byte	.LBE459-.LBB459
 11615 4435 17       		.byte	0x17
 11616 4436 BF01     		.2byte	0x1bf
 11617 4438 40       		.uleb128 0x40
 11618 4439 18550000 		.4byte	0x5518
 11619 443d 45010000 		.4byte	.LLST43
 11620 4441 00       		.byte	0
 11621 4442 00       		.byte	0
 11622 4443 3A       		.uleb128 0x3a
 11623 4444 62000000 		.4byte	.LVL163
 11624 4448 60590000 		.4byte	0x5960
 11625 444c 3A       		.uleb128 0x3a
 11626 444d 66000000 		.4byte	.LVL164
 11627 4451 6B590000 		.4byte	0x596b
 11628 4455 00       		.byte	0
 11629 4456 3F       		.uleb128 0x3f
 11630 4457 62540000 		.4byte	0x5462
 11631 445b 66000000 		.4byte	.LBB461
 11632 445f B0020000 		.4byte	.Ldebug_ranges0+0x2b0
 11633 4463 05       		.byte	0x5
 11634 4464 1D01     		.2byte	0x11d
 11635 4466 86440000 		.4byte	0x4486
 11636 446a 40       		.uleb128 0x40
 11637 446b 6F540000 		.4byte	0x546f
 11638 446f 5A010000 		.4byte	.LLST44
 11639 4473 3A       		.uleb128 0x3a
 11640 4474 6A000000 		.4byte	.LVL165
 11641 4478 76590000 		.4byte	0x5976
 11642 447c 3A       		.uleb128 0x3a
 11643 447d AE000000 		.4byte	.LVL175
 11644 4481 81590000 		.4byte	0x5981
 11645 4485 00       		.byte	0
 11646 4486 3F       		.uleb128 0x3f
 11647 4487 C0540000 		.4byte	0x54c0
 11648 448b 76000000 		.4byte	.LBB464
 11649 448f C8020000 		.4byte	.Ldebug_ranges0+0x2c8
 11650 4493 05       		.byte	0x5
 11651 4494 1F01     		.2byte	0x11f
ARM GAS  /var/folders/qd/4mxf5pkd0zdf0b9dd1hp39180000gn/T//cc0H01tt.s 			page 206


 11652 4496 FA440000 		.4byte	0x44fa
 11653 449a 45       		.uleb128 0x45
 11654 449b C8020000 		.4byte	.Ldebug_ranges0+0x2c8
 11655 449f 46       		.uleb128 0x46
 11656 44a0 CD540000 		.4byte	0x54cd
 11657 44a4 43       		.uleb128 0x43
 11658 44a5 F9540000 		.4byte	0x54f9
 11659 44a9 90000000 		.4byte	.LBB466
 11660 44ad 06000000 		.4byte	.LBE466-.LBB466
 11661 44b1 03       		.byte	0x3
 11662 44b2 7301     		.2byte	0x173
 11663 44b4 D3440000 		.4byte	0x44d3
 11664 44b8 44       		.uleb128 0x44
 11665 44b9 0B550000 		.4byte	0x550b
 11666 44bd 90000000 		.4byte	.LBB467
 11667 44c1 06000000 		.4byte	.LBE467-.LBB467
 11668 44c5 17       		.byte	0x17
 11669 44c6 CD01     		.2byte	0x1cd
 11670 44c8 40       		.uleb128 0x40
 11671 44c9 18550000 		.4byte	0x5518
 11672 44cd 82010000 		.4byte	.LLST45
 11673 44d1 00       		.byte	0
 11674 44d2 00       		.byte	0
 11675 44d3 3A       		.uleb128 0x3a
 11676 44d4 7A000000 		.4byte	.LVL168
 11677 44d8 8C590000 		.4byte	0x598c
 11678 44dc 3A       		.uleb128 0x3a
 11679 44dd 7E000000 		.4byte	.LVL169
 11680 44e1 97590000 		.4byte	0x5997
 11681 44e5 41       		.uleb128 0x41
 11682 44e6 A8000000 		.4byte	.LVL173
 11683 44ea A2590000 		.4byte	0x59a2
 11684 44ee 39       		.uleb128 0x39
 11685 44ef 01       		.uleb128 0x1
 11686 44f0 50       		.byte	0x50
 11687 44f1 05       		.uleb128 0x5
 11688 44f2 03       		.byte	0x3
 11689 44f3 00000000 		.4byte	.LANCHOR1
 11690 44f7 00       		.byte	0
 11691 44f8 00       		.byte	0
 11692 44f9 00       		.byte	0
 11693 44fa 3A       		.uleb128 0x3a
 11694 44fb 76000000 		.4byte	.LVL167
 11695 44ff AE590000 		.4byte	0x59ae
 11696 4503 00       		.byte	0
 11697 4504 00       		.byte	0
 11698 4505 3B       		.uleb128 0x3b
 11699 4506 2A000000 		.4byte	.LVL154
 11700 450a C5590000 		.4byte	0x59c5
 11701 450e 1A450000 		.4byte	0x451a
 11702 4512 39       		.uleb128 0x39
 11703 4513 01       		.uleb128 0x1
 11704 4514 50       		.byte	0x50
 11705 4515 03       		.uleb128 0x3
 11706 4516 0A       		.byte	0xa
 11707 4517 D007     		.2byte	0x7d0
 11708 4519 00       		.byte	0
ARM GAS  /var/folders/qd/4mxf5pkd0zdf0b9dd1hp39180000gn/T//cc0H01tt.s 			page 207


 11709 451a 3A       		.uleb128 0x3a
 11710 451b 2E000000 		.4byte	.LVL155
 11711 451f D0590000 		.4byte	0x59d0
 11712 4523 3B       		.uleb128 0x3b
 11713 4524 36000000 		.4byte	.LVL156
 11714 4528 DB590000 		.4byte	0x59db
 11715 452c 38450000 		.4byte	0x4538
 11716 4530 39       		.uleb128 0x39
 11717 4531 01       		.uleb128 0x1
 11718 4532 50       		.byte	0x50
 11719 4533 03       		.uleb128 0x3
 11720 4534 0A       		.byte	0xa
 11721 4535 0003     		.2byte	0x300
 11722 4537 00       		.byte	0
 11723 4538 3B       		.uleb128 0x3b
 11724 4539 42000000 		.4byte	.LVL158
 11725 453d E6590000 		.4byte	0x59e6
 11726 4541 56450000 		.4byte	0x4556
 11727 4545 39       		.uleb128 0x39
 11728 4546 01       		.uleb128 0x1
 11729 4547 50       		.byte	0x50
 11730 4548 0C       		.uleb128 0xc
 11731 4549 31       		.byte	0x31
 11732 454a 74       		.byte	0x74
 11733 454b 00       		.sleb128 0
 11734 454c 74       		.byte	0x74
 11735 454d 00       		.sleb128 0
 11736 454e 30       		.byte	0x30
 11737 454f 2E       		.byte	0x2e
 11738 4550 28       		.byte	0x28
 11739 4551 0100     		.2byte	0x1
 11740 4553 16       		.byte	0x16
 11741 4554 13       		.byte	0x13
 11742 4555 00       		.byte	0
 11743 4556 3B       		.uleb128 0x3b
 11744 4557 4A000000 		.4byte	.LVL159
 11745 455b 9C480000 		.4byte	0x489c
 11746 455f 70450000 		.4byte	0x4570
 11747 4563 39       		.uleb128 0x39
 11748 4564 01       		.uleb128 0x1
 11749 4565 50       		.byte	0x50
 11750 4566 02       		.uleb128 0x2
 11751 4567 74       		.byte	0x74
 11752 4568 00       		.sleb128 0
 11753 4569 39       		.uleb128 0x39
 11754 456a 01       		.uleb128 0x1
 11755 456b 51       		.byte	0x51
 11756 456c 02       		.uleb128 0x2
 11757 456d 08       		.byte	0x8
 11758 456e 20       		.byte	0x20
 11759 456f 00       		.byte	0
 11760 4570 3B       		.uleb128 0x3b
 11761 4571 52000000 		.4byte	.LVL160
 11762 4575 F1590000 		.4byte	0x59f1
 11763 4579 89450000 		.4byte	0x4589
 11764 457d 39       		.uleb128 0x39
 11765 457e 01       		.uleb128 0x1
ARM GAS  /var/folders/qd/4mxf5pkd0zdf0b9dd1hp39180000gn/T//cc0H01tt.s 			page 208


 11766 457f 50       		.byte	0x50
 11767 4580 02       		.uleb128 0x2
 11768 4581 74       		.byte	0x74
 11769 4582 00       		.sleb128 0
 11770 4583 39       		.uleb128 0x39
 11771 4584 01       		.uleb128 0x1
 11772 4585 51       		.byte	0x51
 11773 4586 01       		.uleb128 0x1
 11774 4587 32       		.byte	0x32
 11775 4588 00       		.byte	0
 11776 4589 3B       		.uleb128 0x3b
 11777 458a 58000000 		.4byte	.LVL161
 11778 458e FC590000 		.4byte	0x59fc
 11779 4592 9D450000 		.4byte	0x459d
 11780 4596 39       		.uleb128 0x39
 11781 4597 01       		.uleb128 0x1
 11782 4598 50       		.byte	0x50
 11783 4599 02       		.uleb128 0x2
 11784 459a 74       		.byte	0x74
 11785 459b 00       		.sleb128 0
 11786 459c 00       		.byte	0
 11787 459d 3A       		.uleb128 0x3a
 11788 459e B4000000 		.4byte	.LVL177
 11789 45a2 0A590000 		.4byte	0x590a
 11790 45a6 00       		.byte	0
 11791 45a7 05       		.uleb128 0x5
 11792 45a8 04       		.byte	0x4
 11793 45a9 0F0A0000 		.4byte	0xa0f
 11794 45ad 4A       		.uleb128 0x4a
 11795 45ae EA1A0000 		.4byte	.LASF872
 11796 45b2 01       		.byte	0x1
 11797 45b3 F1       		.byte	0xf1
 11798 45b4 00000000 		.4byte	.LFB276
 11799 45b8 B4000000 		.4byte	.LFE276-.LFB276
 11800 45bc 01       		.uleb128 0x1
 11801 45bd 9C       		.byte	0x9c
 11802 45be 05470000 		.4byte	0x4705
 11803 45c2 4B       		.uleb128 0x4b
 11804 45c3 97000000 		.4byte	.LASF871
 11805 45c7 01       		.byte	0x1
 11806 45c8 F2       		.byte	0xf2
 11807 45c9 A7450000 		.4byte	0x45a7
 11808 45cd 96010000 		.4byte	.LLST53
 11809 45d1 4C       		.uleb128 0x4c
 11810 45d2 6900     		.ascii	"i\000"
 11811 45d4 01       		.byte	0x1
 11812 45d5 F4       		.byte	0xf4
 11813 45d6 41000000 		.4byte	0x41
 11814 45da B4010000 		.4byte	.LLST54
 11815 45de 4D       		.uleb128 0x4d
 11816 45df 28470000 		.4byte	0x4728
 11817 45e3 08000000 		.4byte	.LBB486
 11818 45e7 00030000 		.4byte	.Ldebug_ranges0+0x300
 11819 45eb 01       		.byte	0x1
 11820 45ec F8       		.byte	0xf8
 11821 45ed 12460000 		.4byte	0x4612
 11822 45f1 40       		.uleb128 0x40
ARM GAS  /var/folders/qd/4mxf5pkd0zdf0b9dd1hp39180000gn/T//cc0H01tt.s 			page 209


 11823 45f2 34470000 		.4byte	0x4734
 11824 45f6 C8010000 		.4byte	.LLST55
 11825 45fa 41       		.uleb128 0x41
 11826 45fb 5A000000 		.4byte	.LVL226
 11827 45ff 154C0000 		.4byte	0x4c15
 11828 4603 39       		.uleb128 0x39
 11829 4604 01       		.uleb128 0x1
 11830 4605 50       		.byte	0x50
 11831 4606 03       		.uleb128 0x3
 11832 4607 91       		.byte	0x91
 11833 4608 B07F     		.sleb128 -80
 11834 460a 39       		.uleb128 0x39
 11835 460b 01       		.uleb128 0x1
 11836 460c 51       		.byte	0x51
 11837 460d 02       		.uleb128 0x2
 11838 460e 78       		.byte	0x78
 11839 460f 00       		.sleb128 0
 11840 4610 00       		.byte	0
 11841 4611 00       		.byte	0
 11842 4612 4D       		.uleb128 0x4d
 11843 4613 28470000 		.4byte	0x4728
 11844 4617 1C000000 		.4byte	.LBB489
 11845 461b 18030000 		.4byte	.Ldebug_ranges0+0x318
 11846 461f 01       		.byte	0x1
 11847 4620 F3       		.byte	0xf3
 11848 4621 46460000 		.4byte	0x4646
 11849 4625 40       		.uleb128 0x40
 11850 4626 34470000 		.4byte	0x4734
 11851 462a E4010000 		.4byte	.LLST56
 11852 462e 41       		.uleb128 0x41
 11853 462f 36000000 		.4byte	.LVL222
 11854 4633 154C0000 		.4byte	0x4c15
 11855 4637 39       		.uleb128 0x39
 11856 4638 01       		.uleb128 0x1
 11857 4639 50       		.byte	0x50
 11858 463a 02       		.uleb128 0x2
 11859 463b 7D       		.byte	0x7d
 11860 463c 00       		.sleb128 0
 11861 463d 39       		.uleb128 0x39
 11862 463e 01       		.uleb128 0x1
 11863 463f 51       		.byte	0x51
 11864 4640 03       		.uleb128 0x3
 11865 4641 0A       		.byte	0xa
 11866 4642 F40A     		.2byte	0xaf4
 11867 4644 00       		.byte	0
 11868 4645 00       		.byte	0
 11869 4646 4E       		.uleb128 0x4e
 11870 4647 28470000 		.4byte	0x4728
 11871 464b 5E000000 		.4byte	.LBB494
 11872 464f 16000000 		.4byte	.LBE494-.LBB494
 11873 4653 01       		.byte	0x1
 11874 4654 FA       		.byte	0xfa
 11875 4655 7A460000 		.4byte	0x467a
 11876 4659 40       		.uleb128 0x40
 11877 465a 34470000 		.4byte	0x4734
 11878 465e 00020000 		.4byte	.LLST57
 11879 4662 41       		.uleb128 0x41
ARM GAS  /var/folders/qd/4mxf5pkd0zdf0b9dd1hp39180000gn/T//cc0H01tt.s 			page 210


 11880 4663 74000000 		.4byte	.LVL228
 11881 4667 154C0000 		.4byte	0x4c15
 11882 466b 39       		.uleb128 0x39
 11883 466c 01       		.uleb128 0x1
 11884 466d 50       		.byte	0x50
 11885 466e 02       		.uleb128 0x2
 11886 466f 91       		.byte	0x91
 11887 4670 40       		.sleb128 -64
 11888 4671 39       		.uleb128 0x39
 11889 4672 01       		.uleb128 0x1
 11890 4673 51       		.byte	0x51
 11891 4674 03       		.uleb128 0x3
 11892 4675 0A       		.byte	0xa
 11893 4676 F40A     		.2byte	0xaf4
 11894 4678 00       		.byte	0
 11895 4679 00       		.byte	0
 11896 467a 4E       		.uleb128 0x4e
 11897 467b 05470000 		.4byte	0x4705
 11898 467f 74000000 		.4byte	.LBB496
 11899 4683 0A000000 		.4byte	.LBE496-.LBB496
 11900 4687 01       		.byte	0x1
 11901 4688 FB       		.byte	0xfb
 11902 4689 BE460000 		.4byte	0x46be
 11903 468d 40       		.uleb128 0x40
 11904 468e 1C470000 		.4byte	0x471c
 11905 4692 1C020000 		.4byte	.LLST58
 11906 4696 40       		.uleb128 0x40
 11907 4697 11470000 		.4byte	0x4711
 11908 469b 30020000 		.4byte	.LLST59
 11909 469f 41       		.uleb128 0x41
 11910 46a0 7E000000 		.4byte	.LVL229
 11911 46a4 075A0000 		.4byte	0x5a07
 11912 46a8 39       		.uleb128 0x39
 11913 46a9 01       		.uleb128 0x1
 11914 46aa 50       		.byte	0x50
 11915 46ab 02       		.uleb128 0x2
 11916 46ac 79       		.byte	0x79
 11917 46ad 00       		.sleb128 0
 11918 46ae 39       		.uleb128 0x39
 11919 46af 01       		.uleb128 0x1
 11920 46b0 51       		.byte	0x51
 11921 46b1 01       		.uleb128 0x1
 11922 46b2 44       		.byte	0x44
 11923 46b3 39       		.uleb128 0x39
 11924 46b4 01       		.uleb128 0x1
 11925 46b5 52       		.byte	0x52
 11926 46b6 05       		.uleb128 0x5
 11927 46b7 03       		.byte	0x3
 11928 46b8 00000000 		.4byte	.LANCHOR7
 11929 46bc 00       		.byte	0
 11930 46bd 00       		.byte	0
 11931 46be 3B       		.uleb128 0x3b
 11932 46bf 1C000000 		.4byte	.LVL219
 11933 46c3 DB590000 		.4byte	0x59db
 11934 46c7 D3460000 		.4byte	0x46d3
 11935 46cb 39       		.uleb128 0x39
 11936 46cc 01       		.uleb128 0x1
ARM GAS  /var/folders/qd/4mxf5pkd0zdf0b9dd1hp39180000gn/T//cc0H01tt.s 			page 211


 11937 46cd 50       		.byte	0x50
 11938 46ce 03       		.uleb128 0x3
 11939 46cf 0A       		.byte	0xa
 11940 46d0 E001     		.2byte	0x1e0
 11941 46d2 00       		.byte	0
 11942 46d3 3B       		.uleb128 0x3b
 11943 46d4 42000000 		.4byte	.LVL224
 11944 46d8 C5590000 		.4byte	0x59c5
 11945 46dc E7460000 		.4byte	0x46e7
 11946 46e0 39       		.uleb128 0x39
 11947 46e1 01       		.uleb128 0x1
 11948 46e2 50       		.byte	0x50
 11949 46e3 02       		.uleb128 0x2
 11950 46e4 08       		.byte	0x8
 11951 46e5 96       		.byte	0x96
 11952 46e6 00       		.byte	0
 11953 46e7 3B       		.uleb128 0x3b
 11954 46e8 48000000 		.4byte	.LVL225
 11955 46ec 60490000 		.4byte	0x4960
 11956 46f0 FB460000 		.4byte	0x46fb
 11957 46f4 39       		.uleb128 0x39
 11958 46f5 01       		.uleb128 0x1
 11959 46f6 50       		.byte	0x50
 11960 46f7 02       		.uleb128 0x2
 11961 46f8 74       		.byte	0x74
 11962 46f9 00       		.sleb128 0
 11963 46fa 00       		.byte	0
 11964 46fb 3A       		.uleb128 0x3a
 11965 46fc 92000000 		.4byte	.LVL231
 11966 4700 0A590000 		.4byte	0x590a
 11967 4704 00       		.byte	0
 11968 4705 4F       		.uleb128 0x4f
 11969 4706 F8070000 		.4byte	.LASF874
 11970 470a 01       		.byte	0x1
 11971 470b E9       		.byte	0xe9
 11972 470c 01       		.byte	0x1
 11973 470d 28470000 		.4byte	0x4728
 11974 4711 50       		.uleb128 0x50
 11975 4712 97000000 		.4byte	.LASF871
 11976 4716 01       		.byte	0x1
 11977 4717 E9       		.byte	0xe9
 11978 4718 A7450000 		.4byte	0x45a7
 11979 471c 50       		.uleb128 0x50
 11980 471d 8F250000 		.4byte	.LASF873
 11981 4721 01       		.byte	0x1
 11982 4722 E9       		.byte	0xe9
 11983 4723 41000000 		.4byte	0x41
 11984 4727 00       		.byte	0
 11985 4728 4F       		.uleb128 0x4f
 11986 4729 210E0000 		.4byte	.LASF875
 11987 472d 01       		.byte	0x1
 11988 472e E2       		.byte	0xe2
 11989 472f 01       		.byte	0x1
 11990 4730 40470000 		.4byte	0x4740
 11991 4734 50       		.uleb128 0x50
 11992 4735 E3010000 		.4byte	.LASF139
 11993 4739 01       		.byte	0x1
ARM GAS  /var/folders/qd/4mxf5pkd0zdf0b9dd1hp39180000gn/T//cc0H01tt.s 			page 212


 11994 473a E2       		.byte	0xe2
 11995 473b 33000000 		.4byte	0x33
 11996 473f 00       		.byte	0
 11997 4740 4A       		.uleb128 0x4a
 11998 4741 6B020000 		.4byte	.LASF876
 11999 4745 01       		.byte	0x1
 12000 4746 DD       		.byte	0xdd
 12001 4747 00000000 		.4byte	.LFB273
 12002 474b 2C000000 		.4byte	.LFE273-.LFB273
 12003 474f 01       		.uleb128 0x1
 12004 4750 9C       		.byte	0x9c
 12005 4751 AB470000 		.4byte	0x47ab
 12006 4755 51       		.uleb128 0x51
 12007 4756 34150000 		.4byte	.LASF877
 12008 475a 01       		.byte	0x1
 12009 475b DD       		.byte	0xdd
 12010 475c AB470000 		.4byte	0x47ab
 12011 4760 43020000 		.4byte	.LLST50
 12012 4764 32       		.uleb128 0x32
 12013 4765 DB160000 		.4byte	.LASF878
 12014 4769 01       		.byte	0x1
 12015 476a DE       		.byte	0xde
 12016 476b 4B0A0000 		.4byte	0xa4b
 12017 476f 02       		.uleb128 0x2
 12018 4770 91       		.byte	0x91
 12019 4771 58       		.sleb128 -40
 12020 4772 3B       		.uleb128 0x3b
 12021 4773 12000000 		.4byte	.LVL213
 12022 4777 125A0000 		.4byte	0x5a12
 12023 477b 8D470000 		.4byte	0x478d
 12024 477f 39       		.uleb128 0x39
 12025 4780 01       		.uleb128 0x1
 12026 4781 50       		.byte	0x50
 12027 4782 02       		.uleb128 0x2
 12028 4783 7D       		.byte	0x7d
 12029 4784 00       		.sleb128 0
 12030 4785 39       		.uleb128 0x39
 12031 4786 01       		.uleb128 0x1
 12032 4787 51       		.byte	0x51
 12033 4788 03       		.uleb128 0x3
 12034 4789 F3       		.byte	0xf3
 12035 478a 01       		.uleb128 0x1
 12036 478b 50       		.byte	0x50
 12037 478c 00       		.byte	0
 12038 478d 3B       		.uleb128 0x3b
 12039 478e 18000000 		.4byte	.LVL214
 12040 4792 BB4B0000 		.4byte	0x4bbb
 12041 4796 A1470000 		.4byte	0x47a1
 12042 479a 39       		.uleb128 0x39
 12043 479b 01       		.uleb128 0x1
 12044 479c 50       		.byte	0x50
 12045 479d 02       		.uleb128 0x2
 12046 479e 7D       		.byte	0x7d
 12047 479f 00       		.sleb128 0
 12048 47a0 00       		.byte	0
 12049 47a1 3A       		.uleb128 0x3a
 12050 47a2 28000000 		.4byte	.LVL215
ARM GAS  /var/folders/qd/4mxf5pkd0zdf0b9dd1hp39180000gn/T//cc0H01tt.s 			page 213


 12051 47a6 0A590000 		.4byte	0x590a
 12052 47aa 00       		.byte	0
 12053 47ab 05       		.uleb128 0x5
 12054 47ac 04       		.byte	0x4
 12055 47ad C1090000 		.4byte	0x9c1
 12056 47b1 52       		.uleb128 0x52
 12057 47b2 DB250000 		.4byte	.LASF879
 12058 47b6 01       		.byte	0x1
 12059 47b7 D4       		.byte	0xd4
 12060 47b8 00000000 		.4byte	.LFB272
 12061 47bc E8000000 		.4byte	.LFE272-.LFB272
 12062 47c0 01       		.uleb128 0x1
 12063 47c1 9C       		.byte	0x9c
 12064 47c2 9C480000 		.4byte	0x489c
 12065 47c6 51       		.uleb128 0x51
 12066 47c7 E3150000 		.4byte	.LASF880
 12067 47cb 01       		.byte	0x1
 12068 47cc D4       		.byte	0xd4
 12069 47cd 33000000 		.4byte	0x33
 12070 47d1 6F020000 		.4byte	.LLST46
 12071 47d5 4B       		.uleb128 0x4b
 12072 47d6 E2000000 		.4byte	.LASF881
 12073 47da 01       		.byte	0x1
 12074 47db D5       		.byte	0xd5
 12075 47dc 33000000 		.4byte	0x33
 12076 47e0 99020000 		.4byte	.LLST47
 12077 47e4 4E       		.uleb128 0x4e
 12078 47e5 AC4E0000 		.4byte	0x4eac
 12079 47e9 7A000000 		.4byte	.LBB475
 12080 47ed 14000000 		.4byte	.LBE475-.LBB475
 12081 47f1 01       		.byte	0x1
 12082 47f2 D7       		.byte	0xd7
 12083 47f3 10480000 		.4byte	0x4810
 12084 47f7 37       		.uleb128 0x37
 12085 47f8 B84E0000 		.4byte	0x4eb8
 12086 47fc 02       		.uleb128 0x2
 12087 47fd 91       		.byte	0x91
 12088 47fe 48       		.sleb128 -56
 12089 47ff 41       		.uleb128 0x41
 12090 4800 8E000000 		.4byte	.LVL188
 12091 4804 1D5A0000 		.4byte	0x5a1d
 12092 4808 39       		.uleb128 0x39
 12093 4809 01       		.uleb128 0x1
 12094 480a 51       		.byte	0x51
 12095 480b 02       		.uleb128 0x2
 12096 480c 74       		.byte	0x74
 12097 480d 00       		.sleb128 0
 12098 480e 00       		.byte	0
 12099 480f 00       		.byte	0
 12100 4810 4D       		.uleb128 0x4d
 12101 4811 A44E0000 		.4byte	0x4ea4
 12102 4815 94000000 		.4byte	.LBB477
 12103 4819 E0020000 		.4byte	.Ldebug_ranges0+0x2e0
 12104 481d 01       		.byte	0x1
 12105 481e DA       		.byte	0xda
 12106 481f 4E480000 		.4byte	0x484e
 12107 4823 42       		.uleb128 0x42
ARM GAS  /var/folders/qd/4mxf5pkd0zdf0b9dd1hp39180000gn/T//cc0H01tt.s 			page 214


 12108 4824 AC4E0000 		.4byte	0x4eac
 12109 4828 94000000 		.4byte	.LBB478
 12110 482c E0020000 		.4byte	.Ldebug_ranges0+0x2e0
 12111 4830 01       		.byte	0x1
 12112 4831 9C       		.byte	0x9c
 12113 4832 37       		.uleb128 0x37
 12114 4833 B84E0000 		.4byte	0x4eb8
 12115 4837 03       		.uleb128 0x3
 12116 4838 91       		.byte	0x91
 12117 4839 B87F     		.sleb128 -72
 12118 483b 41       		.uleb128 0x41
 12119 483c AA000000 		.4byte	.LVL190
 12120 4840 1D5A0000 		.4byte	0x5a1d
 12121 4844 39       		.uleb128 0x39
 12122 4845 01       		.uleb128 0x1
 12123 4846 51       		.byte	0x51
 12124 4847 03       		.uleb128 0x3
 12125 4848 91       		.byte	0x91
 12126 4849 B87F     		.sleb128 -72
 12127 484b 00       		.byte	0
 12128 484c 00       		.byte	0
 12129 484d 00       		.byte	0
 12130 484e 3B       		.uleb128 0x3b
 12131 484f 10000000 		.4byte	.LVL179
 12132 4853 285A0000 		.4byte	0x5a28
 12133 4857 6C480000 		.4byte	0x486c
 12134 485b 39       		.uleb128 0x39
 12135 485c 08       		.uleb128 0x8
 12136 485d 90       		.byte	0x90
 12137 485e 40       		.uleb128 0x40
 12138 485f 93       		.byte	0x93
 12139 4860 04       		.uleb128 0x4
 12140 4861 90       		.byte	0x90
 12141 4862 41       		.uleb128 0x41
 12142 4863 93       		.byte	0x93
 12143 4864 04       		.uleb128 0x4
 12144 4865 05       		.uleb128 0x5
 12145 4866 F3       		.byte	0xf3
 12146 4867 03       		.uleb128 0x3
 12147 4868 F5       		.byte	0xf5
 12148 4869 40       		.uleb128 0x40
 12149 486a 33       		.uleb128 0x33
 12150 486b 00       		.byte	0
 12151 486c 3B       		.uleb128 0x3b
 12152 486d 5E000000 		.4byte	.LVL186
 12153 4871 154C0000 		.4byte	0x4c15
 12154 4875 80480000 		.4byte	0x4880
 12155 4879 39       		.uleb128 0x39
 12156 487a 01       		.uleb128 0x1
 12157 487b 50       		.byte	0x50
 12158 487c 02       		.uleb128 0x2
 12159 487d 7D       		.byte	0x7d
 12160 487e 00       		.sleb128 0
 12161 487f 00       		.byte	0
 12162 4880 3A       		.uleb128 0x3a
 12163 4881 6E000000 		.4byte	.LVL187
 12164 4885 335A0000 		.4byte	0x5a33
ARM GAS  /var/folders/qd/4mxf5pkd0zdf0b9dd1hp39180000gn/T//cc0H01tt.s 			page 215


 12165 4889 3A       		.uleb128 0x3a
 12166 488a 92000000 		.4byte	.LVL189
 12167 488e 3E5A0000 		.4byte	0x5a3e
 12168 4892 3A       		.uleb128 0x3a
 12169 4893 C6000000 		.4byte	.LVL193
 12170 4897 0A590000 		.4byte	0x590a
 12171 489b 00       		.byte	0
 12172 489c 4A       		.uleb128 0x4a
 12173 489d BC040000 		.4byte	.LASF882
 12174 48a1 01       		.byte	0x1
 12175 48a2 CA       		.byte	0xca
 12176 48a3 00000000 		.4byte	.LFB271
 12177 48a7 74000000 		.4byte	.LFE271-.LFB271
 12178 48ab 01       		.uleb128 0x1
 12179 48ac 9C       		.byte	0x9c
 12180 48ad 60490000 		.4byte	0x4960
 12181 48b1 51       		.uleb128 0x51
 12182 48b2 97000000 		.4byte	.LASF871
 12183 48b6 01       		.byte	0x1
 12184 48b7 CA       		.byte	0xca
 12185 48b8 A7450000 		.4byte	0x45a7
 12186 48bc C1020000 		.4byte	.LLST35
 12187 48c0 51       		.uleb128 0x51
 12188 48c1 AF0B0000 		.4byte	.LASF883
 12189 48c5 01       		.byte	0x1
 12190 48c6 CA       		.byte	0xca
 12191 48c7 41000000 		.4byte	0x41
 12192 48cb ED020000 		.4byte	.LLST36
 12193 48cf 4C       		.uleb128 0x4c
 12194 48d0 6900     		.ascii	"i\000"
 12195 48d2 01       		.byte	0x1
 12196 48d3 CC       		.byte	0xcc
 12197 48d4 41000000 		.4byte	0x41
 12198 48d8 19030000 		.4byte	.LLST37
 12199 48dc 4D       		.uleb128 0x4d
 12200 48dd 28470000 		.4byte	0x4728
 12201 48e1 1E000000 		.4byte	.LBB427
 12202 48e5 68020000 		.4byte	.Ldebug_ranges0+0x268
 12203 48e9 01       		.byte	0x1
 12204 48ea D0       		.byte	0xd0
 12205 48eb 10490000 		.4byte	0x4910
 12206 48ef 40       		.uleb128 0x40
 12207 48f0 34470000 		.4byte	0x4734
 12208 48f4 2D030000 		.4byte	.LLST38
 12209 48f8 41       		.uleb128 0x41
 12210 48f9 4E000000 		.4byte	.LVL148
 12211 48fd 154C0000 		.4byte	0x4c15
 12212 4901 39       		.uleb128 0x39
 12213 4902 01       		.uleb128 0x1
 12214 4903 50       		.byte	0x50
 12215 4904 02       		.uleb128 0x2
 12216 4905 7D       		.byte	0x7d
 12217 4906 00       		.sleb128 0
 12218 4907 39       		.uleb128 0x39
 12219 4908 01       		.uleb128 0x1
 12220 4909 51       		.byte	0x51
 12221 490a 03       		.uleb128 0x3
ARM GAS  /var/folders/qd/4mxf5pkd0zdf0b9dd1hp39180000gn/T//cc0H01tt.s 			page 216


 12222 490b 0A       		.byte	0xa
 12223 490c BD02     		.2byte	0x2bd
 12224 490e 00       		.byte	0
 12225 490f 00       		.byte	0
 12226 4910 3B       		.uleb128 0x3b
 12227 4911 1A000000 		.4byte	.LVL143
 12228 4915 E6590000 		.4byte	0x59e6
 12229 4919 2E490000 		.4byte	0x492e
 12230 491d 39       		.uleb128 0x39
 12231 491e 01       		.uleb128 0x1
 12232 491f 50       		.byte	0x50
 12233 4920 0C       		.uleb128 0xc
 12234 4921 31       		.byte	0x31
 12235 4922 74       		.byte	0x74
 12236 4923 00       		.sleb128 0
 12237 4924 74       		.byte	0x74
 12238 4925 00       		.sleb128 0
 12239 4926 30       		.byte	0x30
 12240 4927 2E       		.byte	0x2e
 12241 4928 28       		.byte	0x28
 12242 4929 0100     		.2byte	0x1
 12243 492b 16       		.byte	0x16
 12244 492c 13       		.byte	0x13
 12245 492d 00       		.byte	0
 12246 492e 3B       		.uleb128 0x3b
 12247 492f 36000000 		.4byte	.LVL146
 12248 4933 C5590000 		.4byte	0x59c5
 12249 4937 42490000 		.4byte	0x4942
 12250 493b 39       		.uleb128 0x39
 12251 493c 01       		.uleb128 0x1
 12252 493d 50       		.byte	0x50
 12253 493e 02       		.uleb128 0x2
 12254 493f 08       		.byte	0x8
 12255 4940 C8       		.byte	0xc8
 12256 4941 00       		.byte	0
 12257 4942 3B       		.uleb128 0x3b
 12258 4943 3C000000 		.4byte	.LVL147
 12259 4947 60490000 		.4byte	0x4960
 12260 494b 56490000 		.4byte	0x4956
 12261 494f 39       		.uleb128 0x39
 12262 4950 01       		.uleb128 0x1
 12263 4951 50       		.byte	0x50
 12264 4952 02       		.uleb128 0x2
 12265 4953 74       		.byte	0x74
 12266 4954 00       		.sleb128 0
 12267 4955 00       		.byte	0
 12268 4956 3A       		.uleb128 0x3a
 12269 4957 64000000 		.4byte	.LVL149
 12270 495b 0A590000 		.4byte	0x590a
 12271 495f 00       		.byte	0
 12272 4960 4A       		.uleb128 0x4a
 12273 4961 A01D0000 		.4byte	.LASF884
 12274 4965 01       		.byte	0x1
 12275 4966 C3       		.byte	0xc3
 12276 4967 00000000 		.4byte	.LFB270
 12277 496b 38000000 		.4byte	.LFE270-.LFB270
 12278 496f 01       		.uleb128 0x1
ARM GAS  /var/folders/qd/4mxf5pkd0zdf0b9dd1hp39180000gn/T//cc0H01tt.s 			page 217


 12279 4970 9C       		.byte	0x9c
 12280 4971 BA490000 		.4byte	0x49ba
 12281 4975 51       		.uleb128 0x51
 12282 4976 97000000 		.4byte	.LASF871
 12283 497a 01       		.byte	0x1
 12284 497b C3       		.byte	0xc3
 12285 497c A7450000 		.4byte	0x45a7
 12286 4980 49030000 		.4byte	.LLST33
 12287 4984 4B       		.uleb128 0x4b
 12288 4985 150D0000 		.4byte	.LASF145
 12289 4989 01       		.byte	0x1
 12290 498a C4       		.byte	0xc4
 12291 498b 41000000 		.4byte	0x41
 12292 498f 67030000 		.4byte	.LLST34
 12293 4993 3A       		.uleb128 0x3a
 12294 4994 10000000 		.4byte	.LVL135
 12295 4998 495A0000 		.4byte	0x5a49
 12296 499c 3B       		.uleb128 0x3b
 12297 499d 1A000000 		.4byte	.LVL138
 12298 49a1 545A0000 		.4byte	0x5a54
 12299 49a5 B0490000 		.4byte	0x49b0
 12300 49a9 39       		.uleb128 0x39
 12301 49aa 01       		.uleb128 0x1
 12302 49ab 50       		.byte	0x50
 12303 49ac 02       		.uleb128 0x2
 12304 49ad 75       		.byte	0x75
 12305 49ae 00       		.sleb128 0
 12306 49af 00       		.byte	0
 12307 49b0 3A       		.uleb128 0x3a
 12308 49b1 34000000 		.4byte	.LVL140
 12309 49b5 0A590000 		.4byte	0x590a
 12310 49b9 00       		.byte	0
 12311 49ba 4A       		.uleb128 0x4a
 12312 49bb 08220000 		.4byte	.LASF885
 12313 49bf 01       		.byte	0x1
 12314 49c0 BD       		.byte	0xbd
 12315 49c1 00000000 		.4byte	.LFB269
 12316 49c5 38000000 		.4byte	.LFE269-.LFB269
 12317 49c9 01       		.uleb128 0x1
 12318 49ca 9C       		.byte	0x9c
 12319 49cb 284A0000 		.4byte	0x4a28
 12320 49cf 51       		.uleb128 0x51
 12321 49d0 7C010000 		.4byte	.LASF886
 12322 49d4 01       		.byte	0x1
 12323 49d5 BD       		.byte	0xbd
 12324 49d6 284A0000 		.4byte	0x4a28
 12325 49da 85030000 		.4byte	.LLST31
 12326 49de 51       		.uleb128 0x51
 12327 49df 060D0000 		.4byte	.LASF887
 12328 49e3 01       		.byte	0x1
 12329 49e4 BD       		.byte	0xbd
 12330 49e5 41000000 		.4byte	0x41
 12331 49e9 A6030000 		.4byte	.LLST32
 12332 49ed 32       		.uleb128 0x32
 12333 49ee BF0A0000 		.4byte	.LASF888
 12334 49f2 01       		.byte	0x1
 12335 49f3 BE       		.byte	0xbe
ARM GAS  /var/folders/qd/4mxf5pkd0zdf0b9dd1hp39180000gn/T//cc0H01tt.s 			page 218


 12336 49f4 4C090000 		.4byte	0x94c
 12337 49f8 02       		.uleb128 0x2
 12338 49f9 91       		.byte	0x91
 12339 49fa 58       		.sleb128 -40
 12340 49fb 3A       		.uleb128 0x3a
 12341 49fc 12000000 		.4byte	.LVL130
 12342 4a00 335A0000 		.4byte	0x5a33
 12343 4a04 3B       		.uleb128 0x3b
 12344 4a05 22000000 		.4byte	.LVL131
 12345 4a09 2E4A0000 		.4byte	0x4a2e
 12346 4a0d 1E4A0000 		.4byte	0x4a1e
 12347 4a11 39       		.uleb128 0x39
 12348 4a12 01       		.uleb128 0x1
 12349 4a13 50       		.byte	0x50
 12350 4a14 02       		.uleb128 0x2
 12351 4a15 7D       		.byte	0x7d
 12352 4a16 00       		.sleb128 0
 12353 4a17 39       		.uleb128 0x39
 12354 4a18 01       		.uleb128 0x1
 12355 4a19 51       		.byte	0x51
 12356 4a1a 02       		.uleb128 0x2
 12357 4a1b 75       		.byte	0x75
 12358 4a1c 00       		.sleb128 0
 12359 4a1d 00       		.byte	0
 12360 4a1e 3A       		.uleb128 0x3a
 12361 4a1f 32000000 		.4byte	.LVL133
 12362 4a23 0A590000 		.4byte	0x590a
 12363 4a27 00       		.byte	0
 12364 4a28 05       		.uleb128 0x5
 12365 4a29 04       		.byte	0x4
 12366 4a2a 88090000 		.4byte	0x988
 12367 4a2e 4A       		.uleb128 0x4a
 12368 4a2f 56070000 		.4byte	.LASF889
 12369 4a33 01       		.byte	0x1
 12370 4a34 B6       		.byte	0xb6
 12371 4a35 00000000 		.4byte	.LFB268
 12372 4a39 94000000 		.4byte	.LFE268-.LFB268
 12373 4a3d 01       		.uleb128 0x1
 12374 4a3e 9C       		.byte	0x9c
 12375 4a3f B54B0000 		.4byte	0x4bb5
 12376 4a43 51       		.uleb128 0x51
 12377 4a44 BF0A0000 		.4byte	.LASF888
 12378 4a48 01       		.byte	0x1
 12379 4a49 B6       		.byte	0xb6
 12380 4a4a B54B0000 		.4byte	0x4bb5
 12381 4a4e C4030000 		.4byte	.LLST27
 12382 4a52 51       		.uleb128 0x51
 12383 4a53 060D0000 		.4byte	.LASF887
 12384 4a57 01       		.byte	0x1
 12385 4a58 B6       		.byte	0xb6
 12386 4a59 41000000 		.4byte	0x41
 12387 4a5d E5030000 		.4byte	.LLST28
 12388 4a61 31       		.uleb128 0x31
 12389 4a62 100D0000 		.4byte	.LASF890
 12390 4a66 01       		.byte	0x1
 12391 4a67 B8       		.byte	0xb8
 12392 4a68 D20B0000 		.4byte	0xbd2
ARM GAS  /var/folders/qd/4mxf5pkd0zdf0b9dd1hp39180000gn/T//cc0H01tt.s 			page 219


 12393 4a6c 4D       		.uleb128 0x4d
 12394 4a6d 98540000 		.4byte	0x5498
 12395 4a71 18000000 		.4byte	.LBB405
 12396 4a75 08020000 		.4byte	.Ldebug_ranges0+0x208
 12397 4a79 01       		.byte	0x1
 12398 4a7a B8       		.byte	0xb8
 12399 4a7b 5E4B0000 		.4byte	0x4b5e
 12400 4a7f 45       		.uleb128 0x45
 12401 4a80 08020000 		.4byte	.Ldebug_ranges0+0x208
 12402 4a84 46       		.uleb128 0x46
 12403 4a85 A8540000 		.4byte	0x54a8
 12404 4a89 4D       		.uleb128 0x4d
 12405 4a8a F0540000 		.4byte	0x54f0
 12406 4a8e 18000000 		.4byte	.LBB407
 12407 4a92 20020000 		.4byte	.Ldebug_ranges0+0x220
 12408 4a96 04       		.byte	0x4
 12409 4a97 FA       		.byte	0xfa
 12410 4a98 DE4A0000 		.4byte	0x4ade
 12411 4a9c 43       		.uleb128 0x43
 12412 4a9d 02550000 		.4byte	0x5502
 12413 4aa1 18000000 		.4byte	.LBB409
 12414 4aa5 06000000 		.4byte	.LBE409-.LBB409
 12415 4aa9 03       		.byte	0x3
 12416 4aaa 5C01     		.2byte	0x15c
 12417 4aac CB4A0000 		.4byte	0x4acb
 12418 4ab0 44       		.uleb128 0x44
 12419 4ab1 0B550000 		.4byte	0x550b
 12420 4ab5 18000000 		.4byte	.LBB410
 12421 4ab9 06000000 		.4byte	.LBE410-.LBB410
 12422 4abd 17       		.byte	0x17
 12423 4abe BF01     		.2byte	0x1bf
 12424 4ac0 40       		.uleb128 0x40
 12425 4ac1 18550000 		.4byte	0x5518
 12426 4ac5 1C040000 		.4byte	.LLST29
 12427 4ac9 00       		.byte	0
 12428 4aca 00       		.byte	0
 12429 4acb 3A       		.uleb128 0x3a
 12430 4acc 24000000 		.4byte	.LVL117
 12431 4ad0 60590000 		.4byte	0x5960
 12432 4ad4 3A       		.uleb128 0x3a
 12433 4ad5 28000000 		.4byte	.LVL118
 12434 4ad9 6B590000 		.4byte	0x596b
 12435 4add 00       		.byte	0
 12436 4ade 53       		.uleb128 0x53
 12437 4adf B4540000 		.4byte	0x54b4
 12438 4ae3 1E000000 		.4byte	.LBB413
 12439 4ae7 38020000 		.4byte	.Ldebug_ranges0+0x238
 12440 4aeb 04       		.byte	0x4
 12441 4aec FB       		.byte	0xfb
 12442 4aed 42       		.uleb128 0x42
 12443 4aee C0540000 		.4byte	0x54c0
 12444 4af2 2A000000 		.4byte	.LBB418
 12445 4af6 50020000 		.4byte	.Ldebug_ranges0+0x250
 12446 4afa 04       		.byte	0x4
 12447 4afb FC       		.byte	0xfc
 12448 4afc 45       		.uleb128 0x45
 12449 4afd 50020000 		.4byte	.Ldebug_ranges0+0x250
ARM GAS  /var/folders/qd/4mxf5pkd0zdf0b9dd1hp39180000gn/T//cc0H01tt.s 			page 220


 12450 4b01 46       		.uleb128 0x46
 12451 4b02 CD540000 		.4byte	0x54cd
 12452 4b06 43       		.uleb128 0x43
 12453 4b07 F9540000 		.4byte	0x54f9
 12454 4b0b 42000000 		.4byte	.LBB420
 12455 4b0f 06000000 		.4byte	.LBE420-.LBB420
 12456 4b13 03       		.byte	0x3
 12457 4b14 7301     		.2byte	0x173
 12458 4b16 354B0000 		.4byte	0x4b35
 12459 4b1a 44       		.uleb128 0x44
 12460 4b1b 0B550000 		.4byte	0x550b
 12461 4b1f 42000000 		.4byte	.LBB421
 12462 4b23 06000000 		.4byte	.LBE421-.LBB421
 12463 4b27 17       		.byte	0x17
 12464 4b28 CD01     		.2byte	0x1cd
 12465 4b2a 40       		.uleb128 0x40
 12466 4b2b 18550000 		.4byte	0x5518
 12467 4b2f 31040000 		.4byte	.LLST30
 12468 4b33 00       		.byte	0
 12469 4b34 00       		.byte	0
 12470 4b35 3A       		.uleb128 0x3a
 12471 4b36 2E000000 		.4byte	.LVL119
 12472 4b3a 8C590000 		.4byte	0x598c
 12473 4b3e 3A       		.uleb128 0x3a
 12474 4b3f 32000000 		.4byte	.LVL120
 12475 4b43 97590000 		.4byte	0x5997
 12476 4b47 41       		.uleb128 0x41
 12477 4b48 7C000000 		.4byte	.LVL126
 12478 4b4c A2590000 		.4byte	0x59a2
 12479 4b50 39       		.uleb128 0x39
 12480 4b51 01       		.uleb128 0x1
 12481 4b52 50       		.byte	0x50
 12482 4b53 05       		.uleb128 0x5
 12483 4b54 03       		.byte	0x3
 12484 4b55 00000000 		.4byte	.LANCHOR1
 12485 4b59 00       		.byte	0
 12486 4b5a 00       		.byte	0
 12487 4b5b 00       		.byte	0
 12488 4b5c 00       		.byte	0
 12489 4b5d 00       		.byte	0
 12490 4b5e 3A       		.uleb128 0x3a
 12491 4b5f 18000000 		.4byte	.LVL115
 12492 4b63 5F5A0000 		.4byte	0x5a5f
 12493 4b67 3B       		.uleb128 0x3b
 12494 4b68 64000000 		.4byte	.LVL123
 12495 4b6c 6A5A0000 		.4byte	0x5a6a
 12496 4b70 A24B0000 		.4byte	0x4ba2
 12497 4b74 39       		.uleb128 0x39
 12498 4b75 01       		.uleb128 0x1
 12499 4b76 50       		.byte	0x50
 12500 4b77 02       		.uleb128 0x2
 12501 4b78 76       		.byte	0x76
 12502 4b79 00       		.sleb128 0
 12503 4b7a 39       		.uleb128 0x39
 12504 4b7b 01       		.uleb128 0x1
 12505 4b7c 51       		.byte	0x51
 12506 4b7d 23       		.uleb128 0x23
ARM GAS  /var/folders/qd/4mxf5pkd0zdf0b9dd1hp39180000gn/T//cc0H01tt.s 			page 221


 12507 4b7e 77       		.byte	0x77
 12508 4b7f 00       		.sleb128 0
 12509 4b80 0A       		.byte	0xa
 12510 4b81 E803     		.2byte	0x3e8
 12511 4b83 1E       		.byte	0x1e
 12512 4b84 23       		.byte	0x23
 12513 4b85 E707     		.uleb128 0x3e7
 12514 4b87 F7       		.byte	0xf7
 12515 4b88 2C       		.uleb128 0x2c
 12516 4b89 F7       		.byte	0xf7
 12517 4b8a 25       		.uleb128 0x25
 12518 4b8b 0C       		.byte	0xc
 12519 4b8c D34D6210 		.4byte	0x10624dd3
 12520 4b90 F7       		.byte	0xf7
 12521 4b91 25       		.uleb128 0x25
 12522 4b92 1E       		.byte	0x1e
 12523 4b93 08       		.byte	0x8
 12524 4b94 20       		.byte	0x20
 12525 4b95 F7       		.byte	0xf7
 12526 4b96 25       		.uleb128 0x25
 12527 4b97 25       		.byte	0x25
 12528 4b98 F7       		.byte	0xf7
 12529 4b99 2C       		.uleb128 0x2c
 12530 4b9a F7       		.byte	0xf7
 12531 4b9b 00       		.uleb128 0
 12532 4b9c 36       		.byte	0x36
 12533 4b9d 25       		.byte	0x25
 12534 4b9e 76       		.byte	0x76
 12535 4b9f 00       		.sleb128 0
 12536 4ba0 22       		.byte	0x22
 12537 4ba1 00       		.byte	0
 12538 4ba2 3C       		.uleb128 0x3c
 12539 4ba3 76000000 		.4byte	.LVL125
 12540 4ba7 755A0000 		.4byte	0x5a75
 12541 4bab 3A       		.uleb128 0x3a
 12542 4bac 82000000 		.4byte	.LVL127
 12543 4bb0 0A590000 		.4byte	0x590a
 12544 4bb4 00       		.byte	0
 12545 4bb5 05       		.uleb128 0x5
 12546 4bb6 04       		.byte	0x4
 12547 4bb7 57090000 		.4byte	0x957
 12548 4bbb 52       		.uleb128 0x52
 12549 4bbc 71260000 		.4byte	.LASF891
 12550 4bc0 01       		.byte	0x1
 12551 4bc1 AD       		.byte	0xad
 12552 4bc2 00000000 		.4byte	.LFB267
 12553 4bc6 7C000000 		.4byte	.LFE267-.LFB267
 12554 4bca 01       		.uleb128 0x1
 12555 4bcb 9C       		.byte	0x9c
 12556 4bcc 0F4C0000 		.4byte	0x4c0f
 12557 4bd0 51       		.uleb128 0x51
 12558 4bd1 B60B0000 		.4byte	.LASF892
 12559 4bd5 01       		.byte	0x1
 12560 4bd6 AD       		.byte	0xad
 12561 4bd7 0F4C0000 		.4byte	0x4c0f
 12562 4bdb 45040000 		.4byte	.LLST49
 12563 4bdf 3A       		.uleb128 0x3a
ARM GAS  /var/folders/qd/4mxf5pkd0zdf0b9dd1hp39180000gn/T//cc0H01tt.s 			page 222


 12564 4be0 14000000 		.4byte	.LVL203
 12565 4be4 28470000 		.4byte	0x4728
 12566 4be8 3B       		.uleb128 0x3b
 12567 4be9 56000000 		.4byte	.LVL207
 12568 4bed 154C0000 		.4byte	0x4c15
 12569 4bf1 FC4B0000 		.4byte	0x4bfc
 12570 4bf5 39       		.uleb128 0x39
 12571 4bf6 01       		.uleb128 0x1
 12572 4bf7 50       		.byte	0x50
 12573 4bf8 02       		.uleb128 0x2
 12574 4bf9 7D       		.byte	0x7d
 12575 4bfa 00       		.sleb128 0
 12576 4bfb 00       		.byte	0
 12577 4bfc 3A       		.uleb128 0x3a
 12578 4bfd 5E000000 		.4byte	.LVL208
 12579 4c01 28470000 		.4byte	0x4728
 12580 4c05 3A       		.uleb128 0x3a
 12581 4c06 6E000000 		.4byte	.LVL210
 12582 4c0a 0A590000 		.4byte	0x590a
 12583 4c0e 00       		.byte	0
 12584 4c0f 05       		.uleb128 0x5
 12585 4c10 04       		.byte	0x4
 12586 4c11 560A0000 		.4byte	0xa56
 12587 4c15 4A       		.uleb128 0x4a
 12588 4c16 31070000 		.4byte	.LASF893
 12589 4c1a 01       		.byte	0x1
 12590 4c1b A8       		.byte	0xa8
 12591 4c1c 00000000 		.4byte	.LFB266
 12592 4c20 38000000 		.4byte	.LFE266-.LFB266
 12593 4c24 01       		.uleb128 0x1
 12594 4c25 9C       		.byte	0x9c
 12595 4c26 834C0000 		.4byte	0x4c83
 12596 4c2a 51       		.uleb128 0x51
 12597 4c2b 7C010000 		.4byte	.LASF886
 12598 4c2f 01       		.byte	0x1
 12599 4c30 A8       		.byte	0xa8
 12600 4c31 284A0000 		.4byte	0x4a28
 12601 4c35 63040000 		.4byte	.LLST25
 12602 4c39 51       		.uleb128 0x51
 12603 4c3a 060D0000 		.4byte	.LASF887
 12604 4c3e 01       		.byte	0x1
 12605 4c3f A8       		.byte	0xa8
 12606 4c40 41000000 		.4byte	0x41
 12607 4c44 84040000 		.4byte	.LLST26
 12608 4c48 32       		.uleb128 0x32
 12609 4c49 BF0A0000 		.4byte	.LASF888
 12610 4c4d 01       		.byte	0x1
 12611 4c4e A9       		.byte	0xa9
 12612 4c4f 4C090000 		.4byte	0x94c
 12613 4c53 02       		.uleb128 0x2
 12614 4c54 91       		.byte	0x91
 12615 4c55 58       		.sleb128 -40
 12616 4c56 3A       		.uleb128 0x3a
 12617 4c57 12000000 		.4byte	.LVL110
 12618 4c5b 335A0000 		.4byte	0x5a33
 12619 4c5f 3B       		.uleb128 0x3b
 12620 4c60 22000000 		.4byte	.LVL111
ARM GAS  /var/folders/qd/4mxf5pkd0zdf0b9dd1hp39180000gn/T//cc0H01tt.s 			page 223


 12621 4c64 834C0000 		.4byte	0x4c83
 12622 4c68 794C0000 		.4byte	0x4c79
 12623 4c6c 39       		.uleb128 0x39
 12624 4c6d 01       		.uleb128 0x1
 12625 4c6e 50       		.byte	0x50
 12626 4c6f 02       		.uleb128 0x2
 12627 4c70 7D       		.byte	0x7d
 12628 4c71 00       		.sleb128 0
 12629 4c72 39       		.uleb128 0x39
 12630 4c73 01       		.uleb128 0x1
 12631 4c74 51       		.byte	0x51
 12632 4c75 02       		.uleb128 0x2
 12633 4c76 75       		.byte	0x75
 12634 4c77 00       		.sleb128 0
 12635 4c78 00       		.byte	0
 12636 4c79 3A       		.uleb128 0x3a
 12637 4c7a 32000000 		.4byte	.LVL113
 12638 4c7e 0A590000 		.4byte	0x590a
 12639 4c82 00       		.byte	0
 12640 4c83 4A       		.uleb128 0x4a
 12641 4c84 FC140000 		.4byte	.LASF894
 12642 4c88 01       		.byte	0x1
 12643 4c89 9F       		.byte	0x9f
 12644 4c8a 00000000 		.4byte	.LFB265
 12645 4c8e D8000000 		.4byte	.LFE265-.LFB265
 12646 4c92 01       		.uleb128 0x1
 12647 4c93 9C       		.byte	0x9c
 12648 4c94 A44E0000 		.4byte	0x4ea4
 12649 4c98 51       		.uleb128 0x51
 12650 4c99 BF0A0000 		.4byte	.LASF888
 12651 4c9d 01       		.byte	0x1
 12652 4c9e 9F       		.byte	0x9f
 12653 4c9f B54B0000 		.4byte	0x4bb5
 12654 4ca3 A2040000 		.4byte	.LLST20
 12655 4ca7 51       		.uleb128 0x51
 12656 4ca8 060D0000 		.4byte	.LASF887
 12657 4cac 01       		.byte	0x1
 12658 4cad 9F       		.byte	0x9f
 12659 4cae 41000000 		.4byte	0x41
 12660 4cb2 C3040000 		.4byte	.LLST21
 12661 4cb6 31       		.uleb128 0x31
 12662 4cb7 100D0000 		.4byte	.LASF890
 12663 4cbb 01       		.byte	0x1
 12664 4cbc A2       		.byte	0xa2
 12665 4cbd D20B0000 		.4byte	0xbd2
 12666 4cc1 4D       		.uleb128 0x4d
 12667 4cc2 AC4E0000 		.4byte	0x4eac
 12668 4cc6 10000000 		.4byte	.LBB357
 12669 4cca 88010000 		.4byte	.Ldebug_ranges0+0x188
 12670 4cce 01       		.byte	0x1
 12671 4ccf A1       		.byte	0xa1
 12672 4cd0 ED4C0000 		.4byte	0x4ced
 12673 4cd4 37       		.uleb128 0x37
 12674 4cd5 B84E0000 		.4byte	0x4eb8
 12675 4cd9 02       		.uleb128 0x2
 12676 4cda 91       		.byte	0x91
 12677 4cdb 48       		.sleb128 -56
ARM GAS  /var/folders/qd/4mxf5pkd0zdf0b9dd1hp39180000gn/T//cc0H01tt.s 			page 224


 12678 4cdc 41       		.uleb128 0x41
 12679 4cdd 24000000 		.4byte	.LVL92
 12680 4ce1 1D5A0000 		.4byte	0x5a1d
 12681 4ce5 39       		.uleb128 0x39
 12682 4ce6 01       		.uleb128 0x1
 12683 4ce7 51       		.byte	0x51
 12684 4ce8 02       		.uleb128 0x2
 12685 4ce9 74       		.byte	0x74
 12686 4cea 00       		.sleb128 0
 12687 4ceb 00       		.byte	0
 12688 4cec 00       		.byte	0
 12689 4ced 4D       		.uleb128 0x4d
 12690 4cee 98540000 		.4byte	0x5498
 12691 4cf2 24000000 		.4byte	.LBB363
 12692 4cf6 A8010000 		.4byte	.Ldebug_ranges0+0x1a8
 12693 4cfa 01       		.byte	0x1
 12694 4cfb A2       		.byte	0xa2
 12695 4cfc DF4D0000 		.4byte	0x4ddf
 12696 4d00 45       		.uleb128 0x45
 12697 4d01 A8010000 		.4byte	.Ldebug_ranges0+0x1a8
 12698 4d05 46       		.uleb128 0x46
 12699 4d06 A8540000 		.4byte	0x54a8
 12700 4d0a 4D       		.uleb128 0x4d
 12701 4d0b F0540000 		.4byte	0x54f0
 12702 4d0f 24000000 		.4byte	.LBB365
 12703 4d13 C0010000 		.4byte	.Ldebug_ranges0+0x1c0
 12704 4d17 04       		.byte	0x4
 12705 4d18 FA       		.byte	0xfa
 12706 4d19 5F4D0000 		.4byte	0x4d5f
 12707 4d1d 43       		.uleb128 0x43
 12708 4d1e 02550000 		.4byte	0x5502
 12709 4d22 24000000 		.4byte	.LBB367
 12710 4d26 06000000 		.4byte	.LBE367-.LBB367
 12711 4d2a 03       		.byte	0x3
 12712 4d2b 5C01     		.2byte	0x15c
 12713 4d2d 4C4D0000 		.4byte	0x4d4c
 12714 4d31 44       		.uleb128 0x44
 12715 4d32 0B550000 		.4byte	0x550b
 12716 4d36 24000000 		.4byte	.LBB368
 12717 4d3a 06000000 		.4byte	.LBE368-.LBB368
 12718 4d3e 17       		.byte	0x17
 12719 4d3f BF01     		.2byte	0x1bf
 12720 4d41 40       		.uleb128 0x40
 12721 4d42 18550000 		.4byte	0x5518
 12722 4d46 0A050000 		.4byte	.LLST22
 12723 4d4a 00       		.byte	0
 12724 4d4b 00       		.byte	0
 12725 4d4c 3A       		.uleb128 0x3a
 12726 4d4d 30000000 		.4byte	.LVL94
 12727 4d51 60590000 		.4byte	0x5960
 12728 4d55 3A       		.uleb128 0x3a
 12729 4d56 34000000 		.4byte	.LVL95
 12730 4d5a 6B590000 		.4byte	0x596b
 12731 4d5e 00       		.byte	0
 12732 4d5f 53       		.uleb128 0x53
 12733 4d60 B4540000 		.4byte	0x54b4
 12734 4d64 2A000000 		.4byte	.LBB371
ARM GAS  /var/folders/qd/4mxf5pkd0zdf0b9dd1hp39180000gn/T//cc0H01tt.s 			page 225


 12735 4d68 D8010000 		.4byte	.Ldebug_ranges0+0x1d8
 12736 4d6c 04       		.byte	0x4
 12737 4d6d FB       		.byte	0xfb
 12738 4d6e 42       		.uleb128 0x42
 12739 4d6f C0540000 		.4byte	0x54c0
 12740 4d73 36000000 		.4byte	.LBB376
 12741 4d77 F0010000 		.4byte	.Ldebug_ranges0+0x1f0
 12742 4d7b 04       		.byte	0x4
 12743 4d7c FC       		.byte	0xfc
 12744 4d7d 45       		.uleb128 0x45
 12745 4d7e F0010000 		.4byte	.Ldebug_ranges0+0x1f0
 12746 4d82 46       		.uleb128 0x46
 12747 4d83 CD540000 		.4byte	0x54cd
 12748 4d87 43       		.uleb128 0x43
 12749 4d88 F9540000 		.4byte	0x54f9
 12750 4d8c 4E000000 		.4byte	.LBB378
 12751 4d90 06000000 		.4byte	.LBE378-.LBB378
 12752 4d94 03       		.byte	0x3
 12753 4d95 7301     		.2byte	0x173
 12754 4d97 B64D0000 		.4byte	0x4db6
 12755 4d9b 44       		.uleb128 0x44
 12756 4d9c 0B550000 		.4byte	0x550b
 12757 4da0 4E000000 		.4byte	.LBB379
 12758 4da4 06000000 		.4byte	.LBE379-.LBB379
 12759 4da8 17       		.byte	0x17
 12760 4da9 CD01     		.2byte	0x1cd
 12761 4dab 40       		.uleb128 0x40
 12762 4dac 18550000 		.4byte	0x5518
 12763 4db0 1F050000 		.4byte	.LLST23
 12764 4db4 00       		.byte	0
 12765 4db5 00       		.byte	0
 12766 4db6 3A       		.uleb128 0x3a
 12767 4db7 3A000000 		.4byte	.LVL96
 12768 4dbb 8C590000 		.4byte	0x598c
 12769 4dbf 3A       		.uleb128 0x3a
 12770 4dc0 3E000000 		.4byte	.LVL97
 12771 4dc4 97590000 		.4byte	0x5997
 12772 4dc8 41       		.uleb128 0x41
 12773 4dc9 B4000000 		.4byte	.LVL105
 12774 4dcd A2590000 		.4byte	0x59a2
 12775 4dd1 39       		.uleb128 0x39
 12776 4dd2 01       		.uleb128 0x1
 12777 4dd3 50       		.byte	0x50
 12778 4dd4 05       		.uleb128 0x5
 12779 4dd5 03       		.byte	0x3
 12780 4dd6 00000000 		.4byte	.LANCHOR1
 12781 4dda 00       		.byte	0
 12782 4ddb 00       		.byte	0
 12783 4ddc 00       		.byte	0
 12784 4ddd 00       		.byte	0
 12785 4dde 00       		.byte	0
 12786 4ddf 4E       		.uleb128 0x4e
 12787 4de0 A44E0000 		.4byte	0x4ea4
 12788 4de4 88000000 		.4byte	.LBB384
 12789 4de8 10000000 		.4byte	.LBE384-.LBB384
 12790 4dec 01       		.byte	0x1
 12791 4ded A4       		.byte	0xa4
ARM GAS  /var/folders/qd/4mxf5pkd0zdf0b9dd1hp39180000gn/T//cc0H01tt.s 			page 226


 12792 4dee 1C4E0000 		.4byte	0x4e1c
 12793 4df2 54       		.uleb128 0x54
 12794 4df3 AC4E0000 		.4byte	0x4eac
 12795 4df7 88000000 		.4byte	.LBB385
 12796 4dfb 10000000 		.4byte	.LBE385-.LBB385
 12797 4dff 01       		.byte	0x1
 12798 4e00 9C       		.byte	0x9c
 12799 4e01 37       		.uleb128 0x37
 12800 4e02 B84E0000 		.4byte	0x4eb8
 12801 4e06 03       		.uleb128 0x3
 12802 4e07 91       		.byte	0x91
 12803 4e08 B87F     		.sleb128 -72
 12804 4e0a 41       		.uleb128 0x41
 12805 4e0b 98000000 		.4byte	.LVL102
 12806 4e0f 1D5A0000 		.4byte	0x5a1d
 12807 4e13 39       		.uleb128 0x39
 12808 4e14 01       		.uleb128 0x1
 12809 4e15 51       		.byte	0x51
 12810 4e16 02       		.uleb128 0x2
 12811 4e17 7D       		.byte	0x7d
 12812 4e18 00       		.sleb128 0
 12813 4e19 00       		.byte	0
 12814 4e1a 00       		.byte	0
 12815 4e1b 00       		.byte	0
 12816 4e1c 4E       		.uleb128 0x4e
 12817 4e1d C44E0000 		.4byte	0x4ec4
 12818 4e21 98000000 		.4byte	.LBB387
 12819 4e25 06000000 		.4byte	.LBE387-.LBB387
 12820 4e29 01       		.byte	0x1
 12821 4e2a A5       		.byte	0xa5
 12822 4e2b 5C4E0000 		.4byte	0x4e5c
 12823 4e2f 54       		.uleb128 0x54
 12824 4e30 7C540000 		.4byte	0x547c
 12825 4e34 98000000 		.4byte	.LBB388
 12826 4e38 06000000 		.4byte	.LBE388-.LBB388
 12827 4e3c 01       		.byte	0x1
 12828 4e3d 94       		.byte	0x94
 12829 4e3e 40       		.uleb128 0x40
 12830 4e3f 8C540000 		.4byte	0x548c
 12831 4e43 33050000 		.4byte	.LLST24
 12832 4e47 41       		.uleb128 0x41
 12833 4e48 9E000000 		.4byte	.LVL103
 12834 4e4c FF580000 		.4byte	0x58ff
 12835 4e50 39       		.uleb128 0x39
 12836 4e51 01       		.uleb128 0x1
 12837 4e52 50       		.byte	0x50
 12838 4e53 05       		.uleb128 0x5
 12839 4e54 03       		.byte	0x3
 12840 4e55 00000000 		.4byte	.LANCHOR4
 12841 4e59 00       		.byte	0
 12842 4e5a 00       		.byte	0
 12843 4e5b 00       		.byte	0
 12844 4e5c 3B       		.uleb128 0x3b
 12845 4e5d 84000000 		.4byte	.LVL101
 12846 4e61 6A5A0000 		.4byte	0x5a6a
 12847 4e65 9A4E0000 		.4byte	0x4e9a
 12848 4e69 39       		.uleb128 0x39
ARM GAS  /var/folders/qd/4mxf5pkd0zdf0b9dd1hp39180000gn/T//cc0H01tt.s 			page 227


 12849 4e6a 01       		.uleb128 0x1
 12850 4e6b 50       		.byte	0x50
 12851 4e6c 02       		.uleb128 0x2
 12852 4e6d 77       		.byte	0x77
 12853 4e6e 00       		.sleb128 0
 12854 4e6f 39       		.uleb128 0x39
 12855 4e70 01       		.uleb128 0x1
 12856 4e71 51       		.byte	0x51
 12857 4e72 26       		.uleb128 0x26
 12858 4e73 F5       		.byte	0xf5
 12859 4e74 50       		.uleb128 0x50
 12860 4e75 3A       		.uleb128 0x3a
 12861 4e76 F7       		.byte	0xf7
 12862 4e77 2C       		.uleb128 0x2c
 12863 4e78 0A       		.byte	0xa
 12864 4e79 E803     		.2byte	0x3e8
 12865 4e7b 1E       		.byte	0x1e
 12866 4e7c 23       		.byte	0x23
 12867 4e7d E707     		.uleb128 0x3e7
 12868 4e7f F7       		.byte	0xf7
 12869 4e80 2C       		.uleb128 0x2c
 12870 4e81 F7       		.byte	0xf7
 12871 4e82 25       		.uleb128 0x25
 12872 4e83 0C       		.byte	0xc
 12873 4e84 D34D6210 		.4byte	0x10624dd3
 12874 4e88 F7       		.byte	0xf7
 12875 4e89 25       		.uleb128 0x25
 12876 4e8a 1E       		.byte	0x1e
 12877 4e8b 08       		.byte	0x8
 12878 4e8c 20       		.byte	0x20
 12879 4e8d F7       		.byte	0xf7
 12880 4e8e 25       		.uleb128 0x25
 12881 4e8f 25       		.byte	0x25
 12882 4e90 F7       		.byte	0xf7
 12883 4e91 2C       		.uleb128 0x2c
 12884 4e92 F7       		.byte	0xf7
 12885 4e93 00       		.uleb128 0
 12886 4e94 36       		.byte	0x36
 12887 4e95 25       		.byte	0x25
 12888 4e96 77       		.byte	0x77
 12889 4e97 00       		.sleb128 0
 12890 4e98 22       		.byte	0x22
 12891 4e99 00       		.byte	0
 12892 4e9a 3A       		.uleb128 0x3a
 12893 4e9b BA000000 		.4byte	.LVL107
 12894 4e9f 0A590000 		.4byte	0x590a
 12895 4ea3 00       		.byte	0
 12896 4ea4 55       		.uleb128 0x55
 12897 4ea5 06010000 		.4byte	.LASF897
 12898 4ea9 01       		.byte	0x1
 12899 4eaa 9B       		.byte	0x9b
 12900 4eab 01       		.byte	0x1
 12901 4eac 4F       		.uleb128 0x4f
 12902 4ead A81E0000 		.4byte	.LASF895
 12903 4eb1 01       		.byte	0x1
 12904 4eb2 97       		.byte	0x97
 12905 4eb3 01       		.byte	0x1
ARM GAS  /var/folders/qd/4mxf5pkd0zdf0b9dd1hp39180000gn/T//cc0H01tt.s 			page 228


 12906 4eb4 C44E0000 		.4byte	0x4ec4
 12907 4eb8 50       		.uleb128 0x50
 12908 4eb9 9A280000 		.4byte	.LASF896
 12909 4ebd 01       		.byte	0x1
 12910 4ebe 97       		.byte	0x97
 12911 4ebf 4C090000 		.4byte	0x94c
 12912 4ec3 00       		.byte	0
 12913 4ec4 55       		.uleb128 0x55
 12914 4ec5 231C0000 		.4byte	.LASF898
 12915 4ec9 01       		.byte	0x1
 12916 4eca 93       		.byte	0x93
 12917 4ecb 01       		.byte	0x1
 12918 4ecc 56       		.uleb128 0x56
 12919 4ecd E6030000 		.4byte	.LASF899
 12920 4ed1 01       		.byte	0x1
 12921 4ed2 72       		.byte	0x72
 12922 4ed3 00000000 		.4byte	.LFB261
 12923 4ed7 C8010000 		.4byte	.LFE261-.LFB261
 12924 4edb 01       		.uleb128 0x1
 12925 4edc 9C       		.byte	0x9c
 12926 4edd 17540000 		.4byte	0x5417
 12927 4ee1 48       		.uleb128 0x48
 12928 4ee2 61726700 		.ascii	"arg\000"
 12929 4ee6 01       		.byte	0x1
 12930 4ee7 72       		.byte	0x72
 12931 4ee8 6B010000 		.4byte	0x16b
 12932 4eec 4B050000 		.4byte	.LLST0
 12933 4ef0 32       		.uleb128 0x32
 12934 4ef1 92010000 		.4byte	.LASF900
 12935 4ef5 01       		.byte	0x1
 12936 4ef6 74       		.byte	0x74
 12937 4ef7 B00A0000 		.4byte	0xab0
 12938 4efb 05       		.uleb128 0x5
 12939 4efc 03       		.byte	0x3
 12940 4efd 00000000 		.4byte	isMoving.11964
 12941 4f01 32       		.uleb128 0x32
 12942 4f02 71160000 		.4byte	.LASF901
 12943 4f06 01       		.byte	0x1
 12944 4f07 75       		.byte	0x75
 12945 4f08 D20B0000 		.4byte	0xbd2
 12946 4f0c 05       		.uleb128 0x5
 12947 4f0d 03       		.byte	0x3
 12948 4f0e 00000000 		.4byte	lastOrderTime.11965
 12949 4f12 45       		.uleb128 0x45
 12950 4f13 00000000 		.4byte	.Ldebug_ranges0+0
 12951 4f17 4C       		.uleb128 0x4c
 12952 4f18 747000   		.ascii	"tp\000"
 12953 4f1b 01       		.byte	0x1
 12954 4f1c 77       		.byte	0x77
 12955 4f1d 160D0000 		.4byte	0xd16
 12956 4f21 6C050000 		.4byte	.LLST1
 12957 4f25 4B       		.uleb128 0x4b
 12958 4f26 9A280000 		.4byte	.LASF896
 12959 4f2a 01       		.byte	0x1
 12960 4f2b 78       		.byte	0x78
 12961 4f2c B54B0000 		.4byte	0x4bb5
 12962 4f30 A0050000 		.4byte	.LLST2
ARM GAS  /var/folders/qd/4mxf5pkd0zdf0b9dd1hp39180000gn/T//cc0H01tt.s 			page 229


 12963 4f34 57       		.uleb128 0x57
 12964 4f35 1C000000 		.4byte	.LBB202
 12965 4f39 9A000000 		.4byte	.LBE202-.LBB202
 12966 4f3d 7C510000 		.4byte	0x517c
 12967 4f41 31       		.uleb128 0x31
 12968 4f42 060D0000 		.4byte	.LASF887
 12969 4f46 01       		.byte	0x1
 12970 4f47 7B       		.byte	0x7b
 12971 4f48 D20B0000 		.4byte	0xbd2
 12972 4f4c 4E       		.uleb128 0x4e
 12973 4f4d 98540000 		.4byte	0x5498
 12974 4f51 1C000000 		.4byte	.LBB203
 12975 4f55 32000000 		.4byte	.LBE203-.LBB203
 12976 4f59 01       		.byte	0x1
 12977 4f5a 7B       		.byte	0x7b
 12978 4f5b 46500000 		.4byte	0x5046
 12979 4f5f 58       		.uleb128 0x58
 12980 4f60 1C000000 		.4byte	.LBB204
 12981 4f64 32000000 		.4byte	.LBE204-.LBB204
 12982 4f68 46       		.uleb128 0x46
 12983 4f69 A8540000 		.4byte	0x54a8
 12984 4f6d 4E       		.uleb128 0x4e
 12985 4f6e F0540000 		.4byte	0x54f0
 12986 4f72 1C000000 		.4byte	.LBB205
 12987 4f76 0E000000 		.4byte	.LBE205-.LBB205
 12988 4f7a 04       		.byte	0x4
 12989 4f7b FA       		.byte	0xfa
 12990 4f7c C24F0000 		.4byte	0x4fc2
 12991 4f80 43       		.uleb128 0x43
 12992 4f81 02550000 		.4byte	0x5502
 12993 4f85 1C000000 		.4byte	.LBB207
 12994 4f89 06000000 		.4byte	.LBE207-.LBB207
 12995 4f8d 03       		.byte	0x3
 12996 4f8e 5C01     		.2byte	0x15c
 12997 4f90 AF4F0000 		.4byte	0x4faf
 12998 4f94 44       		.uleb128 0x44
 12999 4f95 0B550000 		.4byte	0x550b
 13000 4f99 1C000000 		.4byte	.LBB208
 13001 4f9d 06000000 		.4byte	.LBE208-.LBB208
 13002 4fa1 17       		.byte	0x17
 13003 4fa2 BF01     		.2byte	0x1bf
 13004 4fa4 40       		.uleb128 0x40
 13005 4fa5 18550000 		.4byte	0x5518
 13006 4fa9 BE050000 		.4byte	.LLST5
 13007 4fad 00       		.byte	0
 13008 4fae 00       		.byte	0
 13009 4faf 3A       		.uleb128 0x3a
 13010 4fb0 26000000 		.4byte	.LVL3
 13011 4fb4 60590000 		.4byte	0x5960
 13012 4fb8 3A       		.uleb128 0x3a
 13013 4fb9 2A000000 		.4byte	.LVL4
 13014 4fbd 6B590000 		.4byte	0x596b
 13015 4fc1 00       		.byte	0
 13016 4fc2 59       		.uleb128 0x59
 13017 4fc3 B4540000 		.4byte	0x54b4
 13018 4fc7 2A000000 		.4byte	.LBB210
 13019 4fcb 02000000 		.4byte	.LBE210-.LBB210
ARM GAS  /var/folders/qd/4mxf5pkd0zdf0b9dd1hp39180000gn/T//cc0H01tt.s 			page 230


 13020 4fcf 04       		.byte	0x4
 13021 4fd0 FB       		.byte	0xfb
 13022 4fd1 54       		.uleb128 0x54
 13023 4fd2 C0540000 		.4byte	0x54c0
 13024 4fd6 2C000000 		.4byte	.LBB212
 13025 4fda 22000000 		.4byte	.LBE212-.LBB212
 13026 4fde 04       		.byte	0x4
 13027 4fdf FC       		.byte	0xfc
 13028 4fe0 58       		.uleb128 0x58
 13029 4fe1 2C000000 		.4byte	.LBB213
 13030 4fe5 22000000 		.4byte	.LBE213-.LBB213
 13031 4fe9 46       		.uleb128 0x46
 13032 4fea CD540000 		.4byte	0x54cd
 13033 4fee 43       		.uleb128 0x43
 13034 4fef F9540000 		.4byte	0x54f9
 13035 4ff3 4A000000 		.4byte	.LBB214
 13036 4ff7 04000000 		.4byte	.LBE214-.LBB214
 13037 4ffb 03       		.byte	0x3
 13038 4ffc 7301     		.2byte	0x173
 13039 4ffe 1D500000 		.4byte	0x501d
 13040 5002 44       		.uleb128 0x44
 13041 5003 0B550000 		.4byte	0x550b
 13042 5007 4A000000 		.4byte	.LBB215
 13043 500b 04000000 		.4byte	.LBE215-.LBB215
 13044 500f 17       		.byte	0x17
 13045 5010 CD01     		.2byte	0x1cd
 13046 5012 40       		.uleb128 0x40
 13047 5013 18550000 		.4byte	0x5518
 13048 5017 D3050000 		.4byte	.LLST6
 13049 501b 00       		.byte	0
 13050 501c 00       		.byte	0
 13051 501d 3A       		.uleb128 0x3a
 13052 501e 30000000 		.4byte	.LVL5
 13053 5022 8C590000 		.4byte	0x598c
 13054 5026 3A       		.uleb128 0x3a
 13055 5027 34000000 		.4byte	.LVL6
 13056 502b 97590000 		.4byte	0x5997
 13057 502f 41       		.uleb128 0x41
 13058 5030 4A000000 		.4byte	.LVL7
 13059 5034 A2590000 		.4byte	0x59a2
 13060 5038 39       		.uleb128 0x39
 13061 5039 01       		.uleb128 0x1
 13062 503a 50       		.byte	0x50
 13063 503b 05       		.uleb128 0x5
 13064 503c 03       		.byte	0x3
 13065 503d 00000000 		.4byte	.LANCHOR1
 13066 5041 00       		.byte	0
 13067 5042 00       		.byte	0
 13068 5043 00       		.byte	0
 13069 5044 00       		.byte	0
 13070 5045 00       		.byte	0
 13071 5046 4D       		.uleb128 0x4d
 13072 5047 98540000 		.4byte	0x5498
 13073 504b 4E000000 		.4byte	.LBB217
 13074 504f 60000000 		.4byte	.Ldebug_ranges0+0x60
 13075 5053 01       		.byte	0x1
 13076 5054 7C       		.byte	0x7c
ARM GAS  /var/folders/qd/4mxf5pkd0zdf0b9dd1hp39180000gn/T//cc0H01tt.s 			page 231


 13077 5055 3C510000 		.4byte	0x513c
 13078 5059 45       		.uleb128 0x45
 13079 505a 60000000 		.4byte	.Ldebug_ranges0+0x60
 13080 505e 46       		.uleb128 0x46
 13081 505f A8540000 		.4byte	0x54a8
 13082 5063 4D       		.uleb128 0x4d
 13083 5064 F0540000 		.4byte	0x54f0
 13084 5068 4E000000 		.4byte	.LBB219
 13085 506c 78000000 		.4byte	.Ldebug_ranges0+0x78
 13086 5070 04       		.byte	0x4
 13087 5071 FA       		.byte	0xfa
 13088 5072 B8500000 		.4byte	0x50b8
 13089 5076 3F       		.uleb128 0x3f
 13090 5077 02550000 		.4byte	0x5502
 13091 507b 4E000000 		.4byte	.LBB221
 13092 507f 90000000 		.4byte	.Ldebug_ranges0+0x90
 13093 5083 03       		.byte	0x3
 13094 5084 5C01     		.2byte	0x15c
 13095 5086 A5500000 		.4byte	0x50a5
 13096 508a 36       		.uleb128 0x36
 13097 508b 0B550000 		.4byte	0x550b
 13098 508f 4E000000 		.4byte	.LBB222
 13099 5093 90000000 		.4byte	.Ldebug_ranges0+0x90
 13100 5097 17       		.byte	0x17
 13101 5098 BF01     		.2byte	0x1bf
 13102 509a 40       		.uleb128 0x40
 13103 509b 18550000 		.4byte	0x5518
 13104 509f E7050000 		.4byte	.LLST7
 13105 50a3 00       		.byte	0
 13106 50a4 00       		.byte	0
 13107 50a5 3A       		.uleb128 0x3a
 13108 50a6 5E000000 		.4byte	.LVL11
 13109 50aa 60590000 		.4byte	0x5960
 13110 50ae 3A       		.uleb128 0x3a
 13111 50af 62000000 		.4byte	.LVL12
 13112 50b3 6B590000 		.4byte	0x596b
 13113 50b7 00       		.byte	0
 13114 50b8 59       		.uleb128 0x59
 13115 50b9 B4540000 		.4byte	0x54b4
 13116 50bd 62000000 		.4byte	.LBB229
 13117 50c1 04000000 		.4byte	.LBE229-.LBB229
 13118 50c5 04       		.byte	0x4
 13119 50c6 FB       		.byte	0xfb
 13120 50c7 54       		.uleb128 0x54
 13121 50c8 C0540000 		.4byte	0x54c0
 13122 50cc 66000000 		.4byte	.LBB231
 13123 50d0 22000000 		.4byte	.LBE231-.LBB231
 13124 50d4 04       		.byte	0x4
 13125 50d5 FC       		.byte	0xfc
 13126 50d6 58       		.uleb128 0x58
 13127 50d7 66000000 		.4byte	.LBB232
 13128 50db 22000000 		.4byte	.LBE232-.LBB232
 13129 50df 46       		.uleb128 0x46
 13130 50e0 CD540000 		.4byte	0x54cd
 13131 50e4 43       		.uleb128 0x43
 13132 50e5 F9540000 		.4byte	0x54f9
 13133 50e9 84000000 		.4byte	.LBB233
ARM GAS  /var/folders/qd/4mxf5pkd0zdf0b9dd1hp39180000gn/T//cc0H01tt.s 			page 232


 13134 50ed 04000000 		.4byte	.LBE233-.LBB233
 13135 50f1 03       		.byte	0x3
 13136 50f2 7301     		.2byte	0x173
 13137 50f4 13510000 		.4byte	0x5113
 13138 50f8 44       		.uleb128 0x44
 13139 50f9 0B550000 		.4byte	0x550b
 13140 50fd 84000000 		.4byte	.LBB234
 13141 5101 04000000 		.4byte	.LBE234-.LBB234
 13142 5105 17       		.byte	0x17
 13143 5106 CD01     		.2byte	0x1cd
 13144 5108 40       		.uleb128 0x40
 13145 5109 18550000 		.4byte	0x5518
 13146 510d FC050000 		.4byte	.LLST8
 13147 5111 00       		.byte	0
 13148 5112 00       		.byte	0
 13149 5113 3A       		.uleb128 0x3a
 13150 5114 6A000000 		.4byte	.LVL13
 13151 5118 8C590000 		.4byte	0x598c
 13152 511c 3A       		.uleb128 0x3a
 13153 511d 6E000000 		.4byte	.LVL14
 13154 5121 97590000 		.4byte	0x5997
 13155 5125 41       		.uleb128 0x41
 13156 5126 84000000 		.4byte	.LVL15
 13157 512a A2590000 		.4byte	0x59a2
 13158 512e 39       		.uleb128 0x39
 13159 512f 01       		.uleb128 0x1
 13160 5130 50       		.byte	0x50
 13161 5131 05       		.uleb128 0x5
 13162 5132 03       		.byte	0x3
 13163 5133 00000000 		.4byte	.LANCHOR1
 13164 5137 00       		.byte	0
 13165 5138 00       		.byte	0
 13166 5139 00       		.byte	0
 13167 513a 00       		.byte	0
 13168 513b 00       		.byte	0
 13169 513c 3A       		.uleb128 0x3a
 13170 513d 9A000000 		.4byte	.LVL17
 13171 5141 5F5A0000 		.4byte	0x5a5f
 13172 5145 41       		.uleb128 0x41
 13173 5146 B6000000 		.4byte	.LVL18
 13174 514a 805A0000 		.4byte	0x5a80
 13175 514e 39       		.uleb128 0x39
 13176 514f 01       		.uleb128 0x1
 13177 5150 50       		.byte	0x50
 13178 5151 05       		.uleb128 0x5
 13179 5152 03       		.byte	0x3
 13180 5153 00000000 		.4byte	.LANCHOR3
 13181 5157 39       		.uleb128 0x39
 13182 5158 01       		.uleb128 0x1
 13183 5159 51       		.byte	0x51
 13184 515a 1F       		.uleb128 0x1f
 13185 515b 76       		.byte	0x76
 13186 515c 00       		.sleb128 0
 13187 515d 0A       		.byte	0xa
 13188 515e E803     		.2byte	0x3e8
 13189 5160 1E       		.byte	0x1e
 13190 5161 31       		.byte	0x31
ARM GAS  /var/folders/qd/4mxf5pkd0zdf0b9dd1hp39180000gn/T//cc0H01tt.s 			page 233


 13191 5162 1C       		.byte	0x1c
 13192 5163 F7       		.byte	0xf7
 13193 5164 2C       		.uleb128 0x2c
 13194 5165 F7       		.byte	0xf7
 13195 5166 25       		.uleb128 0x25
 13196 5167 0C       		.byte	0xc
 13197 5168 D34D6210 		.4byte	0x10624dd3
 13198 516c F7       		.byte	0xf7
 13199 516d 25       		.uleb128 0x25
 13200 516e 1E       		.byte	0x1e
 13201 516f 08       		.byte	0x8
 13202 5170 20       		.byte	0x20
 13203 5171 F7       		.byte	0xf7
 13204 5172 25       		.uleb128 0x25
 13205 5173 25       		.byte	0x25
 13206 5174 F7       		.byte	0xf7
 13207 5175 2C       		.uleb128 0x2c
 13208 5176 F7       		.byte	0xf7
 13209 5177 00       		.uleb128 0
 13210 5178 36       		.byte	0x36
 13211 5179 25       		.byte	0x25
 13212 517a 00       		.byte	0
 13213 517b 00       		.byte	0
 13214 517c 4D       		.uleb128 0x4d
 13215 517d 98540000 		.4byte	0x5498
 13216 5181 14000000 		.4byte	.LBB182
 13217 5185 18000000 		.4byte	.Ldebug_ranges0+0x18
 13218 5189 01       		.byte	0x1
 13219 518a 81       		.byte	0x81
 13220 518b 72520000 		.4byte	0x5272
 13221 518f 45       		.uleb128 0x45
 13222 5190 18000000 		.4byte	.Ldebug_ranges0+0x18
 13223 5194 46       		.uleb128 0x46
 13224 5195 A8540000 		.4byte	0x54a8
 13225 5199 4D       		.uleb128 0x4d
 13226 519a C0540000 		.4byte	0x54c0
 13227 519e 14000000 		.4byte	.LBB184
 13228 51a2 30000000 		.4byte	.Ldebug_ranges0+0x30
 13229 51a6 04       		.byte	0x4
 13230 51a7 FC       		.byte	0xfc
 13231 51a8 0C520000 		.4byte	0x520c
 13232 51ac 45       		.uleb128 0x45
 13233 51ad 30000000 		.4byte	.Ldebug_ranges0+0x30
 13234 51b1 46       		.uleb128 0x46
 13235 51b2 CD540000 		.4byte	0x54cd
 13236 51b6 3F       		.uleb128 0x3f
 13237 51b7 F9540000 		.4byte	0x54f9
 13238 51bb 14000000 		.4byte	.LBB186
 13239 51bf 48000000 		.4byte	.Ldebug_ranges0+0x48
 13240 51c3 03       		.byte	0x3
 13241 51c4 7301     		.2byte	0x173
 13242 51c6 E5510000 		.4byte	0x51e5
 13243 51ca 36       		.uleb128 0x36
 13244 51cb 0B550000 		.4byte	0x550b
 13245 51cf 14000000 		.4byte	.LBB187
 13246 51d3 48000000 		.4byte	.Ldebug_ranges0+0x48
 13247 51d7 17       		.byte	0x17
ARM GAS  /var/folders/qd/4mxf5pkd0zdf0b9dd1hp39180000gn/T//cc0H01tt.s 			page 234


 13248 51d8 CD01     		.2byte	0x1cd
 13249 51da 40       		.uleb128 0x40
 13250 51db 18550000 		.4byte	0x5518
 13251 51df 10060000 		.4byte	.LLST3
 13252 51e3 00       		.byte	0
 13253 51e4 00       		.byte	0
 13254 51e5 3A       		.uleb128 0x3a
 13255 51e6 18010000 		.4byte	.LVL30
 13256 51ea 8C590000 		.4byte	0x598c
 13257 51ee 3A       		.uleb128 0x3a
 13258 51ef 1C010000 		.4byte	.LVL31
 13259 51f3 97590000 		.4byte	0x5997
 13260 51f7 41       		.uleb128 0x41
 13261 51f8 32010000 		.4byte	.LVL32
 13262 51fc A2590000 		.4byte	0x59a2
 13263 5200 39       		.uleb128 0x39
 13264 5201 01       		.uleb128 0x1
 13265 5202 50       		.byte	0x50
 13266 5203 05       		.uleb128 0x5
 13267 5204 03       		.byte	0x3
 13268 5205 00000000 		.4byte	.LANCHOR1
 13269 5209 00       		.byte	0
 13270 520a 00       		.byte	0
 13271 520b 00       		.byte	0
 13272 520c 4E       		.uleb128 0x4e
 13273 520d F0540000 		.4byte	0x54f0
 13274 5211 04010000 		.4byte	.LBB193
 13275 5215 0E000000 		.4byte	.LBE193-.LBB193
 13276 5219 04       		.byte	0x4
 13277 521a FA       		.byte	0xfa
 13278 521b 61520000 		.4byte	0x5261
 13279 521f 43       		.uleb128 0x43
 13280 5220 02550000 		.4byte	0x5502
 13281 5224 04010000 		.4byte	.LBB195
 13282 5228 06000000 		.4byte	.LBE195-.LBB195
 13283 522c 03       		.byte	0x3
 13284 522d 5C01     		.2byte	0x15c
 13285 522f 4E520000 		.4byte	0x524e
 13286 5233 44       		.uleb128 0x44
 13287 5234 0B550000 		.4byte	0x550b
 13288 5238 04010000 		.4byte	.LBB196
 13289 523c 06000000 		.4byte	.LBE196-.LBB196
 13290 5240 17       		.byte	0x17
 13291 5241 BF01     		.2byte	0x1bf
 13292 5243 40       		.uleb128 0x40
 13293 5244 18550000 		.4byte	0x5518
 13294 5248 24060000 		.4byte	.LLST4
 13295 524c 00       		.byte	0
 13296 524d 00       		.byte	0
 13297 524e 3A       		.uleb128 0x3a
 13298 524f 0E010000 		.4byte	.LVL28
 13299 5253 60590000 		.4byte	0x5960
 13300 5257 3A       		.uleb128 0x3a
 13301 5258 12010000 		.4byte	.LVL29
 13302 525c 6B590000 		.4byte	0x596b
 13303 5260 00       		.byte	0
 13304 5261 59       		.uleb128 0x59
ARM GAS  /var/folders/qd/4mxf5pkd0zdf0b9dd1hp39180000gn/T//cc0H01tt.s 			page 235


 13305 5262 B4540000 		.4byte	0x54b4
 13306 5266 12010000 		.4byte	.LBB198
 13307 526a 02000000 		.4byte	.LBE198-.LBB198
 13308 526e 04       		.byte	0x4
 13309 526f FB       		.byte	0xfb
 13310 5270 00       		.byte	0
 13311 5271 00       		.byte	0
 13312 5272 4E       		.uleb128 0x4e
 13313 5273 17540000 		.4byte	0x5417
 13314 5277 54010000 		.4byte	.LBB239
 13315 527b 74000000 		.4byte	.LBE239-.LBB239
 13316 527f 01       		.byte	0x1
 13317 5280 88       		.byte	0x88
 13318 5281 B3530000 		.4byte	0x53b3
 13319 5285 54       		.uleb128 0x54
 13320 5286 42540000 		.4byte	0x5442
 13321 528a 54010000 		.4byte	.LBB240
 13322 528e 74000000 		.4byte	.LBE240-.LBB240
 13323 5292 01       		.byte	0x1
 13324 5293 6E       		.byte	0x6e
 13325 5294 37       		.uleb128 0x37
 13326 5295 4F540000 		.4byte	0x544f
 13327 5299 06       		.uleb128 0x6
 13328 529a 03       		.byte	0x3
 13329 529b 00000000 		.4byte	wipEndMovingSignal_sem
 13330 529f 9F       		.byte	0x9f
 13331 52a0 43       		.uleb128 0x43
 13332 52a1 F0540000 		.4byte	0x54f0
 13333 52a5 54010000 		.4byte	.LBB242
 13334 52a9 0E000000 		.4byte	.LBE242-.LBB242
 13335 52ad 05       		.byte	0x5
 13336 52ae 1C01     		.2byte	0x11c
 13337 52b0 F6520000 		.4byte	0x52f6
 13338 52b4 43       		.uleb128 0x43
 13339 52b5 02550000 		.4byte	0x5502
 13340 52b9 54010000 		.4byte	.LBB244
 13341 52bd 06000000 		.4byte	.LBE244-.LBB244
 13342 52c1 03       		.byte	0x3
 13343 52c2 5C01     		.2byte	0x15c
 13344 52c4 E3520000 		.4byte	0x52e3
 13345 52c8 44       		.uleb128 0x44
 13346 52c9 0B550000 		.4byte	0x550b
 13347 52cd 54010000 		.4byte	.LBB245
 13348 52d1 06000000 		.4byte	.LBE245-.LBB245
 13349 52d5 17       		.byte	0x17
 13350 52d6 BF01     		.2byte	0x1bf
 13351 52d8 40       		.uleb128 0x40
 13352 52d9 18550000 		.4byte	0x5518
 13353 52dd 39060000 		.4byte	.LLST9
 13354 52e1 00       		.byte	0
 13355 52e2 00       		.byte	0
 13356 52e3 3A       		.uleb128 0x3a
 13357 52e4 5E010000 		.4byte	.LVL38
 13358 52e8 60590000 		.4byte	0x5960
 13359 52ec 3A       		.uleb128 0x3a
 13360 52ed 62010000 		.4byte	.LVL39
 13361 52f1 6B590000 		.4byte	0x596b
ARM GAS  /var/folders/qd/4mxf5pkd0zdf0b9dd1hp39180000gn/T//cc0H01tt.s 			page 236


 13362 52f5 00       		.byte	0
 13363 52f6 3F       		.uleb128 0x3f
 13364 52f7 62540000 		.4byte	0x5462
 13365 52fb 62010000 		.4byte	.LBB247
 13366 52ff A8000000 		.4byte	.Ldebug_ranges0+0xa8
 13367 5303 05       		.byte	0x5
 13368 5304 1D01     		.2byte	0x11d
 13369 5306 30530000 		.4byte	0x5330
 13370 530a 40       		.uleb128 0x40
 13371 530b 6F540000 		.4byte	0x546f
 13372 530f 4E060000 		.4byte	.LLST10
 13373 5313 3A       		.uleb128 0x3a
 13374 5314 66010000 		.4byte	.LVL40
 13375 5318 76590000 		.4byte	0x5976
 13376 531c 41       		.uleb128 0x41
 13377 531d 9C010000 		.4byte	.LVL48
 13378 5321 81590000 		.4byte	0x5981
 13379 5325 39       		.uleb128 0x39
 13380 5326 01       		.uleb128 0x1
 13381 5327 50       		.byte	0x50
 13382 5328 05       		.uleb128 0x5
 13383 5329 03       		.byte	0x3
 13384 532a 00000000 		.4byte	.LANCHOR4
 13385 532e 00       		.byte	0
 13386 532f 00       		.byte	0
 13387 5330 43       		.uleb128 0x43
 13388 5331 C0540000 		.4byte	0x54c0
 13389 5335 72010000 		.4byte	.LBB250
 13390 5339 24000000 		.4byte	.LBE250-.LBB250
 13391 533d 05       		.byte	0x5
 13392 533e 1F01     		.2byte	0x11f
 13393 5340 A8530000 		.4byte	0x53a8
 13394 5344 58       		.uleb128 0x58
 13395 5345 72010000 		.4byte	.LBB251
 13396 5349 24000000 		.4byte	.LBE251-.LBB251
 13397 534d 46       		.uleb128 0x46
 13398 534e CD540000 		.4byte	0x54cd
 13399 5352 43       		.uleb128 0x43
 13400 5353 F9540000 		.4byte	0x54f9
 13401 5357 90010000 		.4byte	.LBB252
 13402 535b 06000000 		.4byte	.LBE252-.LBB252
 13403 535f 03       		.byte	0x3
 13404 5360 7301     		.2byte	0x173
 13405 5362 81530000 		.4byte	0x5381
 13406 5366 44       		.uleb128 0x44
 13407 5367 0B550000 		.4byte	0x550b
 13408 536b 90010000 		.4byte	.LBB253
 13409 536f 06000000 		.4byte	.LBE253-.LBB253
 13410 5373 17       		.byte	0x17
 13411 5374 CD01     		.2byte	0x1cd
 13412 5376 40       		.uleb128 0x40
 13413 5377 18550000 		.4byte	0x5518
 13414 537b 76060000 		.4byte	.LLST11
 13415 537f 00       		.byte	0
 13416 5380 00       		.byte	0
 13417 5381 3A       		.uleb128 0x3a
 13418 5382 76010000 		.4byte	.LVL43
ARM GAS  /var/folders/qd/4mxf5pkd0zdf0b9dd1hp39180000gn/T//cc0H01tt.s 			page 237


 13419 5386 8C590000 		.4byte	0x598c
 13420 538a 3A       		.uleb128 0x3a
 13421 538b 7A010000 		.4byte	.LVL44
 13422 538f 97590000 		.4byte	0x5997
 13423 5393 41       		.uleb128 0x41
 13424 5394 90010000 		.4byte	.LVL45
 13425 5398 A2590000 		.4byte	0x59a2
 13426 539c 39       		.uleb128 0x39
 13427 539d 01       		.uleb128 0x1
 13428 539e 50       		.byte	0x50
 13429 539f 05       		.uleb128 0x5
 13430 53a0 03       		.byte	0x3
 13431 53a1 00000000 		.4byte	.LANCHOR1
 13432 53a5 00       		.byte	0
 13433 53a6 00       		.byte	0
 13434 53a7 00       		.byte	0
 13435 53a8 3A       		.uleb128 0x3a
 13436 53a9 72010000 		.4byte	.LVL42
 13437 53ad AE590000 		.4byte	0x59ae
 13438 53b1 00       		.byte	0
 13439 53b2 00       		.byte	0
 13440 53b3 3B       		.uleb128 0x3b
 13441 53b4 DC000000 		.4byte	.LVL21
 13442 53b8 BA590000 		.4byte	0x59ba
 13443 53bc D0530000 		.4byte	0x53d0
 13444 53c0 39       		.uleb128 0x39
 13445 53c1 01       		.uleb128 0x1
 13446 53c2 50       		.byte	0x50
 13447 53c3 05       		.uleb128 0x5
 13448 53c4 03       		.byte	0x3
 13449 53c5 14000000 		.4byte	.LC1
 13450 53c9 39       		.uleb128 0x39
 13451 53ca 01       		.uleb128 0x1
 13452 53cb 51       		.byte	0x51
 13453 53cc 02       		.uleb128 0x2
 13454 53cd 7A       		.byte	0x7a
 13455 53ce 00       		.sleb128 0
 13456 53cf 00       		.byte	0
 13457 53d0 3B       		.uleb128 0x3b
 13458 53d1 F4000000 		.4byte	.LVL23
 13459 53d5 8B5A0000 		.4byte	0x5a8b
 13460 53d9 EA530000 		.4byte	0x53ea
 13461 53dd 39       		.uleb128 0x39
 13462 53de 01       		.uleb128 0x1
 13463 53df 50       		.byte	0x50
 13464 53e0 02       		.uleb128 0x2
 13465 53e1 75       		.byte	0x75
 13466 53e2 00       		.sleb128 0
 13467 53e3 39       		.uleb128 0x39
 13468 53e4 01       		.uleb128 0x1
 13469 53e5 51       		.byte	0x51
 13470 53e6 02       		.uleb128 0x2
 13471 53e7 7A       		.byte	0x7a
 13472 53e8 00       		.sleb128 0
 13473 53e9 00       		.byte	0
 13474 53ea 3A       		.uleb128 0x3a
 13475 53eb F8000000 		.4byte	.LVL24
ARM GAS  /var/folders/qd/4mxf5pkd0zdf0b9dd1hp39180000gn/T//cc0H01tt.s 			page 238


 13476 53ef 965A0000 		.4byte	0x5a96
 13477 53f3 3A       		.uleb128 0x3a
 13478 53f4 46010000 		.4byte	.LVL34
 13479 53f8 5F5A0000 		.4byte	0x5a5f
 13480 53fc 41       		.uleb128 0x41
 13481 53fd 50010000 		.4byte	.LVL35
 13482 5401 BA590000 		.4byte	0x59ba
 13483 5405 39       		.uleb128 0x39
 13484 5406 01       		.uleb128 0x1
 13485 5407 50       		.byte	0x50
 13486 5408 05       		.uleb128 0x5
 13487 5409 03       		.byte	0x3
 13488 540a 00000000 		.4byte	.LC0
 13489 540e 39       		.uleb128 0x39
 13490 540f 01       		.uleb128 0x1
 13491 5410 51       		.byte	0x51
 13492 5411 02       		.uleb128 0x2
 13493 5412 7A       		.byte	0x7a
 13494 5413 00       		.sleb128 0
 13495 5414 00       		.byte	0
 13496 5415 00       		.byte	0
 13497 5416 00       		.byte	0
 13498 5417 55       		.uleb128 0x55
 13499 5418 BA090000 		.4byte	.LASF902
 13500 541c 01       		.byte	0x1
 13501 541d 6D       		.byte	0x6d
 13502 541e 01       		.byte	0x1
 13503 541f 55       		.uleb128 0x55
 13504 5420 F7010000 		.4byte	.LASF903
 13505 5424 01       		.byte	0x1
 13506 5425 69       		.byte	0x69
 13507 5426 01       		.byte	0x1
 13508 5427 5A       		.uleb128 0x5a
 13509 5428 9F1E0000 		.4byte	.LASF906
 13510 542c 3F       		.byte	0x3f
 13511 542d 60       		.byte	0x60
 13512 542e 9B0B0000 		.4byte	0xb9b
 13513 5432 03       		.byte	0x3
 13514 5433 42540000 		.4byte	0x5442
 13515 5437 5B       		.uleb128 0x5b
 13516 5438 747000   		.ascii	"tp\000"
 13517 543b 3F       		.byte	0x3f
 13518 543c 60       		.byte	0x60
 13519 543d 160D0000 		.4byte	0xd16
 13520 5441 00       		.byte	0
 13521 5442 5C       		.uleb128 0x5c
 13522 5443 DC180000 		.4byte	.LASF904
 13523 5447 05       		.byte	0x5
 13524 5448 1A01     		.2byte	0x11a
 13525 544a 03       		.byte	0x3
 13526 544b 5C540000 		.4byte	0x545c
 13527 544f 5D       		.uleb128 0x5d
 13528 5450 62737000 		.ascii	"bsp\000"
 13529 5454 05       		.byte	0x5
 13530 5455 1A01     		.2byte	0x11a
 13531 5457 5C540000 		.4byte	0x545c
 13532 545b 00       		.byte	0
ARM GAS  /var/folders/qd/4mxf5pkd0zdf0b9dd1hp39180000gn/T//cc0H01tt.s 			page 239


 13533 545c 05       		.uleb128 0x5
 13534 545d 04       		.byte	0x4
 13535 545e E71B0000 		.4byte	0x1be7
 13536 5462 5C       		.uleb128 0x5c
 13537 5463 9C200000 		.4byte	.LASF905
 13538 5467 05       		.byte	0x5
 13539 5468 0A01     		.2byte	0x10a
 13540 546a 03       		.byte	0x3
 13541 546b 7C540000 		.4byte	0x547c
 13542 546f 5D       		.uleb128 0x5d
 13543 5470 62737000 		.ascii	"bsp\000"
 13544 5474 05       		.byte	0x5
 13545 5475 0A01     		.2byte	0x10a
 13546 5477 5C540000 		.4byte	0x545c
 13547 547b 00       		.byte	0
 13548 547c 5A       		.uleb128 0x5a
 13549 547d 00260000 		.4byte	.LASF907
 13550 5481 05       		.byte	0x5
 13551 5482 8D       		.byte	0x8d
 13552 5483 9B0B0000 		.4byte	0xb9b
 13553 5487 03       		.byte	0x3
 13554 5488 98540000 		.4byte	0x5498
 13555 548c 5B       		.uleb128 0x5b
 13556 548d 62737000 		.ascii	"bsp\000"
 13557 5491 05       		.byte	0x5
 13558 5492 8D       		.byte	0x8d
 13559 5493 5C540000 		.4byte	0x545c
 13560 5497 00       		.byte	0
 13561 5498 5A       		.uleb128 0x5a
 13562 5499 56260000 		.4byte	.LASF908
 13563 549d 04       		.byte	0x4
 13564 549e F7       		.byte	0xf7
 13565 549f D20B0000 		.4byte	0xbd2
 13566 54a3 03       		.byte	0x3
 13567 54a4 B4540000 		.4byte	0x54b4
 13568 54a8 31       		.uleb128 0x31
 13569 54a9 28270000 		.4byte	.LASF909
 13570 54ad 04       		.byte	0x4
 13571 54ae F8       		.byte	0xf8
 13572 54af D20B0000 		.4byte	0xbd2
 13573 54b3 00       		.byte	0
 13574 54b4 5E       		.uleb128 0x5e
 13575 54b5 CE200000 		.4byte	.LASF957
 13576 54b9 04       		.byte	0x4
 13577 54ba E4       		.byte	0xe4
 13578 54bb D20B0000 		.4byte	0xbd2
 13579 54bf 03       		.byte	0x3
 13580 54c0 5C       		.uleb128 0x5c
 13581 54c1 7B230000 		.4byte	.LASF910
 13582 54c5 03       		.byte	0x3
 13583 54c6 6601     		.2byte	0x166
 13584 54c8 03       		.byte	0x3
 13585 54c9 DB540000 		.4byte	0x54db
 13586 54cd 5F       		.uleb128 0x5f
 13587 54ce 64000000 		.4byte	.LASF911
 13588 54d2 EB540000 		.4byte	0x54eb
 13589 54d6 7B230000 		.4byte	.LASF910
ARM GAS  /var/folders/qd/4mxf5pkd0zdf0b9dd1hp39180000gn/T//cc0H01tt.s 			page 240


 13590 54da 00       		.byte	0
 13591 54db 0A       		.uleb128 0xa
 13592 54dc 7A010000 		.4byte	0x17a
 13593 54e0 EB540000 		.4byte	0x54eb
 13594 54e4 0B       		.uleb128 0xb
 13595 54e5 2C000000 		.4byte	0x2c
 13596 54e9 0B       		.byte	0xb
 13597 54ea 00       		.byte	0
 13598 54eb 0F       		.uleb128 0xf
 13599 54ec DB540000 		.4byte	0x54db
 13600 54f0 60       		.uleb128 0x60
 13601 54f1 AF1A0000 		.4byte	.LASF912
 13602 54f5 03       		.byte	0x3
 13603 54f6 5A01     		.2byte	0x15a
 13604 54f8 03       		.byte	0x3
 13605 54f9 60       		.uleb128 0x60
 13606 54fa 6B1A0000 		.4byte	.LASF913
 13607 54fe 17       		.byte	0x17
 13608 54ff CA01     		.2byte	0x1ca
 13609 5501 03       		.byte	0x3
 13610 5502 60       		.uleb128 0x60
 13611 5503 661C0000 		.4byte	.LASF914
 13612 5507 17       		.byte	0x17
 13613 5508 BC01     		.2byte	0x1bc
 13614 550a 03       		.byte	0x3
 13615 550b 5C       		.uleb128 0x5c
 13616 550c 4F270000 		.4byte	.LASF915
 13617 5510 02       		.byte	0x2
 13618 5511 2002     		.2byte	0x220
 13619 5513 03       		.byte	0x3
 13620 5514 25550000 		.4byte	0x5525
 13621 5518 61       		.uleb128 0x61
 13622 5519 150D0000 		.4byte	.LASF145
 13623 551d 02       		.byte	0x2
 13624 551e 2002     		.2byte	0x220
 13625 5520 2E0B0000 		.4byte	0xb2e
 13626 5524 00       		.byte	0
 13627 5525 62       		.uleb128 0x62
 13628 5526 1F540000 		.4byte	0x541f
 13629 552a 00000000 		.4byte	.LFB259
 13630 552e 78000000 		.4byte	.LFE259-.LFB259
 13631 5532 01       		.uleb128 0x1
 13632 5533 9C       		.byte	0x9c
 13633 5534 62560000 		.4byte	0x5662
 13634 5538 4D       		.uleb128 0x4d
 13635 5539 42540000 		.4byte	0x5442
 13636 553d 0A000000 		.4byte	.LBB271
 13637 5541 C0000000 		.4byte	.Ldebug_ranges0+0xc0
 13638 5545 01       		.byte	0x1
 13639 5546 6A       		.byte	0x6a
 13640 5547 58560000 		.4byte	0x5658
 13641 554b 40       		.uleb128 0x40
 13642 554c 4F540000 		.4byte	0x544f
 13643 5550 8A060000 		.4byte	.LLST12
 13644 5554 43       		.uleb128 0x43
 13645 5555 F0540000 		.4byte	0x54f0
 13646 5559 0A000000 		.4byte	.LBB273
ARM GAS  /var/folders/qd/4mxf5pkd0zdf0b9dd1hp39180000gn/T//cc0H01tt.s 			page 241


 13647 555d 0E000000 		.4byte	.LBE273-.LBB273
 13648 5561 05       		.byte	0x5
 13649 5562 1C01     		.2byte	0x11c
 13650 5564 AA550000 		.4byte	0x55aa
 13651 5568 43       		.uleb128 0x43
 13652 5569 02550000 		.4byte	0x5502
 13653 556d 0A000000 		.4byte	.LBB275
 13654 5571 06000000 		.4byte	.LBE275-.LBB275
 13655 5575 03       		.byte	0x3
 13656 5576 5C01     		.2byte	0x15c
 13657 5578 97550000 		.4byte	0x5597
 13658 557c 44       		.uleb128 0x44
 13659 557d 0B550000 		.4byte	0x550b
 13660 5581 0A000000 		.4byte	.LBB276
 13661 5585 06000000 		.4byte	.LBE276-.LBB276
 13662 5589 17       		.byte	0x17
 13663 558a BF01     		.2byte	0x1bf
 13664 558c 40       		.uleb128 0x40
 13665 558d 18550000 		.4byte	0x5518
 13666 5591 B2060000 		.4byte	.LLST13
 13667 5595 00       		.byte	0
 13668 5596 00       		.byte	0
 13669 5597 3A       		.uleb128 0x3a
 13670 5598 14000000 		.4byte	.LVL51
 13671 559c 60590000 		.4byte	0x5960
 13672 55a0 3A       		.uleb128 0x3a
 13673 55a1 18000000 		.4byte	.LVL52
 13674 55a5 6B590000 		.4byte	0x596b
 13675 55a9 00       		.byte	0
 13676 55aa 3F       		.uleb128 0x3f
 13677 55ab 62540000 		.4byte	0x5462
 13678 55af 18000000 		.4byte	.LBB278
 13679 55b3 D8000000 		.4byte	.Ldebug_ranges0+0xd8
 13680 55b7 05       		.byte	0x5
 13681 55b8 1D01     		.2byte	0x11d
 13682 55ba DA550000 		.4byte	0x55da
 13683 55be 40       		.uleb128 0x40
 13684 55bf 6F540000 		.4byte	0x546f
 13685 55c3 C7060000 		.4byte	.LLST14
 13686 55c7 3A       		.uleb128 0x3a
 13687 55c8 1C000000 		.4byte	.LVL53
 13688 55cc 76590000 		.4byte	0x5976
 13689 55d0 3A       		.uleb128 0x3a
 13690 55d1 60000000 		.4byte	.LVL63
 13691 55d5 81590000 		.4byte	0x5981
 13692 55d9 00       		.byte	0
 13693 55da 3F       		.uleb128 0x3f
 13694 55db C0540000 		.4byte	0x54c0
 13695 55df 28000000 		.4byte	.LBB281
 13696 55e3 F0000000 		.4byte	.Ldebug_ranges0+0xf0
 13697 55e7 05       		.byte	0x5
 13698 55e8 1F01     		.2byte	0x11f
 13699 55ea 4E560000 		.4byte	0x564e
 13700 55ee 45       		.uleb128 0x45
 13701 55ef F0000000 		.4byte	.Ldebug_ranges0+0xf0
 13702 55f3 46       		.uleb128 0x46
 13703 55f4 CD540000 		.4byte	0x54cd
ARM GAS  /var/folders/qd/4mxf5pkd0zdf0b9dd1hp39180000gn/T//cc0H01tt.s 			page 242


 13704 55f8 43       		.uleb128 0x43
 13705 55f9 F9540000 		.4byte	0x54f9
 13706 55fd 42000000 		.4byte	.LBB283
 13707 5601 06000000 		.4byte	.LBE283-.LBB283
 13708 5605 03       		.byte	0x3
 13709 5606 7301     		.2byte	0x173
 13710 5608 27560000 		.4byte	0x5627
 13711 560c 44       		.uleb128 0x44
 13712 560d 0B550000 		.4byte	0x550b
 13713 5611 42000000 		.4byte	.LBB284
 13714 5615 06000000 		.4byte	.LBE284-.LBB284
 13715 5619 17       		.byte	0x17
 13716 561a CD01     		.2byte	0x1cd
 13717 561c 40       		.uleb128 0x40
 13718 561d 18550000 		.4byte	0x5518
 13719 5621 EF060000 		.4byte	.LLST15
 13720 5625 00       		.byte	0
 13721 5626 00       		.byte	0
 13722 5627 3A       		.uleb128 0x3a
 13723 5628 2C000000 		.4byte	.LVL56
 13724 562c 8C590000 		.4byte	0x598c
 13725 5630 3A       		.uleb128 0x3a
 13726 5631 30000000 		.4byte	.LVL57
 13727 5635 97590000 		.4byte	0x5997
 13728 5639 41       		.uleb128 0x41
 13729 563a 5A000000 		.4byte	.LVL61
 13730 563e A2590000 		.4byte	0x59a2
 13731 5642 39       		.uleb128 0x39
 13732 5643 01       		.uleb128 0x1
 13733 5644 50       		.byte	0x50
 13734 5645 05       		.uleb128 0x5
 13735 5646 03       		.byte	0x3
 13736 5647 00000000 		.4byte	.LANCHOR1
 13737 564b 00       		.byte	0
 13738 564c 00       		.byte	0
 13739 564d 00       		.byte	0
 13740 564e 3A       		.uleb128 0x3a
 13741 564f 28000000 		.4byte	.LVL55
 13742 5653 AE590000 		.4byte	0x59ae
 13743 5657 00       		.byte	0
 13744 5658 3A       		.uleb128 0x3a
 13745 5659 66000000 		.4byte	.LVL65
 13746 565d 0A590000 		.4byte	0x590a
 13747 5661 00       		.byte	0
 13748 5662 62       		.uleb128 0x62
 13749 5663 17540000 		.4byte	0x5417
 13750 5667 00000000 		.4byte	.LFB260
 13751 566b 78000000 		.4byte	.LFE260-.LFB260
 13752 566f 01       		.uleb128 0x1
 13753 5670 9C       		.byte	0x9c
 13754 5671 9F570000 		.4byte	0x579f
 13755 5675 4D       		.uleb128 0x4d
 13756 5676 42540000 		.4byte	0x5442
 13757 567a 0A000000 		.4byte	.LBB305
 13758 567e 08010000 		.4byte	.Ldebug_ranges0+0x108
 13759 5682 01       		.byte	0x1
 13760 5683 6E       		.byte	0x6e
ARM GAS  /var/folders/qd/4mxf5pkd0zdf0b9dd1hp39180000gn/T//cc0H01tt.s 			page 243


 13761 5684 95570000 		.4byte	0x5795
 13762 5688 40       		.uleb128 0x40
 13763 5689 4F540000 		.4byte	0x544f
 13764 568d 03070000 		.4byte	.LLST16
 13765 5691 43       		.uleb128 0x43
 13766 5692 F0540000 		.4byte	0x54f0
 13767 5696 0A000000 		.4byte	.LBB307
 13768 569a 0E000000 		.4byte	.LBE307-.LBB307
 13769 569e 05       		.byte	0x5
 13770 569f 1C01     		.2byte	0x11c
 13771 56a1 E7560000 		.4byte	0x56e7
 13772 56a5 43       		.uleb128 0x43
 13773 56a6 02550000 		.4byte	0x5502
 13774 56aa 0A000000 		.4byte	.LBB309
 13775 56ae 06000000 		.4byte	.LBE309-.LBB309
 13776 56b2 03       		.byte	0x3
 13777 56b3 5C01     		.2byte	0x15c
 13778 56b5 D4560000 		.4byte	0x56d4
 13779 56b9 44       		.uleb128 0x44
 13780 56ba 0B550000 		.4byte	0x550b
 13781 56be 0A000000 		.4byte	.LBB310
 13782 56c2 06000000 		.4byte	.LBE310-.LBB310
 13783 56c6 17       		.byte	0x17
 13784 56c7 BF01     		.2byte	0x1bf
 13785 56c9 40       		.uleb128 0x40
 13786 56ca 18550000 		.4byte	0x5518
 13787 56ce 2B070000 		.4byte	.LLST17
 13788 56d2 00       		.byte	0
 13789 56d3 00       		.byte	0
 13790 56d4 3A       		.uleb128 0x3a
 13791 56d5 14000000 		.4byte	.LVL68
 13792 56d9 60590000 		.4byte	0x5960
 13793 56dd 3A       		.uleb128 0x3a
 13794 56de 18000000 		.4byte	.LVL69
 13795 56e2 6B590000 		.4byte	0x596b
 13796 56e6 00       		.byte	0
 13797 56e7 3F       		.uleb128 0x3f
 13798 56e8 62540000 		.4byte	0x5462
 13799 56ec 18000000 		.4byte	.LBB312
 13800 56f0 20010000 		.4byte	.Ldebug_ranges0+0x120
 13801 56f4 05       		.byte	0x5
 13802 56f5 1D01     		.2byte	0x11d
 13803 56f7 17570000 		.4byte	0x5717
 13804 56fb 40       		.uleb128 0x40
 13805 56fc 6F540000 		.4byte	0x546f
 13806 5700 40070000 		.4byte	.LLST18
 13807 5704 3A       		.uleb128 0x3a
 13808 5705 1C000000 		.4byte	.LVL70
 13809 5709 76590000 		.4byte	0x5976
 13810 570d 3A       		.uleb128 0x3a
 13811 570e 60000000 		.4byte	.LVL80
 13812 5712 81590000 		.4byte	0x5981
 13813 5716 00       		.byte	0
 13814 5717 3F       		.uleb128 0x3f
 13815 5718 C0540000 		.4byte	0x54c0
 13816 571c 28000000 		.4byte	.LBB315
 13817 5720 38010000 		.4byte	.Ldebug_ranges0+0x138
ARM GAS  /var/folders/qd/4mxf5pkd0zdf0b9dd1hp39180000gn/T//cc0H01tt.s 			page 244


 13818 5724 05       		.byte	0x5
 13819 5725 1F01     		.2byte	0x11f
 13820 5727 8B570000 		.4byte	0x578b
 13821 572b 45       		.uleb128 0x45
 13822 572c 38010000 		.4byte	.Ldebug_ranges0+0x138
 13823 5730 46       		.uleb128 0x46
 13824 5731 CD540000 		.4byte	0x54cd
 13825 5735 43       		.uleb128 0x43
 13826 5736 F9540000 		.4byte	0x54f9
 13827 573a 42000000 		.4byte	.LBB317
 13828 573e 06000000 		.4byte	.LBE317-.LBB317
 13829 5742 03       		.byte	0x3
 13830 5743 7301     		.2byte	0x173
 13831 5745 64570000 		.4byte	0x5764
 13832 5749 44       		.uleb128 0x44
 13833 574a 0B550000 		.4byte	0x550b
 13834 574e 42000000 		.4byte	.LBB318
 13835 5752 06000000 		.4byte	.LBE318-.LBB318
 13836 5756 17       		.byte	0x17
 13837 5757 CD01     		.2byte	0x1cd
 13838 5759 40       		.uleb128 0x40
 13839 575a 18550000 		.4byte	0x5518
 13840 575e 68070000 		.4byte	.LLST19
 13841 5762 00       		.byte	0
 13842 5763 00       		.byte	0
 13843 5764 3A       		.uleb128 0x3a
 13844 5765 2C000000 		.4byte	.LVL73
 13845 5769 8C590000 		.4byte	0x598c
 13846 576d 3A       		.uleb128 0x3a
 13847 576e 30000000 		.4byte	.LVL74
 13848 5772 97590000 		.4byte	0x5997
 13849 5776 41       		.uleb128 0x41
 13850 5777 5A000000 		.4byte	.LVL78
 13851 577b A2590000 		.4byte	0x59a2
 13852 577f 39       		.uleb128 0x39
 13853 5780 01       		.uleb128 0x1
 13854 5781 50       		.byte	0x50
 13855 5782 05       		.uleb128 0x5
 13856 5783 03       		.byte	0x3
 13857 5784 00000000 		.4byte	.LANCHOR1
 13858 5788 00       		.byte	0
 13859 5789 00       		.byte	0
 13860 578a 00       		.byte	0
 13861 578b 3A       		.uleb128 0x3a
 13862 578c 28000000 		.4byte	.LVL72
 13863 5790 AE590000 		.4byte	0x59ae
 13864 5794 00       		.byte	0
 13865 5795 3A       		.uleb128 0x3a
 13866 5796 66000000 		.4byte	.LVL82
 13867 579a 0A590000 		.4byte	0x590a
 13868 579e 00       		.byte	0
 13869 579f 62       		.uleb128 0x62
 13870 57a0 C44E0000 		.4byte	0x4ec4
 13871 57a4 00000000 		.4byte	.LFB262
 13872 57a8 2C000000 		.4byte	.LFE262-.LFB262
 13873 57ac 01       		.uleb128 0x1
 13874 57ad 9C       		.byte	0x9c
ARM GAS  /var/folders/qd/4mxf5pkd0zdf0b9dd1hp39180000gn/T//cc0H01tt.s 			page 245


 13875 57ae EF570000 		.4byte	0x57ef
 13876 57b2 42       		.uleb128 0x42
 13877 57b3 7C540000 		.4byte	0x547c
 13878 57b7 0A000000 		.4byte	.LBB325
 13879 57bb 50010000 		.4byte	.Ldebug_ranges0+0x150
 13880 57bf 01       		.byte	0x1
 13881 57c0 94       		.byte	0x94
 13882 57c1 37       		.uleb128 0x37
 13883 57c2 8C540000 		.4byte	0x548c
 13884 57c6 06       		.uleb128 0x6
 13885 57c7 03       		.byte	0x3
 13886 57c8 00000000 		.4byte	wipEndMovingSignal_sem
 13887 57cc 9F       		.byte	0x9f
 13888 57cd 38       		.uleb128 0x38
 13889 57ce 1E000000 		.4byte	.LVL84
 13890 57d2 FF580000 		.4byte	0x58ff
 13891 57d6 E4570000 		.4byte	0x57e4
 13892 57da 39       		.uleb128 0x39
 13893 57db 01       		.uleb128 0x1
 13894 57dc 50       		.byte	0x50
 13895 57dd 05       		.uleb128 0x5
 13896 57de 03       		.byte	0x3
 13897 57df 00000000 		.4byte	.LANCHOR4
 13898 57e3 00       		.byte	0
 13899 57e4 3A       		.uleb128 0x3a
 13900 57e5 22000000 		.4byte	.LVL85
 13901 57e9 0A590000 		.4byte	0x590a
 13902 57ed 00       		.byte	0
 13903 57ee 00       		.byte	0
 13904 57ef 62       		.uleb128 0x62
 13905 57f0 AC4E0000 		.4byte	0x4eac
 13906 57f4 00000000 		.4byte	.LFB263
 13907 57f8 34000000 		.4byte	.LFE263-.LFB263
 13908 57fc 01       		.uleb128 0x1
 13909 57fd 9C       		.byte	0x9c
 13910 57fe 28580000 		.4byte	0x5828
 13911 5802 37       		.uleb128 0x37
 13912 5803 B84E0000 		.4byte	0x4eb8
 13913 5807 02       		.uleb128 0x2
 13914 5808 91       		.byte	0x91
 13915 5809 60       		.sleb128 -32
 13916 580a 3B       		.uleb128 0x3b
 13917 580b 1C000000 		.4byte	.LVL86
 13918 580f 1D5A0000 		.4byte	0x5a1d
 13919 5813 1E580000 		.4byte	0x581e
 13920 5817 39       		.uleb128 0x39
 13921 5818 01       		.uleb128 0x1
 13922 5819 51       		.byte	0x51
 13923 581a 02       		.uleb128 0x2
 13924 581b 7D       		.byte	0x7d
 13925 581c 00       		.sleb128 0
 13926 581d 00       		.byte	0
 13927 581e 3A       		.uleb128 0x3a
 13928 581f 2C000000 		.4byte	.LVL87
 13929 5823 0A590000 		.4byte	0x590a
 13930 5827 00       		.byte	0
 13931 5828 62       		.uleb128 0x62
ARM GAS  /var/folders/qd/4mxf5pkd0zdf0b9dd1hp39180000gn/T//cc0H01tt.s 			page 246


 13932 5829 A44E0000 		.4byte	0x4ea4
 13933 582d 00000000 		.4byte	.LFB264
 13934 5831 38000000 		.4byte	.LFE264-.LFB264
 13935 5835 01       		.uleb128 0x1
 13936 5836 9C       		.byte	0x9c
 13937 5837 71580000 		.4byte	0x5871
 13938 583b 4D       		.uleb128 0x4d
 13939 583c AC4E0000 		.4byte	0x4eac
 13940 5840 04000000 		.4byte	.LBB329
 13941 5844 68010000 		.4byte	.Ldebug_ranges0+0x168
 13942 5848 01       		.byte	0x1
 13943 5849 9C       		.byte	0x9c
 13944 584a 67580000 		.4byte	0x5867
 13945 584e 37       		.uleb128 0x37
 13946 584f B84E0000 		.4byte	0x4eb8
 13947 5853 02       		.uleb128 0x2
 13948 5854 91       		.byte	0x91
 13949 5855 60       		.sleb128 -32
 13950 5856 41       		.uleb128 0x41
 13951 5857 20000000 		.4byte	.LVL88
 13952 585b 1D5A0000 		.4byte	0x5a1d
 13953 585f 39       		.uleb128 0x39
 13954 5860 01       		.uleb128 0x1
 13955 5861 51       		.byte	0x51
 13956 5862 02       		.uleb128 0x2
 13957 5863 7D       		.byte	0x7d
 13958 5864 00       		.sleb128 0
 13959 5865 00       		.byte	0
 13960 5866 00       		.byte	0
 13961 5867 3A       		.uleb128 0x3a
 13962 5868 30000000 		.4byte	.LVL89
 13963 586c 0A590000 		.4byte	0x590a
 13964 5870 00       		.byte	0
 13965 5871 63       		.uleb128 0x63
 13966 5872 28470000 		.4byte	0x4728
 13967 5876 00000000 		.4byte	.LFB274
 13968 587a 80000000 		.4byte	.LFE274-.LFB274
 13969 587e 01       		.uleb128 0x1
 13970 587f 9C       		.byte	0x9c
 13971 5880 AB580000 		.4byte	0x58ab
 13972 5884 40       		.uleb128 0x40
 13973 5885 34470000 		.4byte	0x4734
 13974 5889 7C070000 		.4byte	.LLST48
 13975 588d 3B       		.uleb128 0x3b
 13976 588e 50000000 		.4byte	.LVL199
 13977 5892 154C0000 		.4byte	0x4c15
 13978 5896 A1580000 		.4byte	0x58a1
 13979 589a 39       		.uleb128 0x39
 13980 589b 01       		.uleb128 0x1
 13981 589c 50       		.byte	0x50
 13982 589d 02       		.uleb128 0x2
 13983 589e 7D       		.byte	0x7d
 13984 589f 00       		.sleb128 0
 13985 58a0 00       		.byte	0
 13986 58a1 3A       		.uleb128 0x3a
 13987 58a2 68000000 		.4byte	.LVL201
 13988 58a6 0A590000 		.4byte	0x590a
ARM GAS  /var/folders/qd/4mxf5pkd0zdf0b9dd1hp39180000gn/T//cc0H01tt.s 			page 247


 13989 58aa 00       		.byte	0
 13990 58ab 62       		.uleb128 0x62
 13991 58ac 05470000 		.4byte	0x4705
 13992 58b0 00000000 		.4byte	.LFB275
 13993 58b4 2C000000 		.4byte	.LFE275-.LFB275
 13994 58b8 01       		.uleb128 0x1
 13995 58b9 9C       		.byte	0x9c
 13996 58ba FF580000 		.4byte	0x58ff
 13997 58be 40       		.uleb128 0x40
 13998 58bf 11470000 		.4byte	0x4711
 13999 58c3 A6070000 		.4byte	.LLST51
 14000 58c7 40       		.uleb128 0x40
 14001 58c8 1C470000 		.4byte	0x471c
 14002 58cc E0070000 		.4byte	.LLST52
 14003 58d0 38       		.uleb128 0x38
 14004 58d1 1E000000 		.4byte	.LVL217
 14005 58d5 075A0000 		.4byte	0x5a07
 14006 58d9 F5580000 		.4byte	0x58f5
 14007 58dd 39       		.uleb128 0x39
 14008 58de 01       		.uleb128 0x1
 14009 58df 50       		.byte	0x50
 14010 58e0 03       		.uleb128 0x3
 14011 58e1 F3       		.byte	0xf3
 14012 58e2 01       		.uleb128 0x1
 14013 58e3 50       		.byte	0x50
 14014 58e4 39       		.uleb128 0x39
 14015 58e5 01       		.uleb128 0x1
 14016 58e6 51       		.byte	0x51
 14017 58e7 03       		.uleb128 0x3
 14018 58e8 F3       		.byte	0xf3
 14019 58e9 01       		.uleb128 0x1
 14020 58ea 51       		.byte	0x51
 14021 58eb 39       		.uleb128 0x39
 14022 58ec 01       		.uleb128 0x1
 14023 58ed 52       		.byte	0x52
 14024 58ee 05       		.uleb128 0x5
 14025 58ef 03       		.byte	0x3
 14026 58f0 00000000 		.4byte	.LANCHOR7
 14027 58f4 00       		.byte	0
 14028 58f5 3A       		.uleb128 0x3a
 14029 58f6 22000000 		.4byte	.LVL218
 14030 58fa 0A590000 		.4byte	0x590a
 14031 58fe 00       		.byte	0
 14032 58ff 64       		.uleb128 0x64
 14033 5900 5A000000 		.4byte	.LASF916
 14034 5904 5A000000 		.4byte	.LASF916
 14035 5908 1B       		.byte	0x1b
 14036 5909 5E       		.byte	0x5e
 14037 590a 65       		.uleb128 0x65
 14038 590b A1060000 		.4byte	.LASF958
 14039 590f A1060000 		.4byte	.LASF958
 14040 5913 64       		.uleb128 0x64
 14041 5914 7B210000 		.4byte	.LASF917
 14042 5918 7B210000 		.4byte	.LASF917
 14043 591c 22       		.byte	0x22
 14044 591d 33       		.byte	0x33
 14045 591e 64       		.uleb128 0x64
ARM GAS  /var/folders/qd/4mxf5pkd0zdf0b9dd1hp39180000gn/T//cc0H01tt.s 			page 248


 14046 591f 480A0000 		.4byte	.LASF918
 14047 5923 480A0000 		.4byte	.LASF918
 14048 5927 40       		.byte	0x40
 14049 5928 89       		.byte	0x89
 14050 5929 64       		.uleb128 0x64
 14051 592a 7D040000 		.4byte	.LASF919
 14052 592e 7D040000 		.4byte	.LASF919
 14053 5932 20       		.byte	0x20
 14054 5933 4B       		.byte	0x4b
 14055 5934 64       		.uleb128 0x64
 14056 5935 12090000 		.4byte	.LASF920
 14057 5939 12090000 		.4byte	.LASF920
 14058 593d 20       		.byte	0x20
 14059 593e 1F       		.byte	0x1f
 14060 593f 64       		.uleb128 0x64
 14061 5940 14190000 		.4byte	.LASF921
 14062 5944 14190000 		.4byte	.LASF921
 14063 5948 41       		.byte	0x41
 14064 5949 15       		.byte	0x15
 14065 594a 64       		.uleb128 0x64
 14066 594b E5280000 		.4byte	.LASF922
 14067 594f E5280000 		.4byte	.LASF922
 14068 5953 0D       		.byte	0xd
 14069 5954 3B       		.byte	0x3b
 14070 5955 64       		.uleb128 0x64
 14071 5956 20180000 		.4byte	.LASF923
 14072 595a 20180000 		.4byte	.LASF923
 14073 595e 20       		.byte	0x20
 14074 595f 3C       		.byte	0x3c
 14075 5960 64       		.uleb128 0x64
 14076 5961 15280000 		.4byte	.LASF924
 14077 5965 15280000 		.4byte	.LASF924
 14078 5969 1A       		.byte	0x1a
 14079 596a 4F       		.byte	0x4f
 14080 596b 64       		.uleb128 0x64
 14081 596c 4E040000 		.4byte	.LASF925
 14082 5970 4E040000 		.4byte	.LASF925
 14083 5974 18       		.byte	0x18
 14084 5975 D8       		.byte	0xd8
 14085 5976 64       		.uleb128 0x64
 14086 5977 BA1E0000 		.4byte	.LASF926
 14087 597b BA1E0000 		.4byte	.LASF926
 14088 597f 18       		.byte	0x18
 14089 5980 DE       		.byte	0xde
 14090 5981 64       		.uleb128 0x64
 14091 5982 7C150000 		.4byte	.LASF927
 14092 5986 7C150000 		.4byte	.LASF927
 14093 598a 1B       		.byte	0x1b
 14094 598b 63       		.byte	0x63
 14095 598c 64       		.uleb128 0x64
 14096 598d 9B160000 		.4byte	.LASF928
 14097 5991 9B160000 		.4byte	.LASF928
 14098 5995 18       		.byte	0x18
 14099 5996 D9       		.byte	0xd9
 14100 5997 64       		.uleb128 0x64
 14101 5998 F61D0000 		.4byte	.LASF929
 14102 599c F61D0000 		.4byte	.LASF929
ARM GAS  /var/folders/qd/4mxf5pkd0zdf0b9dd1hp39180000gn/T//cc0H01tt.s 			page 249


 14103 59a0 1A       		.byte	0x1a
 14104 59a1 50       		.byte	0x50
 14105 59a2 66       		.uleb128 0x66
 14106 59a3 27070000 		.4byte	.LASF930
 14107 59a7 27070000 		.4byte	.LASF930
 14108 59ab 03       		.byte	0x3
 14109 59ac 1601     		.2byte	0x116
 14110 59ae 66       		.uleb128 0x66
 14111 59af C61C0000 		.4byte	.LASF931
 14112 59b3 C61C0000 		.4byte	.LASF931
 14113 59b7 12       		.byte	0x12
 14114 59b8 1702     		.2byte	0x217
 14115 59ba 64       		.uleb128 0x64
 14116 59bb BA190000 		.4byte	.LASF932
 14117 59bf BA190000 		.4byte	.LASF932
 14118 59c3 22       		.byte	0x22
 14119 59c4 2C       		.byte	0x2c
 14120 59c5 64       		.uleb128 0x64
 14121 59c6 F9220000 		.4byte	.LASF933
 14122 59ca F9220000 		.4byte	.LASF933
 14123 59ce 40       		.byte	0x40
 14124 59cf 96       		.byte	0x96
 14125 59d0 64       		.uleb128 0x64
 14126 59d1 5F0C0000 		.4byte	.LASF934
 14127 59d5 5F0C0000 		.4byte	.LASF934
 14128 59d9 0D       		.byte	0xd
 14129 59da 40       		.byte	0x40
 14130 59db 64       		.uleb128 0x64
 14131 59dc 3A0A0000 		.4byte	.LASF935
 14132 59e0 3A0A0000 		.4byte	.LASF935
 14133 59e4 0E       		.byte	0xe
 14134 59e5 68       		.byte	0x68
 14135 59e6 64       		.uleb128 0x64
 14136 59e7 0F180000 		.4byte	.LASF936
 14137 59eb 0F180000 		.4byte	.LASF936
 14138 59ef 42       		.byte	0x42
 14139 59f0 11       		.byte	0x11
 14140 59f1 64       		.uleb128 0x64
 14141 59f2 90150000 		.4byte	.LASF937
 14142 59f6 90150000 		.4byte	.LASF937
 14143 59fa 0D       		.byte	0xd
 14144 59fb 52       		.byte	0x52
 14145 59fc 64       		.uleb128 0x64
 14146 59fd 8B050000 		.4byte	.LASF938
 14147 5a01 8B050000 		.4byte	.LASF938
 14148 5a05 0E       		.byte	0xe
 14149 5a06 5D       		.byte	0x5d
 14150 5a07 64       		.uleb128 0x64
 14151 5a08 51050000 		.4byte	.LASF939
 14152 5a0c 51050000 		.4byte	.LASF939
 14153 5a10 0D       		.byte	0xd
 14154 5a11 5C       		.byte	0x5c
 14155 5a12 64       		.uleb128 0x64
 14156 5a13 18010000 		.4byte	.LASF940
 14157 5a17 18010000 		.4byte	.LASF940
 14158 5a1b 0D       		.byte	0xd
 14159 5a1c 54       		.byte	0x54
ARM GAS  /var/folders/qd/4mxf5pkd0zdf0b9dd1hp39180000gn/T//cc0H01tt.s 			page 250


 14160 5a1d 64       		.uleb128 0x64
 14161 5a1e 601D0000 		.4byte	.LASF941
 14162 5a22 601D0000 		.4byte	.LASF941
 14163 5a26 3F       		.byte	0x3f
 14164 5a27 3C       		.byte	0x3c
 14165 5a28 64       		.uleb128 0x64
 14166 5a29 F80D0000 		.4byte	.LASF942
 14167 5a2d F80D0000 		.4byte	.LASF942
 14168 5a31 0D       		.byte	0xd
 14169 5a32 58       		.byte	0x58
 14170 5a33 64       		.uleb128 0x64
 14171 5a34 31140000 		.4byte	.LASF943
 14172 5a38 31140000 		.4byte	.LASF943
 14173 5a3c 41       		.byte	0x41
 14174 5a3d 23       		.byte	0x23
 14175 5a3e 64       		.uleb128 0x64
 14176 5a3f D0260000 		.4byte	.LASF944
 14177 5a43 D0260000 		.4byte	.LASF944
 14178 5a47 20       		.byte	0x20
 14179 5a48 4F       		.byte	0x4f
 14180 5a49 64       		.uleb128 0x64
 14181 5a4a 0A080000 		.4byte	.LASF945
 14182 5a4e 0A080000 		.4byte	.LASF945
 14183 5a52 20       		.byte	0x20
 14184 5a53 32       		.byte	0x32
 14185 5a54 64       		.uleb128 0x64
 14186 5a55 42030000 		.4byte	.LASF946
 14187 5a59 42030000 		.4byte	.LASF946
 14188 5a5d 0D       		.byte	0xd
 14189 5a5e 56       		.byte	0x56
 14190 5a5f 64       		.uleb128 0x64
 14191 5a60 5B130000 		.4byte	.LASF947
 14192 5a64 5B130000 		.4byte	.LASF947
 14193 5a68 41       		.byte	0x41
 14194 5a69 46       		.byte	0x46
 14195 5a6a 64       		.uleb128 0x64
 14196 5a6b F3270000 		.4byte	.LASF948
 14197 5a6f F3270000 		.4byte	.LASF948
 14198 5a73 40       		.byte	0x40
 14199 5a74 98       		.byte	0x98
 14200 5a75 64       		.uleb128 0x64
 14201 5a76 65270000 		.4byte	.LASF949
 14202 5a7a 65270000 		.4byte	.LASF949
 14203 5a7e 41       		.byte	0x41
 14204 5a7f 53       		.byte	0x53
 14205 5a80 64       		.uleb128 0x64
 14206 5a81 8C190000 		.4byte	.LASF950
 14207 5a85 8C190000 		.4byte	.LASF950
 14208 5a89 0D       		.byte	0xd
 14209 5a8a 4D       		.byte	0x4d
 14210 5a8b 64       		.uleb128 0x64
 14211 5a8c EE120000 		.4byte	.LASF951
 14212 5a90 EE120000 		.4byte	.LASF951
 14213 5a94 3F       		.byte	0x3f
 14214 5a95 3E       		.byte	0x3e
 14215 5a96 64       		.uleb128 0x64
 14216 5a97 C91F0000 		.4byte	.LASF952
ARM GAS  /var/folders/qd/4mxf5pkd0zdf0b9dd1hp39180000gn/T//cc0H01tt.s 			page 251


 14217 5a9b C91F0000 		.4byte	.LASF952
 14218 5a9f 3F       		.byte	0x3f
 14219 5aa0 3D       		.byte	0x3d
 14220 5aa1 00       		.byte	0
 14221              		.section	.debug_abbrev,"",%progbits
 14222              	.Ldebug_abbrev0:
 14223 0000 01       		.uleb128 0x1
 14224 0001 11       		.uleb128 0x11
 14225 0002 01       		.byte	0x1
 14226 0003 25       		.uleb128 0x25
 14227 0004 0E       		.uleb128 0xe
 14228 0005 13       		.uleb128 0x13
 14229 0006 0B       		.uleb128 0xb
 14230 0007 03       		.uleb128 0x3
 14231 0008 0E       		.uleb128 0xe
 14232 0009 1B       		.uleb128 0x1b
 14233 000a 0E       		.uleb128 0xe
 14234 000b 55       		.uleb128 0x55
 14235 000c 17       		.uleb128 0x17
 14236 000d 11       		.uleb128 0x11
 14237 000e 01       		.uleb128 0x1
 14238 000f 10       		.uleb128 0x10
 14239 0010 17       		.uleb128 0x17
 14240 0011 00       		.byte	0
 14241 0012 00       		.byte	0
 14242 0013 02       		.uleb128 0x2
 14243 0014 24       		.uleb128 0x24
 14244 0015 00       		.byte	0
 14245 0016 0B       		.uleb128 0xb
 14246 0017 0B       		.uleb128 0xb
 14247 0018 3E       		.uleb128 0x3e
 14248 0019 0B       		.uleb128 0xb
 14249 001a 03       		.uleb128 0x3
 14250 001b 0E       		.uleb128 0xe
 14251 001c 00       		.byte	0
 14252 001d 00       		.byte	0
 14253 001e 03       		.uleb128 0x3
 14254 001f 24       		.uleb128 0x24
 14255 0020 00       		.byte	0
 14256 0021 0B       		.uleb128 0xb
 14257 0022 0B       		.uleb128 0xb
 14258 0023 3E       		.uleb128 0x3e
 14259 0024 0B       		.uleb128 0xb
 14260 0025 03       		.uleb128 0x3
 14261 0026 08       		.uleb128 0x8
 14262 0027 00       		.byte	0
 14263 0028 00       		.byte	0
 14264 0029 04       		.uleb128 0x4
 14265 002a 16       		.uleb128 0x16
 14266 002b 00       		.byte	0
 14267 002c 03       		.uleb128 0x3
 14268 002d 0E       		.uleb128 0xe
 14269 002e 3A       		.uleb128 0x3a
 14270 002f 0B       		.uleb128 0xb
 14271 0030 3B       		.uleb128 0x3b
 14272 0031 0B       		.uleb128 0xb
 14273 0032 49       		.uleb128 0x49
ARM GAS  /var/folders/qd/4mxf5pkd0zdf0b9dd1hp39180000gn/T//cc0H01tt.s 			page 252


 14274 0033 13       		.uleb128 0x13
 14275 0034 00       		.byte	0
 14276 0035 00       		.byte	0
 14277 0036 05       		.uleb128 0x5
 14278 0037 0F       		.uleb128 0xf
 14279 0038 00       		.byte	0
 14280 0039 0B       		.uleb128 0xb
 14281 003a 0B       		.uleb128 0xb
 14282 003b 49       		.uleb128 0x49
 14283 003c 13       		.uleb128 0x13
 14284 003d 00       		.byte	0
 14285 003e 00       		.byte	0
 14286 003f 06       		.uleb128 0x6
 14287 0040 13       		.uleb128 0x13
 14288 0041 00       		.byte	0
 14289 0042 03       		.uleb128 0x3
 14290 0043 0E       		.uleb128 0xe
 14291 0044 3C       		.uleb128 0x3c
 14292 0045 19       		.uleb128 0x19
 14293 0046 00       		.byte	0
 14294 0047 00       		.byte	0
 14295 0048 07       		.uleb128 0x7
 14296 0049 16       		.uleb128 0x16
 14297 004a 00       		.byte	0
 14298 004b 03       		.uleb128 0x3
 14299 004c 0E       		.uleb128 0xe
 14300 004d 3A       		.uleb128 0x3a
 14301 004e 0B       		.uleb128 0xb
 14302 004f 3B       		.uleb128 0x3b
 14303 0050 05       		.uleb128 0x5
 14304 0051 49       		.uleb128 0x49
 14305 0052 13       		.uleb128 0x13
 14306 0053 00       		.byte	0
 14307 0054 00       		.byte	0
 14308 0055 08       		.uleb128 0x8
 14309 0056 17       		.uleb128 0x17
 14310 0057 01       		.byte	0x1
 14311 0058 0B       		.uleb128 0xb
 14312 0059 0B       		.uleb128 0xb
 14313 005a 3A       		.uleb128 0x3a
 14314 005b 0B       		.uleb128 0xb
 14315 005c 3B       		.uleb128 0x3b
 14316 005d 0B       		.uleb128 0xb
 14317 005e 01       		.uleb128 0x1
 14318 005f 13       		.uleb128 0x13
 14319 0060 00       		.byte	0
 14320 0061 00       		.byte	0
 14321 0062 09       		.uleb128 0x9
 14322 0063 0D       		.uleb128 0xd
 14323 0064 00       		.byte	0
 14324 0065 03       		.uleb128 0x3
 14325 0066 0E       		.uleb128 0xe
 14326 0067 3A       		.uleb128 0x3a
 14327 0068 0B       		.uleb128 0xb
 14328 0069 3B       		.uleb128 0x3b
 14329 006a 0B       		.uleb128 0xb
 14330 006b 49       		.uleb128 0x49
ARM GAS  /var/folders/qd/4mxf5pkd0zdf0b9dd1hp39180000gn/T//cc0H01tt.s 			page 253


 14331 006c 13       		.uleb128 0x13
 14332 006d 00       		.byte	0
 14333 006e 00       		.byte	0
 14334 006f 0A       		.uleb128 0xa
 14335 0070 01       		.uleb128 0x1
 14336 0071 01       		.byte	0x1
 14337 0072 49       		.uleb128 0x49
 14338 0073 13       		.uleb128 0x13
 14339 0074 01       		.uleb128 0x1
 14340 0075 13       		.uleb128 0x13
 14341 0076 00       		.byte	0
 14342 0077 00       		.byte	0
 14343 0078 0B       		.uleb128 0xb
 14344 0079 21       		.uleb128 0x21
 14345 007a 00       		.byte	0
 14346 007b 49       		.uleb128 0x49
 14347 007c 13       		.uleb128 0x13
 14348 007d 2F       		.uleb128 0x2f
 14349 007e 0B       		.uleb128 0xb
 14350 007f 00       		.byte	0
 14351 0080 00       		.byte	0
 14352 0081 0C       		.uleb128 0xc
 14353 0082 13       		.uleb128 0x13
 14354 0083 01       		.byte	0x1
 14355 0084 0B       		.uleb128 0xb
 14356 0085 0B       		.uleb128 0xb
 14357 0086 3A       		.uleb128 0x3a
 14358 0087 0B       		.uleb128 0xb
 14359 0088 3B       		.uleb128 0x3b
 14360 0089 0B       		.uleb128 0xb
 14361 008a 01       		.uleb128 0x1
 14362 008b 13       		.uleb128 0x13
 14363 008c 00       		.byte	0
 14364 008d 00       		.byte	0
 14365 008e 0D       		.uleb128 0xd
 14366 008f 0D       		.uleb128 0xd
 14367 0090 00       		.byte	0
 14368 0091 03       		.uleb128 0x3
 14369 0092 0E       		.uleb128 0xe
 14370 0093 3A       		.uleb128 0x3a
 14371 0094 0B       		.uleb128 0xb
 14372 0095 3B       		.uleb128 0x3b
 14373 0096 0B       		.uleb128 0xb
 14374 0097 49       		.uleb128 0x49
 14375 0098 13       		.uleb128 0x13
 14376 0099 38       		.uleb128 0x38
 14377 009a 0B       		.uleb128 0xb
 14378 009b 00       		.byte	0
 14379 009c 00       		.byte	0
 14380 009d 0E       		.uleb128 0xe
 14381 009e 0F       		.uleb128 0xf
 14382 009f 00       		.byte	0
 14383 00a0 0B       		.uleb128 0xb
 14384 00a1 0B       		.uleb128 0xb
 14385 00a2 00       		.byte	0
 14386 00a3 00       		.byte	0
 14387 00a4 0F       		.uleb128 0xf
ARM GAS  /var/folders/qd/4mxf5pkd0zdf0b9dd1hp39180000gn/T//cc0H01tt.s 			page 254


 14388 00a5 26       		.uleb128 0x26
 14389 00a6 00       		.byte	0
 14390 00a7 49       		.uleb128 0x49
 14391 00a8 13       		.uleb128 0x13
 14392 00a9 00       		.byte	0
 14393 00aa 00       		.byte	0
 14394 00ab 10       		.uleb128 0x10
 14395 00ac 13       		.uleb128 0x13
 14396 00ad 01       		.byte	0x1
 14397 00ae 03       		.uleb128 0x3
 14398 00af 0E       		.uleb128 0xe
 14399 00b0 0B       		.uleb128 0xb
 14400 00b1 0B       		.uleb128 0xb
 14401 00b2 3A       		.uleb128 0x3a
 14402 00b3 0B       		.uleb128 0xb
 14403 00b4 3B       		.uleb128 0x3b
 14404 00b5 0B       		.uleb128 0xb
 14405 00b6 01       		.uleb128 0x1
 14406 00b7 13       		.uleb128 0x13
 14407 00b8 00       		.byte	0
 14408 00b9 00       		.byte	0
 14409 00ba 11       		.uleb128 0x11
 14410 00bb 0D       		.uleb128 0xd
 14411 00bc 00       		.byte	0
 14412 00bd 03       		.uleb128 0x3
 14413 00be 08       		.uleb128 0x8
 14414 00bf 3A       		.uleb128 0x3a
 14415 00c0 0B       		.uleb128 0xb
 14416 00c1 3B       		.uleb128 0x3b
 14417 00c2 0B       		.uleb128 0xb
 14418 00c3 49       		.uleb128 0x49
 14419 00c4 13       		.uleb128 0x13
 14420 00c5 38       		.uleb128 0x38
 14421 00c6 0B       		.uleb128 0xb
 14422 00c7 00       		.byte	0
 14423 00c8 00       		.byte	0
 14424 00c9 12       		.uleb128 0x12
 14425 00ca 13       		.uleb128 0x13
 14426 00cb 01       		.byte	0x1
 14427 00cc 03       		.uleb128 0x3
 14428 00cd 0E       		.uleb128 0xe
 14429 00ce 0B       		.uleb128 0xb
 14430 00cf 05       		.uleb128 0x5
 14431 00d0 3A       		.uleb128 0x3a
 14432 00d1 0B       		.uleb128 0xb
 14433 00d2 3B       		.uleb128 0x3b
 14434 00d3 0B       		.uleb128 0xb
 14435 00d4 01       		.uleb128 0x1
 14436 00d5 13       		.uleb128 0x13
 14437 00d6 00       		.byte	0
 14438 00d7 00       		.byte	0
 14439 00d8 13       		.uleb128 0x13
 14440 00d9 0D       		.uleb128 0xd
 14441 00da 00       		.byte	0
 14442 00db 03       		.uleb128 0x3
 14443 00dc 0E       		.uleb128 0xe
 14444 00dd 3A       		.uleb128 0x3a
ARM GAS  /var/folders/qd/4mxf5pkd0zdf0b9dd1hp39180000gn/T//cc0H01tt.s 			page 255


 14445 00de 0B       		.uleb128 0xb
 14446 00df 3B       		.uleb128 0x3b
 14447 00e0 0B       		.uleb128 0xb
 14448 00e1 49       		.uleb128 0x49
 14449 00e2 13       		.uleb128 0x13
 14450 00e3 38       		.uleb128 0x38
 14451 00e4 05       		.uleb128 0x5
 14452 00e5 00       		.byte	0
 14453 00e6 00       		.byte	0
 14454 00e7 14       		.uleb128 0x14
 14455 00e8 15       		.uleb128 0x15
 14456 00e9 00       		.byte	0
 14457 00ea 27       		.uleb128 0x27
 14458 00eb 19       		.uleb128 0x19
 14459 00ec 00       		.byte	0
 14460 00ed 00       		.byte	0
 14461 00ee 15       		.uleb128 0x15
 14462 00ef 15       		.uleb128 0x15
 14463 00f0 01       		.byte	0x1
 14464 00f1 27       		.uleb128 0x27
 14465 00f2 19       		.uleb128 0x19
 14466 00f3 49       		.uleb128 0x49
 14467 00f4 13       		.uleb128 0x13
 14468 00f5 01       		.uleb128 0x1
 14469 00f6 13       		.uleb128 0x13
 14470 00f7 00       		.byte	0
 14471 00f8 00       		.byte	0
 14472 00f9 16       		.uleb128 0x16
 14473 00fa 05       		.uleb128 0x5
 14474 00fb 00       		.byte	0
 14475 00fc 49       		.uleb128 0x49
 14476 00fd 13       		.uleb128 0x13
 14477 00fe 00       		.byte	0
 14478 00ff 00       		.byte	0
 14479 0100 17       		.uleb128 0x17
 14480 0101 13       		.uleb128 0x13
 14481 0102 01       		.byte	0x1
 14482 0103 03       		.uleb128 0x3
 14483 0104 0E       		.uleb128 0xe
 14484 0105 0B       		.uleb128 0xb
 14485 0106 05       		.uleb128 0x5
 14486 0107 3A       		.uleb128 0x3a
 14487 0108 0B       		.uleb128 0xb
 14488 0109 3B       		.uleb128 0x3b
 14489 010a 05       		.uleb128 0x5
 14490 010b 01       		.uleb128 0x1
 14491 010c 13       		.uleb128 0x13
 14492 010d 00       		.byte	0
 14493 010e 00       		.byte	0
 14494 010f 18       		.uleb128 0x18
 14495 0110 0D       		.uleb128 0xd
 14496 0111 00       		.byte	0
 14497 0112 03       		.uleb128 0x3
 14498 0113 0E       		.uleb128 0xe
 14499 0114 3A       		.uleb128 0x3a
 14500 0115 0B       		.uleb128 0xb
 14501 0116 3B       		.uleb128 0x3b
ARM GAS  /var/folders/qd/4mxf5pkd0zdf0b9dd1hp39180000gn/T//cc0H01tt.s 			page 256


 14502 0117 05       		.uleb128 0x5
 14503 0118 49       		.uleb128 0x49
 14504 0119 13       		.uleb128 0x13
 14505 011a 38       		.uleb128 0x38
 14506 011b 0B       		.uleb128 0xb
 14507 011c 00       		.byte	0
 14508 011d 00       		.byte	0
 14509 011e 19       		.uleb128 0x19
 14510 011f 0D       		.uleb128 0xd
 14511 0120 00       		.byte	0
 14512 0121 03       		.uleb128 0x3
 14513 0122 0E       		.uleb128 0xe
 14514 0123 3A       		.uleb128 0x3a
 14515 0124 0B       		.uleb128 0xb
 14516 0125 3B       		.uleb128 0x3b
 14517 0126 05       		.uleb128 0x5
 14518 0127 49       		.uleb128 0x49
 14519 0128 13       		.uleb128 0x13
 14520 0129 38       		.uleb128 0x38
 14521 012a 05       		.uleb128 0x5
 14522 012b 00       		.byte	0
 14523 012c 00       		.byte	0
 14524 012d 1A       		.uleb128 0x1a
 14525 012e 35       		.uleb128 0x35
 14526 012f 00       		.byte	0
 14527 0130 49       		.uleb128 0x49
 14528 0131 13       		.uleb128 0x13
 14529 0132 00       		.byte	0
 14530 0133 00       		.byte	0
 14531 0134 1B       		.uleb128 0x1b
 14532 0135 13       		.uleb128 0x13
 14533 0136 01       		.byte	0x1
 14534 0137 03       		.uleb128 0x3
 14535 0138 0E       		.uleb128 0xe
 14536 0139 0B       		.uleb128 0xb
 14537 013a 0B       		.uleb128 0xb
 14538 013b 3A       		.uleb128 0x3a
 14539 013c 0B       		.uleb128 0xb
 14540 013d 3B       		.uleb128 0x3b
 14541 013e 05       		.uleb128 0x5
 14542 013f 01       		.uleb128 0x1
 14543 0140 13       		.uleb128 0x13
 14544 0141 00       		.byte	0
 14545 0142 00       		.byte	0
 14546 0143 1C       		.uleb128 0x1c
 14547 0144 13       		.uleb128 0x13
 14548 0145 01       		.byte	0x1
 14549 0146 0B       		.uleb128 0xb
 14550 0147 0B       		.uleb128 0xb
 14551 0148 3A       		.uleb128 0x3a
 14552 0149 0B       		.uleb128 0xb
 14553 014a 3B       		.uleb128 0x3b
 14554 014b 05       		.uleb128 0x5
 14555 014c 01       		.uleb128 0x1
 14556 014d 13       		.uleb128 0x13
 14557 014e 00       		.byte	0
 14558 014f 00       		.byte	0
ARM GAS  /var/folders/qd/4mxf5pkd0zdf0b9dd1hp39180000gn/T//cc0H01tt.s 			page 257


 14559 0150 1D       		.uleb128 0x1d
 14560 0151 17       		.uleb128 0x17
 14561 0152 01       		.byte	0x1
 14562 0153 0B       		.uleb128 0xb
 14563 0154 0B       		.uleb128 0xb
 14564 0155 3A       		.uleb128 0x3a
 14565 0156 0B       		.uleb128 0xb
 14566 0157 3B       		.uleb128 0x3b
 14567 0158 05       		.uleb128 0x5
 14568 0159 01       		.uleb128 0x1
 14569 015a 13       		.uleb128 0x13
 14570 015b 00       		.byte	0
 14571 015c 00       		.byte	0
 14572 015d 1E       		.uleb128 0x1e
 14573 015e 0D       		.uleb128 0xd
 14574 015f 00       		.byte	0
 14575 0160 03       		.uleb128 0x3
 14576 0161 0E       		.uleb128 0xe
 14577 0162 3A       		.uleb128 0x3a
 14578 0163 0B       		.uleb128 0xb
 14579 0164 3B       		.uleb128 0x3b
 14580 0165 05       		.uleb128 0x5
 14581 0166 49       		.uleb128 0x49
 14582 0167 13       		.uleb128 0x13
 14583 0168 00       		.byte	0
 14584 0169 00       		.byte	0
 14585 016a 1F       		.uleb128 0x1f
 14586 016b 15       		.uleb128 0x15
 14587 016c 01       		.byte	0x1
 14588 016d 27       		.uleb128 0x27
 14589 016e 19       		.uleb128 0x19
 14590 016f 01       		.uleb128 0x1
 14591 0170 13       		.uleb128 0x13
 14592 0171 00       		.byte	0
 14593 0172 00       		.byte	0
 14594 0173 20       		.uleb128 0x20
 14595 0174 34       		.uleb128 0x34
 14596 0175 00       		.byte	0
 14597 0176 03       		.uleb128 0x3
 14598 0177 0E       		.uleb128 0xe
 14599 0178 3A       		.uleb128 0x3a
 14600 0179 0B       		.uleb128 0xb
 14601 017a 3B       		.uleb128 0x3b
 14602 017b 05       		.uleb128 0x5
 14603 017c 49       		.uleb128 0x49
 14604 017d 13       		.uleb128 0x13
 14605 017e 3F       		.uleb128 0x3f
 14606 017f 19       		.uleb128 0x19
 14607 0180 3C       		.uleb128 0x3c
 14608 0181 19       		.uleb128 0x19
 14609 0182 00       		.byte	0
 14610 0183 00       		.byte	0
 14611 0184 21       		.uleb128 0x21
 14612 0185 04       		.uleb128 0x4
 14613 0186 01       		.byte	0x1
 14614 0187 03       		.uleb128 0x3
 14615 0188 0E       		.uleb128 0xe
ARM GAS  /var/folders/qd/4mxf5pkd0zdf0b9dd1hp39180000gn/T//cc0H01tt.s 			page 258


 14616 0189 3E       		.uleb128 0x3e
 14617 018a 0B       		.uleb128 0xb
 14618 018b 0B       		.uleb128 0xb
 14619 018c 0B       		.uleb128 0xb
 14620 018d 49       		.uleb128 0x49
 14621 018e 13       		.uleb128 0x13
 14622 018f 3A       		.uleb128 0x3a
 14623 0190 0B       		.uleb128 0xb
 14624 0191 3B       		.uleb128 0x3b
 14625 0192 05       		.uleb128 0x5
 14626 0193 01       		.uleb128 0x1
 14627 0194 13       		.uleb128 0x13
 14628 0195 00       		.byte	0
 14629 0196 00       		.byte	0
 14630 0197 22       		.uleb128 0x22
 14631 0198 28       		.uleb128 0x28
 14632 0199 00       		.byte	0
 14633 019a 03       		.uleb128 0x3
 14634 019b 0E       		.uleb128 0xe
 14635 019c 1C       		.uleb128 0x1c
 14636 019d 0D       		.uleb128 0xd
 14637 019e 00       		.byte	0
 14638 019f 00       		.byte	0
 14639 01a0 23       		.uleb128 0x23
 14640 01a1 28       		.uleb128 0x28
 14641 01a2 00       		.byte	0
 14642 01a3 03       		.uleb128 0x3
 14643 01a4 0E       		.uleb128 0xe
 14644 01a5 1C       		.uleb128 0x1c
 14645 01a6 0B       		.uleb128 0xb
 14646 01a7 00       		.byte	0
 14647 01a8 00       		.byte	0
 14648 01a9 24       		.uleb128 0x24
 14649 01aa 26       		.uleb128 0x26
 14650 01ab 00       		.byte	0
 14651 01ac 00       		.byte	0
 14652 01ad 00       		.byte	0
 14653 01ae 25       		.uleb128 0x25
 14654 01af 34       		.uleb128 0x34
 14655 01b0 00       		.byte	0
 14656 01b1 03       		.uleb128 0x3
 14657 01b2 0E       		.uleb128 0xe
 14658 01b3 3A       		.uleb128 0x3a
 14659 01b4 0B       		.uleb128 0xb
 14660 01b5 3B       		.uleb128 0x3b
 14661 01b6 0B       		.uleb128 0xb
 14662 01b7 49       		.uleb128 0x49
 14663 01b8 13       		.uleb128 0x13
 14664 01b9 3F       		.uleb128 0x3f
 14665 01ba 19       		.uleb128 0x19
 14666 01bb 3C       		.uleb128 0x3c
 14667 01bc 19       		.uleb128 0x19
 14668 01bd 00       		.byte	0
 14669 01be 00       		.byte	0
 14670 01bf 26       		.uleb128 0x26
 14671 01c0 04       		.uleb128 0x4
 14672 01c1 01       		.byte	0x1
ARM GAS  /var/folders/qd/4mxf5pkd0zdf0b9dd1hp39180000gn/T//cc0H01tt.s 			page 259


 14673 01c2 3E       		.uleb128 0x3e
 14674 01c3 0B       		.uleb128 0xb
 14675 01c4 0B       		.uleb128 0xb
 14676 01c5 0B       		.uleb128 0xb
 14677 01c6 49       		.uleb128 0x49
 14678 01c7 13       		.uleb128 0x13
 14679 01c8 3A       		.uleb128 0x3a
 14680 01c9 0B       		.uleb128 0xb
 14681 01ca 3B       		.uleb128 0x3b
 14682 01cb 0B       		.uleb128 0xb
 14683 01cc 01       		.uleb128 0x1
 14684 01cd 13       		.uleb128 0x13
 14685 01ce 00       		.byte	0
 14686 01cf 00       		.byte	0
 14687 01d0 27       		.uleb128 0x27
 14688 01d1 0D       		.uleb128 0xd
 14689 01d2 00       		.byte	0
 14690 01d3 03       		.uleb128 0x3
 14691 01d4 08       		.uleb128 0x8
 14692 01d5 3A       		.uleb128 0x3a
 14693 01d6 0B       		.uleb128 0xb
 14694 01d7 3B       		.uleb128 0x3b
 14695 01d8 05       		.uleb128 0x5
 14696 01d9 49       		.uleb128 0x49
 14697 01da 13       		.uleb128 0x13
 14698 01db 38       		.uleb128 0x38
 14699 01dc 0B       		.uleb128 0xb
 14700 01dd 00       		.byte	0
 14701 01de 00       		.byte	0
 14702 01df 28       		.uleb128 0x28
 14703 01e0 0D       		.uleb128 0xd
 14704 01e1 00       		.byte	0
 14705 01e2 03       		.uleb128 0x3
 14706 01e3 08       		.uleb128 0x8
 14707 01e4 3A       		.uleb128 0x3a
 14708 01e5 0B       		.uleb128 0xb
 14709 01e6 3B       		.uleb128 0x3b
 14710 01e7 05       		.uleb128 0x5
 14711 01e8 49       		.uleb128 0x49
 14712 01e9 13       		.uleb128 0x13
 14713 01ea 38       		.uleb128 0x38
 14714 01eb 05       		.uleb128 0x5
 14715 01ec 00       		.byte	0
 14716 01ed 00       		.byte	0
 14717 01ee 29       		.uleb128 0x29
 14718 01ef 13       		.uleb128 0x13
 14719 01f0 01       		.byte	0x1
 14720 01f1 0B       		.uleb128 0xb
 14721 01f2 05       		.uleb128 0x5
 14722 01f3 3A       		.uleb128 0x3a
 14723 01f4 0B       		.uleb128 0xb
 14724 01f5 3B       		.uleb128 0x3b
 14725 01f6 05       		.uleb128 0x5
 14726 01f7 01       		.uleb128 0x1
 14727 01f8 13       		.uleb128 0x13
 14728 01f9 00       		.byte	0
 14729 01fa 00       		.byte	0
ARM GAS  /var/folders/qd/4mxf5pkd0zdf0b9dd1hp39180000gn/T//cc0H01tt.s 			page 260


 14730 01fb 2A       		.uleb128 0x2a
 14731 01fc 13       		.uleb128 0x13
 14732 01fd 01       		.byte	0x1
 14733 01fe 0B       		.uleb128 0xb
 14734 01ff 05       		.uleb128 0x5
 14735 0200 3A       		.uleb128 0x3a
 14736 0201 0B       		.uleb128 0xb
 14737 0202 3B       		.uleb128 0x3b
 14738 0203 0B       		.uleb128 0xb
 14739 0204 01       		.uleb128 0x1
 14740 0205 13       		.uleb128 0x13
 14741 0206 00       		.byte	0
 14742 0207 00       		.byte	0
 14743 0208 2B       		.uleb128 0x2b
 14744 0209 34       		.uleb128 0x34
 14745 020a 00       		.byte	0
 14746 020b 03       		.uleb128 0x3
 14747 020c 08       		.uleb128 0x8
 14748 020d 3A       		.uleb128 0x3a
 14749 020e 0B       		.uleb128 0xb
 14750 020f 3B       		.uleb128 0x3b
 14751 0210 05       		.uleb128 0x5
 14752 0211 49       		.uleb128 0x49
 14753 0212 13       		.uleb128 0x13
 14754 0213 3F       		.uleb128 0x3f
 14755 0214 19       		.uleb128 0x19
 14756 0215 3C       		.uleb128 0x3c
 14757 0216 19       		.uleb128 0x19
 14758 0217 00       		.byte	0
 14759 0218 00       		.byte	0
 14760 0219 2C       		.uleb128 0x2c
 14761 021a 0D       		.uleb128 0xd
 14762 021b 00       		.byte	0
 14763 021c 03       		.uleb128 0x3
 14764 021d 08       		.uleb128 0x8
 14765 021e 3A       		.uleb128 0x3a
 14766 021f 0B       		.uleb128 0xb
 14767 0220 3B       		.uleb128 0x3b
 14768 0221 0B       		.uleb128 0xb
 14769 0222 49       		.uleb128 0x49
 14770 0223 13       		.uleb128 0x13
 14771 0224 00       		.byte	0
 14772 0225 00       		.byte	0
 14773 0226 2D       		.uleb128 0x2d
 14774 0227 04       		.uleb128 0x4
 14775 0228 01       		.byte	0x1
 14776 0229 3E       		.uleb128 0x3e
 14777 022a 0B       		.uleb128 0xb
 14778 022b 0B       		.uleb128 0xb
 14779 022c 0B       		.uleb128 0xb
 14780 022d 49       		.uleb128 0x49
 14781 022e 13       		.uleb128 0x13
 14782 022f 3A       		.uleb128 0x3a
 14783 0230 0B       		.uleb128 0xb
 14784 0231 3B       		.uleb128 0x3b
 14785 0232 05       		.uleb128 0x5
 14786 0233 01       		.uleb128 0x1
ARM GAS  /var/folders/qd/4mxf5pkd0zdf0b9dd1hp39180000gn/T//cc0H01tt.s 			page 261


 14787 0234 13       		.uleb128 0x13
 14788 0235 00       		.byte	0
 14789 0236 00       		.byte	0
 14790 0237 2E       		.uleb128 0x2e
 14791 0238 13       		.uleb128 0x13
 14792 0239 01       		.byte	0x1
 14793 023a 0B       		.uleb128 0xb
 14794 023b 06       		.uleb128 0x6
 14795 023c 3A       		.uleb128 0x3a
 14796 023d 0B       		.uleb128 0xb
 14797 023e 3B       		.uleb128 0x3b
 14798 023f 0B       		.uleb128 0xb
 14799 0240 01       		.uleb128 0x1
 14800 0241 13       		.uleb128 0x13
 14801 0242 00       		.byte	0
 14802 0243 00       		.byte	0
 14803 0244 2F       		.uleb128 0x2f
 14804 0245 0D       		.uleb128 0xd
 14805 0246 00       		.byte	0
 14806 0247 03       		.uleb128 0x3
 14807 0248 08       		.uleb128 0x8
 14808 0249 3A       		.uleb128 0x3a
 14809 024a 0B       		.uleb128 0xb
 14810 024b 3B       		.uleb128 0x3b
 14811 024c 0B       		.uleb128 0xb
 14812 024d 49       		.uleb128 0x49
 14813 024e 13       		.uleb128 0x13
 14814 024f 38       		.uleb128 0x38
 14815 0250 05       		.uleb128 0x5
 14816 0251 00       		.byte	0
 14817 0252 00       		.byte	0
 14818 0253 30       		.uleb128 0x30
 14819 0254 21       		.uleb128 0x21
 14820 0255 00       		.byte	0
 14821 0256 49       		.uleb128 0x49
 14822 0257 13       		.uleb128 0x13
 14823 0258 2F       		.uleb128 0x2f
 14824 0259 05       		.uleb128 0x5
 14825 025a 00       		.byte	0
 14826 025b 00       		.byte	0
 14827 025c 31       		.uleb128 0x31
 14828 025d 34       		.uleb128 0x34
 14829 025e 00       		.byte	0
 14830 025f 03       		.uleb128 0x3
 14831 0260 0E       		.uleb128 0xe
 14832 0261 3A       		.uleb128 0x3a
 14833 0262 0B       		.uleb128 0xb
 14834 0263 3B       		.uleb128 0x3b
 14835 0264 0B       		.uleb128 0xb
 14836 0265 49       		.uleb128 0x49
 14837 0266 13       		.uleb128 0x13
 14838 0267 00       		.byte	0
 14839 0268 00       		.byte	0
 14840 0269 32       		.uleb128 0x32
 14841 026a 34       		.uleb128 0x34
 14842 026b 00       		.byte	0
 14843 026c 03       		.uleb128 0x3
ARM GAS  /var/folders/qd/4mxf5pkd0zdf0b9dd1hp39180000gn/T//cc0H01tt.s 			page 262


 14844 026d 0E       		.uleb128 0xe
 14845 026e 3A       		.uleb128 0x3a
 14846 026f 0B       		.uleb128 0xb
 14847 0270 3B       		.uleb128 0x3b
 14848 0271 0B       		.uleb128 0xb
 14849 0272 49       		.uleb128 0x49
 14850 0273 13       		.uleb128 0x13
 14851 0274 02       		.uleb128 0x2
 14852 0275 18       		.uleb128 0x18
 14853 0276 00       		.byte	0
 14854 0277 00       		.byte	0
 14855 0278 33       		.uleb128 0x33
 14856 0279 34       		.uleb128 0x34
 14857 027a 00       		.byte	0
 14858 027b 03       		.uleb128 0x3
 14859 027c 0E       		.uleb128 0xe
 14860 027d 3A       		.uleb128 0x3a
 14861 027e 0B       		.uleb128 0xb
 14862 027f 3B       		.uleb128 0x3b
 14863 0280 0B       		.uleb128 0xb
 14864 0281 49       		.uleb128 0x49
 14865 0282 13       		.uleb128 0x13
 14866 0283 3F       		.uleb128 0x3f
 14867 0284 19       		.uleb128 0x19
 14868 0285 02       		.uleb128 0x2
 14869 0286 18       		.uleb128 0x18
 14870 0287 00       		.byte	0
 14871 0288 00       		.byte	0
 14872 0289 34       		.uleb128 0x34
 14873 028a 34       		.uleb128 0x34
 14874 028b 00       		.byte	0
 14875 028c 03       		.uleb128 0x3
 14876 028d 0E       		.uleb128 0xe
 14877 028e 3A       		.uleb128 0x3a
 14878 028f 0B       		.uleb128 0xb
 14879 0290 3B       		.uleb128 0x3b
 14880 0291 05       		.uleb128 0x5
 14881 0292 49       		.uleb128 0x49
 14882 0293 13       		.uleb128 0x13
 14883 0294 02       		.uleb128 0x2
 14884 0295 18       		.uleb128 0x18
 14885 0296 00       		.byte	0
 14886 0297 00       		.byte	0
 14887 0298 35       		.uleb128 0x35
 14888 0299 2E       		.uleb128 0x2e
 14889 029a 01       		.byte	0x1
 14890 029b 3F       		.uleb128 0x3f
 14891 029c 19       		.uleb128 0x19
 14892 029d 03       		.uleb128 0x3
 14893 029e 0E       		.uleb128 0xe
 14894 029f 3A       		.uleb128 0x3a
 14895 02a0 0B       		.uleb128 0xb
 14896 02a1 3B       		.uleb128 0x3b
 14897 02a2 05       		.uleb128 0x5
 14898 02a3 27       		.uleb128 0x27
 14899 02a4 19       		.uleb128 0x19
 14900 02a5 11       		.uleb128 0x11
ARM GAS  /var/folders/qd/4mxf5pkd0zdf0b9dd1hp39180000gn/T//cc0H01tt.s 			page 263


 14901 02a6 01       		.uleb128 0x1
 14902 02a7 12       		.uleb128 0x12
 14903 02a8 06       		.uleb128 0x6
 14904 02a9 40       		.uleb128 0x40
 14905 02aa 18       		.uleb128 0x18
 14906 02ab 9742     		.uleb128 0x2117
 14907 02ad 19       		.uleb128 0x19
 14908 02ae 01       		.uleb128 0x1
 14909 02af 13       		.uleb128 0x13
 14910 02b0 00       		.byte	0
 14911 02b1 00       		.byte	0
 14912 02b2 36       		.uleb128 0x36
 14913 02b3 1D       		.uleb128 0x1d
 14914 02b4 01       		.byte	0x1
 14915 02b5 31       		.uleb128 0x31
 14916 02b6 13       		.uleb128 0x13
 14917 02b7 52       		.uleb128 0x52
 14918 02b8 01       		.uleb128 0x1
 14919 02b9 55       		.uleb128 0x55
 14920 02ba 17       		.uleb128 0x17
 14921 02bb 58       		.uleb128 0x58
 14922 02bc 0B       		.uleb128 0xb
 14923 02bd 59       		.uleb128 0x59
 14924 02be 05       		.uleb128 0x5
 14925 02bf 00       		.byte	0
 14926 02c0 00       		.byte	0
 14927 02c1 37       		.uleb128 0x37
 14928 02c2 05       		.uleb128 0x5
 14929 02c3 00       		.byte	0
 14930 02c4 31       		.uleb128 0x31
 14931 02c5 13       		.uleb128 0x13
 14932 02c6 02       		.uleb128 0x2
 14933 02c7 18       		.uleb128 0x18
 14934 02c8 00       		.byte	0
 14935 02c9 00       		.byte	0
 14936 02ca 38       		.uleb128 0x38
 14937 02cb 898201   		.uleb128 0x4109
 14938 02ce 01       		.byte	0x1
 14939 02cf 11       		.uleb128 0x11
 14940 02d0 01       		.uleb128 0x1
 14941 02d1 9542     		.uleb128 0x2115
 14942 02d3 19       		.uleb128 0x19
 14943 02d4 31       		.uleb128 0x31
 14944 02d5 13       		.uleb128 0x13
 14945 02d6 01       		.uleb128 0x1
 14946 02d7 13       		.uleb128 0x13
 14947 02d8 00       		.byte	0
 14948 02d9 00       		.byte	0
 14949 02da 39       		.uleb128 0x39
 14950 02db 8A8201   		.uleb128 0x410a
 14951 02de 00       		.byte	0
 14952 02df 02       		.uleb128 0x2
 14953 02e0 18       		.uleb128 0x18
 14954 02e1 9142     		.uleb128 0x2111
 14955 02e3 18       		.uleb128 0x18
 14956 02e4 00       		.byte	0
 14957 02e5 00       		.byte	0
ARM GAS  /var/folders/qd/4mxf5pkd0zdf0b9dd1hp39180000gn/T//cc0H01tt.s 			page 264


 14958 02e6 3A       		.uleb128 0x3a
 14959 02e7 898201   		.uleb128 0x4109
 14960 02ea 00       		.byte	0
 14961 02eb 11       		.uleb128 0x11
 14962 02ec 01       		.uleb128 0x1
 14963 02ed 31       		.uleb128 0x31
 14964 02ee 13       		.uleb128 0x13
 14965 02ef 00       		.byte	0
 14966 02f0 00       		.byte	0
 14967 02f1 3B       		.uleb128 0x3b
 14968 02f2 898201   		.uleb128 0x4109
 14969 02f5 01       		.byte	0x1
 14970 02f6 11       		.uleb128 0x11
 14971 02f7 01       		.uleb128 0x1
 14972 02f8 31       		.uleb128 0x31
 14973 02f9 13       		.uleb128 0x13
 14974 02fa 01       		.uleb128 0x1
 14975 02fb 13       		.uleb128 0x13
 14976 02fc 00       		.byte	0
 14977 02fd 00       		.byte	0
 14978 02fe 3C       		.uleb128 0x3c
 14979 02ff 898201   		.uleb128 0x4109
 14980 0302 00       		.byte	0
 14981 0303 11       		.uleb128 0x11
 14982 0304 01       		.uleb128 0x1
 14983 0305 9542     		.uleb128 0x2115
 14984 0307 19       		.uleb128 0x19
 14985 0308 31       		.uleb128 0x31
 14986 0309 13       		.uleb128 0x13
 14987 030a 00       		.byte	0
 14988 030b 00       		.byte	0
 14989 030c 3D       		.uleb128 0x3d
 14990 030d 2E       		.uleb128 0x2e
 14991 030e 01       		.byte	0x1
 14992 030f 03       		.uleb128 0x3
 14993 0310 0E       		.uleb128 0xe
 14994 0311 3A       		.uleb128 0x3a
 14995 0312 0B       		.uleb128 0xb
 14996 0313 3B       		.uleb128 0x3b
 14997 0314 05       		.uleb128 0x5
 14998 0315 27       		.uleb128 0x27
 14999 0316 19       		.uleb128 0x19
 15000 0317 11       		.uleb128 0x11
 15001 0318 01       		.uleb128 0x1
 15002 0319 12       		.uleb128 0x12
 15003 031a 06       		.uleb128 0x6
 15004 031b 40       		.uleb128 0x40
 15005 031c 18       		.uleb128 0x18
 15006 031d 9742     		.uleb128 0x2117
 15007 031f 19       		.uleb128 0x19
 15008 0320 01       		.uleb128 0x1
 15009 0321 13       		.uleb128 0x13
 15010 0322 00       		.byte	0
 15011 0323 00       		.byte	0
 15012 0324 3E       		.uleb128 0x3e
 15013 0325 05       		.uleb128 0x5
 15014 0326 00       		.byte	0
ARM GAS  /var/folders/qd/4mxf5pkd0zdf0b9dd1hp39180000gn/T//cc0H01tt.s 			page 265


 15015 0327 03       		.uleb128 0x3
 15016 0328 08       		.uleb128 0x8
 15017 0329 3A       		.uleb128 0x3a
 15018 032a 0B       		.uleb128 0xb
 15019 032b 3B       		.uleb128 0x3b
 15020 032c 05       		.uleb128 0x5
 15021 032d 49       		.uleb128 0x49
 15022 032e 13       		.uleb128 0x13
 15023 032f 02       		.uleb128 0x2
 15024 0330 17       		.uleb128 0x17
 15025 0331 00       		.byte	0
 15026 0332 00       		.byte	0
 15027 0333 3F       		.uleb128 0x3f
 15028 0334 1D       		.uleb128 0x1d
 15029 0335 01       		.byte	0x1
 15030 0336 31       		.uleb128 0x31
 15031 0337 13       		.uleb128 0x13
 15032 0338 52       		.uleb128 0x52
 15033 0339 01       		.uleb128 0x1
 15034 033a 55       		.uleb128 0x55
 15035 033b 17       		.uleb128 0x17
 15036 033c 58       		.uleb128 0x58
 15037 033d 0B       		.uleb128 0xb
 15038 033e 59       		.uleb128 0x59
 15039 033f 05       		.uleb128 0x5
 15040 0340 01       		.uleb128 0x1
 15041 0341 13       		.uleb128 0x13
 15042 0342 00       		.byte	0
 15043 0343 00       		.byte	0
 15044 0344 40       		.uleb128 0x40
 15045 0345 05       		.uleb128 0x5
 15046 0346 00       		.byte	0
 15047 0347 31       		.uleb128 0x31
 15048 0348 13       		.uleb128 0x13
 15049 0349 02       		.uleb128 0x2
 15050 034a 17       		.uleb128 0x17
 15051 034b 00       		.byte	0
 15052 034c 00       		.byte	0
 15053 034d 41       		.uleb128 0x41
 15054 034e 898201   		.uleb128 0x4109
 15055 0351 01       		.byte	0x1
 15056 0352 11       		.uleb128 0x11
 15057 0353 01       		.uleb128 0x1
 15058 0354 31       		.uleb128 0x31
 15059 0355 13       		.uleb128 0x13
 15060 0356 00       		.byte	0
 15061 0357 00       		.byte	0
 15062 0358 42       		.uleb128 0x42
 15063 0359 1D       		.uleb128 0x1d
 15064 035a 01       		.byte	0x1
 15065 035b 31       		.uleb128 0x31
 15066 035c 13       		.uleb128 0x13
 15067 035d 52       		.uleb128 0x52
 15068 035e 01       		.uleb128 0x1
 15069 035f 55       		.uleb128 0x55
 15070 0360 17       		.uleb128 0x17
 15071 0361 58       		.uleb128 0x58
ARM GAS  /var/folders/qd/4mxf5pkd0zdf0b9dd1hp39180000gn/T//cc0H01tt.s 			page 266


 15072 0362 0B       		.uleb128 0xb
 15073 0363 59       		.uleb128 0x59
 15074 0364 0B       		.uleb128 0xb
 15075 0365 00       		.byte	0
 15076 0366 00       		.byte	0
 15077 0367 43       		.uleb128 0x43
 15078 0368 1D       		.uleb128 0x1d
 15079 0369 01       		.byte	0x1
 15080 036a 31       		.uleb128 0x31
 15081 036b 13       		.uleb128 0x13
 15082 036c 11       		.uleb128 0x11
 15083 036d 01       		.uleb128 0x1
 15084 036e 12       		.uleb128 0x12
 15085 036f 06       		.uleb128 0x6
 15086 0370 58       		.uleb128 0x58
 15087 0371 0B       		.uleb128 0xb
 15088 0372 59       		.uleb128 0x59
 15089 0373 05       		.uleb128 0x5
 15090 0374 01       		.uleb128 0x1
 15091 0375 13       		.uleb128 0x13
 15092 0376 00       		.byte	0
 15093 0377 00       		.byte	0
 15094 0378 44       		.uleb128 0x44
 15095 0379 1D       		.uleb128 0x1d
 15096 037a 01       		.byte	0x1
 15097 037b 31       		.uleb128 0x31
 15098 037c 13       		.uleb128 0x13
 15099 037d 11       		.uleb128 0x11
 15100 037e 01       		.uleb128 0x1
 15101 037f 12       		.uleb128 0x12
 15102 0380 06       		.uleb128 0x6
 15103 0381 58       		.uleb128 0x58
 15104 0382 0B       		.uleb128 0xb
 15105 0383 59       		.uleb128 0x59
 15106 0384 05       		.uleb128 0x5
 15107 0385 00       		.byte	0
 15108 0386 00       		.byte	0
 15109 0387 45       		.uleb128 0x45
 15110 0388 0B       		.uleb128 0xb
 15111 0389 01       		.byte	0x1
 15112 038a 55       		.uleb128 0x55
 15113 038b 17       		.uleb128 0x17
 15114 038c 00       		.byte	0
 15115 038d 00       		.byte	0
 15116 038e 46       		.uleb128 0x46
 15117 038f 34       		.uleb128 0x34
 15118 0390 00       		.byte	0
 15119 0391 31       		.uleb128 0x31
 15120 0392 13       		.uleb128 0x13
 15121 0393 00       		.byte	0
 15122 0394 00       		.byte	0
 15123 0395 47       		.uleb128 0x47
 15124 0396 2E       		.uleb128 0x2e
 15125 0397 01       		.byte	0x1
 15126 0398 03       		.uleb128 0x3
 15127 0399 0E       		.uleb128 0xe
 15128 039a 3A       		.uleb128 0x3a
ARM GAS  /var/folders/qd/4mxf5pkd0zdf0b9dd1hp39180000gn/T//cc0H01tt.s 			page 267


 15129 039b 0B       		.uleb128 0xb
 15130 039c 3B       		.uleb128 0x3b
 15131 039d 0B       		.uleb128 0xb
 15132 039e 27       		.uleb128 0x27
 15133 039f 19       		.uleb128 0x19
 15134 03a0 11       		.uleb128 0x11
 15135 03a1 01       		.uleb128 0x1
 15136 03a2 12       		.uleb128 0x12
 15137 03a3 06       		.uleb128 0x6
 15138 03a4 40       		.uleb128 0x40
 15139 03a5 18       		.uleb128 0x18
 15140 03a6 9742     		.uleb128 0x2117
 15141 03a8 19       		.uleb128 0x19
 15142 03a9 01       		.uleb128 0x1
 15143 03aa 13       		.uleb128 0x13
 15144 03ab 00       		.byte	0
 15145 03ac 00       		.byte	0
 15146 03ad 48       		.uleb128 0x48
 15147 03ae 05       		.uleb128 0x5
 15148 03af 00       		.byte	0
 15149 03b0 03       		.uleb128 0x3
 15150 03b1 08       		.uleb128 0x8
 15151 03b2 3A       		.uleb128 0x3a
 15152 03b3 0B       		.uleb128 0xb
 15153 03b4 3B       		.uleb128 0x3b
 15154 03b5 0B       		.uleb128 0xb
 15155 03b6 49       		.uleb128 0x49
 15156 03b7 13       		.uleb128 0x13
 15157 03b8 02       		.uleb128 0x2
 15158 03b9 17       		.uleb128 0x17
 15159 03ba 00       		.byte	0
 15160 03bb 00       		.byte	0
 15161 03bc 49       		.uleb128 0x49
 15162 03bd 34       		.uleb128 0x34
 15163 03be 00       		.byte	0
 15164 03bf 03       		.uleb128 0x3
 15165 03c0 0E       		.uleb128 0xe
 15166 03c1 3A       		.uleb128 0x3a
 15167 03c2 0B       		.uleb128 0xb
 15168 03c3 3B       		.uleb128 0x3b
 15169 03c4 05       		.uleb128 0x5
 15170 03c5 49       		.uleb128 0x49
 15171 03c6 13       		.uleb128 0x13
 15172 03c7 02       		.uleb128 0x2
 15173 03c8 17       		.uleb128 0x17
 15174 03c9 00       		.byte	0
 15175 03ca 00       		.byte	0
 15176 03cb 4A       		.uleb128 0x4a
 15177 03cc 2E       		.uleb128 0x2e
 15178 03cd 01       		.byte	0x1
 15179 03ce 3F       		.uleb128 0x3f
 15180 03cf 19       		.uleb128 0x19
 15181 03d0 03       		.uleb128 0x3
 15182 03d1 0E       		.uleb128 0xe
 15183 03d2 3A       		.uleb128 0x3a
 15184 03d3 0B       		.uleb128 0xb
 15185 03d4 3B       		.uleb128 0x3b
ARM GAS  /var/folders/qd/4mxf5pkd0zdf0b9dd1hp39180000gn/T//cc0H01tt.s 			page 268


 15186 03d5 0B       		.uleb128 0xb
 15187 03d6 27       		.uleb128 0x27
 15188 03d7 19       		.uleb128 0x19
 15189 03d8 11       		.uleb128 0x11
 15190 03d9 01       		.uleb128 0x1
 15191 03da 12       		.uleb128 0x12
 15192 03db 06       		.uleb128 0x6
 15193 03dc 40       		.uleb128 0x40
 15194 03dd 18       		.uleb128 0x18
 15195 03de 9742     		.uleb128 0x2117
 15196 03e0 19       		.uleb128 0x19
 15197 03e1 01       		.uleb128 0x1
 15198 03e2 13       		.uleb128 0x13
 15199 03e3 00       		.byte	0
 15200 03e4 00       		.byte	0
 15201 03e5 4B       		.uleb128 0x4b
 15202 03e6 34       		.uleb128 0x34
 15203 03e7 00       		.byte	0
 15204 03e8 03       		.uleb128 0x3
 15205 03e9 0E       		.uleb128 0xe
 15206 03ea 3A       		.uleb128 0x3a
 15207 03eb 0B       		.uleb128 0xb
 15208 03ec 3B       		.uleb128 0x3b
 15209 03ed 0B       		.uleb128 0xb
 15210 03ee 49       		.uleb128 0x49
 15211 03ef 13       		.uleb128 0x13
 15212 03f0 02       		.uleb128 0x2
 15213 03f1 17       		.uleb128 0x17
 15214 03f2 00       		.byte	0
 15215 03f3 00       		.byte	0
 15216 03f4 4C       		.uleb128 0x4c
 15217 03f5 34       		.uleb128 0x34
 15218 03f6 00       		.byte	0
 15219 03f7 03       		.uleb128 0x3
 15220 03f8 08       		.uleb128 0x8
 15221 03f9 3A       		.uleb128 0x3a
 15222 03fa 0B       		.uleb128 0xb
 15223 03fb 3B       		.uleb128 0x3b
 15224 03fc 0B       		.uleb128 0xb
 15225 03fd 49       		.uleb128 0x49
 15226 03fe 13       		.uleb128 0x13
 15227 03ff 02       		.uleb128 0x2
 15228 0400 17       		.uleb128 0x17
 15229 0401 00       		.byte	0
 15230 0402 00       		.byte	0
 15231 0403 4D       		.uleb128 0x4d
 15232 0404 1D       		.uleb128 0x1d
 15233 0405 01       		.byte	0x1
 15234 0406 31       		.uleb128 0x31
 15235 0407 13       		.uleb128 0x13
 15236 0408 52       		.uleb128 0x52
 15237 0409 01       		.uleb128 0x1
 15238 040a 55       		.uleb128 0x55
 15239 040b 17       		.uleb128 0x17
 15240 040c 58       		.uleb128 0x58
 15241 040d 0B       		.uleb128 0xb
 15242 040e 59       		.uleb128 0x59
ARM GAS  /var/folders/qd/4mxf5pkd0zdf0b9dd1hp39180000gn/T//cc0H01tt.s 			page 269


 15243 040f 0B       		.uleb128 0xb
 15244 0410 01       		.uleb128 0x1
 15245 0411 13       		.uleb128 0x13
 15246 0412 00       		.byte	0
 15247 0413 00       		.byte	0
 15248 0414 4E       		.uleb128 0x4e
 15249 0415 1D       		.uleb128 0x1d
 15250 0416 01       		.byte	0x1
 15251 0417 31       		.uleb128 0x31
 15252 0418 13       		.uleb128 0x13
 15253 0419 11       		.uleb128 0x11
 15254 041a 01       		.uleb128 0x1
 15255 041b 12       		.uleb128 0x12
 15256 041c 06       		.uleb128 0x6
 15257 041d 58       		.uleb128 0x58
 15258 041e 0B       		.uleb128 0xb
 15259 041f 59       		.uleb128 0x59
 15260 0420 0B       		.uleb128 0xb
 15261 0421 01       		.uleb128 0x1
 15262 0422 13       		.uleb128 0x13
 15263 0423 00       		.byte	0
 15264 0424 00       		.byte	0
 15265 0425 4F       		.uleb128 0x4f
 15266 0426 2E       		.uleb128 0x2e
 15267 0427 01       		.byte	0x1
 15268 0428 3F       		.uleb128 0x3f
 15269 0429 19       		.uleb128 0x19
 15270 042a 03       		.uleb128 0x3
 15271 042b 0E       		.uleb128 0xe
 15272 042c 3A       		.uleb128 0x3a
 15273 042d 0B       		.uleb128 0xb
 15274 042e 3B       		.uleb128 0x3b
 15275 042f 0B       		.uleb128 0xb
 15276 0430 27       		.uleb128 0x27
 15277 0431 19       		.uleb128 0x19
 15278 0432 20       		.uleb128 0x20
 15279 0433 0B       		.uleb128 0xb
 15280 0434 01       		.uleb128 0x1
 15281 0435 13       		.uleb128 0x13
 15282 0436 00       		.byte	0
 15283 0437 00       		.byte	0
 15284 0438 50       		.uleb128 0x50
 15285 0439 05       		.uleb128 0x5
 15286 043a 00       		.byte	0
 15287 043b 03       		.uleb128 0x3
 15288 043c 0E       		.uleb128 0xe
 15289 043d 3A       		.uleb128 0x3a
 15290 043e 0B       		.uleb128 0xb
 15291 043f 3B       		.uleb128 0x3b
 15292 0440 0B       		.uleb128 0xb
 15293 0441 49       		.uleb128 0x49
 15294 0442 13       		.uleb128 0x13
 15295 0443 00       		.byte	0
 15296 0444 00       		.byte	0
 15297 0445 51       		.uleb128 0x51
 15298 0446 05       		.uleb128 0x5
 15299 0447 00       		.byte	0
ARM GAS  /var/folders/qd/4mxf5pkd0zdf0b9dd1hp39180000gn/T//cc0H01tt.s 			page 270


 15300 0448 03       		.uleb128 0x3
 15301 0449 0E       		.uleb128 0xe
 15302 044a 3A       		.uleb128 0x3a
 15303 044b 0B       		.uleb128 0xb
 15304 044c 3B       		.uleb128 0x3b
 15305 044d 0B       		.uleb128 0xb
 15306 044e 49       		.uleb128 0x49
 15307 044f 13       		.uleb128 0x13
 15308 0450 02       		.uleb128 0x2
 15309 0451 17       		.uleb128 0x17
 15310 0452 00       		.byte	0
 15311 0453 00       		.byte	0
 15312 0454 52       		.uleb128 0x52
 15313 0455 2E       		.uleb128 0x2e
 15314 0456 01       		.byte	0x1
 15315 0457 3F       		.uleb128 0x3f
 15316 0458 19       		.uleb128 0x19
 15317 0459 03       		.uleb128 0x3
 15318 045a 0E       		.uleb128 0xe
 15319 045b 3A       		.uleb128 0x3a
 15320 045c 0B       		.uleb128 0xb
 15321 045d 3B       		.uleb128 0x3b
 15322 045e 0B       		.uleb128 0xb
 15323 045f 27       		.uleb128 0x27
 15324 0460 19       		.uleb128 0x19
 15325 0461 11       		.uleb128 0x11
 15326 0462 01       		.uleb128 0x1
 15327 0463 12       		.uleb128 0x12
 15328 0464 06       		.uleb128 0x6
 15329 0465 40       		.uleb128 0x40
 15330 0466 18       		.uleb128 0x18
 15331 0467 9642     		.uleb128 0x2116
 15332 0469 19       		.uleb128 0x19
 15333 046a 01       		.uleb128 0x1
 15334 046b 13       		.uleb128 0x13
 15335 046c 00       		.byte	0
 15336 046d 00       		.byte	0
 15337 046e 53       		.uleb128 0x53
 15338 046f 1D       		.uleb128 0x1d
 15339 0470 00       		.byte	0
 15340 0471 31       		.uleb128 0x31
 15341 0472 13       		.uleb128 0x13
 15342 0473 52       		.uleb128 0x52
 15343 0474 01       		.uleb128 0x1
 15344 0475 55       		.uleb128 0x55
 15345 0476 17       		.uleb128 0x17
 15346 0477 58       		.uleb128 0x58
 15347 0478 0B       		.uleb128 0xb
 15348 0479 59       		.uleb128 0x59
 15349 047a 0B       		.uleb128 0xb
 15350 047b 00       		.byte	0
 15351 047c 00       		.byte	0
 15352 047d 54       		.uleb128 0x54
 15353 047e 1D       		.uleb128 0x1d
 15354 047f 01       		.byte	0x1
 15355 0480 31       		.uleb128 0x31
 15356 0481 13       		.uleb128 0x13
ARM GAS  /var/folders/qd/4mxf5pkd0zdf0b9dd1hp39180000gn/T//cc0H01tt.s 			page 271


 15357 0482 11       		.uleb128 0x11
 15358 0483 01       		.uleb128 0x1
 15359 0484 12       		.uleb128 0x12
 15360 0485 06       		.uleb128 0x6
 15361 0486 58       		.uleb128 0x58
 15362 0487 0B       		.uleb128 0xb
 15363 0488 59       		.uleb128 0x59
 15364 0489 0B       		.uleb128 0xb
 15365 048a 00       		.byte	0
 15366 048b 00       		.byte	0
 15367 048c 55       		.uleb128 0x55
 15368 048d 2E       		.uleb128 0x2e
 15369 048e 00       		.byte	0
 15370 048f 3F       		.uleb128 0x3f
 15371 0490 19       		.uleb128 0x19
 15372 0491 03       		.uleb128 0x3
 15373 0492 0E       		.uleb128 0xe
 15374 0493 3A       		.uleb128 0x3a
 15375 0494 0B       		.uleb128 0xb
 15376 0495 3B       		.uleb128 0x3b
 15377 0496 0B       		.uleb128 0xb
 15378 0497 27       		.uleb128 0x27
 15379 0498 19       		.uleb128 0x19
 15380 0499 20       		.uleb128 0x20
 15381 049a 0B       		.uleb128 0xb
 15382 049b 00       		.byte	0
 15383 049c 00       		.byte	0
 15384 049d 56       		.uleb128 0x56
 15385 049e 2E       		.uleb128 0x2e
 15386 049f 01       		.byte	0x1
 15387 04a0 03       		.uleb128 0x3
 15388 04a1 0E       		.uleb128 0xe
 15389 04a2 3A       		.uleb128 0x3a
 15390 04a3 0B       		.uleb128 0xb
 15391 04a4 3B       		.uleb128 0x3b
 15392 04a5 0B       		.uleb128 0xb
 15393 04a6 27       		.uleb128 0x27
 15394 04a7 19       		.uleb128 0x19
 15395 04a8 11       		.uleb128 0x11
 15396 04a9 01       		.uleb128 0x1
 15397 04aa 12       		.uleb128 0x12
 15398 04ab 06       		.uleb128 0x6
 15399 04ac 40       		.uleb128 0x40
 15400 04ad 18       		.uleb128 0x18
 15401 04ae 9642     		.uleb128 0x2116
 15402 04b0 19       		.uleb128 0x19
 15403 04b1 01       		.uleb128 0x1
 15404 04b2 13       		.uleb128 0x13
 15405 04b3 00       		.byte	0
 15406 04b4 00       		.byte	0
 15407 04b5 57       		.uleb128 0x57
 15408 04b6 0B       		.uleb128 0xb
 15409 04b7 01       		.byte	0x1
 15410 04b8 11       		.uleb128 0x11
 15411 04b9 01       		.uleb128 0x1
 15412 04ba 12       		.uleb128 0x12
 15413 04bb 06       		.uleb128 0x6
ARM GAS  /var/folders/qd/4mxf5pkd0zdf0b9dd1hp39180000gn/T//cc0H01tt.s 			page 272


 15414 04bc 01       		.uleb128 0x1
 15415 04bd 13       		.uleb128 0x13
 15416 04be 00       		.byte	0
 15417 04bf 00       		.byte	0
 15418 04c0 58       		.uleb128 0x58
 15419 04c1 0B       		.uleb128 0xb
 15420 04c2 01       		.byte	0x1
 15421 04c3 11       		.uleb128 0x11
 15422 04c4 01       		.uleb128 0x1
 15423 04c5 12       		.uleb128 0x12
 15424 04c6 06       		.uleb128 0x6
 15425 04c7 00       		.byte	0
 15426 04c8 00       		.byte	0
 15427 04c9 59       		.uleb128 0x59
 15428 04ca 1D       		.uleb128 0x1d
 15429 04cb 00       		.byte	0
 15430 04cc 31       		.uleb128 0x31
 15431 04cd 13       		.uleb128 0x13
 15432 04ce 11       		.uleb128 0x11
 15433 04cf 01       		.uleb128 0x1
 15434 04d0 12       		.uleb128 0x12
 15435 04d1 06       		.uleb128 0x6
 15436 04d2 58       		.uleb128 0x58
 15437 04d3 0B       		.uleb128 0xb
 15438 04d4 59       		.uleb128 0x59
 15439 04d5 0B       		.uleb128 0xb
 15440 04d6 00       		.byte	0
 15441 04d7 00       		.byte	0
 15442 04d8 5A       		.uleb128 0x5a
 15443 04d9 2E       		.uleb128 0x2e
 15444 04da 01       		.byte	0x1
 15445 04db 03       		.uleb128 0x3
 15446 04dc 0E       		.uleb128 0xe
 15447 04dd 3A       		.uleb128 0x3a
 15448 04de 0B       		.uleb128 0xb
 15449 04df 3B       		.uleb128 0x3b
 15450 04e0 0B       		.uleb128 0xb
 15451 04e1 27       		.uleb128 0x27
 15452 04e2 19       		.uleb128 0x19
 15453 04e3 49       		.uleb128 0x49
 15454 04e4 13       		.uleb128 0x13
 15455 04e5 20       		.uleb128 0x20
 15456 04e6 0B       		.uleb128 0xb
 15457 04e7 01       		.uleb128 0x1
 15458 04e8 13       		.uleb128 0x13
 15459 04e9 00       		.byte	0
 15460 04ea 00       		.byte	0
 15461 04eb 5B       		.uleb128 0x5b
 15462 04ec 05       		.uleb128 0x5
 15463 04ed 00       		.byte	0
 15464 04ee 03       		.uleb128 0x3
 15465 04ef 08       		.uleb128 0x8
 15466 04f0 3A       		.uleb128 0x3a
 15467 04f1 0B       		.uleb128 0xb
 15468 04f2 3B       		.uleb128 0x3b
 15469 04f3 0B       		.uleb128 0xb
 15470 04f4 49       		.uleb128 0x49
ARM GAS  /var/folders/qd/4mxf5pkd0zdf0b9dd1hp39180000gn/T//cc0H01tt.s 			page 273


 15471 04f5 13       		.uleb128 0x13
 15472 04f6 00       		.byte	0
 15473 04f7 00       		.byte	0
 15474 04f8 5C       		.uleb128 0x5c
 15475 04f9 2E       		.uleb128 0x2e
 15476 04fa 01       		.byte	0x1
 15477 04fb 03       		.uleb128 0x3
 15478 04fc 0E       		.uleb128 0xe
 15479 04fd 3A       		.uleb128 0x3a
 15480 04fe 0B       		.uleb128 0xb
 15481 04ff 3B       		.uleb128 0x3b
 15482 0500 05       		.uleb128 0x5
 15483 0501 27       		.uleb128 0x27
 15484 0502 19       		.uleb128 0x19
 15485 0503 20       		.uleb128 0x20
 15486 0504 0B       		.uleb128 0xb
 15487 0505 01       		.uleb128 0x1
 15488 0506 13       		.uleb128 0x13
 15489 0507 00       		.byte	0
 15490 0508 00       		.byte	0
 15491 0509 5D       		.uleb128 0x5d
 15492 050a 05       		.uleb128 0x5
 15493 050b 00       		.byte	0
 15494 050c 03       		.uleb128 0x3
 15495 050d 08       		.uleb128 0x8
 15496 050e 3A       		.uleb128 0x3a
 15497 050f 0B       		.uleb128 0xb
 15498 0510 3B       		.uleb128 0x3b
 15499 0511 05       		.uleb128 0x5
 15500 0512 49       		.uleb128 0x49
 15501 0513 13       		.uleb128 0x13
 15502 0514 00       		.byte	0
 15503 0515 00       		.byte	0
 15504 0516 5E       		.uleb128 0x5e
 15505 0517 2E       		.uleb128 0x2e
 15506 0518 00       		.byte	0
 15507 0519 03       		.uleb128 0x3
 15508 051a 0E       		.uleb128 0xe
 15509 051b 3A       		.uleb128 0x3a
 15510 051c 0B       		.uleb128 0xb
 15511 051d 3B       		.uleb128 0x3b
 15512 051e 0B       		.uleb128 0xb
 15513 051f 27       		.uleb128 0x27
 15514 0520 19       		.uleb128 0x19
 15515 0521 49       		.uleb128 0x49
 15516 0522 13       		.uleb128 0x13
 15517 0523 20       		.uleb128 0x20
 15518 0524 0B       		.uleb128 0xb
 15519 0525 00       		.byte	0
 15520 0526 00       		.byte	0
 15521 0527 5F       		.uleb128 0x5f
 15522 0528 34       		.uleb128 0x34
 15523 0529 00       		.byte	0
 15524 052a 03       		.uleb128 0x3
 15525 052b 0E       		.uleb128 0xe
 15526 052c 49       		.uleb128 0x49
 15527 052d 13       		.uleb128 0x13
ARM GAS  /var/folders/qd/4mxf5pkd0zdf0b9dd1hp39180000gn/T//cc0H01tt.s 			page 274


 15528 052e 34       		.uleb128 0x34
 15529 052f 19       		.uleb128 0x19
 15530 0530 1C       		.uleb128 0x1c
 15531 0531 0E       		.uleb128 0xe
 15532 0532 00       		.byte	0
 15533 0533 00       		.byte	0
 15534 0534 60       		.uleb128 0x60
 15535 0535 2E       		.uleb128 0x2e
 15536 0536 00       		.byte	0
 15537 0537 03       		.uleb128 0x3
 15538 0538 0E       		.uleb128 0xe
 15539 0539 3A       		.uleb128 0x3a
 15540 053a 0B       		.uleb128 0xb
 15541 053b 3B       		.uleb128 0x3b
 15542 053c 05       		.uleb128 0x5
 15543 053d 27       		.uleb128 0x27
 15544 053e 19       		.uleb128 0x19
 15545 053f 20       		.uleb128 0x20
 15546 0540 0B       		.uleb128 0xb
 15547 0541 00       		.byte	0
 15548 0542 00       		.byte	0
 15549 0543 61       		.uleb128 0x61
 15550 0544 05       		.uleb128 0x5
 15551 0545 00       		.byte	0
 15552 0546 03       		.uleb128 0x3
 15553 0547 0E       		.uleb128 0xe
 15554 0548 3A       		.uleb128 0x3a
 15555 0549 0B       		.uleb128 0xb
 15556 054a 3B       		.uleb128 0x3b
 15557 054b 05       		.uleb128 0x5
 15558 054c 49       		.uleb128 0x49
 15559 054d 13       		.uleb128 0x13
 15560 054e 00       		.byte	0
 15561 054f 00       		.byte	0
 15562 0550 62       		.uleb128 0x62
 15563 0551 2E       		.uleb128 0x2e
 15564 0552 01       		.byte	0x1
 15565 0553 31       		.uleb128 0x31
 15566 0554 13       		.uleb128 0x13
 15567 0555 11       		.uleb128 0x11
 15568 0556 01       		.uleb128 0x1
 15569 0557 12       		.uleb128 0x12
 15570 0558 06       		.uleb128 0x6
 15571 0559 40       		.uleb128 0x40
 15572 055a 18       		.uleb128 0x18
 15573 055b 9742     		.uleb128 0x2117
 15574 055d 19       		.uleb128 0x19
 15575 055e 01       		.uleb128 0x1
 15576 055f 13       		.uleb128 0x13
 15577 0560 00       		.byte	0
 15578 0561 00       		.byte	0
 15579 0562 63       		.uleb128 0x63
 15580 0563 2E       		.uleb128 0x2e
 15581 0564 01       		.byte	0x1
 15582 0565 31       		.uleb128 0x31
 15583 0566 13       		.uleb128 0x13
 15584 0567 11       		.uleb128 0x11
ARM GAS  /var/folders/qd/4mxf5pkd0zdf0b9dd1hp39180000gn/T//cc0H01tt.s 			page 275


 15585 0568 01       		.uleb128 0x1
 15586 0569 12       		.uleb128 0x12
 15587 056a 06       		.uleb128 0x6
 15588 056b 40       		.uleb128 0x40
 15589 056c 18       		.uleb128 0x18
 15590 056d 9642     		.uleb128 0x2116
 15591 056f 19       		.uleb128 0x19
 15592 0570 01       		.uleb128 0x1
 15593 0571 13       		.uleb128 0x13
 15594 0572 00       		.byte	0
 15595 0573 00       		.byte	0
 15596 0574 64       		.uleb128 0x64
 15597 0575 2E       		.uleb128 0x2e
 15598 0576 00       		.byte	0
 15599 0577 3F       		.uleb128 0x3f
 15600 0578 19       		.uleb128 0x19
 15601 0579 3C       		.uleb128 0x3c
 15602 057a 19       		.uleb128 0x19
 15603 057b 6E       		.uleb128 0x6e
 15604 057c 0E       		.uleb128 0xe
 15605 057d 03       		.uleb128 0x3
 15606 057e 0E       		.uleb128 0xe
 15607 057f 3A       		.uleb128 0x3a
 15608 0580 0B       		.uleb128 0xb
 15609 0581 3B       		.uleb128 0x3b
 15610 0582 0B       		.uleb128 0xb
 15611 0583 00       		.byte	0
 15612 0584 00       		.byte	0
 15613 0585 65       		.uleb128 0x65
 15614 0586 2E       		.uleb128 0x2e
 15615 0587 00       		.byte	0
 15616 0588 3F       		.uleb128 0x3f
 15617 0589 19       		.uleb128 0x19
 15618 058a 3C       		.uleb128 0x3c
 15619 058b 19       		.uleb128 0x19
 15620 058c 6E       		.uleb128 0x6e
 15621 058d 0E       		.uleb128 0xe
 15622 058e 03       		.uleb128 0x3
 15623 058f 0E       		.uleb128 0xe
 15624 0590 00       		.byte	0
 15625 0591 00       		.byte	0
 15626 0592 66       		.uleb128 0x66
 15627 0593 2E       		.uleb128 0x2e
 15628 0594 00       		.byte	0
 15629 0595 3F       		.uleb128 0x3f
 15630 0596 19       		.uleb128 0x19
 15631 0597 3C       		.uleb128 0x3c
 15632 0598 19       		.uleb128 0x19
 15633 0599 6E       		.uleb128 0x6e
 15634 059a 0E       		.uleb128 0xe
 15635 059b 03       		.uleb128 0x3
 15636 059c 0E       		.uleb128 0xe
 15637 059d 3A       		.uleb128 0x3a
 15638 059e 0B       		.uleb128 0xb
 15639 059f 3B       		.uleb128 0x3b
 15640 05a0 05       		.uleb128 0x5
 15641 05a1 00       		.byte	0
ARM GAS  /var/folders/qd/4mxf5pkd0zdf0b9dd1hp39180000gn/T//cc0H01tt.s 			page 276


 15642 05a2 00       		.byte	0
 15643 05a3 00       		.byte	0
 15644              		.section	.debug_loc,"",%progbits
 15645              	.Ldebug_loc0:
 15646              	.LLST60:
 15647 0000 00000000 		.4byte	.LVL232
 15648 0004 12000000 		.4byte	.LVL234
 15649 0008 0100     		.2byte	0x1
 15650 000a 50       		.byte	0x50
 15651 000b 12000000 		.4byte	.LVL234
 15652 000f AC000000 		.4byte	.LFE278
 15653 0013 0400     		.2byte	0x4
 15654 0015 F3       		.byte	0xf3
 15655 0016 01       		.uleb128 0x1
 15656 0017 50       		.byte	0x50
 15657 0018 9F       		.byte	0x9f
 15658 0019 00000000 		.4byte	0
 15659 001d 00000000 		.4byte	0
 15660              	.LLST61:
 15661 0021 10000000 		.4byte	.LVL233
 15662 0025 22000000 		.4byte	.LVL235
 15663 0029 0A00     		.2byte	0xa
 15664 002b 9E       		.byte	0x9e
 15665 002c 08       		.uleb128 0x8
 15666 002d 00000060 		.4byte	0x60000000
 15667 0031 FB21F9BF 		.4byte	0xbff921fb
 15668 0035 00000000 		.4byte	0
 15669 0039 00000000 		.4byte	0
 15670              	.LLST62:
 15671 003d 2E000000 		.4byte	.LVL237
 15672 0041 6C000000 		.4byte	.LVL247
 15673 0045 0600     		.2byte	0x6
 15674 0047 03       		.byte	0x3
 15675 0048 00000000 		.4byte	wipEndSignal_sem
 15676 004c 9F       		.byte	0x9f
 15677 004d 78000000 		.4byte	.LVL248
 15678 0051 86000000 		.4byte	.LVL252
 15679 0055 0600     		.2byte	0x6
 15680 0057 03       		.byte	0x3
 15681 0058 00000000 		.4byte	wipEndSignal_sem
 15682 005c 9F       		.byte	0x9f
 15683 005d 00000000 		.4byte	0
 15684 0061 00000000 		.4byte	0
 15685              	.LLST63:
 15686 0065 2E000000 		.4byte	.LVL237
 15687 0069 34000000 		.4byte	.LVL238
 15688 006d 0300     		.2byte	0x3
 15689 006f 08       		.byte	0x8
 15690 0070 20       		.byte	0x20
 15691 0071 9F       		.byte	0x9f
 15692 0072 00000000 		.4byte	0
 15693 0076 00000000 		.4byte	0
 15694              	.LLST64:
 15695 007a 3C000000 		.4byte	.LVL240
 15696 007e 48000000 		.4byte	.LVL242
 15697 0082 0600     		.2byte	0x6
 15698 0084 03       		.byte	0x3
ARM GAS  /var/folders/qd/4mxf5pkd0zdf0b9dd1hp39180000gn/T//cc0H01tt.s 			page 277


 15699 0085 00000000 		.4byte	wipEndSignal_sem
 15700 0089 9F       		.byte	0x9f
 15701 008a 80000000 		.4byte	.LVL250
 15702 008e 86000000 		.4byte	.LVL252
 15703 0092 0600     		.2byte	0x6
 15704 0094 03       		.byte	0x3
 15705 0095 00000000 		.4byte	wipEndSignal_sem
 15706 0099 9F       		.byte	0x9f
 15707 009a 00000000 		.4byte	0
 15708 009e 00000000 		.4byte	0
 15709              	.LLST65:
 15710 00a2 66000000 		.4byte	.LVL246
 15711 00a6 6C000000 		.4byte	.LVL247
 15712 00aa 0200     		.2byte	0x2
 15713 00ac 30       		.byte	0x30
 15714 00ad 9F       		.byte	0x9f
 15715 00ae 00000000 		.4byte	0
 15716 00b2 00000000 		.4byte	0
 15717              	.LLST39:
 15718 00b6 00000000 		.4byte	.LVL150
 15719 00ba 18000000 		.4byte	.LVL152
 15720 00be 0100     		.2byte	0x1
 15721 00c0 50       		.byte	0x50
 15722 00c1 18000000 		.4byte	.LVL152
 15723 00c5 D0000000 		.4byte	.LFE277
 15724 00c9 0400     		.2byte	0x4
 15725 00cb F3       		.byte	0xf3
 15726 00cc 01       		.uleb128 0x1
 15727 00cd 50       		.byte	0x50
 15728 00ce 9F       		.byte	0x9f
 15729 00cf 00000000 		.4byte	0
 15730 00d3 00000000 		.4byte	0
 15731              	.LLST40:
 15732 00d7 36000000 		.4byte	.LVL156
 15733 00db 3A000000 		.4byte	.LVL157
 15734 00df 0100     		.2byte	0x1
 15735 00e1 50       		.byte	0x50
 15736 00e2 3A000000 		.4byte	.LVL157
 15737 00e6 58000000 		.4byte	.LVL161
 15738 00ea 0100     		.2byte	0x1
 15739 00ec 54       		.byte	0x54
 15740 00ed 58000000 		.4byte	.LVL161
 15741 00f1 D0000000 		.4byte	.LFE277
 15742 00f5 0200     		.2byte	0x2
 15743 00f7 30       		.byte	0x30
 15744 00f8 9F       		.byte	0x9f
 15745 00f9 00000000 		.4byte	0
 15746 00fd 00000000 		.4byte	0
 15747              	.LLST41:
 15748 0101 10000000 		.4byte	.LVL151
 15749 0105 22000000 		.4byte	.LVL153
 15750 0109 0A00     		.2byte	0xa
 15751 010b 9E       		.byte	0x9e
 15752 010c 08       		.uleb128 0x8
 15753 010d 00000060 		.4byte	0x60000000
 15754 0111 FB211940 		.4byte	0x401921fb
 15755 0115 00000000 		.4byte	0
ARM GAS  /var/folders/qd/4mxf5pkd0zdf0b9dd1hp39180000gn/T//cc0H01tt.s 			page 278


 15756 0119 00000000 		.4byte	0
 15757              	.LLST42:
 15758 011d 58000000 		.4byte	.LVL161
 15759 0121 96000000 		.4byte	.LVL171
 15760 0125 0600     		.2byte	0x6
 15761 0127 03       		.byte	0x3
 15762 0128 00000000 		.4byte	wipEndSignal_sem
 15763 012c 9F       		.byte	0x9f
 15764 012d A2000000 		.4byte	.LVL172
 15765 0131 B0000000 		.4byte	.LVL176
 15766 0135 0600     		.2byte	0x6
 15767 0137 03       		.byte	0x3
 15768 0138 00000000 		.4byte	wipEndSignal_sem
 15769 013c 9F       		.byte	0x9f
 15770 013d 00000000 		.4byte	0
 15771 0141 00000000 		.4byte	0
 15772              	.LLST43:
 15773 0145 58000000 		.4byte	.LVL161
 15774 0149 5E000000 		.4byte	.LVL162
 15775 014d 0300     		.2byte	0x3
 15776 014f 08       		.byte	0x8
 15777 0150 20       		.byte	0x20
 15778 0151 9F       		.byte	0x9f
 15779 0152 00000000 		.4byte	0
 15780 0156 00000000 		.4byte	0
 15781              	.LLST44:
 15782 015a 66000000 		.4byte	.LVL164
 15783 015e 72000000 		.4byte	.LVL166
 15784 0162 0600     		.2byte	0x6
 15785 0164 03       		.byte	0x3
 15786 0165 00000000 		.4byte	wipEndSignal_sem
 15787 0169 9F       		.byte	0x9f
 15788 016a AA000000 		.4byte	.LVL174
 15789 016e B0000000 		.4byte	.LVL176
 15790 0172 0600     		.2byte	0x6
 15791 0174 03       		.byte	0x3
 15792 0175 00000000 		.4byte	wipEndSignal_sem
 15793 0179 9F       		.byte	0x9f
 15794 017a 00000000 		.4byte	0
 15795 017e 00000000 		.4byte	0
 15796              	.LLST45:
 15797 0182 90000000 		.4byte	.LVL170
 15798 0186 96000000 		.4byte	.LVL171
 15799 018a 0200     		.2byte	0x2
 15800 018c 30       		.byte	0x30
 15801 018d 9F       		.byte	0x9f
 15802 018e 00000000 		.4byte	0
 15803 0192 00000000 		.4byte	0
 15804              	.LLST53:
 15805 0196 24000000 		.4byte	.LVL220
 15806 019a 2C000000 		.4byte	.LVL221
 15807 019e 0100     		.2byte	0x1
 15808 01a0 50       		.byte	0x50
 15809 01a1 2C000000 		.4byte	.LVL221
 15810 01a5 B4000000 		.4byte	.LFE276
 15811 01a9 0100     		.2byte	0x1
 15812 01ab 59       		.byte	0x59
ARM GAS  /var/folders/qd/4mxf5pkd0zdf0b9dd1hp39180000gn/T//cc0H01tt.s 			page 279


 15813 01ac 00000000 		.4byte	0
 15814 01b0 00000000 		.4byte	0
 15815              	.LLST54:
 15816 01b4 36000000 		.4byte	.LVL222
 15817 01b8 3C000000 		.4byte	.LVL223
 15818 01bc 0200     		.2byte	0x2
 15819 01be 30       		.byte	0x30
 15820 01bf 9F       		.byte	0x9f
 15821 01c0 00000000 		.4byte	0
 15822 01c4 00000000 		.4byte	0
 15823              	.LLST55:
 15824 01c8 48000000 		.4byte	.LVL225
 15825 01cc 5A000000 		.4byte	.LVL226
 15826 01d0 0A00     		.2byte	0xa
 15827 01d2 9E       		.byte	0x9e
 15828 01d3 08       		.uleb128 0x8
 15829 01d4 00000040 		.4byte	0x40000000
 15830 01d8 7A6A3F40 		.4byte	0x403f6a7a
 15831 01dc 00000000 		.4byte	0
 15832 01e0 00000000 		.4byte	0
 15833              	.LLST56:
 15834 01e4 24000000 		.4byte	.LVL220
 15835 01e8 36000000 		.4byte	.LVL222
 15836 01ec 0A00     		.2byte	0xa
 15837 01ee 9E       		.byte	0x9e
 15838 01ef 08       		.uleb128 0x8
 15839 01f0 00000060 		.4byte	0x60000000
 15840 01f4 FB21E93F 		.4byte	0x3fe921fb
 15841 01f8 00000000 		.4byte	0
 15842 01fc 00000000 		.4byte	0
 15843              	.LLST57:
 15844 0200 5E000000 		.4byte	.LVL227
 15845 0204 74000000 		.4byte	.LVL228
 15846 0208 0A00     		.2byte	0xa
 15847 020a 9E       		.byte	0x9e
 15848 020b 08       		.uleb128 0x8
 15849 020c 00000060 		.4byte	0x60000000
 15850 0210 FB21E9BF 		.4byte	0xbfe921fb
 15851 0214 00000000 		.4byte	0
 15852 0218 00000000 		.4byte	0
 15853              	.LLST58:
 15854 021c 74000000 		.4byte	.LVL228
 15855 0220 7E000000 		.4byte	.LVL229
 15856 0224 0200     		.2byte	0x2
 15857 0226 44       		.byte	0x44
 15858 0227 9F       		.byte	0x9f
 15859 0228 00000000 		.4byte	0
 15860 022c 00000000 		.4byte	0
 15861              	.LLST59:
 15862 0230 74000000 		.4byte	.LVL228
 15863 0234 7E000000 		.4byte	.LVL229
 15864 0238 0100     		.2byte	0x1
 15865 023a 59       		.byte	0x59
 15866 023b 00000000 		.4byte	0
 15867 023f 00000000 		.4byte	0
 15868              	.LLST50:
 15869 0243 00000000 		.4byte	.LVL211
ARM GAS  /var/folders/qd/4mxf5pkd0zdf0b9dd1hp39180000gn/T//cc0H01tt.s 			page 280


 15870 0247 0E000000 		.4byte	.LVL212
 15871 024b 0100     		.2byte	0x1
 15872 024d 50       		.byte	0x50
 15873 024e 0E000000 		.4byte	.LVL212
 15874 0252 11000000 		.4byte	.LVL213-1
 15875 0256 0100     		.2byte	0x1
 15876 0258 51       		.byte	0x51
 15877 0259 11000000 		.4byte	.LVL213-1
 15878 025d 2C000000 		.4byte	.LFE273
 15879 0261 0400     		.2byte	0x4
 15880 0263 F3       		.byte	0xf3
 15881 0264 01       		.uleb128 0x1
 15882 0265 50       		.byte	0x50
 15883 0266 9F       		.byte	0x9f
 15884 0267 00000000 		.4byte	0
 15885 026b 00000000 		.4byte	0
 15886              	.LLST46:
 15887 026f 00000000 		.4byte	.LVL178
 15888 0273 0F000000 		.4byte	.LVL179-1
 15889 0277 0800     		.2byte	0x8
 15890 0279 90       		.byte	0x90
 15891 027a 40       		.uleb128 0x40
 15892 027b 93       		.byte	0x93
 15893 027c 04       		.uleb128 0x4
 15894 027d 90       		.byte	0x90
 15895 027e 41       		.uleb128 0x41
 15896 027f 93       		.byte	0x93
 15897 0280 04       		.uleb128 0x4
 15898 0281 0F000000 		.4byte	.LVL179-1
 15899 0285 E8000000 		.4byte	.LFE272
 15900 0289 0600     		.2byte	0x6
 15901 028b F3       		.byte	0xf3
 15902 028c 03       		.uleb128 0x3
 15903 028d F5       		.byte	0xf5
 15904 028e 40       		.uleb128 0x40
 15905 028f 33       		.uleb128 0x33
 15906 0290 9F       		.byte	0x9f
 15907 0291 00000000 		.4byte	0
 15908 0295 00000000 		.4byte	0
 15909              	.LLST47:
 15910 0299 14000000 		.4byte	.LVL180
 15911 029d 54000000 		.4byte	.LVL185
 15912 02a1 0600     		.2byte	0x6
 15913 02a3 56       		.byte	0x56
 15914 02a4 93       		.byte	0x93
 15915 02a5 04       		.uleb128 0x4
 15916 02a6 57       		.byte	0x57
 15917 02a7 93       		.byte	0x93
 15918 02a8 04       		.uleb128 0x4
 15919 02a9 B8000000 		.4byte	.LVL191
 15920 02ad C2000000 		.4byte	.LVL192
 15921 02b1 0600     		.2byte	0x6
 15922 02b3 56       		.byte	0x56
 15923 02b4 93       		.byte	0x93
 15924 02b5 04       		.uleb128 0x4
 15925 02b6 57       		.byte	0x57
 15926 02b7 93       		.byte	0x93
ARM GAS  /var/folders/qd/4mxf5pkd0zdf0b9dd1hp39180000gn/T//cc0H01tt.s 			page 281


 15927 02b8 04       		.uleb128 0x4
 15928 02b9 00000000 		.4byte	0
 15929 02bd 00000000 		.4byte	0
 15930              	.LLST35:
 15931 02c1 00000000 		.4byte	.LVL141
 15932 02c5 0C000000 		.4byte	.LVL142
 15933 02c9 0100     		.2byte	0x1
 15934 02cb 50       		.byte	0x50
 15935 02cc 0C000000 		.4byte	.LVL142
 15936 02d0 30000000 		.4byte	.LVL145
 15937 02d4 0100     		.2byte	0x1
 15938 02d6 54       		.byte	0x54
 15939 02d7 30000000 		.4byte	.LVL145
 15940 02db 74000000 		.4byte	.LFE271
 15941 02df 0400     		.2byte	0x4
 15942 02e1 F3       		.byte	0xf3
 15943 02e2 01       		.uleb128 0x1
 15944 02e3 50       		.byte	0x50
 15945 02e4 9F       		.byte	0x9f
 15946 02e5 00000000 		.4byte	0
 15947 02e9 00000000 		.4byte	0
 15948              	.LLST36:
 15949 02ed 00000000 		.4byte	.LVL141
 15950 02f1 19000000 		.4byte	.LVL143-1
 15951 02f5 0100     		.2byte	0x1
 15952 02f7 51       		.byte	0x51
 15953 02f8 19000000 		.4byte	.LVL143-1
 15954 02fc 2A000000 		.4byte	.LVL144
 15955 0300 0100     		.2byte	0x1
 15956 0302 55       		.byte	0x55
 15957 0303 2A000000 		.4byte	.LVL144
 15958 0307 74000000 		.4byte	.LFE271
 15959 030b 0400     		.2byte	0x4
 15960 030d F3       		.byte	0xf3
 15961 030e 01       		.uleb128 0x1
 15962 030f 51       		.byte	0x51
 15963 0310 9F       		.byte	0x9f
 15964 0311 00000000 		.4byte	0
 15965 0315 00000000 		.4byte	0
 15966              	.LLST37:
 15967 0319 1A000000 		.4byte	.LVL143
 15968 031d 30000000 		.4byte	.LVL145
 15969 0321 0200     		.2byte	0x2
 15970 0323 30       		.byte	0x30
 15971 0324 9F       		.byte	0x9f
 15972 0325 00000000 		.4byte	0
 15973 0329 00000000 		.4byte	0
 15974              	.LLST38:
 15975 032d 3C000000 		.4byte	.LVL147
 15976 0331 4E000000 		.4byte	.LVL148
 15977 0335 0A00     		.2byte	0xa
 15978 0337 9E       		.byte	0x9e
 15979 0338 08       		.uleb128 0x8
 15980 0339 00000060 		.4byte	0x60000000
 15981 033d FB21C93F 		.4byte	0x3fc921fb
 15982 0341 00000000 		.4byte	0
 15983 0345 00000000 		.4byte	0
ARM GAS  /var/folders/qd/4mxf5pkd0zdf0b9dd1hp39180000gn/T//cc0H01tt.s 			page 282


 15984              	.LLST33:
 15985 0349 00000000 		.4byte	.LVL134
 15986 034d 0F000000 		.4byte	.LVL135-1
 15987 0351 0100     		.2byte	0x1
 15988 0353 50       		.byte	0x50
 15989 0354 0F000000 		.4byte	.LVL135-1
 15990 0358 38000000 		.4byte	.LFE270
 15991 035c 0100     		.2byte	0x1
 15992 035e 54       		.byte	0x54
 15993 035f 00000000 		.4byte	0
 15994 0363 00000000 		.4byte	0
 15995              	.LLST34:
 15996 0367 14000000 		.4byte	.LVL136
 15997 036b 16000000 		.4byte	.LVL137
 15998 036f 0100     		.2byte	0x1
 15999 0371 50       		.byte	0x50
 16000 0372 16000000 		.4byte	.LVL137
 16001 0376 38000000 		.4byte	.LFE270
 16002 037a 0100     		.2byte	0x1
 16003 037c 57       		.byte	0x57
 16004 037d 00000000 		.4byte	0
 16005 0381 00000000 		.4byte	0
 16006              	.LLST31:
 16007 0385 00000000 		.4byte	.LVL128
 16008 0389 0E000000 		.4byte	.LVL129
 16009 038d 0100     		.2byte	0x1
 16010 038f 50       		.byte	0x50
 16011 0390 0E000000 		.4byte	.LVL129
 16012 0394 38000000 		.4byte	.LFE269
 16013 0398 0400     		.2byte	0x4
 16014 039a F3       		.byte	0xf3
 16015 039b 01       		.uleb128 0x1
 16016 039c 50       		.byte	0x50
 16017 039d 9F       		.byte	0x9f
 16018 039e 00000000 		.4byte	0
 16019 03a2 00000000 		.4byte	0
 16020              	.LLST32:
 16021 03a6 00000000 		.4byte	.LVL128
 16022 03aa 0E000000 		.4byte	.LVL129
 16023 03ae 0100     		.2byte	0x1
 16024 03b0 51       		.byte	0x51
 16025 03b1 0E000000 		.4byte	.LVL129
 16026 03b5 38000000 		.4byte	.LFE269
 16027 03b9 0100     		.2byte	0x1
 16028 03bb 55       		.byte	0x55
 16029 03bc 00000000 		.4byte	0
 16030 03c0 00000000 		.4byte	0
 16031              	.LLST27:
 16032 03c4 00000000 		.4byte	.LVL114
 16033 03c8 17000000 		.4byte	.LVL115-1
 16034 03cc 0100     		.2byte	0x1
 16035 03ce 50       		.byte	0x50
 16036 03cf 17000000 		.4byte	.LVL115-1
 16037 03d3 94000000 		.4byte	.LFE268
 16038 03d7 0400     		.2byte	0x4
 16039 03d9 F3       		.byte	0xf3
 16040 03da 01       		.uleb128 0x1
ARM GAS  /var/folders/qd/4mxf5pkd0zdf0b9dd1hp39180000gn/T//cc0H01tt.s 			page 283


 16041 03db 50       		.byte	0x50
 16042 03dc 9F       		.byte	0x9f
 16043 03dd 00000000 		.4byte	0
 16044 03e1 00000000 		.4byte	0
 16045              	.LLST28:
 16046 03e5 00000000 		.4byte	.LVL114
 16047 03e9 17000000 		.4byte	.LVL115-1
 16048 03ed 0100     		.2byte	0x1
 16049 03ef 51       		.byte	0x51
 16050 03f0 17000000 		.4byte	.LVL115-1
 16051 03f4 72000000 		.4byte	.LVL124
 16052 03f8 0100     		.2byte	0x1
 16053 03fa 57       		.byte	0x57
 16054 03fb 72000000 		.4byte	.LVL124
 16055 03ff 76000000 		.4byte	.LVL125
 16056 0403 0400     		.2byte	0x4
 16057 0405 F3       		.byte	0xf3
 16058 0406 01       		.uleb128 0x1
 16059 0407 51       		.byte	0x51
 16060 0408 9F       		.byte	0x9f
 16061 0409 76000000 		.4byte	.LVL125
 16062 040d 94000000 		.4byte	.LFE268
 16063 0411 0100     		.2byte	0x1
 16064 0413 57       		.byte	0x57
 16065 0414 00000000 		.4byte	0
 16066 0418 00000000 		.4byte	0
 16067              	.LLST29:
 16068 041c 18000000 		.4byte	.LVL115
 16069 0420 1E000000 		.4byte	.LVL116
 16070 0424 0300     		.2byte	0x3
 16071 0426 08       		.byte	0x8
 16072 0427 20       		.byte	0x20
 16073 0428 9F       		.byte	0x9f
 16074 0429 00000000 		.4byte	0
 16075 042d 00000000 		.4byte	0
 16076              	.LLST30:
 16077 0431 42000000 		.4byte	.LVL121
 16078 0435 48000000 		.4byte	.LVL122
 16079 0439 0200     		.2byte	0x2
 16080 043b 30       		.byte	0x30
 16081 043c 9F       		.byte	0x9f
 16082 043d 00000000 		.4byte	0
 16083 0441 00000000 		.4byte	0
 16084              	.LLST49:
 16085 0445 00000000 		.4byte	.LVL202
 16086 0449 13000000 		.4byte	.LVL203-1
 16087 044d 0100     		.2byte	0x1
 16088 044f 50       		.byte	0x50
 16089 0450 13000000 		.4byte	.LVL203-1
 16090 0454 7C000000 		.4byte	.LFE267
 16091 0458 0100     		.2byte	0x1
 16092 045a 54       		.byte	0x54
 16093 045b 00000000 		.4byte	0
 16094 045f 00000000 		.4byte	0
 16095              	.LLST25:
 16096 0463 00000000 		.4byte	.LVL108
 16097 0467 0E000000 		.4byte	.LVL109
ARM GAS  /var/folders/qd/4mxf5pkd0zdf0b9dd1hp39180000gn/T//cc0H01tt.s 			page 284


 16098 046b 0100     		.2byte	0x1
 16099 046d 50       		.byte	0x50
 16100 046e 0E000000 		.4byte	.LVL109
 16101 0472 38000000 		.4byte	.LFE266
 16102 0476 0400     		.2byte	0x4
 16103 0478 F3       		.byte	0xf3
 16104 0479 01       		.uleb128 0x1
 16105 047a 50       		.byte	0x50
 16106 047b 9F       		.byte	0x9f
 16107 047c 00000000 		.4byte	0
 16108 0480 00000000 		.4byte	0
 16109              	.LLST26:
 16110 0484 00000000 		.4byte	.LVL108
 16111 0488 0E000000 		.4byte	.LVL109
 16112 048c 0100     		.2byte	0x1
 16113 048e 51       		.byte	0x51
 16114 048f 0E000000 		.4byte	.LVL109
 16115 0493 38000000 		.4byte	.LFE266
 16116 0497 0100     		.2byte	0x1
 16117 0499 55       		.byte	0x55
 16118 049a 00000000 		.4byte	0
 16119 049e 00000000 		.4byte	0
 16120              	.LLST20:
 16121 04a2 00000000 		.4byte	.LVL90
 16122 04a6 0C000000 		.4byte	.LVL91
 16123 04aa 0100     		.2byte	0x1
 16124 04ac 50       		.byte	0x50
 16125 04ad 0C000000 		.4byte	.LVL91
 16126 04b1 D8000000 		.4byte	.LFE265
 16127 04b5 0400     		.2byte	0x4
 16128 04b7 F3       		.byte	0xf3
 16129 04b8 01       		.uleb128 0x1
 16130 04b9 50       		.byte	0x50
 16131 04ba 9F       		.byte	0x9f
 16132 04bb 00000000 		.4byte	0
 16133 04bf 00000000 		.4byte	0
 16134              	.LLST21:
 16135 04c3 00000000 		.4byte	.LVL90
 16136 04c7 0C000000 		.4byte	.LVL91
 16137 04cb 0100     		.2byte	0x1
 16138 04cd 51       		.byte	0x51
 16139 04ce 0C000000 		.4byte	.LVL91
 16140 04d2 5E000000 		.4byte	.LVL100
 16141 04d6 0200     		.2byte	0x2
 16142 04d8 90       		.byte	0x90
 16143 04d9 50       		.uleb128 0x50
 16144 04da 5E000000 		.4byte	.LVL100
 16145 04de AE000000 		.4byte	.LVL104
 16146 04e2 0400     		.2byte	0x4
 16147 04e4 F3       		.byte	0xf3
 16148 04e5 01       		.uleb128 0x1
 16149 04e6 51       		.byte	0x51
 16150 04e7 9F       		.byte	0x9f
 16151 04e8 AE000000 		.4byte	.LVL104
 16152 04ec B6000000 		.4byte	.LVL106
 16153 04f0 0200     		.2byte	0x2
 16154 04f2 90       		.byte	0x90
ARM GAS  /var/folders/qd/4mxf5pkd0zdf0b9dd1hp39180000gn/T//cc0H01tt.s 			page 285


 16155 04f3 50       		.uleb128 0x50
 16156 04f4 B6000000 		.4byte	.LVL106
 16157 04f8 D8000000 		.4byte	.LFE265
 16158 04fc 0400     		.2byte	0x4
 16159 04fe F3       		.byte	0xf3
 16160 04ff 01       		.uleb128 0x1
 16161 0500 51       		.byte	0x51
 16162 0501 9F       		.byte	0x9f
 16163 0502 00000000 		.4byte	0
 16164 0506 00000000 		.4byte	0
 16165              	.LLST22:
 16166 050a 24000000 		.4byte	.LVL92
 16167 050e 2A000000 		.4byte	.LVL93
 16168 0512 0300     		.2byte	0x3
 16169 0514 08       		.byte	0x8
 16170 0515 20       		.byte	0x20
 16171 0516 9F       		.byte	0x9f
 16172 0517 00000000 		.4byte	0
 16173 051b 00000000 		.4byte	0
 16174              	.LLST23:
 16175 051f 4E000000 		.4byte	.LVL98
 16176 0523 54000000 		.4byte	.LVL99
 16177 0527 0200     		.2byte	0x2
 16178 0529 30       		.byte	0x30
 16179 052a 9F       		.byte	0x9f
 16180 052b 00000000 		.4byte	0
 16181 052f 00000000 		.4byte	0
 16182              	.LLST24:
 16183 0533 98000000 		.4byte	.LVL102
 16184 0537 9E000000 		.4byte	.LVL103
 16185 053b 0600     		.2byte	0x6
 16186 053d 03       		.byte	0x3
 16187 053e 00000000 		.4byte	wipEndMovingSignal_sem
 16188 0542 9F       		.byte	0x9f
 16189 0543 00000000 		.4byte	0
 16190 0547 00000000 		.4byte	0
 16191              	.LLST0:
 16192 054b 00000000 		.4byte	.LVL0
 16193 054f 1C000000 		.4byte	.LVL1
 16194 0553 0100     		.2byte	0x1
 16195 0555 50       		.byte	0x50
 16196 0556 1C000000 		.4byte	.LVL1
 16197 055a C8010000 		.4byte	.LFE261
 16198 055e 0400     		.2byte	0x4
 16199 0560 F3       		.byte	0xf3
 16200 0561 01       		.uleb128 0x1
 16201 0562 50       		.byte	0x50
 16202 0563 9F       		.byte	0x9f
 16203 0564 00000000 		.4byte	0
 16204 0568 00000000 		.4byte	0
 16205              	.LLST1:
 16206 056c 1C000000 		.4byte	.LVL1
 16207 0570 25000000 		.4byte	.LVL3-1
 16208 0574 0100     		.2byte	0x1
 16209 0576 50       		.byte	0x50
 16210 0577 25000000 		.4byte	.LVL3-1
 16211 057b F4000000 		.4byte	.LVL23
ARM GAS  /var/folders/qd/4mxf5pkd0zdf0b9dd1hp39180000gn/T//cc0H01tt.s 			page 286


 16212 057f 0100     		.2byte	0x1
 16213 0581 55       		.byte	0x55
 16214 0582 00010000 		.4byte	.LVL25
 16215 0586 0D010000 		.4byte	.LVL28-1
 16216 058a 0100     		.2byte	0x1
 16217 058c 50       		.byte	0x50
 16218 058d 0D010000 		.4byte	.LVL28-1
 16219 0591 C8010000 		.4byte	.LFE261
 16220 0595 0100     		.2byte	0x1
 16221 0597 55       		.byte	0x55
 16222 0598 00000000 		.4byte	0
 16223 059c 00000000 		.4byte	0
 16224              	.LLST2:
 16225 05a0 1C000000 		.4byte	.LVL1
 16226 05a4 E2000000 		.4byte	.LVL22
 16227 05a8 0100     		.2byte	0x1
 16228 05aa 54       		.byte	0x54
 16229 05ab 00010000 		.4byte	.LVL25
 16230 05af C8010000 		.4byte	.LFE261
 16231 05b3 0100     		.2byte	0x1
 16232 05b5 54       		.byte	0x54
 16233 05b6 00000000 		.4byte	0
 16234 05ba 00000000 		.4byte	0
 16235              	.LLST5:
 16236 05be 1C000000 		.4byte	.LVL1
 16237 05c2 22000000 		.4byte	.LVL2
 16238 05c6 0300     		.2byte	0x3
 16239 05c8 08       		.byte	0x8
 16240 05c9 20       		.byte	0x20
 16241 05ca 9F       		.byte	0x9f
 16242 05cb 00000000 		.4byte	0
 16243 05cf 00000000 		.4byte	0
 16244              	.LLST6:
 16245 05d3 4A000000 		.4byte	.LVL7
 16246 05d7 4E000000 		.4byte	.LVL8
 16247 05db 0200     		.2byte	0x2
 16248 05dd 30       		.byte	0x30
 16249 05de 9F       		.byte	0x9f
 16250 05df 00000000 		.4byte	0
 16251 05e3 00000000 		.4byte	0
 16252              	.LLST7:
 16253 05e7 56000000 		.4byte	.LVL9
 16254 05eb 5A000000 		.4byte	.LVL10
 16255 05ef 0300     		.2byte	0x3
 16256 05f1 08       		.byte	0x8
 16257 05f2 20       		.byte	0x20
 16258 05f3 9F       		.byte	0x9f
 16259 05f4 00000000 		.4byte	0
 16260 05f8 00000000 		.4byte	0
 16261              	.LLST8:
 16262 05fc 84000000 		.4byte	.LVL15
 16263 0600 88000000 		.4byte	.LVL16
 16264 0604 0200     		.2byte	0x2
 16265 0606 30       		.byte	0x30
 16266 0607 9F       		.byte	0x9f
 16267 0608 00000000 		.4byte	0
 16268 060c 00000000 		.4byte	0
ARM GAS  /var/folders/qd/4mxf5pkd0zdf0b9dd1hp39180000gn/T//cc0H01tt.s 			page 287


 16269              	.LLST3:
 16270 0610 32010000 		.4byte	.LVL32
 16271 0614 36010000 		.4byte	.LVL33
 16272 0618 0200     		.2byte	0x2
 16273 061a 30       		.byte	0x30
 16274 061b 9F       		.byte	0x9f
 16275 061c 00000000 		.4byte	0
 16276 0620 00000000 		.4byte	0
 16277              	.LLST4:
 16278 0624 04010000 		.4byte	.LVL26
 16279 0628 0A010000 		.4byte	.LVL27
 16280 062c 0300     		.2byte	0x3
 16281 062e 08       		.byte	0x8
 16282 062f 20       		.byte	0x20
 16283 0630 9F       		.byte	0x9f
 16284 0631 00000000 		.4byte	0
 16285 0635 00000000 		.4byte	0
 16286              	.LLST9:
 16287 0639 54010000 		.4byte	.LVL36
 16288 063d 5A010000 		.4byte	.LVL37
 16289 0641 0300     		.2byte	0x3
 16290 0643 08       		.byte	0x8
 16291 0644 20       		.byte	0x20
 16292 0645 9F       		.byte	0x9f
 16293 0646 00000000 		.4byte	0
 16294 064a 00000000 		.4byte	0
 16295              	.LLST10:
 16296 064e 62010000 		.4byte	.LVL39
 16297 0652 6E010000 		.4byte	.LVL41
 16298 0656 0600     		.2byte	0x6
 16299 0658 03       		.byte	0x3
 16300 0659 00000000 		.4byte	wipEndMovingSignal_sem
 16301 065d 9F       		.byte	0x9f
 16302 065e 96010000 		.4byte	.LVL47
 16303 0662 C8010000 		.4byte	.LFE261
 16304 0666 0600     		.2byte	0x6
 16305 0668 03       		.byte	0x3
 16306 0669 00000000 		.4byte	wipEndMovingSignal_sem
 16307 066d 9F       		.byte	0x9f
 16308 066e 00000000 		.4byte	0
 16309 0672 00000000 		.4byte	0
 16310              	.LLST11:
 16311 0676 90010000 		.4byte	.LVL45
 16312 067a 94010000 		.4byte	.LVL46
 16313 067e 0200     		.2byte	0x2
 16314 0680 30       		.byte	0x30
 16315 0681 9F       		.byte	0x9f
 16316 0682 00000000 		.4byte	0
 16317 0686 00000000 		.4byte	0
 16318              	.LLST12:
 16319 068a 0A000000 		.4byte	.LVL49
 16320 068e 48000000 		.4byte	.LVL59
 16321 0692 0600     		.2byte	0x6
 16322 0694 03       		.byte	0x3
 16323 0695 00000000 		.4byte	wipEndSignal_sem
 16324 0699 9F       		.byte	0x9f
 16325 069a 54000000 		.4byte	.LVL60
ARM GAS  /var/folders/qd/4mxf5pkd0zdf0b9dd1hp39180000gn/T//cc0H01tt.s 			page 288


 16326 069e 62000000 		.4byte	.LVL64
 16327 06a2 0600     		.2byte	0x6
 16328 06a4 03       		.byte	0x3
 16329 06a5 00000000 		.4byte	wipEndSignal_sem
 16330 06a9 9F       		.byte	0x9f
 16331 06aa 00000000 		.4byte	0
 16332 06ae 00000000 		.4byte	0
 16333              	.LLST13:
 16334 06b2 0A000000 		.4byte	.LVL49
 16335 06b6 10000000 		.4byte	.LVL50
 16336 06ba 0300     		.2byte	0x3
 16337 06bc 08       		.byte	0x8
 16338 06bd 20       		.byte	0x20
 16339 06be 9F       		.byte	0x9f
 16340 06bf 00000000 		.4byte	0
 16341 06c3 00000000 		.4byte	0
 16342              	.LLST14:
 16343 06c7 18000000 		.4byte	.LVL52
 16344 06cb 24000000 		.4byte	.LVL54
 16345 06cf 0600     		.2byte	0x6
 16346 06d1 03       		.byte	0x3
 16347 06d2 00000000 		.4byte	wipEndSignal_sem
 16348 06d6 9F       		.byte	0x9f
 16349 06d7 5C000000 		.4byte	.LVL62
 16350 06db 62000000 		.4byte	.LVL64
 16351 06df 0600     		.2byte	0x6
 16352 06e1 03       		.byte	0x3
 16353 06e2 00000000 		.4byte	wipEndSignal_sem
 16354 06e6 9F       		.byte	0x9f
 16355 06e7 00000000 		.4byte	0
 16356 06eb 00000000 		.4byte	0
 16357              	.LLST15:
 16358 06ef 42000000 		.4byte	.LVL58
 16359 06f3 48000000 		.4byte	.LVL59
 16360 06f7 0200     		.2byte	0x2
 16361 06f9 30       		.byte	0x30
 16362 06fa 9F       		.byte	0x9f
 16363 06fb 00000000 		.4byte	0
 16364 06ff 00000000 		.4byte	0
 16365              	.LLST16:
 16366 0703 0A000000 		.4byte	.LVL66
 16367 0707 48000000 		.4byte	.LVL76
 16368 070b 0600     		.2byte	0x6
 16369 070d 03       		.byte	0x3
 16370 070e 00000000 		.4byte	wipEndMovingSignal_sem
 16371 0712 9F       		.byte	0x9f
 16372 0713 54000000 		.4byte	.LVL77
 16373 0717 62000000 		.4byte	.LVL81
 16374 071b 0600     		.2byte	0x6
 16375 071d 03       		.byte	0x3
 16376 071e 00000000 		.4byte	wipEndMovingSignal_sem
 16377 0722 9F       		.byte	0x9f
 16378 0723 00000000 		.4byte	0
 16379 0727 00000000 		.4byte	0
 16380              	.LLST17:
 16381 072b 0A000000 		.4byte	.LVL66
 16382 072f 10000000 		.4byte	.LVL67
ARM GAS  /var/folders/qd/4mxf5pkd0zdf0b9dd1hp39180000gn/T//cc0H01tt.s 			page 289


 16383 0733 0300     		.2byte	0x3
 16384 0735 08       		.byte	0x8
 16385 0736 20       		.byte	0x20
 16386 0737 9F       		.byte	0x9f
 16387 0738 00000000 		.4byte	0
 16388 073c 00000000 		.4byte	0
 16389              	.LLST18:
 16390 0740 18000000 		.4byte	.LVL69
 16391 0744 24000000 		.4byte	.LVL71
 16392 0748 0600     		.2byte	0x6
 16393 074a 03       		.byte	0x3
 16394 074b 00000000 		.4byte	wipEndMovingSignal_sem
 16395 074f 9F       		.byte	0x9f
 16396 0750 5C000000 		.4byte	.LVL79
 16397 0754 62000000 		.4byte	.LVL81
 16398 0758 0600     		.2byte	0x6
 16399 075a 03       		.byte	0x3
 16400 075b 00000000 		.4byte	wipEndMovingSignal_sem
 16401 075f 9F       		.byte	0x9f
 16402 0760 00000000 		.4byte	0
 16403 0764 00000000 		.4byte	0
 16404              	.LLST19:
 16405 0768 42000000 		.4byte	.LVL75
 16406 076c 48000000 		.4byte	.LVL76
 16407 0770 0200     		.2byte	0x2
 16408 0772 30       		.byte	0x30
 16409 0773 9F       		.byte	0x9f
 16410 0774 00000000 		.4byte	0
 16411 0778 00000000 		.4byte	0
 16412              	.LLST48:
 16413 077c 00000000 		.4byte	.LVL194
 16414 0780 1F000000 		.4byte	.LVL195-1
 16415 0784 0800     		.2byte	0x8
 16416 0786 90       		.byte	0x90
 16417 0787 40       		.uleb128 0x40
 16418 0788 93       		.byte	0x93
 16419 0789 04       		.uleb128 0x4
 16420 078a 90       		.byte	0x90
 16421 078b 41       		.uleb128 0x41
 16422 078c 93       		.byte	0x93
 16423 078d 04       		.uleb128 0x4
 16424 078e 1F000000 		.4byte	.LVL195-1
 16425 0792 80000000 		.4byte	.LFE274
 16426 0796 0600     		.2byte	0x6
 16427 0798 54       		.byte	0x54
 16428 0799 93       		.byte	0x93
 16429 079a 04       		.uleb128 0x4
 16430 079b 55       		.byte	0x55
 16431 079c 93       		.byte	0x93
 16432 079d 04       		.uleb128 0x4
 16433 079e 00000000 		.4byte	0
 16434 07a2 00000000 		.4byte	0
 16435              	.LLST51:
 16436 07a6 00000000 		.4byte	.LVL216
 16437 07aa 1D000000 		.4byte	.LVL217-1
 16438 07ae 0100     		.2byte	0x1
 16439 07b0 50       		.byte	0x50
ARM GAS  /var/folders/qd/4mxf5pkd0zdf0b9dd1hp39180000gn/T//cc0H01tt.s 			page 290


 16440 07b1 1D000000 		.4byte	.LVL217-1
 16441 07b5 1E000000 		.4byte	.LVL217
 16442 07b9 0400     		.2byte	0x4
 16443 07bb F3       		.byte	0xf3
 16444 07bc 01       		.uleb128 0x1
 16445 07bd 50       		.byte	0x50
 16446 07be 9F       		.byte	0x9f
 16447 07bf 1E000000 		.4byte	.LVL217
 16448 07c3 21000000 		.4byte	.LVL218-1
 16449 07c7 0100     		.2byte	0x1
 16450 07c9 50       		.byte	0x50
 16451 07ca 21000000 		.4byte	.LVL218-1
 16452 07ce 2C000000 		.4byte	.LFE275
 16453 07d2 0400     		.2byte	0x4
 16454 07d4 F3       		.byte	0xf3
 16455 07d5 01       		.uleb128 0x1
 16456 07d6 50       		.byte	0x50
 16457 07d7 9F       		.byte	0x9f
 16458 07d8 00000000 		.4byte	0
 16459 07dc 00000000 		.4byte	0
 16460              	.LLST52:
 16461 07e0 00000000 		.4byte	.LVL216
 16462 07e4 1D000000 		.4byte	.LVL217-1
 16463 07e8 0100     		.2byte	0x1
 16464 07ea 51       		.byte	0x51
 16465 07eb 1D000000 		.4byte	.LVL217-1
 16466 07ef 1E000000 		.4byte	.LVL217
 16467 07f3 0400     		.2byte	0x4
 16468 07f5 F3       		.byte	0xf3
 16469 07f6 01       		.uleb128 0x1
 16470 07f7 51       		.byte	0x51
 16471 07f8 9F       		.byte	0x9f
 16472 07f9 1E000000 		.4byte	.LVL217
 16473 07fd 21000000 		.4byte	.LVL218-1
 16474 0801 0100     		.2byte	0x1
 16475 0803 51       		.byte	0x51
 16476 0804 21000000 		.4byte	.LVL218-1
 16477 0808 2C000000 		.4byte	.LFE275
 16478 080c 0400     		.2byte	0x4
 16479 080e F3       		.byte	0xf3
 16480 080f 01       		.uleb128 0x1
 16481 0810 51       		.byte	0x51
 16482 0811 9F       		.byte	0x9f
 16483 0812 00000000 		.4byte	0
 16484 0816 00000000 		.4byte	0
 16485              		.section	.debug_aranges,"",%progbits
 16486 0000 E4000000 		.4byte	0xe4
 16487 0004 0200     		.2byte	0x2
 16488 0006 00000000 		.4byte	.Ldebug_info0
 16489 000a 04       		.byte	0x4
 16490 000b 00       		.byte	0
 16491 000c 0000     		.2byte	0
 16492 000e 0000     		.2byte	0
 16493 0010 00000000 		.4byte	.LFB261
 16494 0014 C8010000 		.4byte	.LFE261-.LFB261
 16495 0018 00000000 		.4byte	.LFB259
 16496 001c 78000000 		.4byte	.LFE259-.LFB259
ARM GAS  /var/folders/qd/4mxf5pkd0zdf0b9dd1hp39180000gn/T//cc0H01tt.s 			page 291


 16497 0020 00000000 		.4byte	.LFB260
 16498 0024 78000000 		.4byte	.LFE260-.LFB260
 16499 0028 00000000 		.4byte	.LFB262
 16500 002c 2C000000 		.4byte	.LFE262-.LFB262
 16501 0030 00000000 		.4byte	.LFB263
 16502 0034 34000000 		.4byte	.LFE263-.LFB263
 16503 0038 00000000 		.4byte	.LFB264
 16504 003c 38000000 		.4byte	.LFE264-.LFB264
 16505 0040 00000000 		.4byte	.LFB265
 16506 0044 D8000000 		.4byte	.LFE265-.LFB265
 16507 0048 00000000 		.4byte	.LFB266
 16508 004c 38000000 		.4byte	.LFE266-.LFB266
 16509 0050 00000000 		.4byte	.LFB268
 16510 0054 94000000 		.4byte	.LFE268-.LFB268
 16511 0058 00000000 		.4byte	.LFB269
 16512 005c 38000000 		.4byte	.LFE269-.LFB269
 16513 0060 00000000 		.4byte	.LFB270
 16514 0064 38000000 		.4byte	.LFE270-.LFB270
 16515 0068 00000000 		.4byte	.LFB271
 16516 006c 74000000 		.4byte	.LFE271-.LFB271
 16517 0070 00000000 		.4byte	.LFB277
 16518 0074 D0000000 		.4byte	.LFE277-.LFB277
 16519 0078 00000000 		.4byte	.LFB272
 16520 007c E8000000 		.4byte	.LFE272-.LFB272
 16521 0080 00000000 		.4byte	.LFB274
 16522 0084 80000000 		.4byte	.LFE274-.LFB274
 16523 0088 00000000 		.4byte	.LFB267
 16524 008c 7C000000 		.4byte	.LFE267-.LFB267
 16525 0090 00000000 		.4byte	.LFB273
 16526 0094 2C000000 		.4byte	.LFE273-.LFB273
 16527 0098 00000000 		.4byte	.LFB275
 16528 009c 2C000000 		.4byte	.LFE275-.LFB275
 16529 00a0 00000000 		.4byte	.LFB276
 16530 00a4 B4000000 		.4byte	.LFE276-.LFB276
 16531 00a8 00000000 		.4byte	.LFB278
 16532 00ac AC000000 		.4byte	.LFE278-.LFB278
 16533 00b0 00000000 		.4byte	.LFB279
 16534 00b4 50000000 		.4byte	.LFE279-.LFB279
 16535 00b8 00000000 		.4byte	.LFB280
 16536 00bc 24000000 		.4byte	.LFE280-.LFB280
 16537 00c0 00000000 		.4byte	.LFB281
 16538 00c4 38000000 		.4byte	.LFE281-.LFB281
 16539 00c8 00000000 		.4byte	.LFB282
 16540 00cc 38000000 		.4byte	.LFE282-.LFB282
 16541 00d0 00000000 		.4byte	.LFB283
 16542 00d4 28000000 		.4byte	.LFE283-.LFB283
 16543 00d8 00000000 		.4byte	.LFB284
 16544 00dc 2C000000 		.4byte	.LFE284-.LFB284
 16545 00e0 00000000 		.4byte	0
 16546 00e4 00000000 		.4byte	0
 16547              		.section	.debug_ranges,"",%progbits
 16548              	.Ldebug_ranges0:
 16549 0000 14000000 		.4byte	.LBB181
 16550 0004 18000000 		.4byte	.LBE181
 16551 0008 1C000000 		.4byte	.LBB256
 16552 000c C8010000 		.4byte	.LBE256
 16553 0010 00000000 		.4byte	0
ARM GAS  /var/folders/qd/4mxf5pkd0zdf0b9dd1hp39180000gn/T//cc0H01tt.s 			page 292


 16554 0014 00000000 		.4byte	0
 16555 0018 14000000 		.4byte	.LBB182
 16556 001c 18000000 		.4byte	.LBE182
 16557 0020 04010000 		.4byte	.LBB238
 16558 0024 36010000 		.4byte	.LBE238
 16559 0028 00000000 		.4byte	0
 16560 002c 00000000 		.4byte	0
 16561 0030 14000000 		.4byte	.LBB184
 16562 0034 18000000 		.4byte	.LBE184
 16563 0038 14010000 		.4byte	.LBB200
 16564 003c 36010000 		.4byte	.LBE200
 16565 0040 00000000 		.4byte	0
 16566 0044 00000000 		.4byte	0
 16567 0048 14000000 		.4byte	.LBB186
 16568 004c 18000000 		.4byte	.LBE186
 16569 0050 32010000 		.4byte	.LBB191
 16570 0054 36010000 		.4byte	.LBE191
 16571 0058 00000000 		.4byte	0
 16572 005c 00000000 		.4byte	0
 16573 0060 4E000000 		.4byte	.LBB217
 16574 0064 52000000 		.4byte	.LBE217
 16575 0068 56000000 		.4byte	.LBB237
 16576 006c 88000000 		.4byte	.LBE237
 16577 0070 00000000 		.4byte	0
 16578 0074 00000000 		.4byte	0
 16579 0078 4E000000 		.4byte	.LBB219
 16580 007c 52000000 		.4byte	.LBE219
 16581 0080 56000000 		.4byte	.LBB228
 16582 0084 62000000 		.4byte	.LBE228
 16583 0088 00000000 		.4byte	0
 16584 008c 00000000 		.4byte	0
 16585 0090 4E000000 		.4byte	.LBB221
 16586 0094 52000000 		.4byte	.LBE221
 16587 0098 56000000 		.4byte	.LBB226
 16588 009c 5A000000 		.4byte	.LBE226
 16589 00a0 00000000 		.4byte	0
 16590 00a4 00000000 		.4byte	0
 16591 00a8 62010000 		.4byte	.LBB247
 16592 00ac 6E010000 		.4byte	.LBE247
 16593 00b0 96010000 		.4byte	.LBB255
 16594 00b4 C8010000 		.4byte	.LBE255
 16595 00b8 00000000 		.4byte	0
 16596 00bc 00000000 		.4byte	0
 16597 00c0 0A000000 		.4byte	.LBB271
 16598 00c4 48000000 		.4byte	.LBE271
 16599 00c8 54000000 		.4byte	.LBB290
 16600 00cc 62000000 		.4byte	.LBE290
 16601 00d0 00000000 		.4byte	0
 16602 00d4 00000000 		.4byte	0
 16603 00d8 18000000 		.4byte	.LBB278
 16604 00dc 24000000 		.4byte	.LBE278
 16605 00e0 5C000000 		.4byte	.LBB288
 16606 00e4 62000000 		.4byte	.LBE288
 16607 00e8 00000000 		.4byte	0
 16608 00ec 00000000 		.4byte	0
 16609 00f0 28000000 		.4byte	.LBB281
 16610 00f4 48000000 		.4byte	.LBE281
ARM GAS  /var/folders/qd/4mxf5pkd0zdf0b9dd1hp39180000gn/T//cc0H01tt.s 			page 293


 16611 00f8 54000000 		.4byte	.LBB287
 16612 00fc 5C000000 		.4byte	.LBE287
 16613 0100 00000000 		.4byte	0
 16614 0104 00000000 		.4byte	0
 16615 0108 0A000000 		.4byte	.LBB305
 16616 010c 48000000 		.4byte	.LBE305
 16617 0110 54000000 		.4byte	.LBB324
 16618 0114 62000000 		.4byte	.LBE324
 16619 0118 00000000 		.4byte	0
 16620 011c 00000000 		.4byte	0
 16621 0120 18000000 		.4byte	.LBB312
 16622 0124 24000000 		.4byte	.LBE312
 16623 0128 5C000000 		.4byte	.LBB322
 16624 012c 62000000 		.4byte	.LBE322
 16625 0130 00000000 		.4byte	0
 16626 0134 00000000 		.4byte	0
 16627 0138 28000000 		.4byte	.LBB315
 16628 013c 48000000 		.4byte	.LBE315
 16629 0140 54000000 		.4byte	.LBB321
 16630 0144 5C000000 		.4byte	.LBE321
 16631 0148 00000000 		.4byte	0
 16632 014c 00000000 		.4byte	0
 16633 0150 0A000000 		.4byte	.LBB325
 16634 0154 14000000 		.4byte	.LBE325
 16635 0158 1A000000 		.4byte	.LBB328
 16636 015c 2C000000 		.4byte	.LBE328
 16637 0160 00000000 		.4byte	0
 16638 0164 00000000 		.4byte	0
 16639 0168 04000000 		.4byte	.LBB329
 16640 016c 06000000 		.4byte	.LBE329
 16641 0170 08000000 		.4byte	.LBB333
 16642 0174 0A000000 		.4byte	.LBE333
 16643 0178 10000000 		.4byte	.LBB334
 16644 017c 20000000 		.4byte	.LBE334
 16645 0180 00000000 		.4byte	0
 16646 0184 00000000 		.4byte	0
 16647 0188 10000000 		.4byte	.LBB357
 16648 018c 18000000 		.4byte	.LBE357
 16649 0190 1A000000 		.4byte	.LBB361
 16650 0194 1C000000 		.4byte	.LBE361
 16651 0198 1E000000 		.4byte	.LBB362
 16652 019c 24000000 		.4byte	.LBE362
 16653 01a0 00000000 		.4byte	0
 16654 01a4 00000000 		.4byte	0
 16655 01a8 24000000 		.4byte	.LBB363
 16656 01ac 54000000 		.4byte	.LBE363
 16657 01b0 AE000000 		.4byte	.LBB390
 16658 01b4 B6000000 		.4byte	.LBE390
 16659 01b8 00000000 		.4byte	0
 16660 01bc 00000000 		.4byte	0
 16661 01c0 24000000 		.4byte	.LBB365
 16662 01c4 2A000000 		.4byte	.LBE365
 16663 01c8 2C000000 		.4byte	.LBB374
 16664 01cc 34000000 		.4byte	.LBE374
 16665 01d0 00000000 		.4byte	0
 16666 01d4 00000000 		.4byte	0
 16667 01d8 2A000000 		.4byte	.LBB371
ARM GAS  /var/folders/qd/4mxf5pkd0zdf0b9dd1hp39180000gn/T//cc0H01tt.s 			page 294


 16668 01dc 2C000000 		.4byte	.LBE371
 16669 01e0 34000000 		.4byte	.LBB375
 16670 01e4 36000000 		.4byte	.LBE375
 16671 01e8 00000000 		.4byte	0
 16672 01ec 00000000 		.4byte	0
 16673 01f0 36000000 		.4byte	.LBB376
 16674 01f4 54000000 		.4byte	.LBE376
 16675 01f8 AE000000 		.4byte	.LBB382
 16676 01fc B6000000 		.4byte	.LBE382
 16677 0200 00000000 		.4byte	0
 16678 0204 00000000 		.4byte	0
 16679 0208 18000000 		.4byte	.LBB405
 16680 020c 48000000 		.4byte	.LBE405
 16681 0210 76000000 		.4byte	.LBB426
 16682 0214 7E000000 		.4byte	.LBE426
 16683 0218 00000000 		.4byte	0
 16684 021c 00000000 		.4byte	0
 16685 0220 18000000 		.4byte	.LBB407
 16686 0224 1E000000 		.4byte	.LBE407
 16687 0228 20000000 		.4byte	.LBB416
 16688 022c 28000000 		.4byte	.LBE416
 16689 0230 00000000 		.4byte	0
 16690 0234 00000000 		.4byte	0
 16691 0238 1E000000 		.4byte	.LBB413
 16692 023c 20000000 		.4byte	.LBE413
 16693 0240 28000000 		.4byte	.LBB417
 16694 0244 2A000000 		.4byte	.LBE417
 16695 0248 00000000 		.4byte	0
 16696 024c 00000000 		.4byte	0
 16697 0250 2A000000 		.4byte	.LBB418
 16698 0254 48000000 		.4byte	.LBE418
 16699 0258 76000000 		.4byte	.LBB424
 16700 025c 7E000000 		.4byte	.LBE424
 16701 0260 00000000 		.4byte	0
 16702 0264 00000000 		.4byte	0
 16703 0268 1E000000 		.4byte	.LBB427
 16704 026c 30000000 		.4byte	.LBE427
 16705 0270 3E000000 		.4byte	.LBB430
 16706 0274 4E000000 		.4byte	.LBE430
 16707 0278 00000000 		.4byte	0
 16708 027c 00000000 		.4byte	0
 16709 0280 06000000 		.4byte	.LBB449
 16710 0284 0C000000 		.4byte	.LBE449
 16711 0288 10000000 		.4byte	.LBB452
 16712 028c 22000000 		.4byte	.LBE452
 16713 0290 00000000 		.4byte	0
 16714 0294 00000000 		.4byte	0
 16715 0298 58000000 		.4byte	.LBB453
 16716 029c 96000000 		.4byte	.LBE453
 16717 02a0 A2000000 		.4byte	.LBB474
 16718 02a4 B0000000 		.4byte	.LBE474
 16719 02a8 00000000 		.4byte	0
 16720 02ac 00000000 		.4byte	0
 16721 02b0 66000000 		.4byte	.LBB461
 16722 02b4 72000000 		.4byte	.LBE461
 16723 02b8 AA000000 		.4byte	.LBB471
 16724 02bc B0000000 		.4byte	.LBE471
ARM GAS  /var/folders/qd/4mxf5pkd0zdf0b9dd1hp39180000gn/T//cc0H01tt.s 			page 295


 16725 02c0 00000000 		.4byte	0
 16726 02c4 00000000 		.4byte	0
 16727 02c8 76000000 		.4byte	.LBB464
 16728 02cc 96000000 		.4byte	.LBE464
 16729 02d0 A2000000 		.4byte	.LBB470
 16730 02d4 AA000000 		.4byte	.LBE470
 16731 02d8 00000000 		.4byte	0
 16732 02dc 00000000 		.4byte	0
 16733 02e0 94000000 		.4byte	.LBB477
 16734 02e4 98000000 		.4byte	.LBE477
 16735 02e8 9A000000 		.4byte	.LBB484
 16736 02ec 9C000000 		.4byte	.LBE484
 16737 02f0 A6000000 		.4byte	.LBB485
 16738 02f4 AA000000 		.4byte	.LBE485
 16739 02f8 00000000 		.4byte	0
 16740 02fc 00000000 		.4byte	0
 16741 0300 08000000 		.4byte	.LBB486
 16742 0304 0C000000 		.4byte	.LBE486
 16743 0308 4A000000 		.4byte	.LBB493
 16744 030c 5A000000 		.4byte	.LBE493
 16745 0310 00000000 		.4byte	0
 16746 0314 00000000 		.4byte	0
 16747 0318 1C000000 		.4byte	.LBB489
 16748 031c 22000000 		.4byte	.LBE489
 16749 0320 24000000 		.4byte	.LBB492
 16750 0324 3C000000 		.4byte	.LBE492
 16751 0328 00000000 		.4byte	0
 16752 032c 00000000 		.4byte	0
 16753 0330 06000000 		.4byte	.LBB516
 16754 0334 0C000000 		.4byte	.LBE516
 16755 0338 10000000 		.4byte	.LBB519
 16756 033c 22000000 		.4byte	.LBE519
 16757 0340 00000000 		.4byte	0
 16758 0344 00000000 		.4byte	0
 16759 0348 2E000000 		.4byte	.LBB520
 16760 034c 6C000000 		.4byte	.LBE520
 16761 0350 78000000 		.4byte	.LBB541
 16762 0354 86000000 		.4byte	.LBE541
 16763 0358 00000000 		.4byte	0
 16764 035c 00000000 		.4byte	0
 16765 0360 3C000000 		.4byte	.LBB528
 16766 0364 48000000 		.4byte	.LBE528
 16767 0368 80000000 		.4byte	.LBB538
 16768 036c 86000000 		.4byte	.LBE538
 16769 0370 00000000 		.4byte	0
 16770 0374 00000000 		.4byte	0
 16771 0378 4C000000 		.4byte	.LBB531
 16772 037c 6C000000 		.4byte	.LBE531
 16773 0380 78000000 		.4byte	.LBB537
 16774 0384 80000000 		.4byte	.LBE537
 16775 0388 00000000 		.4byte	0
 16776 038c 00000000 		.4byte	0
 16777 0390 0A000000 		.4byte	.LBB542
 16778 0394 14000000 		.4byte	.LBE542
 16779 0398 1A000000 		.4byte	.LBB545
 16780 039c 2C000000 		.4byte	.LBE545
 16781 03a0 00000000 		.4byte	0
ARM GAS  /var/folders/qd/4mxf5pkd0zdf0b9dd1hp39180000gn/T//cc0H01tt.s 			page 296


 16782 03a4 00000000 		.4byte	0
 16783 03a8 00000000 		.4byte	.LFB261
 16784 03ac C8010000 		.4byte	.LFE261
 16785 03b0 00000000 		.4byte	.LFB259
 16786 03b4 78000000 		.4byte	.LFE259
 16787 03b8 00000000 		.4byte	.LFB260
 16788 03bc 78000000 		.4byte	.LFE260
 16789 03c0 00000000 		.4byte	.LFB262
 16790 03c4 2C000000 		.4byte	.LFE262
 16791 03c8 00000000 		.4byte	.LFB263
 16792 03cc 34000000 		.4byte	.LFE263
 16793 03d0 00000000 		.4byte	.LFB264
 16794 03d4 38000000 		.4byte	.LFE264
 16795 03d8 00000000 		.4byte	.LFB265
 16796 03dc D8000000 		.4byte	.LFE265
 16797 03e0 00000000 		.4byte	.LFB266
 16798 03e4 38000000 		.4byte	.LFE266
 16799 03e8 00000000 		.4byte	.LFB268
 16800 03ec 94000000 		.4byte	.LFE268
 16801 03f0 00000000 		.4byte	.LFB269
 16802 03f4 38000000 		.4byte	.LFE269
 16803 03f8 00000000 		.4byte	.LFB270
 16804 03fc 38000000 		.4byte	.LFE270
 16805 0400 00000000 		.4byte	.LFB271
 16806 0404 74000000 		.4byte	.LFE271
 16807 0408 00000000 		.4byte	.LFB277
 16808 040c D0000000 		.4byte	.LFE277
 16809 0410 00000000 		.4byte	.LFB272
 16810 0414 E8000000 		.4byte	.LFE272
 16811 0418 00000000 		.4byte	.LFB274
 16812 041c 80000000 		.4byte	.LFE274
 16813 0420 00000000 		.4byte	.LFB267
 16814 0424 7C000000 		.4byte	.LFE267
 16815 0428 00000000 		.4byte	.LFB273
 16816 042c 2C000000 		.4byte	.LFE273
 16817 0430 00000000 		.4byte	.LFB275
 16818 0434 2C000000 		.4byte	.LFE275
 16819 0438 00000000 		.4byte	.LFB276
 16820 043c B4000000 		.4byte	.LFE276
 16821 0440 00000000 		.4byte	.LFB278
 16822 0444 AC000000 		.4byte	.LFE278
 16823 0448 00000000 		.4byte	.LFB279
 16824 044c 50000000 		.4byte	.LFE279
 16825 0450 00000000 		.4byte	.LFB280
 16826 0454 24000000 		.4byte	.LFE280
 16827 0458 00000000 		.4byte	.LFB281
 16828 045c 38000000 		.4byte	.LFE281
 16829 0460 00000000 		.4byte	.LFB282
 16830 0464 38000000 		.4byte	.LFE282
 16831 0468 00000000 		.4byte	.LFB283
 16832 046c 28000000 		.4byte	.LFE283
 16833 0470 00000000 		.4byte	.LFB284
 16834 0474 2C000000 		.4byte	.LFE284
 16835 0478 00000000 		.4byte	0
 16836 047c 00000000 		.4byte	0
 16837              		.section	.debug_line,"",%progbits
 16838              	.Ldebug_line0:
ARM GAS  /var/folders/qd/4mxf5pkd0zdf0b9dd1hp39180000gn/T//cc0H01tt.s 			page 297


 16839 0000 730E0000 		.section	.debug_str,"MS",%progbits,1
 16839      02002209 
 16839      00000201 
 16839      FB0E0D00 
 16839      01010101 
 16840              	.LASF860:
 16841 0000 656E7669 		.ascii	"environmentObstacles\000"
 16841      726F6E6D 
 16841      656E744F 
 16841      62737461 
 16841      636C6573 
 16842              	.LASF716:
 16843 0015 5553425F 		.ascii	"USB_STOP\000"
 16843      53544F50 
 16843      00
 16844              	.LASF328:
 16845 001e 706F7274 		.ascii	"port_intctx\000"
 16845      5F696E74 
 16845      63747800 
 16846              	.LASF337:
 16847 002a 63685F74 		.ascii	"ch_trace_buffer_t\000"
 16847      72616365 
 16847      5F627566 
 16847      6665725F 
 16847      7400
 16848              	.LASF369:
 16849 003c 63685F70 		.ascii	"ch_ptrsize\000"
 16849      74727369 
 16849      7A6500
 16850              	.LASF652:
 16851 0047 6576656E 		.ascii	"event\000"
 16851      7400
 16852              	.LASF503:
 16853 004d 43414E5F 		.ascii	"CAN_STARTING\000"
 16853      53544152 
 16853      54494E47 
 16853      00
 16854              	.LASF916:
 16855 005a 63685365 		.ascii	"chSemWait\000"
 16855      6D576169 
 16855      7400
 16856              	.LASF911:
 16857 0064 5F5F6675 		.ascii	"__func__\000"
 16857      6E635F5F 
 16857      00
 16858              	.LASF172:
 16859 006d 6D73675F 		.ascii	"msg_t\000"
 16859      7400
 16860              	.LASF448:
 16861 0073 61667268 		.ascii	"afrh\000"
 16861      00
 16862              	.LASF595:
 16863 0078 4F504D4F 		.ascii	"OPMODE_SMBUS_DEVICE\000"
 16863      44455F53 
 16863      4D425553 
 16863      5F444556 
 16863      49434500 
ARM GAS  /var/folders/qd/4mxf5pkd0zdf0b9dd1hp39180000gn/T//cc0H01tt.s 			page 298


 16864              	.LASF348:
 16865 008c 6D5F6372 		.ascii	"m_crit_isr\000"
 16865      69745F69 
 16865      737200
 16866              	.LASF871:
 16867 0097 6D656173 		.ascii	"measurement\000"
 16867      7572656D 
 16867      656E7400 
 16868              	.LASF668:
 16869 00a3 73646366 		.ascii	"sdcflags_t\000"
 16869      6C616773 
 16869      5F7400
 16870              	.LASF775:
 16871 00ae 44494550 		.ascii	"DIEPTXF0\000"
 16871      54584630 
 16871      00
 16872              	.LASF132:
 16873 00b7 5F5F6664 		.ascii	"__fdlibm_xopen\000"
 16873      6C69626D 
 16873      5F786F70 
 16873      656E00
 16874              	.LASF502:
 16875 00c6 43414E5F 		.ascii	"CAN_STOP\000"
 16875      53544F50 
 16875      00
 16876              	.LASF182:
 16877 00cf 705F7072 		.ascii	"p_prio\000"
 16877      696F00
 16878              	.LASF382:
 16879 00d6 63665F6F 		.ascii	"cf_off_time\000"
 16879      66665F74 
 16879      696D6500 
 16880              	.LASF881:
 16881 00e2 72656C61 		.ascii	"relativeAngle\000"
 16881      74697665 
 16881      416E676C 
 16881      6500
 16882              	.LASF231:
 16883 00f0 63685F73 		.ascii	"ch_system_t\000"
 16883      79737465 
 16883      6D5F7400 
 16884              	.LASF8:
 16885 00fc 5F5F7569 		.ascii	"__uint8_t\000"
 16885      6E74385F 
 16885      7400
 16886              	.LASF897:
 16887 0106 73746F70 		.ascii	"stopMotors\000"
 16887      4D6F746F 
 16887      727300
 16888              	.LASF354:
 16889 0111 77747365 		.ascii	"wtsemp\000"
 16889      6D7000
 16890              	.LASF940:
 16891 0118 6D6F645F 		.ascii	"mod_mapping_getRobotDisplacement\000"
 16891      6D617070 
 16891      696E675F 
 16891      67657452 
ARM GAS  /var/folders/qd/4mxf5pkd0zdf0b9dd1hp39180000gn/T//cc0H01tt.s 			page 299


 16891      6F626F74 
 16892              	.LASF155:
 16893 0139 5F426F6F 		.ascii	"_Bool\000"
 16893      6C00
 16894              	.LASF852:
 16895 013f 64697363 		.ascii	"discoverThread\000"
 16895      6F766572 
 16895      54687265 
 16895      616400
 16896              	.LASF544:
 16897 014e 64617461 		.ascii	"datamode\000"
 16897      6D6F6465 
 16897      00
 16898              	.LASF611:
 16899 0157 646D6172 		.ascii	"dmarx\000"
 16899      7800
 16900              	.LASF72:
 16901 015d 5F6D6273 		.ascii	"_mbstate\000"
 16901      74617465 
 16901      00
 16902              	.LASF51:
 16903 0166 5F617465 		.ascii	"_atexit\000"
 16903      78697400 
 16904              	.LASF870:
 16905 016e 64697363 		.ascii	"discover\000"
 16905      6F766572 
 16905      00
 16906              	.LASF492:
 16907 0177 73717231 		.ascii	"sqr1\000"
 16907      00
 16908              	.LASF886:
 16909 017c 726F626F 		.ascii	"robotSpeed\000"
 16909      74537065 
 16909      656400
 16910              	.LASF420:
 16911 0187 424C4B5F 		.ascii	"BLK_UNINIT\000"
 16911      554E494E 
 16911      495400
 16912              	.LASF900:
 16913 0192 69734D6F 		.ascii	"isMoving\000"
 16913      76696E67 
 16913      00
 16914              	.LASF623:
 16915 019b 72785F62 		.ascii	"rx_buffer\000"
 16915      75666665 
 16915      7200
 16916              	.LASF607:
 16917 01a5 6572726F 		.ascii	"errors\000"
 16917      727300
 16918              	.LASF341:
 16919 01ac 776F7273 		.ascii	"worst\000"
 16919      7400
 16920              	.LASF224:
 16921 01b2 76745F73 		.ascii	"vt_systime\000"
 16921      79737469 
 16921      6D6500
 16922              	.LASF290:
ARM GAS  /var/folders/qd/4mxf5pkd0zdf0b9dd1hp39180000gn/T//cc0H01tt.s 			page 300


 16923 01bd 444F5231 		.ascii	"DOR1\000"
 16923      00
 16924              	.LASF291:
 16925 01c2 444F5232 		.ascii	"DOR2\000"
 16925      00
 16926              	.LASF622:
 16927 01c7 74785F62 		.ascii	"tx_buffer\000"
 16927      75666665 
 16927      7200
 16928              	.LASF41:
 16929 01d1 5F5F746D 		.ascii	"__tm_mon\000"
 16929      5F6D6F6E 
 16929      00
 16930              	.LASF49:
 16931 01da 5F666E74 		.ascii	"_fntypes\000"
 16931      79706573 
 16931      00
 16932              	.LASF139:
 16933 01e3 616E676C 		.ascii	"angle\000"
 16933      6500
 16934              	.LASF363:
 16935 01e9 6D5F6E65 		.ascii	"m_next\000"
 16935      787400
 16936              	.LASF452:
 16937 01f0 50434461 		.ascii	"PCData\000"
 16937      746100
 16938              	.LASF903:
 16939 01f7 7369676E 		.ascii	"signalEndOfWork\000"
 16939      616C456E 
 16939      644F6657 
 16939      6F726B00 
 16940              	.LASF79:
 16941 0207 5F696E63 		.ascii	"_inc\000"
 16941      00
 16942              	.LASF52:
 16943 020c 5F696E64 		.ascii	"_ind\000"
 16943      00
 16944              	.LASF313:
 16945 0211 4D41534B 		.ascii	"MASK\000"
 16945      00
 16946              	.LASF477:
 16947 0216 73616D70 		.ascii	"samples\000"
 16947      6C657300 
 16948              	.LASF779:
 16949 021e 47434346 		.ascii	"GCCFG\000"
 16949      4700
 16950              	.LASF573:
 16951 0224 42445452 		.ascii	"BDTR\000"
 16951      00
 16952              	.LASF526:
 16953 0229 7265676D 		.ascii	"regmask\000"
 16953      61736B00 
 16954              	.LASF605:
 16955 0231 49324343 		.ascii	"I2CConfig\000"
 16955      6F6E6669 
 16955      6700
 16956              	.LASF161:
ARM GAS  /var/folders/qd/4mxf5pkd0zdf0b9dd1hp39180000gn/T//cc0H01tt.s 			page 301


 16957 023b 75696E74 		.ascii	"uint16_t\000"
 16957      31365F74 
 16957      00
 16958              	.LASF612:
 16959 0244 646D6174 		.ascii	"dmatx\000"
 16959      7800
 16960              	.LASF849:
 16961 024a 736F665F 		.ascii	"sof_cb\000"
 16961      636200
 16962              	.LASF549:
 16963 0251 4558545F 		.ascii	"EXT_ACTIVE\000"
 16963      41435449 
 16963      564500
 16964              	.LASF58:
 16965 025c 5F666C61 		.ascii	"_flags\000"
 16965      677300
 16966              	.LASF445:
 16967 0263 6F737065 		.ascii	"ospeedr\000"
 16967      65647200 
 16968              	.LASF876:
 16969 026b 676F546F 		.ascii	"goTo\000"
 16969      00
 16970              	.LASF782:
 16971 0270 44494550 		.ascii	"DIEPTXF\000"
 16971      54584600 
 16972              	.LASF391:
 16973 0278 656C5F6E 		.ascii	"el_next\000"
 16973      65787400 
 16974              	.LASF472:
 16975 0280 4144435F 		.ascii	"ADC_ERR_OVERFLOW\000"
 16975      4552525F 
 16975      4F564552 
 16975      464C4F57 
 16975      00
 16976              	.LASF89:
 16977 0291 5F637674 		.ascii	"_cvtlen\000"
 16977      6C656E00 
 16978              	.LASF229:
 16979 0299 6C6F636B 		.ascii	"lock_cnt\000"
 16979      5F636E74 
 16979      00
 16980              	.LASF205:
 16981 02a2 63685F74 		.ascii	"ch_threads_queue\000"
 16981      68726561 
 16981      64735F71 
 16981      75657565 
 16981      00
 16982              	.LASF131:
 16983 02b3 5F5F6664 		.ascii	"__fdlibm_svid\000"
 16983      6C69626D 
 16983      5F737669 
 16983      6400
 16984              	.LASF93:
 16985 02c1 5F736967 		.ascii	"_sig_func\000"
 16985      5F66756E 
 16985      6300
 16986              	.LASF184:
ARM GAS  /var/folders/qd/4mxf5pkd0zdf0b9dd1hp39180000gn/T//cc0H01tt.s 			page 302


 16987 02cb 705F6E65 		.ascii	"p_newer\000"
 16987      77657200 
 16988              	.LASF792:
 16989 02d3 48505254 		.ascii	"HPRT\000"
 16989      00
 16990              	.LASF746:
 16991 02d8 4843494E 		.ascii	"HCINT\000"
 16991      5400
 16992              	.LASF149:
 16993 02de 726F626F 		.ascii	"robotDistance_t\000"
 16993      74446973 
 16993      74616E63 
 16993      655F7400 
 16994              	.LASF240:
 16995 02ee 534D5052 		.ascii	"SMPR1\000"
 16995      3100
 16996              	.LASF241:
 16997 02f4 534D5052 		.ascii	"SMPR2\000"
 16997      3200
 16998              	.LASF379:
 16999 02fa 63665F6F 		.ascii	"cf_off_flags\000"
 16999      66665F66 
 16999      6C616773 
 16999      00
 17000              	.LASF71:
 17001 0307 5F6C6F63 		.ascii	"_lock\000"
 17001      6B00
 17002              	.LASF67:
 17003 030d 5F6E6275 		.ascii	"_nbuf\000"
 17003      6600
 17004              	.LASF685:
 17005 0313 5350495F 		.ascii	"SPI_STOP\000"
 17005      53544F50 
 17005      00
 17006              	.LASF125:
 17007 031c 5F756E75 		.ascii	"_unused\000"
 17007      73656400 
 17008              	.LASF451:
 17009 0324 50424461 		.ascii	"PBData\000"
 17009      746100
 17010              	.LASF367:
 17011 032b 63685F73 		.ascii	"ch_size\000"
 17011      697A6500 
 17012              	.LASF788:
 17013 0333 48505458 		.ascii	"HPTXSTS\000"
 17013      53545300 
 17014              	.LASF444:
 17015 033b 6F747970 		.ascii	"otyper\000"
 17015      657200
 17016              	.LASF946:
 17017 0342 6D6F645F 		.ascii	"mod_mapping_getActualPosition\000"
 17017      6D617070 
 17017      696E675F 
 17017      67657441 
 17017      63747561 
 17018              	.LASF435:
 17019 0360 4F545950 		.ascii	"OTYPER\000"
ARM GAS  /var/folders/qd/4mxf5pkd0zdf0b9dd1hp39180000gn/T//cc0H01tt.s 			page 303


 17019      455200
 17020              	.LASF528:
 17021 0367 64616370 		.ascii	"dacparams_t\000"
 17021      6172616D 
 17021      735F7400 
 17022              	.LASF663:
 17023 0373 5344435F 		.ascii	"SDC_MODE_1BIT\000"
 17023      4D4F4445 
 17023      5F314249 
 17023      5400
 17024              	.LASF744:
 17025 0381 48434348 		.ascii	"HCCHAR\000"
 17025      415200
 17026              	.LASF146:
 17027 0388 6D656173 		.ascii	"measurement_t\000"
 17027      7572656D 
 17027      656E745F 
 17027      7400
 17028              	.LASF178:
 17029 0396 74687265 		.ascii	"thread_t\000"
 17029      61645F74 
 17029      00
 17030              	.LASF393:
 17031 039f 656C5F65 		.ascii	"el_events\000"
 17031      76656E74 
 17031      7300
 17032              	.LASF632:
 17033 03a9 70776D73 		.ascii	"pwmstate_t\000"
 17033      74617465 
 17033      5F7400
 17034              	.LASF513:
 17035 03b4 736C6565 		.ascii	"sleep_event\000"
 17035      705F6576 
 17035      656E7400 
 17036              	.LASF223:
 17037 03c0 63685F76 		.ascii	"ch_virtual_timers_list\000"
 17037      69727475 
 17037      616C5F74 
 17037      696D6572 
 17037      735F6C69 
 17038              	.LASF417:
 17039 03d7 76656374 		.ascii	"vector\000"
 17039      6F7200
 17040              	.LASF770:
 17041 03de 47494E54 		.ascii	"GINTSTS\000"
 17041      53545300 
 17042              	.LASF899:
 17043 03e6 6368616E 		.ascii	"changeMotorsStateAsync\000"
 17043      67654D6F 
 17043      746F7273 
 17043      53746174 
 17043      65417379 
 17044              	.LASF162:
 17045 03fd 696E7433 		.ascii	"int32_t\000"
 17045      325F7400 
 17046              	.LASF603:
 17047 0405 636C6F63 		.ascii	"clock_speed\000"
ARM GAS  /var/folders/qd/4mxf5pkd0zdf0b9dd1hp39180000gn/T//cc0H01tt.s 			page 304


 17047      6B5F7370 
 17047      65656400 
 17048              	.LASF177:
 17049 0411 73797374 		.ascii	"systime_t\000"
 17049      696D655F 
 17049      7400
 17050              	.LASF546:
 17051 041b 44414344 		.ascii	"DACD2\000"
 17051      3200
 17052              	.LASF515:
 17053 0421 43414E44 		.ascii	"CANDriver\000"
 17053      72697665 
 17053      7200
 17054              	.LASF103:
 17055 042b 5F616464 		.ascii	"_add\000"
 17055      00
 17056              	.LASF294:
 17057 0430 4D304152 		.ascii	"M0AR\000"
 17057      00
 17058              	.LASF751:
 17059 0435 72657376 		.ascii	"resvd1c\000"
 17059      64316300 
 17060              	.LASF593:
 17061 043d 69326366 		.ascii	"i2cflags_t\000"
 17061      6C616773 
 17061      5F7400
 17062              	.LASF789:
 17063 0448 4841494E 		.ascii	"HAINT\000"
 17063      5400
 17064              	.LASF925:
 17065 044e 5F646267 		.ascii	"_dbg_check_lock\000"
 17065      5F636865 
 17065      636B5F6C 
 17065      6F636B00 
 17066              	.LASF156:
 17067 045e 61637475 		.ascii	"actualEnvironement_t\000"
 17067      616C456E 
 17067      7669726F 
 17067      6E656D65 
 17067      6E745F74 
 17068              	.LASF647:
 17069 0473 53445F55 		.ascii	"SD_UNINIT\000"
 17069      4E494E49 
 17069      5400
 17070              	.LASF919:
 17071 047d 6D6F645F 		.ascii	"mod_sensors_calibrateIRSensors\000"
 17071      73656E73 
 17071      6F72735F 
 17071      63616C69 
 17071      62726174 
 17072              	.LASF276:
 17073 049c 46413152 		.ascii	"FA1R\000"
 17073      00
 17074              	.LASF786:
 17075 04a1 48464E55 		.ascii	"HFNUM\000"
 17075      4D00
 17076              	.LASF409:
ARM GAS  /var/folders/qd/4mxf5pkd0zdf0b9dd1hp39180000gn/T//cc0H01tt.s 			page 305


 17077 04a7 716E6F74 		.ascii	"qnotify_t\000"
 17077      6966795F 
 17077      7400
 17078              	.LASF468:
 17079 04b1 61646373 		.ascii	"adcstate_t\000"
 17079      74617465 
 17079      5F7400
 17080              	.LASF882:
 17081 04bc 726F7461 		.ascii	"rotateAndMeasureWallsDistance\000"
 17081      7465416E 
 17081      644D6561 
 17081      73757265 
 17081      57616C6C 
 17082              	.LASF671:
 17083 04da 63617264 		.ascii	"cardmode\000"
 17083      6D6F6465 
 17083      00
 17084              	.LASF415:
 17085 04e3 69736869 		.ascii	"ishift\000"
 17085      667400
 17086              	.LASF563:
 17087 04ea 4750545F 		.ascii	"GPT_ONESHOT\000"
 17087      4F4E4553 
 17087      484F5400 
 17088              	.LASF404:
 17089 04f6 715F746F 		.ascii	"q_top\000"
 17089      7000
 17090              	.LASF60:
 17091 04fc 5F6C6266 		.ascii	"_lbfsize\000"
 17091      73697A65 
 17091      00
 17092              	.LASF737:
 17093 0505 75645F73 		.ascii	"ud_string\000"
 17093      7472696E 
 17093      6700
 17094              	.LASF606:
 17095 050f 49324344 		.ascii	"I2CDriver\000"
 17095      72697665 
 17095      7200
 17096              	.LASF588:
 17097 0519 4932435F 		.ascii	"I2C_ACTIVE_TX\000"
 17097      41435449 
 17097      56455F54 
 17097      5800
 17098              	.LASF658:
 17099 0527 72656164 		.ascii	"read\000"
 17099      00
 17100              	.LASF594:
 17101 052c 4F504D4F 		.ascii	"OPMODE_I2C\000"
 17101      44455F49 
 17101      324300
 17102              	.LASF798:
 17103 0537 72657376 		.ascii	"resvd80C\000"
 17103      64383043 
 17103      00
 17104              	.LASF846:
 17105 0540 6576656E 		.ascii	"event_cb\000"
ARM GAS  /var/folders/qd/4mxf5pkd0zdf0b9dd1hp39180000gn/T//cc0H01tt.s 			page 306


 17105      745F6362 
 17105      00
 17106              	.LASF765:
 17107 0549 474F5447 		.ascii	"GOTGCTL\000"
 17107      43544C00 
 17108              	.LASF939:
 17109 0551 6D6F645F 		.ascii	"mod_mapping_checkEnvironment\000"
 17109      6D617070 
 17109      696E675F 
 17109      63686563 
 17109      6B456E76 
 17110              	.LASF740:
 17111 056e 75736265 		.ascii	"usbepcallback_t\000"
 17111      7063616C 
 17111      6C626163 
 17111      6B5F7400 
 17112              	.LASF70:
 17113 057e 5F646174 		.ascii	"_data\000"
 17113      6100
 17114              	.LASF234:
 17115 0584 76746C69 		.ascii	"vtlist\000"
 17115      737400
 17116              	.LASF938:
 17117 058b 66726565 		.ascii	"free\000"
 17117      00
 17118              	.LASF299:
 17119 0590 54524953 		.ascii	"TRISE\000"
 17119      4500
 17120              	.LASF804:
 17121 0596 72657376 		.ascii	"resvd824\000"
 17121      64383234 
 17121      00
 17122              	.LASF193:
 17123 059f 705F7761 		.ascii	"p_waiting\000"
 17123      6974696E 
 17123      6700
 17124              	.LASF349:
 17125 05a9 6B65726E 		.ascii	"kernel_stats_t\000"
 17125      656C5F73 
 17125      74617473 
 17125      5F7400
 17126              	.LASF401:
 17127 05b8 715F7761 		.ascii	"q_waiting\000"
 17127      6974696E 
 17127      6700
 17128              	.LASF258:
 17129 05c2 43414E5F 		.ascii	"CAN_TxMailBox_TypeDef\000"
 17129      54784D61 
 17129      696C426F 
 17129      785F5479 
 17129      70654465 
 17130              	.LASF233:
 17131 05d8 726C6973 		.ascii	"rlist\000"
 17131      7400
 17132              	.LASF202:
 17133 05de 74687265 		.ascii	"threads_list_t\000"
 17133      6164735F 
ARM GAS  /var/folders/qd/4mxf5pkd0zdf0b9dd1hp39180000gn/T//cc0H01tt.s 			page 307


 17133      6C697374 
 17133      5F7400
 17134              	.LASF339:
 17135 05ed 746D5F63 		.ascii	"tm_calibration_t\000"
 17135      616C6962 
 17135      72617469 
 17135      6F6E5F74 
 17135      00
 17136              	.LASF410:
 17137 05fe 696E7075 		.ascii	"input_queue_t\000"
 17137      745F7175 
 17137      6575655F 
 17137      7400
 17138              	.LASF495:
 17139 060c 41444343 		.ascii	"ADCConversionGroup\000"
 17139      6F6E7665 
 17139      7273696F 
 17139      6E47726F 
 17139      757000
 17140              	.LASF797:
 17141 061f 44535453 		.ascii	"DSTS\000"
 17141      00
 17142              	.LASF126:
 17143 0624 5F5F6C6F 		.ascii	"__lock\000"
 17143      636B00
 17144              	.LASF598:
 17145 062b 5354445F 		.ascii	"STD_DUTY_CYCLE\000"
 17145      44555459 
 17145      5F435943 
 17145      4C4500
 17146              	.LASF74:
 17147 063a 5F726565 		.ascii	"_reent\000"
 17147      6E7400
 17148              	.LASF375:
 17149 0641 63665F6F 		.ascii	"cf_off_older\000"
 17149      66665F6F 
 17149      6C646572 
 17149      00
 17150              	.LASF166:
 17151 064e 72747469 		.ascii	"rttime_t\000"
 17151      6D655F74 
 17151      00
 17152              	.LASF558:
 17153 0657 45585444 		.ascii	"EXTD1\000"
 17153      3100
 17154              	.LASF831:
 17155 065d 72787175 		.ascii	"rxqueued\000"
 17155      65756564 
 17155      00
 17156              	.LASF506:
 17157 0666 63616E73 		.ascii	"canstate_t\000"
 17157      74617465 
 17157      5F7400
 17158              	.LASF278:
 17159 0671 7346696C 		.ascii	"sFilterRegister\000"
 17159      74657252 
 17159      65676973 
ARM GAS  /var/folders/qd/4mxf5pkd0zdf0b9dd1hp39180000gn/T//cc0H01tt.s 			page 308


 17159      74657200 
 17160              	.LASF869:
 17161 0681 6578706C 		.ascii	"exploration\000"
 17161      6F726174 
 17161      696F6E00 
 17162              	.LASF95:
 17163 068d 5F5F7366 		.ascii	"__sf\000"
 17163      00
 17164              	.LASF803:
 17165 0692 72657376 		.ascii	"resvd820\000"
 17165      64383230 
 17165      00
 17166              	.LASF55:
 17167 069b 5F626173 		.ascii	"_base\000"
 17167      6500
 17168              	.LASF958:
 17169 06a1 5F5F7374 		.ascii	"__stack_chk_fail\000"
 17169      61636B5F 
 17169      63686B5F 
 17169      6661696C 
 17169      00
 17170              	.LASF305:
 17171 06b2 52455350 		.ascii	"RESP1\000"
 17171      3100
 17172              	.LASF306:
 17173 06b8 52455350 		.ascii	"RESP2\000"
 17173      3200
 17174              	.LASF307:
 17175 06be 52455350 		.ascii	"RESP3\000"
 17175      3300
 17176              	.LASF308:
 17177 06c4 52455350 		.ascii	"RESP4\000"
 17177      3400
 17178              	.LASF112:
 17179 06ca 5F6D6274 		.ascii	"_mbtowc_state\000"
 17179      6F77635F 
 17179      73746174 
 17179      6500
 17180              	.LASF585:
 17181 06d8 4932435F 		.ascii	"I2C_UNINIT\000"
 17181      554E494E 
 17181      495400
 17182              	.LASF742:
 17183 06e3 75736272 		.ascii	"usbreqhandler_t\000"
 17183      65716861 
 17183      6E646C65 
 17183      725F7400 
 17184              	.LASF466:
 17185 06f3 4144435F 		.ascii	"ADC_COMPLETE\000"
 17185      434F4D50 
 17185      4C455445 
 17185      00
 17186              	.LASF582:
 17187 0700 47505443 		.ascii	"GPTConfig\000"
 17187      6F6E6669 
 17187      6700
 17188              	.LASF148:
ARM GAS  /var/folders/qd/4mxf5pkd0zdf0b9dd1hp39180000gn/T//cc0H01tt.s 			page 309


 17189 070a 726F7461 		.ascii	"rotation\000"
 17189      74696F6E 
 17189      00
 17190              	.LASF171:
 17191 0713 74707269 		.ascii	"tprio_t\000"
 17191      6F5F7400 
 17192              	.LASF345:
 17193 071b 6E5F6972 		.ascii	"n_irq\000"
 17193      7100
 17194              	.LASF626:
 17195 0721 69327370 		.ascii	"i2spr\000"
 17195      7200
 17196              	.LASF930:
 17197 0727 63685379 		.ascii	"chSysHalt\000"
 17197      7348616C 
 17197      7400
 17198              	.LASF893:
 17199 0731 6D6F7665 		.ascii	"moveAndComputePositionRobotSpeedType\000"
 17199      416E6443 
 17199      6F6D7075 
 17199      7465506F 
 17199      73697469 
 17200              	.LASF889:
 17201 0756 6D6F7665 		.ascii	"moveWheelSpeedType\000"
 17201      57686565 
 17201      6C537065 
 17201      65645479 
 17201      706500
 17202              	.LASF807:
 17203 0769 72657376 		.ascii	"resvd830\000"
 17203      64383330 
 17203      00
 17204              	.LASF36:
 17205 0772 5F5F746D 		.ascii	"__tm\000"
 17205      00
 17206              	.LASF809:
 17207 0777 72657376 		.ascii	"resvd838\000"
 17207      64383338 
 17207      00
 17208              	.LASF601:
 17209 0780 69326364 		.ascii	"i2cdutycycle_t\000"
 17209      75747963 
 17209      79636C65 
 17209      5F7400
 17210              	.LASF810:
 17211 078f 72657376 		.ascii	"resvd83C\000"
 17211      64383343 
 17211      00
 17212              	.LASF480:
 17213 0798 74687265 		.ascii	"thread\000"
 17213      616400
 17214              	.LASF525:
 17215 079f 72656773 		.ascii	"regshift\000"
 17215      68696674 
 17215      00
 17216              	.LASF705:
 17217 07a8 73657475 		.ascii	"setup\000"
ARM GAS  /var/folders/qd/4mxf5pkd0zdf0b9dd1hp39180000gn/T//cc0H01tt.s 			page 310


 17217      7000
 17218              	.LASF684:
 17219 07ae 5350495F 		.ascii	"SPI_UNINIT\000"
 17219      554E494E 
 17219      495400
 17220              	.LASF758:
 17221 07b9 44545846 		.ascii	"DTXFSTS\000"
 17221      53545300 
 17222              	.LASF430:
 17223 07c1 626C6B5F 		.ascii	"blk_size\000"
 17223      73697A65 
 17223      00
 17224              	.LASF587:
 17225 07ca 4932435F 		.ascii	"I2C_READY\000"
 17225      52454144 
 17225      5900
 17226              	.LASF859:
 17227 07d4 6368616E 		.ascii	"changeMotorsStateAsync_wa\000"
 17227      67654D6F 
 17227      746F7273 
 17227      53746174 
 17227      65417379 
 17228              	.LASF44:
 17229 07ee 5F5F746D 		.ascii	"__tm_yday\000"
 17229      5F796461 
 17229      7900
 17230              	.LASF874:
 17231 07f8 64657465 		.ascii	"detectEnvironment\000"
 17231      6374456E 
 17231      7669726F 
 17231      6E6D656E 
 17231      7400
 17232              	.LASF945:
 17233 080a 6D6F645F 		.ascii	"mod_sensors_getValueTOF\000"
 17233      73656E73 
 17233      6F72735F 
 17233      67657456 
 17233      616C7565 
 17234              	.LASF699:
 17235 0822 696E5F70 		.ascii	"in_params\000"
 17235      6172616D 
 17235      7300
 17236              	.LASF572:
 17237 082c 43434552 		.ascii	"CCER\000"
 17237      00
 17238              	.LASF321:
 17239 0831 49325350 		.ascii	"I2SPR\000"
 17239      5200
 17240              	.LASF629:
 17241 0837 50574D5F 		.ascii	"PWM_UNINIT\000"
 17241      554E494E 
 17241      495400
 17242              	.LASF340:
 17243 0842 62657374 		.ascii	"best\000"
 17243      00
 17244              	.LASF767:
 17245 0847 47414842 		.ascii	"GAHBCFG\000"
ARM GAS  /var/folders/qd/4mxf5pkd0zdf0b9dd1hp39180000gn/T//cc0H01tt.s 			page 311


 17245      43464700 
 17246              	.LASF535:
 17247 084f 64616363 		.ascii	"daccallback_t\000"
 17247      616C6C62 
 17247      61636B5F 
 17247      7400
 17248              	.LASF19:
 17249 085d 5F4C4F43 		.ascii	"_LOCK_T\000"
 17249      4B5F5400 
 17250              	.LASF811:
 17251 0865 72657376 		.ascii	"resvd840\000"
 17251      64383430 
 17251      00
 17252              	.LASF317:
 17253 086e 43524350 		.ascii	"CRCPR\000"
 17253      5200
 17254              	.LASF425:
 17255 0874 424C4B5F 		.ascii	"BLK_READY\000"
 17255      52454144 
 17255      5900
 17256              	.LASF10:
 17257 087e 5F5F696E 		.ascii	"__int16_t\000"
 17257      7431365F 
 17257      7400
 17258              	.LASF12:
 17259 0888 5F5F7569 		.ascii	"__uint16_t\000"
 17259      6E743136 
 17259      5F7400
 17260              	.LASF562:
 17261 0893 4750545F 		.ascii	"GPT_CONTINUOUS\000"
 17261      434F4E54 
 17261      494E554F 
 17261      555300
 17262              	.LASF825:
 17263 08a2 74787175 		.ascii	"txqueued\000"
 17263      65756564 
 17263      00
 17264              	.LASF195:
 17265 08ab 705F6D73 		.ascii	"p_msg\000"
 17265      6700
 17266              	.LASF104:
 17267 08b1 5F756E75 		.ascii	"_unused_rand\000"
 17267      7365645F 
 17267      72616E64 
 17267      00
 17268              	.LASF764:
 17269 08be 73746D33 		.ascii	"stm32_otg_out_ep_t\000"
 17269      325F6F74 
 17269      675F6F75 
 17269      745F6570 
 17269      5F7400
 17270              	.LASF773:
 17271 08d1 47525853 		.ascii	"GRXSTSP\000"
 17271      54535000 
 17272              	.LASF772:
 17273 08d9 47525853 		.ascii	"GRXSTSR\000"
 17273      54535200 
ARM GAS  /var/folders/qd/4mxf5pkd0zdf0b9dd1hp39180000gn/T//cc0H01tt.s 			page 312


 17274              	.LASF351:
 17275 08e1 65786974 		.ascii	"exitcode\000"
 17275      636F6465 
 17275      00
 17276              	.LASF295:
 17277 08ea 4D314152 		.ascii	"M1AR\000"
 17277      00
 17278              	.LASF712:
 17279 08ef 77616974 		.ascii	"wait\000"
 17279      00
 17280              	.LASF296:
 17281 08f4 444D415F 		.ascii	"DMA_Stream_TypeDef\000"
 17281      53747265 
 17281      616D5F54 
 17281      79706544 
 17281      656600
 17282              	.LASF719:
 17283 0907 5553425F 		.ascii	"USB_ACTIVE\000"
 17283      41435449 
 17283      564500
 17284              	.LASF920:
 17285 0912 6D6F645F 		.ascii	"mod_sensors_initSensors\000"
 17285      73656E73 
 17285      6F72735F 
 17285      696E6974 
 17285      53656E73 
 17286              	.LASF760:
 17287 092a 73746D33 		.ascii	"stm32_otg_in_ep_t\000"
 17287      325F6F74 
 17287      675F696E 
 17287      5F65705F 
 17287      7400
 17288              	.LASF833:
 17289 093c 7278636E 		.ascii	"rxcnt\000"
 17289      7400
 17290              	.LASF462:
 17291 0942 4144435F 		.ascii	"ADC_UNINIT\000"
 17291      554E494E 
 17291      495400
 17292              	.LASF609:
 17293 094d 7278646D 		.ascii	"rxdmamode\000"
 17293      616D6F64 
 17293      6500
 17294              	.LASF86:
 17295 0957 5F726573 		.ascii	"_result_k\000"
 17295      756C745F 
 17295      6B00
 17296              	.LASF554:
 17297 0961 6D6F6465 		.ascii	"mode\000"
 17297      00
 17298              	.LASF78:
 17299 0966 5F737464 		.ascii	"_stderr\000"
 17299      65727200 
 17300              	.LASF85:
 17301 096e 5F726573 		.ascii	"_result\000"
 17301      756C7400 
 17302              	.LASF364:
ARM GAS  /var/folders/qd/4mxf5pkd0zdf0b9dd1hp39180000gn/T//cc0H01tt.s 			page 313


 17303 0976 6D5F636E 		.ascii	"m_cnt\000"
 17303      7400
 17304              	.LASF551:
 17305 097c 45585444 		.ascii	"EXTDriver\000"
 17305      72697665 
 17305      7200
 17306              	.LASF48:
 17307 0986 5F64736F 		.ascii	"_dso_handle\000"
 17307      5F68616E 
 17307      646C6500 
 17308              	.LASF621:
 17309 0992 69327363 		.ascii	"i2scallback_t\000"
 17309      616C6C62 
 17309      61636B5F 
 17309      7400
 17310              	.LASF693:
 17311 09a0 73737061 		.ascii	"sspad\000"
 17311      6400
 17312              	.LASF610:
 17313 09a6 7478646D 		.ascii	"txdmamode\000"
 17313      616D6F64 
 17313      6500
 17314              	.LASF578:
 17315 09b0 67707466 		.ascii	"gptfreq_t\000"
 17315      7265715F 
 17315      7400
 17316              	.LASF902:
 17317 09ba 7369676E 		.ascii	"signalEndMovement\000"
 17317      616C456E 
 17317      644D6F76 
 17317      656D656E 
 17317      7400
 17318              	.LASF43:
 17319 09cc 5F5F746D 		.ascii	"__tm_wday\000"
 17319      5F776461 
 17319      7900
 17320              	.LASF45:
 17321 09d6 5F5F746D 		.ascii	"__tm_isdst\000"
 17321      5F697364 
 17321      737400
 17322              	.LASF154:
 17323 09e1 6B6E6F77 		.ascii	"knownObjectsLocation\000"
 17323      6E4F626A 
 17323      65637473 
 17323      4C6F6361 
 17323      74696F6E 
 17324              	.LASF818:
 17325 09f6 72785F66 		.ascii	"rx_fifo_size\000"
 17325      69666F5F 
 17325      73697A65 
 17325      00
 17326              	.LASF134:
 17327 0a03 5F5F6664 		.ascii	"__fdlib_version\000"
 17327      6C69625F 
 17327      76657273 
 17327      696F6E00 
 17328              	.LASF533:
ARM GAS  /var/folders/qd/4mxf5pkd0zdf0b9dd1hp39180000gn/T//cc0H01tt.s 			page 314


 17329 0a13 4441435F 		.ascii	"DAC_ERR_UNDERFLOW\000"
 17329      4552525F 
 17329      554E4445 
 17329      52464C4F 
 17329      5700
 17330              	.LASF514:
 17331 0a25 77616B65 		.ascii	"wakeup_event\000"
 17331      75705F65 
 17331      76656E74 
 17331      00
 17332              	.LASF218:
 17333 0a32 76745F70 		.ascii	"vt_prev\000"
 17333      72657600 
 17334              	.LASF935:
 17335 0a3a 6D616C6C 		.ascii	"malloc\000"
 17335      6F6300
 17336              	.LASF488:
 17337 0a41 656E645F 		.ascii	"end_cb\000"
 17337      636200
 17338              	.LASF918:
 17339 0a48 63685468 		.ascii	"chThdCreateStatic\000"
 17339      64437265 
 17339      61746553 
 17339      74617469 
 17339      6300
 17340              	.LASF836:
 17341 0a5a 73657475 		.ascii	"setup_cb\000"
 17341      705F6362 
 17341      00
 17342              	.LASF9:
 17343 0a63 756E7369 		.ascii	"unsigned char\000"
 17343      676E6564 
 17343      20636861 
 17343      7200
 17344              	.LASF77:
 17345 0a71 5F737464 		.ascii	"_stdout\000"
 17345      6F757400 
 17346              	.LASF315:
 17347 0a79 4649464F 		.ascii	"FIFO\000"
 17347      00
 17348              	.LASF336:
 17349 0a7e 74625F62 		.ascii	"tb_buffer\000"
 17349      75666665 
 17349      7200
 17350              	.LASF508:
 17351 0a88 74787175 		.ascii	"txqueue\000"
 17351      65756500 
 17352              	.LASF359:
 17353 0a90 735F636E 		.ascii	"s_cnt\000"
 17353      7400
 17354              	.LASF206:
 17355 0a96 72656164 		.ascii	"ready_list_t\000"
 17355      795F6C69 
 17355      73745F74 
 17355      00
 17356              	.LASF179:
 17357 0aa3 63685F74 		.ascii	"ch_thread\000"
ARM GAS  /var/folders/qd/4mxf5pkd0zdf0b9dd1hp39180000gn/T//cc0H01tt.s 			page 315


 17357      68726561 
 17357      6400
 17358              	.LASF596:
 17359 0aad 4F504D4F 		.ascii	"OPMODE_SMBUS_HOST\000"
 17359      44455F53 
 17359      4D425553 
 17359      5F484F53 
 17359      5400
 17360              	.LASF888:
 17361 0abf 77686565 		.ascii	"wheelSpeed\000"
 17361      6C537065 
 17361      656400
 17362              	.LASF119:
 17363 0aca 5F6D6273 		.ascii	"_mbsrtowcs_state\000"
 17363      72746F77 
 17363      63735F73 
 17363      74617465 
 17363      00
 17364              	.LASF714:
 17365 0adb 75736265 		.ascii	"usbep_t\000"
 17365      705F7400 
 17366              	.LASF34:
 17367 0ae3 5F776473 		.ascii	"_wds\000"
 17367      00
 17368              	.LASF3:
 17369 0ae8 666C6F61 		.ascii	"float\000"
 17369      7400
 17370              	.LASF547:
 17371 0aee 4558545F 		.ascii	"EXT_UNINIT\000"
 17371      554E494E 
 17371      495400
 17372              	.LASF505:
 17373 0af9 43414E5F 		.ascii	"CAN_SLEEP\000"
 17373      534C4545 
 17373      5000
 17374              	.LASF332:
 17375 0b03 73655F73 		.ascii	"se_state\000"
 17375      74617465 
 17375      00
 17376              	.LASF56:
 17377 0b0c 5F73697A 		.ascii	"_size\000"
 17377      6500
 17378              	.LASF683:
 17379 0b12 53444344 		.ascii	"SDCD1\000"
 17379      3100
 17380              	.LASF225:
 17381 0b18 73797374 		.ascii	"system_debug_t\000"
 17381      656D5F64 
 17381      65627567 
 17381      5F7400
 17382              	.LASF283:
 17383 0b27 44485238 		.ascii	"DHR8R1\000"
 17383      523100
 17384              	.LASF286:
 17385 0b2e 44485238 		.ascii	"DHR8R2\000"
 17385      523200
 17386              	.LASF569:
ARM GAS  /var/folders/qd/4mxf5pkd0zdf0b9dd1hp39180000gn/T//cc0H01tt.s 			page 316


 17387 0b35 44494552 		.ascii	"DIER\000"
 17387      00
 17388              	.LASF183:
 17389 0b3a 705F6374 		.ascii	"p_ctx\000"
 17389      7800
 17390              	.LASF221:
 17391 0b40 76745F70 		.ascii	"vt_par\000"
 17391      617200
 17392              	.LASF242:
 17393 0b47 4A4F4652 		.ascii	"JOFR1\000"
 17393      3100
 17394              	.LASF243:
 17395 0b4d 4A4F4652 		.ascii	"JOFR2\000"
 17395      3200
 17396              	.LASF245:
 17397 0b53 4A4F4652 		.ascii	"JOFR4\000"
 17397      3400
 17398              	.LASF137:
 17399 0b59 77686565 		.ascii	"wheelSpeed_t\000"
 17399      6C537065 
 17399      65645F74 
 17399      00
 17400              	.LASF63:
 17401 0b66 5F777269 		.ascii	"_write\000"
 17401      746500
 17402              	.LASF319:
 17403 0b6d 54584352 		.ascii	"TXCRCR\000"
 17403      435200
 17404              	.LASF540:
 17405 0b74 64616364 		.ascii	"dacdhrmode_t\000"
 17405      68726D6F 
 17405      64655F74 
 17405      00
 17406              	.LASF482:
 17407 0b81 646D6173 		.ascii	"dmastp\000"
 17407      747000
 17408              	.LASF600:
 17409 0b88 46415354 		.ascii	"FAST_DUTY_CYCLE_16_9\000"
 17409      5F445554 
 17409      595F4359 
 17409      434C455F 
 17409      31365F39 
 17410              	.LASF164:
 17411 0b9d 75696E74 		.ascii	"uint64_t\000"
 17411      36345F74 
 17411      00
 17412              	.LASF346:
 17413 0ba6 6E5F6374 		.ascii	"n_ctxswc\000"
 17413      78737763 
 17413      00
 17414              	.LASF883:
 17415 0baf 6E756D62 		.ascii	"number\000"
 17415      657200
 17416              	.LASF892:
 17417 0bb6 726F626F 		.ascii	"robotDistance\000"
 17417      74446973 
 17417      74616E63 
ARM GAS  /var/folders/qd/4mxf5pkd0zdf0b9dd1hp39180000gn/T//cc0H01tt.s 			page 317


 17417      6500
 17418              	.LASF384:
 17419 0bc4 63685F64 		.ascii	"ch_debug\000"
 17419      65627567 
 17419      00
 17420              	.LASF543:
 17421 0bcd 696E6974 		.ascii	"init\000"
 17421      00
 17422              	.LASF270:
 17423 0bd2 464D3152 		.ascii	"FM1R\000"
 17423      00
 17424              	.LASF459:
 17425 0bd7 50414C43 		.ascii	"PALConfig\000"
 17425      6F6E6669 
 17425      6700
 17426              	.LASF827:
 17427 0be1 7478636E 		.ascii	"txcnt\000"
 17427      7400
 17428              	.LASF741:
 17429 0be7 75736265 		.ascii	"usbeventcb_t\000"
 17429      76656E74 
 17429      63625F74 
 17429      00
 17430              	.LASF422:
 17431 0bf4 424C4B5F 		.ascii	"BLK_ACTIVE\000"
 17431      41435449 
 17431      564500
 17432              	.LASF42:
 17433 0bff 5F5F746D 		.ascii	"__tm_year\000"
 17433      5F796561 
 17433      7200
 17434              	.LASF389:
 17435 0c09 6576656E 		.ascii	"event_listener_t\000"
 17435      745F6C69 
 17435      7374656E 
 17435      65725F74 
 17435      00
 17436              	.LASF819:
 17437 0c1a 6F74675F 		.ascii	"otg_ram_size\000"
 17437      72616D5F 
 17437      73697A65 
 17437      00
 17438              	.LASF821:
 17439 0c27 73746D33 		.ascii	"stm32_otg_params_t\000"
 17439      325F6F74 
 17439      675F7061 
 17439      72616D73 
 17439      5F7400
 17440              	.LASF814:
 17441 0c3a 72657376 		.ascii	"resvdD00\000"
 17441      64443030 
 17441      00
 17442              	.LASF318:
 17443 0c43 52584352 		.ascii	"RXCRCR\000"
 17443      435200
 17444              	.LASF830:
 17445 0c4a 72786275 		.ascii	"rxbuf\000"
ARM GAS  /var/folders/qd/4mxf5pkd0zdf0b9dd1hp39180000gn/T//cc0H01tt.s 			page 318


 17445      6600
 17446              	.LASF102:
 17447 0c50 5F6D756C 		.ascii	"_mult\000"
 17447      7400
 17448              	.LASF360:
 17449 0c56 63685F6D 		.ascii	"ch_mutex\000"
 17449      75746578 
 17449      00
 17450              	.LASF934:
 17451 0c5f 6D6F645F 		.ascii	"mod_mapping_resetCoordinates\000"
 17451      6D617070 
 17451      696E675F 
 17451      72657365 
 17451      74436F6F 
 17452              	.LASF955:
 17453 0c7c 2F557365 		.ascii	"/Users/nicolas/Library/Mobile Documents/com~apple~C"
 17453      72732F6E 
 17453      69636F6C 
 17453      61732F4C 
 17453      69627261 
 17454 0caf 6C6F7564 		.ascii	"loudDocs/Projects/Cours/epuck_project/Sources\000"
 17454      446F6373 
 17454      2F50726F 
 17454      6A656374 
 17454      732F436F 
 17455              	.LASF633:
 17456 0cdd 50574D44 		.ascii	"PWMDriver\000"
 17456      72697665 
 17456      7200
 17457              	.LASF456:
 17458 0ce7 50474461 		.ascii	"PGData\000"
 17458      746100
 17459              	.LASF642:
 17460 0cee 50574D43 		.ascii	"PWMConfig\000"
 17460      6F6E6669 
 17460      6700
 17461              	.LASF117:
 17462 0cf8 5F6D6272 		.ascii	"_mbrlen_state\000"
 17462      6C656E5F 
 17462      73746174 
 17462      6500
 17463              	.LASF887:
 17464 0d06 64656C74 		.ascii	"deltaTime\000"
 17464      6154696D 
 17464      6500
 17465              	.LASF890:
 17466 0d10 74696D65 		.ascii	"time\000"
 17466      00
 17467              	.LASF145:
 17468 0d15 76616C75 		.ascii	"value\000"
 17468      6500
 17469              	.LASF374:
 17470 0d1b 63665F6F 		.ascii	"cf_off_newer\000"
 17470      66665F6E 
 17470      65776572 
 17470      00
 17471              	.LASF799:
ARM GAS  /var/folders/qd/4mxf5pkd0zdf0b9dd1hp39180000gn/T//cc0H01tt.s 			page 319


 17472 0d28 44494550 		.ascii	"DIEPMSK\000"
 17472      4D534B00 
 17473              	.LASF766:
 17474 0d30 474F5447 		.ascii	"GOTGINT\000"
 17474      494E5400 
 17475              	.LASF838:
 17476 0d38 6F75745F 		.ascii	"out_cb\000"
 17476      636200
 17477              	.LASF790:
 17478 0d3f 4841494E 		.ascii	"HAINTMSK\000"
 17478      544D534B 
 17478      00
 17479              	.LASF700:
 17480 0d48 6F75745F 		.ascii	"out_params\000"
 17480      70617261 
 17480      6D7300
 17481              	.LASF331:
 17482 0d53 73655F77 		.ascii	"se_wtobjp\000"
 17482      746F626A 
 17482      7000
 17483              	.LASF249:
 17484 0d5d 4A535152 		.ascii	"JSQR\000"
 17484      00
 17485              	.LASF76:
 17486 0d62 5F737464 		.ascii	"_stdin\000"
 17486      696E00
 17487              	.LASF124:
 17488 0d69 5F6E6D61 		.ascii	"_nmalloc\000"
 17488      6C6C6F63 
 17488      00
 17489              	.LASF581:
 17490 0d72 64696572 		.ascii	"dier\000"
 17490      00
 17491              	.LASF678:
 17492 0d77 69735F70 		.ascii	"is_protected\000"
 17492      726F7465 
 17492      63746564 
 17492      00
 17493              	.LASF215:
 17494 0d84 76697274 		.ascii	"virtual_timer_t\000"
 17494      75616C5F 
 17494      74696D65 
 17494      725F7400 
 17495              	.LASF840:
 17496 0d94 6F75745F 		.ascii	"out_maxsize\000"
 17496      6D617873 
 17496      697A6500 
 17497              	.LASF210:
 17498 0da0 725F6374 		.ascii	"r_ctx\000"
 17498      7800
 17499              	.LASF217:
 17500 0da6 76745F6E 		.ascii	"vt_next\000"
 17500      65787400 
 17501              	.LASF615:
 17502 0dae 4932535F 		.ascii	"I2S_STOP\000"
 17502      53544F50 
 17502      00
ARM GAS  /var/folders/qd/4mxf5pkd0zdf0b9dd1hp39180000gn/T//cc0H01tt.s 			page 320


 17503              	.LASF251:
 17504 0db7 4A445232 		.ascii	"JDR2\000"
 17504      00
 17505              	.LASF630:
 17506 0dbc 50574D5F 		.ascii	"PWM_STOP\000"
 17506      53544F50 
 17506      00
 17507              	.LASF165:
 17508 0dc5 7274636E 		.ascii	"rtcnt_t\000"
 17508      745F7400 
 17509              	.LASF481:
 17510 0dcd 6D757465 		.ascii	"mutex\000"
 17510      7800
 17511              	.LASF624:
 17512 0dd3 73697A65 		.ascii	"size\000"
 17512      00
 17513              	.LASF861:
 17514 0dd8 64697363 		.ascii	"discover_wa\000"
 17514      6F766572 
 17514      5F776100 
 17515              	.LASF529:
 17516 0de4 44414344 		.ascii	"DACDriver\000"
 17516      72697665 
 17516      7200
 17517              	.LASF545:
 17518 0dee 44414343 		.ascii	"DACConfig\000"
 17518      6F6E6669 
 17518      6700
 17519              	.LASF942:
 17520 0df8 6D6F645F 		.ascii	"mod_mapping_getAngleForTranslation\000"
 17520      6D617070 
 17520      696E675F 
 17520      67657441 
 17520      6E676C65 
 17521              	.LASF136:
 17522 0e1b 72696768 		.ascii	"right\000"
 17522      7400
 17523              	.LASF875:
 17524 0e21 6368616E 		.ascii	"changeAngleRelative\000"
 17524      6765416E 
 17524      676C6552 
 17524      656C6174 
 17524      69766500 
 17525              	.LASF711:
 17526 0e35 74787065 		.ascii	"txpending\000"
 17526      6E64696E 
 17526      6700
 17527              	.LASF566:
 17528 0e3f 636C6F63 		.ascii	"clock\000"
 17528      6B00
 17529              	.LASF433:
 17530 0e45 636C6561 		.ascii	"clear\000"
 17530      7200
 17531              	.LASF576:
 17532 0e4b 43435852 		.ascii	"CCXR\000"
 17532      00
 17533              	.LASF865:
ARM GAS  /var/folders/qd/4mxf5pkd0zdf0b9dd1hp39180000gn/T//cc0H01tt.s 			page 321


 17534 0e50 6D6F645F 		.ascii	"mod_explo_explorateTheAreaOnThread\000"
 17534      6578706C 
 17534      6F5F6578 
 17534      706C6F72 
 17534      61746554 
 17535              	.LASF279:
 17536 0e73 43414E5F 		.ascii	"CAN_TypeDef\000"
 17536      54797065 
 17536      44656600 
 17537              	.LASF20:
 17538 0e7f 5F6F6666 		.ascii	"_off_t\000"
 17538      5F7400
 17539              	.LASF326:
 17540 0e86 73746B61 		.ascii	"stkalign_t\000"
 17540      6C69676E 
 17540      5F7400
 17541              	.LASF333:
 17542 0e91 63685F73 		.ascii	"ch_swc_event_t\000"
 17542      77635F65 
 17542      76656E74 
 17542      5F7400
 17543              	.LASF648:
 17544 0ea0 53445F53 		.ascii	"SD_STOP\000"
 17544      544F5000 
 17545              	.LASF745:
 17546 0ea8 72657376 		.ascii	"resvd8\000"
 17546      643800
 17547              	.LASF7:
 17548 0eaf 73697A65 		.ascii	"size_t\000"
 17548      5F7400
 17549              	.LASF107:
 17550 0eb6 5F6C6F63 		.ascii	"_localtime_buf\000"
 17550      616C7469 
 17550      6D655F62 
 17550      756600
 17551              	.LASF812:
 17552 0ec5 72657376 		.ascii	"resvd880\000"
 17552      64383830 
 17552      00
 17553              	.LASF25:
 17554 0ece 5F5F636F 		.ascii	"__count\000"
 17554      756E7400 
 17555              	.LASF159:
 17556 0ed6 75696E74 		.ascii	"uint8_t\000"
 17556      385F7400 
 17557              	.LASF749:
 17558 0ede 72657376 		.ascii	"resvd14\000"
 17558      64313400 
 17559              	.LASF501:
 17560 0ee6 43414E5F 		.ascii	"CAN_UNINIT\000"
 17560      554E494E 
 17560      495400
 17561              	.LASF750:
 17562 0ef1 72657376 		.ascii	"resvd18\000"
 17562      64313800 
 17563              	.LASF212:
 17564 0ef9 725F6F6C 		.ascii	"r_older\000"
ARM GAS  /var/folders/qd/4mxf5pkd0zdf0b9dd1hp39180000gn/T//cc0H01tt.s 			page 322


 17564      64657200 
 17565              	.LASF181:
 17566 0f01 705F7072 		.ascii	"p_prev\000"
 17566      657600
 17567              	.LASF376:
 17568 0f08 63665F6F 		.ascii	"cf_off_name\000"
 17568      66665F6E 
 17568      616D6500 
 17569              	.LASF641:
 17570 0f14 50574D43 		.ascii	"PWMChannelConfig\000"
 17570      68616E6E 
 17570      656C436F 
 17570      6E666967 
 17570      00
 17571              	.LASF640:
 17572 0f25 70776D63 		.ascii	"pwmcnt_t\000"
 17572      6E745F74 
 17572      00
 17573              	.LASF808:
 17574 0f2e 44494550 		.ascii	"DIEPEMPMSK\000"
 17574      454D504D 
 17574      534B00
 17575              	.LASF753:
 17576 0f39 44494550 		.ascii	"DIEPCTL\000"
 17576      43544C00 
 17577              	.LASF395:
 17578 0f41 656C5F77 		.ascii	"el_wflags\000"
 17578      666C6167 
 17578      7300
 17579              	.LASF709:
 17580 0f4b 6F746770 		.ascii	"otgparams\000"
 17580      6172616D 
 17580      7300
 17581              	.LASF334:
 17582 0f55 74625F73 		.ascii	"tb_size\000"
 17582      697A6500 
 17583              	.LASF453:
 17584 0f5d 50444461 		.ascii	"PDData\000"
 17584      746100
 17585              	.LASF673:
 17586 0f64 73637261 		.ascii	"scratchpad\000"
 17586      74636870 
 17586      616400
 17587              	.LASF90:
 17588 0f6f 5F637674 		.ascii	"_cvtbuf\000"
 17588      62756600 
 17589              	.LASF842:
 17590 0f77 6F75745F 		.ascii	"out_state\000"
 17590      73746174 
 17590      6500
 17591              	.LASF399:
 17592 0f81 696F5F71 		.ascii	"io_queue_t\000"
 17592      75657565 
 17592      5F7400
 17593              	.LASF689:
 17594 0f8c 73706973 		.ascii	"spistate_t\000"
 17594      74617465 
ARM GAS  /var/folders/qd/4mxf5pkd0zdf0b9dd1hp39180000gn/T//cc0H01tt.s 			page 323


 17594      5F7400
 17595              	.LASF586:
 17596 0f97 4932435F 		.ascii	"I2C_STOP\000"
 17596      53544F50 
 17596      00
 17597              	.LASF608:
 17598 0fa0 61646472 		.ascii	"addr\000"
 17598      00
 17599              	.LASF264:
 17600 0fa5 52463052 		.ascii	"RF0R\000"
 17600      00
 17601              	.LASF471:
 17602 0faa 4144435F 		.ascii	"ADC_ERR_DMAFAILURE\000"
 17602      4552525F 
 17602      444D4146 
 17602      41494C55 
 17602      524500
 17603              	.LASF687:
 17604 0fbd 5350495F 		.ascii	"SPI_ACTIVE\000"
 17604      41435449 
 17604      564500
 17605              	.LASF323:
 17606 0fc8 47545052 		.ascii	"GTPR\000"
 17606      00
 17607              	.LASF555:
 17608 0fcd 45585443 		.ascii	"EXTChannelConfig\000"
 17608      68616E6E 
 17608      656C436F 
 17608      6E666967 
 17608      00
 17609              	.LASF436:
 17610 0fde 4F535045 		.ascii	"OSPEEDR\000"
 17610      45445200 
 17611              	.LASF519:
 17612 0fe6 4441435F 		.ascii	"DAC_READY\000"
 17612      52454144 
 17612      5900
 17613              	.LASF777:
 17614 0ff0 72657376 		.ascii	"resvd30\000"
 17614      64333000 
 17615              	.LASF24:
 17616 0ff8 5F5F7763 		.ascii	"__wchb\000"
 17616      686200
 17617              	.LASF118:
 17618 0fff 5F6D6272 		.ascii	"_mbrtowc_state\000"
 17618      746F7763 
 17618      5F737461 
 17618      746500
 17619              	.LASF806:
 17620 100e 44564255 		.ascii	"DVBUSPULSE\000"
 17620      5350554C 
 17620      534500
 17621              	.LASF39:
 17622 1019 5F5F746D 		.ascii	"__tm_hour\000"
 17622      5F686F75 
 17622      7200
 17623              	.LASF421:
ARM GAS  /var/folders/qd/4mxf5pkd0zdf0b9dd1hp39180000gn/T//cc0H01tt.s 			page 324


 17624 1023 424C4B5F 		.ascii	"BLK_STOP\000"
 17624      53544F50 
 17624      00
 17625              	.LASF656:
 17626 102c 53657269 		.ascii	"SerialDriverVMT\000"
 17626      616C4472 
 17626      69766572 
 17626      564D5400 
 17627              	.LASF727:
 17628 103c 5553425F 		.ascii	"USB_EP0_ERROR\000"
 17628      4550305F 
 17628      4552524F 
 17628      5200
 17629              	.LASF22:
 17630 104a 77696E74 		.ascii	"wint_t\000"
 17630      5F7400
 17631              	.LASF679:
 17632 1051 636F6E6E 		.ascii	"connect\000"
 17632      65637400 
 17633              	.LASF91:
 17634 1059 5F6E6577 		.ascii	"_new\000"
 17634      00
 17635              	.LASF474:
 17636 105e 41444344 		.ascii	"ADCDriver\000"
 17636      72697665 
 17636      7200
 17637              	.LASF820:
 17638 1068 6E756D5F 		.ascii	"num_endpoints\000"
 17638      656E6470 
 17638      6F696E74 
 17638      7300
 17639              	.LASF497:
 17640 1076 41444343 		.ascii	"ADCConfig\000"
 17640      6F6E6669 
 17640      6700
 17641              	.LASF828:
 17642 1080 746F7473 		.ascii	"totsize\000"
 17642      697A6500 
 17643              	.LASF98:
 17644 1088 5F6E696F 		.ascii	"_niobs\000"
 17644      627300
 17645              	.LASF377:
 17646 108f 63665F6F 		.ascii	"cf_off_stklimit\000"
 17646      66665F73 
 17646      746B6C69 
 17646      6D697400 
 17647              	.LASF649:
 17648 109f 53445F52 		.ascii	"SD_READY\000"
 17648      45414459 
 17648      00
 17649              	.LASF743:
 17650 10a8 75736267 		.ascii	"usbgetdescriptor_t\000"
 17650      65746465 
 17650      73637269 
 17650      70746F72 
 17650      5F7400
 17651              	.LASF953:
ARM GAS  /var/folders/qd/4mxf5pkd0zdf0b9dd1hp39180000gn/T//cc0H01tt.s 			page 325


 17652 10bb 474E5520 		.ascii	"GNU C11 7.2.1 20170904 (release) [ARM/embedded-7-br"
 17652      43313120 
 17652      372E322E 
 17652      31203230 
 17652      31373039 
 17653 10ee 616E6368 		.ascii	"anch revision 255204] -mcpu=cortex-m4 -mfloat-abi=h"
 17653      20726576 
 17653      6973696F 
 17653      6E203235 
 17653      35323034 
 17654 1121 61726420 		.ascii	"ard -mfpu=fpv4-sp-d16 -mno-thumb-interwork -mthumb "
 17654      2D6D6670 
 17654      753D6670 
 17654      76342D73 
 17654      702D6431 
 17655 1154 2D676764 		.ascii	"-ggdb -O2 -fomit-frame-pointer -falign-functions=16"
 17655      62202D4F 
 17655      32202D66 
 17655      6F6D6974 
 17655      2D667261 
 17656 1187 202D666E 		.ascii	" -fno-strict-aliasing -fstack-protector-all -ffunct"
 17656      6F2D7374 
 17656      72696374 
 17656      2D616C69 
 17656      6173696E 
 17657 11ba 696F6E2D 		.ascii	"ion-sections -fdata-sections -fno-common -fsingle-p"
 17657      73656374 
 17657      696F6E73 
 17657      202D6664 
 17657      6174612D 
 17658 11ed 72656369 		.ascii	"recision-constant\000"
 17658      73696F6E 
 17658      2D636F6E 
 17658      7374616E 
 17658      7400
 17659              	.LASF522:
 17660 11ff 4441435F 		.ascii	"DAC_ERROR\000"
 17660      4552524F 
 17660      5200
 17661              	.LASF213:
 17662 1209 725F6375 		.ascii	"r_current\000"
 17662      7272656E 
 17662      7400
 17663              	.LASF75:
 17664 1213 5F657272 		.ascii	"_errno\000"
 17664      6E6F00
 17665              	.LASF722:
 17666 121a 5553425F 		.ascii	"USB_EP0_TX\000"
 17666      4550305F 
 17666      545800
 17667              	.LASF701:
 17668 1225 65703073 		.ascii	"ep0state\000"
 17668      74617465 
 17668      00
 17669              	.LASF40:
 17670 122e 5F5F746D 		.ascii	"__tm_mday\000"
 17670      5F6D6461 
ARM GAS  /var/folders/qd/4mxf5pkd0zdf0b9dd1hp39180000gn/T//cc0H01tt.s 			page 326


 17670      7900
 17671              	.LASF868:
 17672 1238 6D6F645F 		.ascii	"mod_explo_initModule\000"
 17672      6578706C 
 17672      6F5F696E 
 17672      69744D6F 
 17672      64756C65 
 17673              	.LASF414:
 17674 124d 69666372 		.ascii	"ifcr\000"
 17674      00
 17675              	.LASF614:
 17676 1252 4932535F 		.ascii	"I2S_UNINIT\000"
 17676      554E494E 
 17676      495400
 17677              	.LASF442:
 17678 125d 73746D33 		.ascii	"stm32_gpio_t\000"
 17678      325F6770 
 17678      696F5F74 
 17678      00
 17679              	.LASF350:
 17680 126a 7264796D 		.ascii	"rdymsg\000"
 17680      736700
 17681              	.LASF47:
 17682 1271 5F666E61 		.ascii	"_fnargs\000"
 17682      72677300 
 17683              	.LASF631:
 17684 1279 50574D5F 		.ascii	"PWM_READY\000"
 17684      52454144 
 17684      5900
 17685              	.LASF255:
 17686 1283 54445452 		.ascii	"TDTR\000"
 17686      00
 17687              	.LASF263:
 17688 1288 43414E5F 		.ascii	"CAN_FilterRegister_TypeDef\000"
 17688      46696C74 
 17688      65725265 
 17688      67697374 
 17688      65725F54 
 17689              	.LASF512:
 17690 12a3 6572726F 		.ascii	"error_event\000"
 17690      725F6576 
 17690      656E7400 
 17691              	.LASF487:
 17692 12af 6E756D5F 		.ascii	"num_channels\000"
 17692      6368616E 
 17692      6E656C73 
 17692      00
 17693              	.LASF244:
 17694 12bc 4A4F4652 		.ascii	"JOFR3\000"
 17694      3300
 17695              	.LASF780:
 17696 12c2 72657376 		.ascii	"resvd58\000"
 17696      64353800 
 17697              	.LASF829:
 17698 12ca 55534249 		.ascii	"USBInEndpointState\000"
 17698      6E456E64 
 17698      706F696E 
ARM GAS  /var/folders/qd/4mxf5pkd0zdf0b9dd1hp39180000gn/T//cc0H01tt.s 			page 327


 17698      74537461 
 17698      746500
 17699              	.LASF143:
 17700 12dd 706F696E 		.ascii	"point_t\000"
 17700      745F7400 
 17701              	.LASF400:
 17702 12e5 696F5F71 		.ascii	"io_queue\000"
 17702      75657565 
 17702      00
 17703              	.LASF951:
 17704 12ee 63684D73 		.ascii	"chMsgRelease\000"
 17704      6752656C 
 17704      65617365 
 17704      00
 17705              	.LASF450:
 17706 12fb 50414461 		.ascii	"PAData\000"
 17706      746100
 17707              	.LASF18:
 17708 1302 5F5F7569 		.ascii	"__uint64_t\000"
 17708      6E743634 
 17708      5F7400
 17709              	.LASF31:
 17710 130d 5F6E6578 		.ascii	"_next\000"
 17710      7400
 17711              	.LASF636:
 17712 1313 70776D63 		.ascii	"pwmcallback_t\000"
 17712      616C6C62 
 17712      61636B5F 
 17712      7400
 17713              	.LASF530:
 17714 1321 70617261 		.ascii	"params\000"
 17714      6D7300
 17715              	.LASF726:
 17716 1328 5553425F 		.ascii	"USB_EP0_SENDING_STS\000"
 17716      4550305F 
 17716      53454E44 
 17716      494E475F 
 17716      53545300 
 17717              	.LASF115:
 17718 133c 5F736967 		.ascii	"_signal_buf\000"
 17718      6E616C5F 
 17718      62756600 
 17719              	.LASF591:
 17720 1348 69326373 		.ascii	"i2cstate_t\000"
 17720      74617465 
 17720      5F7400
 17721              	.LASF61:
 17722 1353 5F636F6F 		.ascii	"_cookie\000"
 17722      6B696500 
 17723              	.LASF947:
 17724 135b 6D6F645F 		.ascii	"mod_motors_changeStateWheelSpeedType\000"
 17724      6D6F746F 
 17724      72735F63 
 17724      68616E67 
 17724      65537461 
 17725              	.LASF728:
 17726 1380 75736265 		.ascii	"usbep0state_t\000"
ARM GAS  /var/folders/qd/4mxf5pkd0zdf0b9dd1hp39180000gn/T//cc0H01tt.s 			page 328


 17726      70307374 
 17726      6174655F 
 17726      7400
 17727              	.LASF534:
 17728 138e 64616365 		.ascii	"dacerror_t\000"
 17728      72726F72 
 17728      5F7400
 17729              	.LASF267:
 17730 1399 7354784D 		.ascii	"sTxMailBox\000"
 17730      61696C42 
 17730      6F7800
 17731              	.LASF469:
 17732 13a4 61646373 		.ascii	"adcsample_t\000"
 17732      616D706C 
 17732      655F7400 
 17733              	.LASF567:
 17734 13b0 67707463 		.ascii	"gptcallback_t\000"
 17734      616C6C62 
 17734      61636B5F 
 17734      7400
 17735              	.LASF403:
 17736 13be 715F6275 		.ascii	"q_buffer\000"
 17736      66666572 
 17736      00
 17737              	.LASF180:
 17738 13c7 705F6E65 		.ascii	"p_next\000"
 17738      787400
 17739              	.LASF613:
 17740 13ce 49324344 		.ascii	"I2CD1\000"
 17740      3100
 17741              	.LASF754:
 17742 13d4 72657376 		.ascii	"resvd4\000"
 17742      643400
 17743              	.LASF696:
 17744 13db 55534244 		.ascii	"USBDriver\000"
 17744      72697665 
 17744      7200
 17745              	.LASF813:
 17746 13e5 72657376 		.ascii	"resvd8C0\000"
 17746      64384330 
 17746      00
 17747              	.LASF850:
 17748 13ee 55534243 		.ascii	"USBConfig\000"
 17748      6F6E6669 
 17748      6700
 17749              	.LASF756:
 17750 13f8 72657376 		.ascii	"resvdC\000"
 17750      644300
 17751              	.LASF643:
 17752 13ff 50574D44 		.ascii	"PWMD2\000"
 17752      3200
 17753              	.LASF644:
 17754 1405 50574D44 		.ascii	"PWMD3\000"
 17754      3300
 17755              	.LASF645:
 17756 140b 50574D44 		.ascii	"PWMD4\000"
 17756      3400
ARM GAS  /var/folders/qd/4mxf5pkd0zdf0b9dd1hp39180000gn/T//cc0H01tt.s 			page 329


 17757              	.LASF646:
 17758 1411 50574D44 		.ascii	"PWMD5\000"
 17758      3500
 17759              	.LASF153:
 17760 1417 6E65774F 		.ascii	"newObjectsLocation\000"
 17760      626A6563 
 17760      74734C6F 
 17760      63617469 
 17760      6F6E00
 17761              	.LASF654:
 17762 142a 6F717565 		.ascii	"oqueue\000"
 17762      756500
 17763              	.LASF943:
 17764 1431 6D6F645F 		.ascii	"mod_motors_convertRobotSpeedToWheelspeed\000"
 17764      6D6F746F 
 17764      72735F63 
 17764      6F6E7665 
 17764      7274526F 
 17765              	.LASF169:
 17766 145a 74726566 		.ascii	"trefs_t\000"
 17766      735F7400 
 17767              	.LASF199:
 17768 1462 705F6D70 		.ascii	"p_mpool\000"
 17768      6F6F6C00 
 17769              	.LASF301:
 17770 146a 4932435F 		.ascii	"I2C_TypeDef\000"
 17770      54797065 
 17770      44656600 
 17771              	.LASF542:
 17772 1476 44414343 		.ascii	"DACConversionGroup\000"
 17772      6F6E7665 
 17772      7273696F 
 17772      6E47726F 
 17772      757000
 17773              	.LASF37:
 17774 1489 5F5F746D 		.ascii	"__tm_sec\000"
 17774      5F736563 
 17774      00
 17775              	.LASF843:
 17776 1492 696E5F6D 		.ascii	"in_multiplier\000"
 17776      756C7469 
 17776      706C6965 
 17776      7200
 17777              	.LASF467:
 17778 14a0 4144435F 		.ascii	"ADC_ERROR\000"
 17778      4552524F 
 17778      5200
 17779              	.LASF864:
 17780 14aa 6D6F645F 		.ascii	"mod_explo_sendTheMap\000"
 17780      6578706C 
 17780      6F5F7365 
 17780      6E645468 
 17780      654D6170 
 17781              	.LASF46:
 17782 14bf 5F6F6E5F 		.ascii	"_on_exit_args\000"
 17782      65786974 
 17782      5F617267 
ARM GAS  /var/folders/qd/4mxf5pkd0zdf0b9dd1hp39180000gn/T//cc0H01tt.s 			page 330


 17782      7300
 17783              	.LASF327:
 17784 14cd 636F6E74 		.ascii	"context\000"
 17784      65787400 
 17785              	.LASF167:
 17786 14d5 746D6F64 		.ascii	"tmode_t\000"
 17786      655F7400 
 17787              	.LASF465:
 17788 14dd 4144435F 		.ascii	"ADC_ACTIVE\000"
 17788      41435449 
 17788      564500
 17789              	.LASF246:
 17790 14e8 53515231 		.ascii	"SQR1\000"
 17790      00
 17791              	.LASF247:
 17792 14ed 53515232 		.ascii	"SQR2\000"
 17792      00
 17793              	.LASF248:
 17794 14f2 53515233 		.ascii	"SQR3\000"
 17794      00
 17795              	.LASF438:
 17796 14f7 42535252 		.ascii	"BSRR\000"
 17796      00
 17797              	.LASF894:
 17798 14fc 6D6F7665 		.ascii	"moveAndComputePositionWheelSpeedType\000"
 17798      416E6443 
 17798      6F6D7075 
 17798      7465506F 
 17798      73697469 
 17799              	.LASF418:
 17800 1521 73746D33 		.ascii	"stm32_dma_stream_t\000"
 17800      325F646D 
 17800      615F7374 
 17800      7265616D 
 17800      5F7400
 17801              	.LASF877:
 17802 1534 6E657741 		.ascii	"newAbsolutePosition\000"
 17802      62736F6C 
 17802      75746550 
 17802      6F736974 
 17802      696F6E00 
 17803              	.LASF848:
 17804 1548 72657175 		.ascii	"requests_hook_cb\000"
 17804      65737473 
 17804      5F686F6F 
 17804      6B5F6362 
 17804      00
 17805              	.LASF120:
 17806 1559 5F776372 		.ascii	"_wcrtomb_state\000"
 17806      746F6D62 
 17806      5F737461 
 17806      746500
 17807              	.LASF665:
 17808 1568 5344435F 		.ascii	"SDC_MODE_8BIT\000"
 17808      4D4F4445 
 17808      5F384249 
 17808      5400
ARM GAS  /var/folders/qd/4mxf5pkd0zdf0b9dd1hp39180000gn/T//cc0H01tt.s 			page 331


 17809              	.LASF141:
 17810 1576 74686574 		.ascii	"theta\000"
 17810      6100
 17811              	.LASF927:
 17812 157c 63685365 		.ascii	"chSemSignalI\000"
 17812      6D536967 
 17812      6E616C49 
 17812      00
 17813              	.LASF826:
 17814 1589 74787369 		.ascii	"txsize\000"
 17814      7A6500
 17815              	.LASF937:
 17816 1590 6D6F645F 		.ascii	"mod_mapping_computeWallLocation\000"
 17816      6D617070 
 17816      696E675F 
 17816      636F6D70 
 17816      75746557 
 17817              	.LASF142:
 17818 15b0 726F626F 		.ascii	"robotPosition_t\000"
 17818      74506F73 
 17818      6974696F 
 17818      6E5F7400 
 17819              	.LASF538:
 17820 15c0 4441435F 		.ascii	"DAC_DHRM_12BIT_LEFT\000"
 17820      4448524D 
 17820      5F313242 
 17820      49545F4C 
 17820      45465400 
 17821              	.LASF634:
 17822 15d4 70657269 		.ascii	"period\000"
 17822      6F6400
 17823              	.LASF361:
 17824 15db 6D5F7175 		.ascii	"m_queue\000"
 17824      65756500 
 17825              	.LASF880:
 17826 15e3 6162736F 		.ascii	"absoluteAngle\000"
 17826      6C757465 
 17826      416E676C 
 17826      6500
 17827              	.LASF590:
 17828 15f1 4932435F 		.ascii	"I2C_LOCKED\000"
 17828      4C4F434B 
 17828      454400
 17829              	.LASF954:
 17830 15fc 2E2F6D6F 		.ascii	"./modules/mod_exploration.c\000"
 17830      64756C65 
 17830      732F6D6F 
 17830      645F6578 
 17830      706C6F72 
 17831              	.LASF228:
 17832 1618 6973725F 		.ascii	"isr_cnt\000"
 17832      636E7400 
 17833              	.LASF717:
 17834 1620 5553425F 		.ascii	"USB_READY\000"
 17834      52454144 
 17834      5900
 17835              	.LASF662:
ARM GAS  /var/folders/qd/4mxf5pkd0zdf0b9dd1hp39180000gn/T//cc0H01tt.s 			page 332


 17836 162a 72656164 		.ascii	"readt\000"
 17836      7400
 17837              	.LASF769:
 17838 1630 47525354 		.ascii	"GRSTCTL\000"
 17838      43544C00 
 17839              	.LASF564:
 17840 1638 67707473 		.ascii	"gptstate_t\000"
 17840      74617465 
 17840      5F7400
 17841              	.LASF30:
 17842 1643 5F5F554C 		.ascii	"__ULong\000"
 17842      6F6E6700 
 17843              	.LASF227:
 17844 164b 70616E69 		.ascii	"panic_msg\000"
 17844      635F6D73 
 17844      6700
 17845              	.LASF688:
 17846 1655 5350495F 		.ascii	"SPI_COMPLETE\000"
 17846      434F4D50 
 17846      4C455445 
 17846      00
 17847              	.LASF309:
 17848 1662 4454494D 		.ascii	"DTIMER\000"
 17848      455200
 17849              	.LASF211:
 17850 1669 725F6E65 		.ascii	"r_newer\000"
 17850      77657200 
 17851              	.LASF901:
 17852 1671 6C617374 		.ascii	"lastOrderTime\000"
 17852      4F726465 
 17852      7254696D 
 17852      6500
 17853              	.LASF734:
 17854 167f 5553425F 		.ascii	"USB_EVENT_STALLED\000"
 17854      4556454E 
 17854      545F5354 
 17854      414C4C45 
 17854      4400
 17855              	.LASF383:
 17856 1691 63686465 		.ascii	"chdebug_t\000"
 17856      6275675F 
 17856      7400
 17857              	.LASF928:
 17858 169b 5F646267 		.ascii	"_dbg_check_unlock\000"
 17858      5F636865 
 17858      636B5F75 
 17858      6E6C6F63 
 17858      6B00
 17859              	.LASF832:
 17860 16ad 72787369 		.ascii	"rxsize\000"
 17860      7A6500
 17861              	.LASF748:
 17862 16b4 48435453 		.ascii	"HCTSIZ\000"
 17862      495A00
 17863              	.LASF731:
 17864 16bb 5553425F 		.ascii	"USB_EVENT_CONFIGURED\000"
 17864      4556454E 
ARM GAS  /var/folders/qd/4mxf5pkd0zdf0b9dd1hp39180000gn/T//cc0H01tt.s 			page 333


 17864      545F434F 
 17864      4E464947 
 17864      55524544 
 17865              	.LASF680:
 17866 16d0 64697363 		.ascii	"disconnect\000"
 17866      6F6E6E65 
 17866      637400
 17867              	.LASF878:
 17868 16db 746F446F 		.ascii	"toDo\000"
 17868      00
 17869              	.LASF659:
 17870 16e0 70757474 		.ascii	"putt\000"
 17870      00
 17871              	.LASF170:
 17872 16e5 74736C69 		.ascii	"tslices_t\000"
 17872      6365735F 
 17872      7400
 17873              	.LASF105:
 17874 16ef 5F737472 		.ascii	"_strtok_last\000"
 17874      746F6B5F 
 17874      6C617374 
 17874      00
 17875              	.LASF370:
 17876 16fc 63685F74 		.ascii	"ch_timesize\000"
 17876      696D6573 
 17876      697A6500 
 17877              	.LASF589:
 17878 1708 4932435F 		.ascii	"I2C_ACTIVE_RX\000"
 17878      41435449 
 17878      56455F52 
 17878      5800
 17879              	.LASF713:
 17880 1716 77615F70 		.ascii	"wa_pump\000"
 17880      756D7000 
 17881              	.LASF314:
 17882 171e 4649464F 		.ascii	"FIFOCNT\000"
 17882      434E5400 
 17883              	.LASF398:
 17884 1726 6576656E 		.ascii	"event_source_t\000"
 17884      745F736F 
 17884      75726365 
 17884      5F7400
 17885              	.LASF783:
 17886 1735 72657376 		.ascii	"resvd140\000"
 17886      64313430 
 17886      00
 17887              	.LASF219:
 17888 173e 76745F64 		.ascii	"vt_delta\000"
 17888      656C7461 
 17888      00
 17889              	.LASF101:
 17890 1747 5F736565 		.ascii	"_seed\000"
 17890      6400
 17891              	.LASF335:
 17892 174d 74625F70 		.ascii	"tb_ptr\000"
 17892      747200
 17893              	.LASF541:
ARM GAS  /var/folders/qd/4mxf5pkd0zdf0b9dd1hp39180000gn/T//cc0H01tt.s 			page 334


 17894 1754 74726967 		.ascii	"trigger\000"
 17894      67657200 
 17895              	.LASF64:
 17896 175c 5F736565 		.ascii	"_seek\000"
 17896      6B00
 17897              	.LASF732:
 17898 1762 5553425F 		.ascii	"USB_EVENT_SUSPEND\000"
 17898      4556454E 
 17898      545F5355 
 17898      5350454E 
 17898      4400
 17899              	.LASF158:
 17900 1774 53454E44 		.ascii	"SEND_MAP\000"
 17900      5F4D4150 
 17900      00
 17901              	.LASF560:
 17902 177d 4750545F 		.ascii	"GPT_STOP\000"
 17902      53544F50 
 17902      00
 17903              	.LASF254:
 17904 1786 4144435F 		.ascii	"ADC_TypeDef\000"
 17904      54797065 
 17904      44656600 
 17905              	.LASF761:
 17906 1792 444F4550 		.ascii	"DOEPCTL\000"
 17906      43544C00 
 17907              	.LASF13:
 17908 179a 73686F72 		.ascii	"short unsigned int\000"
 17908      7420756E 
 17908      7369676E 
 17908      65642069 
 17908      6E7400
 17909              	.LASF602:
 17910 17ad 6F705F6D 		.ascii	"op_mode\000"
 17910      6F646500 
 17911              	.LASF6:
 17912 17b5 7369676E 		.ascii	"signed char\000"
 17912      65642063 
 17912      68617200 
 17913              	.LASF639:
 17914 17c1 70776D63 		.ascii	"pwmchnmsk_t\000"
 17914      686E6D73 
 17914      6B5F7400 
 17915              	.LASF191:
 17916 17cd 705F7072 		.ascii	"p_preempt\000"
 17916      65656D70 
 17916      7400
 17917              	.LASF616:
 17918 17d7 4932535F 		.ascii	"I2S_READY\000"
 17918      52454144 
 17918      5900
 17919              	.LASF176:
 17920 17e1 75636E74 		.ascii	"ucnt_t\000"
 17920      5F7400
 17921              	.LASF257:
 17922 17e8 54444852 		.ascii	"TDHR\000"
 17922      00
ARM GAS  /var/folders/qd/4mxf5pkd0zdf0b9dd1hp39180000gn/T//cc0H01tt.s 			page 335


 17923              	.LASF463:
 17924 17ed 4144435F 		.ascii	"ADC_STOP\000"
 17924      53544F50 
 17924      00
 17925              	.LASF725:
 17926 17f6 5553425F 		.ascii	"USB_EP0_RX\000"
 17926      4550305F 
 17926      525800
 17927              	.LASF130:
 17928 1801 5F5F6664 		.ascii	"__fdlibm_ieee\000"
 17928      6C69626D 
 17928      5F696565 
 17928      6500
 17929              	.LASF936:
 17930 180f 61737365 		.ascii	"assert\000"
 17930      727400
 17931              	.LASF637:
 17932 1816 70776D6D 		.ascii	"pwmmode_t\000"
 17932      6F64655F 
 17932      7400
 17933              	.LASF923:
 17934 1820 6D6F645F 		.ascii	"mod_sensors_initObjectDetection\000"
 17934      73656E73 
 17934      6F72735F 
 17934      696E6974 
 17934      4F626A65 
 17935              	.LASF706:
 17936 1840 73746174 		.ascii	"status\000"
 17936      757300
 17937              	.LASF310:
 17938 1847 444C454E 		.ascii	"DLEN\000"
 17938      00
 17939              	.LASF664:
 17940 184c 5344435F 		.ascii	"SDC_MODE_4BIT\000"
 17940      4D4F4445 
 17940      5F344249 
 17940      5400
 17941              	.LASF738:
 17942 185a 55534244 		.ascii	"USBDescriptor\000"
 17942      65736372 
 17942      6970746F 
 17942      7200
 17943              	.LASF851:
 17944 1868 55534244 		.ascii	"USBD1\000"
 17944      3100
 17945              	.LASF691:
 17946 186e 73706963 		.ascii	"spicallback_t\000"
 17946      616C6C62 
 17946      61636B5F 
 17946      7400
 17947              	.LASF88:
 17948 187c 5F667265 		.ascii	"_freelist\000"
 17948      656C6973 
 17948      7400
 17949              	.LASF707:
 17950 1886 61646472 		.ascii	"address\000"
 17950      65737300 
ARM GAS  /var/folders/qd/4mxf5pkd0zdf0b9dd1hp39180000gn/T//cc0H01tt.s 			page 336


 17951              	.LASF194:
 17952 188e 705F6D73 		.ascii	"p_msgqueue\000"
 17952      67717565 
 17952      756500
 17953              	.LASF380:
 17954 1899 63665F6F 		.ascii	"cf_off_refs\000"
 17954      66665F72 
 17954      65667300 
 17955              	.LASF866:
 17956 18a5 6D6F645F 		.ascii	"mod_explo_discoverTheAreaOnThread\000"
 17956      6578706C 
 17956      6F5F6469 
 17956      73636F76 
 17956      65725468 
 17957              	.LASF378:
 17958 18c7 63665F6F 		.ascii	"cf_off_state\000"
 17958      66665F73 
 17958      74617465 
 17958      00
 17959              	.LASF362:
 17960 18d4 6D5F6F77 		.ascii	"m_owner\000"
 17960      6E657200 
 17961              	.LASF904:
 17962 18dc 63684253 		.ascii	"chBSemSignal\000"
 17962      656D5369 
 17962      676E616C 
 17962      00
 17963              	.LASF69:
 17964 18e9 5F6F6666 		.ascii	"_offset\000"
 17964      73657400 
 17965              	.LASF239:
 17966 18f1 53797374 		.ascii	"SystemCoreClock\000"
 17966      656D436F 
 17966      7265436C 
 17966      6F636B00 
 17967              	.LASF485:
 17968 1901 61646365 		.ascii	"adcerrorcallback_t\000"
 17968      72726F72 
 17968      63616C6C 
 17968      6261636B 
 17968      5F7400
 17969              	.LASF921:
 17970 1914 6D6F645F 		.ascii	"mod_motors_init\000"
 17970      6D6F746F 
 17970      72735F69 
 17970      6E697400 
 17971              	.LASF520:
 17972 1924 4441435F 		.ascii	"DAC_ACTIVE\000"
 17972      41435449 
 17972      564500
 17973              	.LASF152:
 17974 192f 6E756D62 		.ascii	"numberOfknownObjects\000"
 17974      65724F66 
 17974      6B6E6F77 
 17974      6E4F626A 
 17974      65637473 
 17975              	.LASF475:
ARM GAS  /var/folders/qd/4mxf5pkd0zdf0b9dd1hp39180000gn/T//cc0H01tt.s 			page 337


 17976 1944 73746174 		.ascii	"state\000"
 17976      6500
 17977              	.LASF368:
 17978 194a 63685F76 		.ascii	"ch_version\000"
 17978      65727369 
 17978      6F6E00
 17979              	.LASF54:
 17980 1955 5F5F7362 		.ascii	"__sbuf\000"
 17980      756600
 17981              	.LASF672:
 17982 195c 7364696F 		.ascii	"sdio\000"
 17982      00
 17983              	.LASF280:
 17984 1961 53575452 		.ascii	"SWTRIGR\000"
 17984      49475200 
 17985              	.LASF724:
 17986 1969 5553425F 		.ascii	"USB_EP0_WAITING_STS\000"
 17986      4550305F 
 17986      57414954 
 17986      494E475F 
 17986      53545300 
 17987              	.LASF114:
 17988 197d 5F6C3634 		.ascii	"_l64a_buf\000"
 17988      615F6275 
 17988      6600
 17989              	.LASF261:
 17990 1987 52444852 		.ascii	"RDHR\000"
 17990      00
 17991              	.LASF950:
 17992 198c 6D6F645F 		.ascii	"mod_mapping_updatePositionWheelSpeedType\000"
 17992      6D617070 
 17992      696E675F 
 17992      75706461 
 17992      7465506F 
 17993              	.LASF574:
 17994 19b5 444D4152 		.ascii	"DMAR\000"
 17994      00
 17995              	.LASF932:
 17996 19ba 6D6F645F 		.ascii	"mod_com_writeMessage\000"
 17996      636F6D5F 
 17996      77726974 
 17996      654D6573 
 17996      73616765 
 17997              	.LASF580:
 17998 19cf 63616C6C 		.ascii	"callback\000"
 17998      6261636B 
 17998      00
 17999              	.LASF232:
 18000 19d8 63685F73 		.ascii	"ch_system\000"
 18000      79737465 
 18000      6D00
 18001              	.LASF302:
 18002 19e2 504F5745 		.ascii	"POWER\000"
 18002      5200
 18003              	.LASF230:
 18004 19e8 74726163 		.ascii	"trace_buffer\000"
 18004      655F6275 
ARM GAS  /var/folders/qd/4mxf5pkd0zdf0b9dd1hp39180000gn/T//cc0H01tt.s 			page 338


 18004      66666572 
 18004      00
 18005              	.LASF478:
 18006 19f5 64657074 		.ascii	"depth\000"
 18006      6800
 18007              	.LASF106:
 18008 19fb 5F617363 		.ascii	"_asctime_buf\000"
 18008      74696D65 
 18008      5F627566 
 18008      00
 18009              	.LASF539:
 18010 1a08 4441435F 		.ascii	"DAC_DHRM_8BIT_RIGHT\000"
 18010      4448524D 
 18010      5F384249 
 18010      545F5249 
 18010      47485400 
 18011              	.LASF559:
 18012 1a1c 4750545F 		.ascii	"GPT_UNINIT\000"
 18012      554E494E 
 18012      495400
 18013              	.LASF23:
 18014 1a27 5F5F7763 		.ascii	"__wch\000"
 18014      6800
 18015              	.LASF357:
 18016 1a2d 63685F73 		.ascii	"ch_semaphore\000"
 18016      656D6170 
 18016      686F7265 
 18016      00
 18017              	.LASF855:
 18018 1a3a 77697045 		.ascii	"wipEndMovingSignal_sem\000"
 18018      6E644D6F 
 18018      76696E67 
 18018      5369676E 
 18018      616C5F73 
 18019              	.LASF121:
 18020 1a51 5F776373 		.ascii	"_wcsrtombs_state\000"
 18020      72746F6D 
 18020      62735F73 
 18020      74617465 
 18020      00
 18021              	.LASF757:
 18022 1a62 44494550 		.ascii	"DIEPTSIZ\000"
 18022      5453495A 
 18022      00
 18023              	.LASF913:
 18024 1a6b 706F7274 		.ascii	"port_unlock\000"
 18024      5F756E6C 
 18024      6F636B00 
 18025              	.LASF490:
 18026 1a77 736D7072 		.ascii	"smpr1\000"
 18026      3100
 18027              	.LASF491:
 18028 1a7d 736D7072 		.ascii	"smpr2\000"
 18028      3200
 18029              	.LASF204:
 18030 1a83 74687265 		.ascii	"threads_queue_t\000"
 18030      6164735F 
ARM GAS  /var/folders/qd/4mxf5pkd0zdf0b9dd1hp39180000gn/T//cc0H01tt.s 			page 339


 18030      71756575 
 18030      655F7400 
 18031              	.LASF429:
 18032 1a93 626C6B73 		.ascii	"blkstate_t\000"
 18032      74617465 
 18032      5F7400
 18033              	.LASF956:
 18034 1a9e 5F5F6664 		.ascii	"__fdlibm_version\000"
 18034      6C69626D 
 18034      5F766572 
 18034      73696F6E 
 18034      00
 18035              	.LASF912:
 18036 1aaf 63685379 		.ascii	"chSysLock\000"
 18036      734C6F63 
 18036      6B00
 18037              	.LASF192:
 18038 1ab9 705F7469 		.ascii	"p_time\000"
 18038      6D6500
 18039              	.LASF190:
 18040 1ac0 705F7265 		.ascii	"p_refs\000"
 18040      667300
 18041              	.LASF835:
 18042 1ac7 65705F6D 		.ascii	"ep_mode\000"
 18042      6F646500 
 18043              	.LASF638:
 18044 1acf 70776D63 		.ascii	"pwmchannel_t\000"
 18044      68616E6E 
 18044      656C5F74 
 18044      00
 18045              	.LASF256:
 18046 1adc 54444C52 		.ascii	"TDLR\000"
 18046      00
 18047              	.LASF15:
 18048 1ae1 6C6F6E67 		.ascii	"long int\000"
 18048      20696E74 
 18048      00
 18049              	.LASF872:
 18050 1aea 7363616E 		.ascii	"scanInFront\000"
 18050      496E4672 
 18050      6F6E7400 
 18051              	.LASF235:
 18052 1af6 6D61696E 		.ascii	"mainthread\000"
 18052      74687265 
 18052      616400
 18053              	.LASF703:
 18054 1b01 6570306E 		.ascii	"ep0n\000"
 18054      00
 18055              	.LASF816:
 18056 1b06 72657376 		.ascii	"resvdE04\000"
 18056      64453034 
 18056      00
 18057              	.LASF867:
 18058 1b0f 6D6F645F 		.ascii	"mod_explo_calibration\000"
 18058      6578706C 
 18058      6F5F6361 
 18058      6C696272 
ARM GAS  /var/folders/qd/4mxf5pkd0zdf0b9dd1hp39180000gn/T//cc0H01tt.s 			page 340


 18058      6174696F 
 18059              	.LASF592:
 18060 1b25 69326361 		.ascii	"i2caddr_t\000"
 18060      6464725F 
 18060      7400
 18061              	.LASF113:
 18062 1b2f 5F776374 		.ascii	"_wctomb_state\000"
 18062      6F6D625F 
 18062      73746174 
 18062      6500
 18063              	.LASF527:
 18064 1b3d 646D6169 		.ascii	"dmairqprio\000"
 18064      72717072 
 18064      696F00
 18065              	.LASF565:
 18066 1b48 47505444 		.ascii	"GPTDriver\000"
 18066      72697665 
 18066      7200
 18067              	.LASF402:
 18068 1b52 715F636F 		.ascii	"q_counter\000"
 18068      756E7465 
 18068      7200
 18069              	.LASF457:
 18070 1b5c 50484461 		.ascii	"PHData\000"
 18070      746100
 18071              	.LASF460:
 18072 1b63 696F706F 		.ascii	"ioportid_t\000"
 18072      72746964 
 18072      5F7400
 18073              	.LASF498:
 18074 1b6e 41444344 		.ascii	"ADCD1\000"
 18074      3100
 18075              	.LASF499:
 18076 1b74 41444344 		.ascii	"ADCD2\000"
 18076      3200
 18077              	.LASF500:
 18078 1b7a 41444344 		.ascii	"ADCD3\000"
 18078      3300
 18079              	.LASF784:
 18080 1b80 48434647 		.ascii	"HCFG\000"
 18080      00
 18081              	.LASF483:
 18082 1b85 646D616D 		.ascii	"dmamode\000"
 18082      6F646500 
 18083              	.LASF343:
 18084 1b8d 63756D75 		.ascii	"cumulative\000"
 18084      6C617469 
 18084      766500
 18085              	.LASF99:
 18086 1b98 5F696F62 		.ascii	"_iobs\000"
 18086      7300
 18087              	.LASF80:
 18088 1b9e 5F656D65 		.ascii	"_emergency\000"
 18088      7267656E 
 18088      637900
 18089              	.LASF660:
 18090 1ba9 67657474 		.ascii	"gett\000"
ARM GAS  /var/folders/qd/4mxf5pkd0zdf0b9dd1hp39180000gn/T//cc0H01tt.s 			page 341


 18090      00
 18091              	.LASF353:
 18092 1bae 77747472 		.ascii	"wttrp\000"
 18092      7000
 18093              	.LASF406:
 18094 1bb4 715F7264 		.ascii	"q_rdptr\000"
 18094      70747200 
 18095              	.LASF123:
 18096 1bbc 5F6E6578 		.ascii	"_nextf\000"
 18096      746600
 18097              	.LASF657:
 18098 1bc3 77726974 		.ascii	"write\000"
 18098      6500
 18099              	.LASF109:
 18100 1bc9 5F72616E 		.ascii	"_rand_next\000"
 18100      645F6E65 
 18100      787400
 18101              	.LASF653:
 18102 1bd4 69717565 		.ascii	"iqueue\000"
 18102      756500
 18103              	.LASF837:
 18104 1bdb 696E5F63 		.ascii	"in_cb\000"
 18104      6200
 18105              	.LASF762:
 18106 1be1 444F4550 		.ascii	"DOEPINT\000"
 18106      494E5400 
 18107              	.LASF342:
 18108 1be9 6C617374 		.ascii	"last\000"
 18108      00
 18109              	.LASF439:
 18110 1bee 4C434B52 		.ascii	"LCKR\000"
 18110      00
 18111              	.LASF650:
 18112 1bf3 73647374 		.ascii	"sdstate_t\000"
 18112      6174655F 
 18112      7400
 18113              	.LASF163:
 18114 1bfd 75696E74 		.ascii	"uint32_t\000"
 18114      33325F74 
 18114      00
 18115              	.LASF863:
 18116 1c06 6D6F645F 		.ascii	"mod_explo_waitUntilEndOfWork\000"
 18116      6578706C 
 18116      6F5F7761 
 18116      6974556E 
 18116      74696C45 
 18117              	.LASF898:
 18118 1c23 77616974 		.ascii	"waitForMovementEnd\000"
 18118      466F724D 
 18118      6F76656D 
 18118      656E7445 
 18118      6E6400
 18119              	.LASF524:
 18120 1c36 64617461 		.ascii	"dataoffset\000"
 18120      6F666673 
 18120      657400
 18121              	.LASF32:
ARM GAS  /var/folders/qd/4mxf5pkd0zdf0b9dd1hp39180000gn/T//cc0H01tt.s 			page 342


 18122 1c41 5F6D6178 		.ascii	"_maxwds\000"
 18122      77647300 
 18123              	.LASF427:
 18124 1c49 424C4B5F 		.ascii	"BLK_WRITING\000"
 18124      57524954 
 18124      494E4700 
 18125              	.LASF260:
 18126 1c55 52444C52 		.ascii	"RDLR\000"
 18126      00
 18127              	.LASF147:
 18128 1c5a 7472616E 		.ascii	"translation\000"
 18128      736C6174 
 18128      696F6E00 
 18129              	.LASF914:
 18130 1c66 706F7274 		.ascii	"port_lock\000"
 18130      5F6C6F63 
 18130      6B00
 18131              	.LASF5:
 18132 1c70 6C6F6E67 		.ascii	"long double\000"
 18132      20646F75 
 18132      626C6500 
 18133              	.LASF325:
 18134 1c7c 72656761 		.ascii	"regarm_t\000"
 18134      726D5F74 
 18134      00
 18135              	.LASF173:
 18136 1c85 6576656E 		.ascii	"eventmask_t\000"
 18136      746D6173 
 18136      6B5F7400 
 18137              	.LASF157:
 18138 1c91 7375626F 		.ascii	"suboptarg\000"
 18138      70746172 
 18138      6700
 18139              	.LASF144:
 18140 1c9b 706F7369 		.ascii	"position\000"
 18140      74696F6E 
 18140      00
 18141              	.LASF274:
 18142 1ca4 46464131 		.ascii	"FFA1R\000"
 18142      5200
 18143              	.LASF265:
 18144 1caa 52463152 		.ascii	"RF1R\000"
 18144      00
 18145              	.LASF718:
 18146 1caf 5553425F 		.ascii	"USB_SELECTED\000"
 18146      53454C45 
 18146      43544544 
 18146      00
 18147              	.LASF504:
 18148 1cbc 43414E5F 		.ascii	"CAN_READY\000"
 18148      52454144 
 18148      5900
 18149              	.LASF931:
 18150 1cc6 63685363 		.ascii	"chSchRescheduleS\000"
 18150      68526573 
 18150      63686564 
 18150      756C6553 
ARM GAS  /var/folders/qd/4mxf5pkd0zdf0b9dd1hp39180000gn/T//cc0H01tt.s 			page 343


 18150      00
 18151              	.LASF17:
 18152 1cd7 6C6F6E67 		.ascii	"long unsigned int\000"
 18152      20756E73 
 18152      69676E65 
 18152      6420696E 
 18152      7400
 18153              	.LASF617:
 18154 1ce9 4932535F 		.ascii	"I2S_ACTIVE\000"
 18154      41435449 
 18154      564500
 18155              	.LASF561:
 18156 1cf4 4750545F 		.ascii	"GPT_READY\000"
 18156      52454144 
 18156      5900
 18157              	.LASF523:
 18158 1cfe 64616373 		.ascii	"dacstate_t\000"
 18158      74617465 
 18158      5F7400
 18159              	.LASF330:
 18160 1d09 73655F74 		.ascii	"se_tp\000"
 18160      7000
 18161              	.LASF405:
 18162 1d0f 715F7772 		.ascii	"q_wrptr\000"
 18162      70747200 
 18163              	.LASF531:
 18164 1d17 64616373 		.ascii	"dacsample_t\000"
 18164      616D706C 
 18164      655F7400 
 18165              	.LASF730:
 18166 1d23 5553425F 		.ascii	"USB_EVENT_ADDRESS\000"
 18166      4556454E 
 18166      545F4144 
 18166      44524553 
 18166      5300
 18167              	.LASF625:
 18168 1d35 69327363 		.ascii	"i2scfgr\000"
 18168      66677200 
 18169              	.LASF304:
 18170 1d3d 52455350 		.ascii	"RESPCMD\000"
 18170      434D4400 
 18171              	.LASF510:
 18172 1d45 72786675 		.ascii	"rxfull_event\000"
 18172      6C6C5F65 
 18172      76656E74 
 18172      00
 18173              	.LASF511:
 18174 1d52 7478656D 		.ascii	"txempty_event\000"
 18174      7074795F 
 18174      6576656E 
 18174      7400
 18175              	.LASF941:
 18176 1d60 63684D73 		.ascii	"chMsgSend\000"
 18176      6753656E 
 18176      6400
 18177              	.LASF735:
 18178 1d6a 75736265 		.ascii	"usbevent_t\000"
ARM GAS  /var/folders/qd/4mxf5pkd0zdf0b9dd1hp39180000gn/T//cc0H01tt.s 			page 344


 18178      76656E74 
 18178      5F7400
 18179              	.LASF65:
 18180 1d75 5F636C6F 		.ascii	"_close\000"
 18180      736500
 18181              	.LASF29:
 18182 1d7c 63686172 		.ascii	"char\000"
 18182      00
 18183              	.LASF507:
 18184 1d81 43414E43 		.ascii	"CANConfig\000"
 18184      6F6E6669 
 18184      6700
 18185              	.LASF454:
 18186 1d8b 50454461 		.ascii	"PEData\000"
 18186      746100
 18187              	.LASF208:
 18188 1d92 725F7175 		.ascii	"r_queue\000"
 18188      65756500 
 18189              	.LASF97:
 18190 1d9a 5F676C75 		.ascii	"_glue\000"
 18190      6500
 18191              	.LASF884:
 18192 1da0 73746F72 		.ascii	"storeFrontDistanceSensorValue\000"
 18192      6546726F 
 18192      6E744469 
 18192      7374616E 
 18192      63655365 
 18193              	.LASF675:
 18194 1dbe 53444343 		.ascii	"SDCConfig\000"
 18194      6F6E6669 
 18194      6700
 18195              	.LASF635:
 18196 1dc8 656E6162 		.ascii	"enabled\000"
 18196      6C656400 
 18197              	.LASF532:
 18198 1dd0 4441435F 		.ascii	"DAC_ERR_DMAFAILURE\000"
 18198      4552525F 
 18198      444D4146 
 18198      41494C55 
 18198      524500
 18199              	.LASF774:
 18200 1de3 47525846 		.ascii	"GRXFSIZ\000"
 18200      53495A00 
 18201              	.LASF681:
 18202 1deb 73796E63 		.ascii	"sync\000"
 18202      00
 18203              	.LASF655:
 18204 1df0 75736172 		.ascii	"usart\000"
 18204      7400
 18205              	.LASF929:
 18206 1df6 5F737461 		.ascii	"_stats_stop_measure_crit_thd\000"
 18206      74735F73 
 18206      746F705F 
 18206      6D656173 
 18206      7572655F 
 18207              	.LASF667:
 18208 1e13 7364636D 		.ascii	"sdcmode_t\000"
ARM GAS  /var/folders/qd/4mxf5pkd0zdf0b9dd1hp39180000gn/T//cc0H01tt.s 			page 345


 18208      6F64655F 
 18208      7400
 18209              	.LASF408:
 18210 1e1d 715F6C69 		.ascii	"q_link\000"
 18210      6E6B00
 18211              	.LASF150:
 18212 1e24 6E656172 		.ascii	"nearWall\000"
 18212      57616C6C 
 18212      00
 18213              	.LASF412:
 18214 1e2d 6D6F645F 		.ascii	"mod_sensors_need_objectDetection\000"
 18214      73656E73 
 18214      6F72735F 
 18214      6E656564 
 18214      5F6F626A 
 18215              	.LASF795:
 18216 1e4e 44434647 		.ascii	"DCFG\000"
 18216      00
 18217              	.LASF35:
 18218 1e53 5F426967 		.ascii	"_Bigint\000"
 18218      696E7400 
 18219              	.LASF805:
 18220 1e5b 44564255 		.ascii	"DVBUSDIS\000"
 18220      53444953 
 18220      00
 18221              	.LASF771:
 18222 1e64 47494E54 		.ascii	"GINTMSK\000"
 18222      4D534B00 
 18223              	.LASF776:
 18224 1e6c 484E5054 		.ascii	"HNPTXSTS\000"
 18224      58535453 
 18224      00
 18225              	.LASF708:
 18226 1e75 636F6E66 		.ascii	"configuration\000"
 18226      69677572 
 18226      6174696F 
 18226      6E00
 18227              	.LASF92:
 18228 1e83 5F617465 		.ascii	"_atexit0\000"
 18228      78697430 
 18228      00
 18229              	.LASF449:
 18230 1e8c 73746D33 		.ascii	"stm32_gpio_setup_t\000"
 18230      325F6770 
 18230      696F5F73 
 18230      65747570 
 18230      5F7400
 18231              	.LASF906:
 18232 1e9f 63684D73 		.ascii	"chMsgGet\000"
 18232      67476574 
 18232      00
 18233              	.LASF895:
 18234 1ea8 6368616E 		.ascii	"changeMotorsState\000"
 18234      67654D6F 
 18234      746F7273 
 18234      53746174 
 18234      6500
ARM GAS  /var/folders/qd/4mxf5pkd0zdf0b9dd1hp39180000gn/T//cc0H01tt.s 			page 346


 18235              	.LASF926:
 18236 1eba 63684462 		.ascii	"chDbgCheckClassI\000"
 18236      67436865 
 18236      636B436C 
 18236      61737349 
 18236      00
 18237              	.LASF419:
 18238 1ecb 5F73746D 		.ascii	"_stm32_dma_streams\000"
 18238      33325F64 
 18238      6D615F73 
 18238      74726561 
 18238      6D7300
 18239              	.LASF282:
 18240 1ede 44485231 		.ascii	"DHR12L1\000"
 18240      324C3100 
 18241              	.LASF285:
 18242 1ee6 44485231 		.ascii	"DHR12L2\000"
 18242      324C3200 
 18243              	.LASF116:
 18244 1eee 5F676574 		.ascii	"_getdate_err\000"
 18244      64617465 
 18244      5F657272 
 18244      00
 18245              	.LASF666:
 18246 1efb 73646362 		.ascii	"sdcbusmode_t\000"
 18246      75736D6F 
 18246      64655F74 
 18246      00
 18247              	.LASF288:
 18248 1f08 44485231 		.ascii	"DHR12LD\000"
 18248      324C4400 
 18249              	.LASF236:
 18250 1f10 6B65726E 		.ascii	"kernel_stats\000"
 18250      656C5F73 
 18250      74617473 
 18250      00
 18251              	.LASF484:
 18252 1f1d 61646363 		.ascii	"adccallback_t\000"
 18252      616C6C62 
 18252      61636B5F 
 18252      7400
 18253              	.LASF187:
 18254 1f2b 705F7374 		.ascii	"p_stklimit\000"
 18254      6B6C696D 
 18254      697400
 18255              	.LASF175:
 18256 1f36 636E745F 		.ascii	"cnt_t\000"
 18256      7400
 18257              	.LASF550:
 18258 1f3c 65787473 		.ascii	"extstate_t\000"
 18258      74617465 
 18258      5F7400
 18259              	.LASF723:
 18260 1f47 5553425F 		.ascii	"USB_EP0_WAITING_TX0\000"
 18260      4550305F 
 18260      57414954 
 18260      494E475F 
ARM GAS  /var/folders/qd/4mxf5pkd0zdf0b9dd1hp39180000gn/T//cc0H01tt.s 			page 347


 18260      54583000 
 18261              	.LASF702:
 18262 1f5b 6570306E 		.ascii	"ep0next\000"
 18262      65787400 
 18263              	.LASF752:
 18264 1f63 73746D33 		.ascii	"stm32_otg_host_chn_t\000"
 18264      325F6F74 
 18264      675F686F 
 18264      73745F63 
 18264      686E5F74 
 18265              	.LASF441:
 18266 1f78 41465248 		.ascii	"AFRH\000"
 18266      00
 18267              	.LASF440:
 18268 1f7d 4146524C 		.ascii	"AFRL\000"
 18268      00
 18269              	.LASF128:
 18270 1f82 5F696D70 		.ascii	"_impure_ptr\000"
 18270      7572655F 
 18270      70747200 
 18271              	.LASF381:
 18272 1f8e 63665F6F 		.ascii	"cf_off_preempt\000"
 18272      66665F70 
 18272      7265656D 
 18272      707400
 18273              	.LASF521:
 18274 1f9d 4441435F 		.ascii	"DAC_COMPLETE\000"
 18274      434F4D50 
 18274      4C455445 
 18274      00
 18275              	.LASF68:
 18276 1faa 5F626C6B 		.ascii	"_blksize\000"
 18276      73697A65 
 18276      00
 18277              	.LASF747:
 18278 1fb3 4843494E 		.ascii	"HCINTMSK\000"
 18278      544D534B 
 18278      00
 18279              	.LASF66:
 18280 1fbc 5F756275 		.ascii	"_ubuf\000"
 18280      6600
 18281              	.LASF476:
 18282 1fc2 636F6E66 		.ascii	"config\000"
 18282      696700
 18283              	.LASF952:
 18284 1fc9 63684D73 		.ascii	"chMsgWait\000"
 18284      67576169 
 18284      7400
 18285              	.LASF584:
 18286 1fd3 47505444 		.ascii	"GPTD11\000"
 18286      313100
 18287              	.LASF111:
 18288 1fda 5F6D626C 		.ascii	"_mblen_state\000"
 18288      656E5F73 
 18288      74617465 
 18288      00
 18289              	.LASF94:
ARM GAS  /var/folders/qd/4mxf5pkd0zdf0b9dd1hp39180000gn/T//cc0H01tt.s 			page 348


 18290 1fe7 5F5F7367 		.ascii	"__sglue\000"
 18290      6C756500 
 18291              	.LASF127:
 18292 1fef 5F5F6C6F 		.ascii	"__locale_t\000"
 18292      63616C65 
 18292      5F7400
 18293              	.LASF423:
 18294 1ffa 424C4B5F 		.ascii	"BLK_CONNECTING\000"
 18294      434F4E4E 
 18294      45435449 
 18294      4E4700
 18295              	.LASF84:
 18296 2009 5F5F636C 		.ascii	"__cleanup\000"
 18296      65616E75 
 18296      7000
 18297              	.LASF517:
 18298 2013 4441435F 		.ascii	"DAC_UNINIT\000"
 18298      554E494E 
 18298      495400
 18299              	.LASF470:
 18300 201e 6164635F 		.ascii	"adc_channels_num_t\000"
 18300      6368616E 
 18300      6E656C73 
 18300      5F6E756D 
 18300      5F7400
 18301              	.LASF214:
 18302 2031 76746675 		.ascii	"vtfunc_t\000"
 18302      6E635F74 
 18302      00
 18303              	.LASF262:
 18304 203a 43414E5F 		.ascii	"CAN_FIFOMailBox_TypeDef\000"
 18304      4649464F 
 18304      4D61696C 
 18304      426F785F 
 18304      54797065 
 18305              	.LASF292:
 18306 2052 4441435F 		.ascii	"DAC_TypeDef\000"
 18306      54797065 
 18306      44656600 
 18307              	.LASF352:
 18308 205e 77746F62 		.ascii	"wtobjp\000"
 18308      6A7000
 18309              	.LASF21:
 18310 2065 5F66706F 		.ascii	"_fpos_t\000"
 18310      735F7400 
 18311              	.LASF537:
 18312 206d 4441435F 		.ascii	"DAC_DHRM_12BIT_RIGHT\000"
 18312      4448524D 
 18312      5F313242 
 18312      49545F52 
 18312      49474854 
 18313              	.LASF59:
 18314 2082 5F66696C 		.ascii	"_file\000"
 18314      6500
 18315              	.LASF198:
 18316 2088 705F7265 		.ascii	"p_realprio\000"
 18316      616C7072 
ARM GAS  /var/folders/qd/4mxf5pkd0zdf0b9dd1hp39180000gn/T//cc0H01tt.s 			page 349


 18316      696F00
 18317              	.LASF670:
 18318 2093 63617061 		.ascii	"capacity\000"
 18318      63697479 
 18318      00
 18319              	.LASF905:
 18320 209c 63684253 		.ascii	"chBSemSignalI\000"
 18320      656D5369 
 18320      676E616C 
 18320      4900
 18321              	.LASF407:
 18322 20aa 715F6E6F 		.ascii	"q_notify\000"
 18322      74696679 
 18322      00
 18323              	.LASF355:
 18324 20b3 77746D74 		.ascii	"wtmtxp\000"
 18324      787000
 18325              	.LASF57:
 18326 20ba 5F5F7346 		.ascii	"__sFILE\000"
 18326      494C4500 
 18327              	.LASF2:
 18328 20c2 646F7562 		.ascii	"double\000"
 18328      6C6500
 18329              	.LASF53:
 18330 20c9 5F666E73 		.ascii	"_fns\000"
 18330      00
 18331              	.LASF957:
 18332 20ce 63685654 		.ascii	"chVTGetSystemTimeX\000"
 18332      47657453 
 18332      79737465 
 18332      6D54696D 
 18332      655800
 18333              	.LASF834:
 18334 20e1 5553424F 		.ascii	"USBOutEndpointState\000"
 18334      7574456E 
 18334      64706F69 
 18334      6E745374 
 18334      61746500 
 18335              	.LASF791:
 18336 20f5 72657376 		.ascii	"resvd41C\000"
 18336      64343143 
 18336      00
 18337              	.LASF27:
 18338 20fe 5F6D6273 		.ascii	"_mbstate_t\000"
 18338      74617465 
 18338      5F7400
 18339              	.LASF122:
 18340 2109 5F685F65 		.ascii	"_h_errno\000"
 18340      72726E6F 
 18340      00
 18341              	.LASF259:
 18342 2112 52445452 		.ascii	"RDTR\000"
 18342      00
 18343              	.LASF431:
 18344 2117 626C6B5F 		.ascii	"blk_num\000"
 18344      6E756D00 
 18345              	.LASF856:
ARM GAS  /var/folders/qd/4mxf5pkd0zdf0b9dd1hp39180000gn/T//cc0H01tt.s 			page 350


 18346 211f 69734D65 		.ascii	"isMessage\000"
 18346      73736167 
 18346      6500
 18347              	.LASF729:
 18348 2129 5553425F 		.ascii	"USB_EVENT_RESET\000"
 18348      4556454E 
 18348      545F5245 
 18348      53455400 
 18349              	.LASF207:
 18350 2139 63685F72 		.ascii	"ch_ready_list\000"
 18350      65616479 
 18350      5F6C6973 
 18350      7400
 18351              	.LASF437:
 18352 2147 50555044 		.ascii	"PUPDR\000"
 18352      5200
 18353              	.LASF14:
 18354 214d 5F5F696E 		.ascii	"__int32_t\000"
 18354      7433325F 
 18354      7400
 18355              	.LASF16:
 18356 2157 5F5F7569 		.ascii	"__uint32_t\000"
 18356      6E743332 
 18356      5F7400
 18357              	.LASF226:
 18358 2162 63685F73 		.ascii	"ch_system_debug\000"
 18358      79737465 
 18358      6D5F6465 
 18358      62756700 
 18359              	.LASF802:
 18360 2172 4441494E 		.ascii	"DAINTMSK\000"
 18360      544D534B 
 18360      00
 18361              	.LASF917:
 18362 217b 6D6F645F 		.ascii	"mod_com_writeCommand\000"
 18362      636F6D5F 
 18362      77726974 
 18362      65436F6D 
 18362      6D616E64 
 18363              	.LASF557:
 18364 2190 45585443 		.ascii	"EXTConfig\000"
 18364      6F6E6669 
 18364      6700
 18365              	.LASF26:
 18366 219a 5F5F7661 		.ascii	"__value\000"
 18366      6C756500 
 18367              	.LASF721:
 18368 21a2 5553425F 		.ascii	"USB_EP0_WAITING_SETUP\000"
 18368      4550305F 
 18368      57414954 
 18368      494E475F 
 18368      53455455 
 18369              	.LASF50:
 18370 21b8 5F69735F 		.ascii	"_is_cxa\000"
 18370      63786100 
 18371              	.LASF426:
 18372 21c0 424C4B5F 		.ascii	"BLK_READING\000"
ARM GAS  /var/folders/qd/4mxf5pkd0zdf0b9dd1hp39180000gn/T//cc0H01tt.s 			page 351


 18372      52454144 
 18372      494E4700 
 18373              	.LASF447:
 18374 21cc 6166726C 		.ascii	"afrl\000"
 18374      00
 18375              	.LASF824:
 18376 21d1 71756575 		.ascii	"queue\000"
 18376      6500
 18377              	.LASF704:
 18378 21d7 65703065 		.ascii	"ep0endcb\000"
 18378      6E646362 
 18378      00
 18379              	.LASF416:
 18380 21e0 73656C66 		.ascii	"selfindex\000"
 18380      696E6465 
 18380      7800
 18381              	.LASF388:
 18382 21ea 6D757465 		.ascii	"mutex_t\000"
 18382      785F7400 
 18383              	.LASF87:
 18384 21f2 5F703573 		.ascii	"_p5s\000"
 18384      00
 18385              	.LASF196:
 18386 21f7 705F6570 		.ascii	"p_epending\000"
 18386      656E6469 
 18386      6E6700
 18387              	.LASF434:
 18388 2202 4D4F4445 		.ascii	"MODER\000"
 18388      5200
 18389              	.LASF885:
 18390 2208 6D6F7665 		.ascii	"moveRobotSpeedType\000"
 18390      526F626F 
 18390      74537065 
 18390      65645479 
 18390      706500
 18391              	.LASF858:
 18392 221b 6D6F746F 		.ascii	"motorsControlThread\000"
 18392      7273436F 
 18392      6E74726F 
 18392      6C546872 
 18392      65616400 
 18393              	.LASF618:
 18394 222f 4932535F 		.ascii	"I2S_COMPLETE\000"
 18394      434F4D50 
 18394      4C455445 
 18394      00
 18395              	.LASF135:
 18396 223c 6C656674 		.ascii	"left\000"
 18396      00
 18397              	.LASF266:
 18398 2241 52455345 		.ascii	"RESERVED0\000"
 18398      52564544 
 18398      3000
 18399              	.LASF269:
 18400 224b 52455345 		.ascii	"RESERVED1\000"
 18400      52564544 
 18400      3100
ARM GAS  /var/folders/qd/4mxf5pkd0zdf0b9dd1hp39180000gn/T//cc0H01tt.s 			page 352


 18401              	.LASF271:
 18402 2255 52455345 		.ascii	"RESERVED2\000"
 18402      52564544 
 18402      3200
 18403              	.LASF273:
 18404 225f 52455345 		.ascii	"RESERVED3\000"
 18404      52564544 
 18404      3300
 18405              	.LASF275:
 18406 2269 52455345 		.ascii	"RESERVED4\000"
 18406      52564544 
 18406      3400
 18407              	.LASF277:
 18408 2273 52455345 		.ascii	"RESERVED5\000"
 18408      52564544 
 18408      3500
 18409              	.LASF845:
 18410 227d 55534245 		.ascii	"USBEndpointConfig\000"
 18410      6E64706F 
 18410      696E7443 
 18410      6F6E6669 
 18410      6700
 18411              	.LASF281:
 18412 228f 44485231 		.ascii	"DHR12R1\000"
 18412      32523100 
 18413              	.LASF284:
 18414 2297 44485231 		.ascii	"DHR12R2\000"
 18414      32523200 
 18415              	.LASF553:
 18416 229f 65787463 		.ascii	"extcallback_t\000"
 18416      616C6C62 
 18416      61636B5F 
 18416      7400
 18417              	.LASF509:
 18418 22ad 72787175 		.ascii	"rxqueue\000"
 18418      65756500 
 18419              	.LASF329:
 18420 22b5 73655F74 		.ascii	"se_time\000"
 18420      696D6500 
 18421              	.LASF793:
 18422 22bd 72657376 		.ascii	"resvd444\000"
 18422      64343434 
 18422      00
 18423              	.LASF461:
 18424 22c6 70616C5F 		.ascii	"pal_default_config\000"
 18424      64656661 
 18424      756C745F 
 18424      636F6E66 
 18424      696700
 18425              	.LASF479:
 18426 22d9 67727070 		.ascii	"grpp\000"
 18426      00
 18427              	.LASF287:
 18428 22de 44485231 		.ascii	"DHR12RD\000"
 18428      32524400 
 18429              	.LASF392:
 18430 22e6 656C5F6C 		.ascii	"el_listener\000"
ARM GAS  /var/folders/qd/4mxf5pkd0zdf0b9dd1hp39180000gn/T//cc0H01tt.s 			page 353


 18430      69737465 
 18430      6E657200 
 18431              	.LASF823:
 18432 22f2 6C696E65 		.ascii	"linear\000"
 18432      617200
 18433              	.LASF933:
 18434 22f9 63685468 		.ascii	"chThdSleep\000"
 18434      64536C65 
 18434      657000
 18435              	.LASF577:
 18436 2304 73746D33 		.ascii	"stm32_tim_t\000"
 18436      325F7469 
 18436      6D5F7400 
 18437              	.LASF209:
 18438 2310 725F7072 		.ascii	"r_prio\000"
 18438      696F00
 18439              	.LASF710:
 18440 2317 706D6E65 		.ascii	"pmnext\000"
 18440      787400
 18441              	.LASF238:
 18442 231e 49544D5F 		.ascii	"ITM_RxBuffer\000"
 18442      52784275 
 18442      66666572 
 18442      00
 18443              	.LASF432:
 18444 232b 426C6F63 		.ascii	"BlockDeviceInfo\000"
 18444      6B446576 
 18444      69636549 
 18444      6E666F00 
 18445              	.LASF0:
 18446 233b 6C6F6E67 		.ascii	"long long unsigned int\000"
 18446      206C6F6E 
 18446      6720756E 
 18446      7369676E 
 18446      65642069 
 18447              	.LASF316:
 18448 2352 5344494F 		.ascii	"SDIO_TypeDef\000"
 18448      5F547970 
 18448      65446566 
 18448      00
 18449              	.LASF338:
 18450 235f 6F666673 		.ascii	"offset\000"
 18450      657400
 18451              	.LASF862:
 18452 2366 6578706C 		.ascii	"exploration_wa\000"
 18452      6F726174 
 18452      696F6E5F 
 18452      776100
 18453              	.LASF695:
 18454 2375 53504944 		.ascii	"SPID1\000"
 18454      3100
 18455              	.LASF910:
 18456 237b 63685379 		.ascii	"chSysUnlock\000"
 18456      73556E6C 
 18456      6F636B00 
 18457              	.LASF853:
 18458 2387 6578706C 		.ascii	"explorationThread\000"
ARM GAS  /var/folders/qd/4mxf5pkd0zdf0b9dd1hp39180000gn/T//cc0H01tt.s 			page 354


 18458      6F726174 
 18458      696F6E54 
 18458      68726561 
 18458      6400
 18459              	.LASF293:
 18460 2399 4E445452 		.ascii	"NDTR\000"
 18460      00
 18461              	.LASF397:
 18462 239e 65735F6E 		.ascii	"es_next\000"
 18462      65787400 
 18463              	.LASF108:
 18464 23a6 5F67616D 		.ascii	"_gamma_signgam\000"
 18464      6D615F73 
 18464      69676E67 
 18464      616D00
 18465              	.LASF759:
 18466 23b5 72657376 		.ascii	"resvd1C\000"
 18466      64314300 
 18467              	.LASF237:
 18468 23bd 69646C65 		.ascii	"idle_thread_wa\000"
 18468      5F746872 
 18468      6561645F 
 18468      776100
 18469              	.LASF755:
 18470 23cc 44494550 		.ascii	"DIEPINT\000"
 18470      494E5400 
 18471              	.LASF160:
 18472 23d4 696E7431 		.ascii	"int16_t\000"
 18472      365F7400 
 18473              	.LASF322:
 18474 23dc 5350495F 		.ascii	"SPI_TypeDef\000"
 18474      54797065 
 18474      44656600 
 18475              	.LASF220:
 18476 23e8 76745F66 		.ascii	"vt_func\000"
 18476      756E6300 
 18477              	.LASF568:
 18478 23f0 534D4352 		.ascii	"SMCR\000"
 18478      00
 18479              	.LASF800:
 18480 23f5 444F4550 		.ascii	"DOEPMSK\000"
 18480      4D534B00 
 18481              	.LASF216:
 18482 23fd 63685F76 		.ascii	"ch_virtual_timer\000"
 18482      69727475 
 18482      616C5F74 
 18482      696D6572 
 18482      00
 18483              	.LASF189:
 18484 240e 705F666C 		.ascii	"p_flags\000"
 18484      61677300 
 18485              	.LASF356:
 18486 2416 65776D61 		.ascii	"ewmask\000"
 18486      736B00
 18487              	.LASF394:
 18488 241d 656C5F66 		.ascii	"el_flags\000"
 18488      6C616773 
ARM GAS  /var/folders/qd/4mxf5pkd0zdf0b9dd1hp39180000gn/T//cc0H01tt.s 			page 355


 18488      00
 18489              	.LASF396:
 18490 2426 6576656E 		.ascii	"event_source\000"
 18490      745F736F 
 18490      75726365 
 18490      00
 18491              	.LASF197:
 18492 2433 705F6D74 		.ascii	"p_mtxlist\000"
 18492      786C6973 
 18492      7400
 18493              	.LASF151:
 18494 243d 6E756D62 		.ascii	"numberOfnewObjects\000"
 18494      65724F66 
 18494      6E65774F 
 18494      626A6563 
 18494      747300
 18495              	.LASF516:
 18496 2450 43414E44 		.ascii	"CAND1\000"
 18496      3100
 18497              	.LASF272:
 18498 2456 46533152 		.ascii	"FS1R\000"
 18498      00
 18499              	.LASF168:
 18500 245b 74737461 		.ascii	"tstate_t\000"
 18500      74655F74 
 18500      00
 18501              	.LASF129:
 18502 2464 5F676C6F 		.ascii	"_global_impure_ptr\000"
 18502      62616C5F 
 18502      696D7075 
 18502      72655F70 
 18502      747200
 18503              	.LASF801:
 18504 2477 4441494E 		.ascii	"DAINT\000"
 18504      5400
 18505              	.LASF694:
 18506 247d 53504943 		.ascii	"SPIConfig\000"
 18506      6F6E6669 
 18506      6700
 18507              	.LASF81:
 18508 2487 5F756E73 		.ascii	"_unspecified_locale_info\000"
 18508      70656369 
 18508      66696564 
 18508      5F6C6F63 
 18508      616C655F 
 18509              	.LASF446:
 18510 24a0 70757064 		.ascii	"pupdr\000"
 18510      7200
 18511              	.LASF536:
 18512 24a6 64616365 		.ascii	"dacerrorcallback_t\000"
 18512      72726F72 
 18512      63616C6C 
 18512      6261636B 
 18512      5F7400
 18513              	.LASF697:
 18514 24b9 7472616E 		.ascii	"transmitting\000"
 18514      736D6974 
ARM GAS  /var/folders/qd/4mxf5pkd0zdf0b9dd1hp39180000gn/T//cc0H01tt.s 			page 356


 18514      74696E67 
 18514      00
 18515              	.LASF556:
 18516 24c6 6368616E 		.ascii	"channels\000"
 18516      6E656C73 
 18516      00
 18517              	.LASF303:
 18518 24cf 434C4B43 		.ascii	"CLKCR\000"
 18518      5200
 18519              	.LASF669:
 18520 24d5 53444344 		.ascii	"SDCDriver\000"
 18520      72697665 
 18520      7200
 18521              	.LASF186:
 18522 24df 705F6E61 		.ascii	"p_name\000"
 18522      6D6500
 18523              	.LASF83:
 18524 24e6 5F5F7364 		.ascii	"__sdidinit\000"
 18524      6964696E 
 18524      697400
 18525              	.LASF651:
 18526 24f1 53657269 		.ascii	"SerialDriver\000"
 18526      616C4472 
 18526      69766572 
 18526      00
 18527              	.LASF250:
 18528 24fe 4A445231 		.ascii	"JDR1\000"
 18528      00
 18529              	.LASF133:
 18530 2503 5F5F6664 		.ascii	"__fdlibm_posix\000"
 18530      6C69626D 
 18530      5F706F73 
 18530      697800
 18531              	.LASF252:
 18532 2512 4A445233 		.ascii	"JDR3\000"
 18532      00
 18533              	.LASF253:
 18534 2517 4A445234 		.ascii	"JDR4\000"
 18534      00
 18535              	.LASF763:
 18536 251c 444F4550 		.ascii	"DOEPTSIZ\000"
 18536      5453495A 
 18536      00
 18537              	.LASF464:
 18538 2525 4144435F 		.ascii	"ADC_READY\000"
 18538      52454144 
 18538      5900
 18539              	.LASF373:
 18540 252f 63665F6F 		.ascii	"cf_off_ctx\000"
 18540      66665F63 
 18540      747800
 18541              	.LASF387:
 18542 253a 62696E61 		.ascii	"binary_semaphore_t\000"
 18542      72795F73 
 18542      656D6170 
 18542      686F7265 
 18542      5F7400
ARM GAS  /var/folders/qd/4mxf5pkd0zdf0b9dd1hp39180000gn/T//cc0H01tt.s 			page 357


 18543              	.LASF28:
 18544 254d 5F666C6F 		.ascii	"_flock_t\000"
 18544      636B5F74 
 18544      00
 18545              	.LASF222:
 18546 2556 76697274 		.ascii	"virtual_timers_list_t\000"
 18546      75616C5F 
 18546      74696D65 
 18546      72735F6C 
 18546      6973745F 
 18547              	.LASF787:
 18548 256c 72657376 		.ascii	"resvd40C\000"
 18548      64343043 
 18548      00
 18549              	.LASF486:
 18550 2575 63697263 		.ascii	"circular\000"
 18550      756C6172 
 18550      00
 18551              	.LASF619:
 18552 257e 69327373 		.ascii	"i2sstate_t\000"
 18552      74617465 
 18552      5F7400
 18553              	.LASF443:
 18554 2589 6D6F6465 		.ascii	"moder\000"
 18554      7200
 18555              	.LASF873:
 18556 258f 6E756D62 		.ascii	"numberOfMeasurements\000"
 18556      65724F66 
 18556      4D656173 
 18556      7572656D 
 18556      656E7473 
 18557              	.LASF690:
 18558 25a4 53504944 		.ascii	"SPIDriver\000"
 18558      72697665 
 18558      7200
 18559              	.LASF358:
 18560 25ae 735F7175 		.ascii	"s_queue\000"
 18560      65756500 
 18561              	.LASF347:
 18562 25b6 6D5F6372 		.ascii	"m_crit_thd\000"
 18562      69745F74 
 18562      686400
 18563              	.LASF518:
 18564 25c1 4441435F 		.ascii	"DAC_STOP\000"
 18564      53544F50 
 18564      00
 18565              	.LASF794:
 18566 25ca 72657376 		.ascii	"resvd700\000"
 18566      64373030 
 18566      00
 18567              	.LASF320:
 18568 25d3 49325343 		.ascii	"I2SCFGR\000"
 18568      46475200 
 18569              	.LASF879:
 18570 25db 6D6F7665 		.ascii	"moveInDirection\000"
 18570      496E4469 
 18570      72656374 
ARM GAS  /var/folders/qd/4mxf5pkd0zdf0b9dd1hp39180000gn/T//cc0H01tt.s 			page 358


 18570      696F6E00 
 18571              	.LASF365:
 18572 25eb 63685F69 		.ascii	"ch_identifier\000"
 18572      64656E74 
 18572      69666965 
 18572      7200
 18573              	.LASF661:
 18574 25f9 77726974 		.ascii	"writet\000"
 18574      657400
 18575              	.LASF907:
 18576 2600 63684253 		.ascii	"chBSemWait\000"
 18576      656D5761 
 18576      697400
 18577              	.LASF4:
 18578 260b 6C6F6E67 		.ascii	"long long int\000"
 18578      206C6F6E 
 18578      6720696E 
 18578      7400
 18579              	.LASF140:
 18580 2619 726F626F 		.ascii	"robotSpeed_t\000"
 18580      74537065 
 18580      65645F74 
 18580      00
 18581              	.LASF781:
 18582 2626 48505458 		.ascii	"HPTXFSIZ\000"
 18582      4653495A 
 18582      00
 18583              	.LASF372:
 18584 262f 63665F6F 		.ascii	"cf_off_prio\000"
 18584      66665F70 
 18584      72696F00 
 18585              	.LASF73:
 18586 263b 5F666C61 		.ascii	"_flags2\000"
 18586      67733200 
 18587              	.LASF344:
 18588 2643 74696D65 		.ascii	"time_measurement_t\000"
 18588      5F6D6561 
 18588      73757265 
 18588      6D656E74 
 18588      5F7400
 18589              	.LASF908:
 18590 2656 63685654 		.ascii	"chVTGetSystemTime\000"
 18590      47657453 
 18590      79737465 
 18590      6D54696D 
 18590      6500
 18591              	.LASF682:
 18592 2668 6765745F 		.ascii	"get_info\000"
 18592      696E666F 
 18592      00
 18593              	.LASF891:
 18594 2671 6D6F7665 		.ascii	"moveAndComputePositionDistanceType\000"
 18594      416E6443 
 18594      6F6D7075 
 18594      7465506F 
 18594      73697469 
 18595              	.LASF473:
ARM GAS  /var/folders/qd/4mxf5pkd0zdf0b9dd1hp39180000gn/T//cc0H01tt.s 			page 359


 18596 2694 61646365 		.ascii	"adcerror_t\000"
 18596      72726F72 
 18596      5F7400
 18597              	.LASF847:
 18598 269f 6765745F 		.ascii	"get_descriptor_cb\000"
 18598      64657363 
 18598      72697074 
 18598      6F725F63 
 18598      6200
 18599              	.LASF82:
 18600 26b1 5F6C6F63 		.ascii	"_locale\000"
 18600      616C6500 
 18601              	.LASF174:
 18602 26b9 6576656E 		.ascii	"eventflags_t\000"
 18602      74666C61 
 18602      67735F74 
 18602      00
 18603              	.LASF686:
 18604 26c6 5350495F 		.ascii	"SPI_READY\000"
 18604      52454144 
 18604      5900
 18605              	.LASF944:
 18606 26d0 6D6F645F 		.ascii	"mod_sensors_waitForObstacle\000"
 18606      73656E73 
 18606      6F72735F 
 18606      77616974 
 18606      466F724F 
 18607              	.LASF385:
 18608 26ec 73656D61 		.ascii	"semaphore_t\000"
 18608      70686F72 
 18608      655F7400 
 18609              	.LASF268:
 18610 26f8 73464946 		.ascii	"sFIFOMailBox\000"
 18610      4F4D6169 
 18610      6C426F78 
 18610      00
 18611              	.LASF674:
 18612 2705 6275735F 		.ascii	"bus_width\000"
 18612      77696474 
 18612      6800
 18613              	.LASF289:
 18614 270f 44485238 		.ascii	"DHR8RD\000"
 18614      524400
 18615              	.LASF796:
 18616 2716 4443544C 		.ascii	"DCTL\000"
 18616      00
 18617              	.LASF676:
 18618 271b 53444344 		.ascii	"SDCDriverVMT\000"
 18618      72697665 
 18618      72564D54 
 18618      00
 18619              	.LASF909:
 18620 2728 73797374 		.ascii	"systime\000"
 18620      696D6500 
 18621              	.LASF822:
 18622 2730 74786275 		.ascii	"txbuf\000"
 18622      6600
ARM GAS  /var/folders/qd/4mxf5pkd0zdf0b9dd1hp39180000gn/T//cc0H01tt.s 			page 360


 18623              	.LASF815:
 18624 2736 50434743 		.ascii	"PCGCCTL\000"
 18624      43544C00 
 18625              	.LASF733:
 18626 273e 5553425F 		.ascii	"USB_EVENT_WAKEUP\000"
 18626      4556454E 
 18626      545F5741 
 18626      4B455550 
 18626      00
 18627              	.LASF915:
 18628 274f 5F5F7365 		.ascii	"__set_BASEPRI\000"
 18628      745F4241 
 18628      53455052 
 18628      4900
 18629              	.LASF185:
 18630 275d 705F6F6C 		.ascii	"p_older\000"
 18630      64657200 
 18631              	.LASF949:
 18632 2765 6D6F645F 		.ascii	"mod_motors_stop\000"
 18632      6D6F746F 
 18632      72735F73 
 18632      746F7000 
 18633              	.LASF428:
 18634 2775 424C4B5F 		.ascii	"BLK_SYNCING\000"
 18634      53594E43 
 18634      494E4700 
 18635              	.LASF458:
 18636 2781 50494461 		.ascii	"PIData\000"
 18636      746100
 18637              	.LASF844:
 18638 2788 73657475 		.ascii	"setup_buf\000"
 18638      705F6275 
 18638      6600
 18639              	.LASF778:
 18640 2792 72657376 		.ascii	"resvd34\000"
 18640      64333400 
 18641              	.LASF583:
 18642 279a 47505444 		.ascii	"GPTD6\000"
 18642      3600
 18643              	.LASF489:
 18644 27a0 6572726F 		.ascii	"error_cb\000"
 18644      725F6362 
 18644      00
 18645              	.LASF424:
 18646 27a9 424C4B5F 		.ascii	"BLK_DISCONNECTING\000"
 18646      44495343 
 18646      4F4E4E45 
 18646      4354494E 
 18646      4700
 18647              	.LASF692:
 18648 27bb 7373706F 		.ascii	"ssport\000"
 18648      727400
 18649              	.LASF201:
 18650 27c2 74687265 		.ascii	"thread_reference_t\000"
 18650      61645F72 
 18650      65666572 
 18650      656E6365 
ARM GAS  /var/folders/qd/4mxf5pkd0zdf0b9dd1hp39180000gn/T//cc0H01tt.s 			page 361


 18650      5F7400
 18651              	.LASF552:
 18652 27d5 65787063 		.ascii	"expchannel_t\000"
 18652      68616E6E 
 18652      656C5F74 
 18652      00
 18653              	.LASF698:
 18654 27e2 72656365 		.ascii	"receiving\000"
 18654      6976696E 
 18654      6700
 18655              	.LASF96:
 18656 27ec 5F5F4649 		.ascii	"__FILE\000"
 18656      4C4500
 18657              	.LASF948:
 18658 27f3 63685468 		.ascii	"chThdSleepUntilWindowed\000"
 18658      64536C65 
 18658      6570556E 
 18658      74696C57 
 18658      696E646F 
 18659              	.LASF579:
 18660 280b 66726571 		.ascii	"frequency\000"
 18660      75656E63 
 18660      7900
 18661              	.LASF924:
 18662 2815 5F737461 		.ascii	"_stats_start_measure_crit_thd\000"
 18662      74735F73 
 18662      74617274 
 18662      5F6D6561 
 18662      73757265 
 18663              	.LASF33:
 18664 2833 5F736967 		.ascii	"_sign\000"
 18664      6E00
 18665              	.LASF857:
 18666 2839 6C617374 		.ascii	"lastOrder\000"
 18666      4F726465 
 18666      7200
 18667              	.LASF841:
 18668 2843 696E5F73 		.ascii	"in_state\000"
 18668      74617465 
 18668      00
 18669              	.LASF38:
 18670 284c 5F5F746D 		.ascii	"__tm_min\000"
 18670      5F6D696E 
 18670      00
 18671              	.LASF366:
 18672 2855 63685F7A 		.ascii	"ch_zero\000"
 18672      65726F00 
 18673              	.LASF599:
 18674 285d 46415354 		.ascii	"FAST_DUTY_CYCLE_2\000"
 18674      5F445554 
 18674      595F4359 
 18674      434C455F 
 18674      3200
 18675              	.LASF311:
 18676 286f 44435452 		.ascii	"DCTRL\000"
 18676      4C00
 18677              	.LASF371:
ARM GAS  /var/folders/qd/4mxf5pkd0zdf0b9dd1hp39180000gn/T//cc0H01tt.s 			page 362


 18678 2875 63685F74 		.ascii	"ch_threadsize\000"
 18678      68726561 
 18678      6473697A 
 18678      6500
 18679              	.LASF300:
 18680 2883 464C5452 		.ascii	"FLTR\000"
 18680      00
 18681              	.LASF570:
 18682 2888 43434D52 		.ascii	"CCMR1\000"
 18682      3100
 18683              	.LASF571:
 18684 288e 43434D52 		.ascii	"CCMR2\000"
 18684      3200
 18685              	.LASF575:
 18686 2894 43434D52 		.ascii	"CCMR3\000"
 18686      3300
 18687              	.LASF896:
 18688 289a 6F726465 		.ascii	"order\000"
 18688      7200
 18689              	.LASF1:
 18690 28a0 756E7369 		.ascii	"unsigned int\000"
 18690      676E6564 
 18690      20696E74 
 18690      00
 18691              	.LASF493:
 18692 28ad 73717232 		.ascii	"sqr2\000"
 18692      00
 18693              	.LASF494:
 18694 28b2 73717233 		.ascii	"sqr3\000"
 18694      00
 18695              	.LASF110:
 18696 28b7 5F723438 		.ascii	"_r48\000"
 18696      00
 18697              	.LASF785:
 18698 28bc 48464952 		.ascii	"HFIR\000"
 18698      00
 18699              	.LASF715:
 18700 28c1 5553425F 		.ascii	"USB_UNINIT\000"
 18700      554E494E 
 18700      495400
 18701              	.LASF413:
 18702 28cc 73747265 		.ascii	"stream\000"
 18702      616D00
 18703              	.LASF496:
 18704 28d3 64756D6D 		.ascii	"dummy\000"
 18704      7900
 18705              	.LASF597:
 18706 28d9 6932636F 		.ascii	"i2copmode_t\000"
 18706      706D6F64 
 18706      655F7400 
 18707              	.LASF922:
 18708 28e5 6D6F645F 		.ascii	"mod_mapping_init\000"
 18708      6D617070 
 18708      696E675F 
 18708      696E6974 
 18708      00
 18709              	.LASF386:
ARM GAS  /var/folders/qd/4mxf5pkd0zdf0b9dd1hp39180000gn/T//cc0H01tt.s 			page 363


 18710 28f6 62735F73 		.ascii	"bs_sem\000"
 18710      656D00
 18711              	.LASF390:
 18712 28fd 6576656E 		.ascii	"event_listener\000"
 18712      745F6C69 
 18712      7374656E 
 18712      657200
 18713              	.LASF11:
 18714 290c 73686F72 		.ascii	"short int\000"
 18714      7420696E 
 18714      7400
 18715              	.LASF739:
 18716 2916 75736263 		.ascii	"usbcallback_t\000"
 18716      616C6C62 
 18716      61636B5F 
 18716      7400
 18717              	.LASF138:
 18718 2924 6D61696E 		.ascii	"mainSpeed\000"
 18718      53706565 
 18718      6400
 18719              	.LASF62:
 18720 292e 5F726561 		.ascii	"_read\000"
 18720      6400
 18721              	.LASF768:
 18722 2934 47555342 		.ascii	"GUSBCFG\000"
 18722      43464700 
 18723              	.LASF324:
 18724 293c 55534152 		.ascii	"USART_TypeDef\000"
 18724      545F5479 
 18724      70654465 
 18724      6600
 18725              	.LASF411:
 18726 294a 6F757470 		.ascii	"output_queue_t\000"
 18726      75745F71 
 18726      75657565 
 18726      5F7400
 18727              	.LASF100:
 18728 2959 5F72616E 		.ascii	"_rand48\000"
 18728      64343800 
 18729              	.LASF817:
 18730 2961 73746D33 		.ascii	"stm32_otg_t\000"
 18730      325F6F74 
 18730      675F7400 
 18731              	.LASF620:
 18732 296d 49325344 		.ascii	"I2SDriver\000"
 18732      72697665 
 18732      7200
 18733              	.LASF604:
 18734 2977 64757479 		.ascii	"duty_cycle\000"
 18734      5F637963 
 18734      6C6500
 18735              	.LASF627:
 18736 2982 49325343 		.ascii	"I2SConfig\000"
 18736      6F6E6669 
 18736      6700
 18737              	.LASF736:
 18738 298c 75645F73 		.ascii	"ud_size\000"
ARM GAS  /var/folders/qd/4mxf5pkd0zdf0b9dd1hp39180000gn/T//cc0H01tt.s 			page 364


 18738      697A6500 
 18739              	.LASF854:
 18740 2994 77697045 		.ascii	"wipEndSignal_sem\000"
 18740      6E645369 
 18740      676E616C 
 18740      5F73656D 
 18740      00
 18741              	.LASF839:
 18742 29a5 696E5F6D 		.ascii	"in_maxsize\000"
 18742      61787369 
 18742      7A6500
 18743              	.LASF455:
 18744 29b0 50464461 		.ascii	"PFData\000"
 18744      746100
 18745              	.LASF548:
 18746 29b7 4558545F 		.ascii	"EXT_STOP\000"
 18746      53544F50 
 18746      00
 18747              	.LASF188:
 18748 29c0 705F7374 		.ascii	"p_state\000"
 18748      61746500 
 18749              	.LASF628:
 18750 29c8 49325344 		.ascii	"I2SD2\000"
 18750      3200
 18751              	.LASF677:
 18752 29ce 69735F69 		.ascii	"is_inserted\000"
 18752      6E736572 
 18752      74656400 
 18753              	.LASF203:
 18754 29da 63685F74 		.ascii	"ch_threads_list\000"
 18754      68726561 
 18754      64735F6C 
 18754      69737400 
 18755              	.LASF312:
 18756 29ea 44434F55 		.ascii	"DCOUNT\000"
 18756      4E5400
 18757              	.LASF297:
 18758 29f1 4F415231 		.ascii	"OAR1\000"
 18758      00
 18759              	.LASF298:
 18760 29f6 4F415232 		.ascii	"OAR2\000"
 18760      00
 18761              	.LASF200:
 18762 29fb 705F7374 		.ascii	"p_stats\000"
 18762      61747300 
 18763              	.LASF720:
 18764 2a03 75736273 		.ascii	"usbstate_t\000"
 18764      74617465 
 18764      5F7400
 18765              		.ident	"GCC: (GNU Tools for Arm Embedded Processors 7-2017-q4-major) 7.2.1 20170904 (release) [ARM
ARM GAS  /var/folders/qd/4mxf5pkd0zdf0b9dd1hp39180000gn/T//cc0H01tt.s 			page 365


DEFINED SYMBOLS
                            *ABS*:0000000000000000 mod_exploration.c
/var/folders/qd/4mxf5pkd0zdf0b9dd1hp39180000gn/T//cc0H01tt.s:19     .text.changeMotorsStateAsync:0000000000000000 $t
/var/folders/qd/4mxf5pkd0zdf0b9dd1hp39180000gn/T//cc0H01tt.s:26     .text.changeMotorsStateAsync:0000000000000000 changeMotorsStateAsync
/var/folders/qd/4mxf5pkd0zdf0b9dd1hp39180000gn/T//cc0H01tt.s:500    .text.changeMotorsStateAsync:00000000000001a0 $d
/var/folders/qd/4mxf5pkd0zdf0b9dd1hp39180000gn/T//cc0H01tt.s:520    .text.signalEndOfWork:0000000000000000 $t
/var/folders/qd/4mxf5pkd0zdf0b9dd1hp39180000gn/T//cc0H01tt.s:528    .text.signalEndOfWork:0000000000000000 signalEndOfWork
/var/folders/qd/4mxf5pkd0zdf0b9dd1hp39180000gn/T//cc0H01tt.s:672    .text.signalEndOfWork:0000000000000068 $d
/var/folders/qd/4mxf5pkd0zdf0b9dd1hp39180000gn/T//cc0H01tt.s:680    .text.signalEndMovement:0000000000000000 $t
/var/folders/qd/4mxf5pkd0zdf0b9dd1hp39180000gn/T//cc0H01tt.s:688    .text.signalEndMovement:0000000000000000 signalEndMovement
/var/folders/qd/4mxf5pkd0zdf0b9dd1hp39180000gn/T//cc0H01tt.s:832    .text.signalEndMovement:0000000000000068 $d
/var/folders/qd/4mxf5pkd0zdf0b9dd1hp39180000gn/T//cc0H01tt.s:840    .text.waitForMovementEnd:0000000000000000 $t
/var/folders/qd/4mxf5pkd0zdf0b9dd1hp39180000gn/T//cc0H01tt.s:848    .text.waitForMovementEnd:0000000000000000 waitForMovementEnd
/var/folders/qd/4mxf5pkd0zdf0b9dd1hp39180000gn/T//cc0H01tt.s:894    .text.waitForMovementEnd:0000000000000024 $d
/var/folders/qd/4mxf5pkd0zdf0b9dd1hp39180000gn/T//cc0H01tt.s:902    .text.changeMotorsState:0000000000000000 $t
/var/folders/qd/4mxf5pkd0zdf0b9dd1hp39180000gn/T//cc0H01tt.s:910    .text.changeMotorsState:0000000000000000 changeMotorsState
/var/folders/qd/4mxf5pkd0zdf0b9dd1hp39180000gn/T//cc0H01tt.s:956    .text.changeMotorsState:000000000000002c $d
/var/folders/qd/4mxf5pkd0zdf0b9dd1hp39180000gn/T//cc0H01tt.s:962    .text.stopMotors:0000000000000000 $t
/var/folders/qd/4mxf5pkd0zdf0b9dd1hp39180000gn/T//cc0H01tt.s:970    .text.stopMotors:0000000000000000 stopMotors
/var/folders/qd/4mxf5pkd0zdf0b9dd1hp39180000gn/T//cc0H01tt.s:1029   .text.stopMotors:0000000000000030 $d
/var/folders/qd/4mxf5pkd0zdf0b9dd1hp39180000gn/T//cc0H01tt.s:1035   .text.moveAndComputePositionWheelSpeedType:0000000000000000 $t
/var/folders/qd/4mxf5pkd0zdf0b9dd1hp39180000gn/T//cc0H01tt.s:1043   .text.moveAndComputePositionWheelSpeedType:0000000000000000 moveAndComputePositionWheelSpeedType
/var/folders/qd/4mxf5pkd0zdf0b9dd1hp39180000gn/T//cc0H01tt.s:1254   .text.moveAndComputePositionWheelSpeedType:00000000000000bc $d
/var/folders/qd/4mxf5pkd0zdf0b9dd1hp39180000gn/T//cc0H01tt.s:1265   .text.moveAndComputePositionRobotSpeedType:0000000000000000 $t
/var/folders/qd/4mxf5pkd0zdf0b9dd1hp39180000gn/T//cc0H01tt.s:1273   .text.moveAndComputePositionRobotSpeedType:0000000000000000 moveAndComputePositionRobotSpeedType
/var/folders/qd/4mxf5pkd0zdf0b9dd1hp39180000gn/T//cc0H01tt.s:1324   .text.moveAndComputePositionRobotSpeedType:0000000000000034 $d
/var/folders/qd/4mxf5pkd0zdf0b9dd1hp39180000gn/T//cc0H01tt.s:1329   .text.moveWheelSpeedType:0000000000000000 $t
/var/folders/qd/4mxf5pkd0zdf0b9dd1hp39180000gn/T//cc0H01tt.s:1337   .text.moveWheelSpeedType:0000000000000000 moveWheelSpeedType
/var/folders/qd/4mxf5pkd0zdf0b9dd1hp39180000gn/T//cc0H01tt.s:1499   .text.moveWheelSpeedType:0000000000000084 $d
/var/folders/qd/4mxf5pkd0zdf0b9dd1hp39180000gn/T//cc0H01tt.s:1507   .text.moveRobotSpeedType:0000000000000000 $t
/var/folders/qd/4mxf5pkd0zdf0b9dd1hp39180000gn/T//cc0H01tt.s:1515   .text.moveRobotSpeedType:0000000000000000 moveRobotSpeedType
/var/folders/qd/4mxf5pkd0zdf0b9dd1hp39180000gn/T//cc0H01tt.s:1566   .text.moveRobotSpeedType:0000000000000034 $d
/var/folders/qd/4mxf5pkd0zdf0b9dd1hp39180000gn/T//cc0H01tt.s:1571   .text.storeFrontDistanceSensorValue:0000000000000000 $t
/var/folders/qd/4mxf5pkd0zdf0b9dd1hp39180000gn/T//cc0H01tt.s:1579   .text.storeFrontDistanceSensorValue:0000000000000000 storeFrontDistanceSensorValue
/var/folders/qd/4mxf5pkd0zdf0b9dd1hp39180000gn/T//cc0H01tt.s:1636   .text.storeFrontDistanceSensorValue:0000000000000034 $d
/var/folders/qd/4mxf5pkd0zdf0b9dd1hp39180000gn/T//cc0H01tt.s:1641   .text.rotateAndMeasureWallsDistance:0000000000000000 $t
/var/folders/qd/4mxf5pkd0zdf0b9dd1hp39180000gn/T//cc0H01tt.s:1649   .text.rotateAndMeasureWallsDistance:0000000000000000 rotateAndMeasureWallsDistance
/var/folders/qd/4mxf5pkd0zdf0b9dd1hp39180000gn/T//cc0H01tt.s:1738   .text.rotateAndMeasureWallsDistance:0000000000000068 $d
/var/folders/qd/4mxf5pkd0zdf0b9dd1hp39180000gn/T//cc0H01tt.s:1745   .text.discover:0000000000000000 $t
/var/folders/qd/4mxf5pkd0zdf0b9dd1hp39180000gn/T//cc0H01tt.s:1752   .text.discover:0000000000000000 discover
/var/folders/qd/4mxf5pkd0zdf0b9dd1hp39180000gn/T//cc0H01tt.s:1957   .text.discover:00000000000000b8 $d
/var/folders/qd/4mxf5pkd0zdf0b9dd1hp39180000gn/T//cc0H01tt.s:1971   .text.moveInDirection:0000000000000000 $t
/var/folders/qd/4mxf5pkd0zdf0b9dd1hp39180000gn/T//cc0H01tt.s:1979   .text.moveInDirection:0000000000000000 moveInDirection
/var/folders/qd/4mxf5pkd0zdf0b9dd1hp39180000gn/T//cc0H01tt.s:2129   .text.moveInDirection:00000000000000c8 $d
/var/folders/qd/4mxf5pkd0zdf0b9dd1hp39180000gn/T//cc0H01tt.s:2141   .text.changeAngleRelative:0000000000000000 $t
/var/folders/qd/4mxf5pkd0zdf0b9dd1hp39180000gn/T//cc0H01tt.s:2149   .text.changeAngleRelative:0000000000000000 changeAngleRelative
/var/folders/qd/4mxf5pkd0zdf0b9dd1hp39180000gn/T//cc0H01tt.s:2226   .text.changeAngleRelative:0000000000000068 $d
/var/folders/qd/4mxf5pkd0zdf0b9dd1hp39180000gn/T//cc0H01tt.s:2237   .text.moveAndComputePositionDistanceType:0000000000000000 $t
/var/folders/qd/4mxf5pkd0zdf0b9dd1hp39180000gn/T//cc0H01tt.s:2245   .text.moveAndComputePositionDistanceType:0000000000000000 moveAndComputePositionDistanceType
/var/folders/qd/4mxf5pkd0zdf0b9dd1hp39180000gn/T//cc0H01tt.s:2322   .text.moveAndComputePositionDistanceType:0000000000000070 $d
/var/folders/qd/4mxf5pkd0zdf0b9dd1hp39180000gn/T//cc0H01tt.s:2329   .text.goTo:0000000000000000 $t
/var/folders/qd/4mxf5pkd0zdf0b9dd1hp39180000gn/T//cc0H01tt.s:2337   .text.goTo:0000000000000000 goTo
/var/folders/qd/4mxf5pkd0zdf0b9dd1hp39180000gn/T//cc0H01tt.s:2381   .text.goTo:0000000000000028 $d
/var/folders/qd/4mxf5pkd0zdf0b9dd1hp39180000gn/T//cc0H01tt.s:2386   .text.detectEnvironment:0000000000000000 $t
/var/folders/qd/4mxf5pkd0zdf0b9dd1hp39180000gn/T//cc0H01tt.s:2394   .text.detectEnvironment:0000000000000000 detectEnvironment
/var/folders/qd/4mxf5pkd0zdf0b9dd1hp39180000gn/T//cc0H01tt.s:2434   .text.detectEnvironment:0000000000000024 $d
/var/folders/qd/4mxf5pkd0zdf0b9dd1hp39180000gn/T//cc0H01tt.s:2440   .text.scanInFront:0000000000000000 $t
ARM GAS  /var/folders/qd/4mxf5pkd0zdf0b9dd1hp39180000gn/T//cc0H01tt.s 			page 366


/var/folders/qd/4mxf5pkd0zdf0b9dd1hp39180000gn/T//cc0H01tt.s:2448   .text.scanInFront:0000000000000000 scanInFront
/var/folders/qd/4mxf5pkd0zdf0b9dd1hp39180000gn/T//cc0H01tt.s:2576   .text.scanInFront:0000000000000098 $d
/var/folders/qd/4mxf5pkd0zdf0b9dd1hp39180000gn/T//cc0H01tt.s:2587   .text.exploration:0000000000000000 $t
/var/folders/qd/4mxf5pkd0zdf0b9dd1hp39180000gn/T//cc0H01tt.s:2594   .text.exploration:0000000000000000 exploration
/var/folders/qd/4mxf5pkd0zdf0b9dd1hp39180000gn/T//cc0H01tt.s:2773   .text.exploration:0000000000000090 $d
/var/folders/qd/4mxf5pkd0zdf0b9dd1hp39180000gn/T//cc0H01tt.s:2784   .text.mod_explo_initModule:0000000000000000 $t
/var/folders/qd/4mxf5pkd0zdf0b9dd1hp39180000gn/T//cc0H01tt.s:2792   .text.mod_explo_initModule:0000000000000000 mod_explo_initModule
/var/folders/qd/4mxf5pkd0zdf0b9dd1hp39180000gn/T//cc0H01tt.s:2852   .text.mod_explo_initModule:0000000000000040 $d
/var/folders/qd/4mxf5pkd0zdf0b9dd1hp39180000gn/T//cc0H01tt.s:2860   .text.mod_explo_calibration:0000000000000000 $t
/var/folders/qd/4mxf5pkd0zdf0b9dd1hp39180000gn/T//cc0H01tt.s:2868   .text.mod_explo_calibration:0000000000000000 mod_explo_calibration
/var/folders/qd/4mxf5pkd0zdf0b9dd1hp39180000gn/T//cc0H01tt.s:2906   .text.mod_explo_calibration:0000000000000020 $d
/var/folders/qd/4mxf5pkd0zdf0b9dd1hp39180000gn/T//cc0H01tt.s:2911   .text.mod_explo_discoverTheAreaOnThread:0000000000000000 $t
/var/folders/qd/4mxf5pkd0zdf0b9dd1hp39180000gn/T//cc0H01tt.s:2919   .text.mod_explo_discoverTheAreaOnThread:0000000000000000 mod_explo_discoverTheAreaOnThread
/var/folders/qd/4mxf5pkd0zdf0b9dd1hp39180000gn/T//cc0H01tt.s:2966   .text.mod_explo_discoverTheAreaOnThread:000000000000002c $d
/var/folders/qd/4mxf5pkd0zdf0b9dd1hp39180000gn/T//cc0H01tt.s:2973   .text.mod_explo_explorateTheAreaOnThread:0000000000000000 $t
/var/folders/qd/4mxf5pkd0zdf0b9dd1hp39180000gn/T//cc0H01tt.s:2981   .text.mod_explo_explorateTheAreaOnThread:0000000000000000 mod_explo_explorateTheAreaOnThread
/var/folders/qd/4mxf5pkd0zdf0b9dd1hp39180000gn/T//cc0H01tt.s:3028   .text.mod_explo_explorateTheAreaOnThread:000000000000002c $d
/var/folders/qd/4mxf5pkd0zdf0b9dd1hp39180000gn/T//cc0H01tt.s:3035   .text.mod_explo_sendTheMap:0000000000000000 $t
/var/folders/qd/4mxf5pkd0zdf0b9dd1hp39180000gn/T//cc0H01tt.s:3043   .text.mod_explo_sendTheMap:0000000000000000 mod_explo_sendTheMap
/var/folders/qd/4mxf5pkd0zdf0b9dd1hp39180000gn/T//cc0H01tt.s:3082   .text.mod_explo_sendTheMap:0000000000000024 $d
/var/folders/qd/4mxf5pkd0zdf0b9dd1hp39180000gn/T//cc0H01tt.s:3087   .text.mod_explo_waitUntilEndOfWork:0000000000000000 $t
/var/folders/qd/4mxf5pkd0zdf0b9dd1hp39180000gn/T//cc0H01tt.s:3095   .text.mod_explo_waitUntilEndOfWork:0000000000000000 mod_explo_waitUntilEndOfWork
/var/folders/qd/4mxf5pkd0zdf0b9dd1hp39180000gn/T//cc0H01tt.s:3141   .text.mod_explo_waitUntilEndOfWork:0000000000000024 $d
/var/folders/qd/4mxf5pkd0zdf0b9dd1hp39180000gn/T//cc0H01tt.s:3172   .bss.environmentObstacles:0000000000000000 environmentObstacles
/var/folders/qd/4mxf5pkd0zdf0b9dd1hp39180000gn/T//cc0H01tt.s:3192   .bss.lastOrder:0000000000000000 lastOrder
/var/folders/qd/4mxf5pkd0zdf0b9dd1hp39180000gn/T//cc0H01tt.s:3212   .data.isMessage:0000000000000000 isMessage
/var/folders/qd/4mxf5pkd0zdf0b9dd1hp39180000gn/T//cc0H01tt.s:3221   .data.wipEndMovingSignal_sem:0000000000000000 wipEndMovingSignal_sem
/var/folders/qd/4mxf5pkd0zdf0b9dd1hp39180000gn/T//cc0H01tt.s:3230   .data.wipEndSignal_sem:0000000000000000 wipEndSignal_sem
/var/folders/qd/4mxf5pkd0zdf0b9dd1hp39180000gn/T//cc0H01tt.s:3154   .bss.changeMotorsStateAsync_wa:0000000000000000 $d
/var/folders/qd/4mxf5pkd0zdf0b9dd1hp39180000gn/T//cc0H01tt.s:3158   .bss.changeMotorsStateAsync_wa:0000000000000000 changeMotorsStateAsync_wa
/var/folders/qd/4mxf5pkd0zdf0b9dd1hp39180000gn/T//cc0H01tt.s:3161   .bss.discover_wa:0000000000000000 $d
/var/folders/qd/4mxf5pkd0zdf0b9dd1hp39180000gn/T//cc0H01tt.s:3165   .bss.discover_wa:0000000000000000 discover_wa
/var/folders/qd/4mxf5pkd0zdf0b9dd1hp39180000gn/T//cc0H01tt.s:3168   .bss.environmentObstacles:0000000000000000 $d
/var/folders/qd/4mxf5pkd0zdf0b9dd1hp39180000gn/T//cc0H01tt.s:3175   .bss.exploration_wa:0000000000000000 $d
/var/folders/qd/4mxf5pkd0zdf0b9dd1hp39180000gn/T//cc0H01tt.s:3179   .bss.exploration_wa:0000000000000000 exploration_wa
/var/folders/qd/4mxf5pkd0zdf0b9dd1hp39180000gn/T//cc0H01tt.s:3185   .bss.isMoving.11964:0000000000000000 isMoving.11964
/var/folders/qd/4mxf5pkd0zdf0b9dd1hp39180000gn/T//cc0H01tt.s:3186   .bss.isMoving.11964:0000000000000000 $d
/var/folders/qd/4mxf5pkd0zdf0b9dd1hp39180000gn/T//cc0H01tt.s:3188   .bss.lastOrder:0000000000000000 $d
/var/folders/qd/4mxf5pkd0zdf0b9dd1hp39180000gn/T//cc0H01tt.s:3195   .bss.lastOrderTime.11965:0000000000000000 $d
/var/folders/qd/4mxf5pkd0zdf0b9dd1hp39180000gn/T//cc0H01tt.s:3199   .bss.lastOrderTime.11965:0000000000000000 lastOrderTime.11965
/var/folders/qd/4mxf5pkd0zdf0b9dd1hp39180000gn/T//cc0H01tt.s:3202   .bss.motorsControlThread:0000000000000000 $d
/var/folders/qd/4mxf5pkd0zdf0b9dd1hp39180000gn/T//cc0H01tt.s:3206   .bss.motorsControlThread:0000000000000000 motorsControlThread
/var/folders/qd/4mxf5pkd0zdf0b9dd1hp39180000gn/T//cc0H01tt.s:3209   .data.isMessage:0000000000000000 $d
/var/folders/qd/4mxf5pkd0zdf0b9dd1hp39180000gn/T//cc0H01tt.s:3217   .data.wipEndMovingSignal_sem:0000000000000000 $d
/var/folders/qd/4mxf5pkd0zdf0b9dd1hp39180000gn/T//cc0H01tt.s:3226   .data.wipEndSignal_sem:0000000000000000 $d
/var/folders/qd/4mxf5pkd0zdf0b9dd1hp39180000gn/T//cc0H01tt.s:3235   .rodata.__func__.8385:0000000000000000 $d
/var/folders/qd/4mxf5pkd0zdf0b9dd1hp39180000gn/T//cc0H01tt.s:3239   .rodata.__func__.8385:0000000000000000 __func__.8385
/var/folders/qd/4mxf5pkd0zdf0b9dd1hp39180000gn/T//cc0H01tt.s:3242   .rodata.changeMotorsStateAsync.str1.4:0000000000000000 $d
/var/folders/qd/4mxf5pkd0zdf0b9dd1hp39180000gn/T//cc0H01tt.s:3248   .rodata.exploration.str1.4:0000000000000000 $d

UNDEFINED SYMBOLS
__aeabi_dcmpeq
_stats_start_measure_crit_thd
_dbg_check_lock
_dbg_check_unlock
_stats_stop_measure_crit_thd
chSysHalt
ARM GAS  /var/folders/qd/4mxf5pkd0zdf0b9dd1hp39180000gn/T//cc0H01tt.s 			page 367


mod_motors_changeStateWheelSpeedType
mod_mapping_updatePositionWheelSpeedType
mod_com_writeMessage
chMsgRelease
chMsgWait
chDbgCheckClassI
chSchRescheduleS
chSemSignalI
__stack_chk_guard
ch
__stack_chk_fail
chSemWait
chMsgSend
chThdSleepUntilWindowed
mod_motors_convertRobotSpeedToWheelspeed
mod_motors_stop
mod_sensors_getValueTOF
mod_mapping_getActualPosition
assert
chThdSleep
mod_mapping_resetCoordinates
malloc
mod_mapping_computeWallLocation
free
__aeabi_dcmplt
__aeabi_dmul
__aeabi_ddiv
__aeabi_d2iz
mod_mapping_getAngleForTranslation
mod_sensors_waitForObstacle
mod_sensors_need_objectDetection
__aeabi_i2d
mod_mapping_getRobotDisplacement
mod_mapping_checkEnvironment
mod_sensors_initSensors
mod_motors_init
mod_mapping_init
mod_sensors_initObjectDetection
chThdCreateStatic
mod_sensors_calibrateIRSensors
mod_com_writeCommand
