ARM GAS  /var/folders/qd/4mxf5pkd0zdf0b9dd1hp39180000gn/T//cctSaefb.s 			page 1


   1              		.cpu cortex-m4
   2              		.eabi_attribute 27, 1
   3              		.eabi_attribute 28, 1
   4              		.eabi_attribute 20, 1
   5              		.eabi_attribute 21, 1
   6              		.eabi_attribute 23, 3
   7              		.eabi_attribute 24, 1
   8              		.eabi_attribute 25, 1
   9              		.eabi_attribute 26, 1
  10              		.eabi_attribute 30, 2
  11              		.eabi_attribute 34, 1
  12              		.eabi_attribute 18, 4
  13              		.file	"mod_communication.c"
  14              		.text
  15              	.Ltext0:
  16              		.cfi_sections	.debug_frame
  17              		.section	.text.chprintf.constprop.0,"ax",%progbits
  18              		.align	1
  19              		.p2align 4,,15
  20              		.syntax unified
  21              		.thumb
  22              		.thumb_func
  23              		.fpu fpv4-sp-d16
  24              		.type	chprintf.constprop.0, %function
  25              	chprintf.constprop.0:
  26              	.LFB265:
  27              		.file 1 "lib/e-puck2_main-processor/ChibiOS//os/hal/lib/streams/chprintf.h"
  28              		.loc 1 69 0
  29              		.cfi_startproc
  30              		@ args = 4, pretend = 12, frame = 8
  31              		@ frame_needed = 0, uses_anonymous_args = 1
  32              	.LVL0:
  33 0000 0EB4     		push	{r1, r2, r3}
  34              		.cfi_def_cfa_offset 12
  35              		.cfi_offset 1, -12
  36              		.cfi_offset 2, -8
  37              		.cfi_offset 3, -4
  38 0002 10B5     		push	{r4, lr}
  39              		.cfi_def_cfa_offset 20
  40              		.cfi_offset 4, -20
  41              		.cfi_offset 14, -16
  42 0004 0A4C     		ldr	r4, .L6
  43              		.loc 1 74 0
  44 0006 0B49     		ldr	r1, .L6+4
  45              		.loc 1 69 0
  46 0008 2368     		ldr	r3, [r4]
  47              		.loc 1 74 0
  48 000a 0B48     		ldr	r0, .L6+8
  49              	.LVL1:
  50              		.loc 1 69 0
  51 000c 83B0     		sub	sp, sp, #12
  52              		.cfi_def_cfa_offset 32
  53              		.loc 1 69 0
  54 000e 0193     		str	r3, [sp, #4]
  55              	.LVL2:
  56              		.loc 1 73 0
  57 0010 06AB     		add	r3, sp, #24
ARM GAS  /var/folders/qd/4mxf5pkd0zdf0b9dd1hp39180000gn/T//cctSaefb.s 			page 2


  58              		.loc 1 74 0
  59 0012 1A46     		mov	r2, r3
  60              		.loc 1 73 0
  61 0014 0093     		str	r3, [sp]
  62              		.loc 1 74 0
  63 0016 FFF7FEFF 		bl	chvprintf
  64              	.LVL3:
  65              		.loc 1 78 0
  66 001a 019A     		ldr	r2, [sp, #4]
  67 001c 2368     		ldr	r3, [r4]
  68 001e 9A42     		cmp	r2, r3
  69 0020 04D1     		bne	.L5
  70 0022 03B0     		add	sp, sp, #12
  71              		.cfi_remember_state
  72              		.cfi_def_cfa_offset 20
  73              		@ sp needed
  74 0024 BDE81040 		pop	{r4, lr}
  75              		.cfi_restore 14
  76              		.cfi_restore 4
  77              		.cfi_def_cfa_offset 12
  78 0028 03B0     		add	sp, sp, #12
  79              		.cfi_restore 3
  80              		.cfi_restore 2
  81              		.cfi_restore 1
  82              		.cfi_def_cfa_offset 0
  83 002a 7047     		bx	lr
  84              	.L5:
  85              		.cfi_restore_state
  86 002c FFF7FEFF 		bl	__stack_chk_fail
  87              	.LVL4:
  88              	.L7:
  89              		.align	2
  90              	.L6:
  91 0030 00000000 		.word	__stack_chk_guard
  92 0034 00000000 		.word	.LC0
  93 0038 00000000 		.word	SD3
  94              		.cfi_endproc
  95              	.LFE265:
  96              		.size	chprintf.constprop.0, .-chprintf.constprop.0
  97              		.section	.text.mod_com_initModule,"ax",%progbits
  98              		.align	1
  99              		.p2align 4,,15
 100              		.global	mod_com_initModule
 101              		.syntax unified
 102              		.thumb
 103              		.thumb_func
 104              		.fpu fpv4-sp-d16
 105              		.type	mod_com_initModule, %function
 106              	mod_com_initModule:
 107              	.LFB261:
 108              		.file 2 "./modules/mod_communication.c"
 109              		.loc 2 60 0
 110              		.cfi_startproc
 111              		@ args = 0, pretend = 0, frame = 8
 112              		@ frame_needed = 0, uses_anonymous_args = 0
 113 0000 00B5     		push	{lr}
 114              		.cfi_def_cfa_offset 4
ARM GAS  /var/folders/qd/4mxf5pkd0zdf0b9dd1hp39180000gn/T//cctSaefb.s 			page 3


 115              		.cfi_offset 14, -4
 116 0002 084B     		ldr	r3, .L13
 117 0004 83B0     		sub	sp, sp, #12
 118              		.cfi_def_cfa_offset 16
 119              		.loc 2 60 0
 120 0006 1A68     		ldr	r2, [r3]
 121 0008 0192     		str	r2, [sp, #4]
 122              	.LBB4:
 123              	.LBB5:
 124              		.loc 2 52 0
 125 000a 019A     		ldr	r2, [sp, #4]
 126 000c 1B68     		ldr	r3, [r3]
 127 000e 9A42     		cmp	r2, r3
 128 0010 06D1     		bne	.L12
 129 0012 0549     		ldr	r1, .L13+4
 130 0014 0548     		ldr	r0, .L13+8
 131              	.LBE5:
 132              	.LBE4:
 133              		.loc 2 64 0
 134 0016 03B0     		add	sp, sp, #12
 135              		.cfi_remember_state
 136              		.cfi_def_cfa_offset 4
 137              		@ sp needed
 138 0018 5DF804EB 		ldr	lr, [sp], #4
 139              		.cfi_restore 14
 140              		.cfi_def_cfa_offset 0
 141              	.LBB7:
 142              	.LBB6:
 143              		.loc 2 52 0
 144 001c FFF7FEBF 		b	sdStart
 145              	.LVL5:
 146              	.L12:
 147              		.cfi_restore_state
 148 0020 FFF7FEFF 		bl	__stack_chk_fail
 149              	.LVL6:
 150              	.L14:
 151              		.align	2
 152              	.L13:
 153 0024 00000000 		.word	__stack_chk_guard
 154 0028 00000000 		.word	.LANCHOR0
 155 002c 00000000 		.word	SD3
 156              	.LBE6:
 157              	.LBE7:
 158              		.cfi_endproc
 159              	.LFE261:
 160              		.size	mod_com_initModule, .-mod_com_initModule
 161              		.section	.text.mod_com_writeDatas,"ax",%progbits
 162              		.align	1
 163              		.p2align 4,,15
 164              		.global	mod_com_writeDatas
 165              		.syntax unified
 166              		.thumb
 167              		.thumb_func
 168              		.fpu fpv4-sp-d16
 169              		.type	mod_com_writeDatas, %function
 170              	mod_com_writeDatas:
 171              	.LFB262:
ARM GAS  /var/folders/qd/4mxf5pkd0zdf0b9dd1hp39180000gn/T//cctSaefb.s 			page 4


 172              		.loc 2 66 0
 173              		.cfi_startproc
 174              		@ args = 0, pretend = 0, frame = 24
 175              		@ frame_needed = 0, uses_anonymous_args = 0
 176              	.LVL7:
 177 0000 2DE9F04F 		push	{r4, r5, r6, r7, r8, r9, r10, fp, lr}
 178              		.cfi_def_cfa_offset 36
 179              		.cfi_offset 4, -36
 180              		.cfi_offset 5, -32
 181              		.cfi_offset 6, -28
 182              		.cfi_offset 7, -24
 183              		.cfi_offset 8, -20
 184              		.cfi_offset 9, -16
 185              		.cfi_offset 10, -12
 186              		.cfi_offset 11, -8
 187              		.cfi_offset 14, -4
 188 0004 454B     		ldr	r3, .L34
 189 0006 87B0     		sub	sp, sp, #28
 190              		.cfi_def_cfa_offset 64
 191              		.loc 2 66 0
 192 0008 1B68     		ldr	r3, [r3]
 193 000a 0593     		str	r3, [sp, #20]
 194              	.LVL8:
 195 000c 8246     		mov	r10, r0
 196 000e 0E46     		mov	r6, r1
 197              		.loc 2 71 0
 198 0010 002A     		cmp	r2, #0
 199 0012 7FD1     		bne	.L31
 200              		.loc 2 71 0 is_stmt 0 discriminator 1
 201 0014 0846     		mov	r0, r1
 202              	.LVL9:
 203 0016 FFF7FEFF 		bl	strlen
 204              	.LVL10:
 205 001a 0446     		mov	r4, r0
 206              	.LVL11:
 207              	.L16:
 208              		.loc 2 73 0 is_stmt 1
 209 001c 2046     		mov	r0, r4
 210 001e FFF7FEFF 		bl	size_t2int
 211              	.LVL12:
 212 0022 3F49     		ldr	r1, .L34+4
 213              		.loc 2 97 0
 214 0024 3F4D     		ldr	r5, .L34+8
 215              		.loc 2 73 0
 216 0026 0246     		mov	r2, r0
 217 0028 03A8     		add	r0, sp, #12
 218 002a FFF7FEFF 		bl	sprintf
 219              	.LVL13:
 220              		.loc 2 75 0
 221 002e 5046     		mov	r0, r10
 222 0030 FFF7FEFF 		bl	strlen
 223              	.LVL14:
 224 0034 8046     		mov	r8, r0
 225              	.LVL15:
 226              		.loc 2 79 0
 227 0036 03A8     		add	r0, sp, #12
 228              	.LVL16:
ARM GAS  /var/folders/qd/4mxf5pkd0zdf0b9dd1hp39180000gn/T//cctSaefb.s 			page 5


 229 0038 FFF7FEFF 		bl	strlen
 230              	.LVL17:
 231 003c 00EB0803 		add	r3, r0, r8
 232 0040 1A1D     		adds	r2, r3, #4
 233              	.LVL18:
 234              		.loc 2 83 0
 235 0042 1046     		mov	r0, r2
 236              		.loc 2 79 0
 237 0044 0193     		str	r3, [sp, #4]
 238              		.loc 2 83 0
 239 0046 0092     		str	r2, [sp]
 240 0048 FFF7FEFF 		bl	malloc
 241              	.LVL19:
 242              		.loc 2 84 0
 243 004c 0746     		mov	r7, r0
 244 004e 0030     		adds	r0, r0, #0
 245              	.LVL20:
 246 0050 18BF     		it	ne
 247 0052 0120     		movne	r0, #1
 248 0054 FFF7FEFF 		bl	assert
 249              	.LVL21:
 250              		.loc 2 88 0
 251 0058 03A8     		add	r0, sp, #12
 252 005a FFF7FEFF 		bl	strlen
 253              	.LVL22:
 254 005e 03A9     		add	r1, sp, #12
 255 0060 8146     		mov	r9, r0
 256 0062 0246     		mov	r2, r0
 257 0064 3846     		mov	r0, r7
 258 0066 FFF7FEFF 		bl	memcpy
 259              	.LVL23:
 260              		.loc 2 89 0
 261 006a 07EB0903 		add	r3, r7, r9
 262              	.LVL24:
 263              		.loc 2 91 0
 264 006e 0233     		adds	r3, r3, #2
 265              	.LVL25:
 266              		.loc 2 90 0
 267 0070 47F67C4B 		movw	fp, 31868	@ movhi
 268              		.loc 2 92 0
 269 0074 5146     		mov	r1, r10
 270              		.loc 2 90 0
 271 0076 27F809B0 		strh	fp, [r7, r9]	@ unaligned
 272              		.loc 2 92 0
 273 007a 1846     		mov	r0, r3
 274 007c 4246     		mov	r2, r8
 275 007e FFF7FEFF 		bl	memcpy
 276              	.LVL26:
 277              		.loc 2 97 0
 278 0082 2A68     		ldr	r2, [r5]
 279              		.loc 2 94 0
 280 0084 20F808B0 		strh	fp, [r0, r8]	@ unaligned
 281              		.loc 2 97 0
 282 0088 D2F80090 		ldr	r9, [r2]
 283 008c 2649     		ldr	r1, .L34+12
 284 008e 0522     		movs	r2, #5
 285 0090 2846     		mov	r0, r5
ARM GAS  /var/folders/qd/4mxf5pkd0zdf0b9dd1hp39180000gn/T//cctSaefb.s 			page 6


 286              	.LVL27:
 287 0092 C847     		blx	r9
 288              	.LVL28:
 289              		.loc 2 99 0
 290 0094 009A     		ldr	r2, [sp]
 291 0096 82B1     		cbz	r2, .L17
 292 0098 019B     		ldr	r3, [sp, #4]
 293              		.loc 2 100 0
 294 009a DFF890A0 		ldr	r10, .L34+16
 295              	.LVL29:
 296 009e 3B44     		add	r3, r3, r7
 297 00a0 03F10308 		add	r8, r3, #3
 298              	.LVL30:
 299 00a4 07F1FF3B 		add	fp, r7, #-1
 300 00a8 A946     		mov	r9, r5
 301              	.LVL31:
 302              	.L18:
 303              		.loc 2 100 0 is_stmt 0 discriminator 3
 304 00aa 1BF8012F 		ldrb	r2, [fp, #1]!	@ zero_extendqisi2
 305 00ae 5146     		mov	r1, r10
 306 00b0 4846     		mov	r0, r9
 307 00b2 FFF7FEFF 		bl	chprintf.constprop.0
 308              	.LVL32:
 309              		.loc 2 99 0 is_stmt 1 discriminator 3
 310 00b6 C345     		cmp	fp, r8
 311 00b8 F7D1     		bne	.L18
 312              	.L17:
 313              	.LVL33:
 314              		.loc 2 104 0
 315 00ba 04B3     		cbz	r4, .L20
 316              		.loc 2 105 0
 317 00bc B4F57A6F 		cmp	r4, #4000
 318 00c0 17D9     		bls	.L22
 319              		.loc 2 106 0
 320 00c2 DFF86090 		ldr	r9, .L34+8
 321              		.loc 2 103 0
 322 00c6 4FF00008 		mov	r8, #0
 323              	.LVL34:
 324              	.L21:
 325              		.loc 2 106 0
 326 00ca 2B68     		ldr	r3, [r5]
 327 00cc 06EB0801 		add	r1, r6, r8
 328 00d0 4FF47A62 		mov	r2, #4000
 329 00d4 1B68     		ldr	r3, [r3]
 330 00d6 4846     		mov	r0, r9
 331 00d8 9847     		blx	r3
 332              	.LVL35:
 333              		.loc 2 109 0
 334 00da A4F57A64 		sub	r4, r4, #4000
 335              	.LVL36:
 336              		.loc 2 107 0
 337 00de 4FF4C870 		mov	r0, #400
 338 00e2 FFF7FEFF 		bl	chThdSleep
 339              	.LVL37:
 340              		.loc 2 105 0
 341 00e6 B4F57A6F 		cmp	r4, #4000
 342              		.loc 2 108 0
ARM GAS  /var/folders/qd/4mxf5pkd0zdf0b9dd1hp39180000gn/T//cctSaefb.s 			page 7


 343 00ea 08F57A68 		add	r8, r8, #4000
 344              	.LVL38:
 345              		.loc 2 105 0
 346 00ee ECD8     		bhi	.L21
 347 00f0 4644     		add	r6, r6, r8
 348              	.LVL39:
 349              	.L22:
 350              		.loc 2 112 0
 351 00f2 2B68     		ldr	r3, [r5]
 352 00f4 0B48     		ldr	r0, .L34+8
 353 00f6 1B68     		ldr	r3, [r3]
 354 00f8 2246     		mov	r2, r4
 355 00fa 3146     		mov	r1, r6
 356 00fc 9847     		blx	r3
 357              	.LVL40:
 358              	.L20:
 359              		.loc 2 117 0
 360 00fe 074B     		ldr	r3, .L34
 361 0100 059A     		ldr	r2, [sp, #20]
 362 0102 1B68     		ldr	r3, [r3]
 363 0104 9A42     		cmp	r2, r3
 364 0106 07D1     		bne	.L33
 365 0108 3846     		mov	r0, r7
 366              		.loc 2 119 0
 367 010a 07B0     		add	sp, sp, #28
 368              		.cfi_remember_state
 369              		.cfi_def_cfa_offset 36
 370              	.LVL41:
 371              		@ sp needed
 372 010c BDE8F04F 		pop	{r4, r5, r6, r7, r8, r9, r10, fp, lr}
 373              		.cfi_restore 14
 374              		.cfi_restore 11
 375              		.cfi_restore 10
 376              		.cfi_restore 9
 377              		.cfi_restore 8
 378              		.cfi_restore 7
 379              		.cfi_restore 6
 380              		.cfi_restore 5
 381              		.cfi_restore 4
 382              		.cfi_def_cfa_offset 0
 383              	.LVL42:
 384              		.loc 2 117 0
 385 0110 FFF7FEBF 		b	free
 386              	.LVL43:
 387              	.L31:
 388              		.cfi_restore_state
 389 0114 1446     		mov	r4, r2
 390 0116 81E7     		b	.L16
 391              	.LVL44:
 392              	.L33:
 393 0118 FFF7FEFF 		bl	__stack_chk_fail
 394              	.LVL45:
 395              	.L35:
 396              		.align	2
 397              	.L34:
 398 011c 00000000 		.word	__stack_chk_guard
 399 0120 00000000 		.word	.LC1
ARM GAS  /var/folders/qd/4mxf5pkd0zdf0b9dd1hp39180000gn/T//cctSaefb.s 			page 8


 400 0124 00000000 		.word	SD3
 401 0128 04000000 		.word	.LC2
 402 012c 00000000 		.word	.LC0
 403              		.cfi_endproc
 404              	.LFE262:
 405              		.size	mod_com_writeDatas, .-mod_com_writeDatas
 406              		.section	.text.mod_com_writeMessage,"ax",%progbits
 407              		.align	1
 408              		.p2align 4,,15
 409              		.global	mod_com_writeMessage
 410              		.syntax unified
 411              		.thumb
 412              		.thumb_func
 413              		.fpu fpv4-sp-d16
 414              		.type	mod_com_writeMessage, %function
 415              	mod_com_writeMessage:
 416              	.LFB263:
 417              		.loc 2 122 0
 418              		.cfi_startproc
 419              		@ args = 0, pretend = 0, frame = 16
 420              		@ frame_needed = 0, uses_anonymous_args = 0
 421              	.LVL46:
 422 0000 2DE9F04F 		push	{r4, r5, r6, r7, r8, r9, r10, fp, lr}
 423              		.cfi_def_cfa_offset 36
 424              		.cfi_offset 4, -36
 425              		.cfi_offset 5, -32
 426              		.cfi_offset 6, -28
 427              		.cfi_offset 7, -24
 428              		.cfi_offset 8, -20
 429              		.cfi_offset 9, -16
 430              		.cfi_offset 10, -12
 431              		.cfi_offset 11, -8
 432              		.cfi_offset 14, -4
 433 0004 DFF80481 		ldr	r8, .L49+20
 434 0008 85B0     		sub	sp, sp, #20
 435              		.cfi_def_cfa_offset 56
 436              		.loc 2 122 0
 437 000a D8F80030 		ldr	r3, [r8]
 438 000e 0393     		str	r3, [sp, #12]
 439              		.loc 2 124 0
 440 0010 0029     		cmp	r1, #0
 441 0012 07DC     		bgt	.L48
 442              		.loc 2 166 0
 443 0014 039A     		ldr	r2, [sp, #12]
 444 0016 D8F80030 		ldr	r3, [r8]
 445 001a 9A42     		cmp	r2, r3
 446 001c 69D1     		bne	.L47
 447 001e 05B0     		add	sp, sp, #20
 448              		.cfi_remember_state
 449              		.cfi_def_cfa_offset 36
 450              		@ sp needed
 451 0020 BDE8F08F 		pop	{r4, r5, r6, r7, r8, r9, r10, fp, pc}
 452              	.L48:
 453              		.cfi_restore_state
 454 0024 0446     		mov	r4, r0
 455              		.loc 2 127 0
 456 0026 FFF7FEFF 		bl	strlen
ARM GAS  /var/folders/qd/4mxf5pkd0zdf0b9dd1hp39180000gn/T//cctSaefb.s 			page 9


 457              	.LVL47:
 458 002a 334B     		ldr	r3, .L49
 459              		.loc 2 159 0
 460 002c 334E     		ldr	r6, .L49+4
 461              		.loc 2 127 0
 462 002e 1B88     		ldrh	r3, [r3]	@ unaligned
 463 0030 2352     		strh	r3, [r4, r0]	@ unaligned
 464              	.LVL48:
 465              		.loc 2 134 0
 466 0032 0130     		adds	r0, r0, #1
 467              	.LVL49:
 468 0034 FFF7FEFF 		bl	size_t2int
 469              	.LVL50:
 470 0038 3149     		ldr	r1, .L49+8
 471 003a 0246     		mov	r2, r0
 472 003c 01A8     		add	r0, sp, #4
 473 003e FFF7FEFF 		bl	sprintf
 474              	.LVL51:
 475              		.loc 2 139 0
 476 0042 01A8     		add	r0, sp, #4
 477 0044 FFF7FEFF 		bl	strlen
 478              	.LVL52:
 479 0048 0546     		mov	r5, r0
 480              		.loc 2 140 0
 481 004a 2046     		mov	r0, r4
 482 004c FFF7FEFF 		bl	strlen
 483              	.LVL53:
 484 0050 0544     		add	r5, r5, r0
 485              		.loc 2 139 0
 486 0052 05F10B0B 		add	fp, r5, #11
 487              	.LVL54:
 488              		.loc 2 142 0
 489 0056 5846     		mov	r0, fp
 490 0058 FFF7FEFF 		bl	malloc
 491              	.LVL55:
 492              		.loc 2 143 0
 493 005c 0746     		mov	r7, r0
 494 005e 0030     		adds	r0, r0, #0
 495              	.LVL56:
 496 0060 18BF     		it	ne
 497 0062 0120     		movne	r0, #1
 498 0064 FFF7FEFF 		bl	assert
 499              	.LVL57:
 500              		.loc 2 147 0
 501 0068 01A8     		add	r0, sp, #4
 502 006a FFF7FEFF 		bl	strlen
 503              	.LVL58:
 504 006e 01A9     		add	r1, sp, #4
 505 0070 8246     		mov	r10, r0
 506 0072 0246     		mov	r2, r0
 507 0074 3846     		mov	r0, r7
 508 0076 FFF7FEFF 		bl	memcpy
 509              	.LVL59:
 510              		.loc 2 151 0
 511 007a 224B     		ldr	r3, .L49+12
 512              		.loc 2 148 0
 513 007c 07EB0A09 		add	r9, r7, r10
ARM GAS  /var/folders/qd/4mxf5pkd0zdf0b9dd1hp39180000gn/T//cctSaefb.s 			page 10


 514              	.LVL60:
 515              		.loc 2 149 0
 516 0080 47F67C42 		movw	r2, 31868	@ movhi
 517              		.loc 2 151 0
 518 0084 1868     		ldr	r0, [r3]
 519              		.loc 2 149 0
 520 0086 27F80A20 		strh	r2, [r7, r10]	@ unaligned
 521              	.LVL61:
 522              		.loc 2 151 0
 523 008a C9F80200 		str	r0, [r9, #2]	@ unaligned
 524 008e 9888     		ldrh	r0, [r3, #4]	@ unaligned
 525 0090 9B79     		ldrb	r3, [r3, #6]	@ zero_extendqisi2
 526 0092 89F80830 		strb	r3, [r9, #8]
 527              	.LVL62:
 528 0096 A9F80600 		strh	r0, [r9, #6]	@ unaligned
 529              		.loc 2 153 0
 530 009a A9F80920 		strh	r2, [r9, #9]	@ unaligned
 531              	.LVL63:
 532              		.loc 2 155 0
 533 009e 2046     		mov	r0, r4
 534 00a0 FFF7FEFF 		bl	strlen
 535              	.LVL64:
 536 00a4 2146     		mov	r1, r4
 537 00a6 0246     		mov	r2, r0
 538 00a8 09F10B00 		add	r0, r9, #11
 539              	.LVL65:
 540 00ac FFF7FEFF 		bl	memcpy
 541              	.LVL66:
 542              		.loc 2 159 0
 543 00b0 3368     		ldr	r3, [r6]
 544 00b2 1549     		ldr	r1, .L49+16
 545 00b4 1B68     		ldr	r3, [r3]
 546 00b6 3046     		mov	r0, r6
 547 00b8 0522     		movs	r2, #5
 548 00ba 9847     		blx	r3
 549              	.LVL67:
 550              		.loc 2 161 0
 551 00bc BBF1000F 		cmp	fp, #0
 552 00c0 0CD0     		beq	.L38
 553 00c2 3D44     		add	r5, r5, r7
 554              		.loc 2 162 0
 555 00c4 DFF84890 		ldr	r9, .L49+24
 556              	.LVL68:
 557 00c8 0A35     		adds	r5, r5, #10
 558 00ca 7C1E     		subs	r4, r7, #1
 559              	.LVL69:
 560              	.L39:
 561              		.loc 2 162 0 is_stmt 0 discriminator 3
 562 00cc 14F8012F 		ldrb	r2, [r4, #1]!	@ zero_extendqisi2
 563 00d0 4946     		mov	r1, r9
 564 00d2 3046     		mov	r0, r6
 565 00d4 FFF7FEFF 		bl	chprintf.constprop.0
 566              	.LVL70:
 567              		.loc 2 161 0 is_stmt 1 discriminator 3
 568 00d8 AC42     		cmp	r4, r5
 569 00da F7D1     		bne	.L39
 570              	.L38:
ARM GAS  /var/folders/qd/4mxf5pkd0zdf0b9dd1hp39180000gn/T//cctSaefb.s 			page 11


 571              		.loc 2 164 0
 572 00dc 039A     		ldr	r2, [sp, #12]
 573 00de D8F80030 		ldr	r3, [r8]
 574 00e2 9A42     		cmp	r2, r3
 575 00e4 05D1     		bne	.L47
 576 00e6 3846     		mov	r0, r7
 577              		.loc 2 166 0
 578 00e8 05B0     		add	sp, sp, #20
 579              		.cfi_remember_state
 580              		.cfi_def_cfa_offset 36
 581              		@ sp needed
 582 00ea BDE8F04F 		pop	{r4, r5, r6, r7, r8, r9, r10, fp, lr}
 583              		.cfi_restore 14
 584              		.cfi_restore 11
 585              		.cfi_restore 10
 586              		.cfi_restore 9
 587              		.cfi_restore 8
 588              		.cfi_restore 7
 589              		.cfi_restore 6
 590              		.cfi_restore 5
 591              		.cfi_restore 4
 592              		.cfi_def_cfa_offset 0
 593              	.LVL71:
 594              		.loc 2 164 0
 595 00ee FFF7FEBF 		b	free
 596              	.LVL72:
 597              	.L47:
 598              		.cfi_restore_state
 599              		.loc 2 166 0
 600 00f2 FFF7FEFF 		bl	__stack_chk_fail
 601              	.LVL73:
 602              	.L50:
 603 00f6 00BF     		.align	2
 604              	.L49:
 605 00f8 00000000 		.word	.LC3
 606 00fc 00000000 		.word	SD3
 607 0100 00000000 		.word	.LC1
 608 0104 04000000 		.word	.LC4
 609 0108 04000000 		.word	.LC2
 610 010c 00000000 		.word	__stack_chk_guard
 611 0110 00000000 		.word	.LC0
 612              		.cfi_endproc
 613              	.LFE263:
 614              		.size	mod_com_writeMessage, .-mod_com_writeMessage
 615              		.section	.text.mod_com_writeCommand,"ax",%progbits
 616              		.align	1
 617              		.p2align 4,,15
 618              		.global	mod_com_writeCommand
 619              		.syntax unified
 620              		.thumb
 621              		.thumb_func
 622              		.fpu fpv4-sp-d16
 623              		.type	mod_com_writeCommand, %function
 624              	mod_com_writeCommand:
 625              	.LFB264:
 626              		.loc 2 168 0
 627              		.cfi_startproc
ARM GAS  /var/folders/qd/4mxf5pkd0zdf0b9dd1hp39180000gn/T//cctSaefb.s 			page 12


 628              		@ args = 0, pretend = 0, frame = 48
 629              		@ frame_needed = 0, uses_anonymous_args = 0
 630              	.LVL74:
 631 0000 2DE9F04F 		push	{r4, r5, r6, r7, r8, r9, r10, fp, lr}
 632              		.cfi_def_cfa_offset 36
 633              		.cfi_offset 4, -36
 634              		.cfi_offset 5, -32
 635              		.cfi_offset 6, -28
 636              		.cfi_offset 7, -24
 637              		.cfi_offset 8, -20
 638              		.cfi_offset 9, -16
 639              		.cfi_offset 10, -12
 640              		.cfi_offset 11, -8
 641              		.cfi_offset 14, -4
 642 0004 DFF8FC80 		ldr	r8, .L64+20
 643 0008 8DB0     		sub	sp, sp, #52
 644              		.cfi_def_cfa_offset 88
 645              		.loc 2 168 0
 646 000a D8F80030 		ldr	r3, [r8]
 647 000e 0B93     		str	r3, [sp, #44]
 648              	.LVL75:
 649              		.loc 2 171 0
 650 0010 0028     		cmp	r0, #0
 651 0012 63D0     		beq	.L53
 652 0014 03AC     		add	r4, sp, #12
 653              	.LVL76:
 654              	.L52:
 655              		.loc 2 177 0
 656 0016 2046     		mov	r0, r4
 657 0018 FFF7FEFF 		bl	strlen
 658              	.LVL77:
 659              		.loc 2 179 0
 660 001c FFF7FEFF 		bl	size_t2int
 661              	.LVL78:
 662 0020 3349     		ldr	r1, .L64
 663              		.loc 2 204 0
 664 0022 344E     		ldr	r6, .L64+4
 665              		.loc 2 179 0
 666 0024 0246     		mov	r2, r0
 667 0026 01A8     		add	r0, sp, #4
 668 0028 FFF7FEFF 		bl	sprintf
 669              	.LVL79:
 670              		.loc 2 184 0
 671 002c 01A8     		add	r0, sp, #4
 672 002e FFF7FEFF 		bl	strlen
 673              	.LVL80:
 674 0032 0546     		mov	r5, r0
 675              		.loc 2 185 0
 676 0034 2046     		mov	r0, r4
 677 0036 FFF7FEFF 		bl	strlen
 678              	.LVL81:
 679 003a 0544     		add	r5, r5, r0
 680              		.loc 2 184 0
 681 003c 05F10B0B 		add	fp, r5, #11
 682              	.LVL82:
 683              		.loc 2 187 0
 684 0040 5846     		mov	r0, fp
ARM GAS  /var/folders/qd/4mxf5pkd0zdf0b9dd1hp39180000gn/T//cctSaefb.s 			page 13


 685 0042 FFF7FEFF 		bl	malloc
 686              	.LVL83:
 687              		.loc 2 188 0
 688 0046 0746     		mov	r7, r0
 689 0048 0030     		adds	r0, r0, #0
 690              	.LVL84:
 691 004a 18BF     		it	ne
 692 004c 0120     		movne	r0, #1
 693 004e FFF7FEFF 		bl	assert
 694              	.LVL85:
 695              		.loc 2 192 0
 696 0052 01A8     		add	r0, sp, #4
 697 0054 FFF7FEFF 		bl	strlen
 698              	.LVL86:
 699 0058 01A9     		add	r1, sp, #4
 700 005a 8246     		mov	r10, r0
 701 005c 0246     		mov	r2, r0
 702 005e 3846     		mov	r0, r7
 703 0060 FFF7FEFF 		bl	memcpy
 704              	.LVL87:
 705              		.loc 2 196 0
 706 0064 244B     		ldr	r3, .L64+8
 707              		.loc 2 193 0
 708 0066 07EB0A09 		add	r9, r7, r10
 709              	.LVL88:
 710              		.loc 2 194 0
 711 006a 47F67C42 		movw	r2, 31868	@ movhi
 712              		.loc 2 196 0
 713 006e 1868     		ldr	r0, [r3]
 714              		.loc 2 194 0
 715 0070 27F80A20 		strh	r2, [r7, r10]	@ unaligned
 716              	.LVL89:
 717              		.loc 2 196 0
 718 0074 C9F80200 		str	r0, [r9, #2]	@ unaligned
 719 0078 9888     		ldrh	r0, [r3, #4]	@ unaligned
 720 007a 9B79     		ldrb	r3, [r3, #6]	@ zero_extendqisi2
 721 007c 89F80830 		strb	r3, [r9, #8]
 722              	.LVL90:
 723 0080 A9F80600 		strh	r0, [r9, #6]	@ unaligned
 724              		.loc 2 198 0
 725 0084 A9F80920 		strh	r2, [r9, #9]	@ unaligned
 726              	.LVL91:
 727              		.loc 2 200 0
 728 0088 2046     		mov	r0, r4
 729 008a FFF7FEFF 		bl	strlen
 730              	.LVL92:
 731 008e 2146     		mov	r1, r4
 732 0090 0246     		mov	r2, r0
 733 0092 09F10B00 		add	r0, r9, #11
 734              	.LVL93:
 735 0096 FFF7FEFF 		bl	memcpy
 736              	.LVL94:
 737              		.loc 2 204 0
 738 009a 3368     		ldr	r3, [r6]
 739 009c 1749     		ldr	r1, .L64+12
 740 009e 1B68     		ldr	r3, [r3]
 741 00a0 3046     		mov	r0, r6
ARM GAS  /var/folders/qd/4mxf5pkd0zdf0b9dd1hp39180000gn/T//cctSaefb.s 			page 14


 742 00a2 0522     		movs	r2, #5
 743 00a4 9847     		blx	r3
 744              	.LVL95:
 745              		.loc 2 206 0
 746 00a6 BBF1000F 		cmp	fp, #0
 747 00aa 0CD0     		beq	.L54
 748 00ac 3D44     		add	r5, r5, r7
 749              		.loc 2 207 0
 750 00ae DFF85890 		ldr	r9, .L64+24
 751              	.LVL96:
 752 00b2 0A35     		adds	r5, r5, #10
 753 00b4 7C1E     		subs	r4, r7, #1
 754              	.LVL97:
 755              	.L55:
 756              		.loc 2 207 0 is_stmt 0 discriminator 3
 757 00b6 14F8012F 		ldrb	r2, [r4, #1]!	@ zero_extendqisi2
 758 00ba 4946     		mov	r1, r9
 759 00bc 3046     		mov	r0, r6
 760 00be FFF7FEFF 		bl	chprintf.constprop.0
 761              	.LVL98:
 762              		.loc 2 206 0 is_stmt 1 discriminator 3
 763 00c2 AC42     		cmp	r4, r5
 764 00c4 F7D1     		bne	.L55
 765              	.L54:
 766              		.loc 2 209 0
 767 00c6 0B9A     		ldr	r2, [sp, #44]
 768 00c8 D8F80030 		ldr	r3, [r8]
 769 00cc 9A42     		cmp	r2, r3
 770 00ce 0DD1     		bne	.L63
 771 00d0 3846     		mov	r0, r7
 772              		.loc 2 211 0
 773 00d2 0DB0     		add	sp, sp, #52
 774              		.cfi_remember_state
 775              		.cfi_def_cfa_offset 36
 776              		@ sp needed
 777 00d4 BDE8F04F 		pop	{r4, r5, r6, r7, r8, r9, r10, fp, lr}
 778              		.cfi_restore 14
 779              		.cfi_restore 11
 780              		.cfi_restore 10
 781              		.cfi_restore 9
 782              		.cfi_restore 8
 783              		.cfi_restore 7
 784              		.cfi_restore 6
 785              		.cfi_restore 5
 786              		.cfi_restore 4
 787              		.cfi_def_cfa_offset 0
 788              	.LVL99:
 789              		.loc 2 209 0
 790 00d8 FFF7FEBF 		b	free
 791              	.LVL100:
 792              	.L53:
 793              		.cfi_restore_state
 794              		.loc 2 173 0
 795 00dc 084B     		ldr	r3, .L64+16
 796 00de 93E80700 		ldm	r3, {r0, r1, r2}
 797              	.LVL101:
 798 00e2 03AC     		add	r4, sp, #12
ARM GAS  /var/folders/qd/4mxf5pkd0zdf0b9dd1hp39180000gn/T//cctSaefb.s 			page 15


 799 00e4 2346     		mov	r3, r4
 800 00e6 03C3     		stmia	r3!, {r0, r1}
 801 00e8 1A80     		strh	r2, [r3]	@ movhi
 802              		.loc 2 174 0
 803 00ea 94E7     		b	.L52
 804              	.LVL102:
 805              	.L63:
 806              		.loc 2 209 0
 807 00ec FFF7FEFF 		bl	__stack_chk_fail
 808              	.LVL103:
 809              	.L65:
 810              		.align	2
 811              	.L64:
 812 00f0 00000000 		.word	.LC1
 813 00f4 00000000 		.word	SD3
 814 00f8 0C000000 		.word	.LC6
 815 00fc 04000000 		.word	.LC2
 816 0100 00000000 		.word	.LC5
 817 0104 00000000 		.word	__stack_chk_guard
 818 0108 00000000 		.word	.LC0
 819              		.cfi_endproc
 820              	.LFE264:
 821              		.size	mod_com_writeCommand, .-mod_com_writeCommand
 822              		.section	.data.ser_cfg.11506,"aw",%progbits
 823              		.align	2
 824              		.set	.LANCHOR0,. + 0
 825              		.type	ser_cfg.11506, %object
 826              		.size	ser_cfg.11506, 12
 827              	ser_cfg.11506:
 828 0000 00C20100 		.word	115200
 829 0004 0000     		.short	0
 830 0006 0000     		.short	0
 831 0008 0000     		.short	0
 832 000a 0000     		.space	2
 833              		.section	.rodata.chprintf.constprop.0.str1.4,"aMS",%progbits,1
 834              		.align	2
 835              	.LC0:
 836 0000 256300   		.ascii	"%c\000"
 837              		.section	.rodata.mod_com_writeCommand.str1.4,"aMS",%progbits,1
 838              		.align	2
 839              	.LC5:
 840 0000 53656E64 		.ascii	"Send map\012\000"
 840      206D6170 
 840      0A00
 841 000a 0000     		.space	2
 842              	.LC6:
 843 000c 436F6D6D 		.ascii	"Command\000"
 843      616E6400 
 844              		.section	.rodata.mod_com_writeDatas.str1.4,"aMS",%progbits,1
 845              		.align	2
 846              	.LC1:
 847 0000 25356400 		.ascii	"%5d\000"
 848              	.LC2:
 849 0004 53544152 		.ascii	"START\000"
 849      5400
 850              		.section	.rodata.mod_com_writeMessage.str1.4,"aMS",%progbits,1
 851              		.align	2
ARM GAS  /var/folders/qd/4mxf5pkd0zdf0b9dd1hp39180000gn/T//cctSaefb.s 			page 16


 852              	.LC3:
 853 0000 0A00     		.ascii	"\012\000"
 854 0002 0000     		.space	2
 855              	.LC4:
 856 0004 4D657373 		.ascii	"Message\000"
 856      61676500 
 857              		.text
 858              	.Letext0:
 859              		.file 3 "/Applications/Eclipse_e-puck2.app/Contents/Eclipse_e-puck2/Tools/gcc-arm-none-eabi-7-2017
 860              		.file 4 "/Applications/Eclipse_e-puck2.app/Contents/Eclipse_e-puck2/Tools/gcc-arm-none-eabi-7-2017
 861              		.file 5 "/Applications/Eclipse_e-puck2.app/Contents/Eclipse_e-puck2/Tools/gcc-arm-none-eabi-7-2017
 862              		.file 6 "/Applications/Eclipse_e-puck2.app/Contents/Eclipse_e-puck2/Tools/gcc-arm-none-eabi-7-2017
 863              		.file 7 "/Applications/Eclipse_e-puck2.app/Contents/Eclipse_e-puck2/Tools/gcc-arm-none-eabi-7-2017
 864              		.file 8 "/Applications/Eclipse_e-puck2.app/Contents/Eclipse_e-puck2/Tools/gcc-arm-none-eabi-7-2017
 865              		.file 9 "./modules/headers/mod_communication.h"
 866              		.file 10 "/Applications/Eclipse_e-puck2.app/Contents/Eclipse_e-puck2/Tools/gcc-arm-none-eabi-7-201
 867              		.file 11 "<built-in>"
 868              		.file 12 "/Applications/Eclipse_e-puck2.app/Contents/Eclipse_e-puck2/Tools/gcc-arm-none-eabi-7-201
 869              		.file 13 "/Applications/Eclipse_e-puck2.app/Contents/Eclipse_e-puck2/Tools/gcc-arm-none-eabi-7-201
 870              		.file 14 "lib/e-puck2_main-processor/ChibiOS//os/rt/ports/ARMCMx/compilers/GCC/chtypes.h"
 871              		.file 15 "lib/e-puck2_main-processor/ChibiOS//os/rt/include/chsystypes.h"
 872              		.file 16 "lib/e-puck2_main-processor/ChibiOS//os/rt/include/chschd.h"
 873              		.file 17 "lib/e-puck2_main-processor/ChibiOS//os/ext/CMSIS/include/core_cm4.h"
 874              		.file 18 "lib/e-puck2_main-processor/ChibiOS//os/ext/CMSIS/ST/system_stm32f4xx.h"
 875              		.file 19 "lib/e-puck2_main-processor/ChibiOS//os/ext/CMSIS/ST/stm32f407xx.h"
 876              		.file 20 "lib/e-puck2_main-processor/ChibiOS//os/rt/ports/ARMCMx/chcore.h"
 877              		.file 21 "lib/e-puck2_main-processor/ChibiOS//os/rt/ports/ARMCMx/chcore_v7m.h"
 878              		.file 22 "lib/e-puck2_main-processor/ChibiOS//os/rt/include/chdebug.h"
 879              		.file 23 "lib/e-puck2_main-processor/ChibiOS//os/rt/include/chtm.h"
 880              		.file 24 "lib/e-puck2_main-processor/ChibiOS//os/rt/include/chstats.h"
 881              		.file 25 "lib/e-puck2_main-processor/ChibiOS//os/rt/include/chsem.h"
 882              		.file 26 "lib/e-puck2_main-processor/ChibiOS//os/rt/include/chmtx.h"
 883              		.file 27 "lib/e-puck2_main-processor/ChibiOS//os/rt/include/chregistry.h"
 884              		.file 28 "lib/e-puck2_main-processor/ChibiOS//os/rt/include/chevents.h"
 885              		.file 29 "lib/e-puck2_main-processor/ChibiOS//os/rt/include/chqueues.h"
 886              		.file 30 "lib/e-puck2_main-processor/ChibiOS//os/rt/include/chstreams.h"
 887              		.file 31 "lib/e-puck2_main-processor/ChibiOS//os/hal/ports/STM32/STM32F4xx/stm32_dma.h"
 888              		.file 32 "lib/e-puck2_main-processor/ChibiOS//os/hal/include/hal_ioblock.h"
 889              		.file 33 "lib/e-puck2_main-processor/ChibiOS//os/hal/ports/STM32/LLD/GPIOv2/pal_lld.h"
 890              		.file 34 "lib/e-puck2_main-processor/ChibiOS//os/hal/include/adc.h"
 891              		.file 35 "lib/e-puck2_main-processor/ChibiOS//os/hal/ports/STM32/STM32F4xx/adc_lld.h"
 892              		.file 36 "lib/e-puck2_main-processor/ChibiOS//os/hal/include/can.h"
 893              		.file 37 "lib/e-puck2_main-processor/ChibiOS//os/hal/ports/STM32/LLD/can_lld.h"
 894              		.file 38 "lib/e-puck2_main-processor/ChibiOS//os/hal/include/dac.h"
 895              		.file 39 "lib/e-puck2_main-processor/ChibiOS//os/hal/ports/STM32/LLD/DACv1/dac_lld.h"
 896              		.file 40 "lib/e-puck2_main-processor/ChibiOS//os/hal/include/ext.h"
 897              		.file 41 "lib/e-puck2_main-processor/ChibiOS//os/hal/ports/STM32/LLD/ext_lld.h"
 898              		.file 42 "lib/e-puck2_main-processor/ChibiOS//os/hal/include/gpt.h"
 899              		.file 43 "lib/e-puck2_main-processor/ChibiOS//os/hal/ports/STM32/LLD/TIMv1/gpt_lld.h"
 900              		.file 44 "lib/e-puck2_main-processor/ChibiOS//os/hal/ports/STM32/LLD/TIMv1/stm32_tim.h"
 901              		.file 45 "lib/e-puck2_main-processor/ChibiOS//os/hal/include/i2c.h"
 902              		.file 46 "lib/e-puck2_main-processor/ChibiOS//os/hal/ports/STM32/LLD/I2Cv1/i2c_lld.h"
 903              		.file 47 "lib/e-puck2_main-processor/ChibiOS//os/hal/include/i2s.h"
 904              		.file 48 "lib/e-puck2_main-processor/ChibiOS//os/hal/ports/STM32/LLD/SPIv1/i2s_lld.h"
 905              		.file 49 "lib/e-puck2_main-processor/ChibiOS//os/hal/include/pwm.h"
 906              		.file 50 "lib/e-puck2_main-processor/ChibiOS//os/hal/ports/STM32/LLD/TIMv1/pwm_lld.h"
 907              		.file 51 "lib/e-puck2_main-processor/ChibiOS//os/hal/include/serial.h"
ARM GAS  /var/folders/qd/4mxf5pkd0zdf0b9dd1hp39180000gn/T//cctSaefb.s 			page 17


 908              		.file 52 "lib/e-puck2_main-processor/ChibiOS//os/hal/ports/STM32/LLD/USARTv1/serial_lld.h"
 909              		.file 53 "lib/e-puck2_main-processor/ChibiOS//os/hal/include/sdc.h"
 910              		.file 54 "lib/e-puck2_main-processor/ChibiOS//os/hal/ports/STM32/LLD/sdc_lld.h"
 911              		.file 55 "lib/e-puck2_main-processor/ChibiOS//os/hal/include/spi.h"
 912              		.file 56 "lib/e-puck2_main-processor/ChibiOS//os/hal/ports/STM32/LLD/SPIv1/spi_lld.h"
 913              		.file 57 "lib/e-puck2_main-processor/ChibiOS//os/hal/include/usb.h"
 914              		.file 58 "lib/e-puck2_main-processor/ChibiOS//os/hal/ports/STM32/LLD/OTGv1/usb_lld.h"
 915              		.file 59 "lib/e-puck2_main-processor/ChibiOS//os/hal/ports/STM32/LLD/OTGv1/stm32_otg.h"
 916              		.file 60 "/Applications/Eclipse_e-puck2.app/Contents/Eclipse_e-puck2/Tools/gcc-arm-none-eabi-7-201
 917              		.file 61 "modules/headers/mod_secure_conv.h"
 918              		.file 62 "modules/headers/mod_check.h"
 919              		.file 63 "lib/e-puck2_main-processor/ChibiOS//os/rt/include/chthreads.h"