ARM GAS  /var/folders/qd/4mxf5pkd0zdf0b9dd1hp39180000gn/T//ccEUejPK.s 			page 1


   1              		.cpu cortex-m4
   2              		.eabi_attribute 27, 1
   3              		.eabi_attribute 28, 1
   4              		.eabi_attribute 20, 1
   5              		.eabi_attribute 21, 1
   6              		.eabi_attribute 23, 3
   7              		.eabi_attribute 24, 1
   8              		.eabi_attribute 25, 1
   9              		.eabi_attribute 26, 1
  10              		.eabi_attribute 30, 2
  11              		.eabi_attribute 34, 1
  12              		.eabi_attribute 18, 4
  13              		.file	"mod_sensors.c"
  14              		.text
  15              	.Ltext0:
  16              		.cfi_sections	.debug_frame
  17              		.section	.text.getIRSensorsValues,"ax",%progbits
  18              		.align	1
  19              		.p2align 4,,15
  20              		.global	getIRSensorsValues
  21              		.syntax unified
  22              		.thumb
  23              		.thumb_func
  24              		.fpu fpv4-sp-d16
  25              		.type	getIRSensorsValues, %function
  26              	getIRSensorsValues:
  27              	.LFB222:
  28              		.file 1 "./modules/mod_sensors.c"
  29              		.loc 1 38 0
  30              		.cfi_startproc
  31              		@ args = 0, pretend = 0, frame = 8
  32              		@ frame_needed = 0, uses_anonymous_args = 0
  33              	.LVL0:
  34 0000 30B5     		push	{r4, r5, lr}
  35              		.cfi_def_cfa_offset 12
  36              		.cfi_offset 4, -12
  37              		.cfi_offset 5, -8
  38              		.cfi_offset 14, -4
  39 0002 0B4C     		ldr	r4, .L7
  40              		.loc 1 39 0
  41 0004 0B49     		ldr	r1, .L7+4
  42              		.loc 1 38 0
  43 0006 2368     		ldr	r3, [r4]
  44 0008 83B0     		sub	sp, sp, #12
  45              		.cfi_def_cfa_offset 24
  46              		.loc 1 38 0
  47 000a 0546     		mov	r5, r0
  48              		.loc 1 39 0
  49 000c 0A48     		ldr	r0, .L7+8
  50              	.LVL1:
  51              		.loc 1 38 0
  52 000e 0193     		str	r3, [sp, #4]
  53              		.loc 1 39 0
  54 0010 FFF7FEFF 		bl	messagebus_find_topic_blocking
  55              	.LVL2:
  56              		.loc 1 40 0
  57 0014 019A     		ldr	r2, [sp, #4]
ARM GAS  /var/folders/qd/4mxf5pkd0zdf0b9dd1hp39180000gn/T//ccEUejPK.s 			page 2


  58 0016 2368     		ldr	r3, [r4]
  59 0018 9A42     		cmp	r2, r3
  60 001a 06D1     		bne	.L6
  61 001c 2946     		mov	r1, r5
  62 001e 8022     		movs	r2, #128
  63              		.loc 1 41 0
  64 0020 03B0     		add	sp, sp, #12
  65              		.cfi_remember_state
  66              		.cfi_def_cfa_offset 12
  67              		@ sp needed
  68 0022 BDE83040 		pop	{r4, r5, lr}
  69              		.cfi_restore 14
  70              		.cfi_restore 5
  71              		.cfi_restore 4
  72              		.cfi_def_cfa_offset 0
  73              	.LVL3:
  74              		.loc 1 40 0
  75 0026 FFF7FEBF 		b	messagebus_topic_wait
  76              	.LVL4:
  77              	.L6:
  78              		.cfi_restore_state
  79 002a FFF7FEFF 		bl	__stack_chk_fail
  80              	.LVL5:
  81              	.L8:
  82 002e 00BF     		.align	2
  83              	.L7:
  84 0030 00000000 		.word	__stack_chk_guard
  85 0034 00000000 		.word	.LC0
  86 0038 00000000 		.word	bus
  87              		.cfi_endproc
  88              	.LFE222:
  89              		.size	getIRSensorsValues, .-getIRSensorsValues
  90              		.section	.text.mod_sensors_calibrateFrontSensor,"ax",%progbits
  91              		.align	1
  92              		.p2align 4,,15
  93              		.global	mod_sensors_calibrateFrontSensor
  94              		.syntax unified
  95              		.thumb
  96              		.thumb_func
  97              		.fpu fpv4-sp-d16
  98              		.type	mod_sensors_calibrateFrontSensor, %function
  99              	mod_sensors_calibrateFrontSensor:
 100              	.LFB223:
 101              		.loc 1 47 0
 102              		.cfi_startproc
 103              		@ args = 0, pretend = 0, frame = 8
 104              		@ frame_needed = 0, uses_anonymous_args = 0
 105              	.LVL6:
 106 0000 30B5     		push	{r4, r5, lr}
 107              		.cfi_def_cfa_offset 12
 108              		.cfi_offset 4, -12
 109              		.cfi_offset 5, -8
 110              		.cfi_offset 14, -4
 111 0002 094D     		ldr	r5, .L13
 112 0004 83B0     		sub	sp, sp, #12
 113              		.cfi_def_cfa_offset 24
 114              		.loc 1 47 0
ARM GAS  /var/folders/qd/4mxf5pkd0zdf0b9dd1hp39180000gn/T//ccEUejPK.s 			page 3


 115 0006 2B68     		ldr	r3, [r5]
 116 0008 0193     		str	r3, [sp, #4]
 117 000a 0446     		mov	r4, r0
 118              		.loc 1 48 0
 119 000c FFF7FEFF 		bl	VL53L0X_get_dist_mm
 120              	.LVL7:
 121              		.loc 1 49 0
 122 0010 019A     		ldr	r2, [sp, #4]
 123 0012 2B68     		ldr	r3, [r5]
 124              		.loc 1 48 0
 125 0014 0549     		ldr	r1, .L13+4
 126 0016 001B     		subs	r0, r0, r4
 127              		.loc 1 49 0
 128 0018 9A42     		cmp	r2, r3
 129              		.loc 1 48 0
 130 001a 0860     		str	r0, [r1]
 131              		.loc 1 49 0
 132 001c 01D1     		bne	.L12
 133 001e 03B0     		add	sp, sp, #12
 134              		.cfi_remember_state
 135              		.cfi_def_cfa_offset 12
 136              		@ sp needed
 137 0020 30BD     		pop	{r4, r5, pc}
 138              	.LVL8:
 139              	.L12:
 140              		.cfi_restore_state
 141 0022 FFF7FEFF 		bl	__stack_chk_fail
 142              	.LVL9:
 143              	.L14:
 144 0026 00BF     		.align	2
 145              	.L13:
 146 0028 00000000 		.word	__stack_chk_guard
 147 002c 00000000 		.word	.LANCHOR0
 148              		.cfi_endproc
 149              	.LFE223:
 150              		.size	mod_sensors_calibrateFrontSensor, .-mod_sensors_calibrateFrontSensor
 151              		.section	.text.mod_sensors_getValueTOF,"ax",%progbits
 152              		.align	1
 153              		.p2align 4,,15
 154              		.global	mod_sensors_getValueTOF
 155              		.syntax unified
 156              		.thumb
 157              		.thumb_func
 158              		.fpu fpv4-sp-d16
 159              		.type	mod_sensors_getValueTOF, %function
 160              	mod_sensors_getValueTOF:
 161              	.LFB224:
 162              		.loc 1 51 0
 163              		.cfi_startproc
 164              		@ args = 0, pretend = 0, frame = 8
 165              		@ frame_needed = 0, uses_anonymous_args = 0
 166 0000 10B5     		push	{r4, lr}
 167              		.cfi_def_cfa_offset 8
 168              		.cfi_offset 4, -8
 169              		.cfi_offset 14, -4
 170 0002 094C     		ldr	r4, .L19
 171 0004 82B0     		sub	sp, sp, #8
ARM GAS  /var/folders/qd/4mxf5pkd0zdf0b9dd1hp39180000gn/T//ccEUejPK.s 			page 4


 172              		.cfi_def_cfa_offset 16
 173              		.loc 1 51 0
 174 0006 2368     		ldr	r3, [r4]
 175 0008 0193     		str	r3, [sp, #4]
 176              		.loc 1 52 0
 177 000a FFF7FEFF 		bl	VL53L0X_get_dist_mm
 178              	.LVL10:
 179 000e 074B     		ldr	r3, .L19+4
 180              		.loc 1 54 0
 181 0010 019A     		ldr	r2, [sp, #4]
 182              		.loc 1 52 0
 183 0012 1968     		ldr	r1, [r3]
 184              		.loc 1 54 0
 185 0014 2368     		ldr	r3, [r4]
 186 0016 9A42     		cmp	r2, r3
 187 0018 A0EB0100 		sub	r0, r0, r1
 188 001c 01D1     		bne	.L18
 189 001e 02B0     		add	sp, sp, #8
 190              		.cfi_remember_state
 191              		.cfi_def_cfa_offset 8
 192              		@ sp needed
 193 0020 10BD     		pop	{r4, pc}
 194              	.L18:
 195              		.cfi_restore_state
 196 0022 FFF7FEFF 		bl	__stack_chk_fail
 197              	.LVL11:
 198              	.L20:
 199 0026 00BF     		.align	2
 200              	.L19:
 201 0028 00000000 		.word	__stack_chk_guard
 202 002c 00000000 		.word	.LANCHOR0
 203              		.cfi_endproc
 204              	.LFE224:
 205              		.size	mod_sensors_getValueTOF, .-mod_sensors_getValueTOF
 206              		.section	.text.mod_sensors_initSensors,"ax",%progbits
 207              		.align	1
 208              		.p2align 4,,15
 209              		.global	mod_sensors_initSensors
 210              		.syntax unified
 211              		.thumb
 212              		.thumb_func
 213              		.fpu fpv4-sp-d16
 214              		.type	mod_sensors_initSensors, %function
 215              	mod_sensors_initSensors:
 216              	.LFB225:
 217              		.loc 1 56 0
 218              		.cfi_startproc
 219              		@ args = 0, pretend = 0, frame = 8
 220              		@ frame_needed = 0, uses_anonymous_args = 0
 221 0000 10B5     		push	{r4, lr}
 222              		.cfi_def_cfa_offset 8
 223              		.cfi_offset 4, -8
 224              		.cfi_offset 14, -4
 225 0002 0B4C     		ldr	r4, .L26
 226 0004 82B0     		sub	sp, sp, #8
 227              		.cfi_def_cfa_offset 16
 228              		.loc 1 56 0
ARM GAS  /var/folders/qd/4mxf5pkd0zdf0b9dd1hp39180000gn/T//ccEUejPK.s 			page 5


 229 0006 2368     		ldr	r3, [r4]
 230 0008 0193     		str	r3, [sp, #4]
 231              		.loc 1 58 0
 232 000a FFF7FEFF 		bl	VL53L0X_start
 233              	.LVL12:
 234              		.loc 1 61 0
 235 000e 094A     		ldr	r2, .L26+4
 236 0010 0949     		ldr	r1, .L26+8
 237 0012 0A48     		ldr	r0, .L26+12
 238 0014 FFF7FEFF 		bl	messagebus_init
 239              	.LVL13:
 240              		.loc 1 62 0
 241 0018 019A     		ldr	r2, [sp, #4]
 242 001a 2368     		ldr	r3, [r4]
 243 001c 9A42     		cmp	r2, r3
 244 001e 04D1     		bne	.L25
 245              		.loc 1 63 0
 246 0020 02B0     		add	sp, sp, #8
 247              		.cfi_remember_state
 248              		.cfi_def_cfa_offset 8
 249              		@ sp needed
 250 0022 BDE81040 		pop	{r4, lr}
 251              		.cfi_restore 14
 252              		.cfi_restore 4
 253              		.cfi_def_cfa_offset 0
 254              		.loc 1 62 0
 255 0026 FFF7FEBF 		b	proximity_start
 256              	.LVL14:
 257              	.L25:
 258              		.cfi_restore_state
 259 002a FFF7FEFF 		bl	__stack_chk_fail
 260              	.LVL15:
 261              	.L27:
 262 002e 00BF     		.align	2
 263              	.L26:
 264 0030 00000000 		.word	__stack_chk_guard
 265 0034 00000000 		.word	.LANCHOR1
 266 0038 00000000 		.word	.LANCHOR2
 267 003c 00000000 		.word	bus
 268              		.cfi_endproc
 269              	.LFE225:
 270              		.size	mod_sensors_initSensors, .-mod_sensors_initSensors
 271              		.section	.text.mod_sensors_stopSensors,"ax",%progbits
 272              		.align	1
 273              		.p2align 4,,15
 274              		.global	mod_sensors_stopSensors
 275              		.syntax unified
 276              		.thumb
 277              		.thumb_func
 278              		.fpu fpv4-sp-d16
 279              		.type	mod_sensors_stopSensors, %function
 280              	mod_sensors_stopSensors:
 281              	.LFB226:
 282              		.loc 1 65 0
 283              		.cfi_startproc
 284              		@ args = 0, pretend = 0, frame = 8
 285              		@ frame_needed = 0, uses_anonymous_args = 0
ARM GAS  /var/folders/qd/4mxf5pkd0zdf0b9dd1hp39180000gn/T//ccEUejPK.s 			page 6


 286 0000 00B5     		push	{lr}
 287              		.cfi_def_cfa_offset 4
 288              		.cfi_offset 14, -4
 289 0002 074B     		ldr	r3, .L33
 290 0004 83B0     		sub	sp, sp, #12
 291              		.cfi_def_cfa_offset 16
 292              		.loc 1 65 0
 293 0006 1A68     		ldr	r2, [r3]
 294 0008 0192     		str	r2, [sp, #4]
 295              		.loc 1 67 0
 296 000a 019A     		ldr	r2, [sp, #4]
 297 000c 1B68     		ldr	r3, [r3]
 298 000e 9A42     		cmp	r2, r3
 299 0010 04D1     		bne	.L32
 300              		.loc 1 68 0
 301 0012 03B0     		add	sp, sp, #12
 302              		.cfi_remember_state
 303              		.cfi_def_cfa_offset 4
 304              		@ sp needed
 305 0014 5DF804EB 		ldr	lr, [sp], #4
 306              		.cfi_restore 14
 307              		.cfi_def_cfa_offset 0
 308              		.loc 1 67 0
 309 0018 FFF7FEBF 		b	VL53L0X_stop
 310              	.LVL16:
 311              	.L32:
 312              		.cfi_restore_state
 313 001c FFF7FEFF 		bl	__stack_chk_fail
 314              	.LVL17:
 315              	.L34:
 316              		.align	2
 317              	.L33:
 318 0020 00000000 		.word	__stack_chk_guard
 319              		.cfi_endproc
 320              	.LFE226:
 321              		.size	mod_sensors_stopSensors, .-mod_sensors_stopSensors
 322              		.section	.text.mod_sensors_calibrateIRSensors,"ax",%progbits
 323              		.align	1
 324              		.p2align 4,,15
 325              		.global	mod_sensors_calibrateIRSensors
 326              		.syntax unified
 327              		.thumb
 328              		.thumb_func
 329              		.fpu fpv4-sp-d16
 330              		.type	mod_sensors_calibrateIRSensors, %function
 331              	mod_sensors_calibrateIRSensors:
 332              	.LFB227:
 333              		.loc 1 70 0
 334              		.cfi_startproc
 335              		@ args = 0, pretend = 0, frame = 136
 336              		@ frame_needed = 0, uses_anonymous_args = 0
 337              	.LVL18:
 338 0000 F0B5     		push	{r4, r5, r6, r7, lr}
 339              		.cfi_def_cfa_offset 20
 340              		.cfi_offset 4, -20
 341              		.cfi_offset 5, -16
 342              		.cfi_offset 6, -12
ARM GAS  /var/folders/qd/4mxf5pkd0zdf0b9dd1hp39180000gn/T//ccEUejPK.s 			page 7


 343              		.cfi_offset 7, -8
 344              		.cfi_offset 14, -4
 345 0002 184E     		ldr	r6, .L42
 346              		.loc 1 78 0
 347 0004 184D     		ldr	r5, .L42+4
 348              		.loc 1 70 0
 349 0006 3368     		ldr	r3, [r6]
 350 0008 A3B0     		sub	sp, sp, #140
 351              		.cfi_def_cfa_offset 160
 352              		.loc 1 70 0
 353 000a 0446     		mov	r4, r0
 354              		.loc 1 76 0
 355 000c 01A8     		add	r0, sp, #4
 356              	.LVL19:
 357              		.loc 1 70 0
 358 000e 2193     		str	r3, [sp, #132]
 359              		.loc 1 76 0
 360 0010 FFF7FEFF 		bl	getIRSensorsValues
 361              	.LVL20:
 362              		.loc 1 78 0
 363 0014 2B78     		ldrb	r3, [r5]	@ zero_extendqisi2
 364 0016 DBB1     		cbz	r3, .L40
 365              		.loc 1 84 0
 366 0018 1449     		ldr	r1, .L42+8
 367 001a 119A     		ldr	r2, [sp, #68]
 368              		.loc 1 85 0
 369 001c DFF850E0 		ldr	lr, .L42+12
 370              		.loc 1 84 0
 371 0020 DFF850C0 		ldr	ip, .L42+16
 372 0024 D1E90017 		ldrd	r1, r7, [r1]
 373 0028 601A     		subs	r0, r4, r1
 374 002a D21B     		subs	r2, r2, r7
 375 002c B2FBF0F0 		udiv	r0, r2, r0
 376              		.loc 1 85 0
 377 0030 00FB01F1 		mul	r1, r0, r1
 378 0034 C91B     		subs	r1, r1, r7
 379 0036 CEF80010 		str	r1, [lr]
 380              		.loc 1 84 0
 381 003a CCF80000 		str	r0, [ip]
 382              	.L37:
 383              		.loc 1 89 0
 384 003e 2199     		ldr	r1, [sp, #132]
 385 0040 3268     		ldr	r2, [r6]
 386              		.loc 1 87 0
 387 0042 83F00103 		eor	r3, r3, #1
 388              		.loc 1 89 0
 389 0046 9142     		cmp	r1, r2
 390              		.loc 1 87 0
 391 0048 2B70     		strb	r3, [r5]
 392              		.loc 1 89 0
 393 004a 09D1     		bne	.L41
 394 004c 23B0     		add	sp, sp, #140
 395              		.cfi_remember_state
 396              		.cfi_def_cfa_offset 20
 397              		@ sp needed
 398 004e F0BD     		pop	{r4, r5, r6, r7, pc}
 399              	.LVL21:
ARM GAS  /var/folders/qd/4mxf5pkd0zdf0b9dd1hp39180000gn/T//ccEUejPK.s 			page 8


 400              	.L40:
 401              		.cfi_restore_state
 402              		.loc 1 79 0
 403 0050 FFF7FEFF 		bl	calibrate_ir
 404              	.LVL22:
 405              		.loc 1 80 0
 406 0054 054B     		ldr	r3, .L42+8
 407              		.loc 1 81 0
 408 0056 119A     		ldr	r2, [sp, #68]
 409 0058 C3E90042 		strd	r4, r2, [r3]
 410 005c 2B78     		ldrb	r3, [r5]	@ zero_extendqisi2
 411 005e EEE7     		b	.L37
 412              	.L41:
 413              		.loc 1 89 0
 414 0060 FFF7FEFF 		bl	__stack_chk_fail
 415              	.LVL23:
 416              	.L43:
 417              		.align	2
 418              	.L42:
 419 0064 00000000 		.word	__stack_chk_guard
 420 0068 00000000 		.word	.LANCHOR3
 421 006c 00000000 		.word	.LANCHOR4
 422 0070 00000000 		.word	.LANCHOR6
 423 0074 00000000 		.word	.LANCHOR5
 424              		.cfi_endproc
 425              	.LFE227:
 426              		.size	mod_sensors_calibrateIRSensors, .-mod_sensors_calibrateIRSensors
 427              		.section	.text.mod_sensors_getAllProximityValues,"ax",%progbits
 428              		.align	1
 429              		.p2align 4,,15
 430              		.global	mod_sensors_getAllProximityValues
 431              		.syntax unified
 432              		.thumb
 433              		.thumb_func
 434              		.fpu fpv4-sp-d16
 435              		.type	mod_sensors_getAllProximityValues, %function
 436              	mod_sensors_getAllProximityValues:
 437              	.LFB228:
 438              		.loc 1 92 0
 439              		.cfi_startproc
 440              		@ args = 0, pretend = 0, frame = 136
 441              		@ frame_needed = 0, uses_anonymous_args = 0
 442              	.LVL24:
 443 0000 F0B5     		push	{r4, r5, r6, r7, lr}
 444              		.cfi_def_cfa_offset 20
 445              		.cfi_offset 4, -20
 446              		.cfi_offset 5, -16
 447              		.cfi_offset 6, -12
 448              		.cfi_offset 7, -8
 449              		.cfi_offset 14, -4
 450 0002 104F     		ldr	r7, .L50
 451 0004 A3B0     		sub	sp, sp, #140
 452              		.cfi_def_cfa_offset 160
 453              		.loc 1 92 0
 454 0006 0446     		mov	r4, r0
 455 0008 3B68     		ldr	r3, [r7]
 456 000a 2193     		str	r3, [sp, #132]
ARM GAS  /var/folders/qd/4mxf5pkd0zdf0b9dd1hp39180000gn/T//ccEUejPK.s 			page 9


 457              		.loc 1 95 0
 458 000c 01A8     		add	r0, sp, #4
 459              	.LVL25:
 460 000e FFF7FEFF 		bl	getIRSensorsValues
 461              	.LVL26:
 462              		.loc 1 99 0
 463 0012 0D4B     		ldr	r3, .L50+4
 464 0014 0D4A     		ldr	r2, .L50+8
 465 0016 1D68     		ldr	r5, [r3]
 466 0018 1668     		ldr	r6, [r2]
 467 001a 04F11C00 		add	r0, r4, #28
 468 001e 221F     		subs	r2, r4, #4
 469 0020 11A9     		add	r1, sp, #68
 470              	.LVL27:
 471              	.L45:
 472              		.loc 1 99 0 is_stmt 0 discriminator 3
 473 0022 51F8043B 		ldr	r3, [r1], #4
 474 0026 3344     		add	r3, r3, r6
 475 0028 B3FBF5F3 		udiv	r3, r3, r5
 476 002c 42F8043F 		str	r3, [r2, #4]!
 477              		.loc 1 98 0 is_stmt 1 discriminator 3
 478 0030 8242     		cmp	r2, r0
 479 0032 F6D1     		bne	.L45
 480              		.loc 1 101 0
 481 0034 219A     		ldr	r2, [sp, #132]
 482 0036 3B68     		ldr	r3, [r7]
 483 0038 9A42     		cmp	r2, r3
 484 003a 01D1     		bne	.L49
 485 003c 23B0     		add	sp, sp, #140
 486              		.cfi_remember_state
 487              		.cfi_def_cfa_offset 20
 488              		@ sp needed
 489 003e F0BD     		pop	{r4, r5, r6, r7, pc}
 490              	.LVL28:
 491              	.L49:
 492              		.cfi_restore_state
 493 0040 FFF7FEFF 		bl	__stack_chk_fail
 494              	.LVL29:
 495              	.L51:
 496              		.align	2
 497              	.L50:
 498 0044 00000000 		.word	__stack_chk_guard
 499 0048 00000000 		.word	.LANCHOR5
 500 004c 00000000 		.word	.LANCHOR6
 501              		.cfi_endproc
 502              	.LFE228:
 503              		.size	mod_sensors_getAllProximityValues, .-mod_sensors_getAllProximityValues
 504              		.global	bus_condvar
 505              		.global	bus_lock
 506              		.section	.bss.i.10160,"aw",%nobits
 507              		.set	.LANCHOR3,. + 0
 508              		.type	i.10160, %object
 509              		.size	i.10160, 1
 510              	i.10160:
 511 0000 00       		.space	1
 512              		.section	.bss.previousValue.10161,"aw",%nobits
 513              		.align	2
ARM GAS  /var/folders/qd/4mxf5pkd0zdf0b9dd1hp39180000gn/T//ccEUejPK.s 			page 10


 514              		.set	.LANCHOR4,. + 0
 515              		.type	previousValue.10161, %object
 516              		.size	previousValue.10161, 8
 517              	previousValue.10161:
 518 0000 00000000 		.space	8
 518      00000000 
 519              		.section	.bss.proximity_bias,"aw",%nobits
 520              		.align	2
 521              		.set	.LANCHOR6,. + 0
 522              		.type	proximity_bias, %object
 523              		.size	proximity_bias, 4
 524              	proximity_bias:
 525 0000 00000000 		.space	4
 526              		.section	.bss.tof_bias,"aw",%nobits
 527              		.align	2
 528              		.set	.LANCHOR0,. + 0
 529              		.type	tof_bias, %object
 530              		.size	tof_bias, 4
 531              	tof_bias:
 532 0000 00000000 		.space	4
 533              		.section	.data.bus_condvar,"aw",%progbits
 534              		.align	2
 535              		.set	.LANCHOR1,. + 0
 536              		.type	bus_condvar, %object
 537              		.size	bus_condvar, 8
 538              	bus_condvar:
 539 0000 00000000 		.word	bus_condvar
 540 0004 00000000 		.word	bus_condvar
 541              		.section	.data.bus_lock,"aw",%progbits
 542              		.align	2
 543              		.set	.LANCHOR2,. + 0
 544              		.type	bus_lock, %object
 545              		.size	bus_lock, 20
 546              	bus_lock:
 547 0000 00000000 		.word	bus_lock
 548 0004 00000000 		.word	bus_lock
 549 0008 00000000 		.word	0
 550 000c 00000000 		.word	0
 551 0010 00000000 		.word	0
 552              		.section	.data.proximity_divider,"aw",%progbits
 553              		.align	2
 554              		.set	.LANCHOR5,. + 0
 555              		.type	proximity_divider, %object
 556              		.size	proximity_divider, 4
 557              	proximity_divider:
 558 0000 01000000 		.word	1
 559              		.section	.rodata.getIRSensorsValues.str1.4,"aMS",%progbits,1
 560              		.align	2
 561              	.LC0:
 562 0000 2F70726F 		.ascii	"/proximity\000"
 562      78696D69 
 562      747900
 563              		.text
 564              	.Letext0:
 565              		.file 2 "/Applications/Eclipse_e-puck2.app/Contents/Eclipse_e-puck2/Tools/gcc-arm-none-eabi-7-2017
 566              		.file 3 "/Applications/Eclipse_e-puck2.app/Contents/Eclipse_e-puck2/Tools/gcc-arm-none-eabi-7-2017
 567              		.file 4 "/Applications/Eclipse_e-puck2.app/Contents/Eclipse_e-puck2/Tools/gcc-arm-none-eabi-7-2017
ARM GAS  /var/folders/qd/4mxf5pkd0zdf0b9dd1hp39180000gn/T//ccEUejPK.s 			page 11


 568              		.file 5 "lib/e-puck2_main-processor/ChibiOS//os/rt/ports/ARMCMx/compilers/GCC/chtypes.h"
 569              		.file 6 "lib/e-puck2_main-processor/ChibiOS//os/rt/include/chsystypes.h"
 570              		.file 7 "lib/e-puck2_main-processor/ChibiOS//os/rt/include/chschd.h"
 571              		.file 8 "lib/e-puck2_main-processor/ChibiOS//os/ext/CMSIS/include/core_cm4.h"
 572              		.file 9 "lib/e-puck2_main-processor/ChibiOS//os/ext/CMSIS/ST/system_stm32f4xx.h"
 573              		.file 10 "lib/e-puck2_main-processor/ChibiOS//os/rt/ports/ARMCMx/chcore.h"
 574              		.file 11 "lib/e-puck2_main-processor/ChibiOS//os/rt/ports/ARMCMx/chcore_v7m.h"
 575              		.file 12 "lib/e-puck2_main-processor/ChibiOS//os/rt/include/chdebug.h"
 576              		.file 13 "lib/e-puck2_main-processor/ChibiOS//os/rt/include/chtm.h"
 577              		.file 14 "lib/e-puck2_main-processor/ChibiOS//os/rt/include/chstats.h"
 578              		.file 15 "lib/e-puck2_main-processor/ChibiOS//os/rt/include/chsem.h"
 579              		.file 16 "lib/e-puck2_main-processor/ChibiOS//os/rt/include/chmtx.h"
 580              		.file 17 "lib/e-puck2_main-processor/ChibiOS//os/rt/include/chregistry.h"
 581              		.file 18 "lib/e-puck2_main-processor/ChibiOS//os/rt/include/chcond.h"
 582              		.file 19 "/Applications/Eclipse_e-puck2.app/Contents/Eclipse_e-puck2/Tools/gcc-arm-none-eabi-7-201
 583              		.file 20 "/Applications/Eclipse_e-puck2.app/Contents/Eclipse_e-puck2/Tools/gcc-arm-none-eabi-7-201
 584              		.file 21 "/Applications/Eclipse_e-puck2.app/Contents/Eclipse_e-puck2/Tools/gcc-arm-none-eabi-7-201
 585              		.file 22 "lib/e-puck2_main-processor/src/msgbus/messagebus.h"
 586              		.file 23 "lib/e-puck2_main-processor/src/sensors/proximity.h"
 587              		.file 24 "/Applications/Eclipse_e-puck2.app/Contents/Eclipse_e-puck2/Tools/gcc-arm-none-eabi-7-201
 588              		.file 25 "lib/e-puck2_main-processor/src/sensors/VL53L0X/VL53L0X.h"
 589              		.section	.debug_info,"",%progbits
 590              	.Ldebug_info0:
 591 0000 19170000 		.4byte	0x1719
 592 0004 0400     		.2byte	0x4
 593 0006 00000000 		.4byte	.Ldebug_abbrev0
 594 000a 04       		.byte	0x4
 595 000b 01       		.uleb128 0x1
 596 000c 5E000000 		.4byte	.LASF325
 597 0010 0C       		.byte	0xc
 598 0011 7A0C0000 		.4byte	.LASF326
 599 0015 47020000 		.4byte	.LASF327
 600 0019 00000000 		.4byte	.Ldebug_ranges0+0
 601 001d 00000000 		.4byte	0
 602 0021 00000000 		.4byte	.Ldebug_line0
 603 0025 02       		.uleb128 0x2
 604 0026 01       		.byte	0x1
 605 0027 06       		.byte	0x6
 606 0028 3F040000 		.4byte	.LASF0
 607 002c 03       		.uleb128 0x3
 608 002d 4C030000 		.4byte	.LASF3
 609 0031 02       		.byte	0x2
 610 0032 2B       		.byte	0x2b
 611 0033 37000000 		.4byte	0x37
 612 0037 02       		.uleb128 0x2
 613 0038 01       		.byte	0x1
 614 0039 08       		.byte	0x8
 615 003a B4040000 		.4byte	.LASF1
 616 003e 02       		.uleb128 0x2
 617 003f 02       		.byte	0x2
 618 0040 05       		.byte	0x5
 619 0041 030D0000 		.4byte	.LASF2
 620 0045 03       		.uleb128 0x3
 621 0046 6C050000 		.4byte	.LASF4
 622 004a 02       		.byte	0x2
 623 004b 39       		.byte	0x39
 624 004c 50000000 		.4byte	0x50
ARM GAS  /var/folders/qd/4mxf5pkd0zdf0b9dd1hp39180000gn/T//ccEUejPK.s 			page 12


 625 0050 02       		.uleb128 0x2
 626 0051 02       		.byte	0x2
 627 0052 07       		.byte	0x7
 628 0053 710E0000 		.4byte	.LASF5
 629 0057 03       		.uleb128 0x3
 630 0058 C80E0000 		.4byte	.LASF6
 631 005c 02       		.byte	0x2
 632 005d 4D       		.byte	0x4d
 633 005e 62000000 		.4byte	0x62
 634 0062 02       		.uleb128 0x2
 635 0063 04       		.byte	0x4
 636 0064 05       		.byte	0x5
 637 0065 95030000 		.4byte	.LASF7
 638 0069 03       		.uleb128 0x3
 639 006a 5A080000 		.4byte	.LASF8
 640 006e 02       		.byte	0x2
 641 006f 4F       		.byte	0x4f
 642 0070 74000000 		.4byte	0x74
 643 0074 02       		.uleb128 0x2
 644 0075 04       		.byte	0x4
 645 0076 07       		.byte	0x7
 646 0077 E5060000 		.4byte	.LASF9
 647 007b 02       		.uleb128 0x2
 648 007c 08       		.byte	0x8
 649 007d 05       		.byte	0x5
 650 007e 81080000 		.4byte	.LASF10
 651 0082 03       		.uleb128 0x3
 652 0083 D2060000 		.4byte	.LASF11
 653 0087 02       		.byte	0x2
 654 0088 69       		.byte	0x69
 655 0089 8D000000 		.4byte	0x8d
 656 008d 02       		.uleb128 0x2
 657 008e 08       		.byte	0x8
 658 008f 07       		.byte	0x7
 659 0090 490B0000 		.4byte	.LASF12
 660 0094 04       		.uleb128 0x4
 661 0095 04       		.byte	0x4
 662 0096 05       		.byte	0x5
 663 0097 696E7400 		.ascii	"int\000"
 664 009b 02       		.uleb128 0x2
 665 009c 04       		.byte	0x4
 666 009d 07       		.byte	0x7
 667 009e 71090000 		.4byte	.LASF13
 668 00a2 03       		.uleb128 0x3
 669 00a3 55040000 		.4byte	.LASF14
 670 00a7 03       		.byte	0x3
 671 00a8 18       		.byte	0x18
 672 00a9 2C000000 		.4byte	0x2c
 673 00ad 03       		.uleb128 0x3
 674 00ae 680B0000 		.4byte	.LASF15
 675 00b2 03       		.byte	0x3
 676 00b3 24       		.byte	0x24
 677 00b4 45000000 		.4byte	0x45
 678 00b8 03       		.uleb128 0x3
 679 00b9 C3010000 		.4byte	.LASF16
 680 00bd 03       		.byte	0x3
 681 00be 2C       		.byte	0x2c
ARM GAS  /var/folders/qd/4mxf5pkd0zdf0b9dd1hp39180000gn/T//ccEUejPK.s 			page 13


 682 00bf 57000000 		.4byte	0x57
 683 00c3 05       		.uleb128 0x5
 684 00c4 B8000000 		.4byte	0xb8
 685 00c8 03       		.uleb128 0x3
 686 00c9 460E0000 		.4byte	.LASF17
 687 00cd 03       		.byte	0x3
 688 00ce 30       		.byte	0x30
 689 00cf 69000000 		.4byte	0x69
 690 00d3 03       		.uleb128 0x3
 691 00d4 160D0000 		.4byte	.LASF18
 692 00d8 03       		.byte	0x3
 693 00d9 3C       		.byte	0x3c
 694 00da 82000000 		.4byte	0x82
 695 00de 06       		.uleb128 0x6
 696 00df 04       		.byte	0x4
 697 00e0 E4000000 		.4byte	0xe4
 698 00e4 07       		.uleb128 0x7
 699 00e5 0F000000 		.4byte	.LASF161
 700 00e9 03       		.uleb128 0x3
 701 00ea 08000000 		.4byte	.LASF19
 702 00ee 04       		.byte	0x4
 703 00ef D8       		.byte	0xd8
 704 00f0 9B000000 		.4byte	0x9b
 705 00f4 02       		.uleb128 0x2
 706 00f5 08       		.byte	0x8
 707 00f6 04       		.byte	0x4
 708 00f7 8E0A0000 		.4byte	.LASF20
 709 00fb 03       		.uleb128 0x3
 710 00fc 88090000 		.4byte	.LASF21
 711 0100 05       		.byte	0x5
 712 0101 45       		.byte	0x45
 713 0102 C8000000 		.4byte	0xc8
 714 0106 03       		.uleb128 0x3
 715 0107 FA030000 		.4byte	.LASF22
 716 010b 05       		.byte	0x5
 717 010c 46       		.byte	0x46
 718 010d D3000000 		.4byte	0xd3
 719 0111 03       		.uleb128 0x3
 720 0112 720C0000 		.4byte	.LASF23
 721 0116 05       		.byte	0x5
 722 0117 48       		.byte	0x48
 723 0118 A2000000 		.4byte	0xa2
 724 011c 03       		.uleb128 0x3
 725 011d F1030000 		.4byte	.LASF24
 726 0121 05       		.byte	0x5
 727 0122 49       		.byte	0x49
 728 0123 A2000000 		.4byte	0xa2
 729 0127 03       		.uleb128 0x3
 730 0128 DE0D0000 		.4byte	.LASF25
 731 012c 05       		.byte	0x5
 732 012d 4A       		.byte	0x4a
 733 012e A2000000 		.4byte	0xa2
 734 0132 03       		.uleb128 0x3
 735 0133 B10B0000 		.4byte	.LASF26
 736 0137 05       		.byte	0x5
 737 0138 4B       		.byte	0x4b
 738 0139 A2000000 		.4byte	0xa2
ARM GAS  /var/folders/qd/4mxf5pkd0zdf0b9dd1hp39180000gn/T//ccEUejPK.s 			page 14


 739 013d 03       		.uleb128 0x3
 740 013e 56000000 		.4byte	.LASF27
 741 0142 05       		.byte	0x5
 742 0143 4C       		.byte	0x4c
 743 0144 C8000000 		.4byte	0xc8
 744 0148 03       		.uleb128 0x3
 745 0149 7D0B0000 		.4byte	.LASF28
 746 014d 05       		.byte	0x5
 747 014e 4D       		.byte	0x4d
 748 014f B8000000 		.4byte	0xb8
 749 0153 03       		.uleb128 0x3
 750 0154 7F040000 		.4byte	.LASF29
 751 0158 05       		.byte	0x5
 752 0159 4F       		.byte	0x4f
 753 015a C8000000 		.4byte	0xc8
 754 015e 03       		.uleb128 0x3
 755 015f 05060000 		.4byte	.LASF30
 756 0163 05       		.byte	0x5
 757 0164 51       		.byte	0x51
 758 0165 B8000000 		.4byte	0xb8
 759 0169 03       		.uleb128 0x3
 760 016a A9070000 		.4byte	.LASF31
 761 016e 05       		.byte	0x5
 762 016f 52       		.byte	0x52
 763 0170 C8000000 		.4byte	0xc8
 764 0174 03       		.uleb128 0x3
 765 0175 2D000000 		.4byte	.LASF32
 766 0179 06       		.byte	0x6
 767 017a 33       		.byte	0x33
 768 017b C8000000 		.4byte	0xc8
 769 017f 05       		.uleb128 0x5
 770 0180 74010000 		.4byte	0x174
 771 0184 03       		.uleb128 0x3
 772 0185 850A0000 		.4byte	.LASF33
 773 0189 06       		.byte	0x6
 774 018a 3F       		.byte	0x3f
 775 018b 8F010000 		.4byte	0x18f
 776 018f 08       		.uleb128 0x8
 777 0190 4C070000 		.4byte	.LASF57
 778 0194 68       		.byte	0x68
 779 0195 07       		.byte	0x7
 780 0196 C2       		.byte	0xc2
 781 0197 AD020000 		.4byte	0x2ad
 782 019b 09       		.uleb128 0x9
 783 019c 9E030000 		.4byte	.LASF34
 784 01a0 07       		.byte	0x7
 785 01a1 C3       		.byte	0xc3
 786 01a2 B8020000 		.4byte	0x2b8
 787 01a6 00       		.byte	0
 788 01a7 09       		.uleb128 0x9
 789 01a8 CE030000 		.4byte	.LASF35
 790 01ac 07       		.byte	0x7
 791 01ad C5       		.byte	0xc5
 792 01ae B8020000 		.4byte	0x2b8
 793 01b2 04       		.byte	0x4
 794 01b3 09       		.uleb128 0x9
 795 01b4 65050000 		.4byte	.LASF36
ARM GAS  /var/folders/qd/4mxf5pkd0zdf0b9dd1hp39180000gn/T//ccEUejPK.s 			page 15


 796 01b8 07       		.byte	0x7
 797 01b9 C7       		.byte	0xc7
 798 01ba 3D010000 		.4byte	0x13d
 799 01be 08       		.byte	0x8
 800 01bf 09       		.uleb128 0x9
 801 01c0 4A000000 		.4byte	.LASF37
 802 01c4 07       		.byte	0x7
 803 01c5 C8       		.byte	0xc8
 804 01c6 31050000 		.4byte	0x531
 805 01ca 0C       		.byte	0xc
 806 01cb 09       		.uleb128 0x9
 807 01cc 7F030000 		.4byte	.LASF38
 808 01d0 07       		.byte	0x7
 809 01d1 CA       		.byte	0xca
 810 01d2 B8020000 		.4byte	0x2b8
 811 01d6 10       		.byte	0x10
 812 01d7 09       		.uleb128 0x9
 813 01d8 600B0000 		.4byte	.LASF39
 814 01dc 07       		.byte	0x7
 815 01dd CB       		.byte	0xcb
 816 01de B8020000 		.4byte	0x2b8
 817 01e2 14       		.byte	0x14
 818 01e3 09       		.uleb128 0x9
 819 01e4 ED0E0000 		.4byte	.LASF40
 820 01e8 07       		.byte	0x7
 821 01e9 D2       		.byte	0xd2
 822 01ea A7080000 		.4byte	0x8a7
 823 01ee 18       		.byte	0x18
 824 01ef 09       		.uleb128 0x9
 825 01f0 BD0E0000 		.4byte	.LASF41
 826 01f4 07       		.byte	0x7
 827 01f5 D8       		.byte	0xd8
 828 01f6 BE080000 		.4byte	0x8be
 829 01fa 1C       		.byte	0x1c
 830 01fb 09       		.uleb128 0x9
 831 01fc 340F0000 		.4byte	.LASF42
 832 0200 07       		.byte	0x7
 833 0201 DD       		.byte	0xdd
 834 0202 1C010000 		.4byte	0x11c
 835 0206 20       		.byte	0x20
 836 0207 09       		.uleb128 0x9
 837 0208 5A090000 		.4byte	.LASF43
 838 020c 07       		.byte	0x7
 839 020d E1       		.byte	0xe1
 840 020e 11010000 		.4byte	0x111
 841 0212 21       		.byte	0x21
 842 0213 09       		.uleb128 0x9
 843 0214 A1090000 		.4byte	.LASF44
 844 0218 07       		.byte	0x7
 845 0219 E6       		.byte	0xe6
 846 021a 27010000 		.4byte	0x127
 847 021e 22       		.byte	0x22
 848 021f 09       		.uleb128 0x9
 849 0220 4B040000 		.4byte	.LASF45
 850 0224 07       		.byte	0x7
 851 0225 EC       		.byte	0xec
 852 0226 32010000 		.4byte	0x132
ARM GAS  /var/folders/qd/4mxf5pkd0zdf0b9dd1hp39180000gn/T//ccEUejPK.s 			page 16


 853 022a 23       		.byte	0x23
 854 022b 09       		.uleb128 0x9
 855 022c 570A0000 		.4byte	.LASF46
 856 0230 07       		.byte	0x7
 857 0231 F3       		.byte	0xf3
 858 0232 7F010000 		.4byte	0x17f
 859 0236 24       		.byte	0x24
 860 0237 0A       		.uleb128 0xa
 861 0238 705F7500 		.ascii	"p_u\000"
 862 023c 07       		.byte	0x7
 863 023d 3101     		.2byte	0x131
 864 023f D6070000 		.4byte	0x7d6
 865 0243 28       		.byte	0x28
 866 0244 0B       		.uleb128 0xb
 867 0245 46090000 		.4byte	.LASF47
 868 0249 07       		.byte	0x7
 869 024a 3601     		.2byte	0x136
 870 024c BE020000 		.4byte	0x2be
 871 0250 2C       		.byte	0x2c
 872 0251 0B       		.uleb128 0xb
 873 0252 AB010000 		.4byte	.LASF48
 874 0256 07       		.byte	0x7
 875 0257 3C01     		.2byte	0x13c
 876 0259 E2020000 		.4byte	0x2e2
 877 025d 30       		.byte	0x30
 878 025e 0B       		.uleb128 0xb
 879 025f 2E0F0000 		.4byte	.LASF49
 880 0263 07       		.byte	0x7
 881 0264 4001     		.2byte	0x140
 882 0266 48010000 		.4byte	0x148
 883 026a 38       		.byte	0x38
 884 026b 0B       		.uleb128 0xb
 885 026c 47060000 		.4byte	.LASF50
 886 0270 07       		.byte	0x7
 887 0271 4601     		.2byte	0x146
 888 0273 53010000 		.4byte	0x153
 889 0277 3C       		.byte	0x3c
 890 0278 0B       		.uleb128 0xb
 891 0279 13040000 		.4byte	.LASF51
 892 027d 07       		.byte	0x7
 893 027e 4D01     		.2byte	0x14d
 894 0280 A1080000 		.4byte	0x8a1
 895 0284 40       		.byte	0x40
 896 0285 0B       		.uleb128 0xb
 897 0286 AD0A0000 		.4byte	.LASF52
 898 028a 07       		.byte	0x7
 899 028b 5101     		.2byte	0x151
 900 028d 3D010000 		.4byte	0x13d
 901 0291 44       		.byte	0x44
 902 0292 0B       		.uleb128 0xb
 903 0293 90090000 		.4byte	.LASF53
 904 0297 07       		.byte	0x7
 905 0298 5801     		.2byte	0x158
 906 029a 95030000 		.4byte	0x395
 907 029e 48       		.byte	0x48
 908 029f 0B       		.uleb128 0xb
 909 02a0 00000000 		.4byte	.LASF54
ARM GAS  /var/folders/qd/4mxf5pkd0zdf0b9dd1hp39180000gn/T//ccEUejPK.s 			page 17


 910 02a4 07       		.byte	0x7
 911 02a5 5E01     		.2byte	0x15e
 912 02a7 87070000 		.4byte	0x787
 913 02ab 50       		.byte	0x50
 914 02ac 00       		.byte	0
 915 02ad 03       		.uleb128 0x3
 916 02ae 9A0A0000 		.4byte	.LASF55
 917 02b2 06       		.byte	0x6
 918 02b3 44       		.byte	0x44
 919 02b4 B8020000 		.4byte	0x2b8
 920 02b8 06       		.uleb128 0x6
 921 02b9 04       		.byte	0x4
 922 02ba 84010000 		.4byte	0x184
 923 02be 03       		.uleb128 0x3
 924 02bf FD0D0000 		.4byte	.LASF56
 925 02c3 06       		.byte	0x6
 926 02c4 49       		.byte	0x49
 927 02c5 C9020000 		.4byte	0x2c9
 928 02c9 08       		.uleb128 0x8
 929 02ca BE070000 		.4byte	.LASF58
 930 02ce 04       		.byte	0x4
 931 02cf 07       		.byte	0x7
 932 02d0 B0       		.byte	0xb0
 933 02d1 E2020000 		.4byte	0x2e2
 934 02d5 09       		.uleb128 0x9
 935 02d6 9E030000 		.4byte	.LASF34
 936 02da 07       		.byte	0x7
 937 02db B1       		.byte	0xb1
 938 02dc B8020000 		.4byte	0x2b8
 939 02e0 00       		.byte	0
 940 02e1 00       		.byte	0
 941 02e2 03       		.uleb128 0x3
 942 02e3 03040000 		.4byte	.LASF59
 943 02e7 06       		.byte	0x6
 944 02e8 50       		.byte	0x50
 945 02e9 ED020000 		.4byte	0x2ed
 946 02ed 08       		.uleb128 0x8
 947 02ee 830B0000 		.4byte	.LASF60
 948 02f2 08       		.byte	0x8
 949 02f3 07       		.byte	0x7
 950 02f4 B7       		.byte	0xb7
 951 02f5 12030000 		.4byte	0x312
 952 02f9 09       		.uleb128 0x9
 953 02fa 9E030000 		.4byte	.LASF34
 954 02fe 07       		.byte	0x7
 955 02ff B8       		.byte	0xb8
 956 0300 B8020000 		.4byte	0x2b8
 957 0304 00       		.byte	0
 958 0305 09       		.uleb128 0x9
 959 0306 CE030000 		.4byte	.LASF35
 960 030a 07       		.byte	0x7
 961 030b B9       		.byte	0xb9
 962 030c B8020000 		.4byte	0x2b8
 963 0310 04       		.byte	0x4
 964 0311 00       		.byte	0
 965 0312 03       		.uleb128 0x3
 966 0313 83070000 		.4byte	.LASF61
ARM GAS  /var/folders/qd/4mxf5pkd0zdf0b9dd1hp39180000gn/T//ccEUejPK.s 			page 18


 967 0317 06       		.byte	0x6
 968 0318 57       		.byte	0x57
 969 0319 1D030000 		.4byte	0x31d
 970 031d 0C       		.uleb128 0xc
 971 031e 5E060000 		.4byte	.LASF62
 972 0322 1C       		.byte	0x1c
 973 0323 07       		.byte	0x7
 974 0324 9001     		.2byte	0x190
 975 0326 79030000 		.4byte	0x379
 976 032a 0B       		.uleb128 0xb
 977 032b 3E0C0000 		.4byte	.LASF63
 978 032f 07       		.byte	0x7
 979 0330 9101     		.2byte	0x191
 980 0332 E2020000 		.4byte	0x2e2
 981 0336 00       		.byte	0
 982 0337 0B       		.uleb128 0xb
 983 0338 500D0000 		.4byte	.LASF64
 984 033c 07       		.byte	0x7
 985 033d 9201     		.2byte	0x192
 986 033f 3D010000 		.4byte	0x13d
 987 0343 08       		.byte	0x8
 988 0344 0B       		.uleb128 0xb
 989 0345 BD010000 		.4byte	.LASF65
 990 0349 07       		.byte	0x7
 991 034a 9401     		.2byte	0x194
 992 034c 31050000 		.4byte	0x531
 993 0350 0C       		.byte	0xc
 994 0351 0B       		.uleb128 0xb
 995 0352 F2040000 		.4byte	.LASF66
 996 0356 07       		.byte	0x7
 997 0357 9701     		.2byte	0x197
 998 0359 B8020000 		.4byte	0x2b8
 999 035d 10       		.byte	0x10
 1000 035e 0B       		.uleb128 0xb
 1001 035f B20C0000 		.4byte	.LASF67
 1002 0363 07       		.byte	0x7
 1003 0364 9801     		.2byte	0x198
 1004 0366 B8020000 		.4byte	0x2b8
 1005 036a 14       		.byte	0x14
 1006 036b 0B       		.uleb128 0xb
 1007 036c C10B0000 		.4byte	.LASF68
 1008 0370 07       		.byte	0x7
 1009 0371 9B01     		.2byte	0x19b
 1010 0373 B8020000 		.4byte	0x2b8
 1011 0377 18       		.byte	0x18
 1012 0378 00       		.byte	0
 1013 0379 03       		.uleb128 0x3
 1014 037a EB010000 		.4byte	.LASF69
 1015 037e 06       		.byte	0x6
 1016 037f 5C       		.byte	0x5c
 1017 0380 84030000 		.4byte	0x384
 1018 0384 06       		.uleb128 0x6
 1019 0385 04       		.byte	0x4
 1020 0386 8A030000 		.4byte	0x38a
 1021 038a 0D       		.uleb128 0xd
 1022 038b 95030000 		.4byte	0x395
 1023 038f 0E       		.uleb128 0xe
ARM GAS  /var/folders/qd/4mxf5pkd0zdf0b9dd1hp39180000gn/T//ccEUejPK.s 			page 19


 1024 0390 95030000 		.4byte	0x395
 1025 0394 00       		.byte	0
 1026 0395 0F       		.uleb128 0xf
 1027 0396 04       		.byte	0x4
 1028 0397 03       		.uleb128 0x3
 1029 0398 73070000 		.4byte	.LASF70
 1030 039c 06       		.byte	0x6
 1031 039d 61       		.byte	0x61
 1032 039e A2030000 		.4byte	0x3a2
 1033 03a2 0C       		.uleb128 0xc
 1034 03a3 020B0000 		.4byte	.LASF71
 1035 03a7 14       		.byte	0x14
 1036 03a8 07       		.byte	0x7
 1037 03a9 6B01     		.2byte	0x16b
 1038 03ab F1030000 		.4byte	0x3f1
 1039 03af 0B       		.uleb128 0xb
 1040 03b0 BC080000 		.4byte	.LASF72
 1041 03b4 07       		.byte	0x7
 1042 03b5 6C01     		.2byte	0x16c
 1043 03b7 C4080000 		.4byte	0x8c4
 1044 03bb 00       		.byte	0
 1045 03bc 0B       		.uleb128 0xb
 1046 03bd E0080000 		.4byte	.LASF73
 1047 03c1 07       		.byte	0x7
 1048 03c2 6D01     		.2byte	0x16d
 1049 03c4 C4080000 		.4byte	0x8c4
 1050 03c8 04       		.byte	0x4
 1051 03c9 0B       		.uleb128 0xb
 1052 03ca E00A0000 		.4byte	.LASF74
 1053 03ce 07       		.byte	0x7
 1054 03cf 6E01     		.2byte	0x16e
 1055 03d1 74010000 		.4byte	0x174
 1056 03d5 08       		.byte	0x8
 1057 03d6 0B       		.uleb128 0xb
 1058 03d7 19060000 		.4byte	.LASF75
 1059 03db 07       		.byte	0x7
 1060 03dc 6F01     		.2byte	0x16f
 1061 03de 79030000 		.4byte	0x379
 1062 03e2 0C       		.byte	0xc
 1063 03e3 0B       		.uleb128 0xb
 1064 03e4 36030000 		.4byte	.LASF76
 1065 03e8 07       		.byte	0x7
 1066 03e9 7101     		.2byte	0x171
 1067 03eb 95030000 		.4byte	0x395
 1068 03ef 10       		.byte	0x10
 1069 03f0 00       		.byte	0
 1070 03f1 03       		.uleb128 0x3
 1071 03f2 56070000 		.4byte	.LASF77
 1072 03f6 06       		.byte	0x6
 1073 03f7 66       		.byte	0x66
 1074 03f8 FC030000 		.4byte	0x3fc
 1075 03fc 0C       		.uleb128 0xc
 1076 03fd F4010000 		.4byte	.LASF78
 1077 0401 10       		.byte	0x10
 1078 0402 07       		.byte	0x7
 1079 0403 7B01     		.2byte	0x17b
 1080 0405 3E040000 		.4byte	0x43e
ARM GAS  /var/folders/qd/4mxf5pkd0zdf0b9dd1hp39180000gn/T//ccEUejPK.s 			page 20


 1081 0409 0B       		.uleb128 0xb
 1082 040a BC080000 		.4byte	.LASF72
 1083 040e 07       		.byte	0x7
 1084 040f 7C01     		.2byte	0x17c
 1085 0411 C4080000 		.4byte	0x8c4
 1086 0415 00       		.byte	0
 1087 0416 0B       		.uleb128 0xb
 1088 0417 E0080000 		.4byte	.LASF73
 1089 041b 07       		.byte	0x7
 1090 041c 7E01     		.2byte	0x17e
 1091 041e C4080000 		.4byte	0x8c4
 1092 0422 04       		.byte	0x4
 1093 0423 0B       		.uleb128 0xb
 1094 0424 E00A0000 		.4byte	.LASF74
 1095 0428 07       		.byte	0x7
 1096 0429 8001     		.2byte	0x180
 1097 042b 74010000 		.4byte	0x174
 1098 042f 08       		.byte	0x8
 1099 0430 0B       		.uleb128 0xb
 1100 0431 920C0000 		.4byte	.LASF79
 1101 0435 07       		.byte	0x7
 1102 0436 8201     		.2byte	0x182
 1103 0438 7F010000 		.4byte	0x17f
 1104 043c 0C       		.byte	0xc
 1105 043d 00       		.byte	0
 1106 043e 03       		.uleb128 0x3
 1107 043f 17050000 		.4byte	.LASF80
 1108 0443 06       		.byte	0x6
 1109 0444 6B       		.byte	0x6b
 1110 0445 49040000 		.4byte	0x449
 1111 0449 10       		.uleb128 0x10
 1112 044a 6F0D0000 		.4byte	.LASF81
 1113 044e 1404     		.2byte	0x414
 1114 0450 07       		.byte	0x7
 1115 0451 A201     		.2byte	0x1a2
 1116 0453 8C040000 		.4byte	0x48c
 1117 0457 0B       		.uleb128 0xb
 1118 0458 C2040000 		.4byte	.LASF82
 1119 045c 07       		.byte	0x7
 1120 045d AA01     		.2byte	0x1aa
 1121 045f AD080000 		.4byte	0x8ad
 1122 0463 00       		.byte	0
 1123 0464 0B       		.uleb128 0xb
 1124 0465 98060000 		.4byte	.LASF83
 1125 0469 07       		.byte	0x7
 1126 046a AF01     		.2byte	0x1af
 1127 046c 5E010000 		.4byte	0x15e
 1128 0470 04       		.byte	0x4
 1129 0471 0B       		.uleb128 0xb
 1130 0472 B4020000 		.4byte	.LASF84
 1131 0476 07       		.byte	0x7
 1132 0477 B301     		.2byte	0x1b3
 1133 0479 5E010000 		.4byte	0x15e
 1134 047d 08       		.byte	0x8
 1135 047e 0B       		.uleb128 0xb
 1136 047f E5040000 		.4byte	.LASF85
 1137 0483 07       		.byte	0x7
ARM GAS  /var/folders/qd/4mxf5pkd0zdf0b9dd1hp39180000gn/T//ccEUejPK.s 			page 21


 1138 0484 B901     		.2byte	0x1b9
 1139 0486 19070000 		.4byte	0x719
 1140 048a 0C       		.byte	0xc
 1141 048b 00       		.byte	0
 1142 048c 03       		.uleb128 0x3
 1143 048d 8E0E0000 		.4byte	.LASF86
 1144 0491 06       		.byte	0x6
 1145 0492 70       		.byte	0x70
 1146 0493 97040000 		.4byte	0x497
 1147 0497 10       		.uleb128 0x10
 1148 0498 1C0E0000 		.4byte	.LASF87
 1149 049c 7006     		.2byte	0x670
 1150 049e 07       		.byte	0x7
 1151 049f C201     		.2byte	0x1c2
 1152 04a1 04050000 		.4byte	0x504
 1153 04a5 0B       		.uleb128 0xb
 1154 04a6 5E0C0000 		.4byte	.LASF88
 1155 04aa 07       		.byte	0x7
 1156 04ab C601     		.2byte	0x1c6
 1157 04ad 12030000 		.4byte	0x312
 1158 04b1 00       		.byte	0
 1159 04b2 0B       		.uleb128 0xb
 1160 04b3 9F0D0000 		.4byte	.LASF89
 1161 04b7 07       		.byte	0x7
 1162 04b8 CA01     		.2byte	0x1ca
 1163 04ba F1030000 		.4byte	0x3f1
 1164 04be 1C       		.byte	0x1c
 1165 04bf 0A       		.uleb128 0xa
 1166 04c0 64626700 		.ascii	"dbg\000"
 1167 04c4 07       		.byte	0x7
 1168 04c5 CE01     		.2byte	0x1ce
 1169 04c7 3E040000 		.4byte	0x43e
 1170 04cb 2C       		.byte	0x2c
 1171 04cc 11       		.uleb128 0x11
 1172 04cd 010C0000 		.4byte	.LASF90
 1173 04d1 07       		.byte	0x7
 1174 04d2 D201     		.2byte	0x1d2
 1175 04d4 84010000 		.4byte	0x184
 1176 04d8 4004     		.2byte	0x440
 1177 04da 12       		.uleb128 0x12
 1178 04db 746D00   		.ascii	"tm\000"
 1179 04de 07       		.byte	0x7
 1180 04df D701     		.2byte	0x1d7
 1181 04e1 39070000 		.4byte	0x739
 1182 04e5 A804     		.2byte	0x4a8
 1183 04e7 11       		.uleb128 0x11
 1184 04e8 2F0B0000 		.4byte	.LASF91
 1185 04ec 07       		.byte	0x7
 1186 04ed DD01     		.2byte	0x1dd
 1187 04ef CB070000 		.4byte	0x7cb
 1188 04f3 B004     		.2byte	0x4b0
 1189 04f5 11       		.uleb128 0x11
 1190 04f6 62090000 		.4byte	.LASF92
 1191 04fa 07       		.byte	0x7
 1192 04fb E301     		.2byte	0x1e3
 1193 04fd CA080000 		.4byte	0x8ca
 1194 0501 E804     		.2byte	0x4e8
ARM GAS  /var/folders/qd/4mxf5pkd0zdf0b9dd1hp39180000gn/T//ccEUejPK.s 			page 22


 1195 0503 00       		.byte	0
 1196 0504 13       		.uleb128 0x13
 1197 0505 22090000 		.4byte	.LASF93
 1198 0509 08       		.byte	0x8
 1199 050a A706     		.2byte	0x6a7
 1200 050c C3000000 		.4byte	0xc3
 1201 0510 14       		.uleb128 0x14
 1202 0511 2F070000 		.4byte	.LASF94
 1203 0515 09       		.byte	0x9
 1204 0516 4C       		.byte	0x4c
 1205 0517 C8000000 		.4byte	0xc8
 1206 051b 03       		.uleb128 0x3
 1207 051c 1D040000 		.4byte	.LASF95
 1208 0520 0A       		.byte	0xa
 1209 0521 65       		.byte	0x65
 1210 0522 95030000 		.4byte	0x395
 1211 0526 03       		.uleb128 0x3
 1212 0527 CB050000 		.4byte	.LASF96
 1213 052b 0A       		.byte	0xa
 1214 052c 6D       		.byte	0x6d
 1215 052d D3000000 		.4byte	0xd3
 1216 0531 08       		.uleb128 0x8
 1217 0532 8B040000 		.4byte	.LASF97
 1218 0536 04       		.byte	0x4
 1219 0537 0A       		.byte	0xa
 1220 0538 89       		.byte	0x89
 1221 0539 4A050000 		.4byte	0x54a
 1222 053d 15       		.uleb128 0x15
 1223 053e 72313300 		.ascii	"r13\000"
 1224 0542 0A       		.byte	0xa
 1225 0543 8A       		.byte	0x8a
 1226 0544 8B060000 		.4byte	0x68b
 1227 0548 00       		.byte	0
 1228 0549 00       		.byte	0
 1229 054a 08       		.uleb128 0x8
 1230 054b B80A0000 		.4byte	.LASF98
 1231 054f 64       		.byte	0x64
 1232 0550 0B       		.byte	0xb
 1233 0551 F4       		.byte	0xf4
 1234 0552 8B060000 		.4byte	0x68b
 1235 0556 15       		.uleb128 0x15
 1236 0557 73313600 		.ascii	"s16\000"
 1237 055b 0B       		.byte	0xb
 1238 055c F6       		.byte	0xf6
 1239 055d 1B050000 		.4byte	0x51b
 1240 0561 00       		.byte	0
 1241 0562 15       		.uleb128 0x15
 1242 0563 73313700 		.ascii	"s17\000"
 1243 0567 0B       		.byte	0xb
 1244 0568 F7       		.byte	0xf7
 1245 0569 1B050000 		.4byte	0x51b
 1246 056d 04       		.byte	0x4
 1247 056e 15       		.uleb128 0x15
 1248 056f 73313800 		.ascii	"s18\000"
 1249 0573 0B       		.byte	0xb
 1250 0574 F8       		.byte	0xf8
 1251 0575 1B050000 		.4byte	0x51b
ARM GAS  /var/folders/qd/4mxf5pkd0zdf0b9dd1hp39180000gn/T//ccEUejPK.s 			page 23


 1252 0579 08       		.byte	0x8
 1253 057a 15       		.uleb128 0x15
 1254 057b 73313900 		.ascii	"s19\000"
 1255 057f 0B       		.byte	0xb
 1256 0580 F9       		.byte	0xf9
 1257 0581 1B050000 		.4byte	0x51b
 1258 0585 0C       		.byte	0xc
 1259 0586 15       		.uleb128 0x15
 1260 0587 73323000 		.ascii	"s20\000"
 1261 058b 0B       		.byte	0xb
 1262 058c FA       		.byte	0xfa
 1263 058d 1B050000 		.4byte	0x51b
 1264 0591 10       		.byte	0x10
 1265 0592 15       		.uleb128 0x15
 1266 0593 73323100 		.ascii	"s21\000"
 1267 0597 0B       		.byte	0xb
 1268 0598 FB       		.byte	0xfb
 1269 0599 1B050000 		.4byte	0x51b
 1270 059d 14       		.byte	0x14
 1271 059e 15       		.uleb128 0x15
 1272 059f 73323200 		.ascii	"s22\000"
 1273 05a3 0B       		.byte	0xb
 1274 05a4 FC       		.byte	0xfc
 1275 05a5 1B050000 		.4byte	0x51b
 1276 05a9 18       		.byte	0x18
 1277 05aa 15       		.uleb128 0x15
 1278 05ab 73323300 		.ascii	"s23\000"
 1279 05af 0B       		.byte	0xb
 1280 05b0 FD       		.byte	0xfd
 1281 05b1 1B050000 		.4byte	0x51b
 1282 05b5 1C       		.byte	0x1c
 1283 05b6 15       		.uleb128 0x15
 1284 05b7 73323400 		.ascii	"s24\000"
 1285 05bb 0B       		.byte	0xb
 1286 05bc FE       		.byte	0xfe
 1287 05bd 1B050000 		.4byte	0x51b
 1288 05c1 20       		.byte	0x20
 1289 05c2 15       		.uleb128 0x15
 1290 05c3 73323500 		.ascii	"s25\000"
 1291 05c7 0B       		.byte	0xb
 1292 05c8 FF       		.byte	0xff
 1293 05c9 1B050000 		.4byte	0x51b
 1294 05cd 24       		.byte	0x24
 1295 05ce 0A       		.uleb128 0xa
 1296 05cf 73323600 		.ascii	"s26\000"
 1297 05d3 0B       		.byte	0xb
 1298 05d4 0001     		.2byte	0x100
 1299 05d6 1B050000 		.4byte	0x51b
 1300 05da 28       		.byte	0x28
 1301 05db 0A       		.uleb128 0xa
 1302 05dc 73323700 		.ascii	"s27\000"
 1303 05e0 0B       		.byte	0xb
 1304 05e1 0101     		.2byte	0x101
 1305 05e3 1B050000 		.4byte	0x51b
 1306 05e7 2C       		.byte	0x2c
 1307 05e8 0A       		.uleb128 0xa
 1308 05e9 73323800 		.ascii	"s28\000"
ARM GAS  /var/folders/qd/4mxf5pkd0zdf0b9dd1hp39180000gn/T//ccEUejPK.s 			page 24


 1309 05ed 0B       		.byte	0xb
 1310 05ee 0201     		.2byte	0x102
 1311 05f0 1B050000 		.4byte	0x51b
 1312 05f4 30       		.byte	0x30
 1313 05f5 0A       		.uleb128 0xa
 1314 05f6 73323900 		.ascii	"s29\000"
 1315 05fa 0B       		.byte	0xb
 1316 05fb 0301     		.2byte	0x103
 1317 05fd 1B050000 		.4byte	0x51b
 1318 0601 34       		.byte	0x34
 1319 0602 0A       		.uleb128 0xa
 1320 0603 73333000 		.ascii	"s30\000"
 1321 0607 0B       		.byte	0xb
 1322 0608 0401     		.2byte	0x104
 1323 060a 1B050000 		.4byte	0x51b
 1324 060e 38       		.byte	0x38
 1325 060f 0A       		.uleb128 0xa
 1326 0610 73333100 		.ascii	"s31\000"
 1327 0614 0B       		.byte	0xb
 1328 0615 0501     		.2byte	0x105
 1329 0617 1B050000 		.4byte	0x51b
 1330 061b 3C       		.byte	0x3c
 1331 061c 0A       		.uleb128 0xa
 1332 061d 723400   		.ascii	"r4\000"
 1333 0620 0B       		.byte	0xb
 1334 0621 0701     		.2byte	0x107
 1335 0623 1B050000 		.4byte	0x51b
 1336 0627 40       		.byte	0x40
 1337 0628 0A       		.uleb128 0xa
 1338 0629 723500   		.ascii	"r5\000"
 1339 062c 0B       		.byte	0xb
 1340 062d 0801     		.2byte	0x108
 1341 062f 1B050000 		.4byte	0x51b
 1342 0633 44       		.byte	0x44
 1343 0634 0A       		.uleb128 0xa
 1344 0635 723600   		.ascii	"r6\000"
 1345 0638 0B       		.byte	0xb
 1346 0639 0901     		.2byte	0x109
 1347 063b 1B050000 		.4byte	0x51b
 1348 063f 48       		.byte	0x48
 1349 0640 0A       		.uleb128 0xa
 1350 0641 723700   		.ascii	"r7\000"
 1351 0644 0B       		.byte	0xb
 1352 0645 0A01     		.2byte	0x10a
 1353 0647 1B050000 		.4byte	0x51b
 1354 064b 4C       		.byte	0x4c
 1355 064c 0A       		.uleb128 0xa
 1356 064d 723800   		.ascii	"r8\000"
 1357 0650 0B       		.byte	0xb
 1358 0651 0B01     		.2byte	0x10b
 1359 0653 1B050000 		.4byte	0x51b
 1360 0657 50       		.byte	0x50
 1361 0658 0A       		.uleb128 0xa
 1362 0659 723900   		.ascii	"r9\000"
 1363 065c 0B       		.byte	0xb
 1364 065d 0C01     		.2byte	0x10c
 1365 065f 1B050000 		.4byte	0x51b
ARM GAS  /var/folders/qd/4mxf5pkd0zdf0b9dd1hp39180000gn/T//ccEUejPK.s 			page 25


 1366 0663 54       		.byte	0x54
 1367 0664 0A       		.uleb128 0xa
 1368 0665 72313000 		.ascii	"r10\000"
 1369 0669 0B       		.byte	0xb
 1370 066a 0D01     		.2byte	0x10d
 1371 066c 1B050000 		.4byte	0x51b
 1372 0670 58       		.byte	0x58
 1373 0671 0A       		.uleb128 0xa
 1374 0672 72313100 		.ascii	"r11\000"
 1375 0676 0B       		.byte	0xb
 1376 0677 0E01     		.2byte	0x10e
 1377 0679 1B050000 		.4byte	0x51b
 1378 067d 5C       		.byte	0x5c
 1379 067e 0A       		.uleb128 0xa
 1380 067f 6C7200   		.ascii	"lr\000"
 1381 0682 0B       		.byte	0xb
 1382 0683 0F01     		.2byte	0x10f
 1383 0685 1B050000 		.4byte	0x51b
 1384 0689 60       		.byte	0x60
 1385 068a 00       		.byte	0
 1386 068b 06       		.uleb128 0x6
 1387 068c 04       		.byte	0x4
 1388 068d 4A050000 		.4byte	0x54a
 1389 0691 16       		.uleb128 0x16
 1390 0692 10       		.byte	0x10
 1391 0693 0C       		.byte	0xc
 1392 0694 51       		.byte	0x51
 1393 0695 CA060000 		.4byte	0x6ca
 1394 0699 09       		.uleb128 0x9
 1395 069a E50E0000 		.4byte	.LASF99
 1396 069e 0C       		.byte	0xc
 1397 069f 55       		.byte	0x55
 1398 06a0 74010000 		.4byte	0x174
 1399 06a4 00       		.byte	0
 1400 06a5 09       		.uleb128 0x9
 1401 06a6 ED020000 		.4byte	.LASF100
 1402 06aa 0C       		.byte	0xc
 1403 06ab 59       		.byte	0x59
 1404 06ac B8020000 		.4byte	0x2b8
 1405 06b0 04       		.byte	0x4
 1406 06b1 09       		.uleb128 0x9
 1407 06b2 50090000 		.4byte	.LASF101
 1408 06b6 0C       		.byte	0xc
 1409 06b7 5D       		.byte	0x5d
 1410 06b8 95030000 		.4byte	0x395
 1411 06bc 08       		.byte	0x8
 1412 06bd 09       		.uleb128 0x9
 1413 06be B2060000 		.4byte	.LASF102
 1414 06c2 0C       		.byte	0xc
 1415 06c3 61       		.byte	0x61
 1416 06c4 A2000000 		.4byte	0xa2
 1417 06c8 0C       		.byte	0xc
 1418 06c9 00       		.byte	0
 1419 06ca 03       		.uleb128 0x3
 1420 06cb DE070000 		.4byte	.LASF103
 1421 06cf 0C       		.byte	0xc
 1422 06d0 62       		.byte	0x62
ARM GAS  /var/folders/qd/4mxf5pkd0zdf0b9dd1hp39180000gn/T//ccEUejPK.s 			page 26


 1423 06d1 91060000 		.4byte	0x691
 1424 06d5 17       		.uleb128 0x17
 1425 06d6 0804     		.2byte	0x408
 1426 06d8 0C       		.byte	0xc
 1427 06d9 67       		.byte	0x67
 1428 06da 03070000 		.4byte	0x703
 1429 06de 09       		.uleb128 0x9
 1430 06df F7080000 		.4byte	.LASF104
 1431 06e3 0C       		.byte	0xc
 1432 06e4 6B       		.byte	0x6b
 1433 06e5 9B000000 		.4byte	0x9b
 1434 06e9 00       		.byte	0
 1435 06ea 09       		.uleb128 0x9
 1436 06eb 000F0000 		.4byte	.LASF105
 1437 06ef 0C       		.byte	0xc
 1438 06f0 6F       		.byte	0x6f
 1439 06f1 03070000 		.4byte	0x703
 1440 06f5 04       		.byte	0x4
 1441 06f6 09       		.uleb128 0x9
 1442 06f7 450A0000 		.4byte	.LASF106
 1443 06fb 0C       		.byte	0xc
 1444 06fc 73       		.byte	0x73
 1445 06fd 09070000 		.4byte	0x709
 1446 0701 08       		.byte	0x8
 1447 0702 00       		.byte	0
 1448 0703 06       		.uleb128 0x6
 1449 0704 04       		.byte	0x4
 1450 0705 CA060000 		.4byte	0x6ca
 1451 0709 18       		.uleb128 0x18
 1452 070a CA060000 		.4byte	0x6ca
 1453 070e 19070000 		.4byte	0x719
 1454 0712 19       		.uleb128 0x19
 1455 0713 9B000000 		.4byte	0x9b
 1456 0717 3F       		.byte	0x3f
 1457 0718 00       		.byte	0
 1458 0719 03       		.uleb128 0x3
 1459 071a 35060000 		.4byte	.LASF107
 1460 071e 0C       		.byte	0xc
 1461 071f 74       		.byte	0x74
 1462 0720 D5060000 		.4byte	0x6d5
 1463 0724 16       		.uleb128 0x16
 1464 0725 04       		.byte	0x4
 1465 0726 0D       		.byte	0xd
 1466 0727 38       		.byte	0x38
 1467 0728 39070000 		.4byte	0x739
 1468 072c 09       		.uleb128 0x9
 1469 072d 3E0A0000 		.4byte	.LASF108
 1470 0731 0D       		.byte	0xd
 1471 0732 3C       		.byte	0x3c
 1472 0733 FB000000 		.4byte	0xfb
 1473 0737 00       		.byte	0
 1474 0738 00       		.byte	0
 1475 0739 03       		.uleb128 0x3
 1476 073a BA0C0000 		.4byte	.LASF109
 1477 073e 0D       		.byte	0xd
 1478 073f 3D       		.byte	0x3d
 1479 0740 24070000 		.4byte	0x724
ARM GAS  /var/folders/qd/4mxf5pkd0zdf0b9dd1hp39180000gn/T//ccEUejPK.s 			page 27


 1480 0744 16       		.uleb128 0x16
 1481 0745 18       		.byte	0x18
 1482 0746 0D       		.byte	0xd
 1483 0747 48       		.byte	0x48
 1484 0748 87070000 		.4byte	0x787
 1485 074c 09       		.uleb128 0x9
 1486 074d 2E0C0000 		.4byte	.LASF110
 1487 0751 0D       		.byte	0xd
 1488 0752 49       		.byte	0x49
 1489 0753 FB000000 		.4byte	0xfb
 1490 0757 00       		.byte	0
 1491 0758 09       		.uleb128 0x9
 1492 0759 FF050000 		.4byte	.LASF111
 1493 075d 0D       		.byte	0xd
 1494 075e 4A       		.byte	0x4a
 1495 075f FB000000 		.4byte	0xfb
 1496 0763 04       		.byte	0x4
 1497 0764 09       		.uleb128 0x9
 1498 0765 290F0000 		.4byte	.LASF112
 1499 0769 0D       		.byte	0xd
 1500 076a 4B       		.byte	0x4b
 1501 076b FB000000 		.4byte	0xfb
 1502 076f 08       		.byte	0x8
 1503 0770 15       		.uleb128 0x15
 1504 0771 6E00     		.ascii	"n\000"
 1505 0773 0D       		.byte	0xd
 1506 0774 4C       		.byte	0x4c
 1507 0775 69010000 		.4byte	0x169
 1508 0779 0C       		.byte	0xc
 1509 077a 09       		.uleb128 0x9
 1510 077b 34040000 		.4byte	.LASF113
 1511 077f 0D       		.byte	0xd
 1512 0780 4D       		.byte	0x4d
 1513 0781 06010000 		.4byte	0x106
 1514 0785 10       		.byte	0x10
 1515 0786 00       		.byte	0
 1516 0787 03       		.uleb128 0x3
 1517 0788 F3020000 		.4byte	.LASF114
 1518 078c 0D       		.byte	0xd
 1519 078d 4E       		.byte	0x4e
 1520 078e 44070000 		.4byte	0x744
 1521 0792 16       		.uleb128 0x16
 1522 0793 38       		.byte	0x38
 1523 0794 0E       		.byte	0xe
 1524 0795 38       		.byte	0x38
 1525 0796 CB070000 		.4byte	0x7cb
 1526 079a 09       		.uleb128 0x9
 1527 079b 25080000 		.4byte	.LASF115
 1528 079f 0E       		.byte	0xe
 1529 07a0 39       		.byte	0x39
 1530 07a1 69010000 		.4byte	0x169
 1531 07a5 00       		.byte	0
 1532 07a6 09       		.uleb128 0x9
 1533 07a7 7E050000 		.4byte	.LASF116
 1534 07ab 0E       		.byte	0xe
 1535 07ac 3A       		.byte	0x3a
 1536 07ad 69010000 		.4byte	0x169
ARM GAS  /var/folders/qd/4mxf5pkd0zdf0b9dd1hp39180000gn/T//ccEUejPK.s 			page 28


 1537 07b1 04       		.byte	0x4
 1538 07b2 09       		.uleb128 0x9
 1539 07b3 C7060000 		.4byte	.LASF117
 1540 07b7 0E       		.byte	0xe
 1541 07b8 3B       		.byte	0x3b
 1542 07b9 87070000 		.4byte	0x787
 1543 07bd 08       		.byte	0x8
 1544 07be 09       		.uleb128 0x9
 1545 07bf A0060000 		.4byte	.LASF118
 1546 07c3 0E       		.byte	0xe
 1547 07c4 3D       		.byte	0x3d
 1548 07c5 87070000 		.4byte	0x787
 1549 07c9 20       		.byte	0x20
 1550 07ca 00       		.byte	0
 1551 07cb 03       		.uleb128 0x3
 1552 07cc D4090000 		.4byte	.LASF119
 1553 07d0 0E       		.byte	0xe
 1554 07d1 3F       		.byte	0x3f
 1555 07d2 92070000 		.4byte	0x792
 1556 07d6 1A       		.uleb128 0x1a
 1557 07d7 04       		.byte	0x4
 1558 07d8 07       		.byte	0x7
 1559 07d9 FA       		.byte	0xfa
 1560 07da 33080000 		.4byte	0x833
 1561 07de 1B       		.uleb128 0x1b
 1562 07df 650E0000 		.4byte	.LASF120
 1563 07e3 07       		.byte	0x7
 1564 07e4 0101     		.2byte	0x101
 1565 07e6 48010000 		.4byte	0x148
 1566 07ea 1B       		.uleb128 0x1b
 1567 07eb 43030000 		.4byte	.LASF121
 1568 07ef 07       		.byte	0x7
 1569 07f0 0801     		.2byte	0x108
 1570 07f2 48010000 		.4byte	0x148
 1571 07f6 1B       		.uleb128 0x1b
 1572 07f7 77050000 		.4byte	.LASF122
 1573 07fb 07       		.byte	0x7
 1574 07fc 0F01     		.2byte	0x10f
 1575 07fe 95030000 		.4byte	0x395
 1576 0802 1B       		.uleb128 0x1b
 1577 0803 A6040000 		.4byte	.LASF123
 1578 0807 07       		.byte	0x7
 1579 0808 1601     		.2byte	0x116
 1580 080a 33080000 		.4byte	0x833
 1581 080e 1B       		.uleb128 0x1b
 1582 080f 1A000000 		.4byte	.LASF124
 1583 0813 07       		.byte	0x7
 1584 0814 1E01     		.2byte	0x11e
 1585 0816 5E080000 		.4byte	0x85e
 1586 081a 1B       		.uleb128 0x1b
 1587 081b 52060000 		.4byte	.LASF125
 1588 081f 07       		.byte	0x7
 1589 0820 2701     		.2byte	0x127
 1590 0822 A1080000 		.4byte	0x8a1
 1591 0826 1B       		.uleb128 0x1b
 1592 0827 56030000 		.4byte	.LASF126
 1593 082b 07       		.byte	0x7
ARM GAS  /var/folders/qd/4mxf5pkd0zdf0b9dd1hp39180000gn/T//ccEUejPK.s 			page 29


 1594 082c 2F01     		.2byte	0x12f
 1595 082e 53010000 		.4byte	0x153
 1596 0832 00       		.byte	0
 1597 0833 06       		.uleb128 0x6
 1598 0834 04       		.byte	0x4
 1599 0835 AD020000 		.4byte	0x2ad
 1600 0839 08       		.uleb128 0x8
 1601 083a 3F070000 		.4byte	.LASF127
 1602 083e 0C       		.byte	0xc
 1603 083f 0F       		.byte	0xf
 1604 0840 34       		.byte	0x34
 1605 0841 5E080000 		.4byte	0x85e
 1606 0845 09       		.uleb128 0x9
 1607 0846 D00C0000 		.4byte	.LASF128
 1608 084a 0F       		.byte	0xf
 1609 084b 35       		.byte	0x35
 1610 084c E2020000 		.4byte	0x2e2
 1611 0850 00       		.byte	0
 1612 0851 09       		.uleb128 0x9
 1613 0852 130B0000 		.4byte	.LASF129
 1614 0856 0F       		.byte	0xf
 1615 0857 37       		.byte	0x37
 1616 0858 5E010000 		.4byte	0x15e
 1617 085c 08       		.byte	0x8
 1618 085d 00       		.byte	0
 1619 085e 06       		.uleb128 0x6
 1620 085f 04       		.byte	0x4
 1621 0860 39080000 		.4byte	0x839
 1622 0864 08       		.uleb128 0x8
 1623 0865 1F0D0000 		.4byte	.LASF130
 1624 0869 14       		.byte	0x14
 1625 086a 10       		.byte	0x10
 1626 086b 39       		.byte	0x39
 1627 086c A1080000 		.4byte	0x8a1
 1628 0870 09       		.uleb128 0x9
 1629 0871 9A080000 		.4byte	.LASF131
 1630 0875 10       		.byte	0x10
 1631 0876 3A       		.byte	0x3a
 1632 0877 E2020000 		.4byte	0x2e2
 1633 087b 00       		.byte	0
 1634 087c 09       		.uleb128 0x9
 1635 087d 2E030000 		.4byte	.LASF132
 1636 0881 10       		.byte	0x10
 1637 0882 3C       		.byte	0x3c
 1638 0883 B8020000 		.4byte	0x2b8
 1639 0887 08       		.byte	0x8
 1640 0888 09       		.uleb128 0x9
 1641 0889 F90E0000 		.4byte	.LASF133
 1642 088d 10       		.byte	0x10
 1643 088e 3E       		.byte	0x3e
 1644 088f FC090000 		.4byte	0x9fc
 1645 0893 0C       		.byte	0xc
 1646 0894 09       		.uleb128 0x9
 1647 0895 37050000 		.4byte	.LASF134
 1648 0899 10       		.byte	0x10
 1649 089a 41       		.byte	0x41
 1650 089b 5E010000 		.4byte	0x15e
ARM GAS  /var/folders/qd/4mxf5pkd0zdf0b9dd1hp39180000gn/T//ccEUejPK.s 			page 30


 1651 089f 10       		.byte	0x10
 1652 08a0 00       		.byte	0
 1653 08a1 06       		.uleb128 0x6
 1654 08a2 04       		.byte	0x4
 1655 08a3 64080000 		.4byte	0x864
 1656 08a7 06       		.uleb128 0x6
 1657 08a8 04       		.byte	0x4
 1658 08a9 B9080000 		.4byte	0x8b9
 1659 08ad 05       		.uleb128 0x5
 1660 08ae A7080000 		.4byte	0x8a7
 1661 08b2 02       		.uleb128 0x2
 1662 08b3 01       		.byte	0x1
 1663 08b4 08       		.byte	0x8
 1664 08b5 32050000 		.4byte	.LASF135
 1665 08b9 1C       		.uleb128 0x1c
 1666 08ba B2080000 		.4byte	0x8b2
 1667 08be 06       		.uleb128 0x6
 1668 08bf 04       		.byte	0x4
 1669 08c0 26050000 		.4byte	0x526
 1670 08c4 06       		.uleb128 0x6
 1671 08c5 04       		.byte	0x4
 1672 08c6 97030000 		.4byte	0x397
 1673 08ca 18       		.uleb128 0x18
 1674 08cb 26050000 		.4byte	0x526
 1675 08cf DA080000 		.4byte	0x8da
 1676 08d3 19       		.uleb128 0x19
 1677 08d4 9B000000 		.4byte	0x9b
 1678 08d8 30       		.byte	0x30
 1679 08d9 00       		.byte	0
 1680 08da 1D       		.uleb128 0x1d
 1681 08db 636800   		.ascii	"ch\000"
 1682 08de 07       		.byte	0x7
 1683 08df 0902     		.2byte	0x209
 1684 08e1 8C040000 		.4byte	0x48c
 1685 08e5 16       		.uleb128 0x16
 1686 08e6 16       		.byte	0x16
 1687 08e7 11       		.byte	0x11
 1688 08e8 34       		.byte	0x34
 1689 08e9 C6090000 		.4byte	0x9c6
 1690 08ed 09       		.uleb128 0x9
 1691 08ee 3C000000 		.4byte	.LASF136
 1692 08f2 11       		.byte	0x11
 1693 08f3 35       		.byte	0x35
 1694 08f4 C6090000 		.4byte	0x9c6
 1695 08f8 00       		.byte	0
 1696 08f9 09       		.uleb128 0x9
 1697 08fa F7060000 		.4byte	.LASF137
 1698 08fe 11       		.byte	0x11
 1699 08ff 36       		.byte	0x36
 1700 0900 A2000000 		.4byte	0xa2
 1701 0904 04       		.byte	0x4
 1702 0905 09       		.uleb128 0x9
 1703 0906 A40E0000 		.4byte	.LASF138
 1704 090a 11       		.byte	0x11
 1705 090b 37       		.byte	0x37
 1706 090c A2000000 		.4byte	0xa2
 1707 0910 05       		.byte	0x5
ARM GAS  /var/folders/qd/4mxf5pkd0zdf0b9dd1hp39180000gn/T//ccEUejPK.s 			page 31


 1708 0911 09       		.uleb128 0x9
 1709 0912 8F080000 		.4byte	.LASF139
 1710 0916 11       		.byte	0x11
 1711 0917 38       		.byte	0x38
 1712 0918 AD000000 		.4byte	0xad
 1713 091c 06       		.byte	0x6
 1714 091d 09       		.uleb128 0x9
 1715 091e D5020000 		.4byte	.LASF140
 1716 0922 11       		.byte	0x11
 1717 0923 39       		.byte	0x39
 1718 0924 A2000000 		.4byte	0xa2
 1719 0928 08       		.byte	0x8
 1720 0929 09       		.uleb128 0x9
 1721 092a A8090000 		.4byte	.LASF141
 1722 092e 11       		.byte	0x11
 1723 092f 3A       		.byte	0x3a
 1724 0930 A2000000 		.4byte	0xa2
 1725 0934 09       		.byte	0x9
 1726 0935 09       		.uleb128 0x9
 1727 0936 63030000 		.4byte	.LASF142
 1728 093a 11       		.byte	0x11
 1729 093b 3B       		.byte	0x3b
 1730 093c A2000000 		.4byte	0xa2
 1731 0940 0A       		.byte	0xa
 1732 0941 09       		.uleb128 0x9
 1733 0942 F3050000 		.4byte	.LASF143
 1734 0946 11       		.byte	0x11
 1735 0947 3C       		.byte	0x3c
 1736 0948 A2000000 		.4byte	0xa2
 1737 094c 0B       		.byte	0xb
 1738 094d 09       		.uleb128 0x9
 1739 094e E0010000 		.4byte	.LASF144
 1740 0952 11       		.byte	0x11
 1741 0953 3D       		.byte	0x3d
 1742 0954 A2000000 		.4byte	0xa2
 1743 0958 0C       		.byte	0xc
 1744 0959 09       		.uleb128 0x9
 1745 095a 96050000 		.4byte	.LASF145
 1746 095e 11       		.byte	0x11
 1747 095f 3E       		.byte	0x3e
 1748 0960 A2000000 		.4byte	0xa2
 1749 0964 0D       		.byte	0xd
 1750 0965 09       		.uleb128 0x9
 1751 0966 890D0000 		.4byte	.LASF146
 1752 096a 11       		.byte	0x11
 1753 096b 3F       		.byte	0x3f
 1754 096c A2000000 		.4byte	0xa2
 1755 0970 0E       		.byte	0xe
 1756 0971 09       		.uleb128 0x9
 1757 0972 21000000 		.4byte	.LASF147
 1758 0976 11       		.byte	0x11
 1759 0977 40       		.byte	0x40
 1760 0978 A2000000 		.4byte	0xa2
 1761 097c 0F       		.byte	0xf
 1762 097d 09       		.uleb128 0x9
 1763 097e ED0D0000 		.4byte	.LASF148
 1764 0982 11       		.byte	0x11
ARM GAS  /var/folders/qd/4mxf5pkd0zdf0b9dd1hp39180000gn/T//ccEUejPK.s 			page 32


 1765 0983 41       		.byte	0x41
 1766 0984 A2000000 		.4byte	0xa2
 1767 0988 10       		.byte	0x10
 1768 0989 09       		.uleb128 0x9
 1769 098a BB030000 		.4byte	.LASF149
 1770 098e 11       		.byte	0x11
 1771 098f 43       		.byte	0x43
 1772 0990 A2000000 		.4byte	0xa2
 1773 0994 11       		.byte	0x11
 1774 0995 09       		.uleb128 0x9
 1775 0996 9C0B0000 		.4byte	.LASF150
 1776 099a 11       		.byte	0x11
 1777 099b 44       		.byte	0x44
 1778 099c A2000000 		.4byte	0xa2
 1779 09a0 12       		.byte	0x12
 1780 09a1 09       		.uleb128 0x9
 1781 09a2 5E0A0000 		.4byte	.LASF151
 1782 09a6 11       		.byte	0x11
 1783 09a7 45       		.byte	0x45
 1784 09a8 A2000000 		.4byte	0xa2
 1785 09ac 13       		.byte	0x13
 1786 09ad 09       		.uleb128 0x9
 1787 09ae 3E080000 		.4byte	.LASF152
 1788 09b2 11       		.byte	0x11
 1789 09b3 46       		.byte	0x46
 1790 09b4 A2000000 		.4byte	0xa2
 1791 09b8 14       		.byte	0x14
 1792 09b9 09       		.uleb128 0x9
 1793 09ba CE0A0000 		.4byte	.LASF153
 1794 09be 11       		.byte	0x11
 1795 09bf 48       		.byte	0x48
 1796 09c0 A2000000 		.4byte	0xa2
 1797 09c4 15       		.byte	0x15
 1798 09c5 00       		.byte	0
 1799 09c6 18       		.uleb128 0x18
 1800 09c7 B2080000 		.4byte	0x8b2
 1801 09cb D6090000 		.4byte	0x9d6
 1802 09cf 19       		.uleb128 0x19
 1803 09d0 9B000000 		.4byte	0x9b
 1804 09d4 03       		.byte	0x3
 1805 09d5 00       		.byte	0
 1806 09d6 03       		.uleb128 0x3
 1807 09d7 9A0E0000 		.4byte	.LASF154
 1808 09db 11       		.byte	0x11
 1809 09dc 49       		.byte	0x49
 1810 09dd E5080000 		.4byte	0x8e5
 1811 09e1 1C       		.uleb128 0x1c
 1812 09e2 D6090000 		.4byte	0x9d6
 1813 09e6 14       		.uleb128 0x14
 1814 09e7 A2010000 		.4byte	.LASF155
 1815 09eb 11       		.byte	0x11
 1816 09ec 6E       		.byte	0x6e
 1817 09ed E1090000 		.4byte	0x9e1
 1818 09f1 03       		.uleb128 0x3
 1819 09f2 D60D0000 		.4byte	.LASF156
 1820 09f6 10       		.byte	0x10
 1821 09f7 34       		.byte	0x34
ARM GAS  /var/folders/qd/4mxf5pkd0zdf0b9dd1hp39180000gn/T//ccEUejPK.s 			page 33


 1822 09f8 64080000 		.4byte	0x864
 1823 09fc 06       		.uleb128 0x6
 1824 09fd 04       		.byte	0x4
 1825 09fe F1090000 		.4byte	0x9f1
 1826 0a02 08       		.uleb128 0x8
 1827 0a03 A2080000 		.4byte	.LASF157
 1828 0a07 08       		.byte	0x8
 1829 0a08 12       		.byte	0x12
 1830 0a09 3B       		.byte	0x3b
 1831 0a0a 1B0A0000 		.4byte	0xa1b
 1832 0a0e 09       		.uleb128 0x9
 1833 0a0f 270B0000 		.4byte	.LASF158
 1834 0a13 12       		.byte	0x12
 1835 0a14 3C       		.byte	0x3c
 1836 0a15 E2020000 		.4byte	0x2e2
 1837 0a19 00       		.byte	0
 1838 0a1a 00       		.byte	0
 1839 0a1b 03       		.uleb128 0x3
 1840 0a1c FF060000 		.4byte	.LASF159
 1841 0a20 12       		.byte	0x12
 1842 0a21 3E       		.byte	0x3e
 1843 0a22 020A0000 		.4byte	0xa02
 1844 0a26 03       		.uleb128 0x3
 1845 0a27 CE0D0000 		.4byte	.LASF160
 1846 0a2b 13       		.byte	0x13
 1847 0a2c 22       		.byte	0x22
 1848 0a2d 310A0000 		.4byte	0xa31
 1849 0a31 06       		.uleb128 0x6
 1850 0a32 04       		.byte	0x4
 1851 0a33 370A0000 		.4byte	0xa37
 1852 0a37 07       		.uleb128 0x7
 1853 0a38 6C060000 		.4byte	.LASF162
 1854 0a3c 03       		.uleb128 0x3
 1855 0a3d 5E0E0000 		.4byte	.LASF163
 1856 0a41 14       		.byte	0x14
 1857 0a42 2C       		.byte	0x2c
 1858 0a43 62000000 		.4byte	0x62
 1859 0a47 03       		.uleb128 0x3
 1860 0a48 F30A0000 		.4byte	.LASF164
 1861 0a4c 14       		.byte	0x14
 1862 0a4d 72       		.byte	0x72
 1863 0a4e 62000000 		.4byte	0x62
 1864 0a52 1E       		.uleb128 0x1e
 1865 0a53 4B0C0000 		.4byte	.LASF165
 1866 0a57 04       		.byte	0x4
 1867 0a58 6501     		.2byte	0x165
 1868 0a5a 9B000000 		.4byte	0x9b
 1869 0a5e 1A       		.uleb128 0x1a
 1870 0a5f 04       		.byte	0x4
 1871 0a60 14       		.byte	0x14
 1872 0a61 A6       		.byte	0xa6
 1873 0a62 7D0A0000 		.4byte	0xa7d
 1874 0a66 1F       		.uleb128 0x1f
 1875 0a67 3D030000 		.4byte	.LASF166
 1876 0a6b 14       		.byte	0x14
 1877 0a6c A8       		.byte	0xa8
 1878 0a6d 520A0000 		.4byte	0xa52
ARM GAS  /var/folders/qd/4mxf5pkd0zdf0b9dd1hp39180000gn/T//ccEUejPK.s 			page 34


 1879 0a71 1F       		.uleb128 0x1f
 1880 0a72 FB0A0000 		.4byte	.LASF167
 1881 0a76 14       		.byte	0x14
 1882 0a77 A9       		.byte	0xa9
 1883 0a78 7D0A0000 		.4byte	0xa7d
 1884 0a7c 00       		.byte	0
 1885 0a7d 18       		.uleb128 0x18
 1886 0a7e 37000000 		.4byte	0x37
 1887 0a82 8D0A0000 		.4byte	0xa8d
 1888 0a86 19       		.uleb128 0x19
 1889 0a87 9B000000 		.4byte	0x9b
 1890 0a8b 03       		.byte	0x3
 1891 0a8c 00       		.byte	0
 1892 0a8d 16       		.uleb128 0x16
 1893 0a8e 08       		.byte	0x8
 1894 0a8f 14       		.byte	0x14
 1895 0a90 A3       		.byte	0xa3
 1896 0a91 AE0A0000 		.4byte	0xaae
 1897 0a95 09       		.uleb128 0x9
 1898 0a96 6A0A0000 		.4byte	.LASF168
 1899 0a9a 14       		.byte	0x14
 1900 0a9b A5       		.byte	0xa5
 1901 0a9c 94000000 		.4byte	0x94
 1902 0aa0 00       		.byte	0
 1903 0aa1 09       		.uleb128 0x9
 1904 0aa2 DD060000 		.4byte	.LASF169
 1905 0aa6 14       		.byte	0x14
 1906 0aa7 AA       		.byte	0xaa
 1907 0aa8 5E0A0000 		.4byte	0xa5e
 1908 0aac 04       		.byte	0x4
 1909 0aad 00       		.byte	0
 1910 0aae 03       		.uleb128 0x3
 1911 0aaf 330C0000 		.4byte	.LASF170
 1912 0ab3 14       		.byte	0x14
 1913 0ab4 AB       		.byte	0xab
 1914 0ab5 8D0A0000 		.4byte	0xa8d
 1915 0ab9 03       		.uleb128 0x3
 1916 0aba 0C0C0000 		.4byte	.LASF171
 1917 0abe 14       		.byte	0x14
 1918 0abf AF       		.byte	0xaf
 1919 0ac0 260A0000 		.4byte	0xa26
 1920 0ac4 06       		.uleb128 0x6
 1921 0ac5 04       		.byte	0x4
 1922 0ac6 B2080000 		.4byte	0x8b2
 1923 0aca 14       		.uleb128 0x14
 1924 0acb AC040000 		.4byte	.LASF172
 1925 0acf 15       		.byte	0x15
 1926 0ad0 10       		.byte	0x10
 1927 0ad1 D50A0000 		.4byte	0xad5
 1928 0ad5 06       		.uleb128 0x6
 1929 0ad6 04       		.byte	0x4
 1930 0ad7 C40A0000 		.4byte	0xac4
 1931 0adb 14       		.uleb128 0x14
 1932 0adc 570E0000 		.4byte	.LASF173
 1933 0ae0 15       		.byte	0x15
 1934 0ae1 E8       		.byte	0xe8
 1935 0ae2 C40A0000 		.4byte	0xac4
ARM GAS  /var/folders/qd/4mxf5pkd0zdf0b9dd1hp39180000gn/T//ccEUejPK.s 			page 35


 1936 0ae6 14       		.uleb128 0x14
 1937 0ae7 AB060000 		.4byte	.LASF174
 1938 0aeb 15       		.byte	0x15
 1939 0aec E9       		.byte	0xe9
 1940 0aed 94000000 		.4byte	0x94
 1941 0af1 14       		.uleb128 0x14
 1942 0af2 D10B0000 		.4byte	.LASF175
 1943 0af6 15       		.byte	0x15
 1944 0af7 E9       		.byte	0xe9
 1945 0af8 94000000 		.4byte	0x94
 1946 0afc 14       		.uleb128 0x14
 1947 0afd 1D0F0000 		.4byte	.LASF176
 1948 0b01 15       		.byte	0x15
 1949 0b02 E9       		.byte	0xe9
 1950 0b03 94000000 		.4byte	0x94
 1951 0b07 14       		.uleb128 0x14
 1952 0b08 EA050000 		.4byte	.LASF177
 1953 0b0c 15       		.byte	0x15
 1954 0b0d EB       		.byte	0xeb
 1955 0b0e 94000000 		.4byte	0x94
 1956 0b12 08       		.uleb128 0x8
 1957 0b13 8E050000 		.4byte	.LASF178
 1958 0b17 5C       		.byte	0x5c
 1959 0b18 16       		.byte	0x16
 1960 0b19 0C       		.byte	0xc
 1961 0b1a 7F0B0000 		.4byte	0xb7f
 1962 0b1e 09       		.uleb128 0x9
 1963 0b1f 21060000 		.4byte	.LASF179
 1964 0b23 16       		.byte	0x16
 1965 0b24 0D       		.byte	0xd
 1966 0b25 95030000 		.4byte	0x395
 1967 0b29 00       		.byte	0
 1968 0b2a 09       		.uleb128 0x9
 1969 0b2b 85060000 		.4byte	.LASF180
 1970 0b2f 16       		.byte	0x16
 1971 0b30 0E       		.byte	0xe
 1972 0b31 E9000000 		.4byte	0xe9
 1973 0b35 04       		.byte	0x4
 1974 0b36 09       		.uleb128 0x9
 1975 0b37 240F0000 		.4byte	.LASF181
 1976 0b3b 16       		.byte	0x16
 1977 0b3c 0F       		.byte	0xf
 1978 0b3d 95030000 		.4byte	0x395
 1979 0b41 08       		.byte	0x8
 1980 0b42 09       		.uleb128 0x9
 1981 0b43 D80C0000 		.4byte	.LASF182
 1982 0b47 16       		.byte	0x16
 1983 0b48 10       		.byte	0x10
 1984 0b49 95030000 		.4byte	0x395
 1985 0b4d 0C       		.byte	0xc
 1986 0b4e 09       		.uleb128 0x9
 1987 0b4f CB0C0000 		.4byte	.LASF183
 1988 0b53 16       		.byte	0x16
 1989 0b54 11       		.byte	0x11
 1990 0b55 7F0B0000 		.4byte	0xb7f
 1991 0b59 10       		.byte	0x10
 1992 0b5a 09       		.uleb128 0x9
ARM GAS  /var/folders/qd/4mxf5pkd0zdf0b9dd1hp39180000gn/T//ccEUejPK.s 			page 36


 1993 0b5b 7E090000 		.4byte	.LASF184
 1994 0b5f 16       		.byte	0x16
 1995 0b60 12       		.byte	0x12
 1996 0b61 8F0B0000 		.4byte	0xb8f
 1997 0b65 51       		.byte	0x51
 1998 0b66 09       		.uleb128 0x9
 1999 0b67 06030000 		.4byte	.LASF185
 2000 0b6b 16       		.byte	0x16
 2001 0b6c 13       		.byte	0x13
 2002 0b6d BB0B0000 		.4byte	0xbbb
 2003 0b71 54       		.byte	0x54
 2004 0b72 09       		.uleb128 0x9
 2005 0b73 F40E0000 		.4byte	.LASF186
 2006 0b77 16       		.byte	0x16
 2007 0b78 14       		.byte	0x14
 2008 0b79 C10B0000 		.4byte	0xbc1
 2009 0b7d 58       		.byte	0x58
 2010 0b7e 00       		.byte	0
 2011 0b7f 18       		.uleb128 0x18
 2012 0b80 B2080000 		.4byte	0x8b2
 2013 0b84 8F0B0000 		.4byte	0xb8f
 2014 0b88 19       		.uleb128 0x19
 2015 0b89 9B000000 		.4byte	0x9b
 2016 0b8d 40       		.byte	0x40
 2017 0b8e 00       		.byte	0
 2018 0b8f 02       		.uleb128 0x2
 2019 0b90 01       		.byte	0x1
 2020 0b91 02       		.byte	0x2
 2021 0b92 26050000 		.4byte	.LASF187
 2022 0b96 08       		.uleb128 0x8
 2023 0b97 9D0C0000 		.4byte	.LASF188
 2024 0b9b 08       		.byte	0x8
 2025 0b9c 16       		.byte	0x16
 2026 0b9d 25       		.byte	0x25
 2027 0b9e BB0B0000 		.4byte	0xbbb
 2028 0ba2 09       		.uleb128 0x9
 2029 0ba3 B0070000 		.4byte	.LASF189
 2030 0ba7 16       		.byte	0x16
 2031 0ba8 26       		.byte	0x26
 2032 0ba9 610C0000 		.4byte	0xc61
 2033 0bad 00       		.byte	0
 2034 0bae 09       		.uleb128 0x9
 2035 0baf F40E0000 		.4byte	.LASF186
 2036 0bb3 16       		.byte	0x16
 2037 0bb4 27       		.byte	0x27
 2038 0bb5 BB0B0000 		.4byte	0xbbb
 2039 0bb9 04       		.byte	0x4
 2040 0bba 00       		.byte	0
 2041 0bbb 06       		.uleb128 0x6
 2042 0bbc 04       		.byte	0x4
 2043 0bbd 960B0000 		.4byte	0xb96
 2044 0bc1 06       		.uleb128 0x6
 2045 0bc2 04       		.byte	0x4
 2046 0bc3 120B0000 		.4byte	0xb12
 2047 0bc7 03       		.uleb128 0x3
 2048 0bc8 93040000 		.4byte	.LASF190
 2049 0bcc 16       		.byte	0x16
ARM GAS  /var/folders/qd/4mxf5pkd0zdf0b9dd1hp39180000gn/T//ccEUejPK.s 			page 37


 2050 0bcd 15       		.byte	0x15
 2051 0bce 120B0000 		.4byte	0xb12
 2052 0bd2 16       		.uleb128 0x16
 2053 0bd3 04       		.byte	0x4
 2054 0bd4 16       		.byte	0x16
 2055 0bd5 18       		.byte	0x18
 2056 0bd6 E70B0000 		.4byte	0xbe7
 2057 0bda 09       		.uleb128 0x9
 2058 0bdb 2F040000 		.4byte	.LASF191
 2059 0bdf 16       		.byte	0x16
 2060 0be0 19       		.byte	0x19
 2061 0be1 E70B0000 		.4byte	0xbe7
 2062 0be5 00       		.byte	0
 2063 0be6 00       		.byte	0
 2064 0be7 06       		.uleb128 0x6
 2065 0be8 04       		.byte	0x4
 2066 0be9 C70B0000 		.4byte	0xbc7
 2067 0bed 16       		.uleb128 0x16
 2068 0bee 0C       		.byte	0xc
 2069 0bef 16       		.byte	0x16
 2070 0bf0 17       		.byte	0x17
 2071 0bf1 1A0C0000 		.4byte	0xc1a
 2072 0bf5 09       		.uleb128 0x9
 2073 0bf6 C3090000 		.4byte	.LASF192
 2074 0bfa 16       		.byte	0x16
 2075 0bfb 1A       		.byte	0x1a
 2076 0bfc D20B0000 		.4byte	0xbd2
 2077 0c00 00       		.byte	0
 2078 0c01 09       		.uleb128 0x9
 2079 0c02 240F0000 		.4byte	.LASF181
 2080 0c06 16       		.byte	0x16
 2081 0c07 1B       		.byte	0x1b
 2082 0c08 95030000 		.4byte	0x395
 2083 0c0c 04       		.byte	0x4
 2084 0c0d 09       		.uleb128 0x9
 2085 0c0e D80C0000 		.4byte	.LASF182
 2086 0c12 16       		.byte	0x16
 2087 0c13 1C       		.byte	0x1c
 2088 0c14 95030000 		.4byte	0x395
 2089 0c18 08       		.byte	0x8
 2090 0c19 00       		.byte	0
 2091 0c1a 03       		.uleb128 0x3
 2092 0c1b 9C070000 		.4byte	.LASF193
 2093 0c1f 16       		.byte	0x16
 2094 0c20 1D       		.byte	0x1d
 2095 0c21 ED0B0000 		.4byte	0xbed
 2096 0c25 08       		.uleb128 0x8
 2097 0c26 F5070000 		.4byte	.LASF194
 2098 0c2a 0C       		.byte	0xc
 2099 0c2b 16       		.byte	0x16
 2100 0c2c 1F       		.byte	0x1f
 2101 0c2d 560C0000 		.4byte	0xc56
 2102 0c31 09       		.uleb128 0x9
 2103 0c32 240F0000 		.4byte	.LASF181
 2104 0c36 16       		.byte	0x16
 2105 0c37 20       		.byte	0x20
 2106 0c38 95030000 		.4byte	0x395
ARM GAS  /var/folders/qd/4mxf5pkd0zdf0b9dd1hp39180000gn/T//ccEUejPK.s 			page 38


 2107 0c3c 00       		.byte	0
 2108 0c3d 09       		.uleb128 0x9
 2109 0c3e D80C0000 		.4byte	.LASF182
 2110 0c42 16       		.byte	0x16
 2111 0c43 21       		.byte	0x21
 2112 0c44 95030000 		.4byte	0x395
 2113 0c48 04       		.byte	0x4
 2114 0c49 09       		.uleb128 0x9
 2115 0c4a CE070000 		.4byte	.LASF195
 2116 0c4e 16       		.byte	0x16
 2117 0c4f 22       		.byte	0x22
 2118 0c50 E70B0000 		.4byte	0xbe7
 2119 0c54 08       		.byte	0x8
 2120 0c55 00       		.byte	0
 2121 0c56 03       		.uleb128 0x3
 2122 0c57 0D080000 		.4byte	.LASF196
 2123 0c5b 16       		.byte	0x16
 2124 0c5c 23       		.byte	0x23
 2125 0c5d 250C0000 		.4byte	0xc25
 2126 0c61 06       		.uleb128 0x6
 2127 0c62 04       		.byte	0x4
 2128 0c63 560C0000 		.4byte	0xc56
 2129 0c67 20       		.uleb128 0x20
 2130 0c68 62757300 		.ascii	"bus\000"
 2131 0c6c 17       		.byte	0x17
 2132 0c6d 0C       		.byte	0xc
 2133 0c6e 1A0C0000 		.4byte	0xc1a
 2134 0c72 16       		.uleb128 0x16
 2135 0c73 80       		.byte	0x80
 2136 0c74 17       		.byte	0x17
 2137 0c75 0F       		.byte	0xf
 2138 0c76 AB0C0000 		.4byte	0xcab
 2139 0c7a 09       		.uleb128 0x9
 2140 0c7b 35090000 		.4byte	.LASF197
 2141 0c7f 17       		.byte	0x17
 2142 0c80 11       		.byte	0x11
 2143 0c81 AB0C0000 		.4byte	0xcab
 2144 0c85 00       		.byte	0
 2145 0c86 09       		.uleb128 0x9
 2146 0c87 C40A0000 		.4byte	.LASF198
 2147 0c8b 17       		.byte	0x17
 2148 0c8c 14       		.byte	0x14
 2149 0c8d AB0C0000 		.4byte	0xcab
 2150 0c91 20       		.byte	0x20
 2151 0c92 09       		.uleb128 0x9
 2152 0c93 BB0B0000 		.4byte	.LASF199
 2153 0c97 17       		.byte	0x17
 2154 0c98 17       		.byte	0x17
 2155 0c99 AB0C0000 		.4byte	0xcab
 2156 0c9d 40       		.byte	0x40
 2157 0c9e 09       		.uleb128 0x9
 2158 0c9f E90A0000 		.4byte	.LASF200
 2159 0ca3 17       		.byte	0x17
 2160 0ca4 1A       		.byte	0x1a
 2161 0ca5 AB0C0000 		.4byte	0xcab
 2162 0ca9 60       		.byte	0x60
 2163 0caa 00       		.byte	0
ARM GAS  /var/folders/qd/4mxf5pkd0zdf0b9dd1hp39180000gn/T//ccEUejPK.s 			page 39


 2164 0cab 18       		.uleb128 0x18
 2165 0cac 9B000000 		.4byte	0x9b
 2166 0cb0 BB0C0000 		.4byte	0xcbb
 2167 0cb4 19       		.uleb128 0x19
 2168 0cb5 9B000000 		.4byte	0x9b
 2169 0cb9 07       		.byte	0x7
 2170 0cba 00       		.byte	0
 2171 0cbb 03       		.uleb128 0x3
 2172 0cbc 360E0000 		.4byte	.LASF201
 2173 0cc0 17       		.byte	0x17
 2174 0cc1 1B       		.byte	0x1b
 2175 0cc2 720C0000 		.4byte	0xc72
 2176 0cc6 03       		.uleb128 0x3
 2177 0cc7 2E0E0000 		.4byte	.LASF202
 2178 0ccb 18       		.byte	0x18
 2179 0ccc 16       		.byte	0x16
 2180 0ccd 74000000 		.4byte	0x74
 2181 0cd1 08       		.uleb128 0x8
 2182 0cd2 B6070000 		.4byte	.LASF203
 2183 0cd6 18       		.byte	0x18
 2184 0cd7 18       		.byte	0x18
 2185 0cd8 2F       		.byte	0x2f
 2186 0cd9 240D0000 		.4byte	0xd24
 2187 0cdd 09       		.uleb128 0x9
 2188 0cde 520C0000 		.4byte	.LASF204
 2189 0ce2 18       		.byte	0x18
 2190 0ce3 31       		.byte	0x31
 2191 0ce4 240D0000 		.4byte	0xd24
 2192 0ce8 00       		.byte	0
 2193 0ce9 15       		.uleb128 0x15
 2194 0cea 5F6B00   		.ascii	"_k\000"
 2195 0ced 18       		.byte	0x18
 2196 0cee 32       		.byte	0x32
 2197 0cef 94000000 		.4byte	0x94
 2198 0cf3 04       		.byte	0x4
 2199 0cf4 09       		.uleb128 0x9
 2200 0cf5 ED070000 		.4byte	.LASF205
 2201 0cf9 18       		.byte	0x18
 2202 0cfa 32       		.byte	0x32
 2203 0cfb 94000000 		.4byte	0x94
 2204 0cff 08       		.byte	0x8
 2205 0d00 09       		.uleb128 0x9
 2206 0d01 2F090000 		.4byte	.LASF206
 2207 0d05 18       		.byte	0x18
 2208 0d06 32       		.byte	0x32
 2209 0d07 94000000 		.4byte	0x94
 2210 0d0b 0C       		.byte	0xc
 2211 0d0c 09       		.uleb128 0x9
 2212 0d0d 59060000 		.4byte	.LASF207
 2213 0d11 18       		.byte	0x18
 2214 0d12 32       		.byte	0x32
 2215 0d13 94000000 		.4byte	0x94
 2216 0d17 10       		.byte	0x10
 2217 0d18 15       		.uleb128 0x15
 2218 0d19 5F7800   		.ascii	"_x\000"
 2219 0d1c 18       		.byte	0x18
 2220 0d1d 33       		.byte	0x33
ARM GAS  /var/folders/qd/4mxf5pkd0zdf0b9dd1hp39180000gn/T//ccEUejPK.s 			page 40


 2221 0d1e 2A0D0000 		.4byte	0xd2a
 2222 0d22 14       		.byte	0x14
 2223 0d23 00       		.byte	0
 2224 0d24 06       		.uleb128 0x6
 2225 0d25 04       		.byte	0x4
 2226 0d26 D10C0000 		.4byte	0xcd1
 2227 0d2a 18       		.uleb128 0x18
 2228 0d2b C60C0000 		.4byte	0xcc6
 2229 0d2f 3A0D0000 		.4byte	0xd3a
 2230 0d33 19       		.uleb128 0x19
 2231 0d34 9B000000 		.4byte	0x9b
 2232 0d38 00       		.byte	0
 2233 0d39 00       		.byte	0
 2234 0d3a 08       		.uleb128 0x8
 2235 0d3b 13020000 		.4byte	.LASF208
 2236 0d3f 24       		.byte	0x24
 2237 0d40 18       		.byte	0x18
 2238 0d41 37       		.byte	0x37
 2239 0d42 B30D0000 		.4byte	0xdb3
 2240 0d46 09       		.uleb128 0x9
 2241 0d47 2F020000 		.4byte	.LASF209
 2242 0d4b 18       		.byte	0x18
 2243 0d4c 39       		.byte	0x39
 2244 0d4d 94000000 		.4byte	0x94
 2245 0d51 00       		.byte	0
 2246 0d52 09       		.uleb128 0x9
 2247 0d53 070F0000 		.4byte	.LASF210
 2248 0d57 18       		.byte	0x18
 2249 0d58 3A       		.byte	0x3a
 2250 0d59 94000000 		.4byte	0x94
 2251 0d5d 04       		.byte	0x4
 2252 0d5e 09       		.uleb128 0x9
 2253 0d5f 840E0000 		.4byte	.LASF211
 2254 0d63 18       		.byte	0x18
 2255 0d64 3B       		.byte	0x3b
 2256 0d65 94000000 		.4byte	0x94
 2257 0d69 08       		.byte	0x8
 2258 0d6a 09       		.uleb128 0x9
 2259 0d6b CA090000 		.4byte	.LASF212
 2260 0d6f 18       		.byte	0x18
 2261 0d70 3C       		.byte	0x3c
 2262 0d71 94000000 		.4byte	0x94
 2263 0d75 0C       		.byte	0xc
 2264 0d76 09       		.uleb128 0x9
 2265 0d77 26040000 		.4byte	.LASF213
 2266 0d7b 18       		.byte	0x18
 2267 0d7c 3D       		.byte	0x3d
 2268 0d7d 94000000 		.4byte	0x94
 2269 0d81 10       		.byte	0x10
 2270 0d82 09       		.uleb128 0x9
 2271 0d83 7F0D0000 		.4byte	.LASF214
 2272 0d87 18       		.byte	0x18
 2273 0d88 3E       		.byte	0x3e
 2274 0d89 94000000 		.4byte	0x94
 2275 0d8d 14       		.byte	0x14
 2276 0d8e 09       		.uleb128 0x9
 2277 0d8f 720A0000 		.4byte	.LASF215
ARM GAS  /var/folders/qd/4mxf5pkd0zdf0b9dd1hp39180000gn/T//ccEUejPK.s 			page 41


 2278 0d93 18       		.byte	0x18
 2279 0d94 3F       		.byte	0x3f
 2280 0d95 94000000 		.4byte	0x94
 2281 0d99 18       		.byte	0x18
 2282 0d9a 09       		.uleb128 0x9
 2283 0d9b 0D050000 		.4byte	.LASF216
 2284 0d9f 18       		.byte	0x18
 2285 0da0 40       		.byte	0x40
 2286 0da1 94000000 		.4byte	0x94
 2287 0da5 1C       		.byte	0x1c
 2288 0da6 09       		.uleb128 0x9
 2289 0da7 DA0E0000 		.4byte	.LASF217
 2290 0dab 18       		.byte	0x18
 2291 0dac 41       		.byte	0x41
 2292 0dad 94000000 		.4byte	0x94
 2293 0db1 20       		.byte	0x20
 2294 0db2 00       		.byte	0
 2295 0db3 21       		.uleb128 0x21
 2296 0db4 71030000 		.4byte	.LASF218
 2297 0db8 0801     		.2byte	0x108
 2298 0dba 18       		.byte	0x18
 2299 0dbb 4A       		.byte	0x4a
 2300 0dbc F30D0000 		.4byte	0xdf3
 2301 0dc0 09       		.uleb128 0x9
 2302 0dc1 D20E0000 		.4byte	.LASF219
 2303 0dc5 18       		.byte	0x18
 2304 0dc6 4B       		.byte	0x4b
 2305 0dc7 F30D0000 		.4byte	0xdf3
 2306 0dcb 00       		.byte	0
 2307 0dcc 09       		.uleb128 0x9
 2308 0dcd 710B0000 		.4byte	.LASF220
 2309 0dd1 18       		.byte	0x18
 2310 0dd2 4C       		.byte	0x4c
 2311 0dd3 F30D0000 		.4byte	0xdf3
 2312 0dd7 80       		.byte	0x80
 2313 0dd8 22       		.uleb128 0x22
 2314 0dd9 470D0000 		.4byte	.LASF221
 2315 0ddd 18       		.byte	0x18
 2316 0dde 4E       		.byte	0x4e
 2317 0ddf C60C0000 		.4byte	0xcc6
 2318 0de3 0001     		.2byte	0x100
 2319 0de5 22       		.uleb128 0x22
 2320 0de6 C60D0000 		.4byte	.LASF222
 2321 0dea 18       		.byte	0x18
 2322 0deb 51       		.byte	0x51
 2323 0dec C60C0000 		.4byte	0xcc6
 2324 0df0 0401     		.2byte	0x104
 2325 0df2 00       		.byte	0
 2326 0df3 18       		.uleb128 0x18
 2327 0df4 95030000 		.4byte	0x395
 2328 0df8 030E0000 		.4byte	0xe03
 2329 0dfc 19       		.uleb128 0x19
 2330 0dfd 9B000000 		.4byte	0x9b
 2331 0e01 1F       		.byte	0x1f
 2332 0e02 00       		.byte	0
 2333 0e03 21       		.uleb128 0x21
 2334 0e04 4F0A0000 		.4byte	.LASF223
ARM GAS  /var/folders/qd/4mxf5pkd0zdf0b9dd1hp39180000gn/T//ccEUejPK.s 			page 42


 2335 0e08 9001     		.2byte	0x190
 2336 0e0a 18       		.byte	0x18
 2337 0e0b 5D       		.byte	0x5d
 2338 0e0c 410E0000 		.4byte	0xe41
 2339 0e10 09       		.uleb128 0x9
 2340 0e11 520C0000 		.4byte	.LASF204
 2341 0e15 18       		.byte	0x18
 2342 0e16 5E       		.byte	0x5e
 2343 0e17 410E0000 		.4byte	0xe41
 2344 0e1b 00       		.byte	0
 2345 0e1c 09       		.uleb128 0x9
 2346 0e1d AB0D0000 		.4byte	.LASF224
 2347 0e21 18       		.byte	0x18
 2348 0e22 5F       		.byte	0x5f
 2349 0e23 94000000 		.4byte	0x94
 2350 0e27 04       		.byte	0x4
 2351 0e28 09       		.uleb128 0x9
 2352 0e29 42020000 		.4byte	.LASF225
 2353 0e2d 18       		.byte	0x18
 2354 0e2e 61       		.byte	0x61
 2355 0e2f 470E0000 		.4byte	0xe47
 2356 0e33 08       		.byte	0x8
 2357 0e34 09       		.uleb128 0x9
 2358 0e35 71030000 		.4byte	.LASF218
 2359 0e39 18       		.byte	0x18
 2360 0e3a 62       		.byte	0x62
 2361 0e3b B30D0000 		.4byte	0xdb3
 2362 0e3f 88       		.byte	0x88
 2363 0e40 00       		.byte	0
 2364 0e41 06       		.uleb128 0x6
 2365 0e42 04       		.byte	0x4
 2366 0e43 030E0000 		.4byte	0xe03
 2367 0e47 18       		.uleb128 0x18
 2368 0e48 570E0000 		.4byte	0xe57
 2369 0e4c 570E0000 		.4byte	0xe57
 2370 0e50 19       		.uleb128 0x19
 2371 0e51 9B000000 		.4byte	0x9b
 2372 0e55 1F       		.byte	0x1f
 2373 0e56 00       		.byte	0
 2374 0e57 06       		.uleb128 0x6
 2375 0e58 04       		.byte	0x4
 2376 0e59 5D0E0000 		.4byte	0xe5d
 2377 0e5d 23       		.uleb128 0x23
 2378 0e5e 08       		.uleb128 0x8
 2379 0e5f BF0D0000 		.4byte	.LASF226
 2380 0e63 08       		.byte	0x8
 2381 0e64 18       		.byte	0x18
 2382 0e65 75       		.byte	0x75
 2383 0e66 830E0000 		.4byte	0xe83
 2384 0e6a 09       		.uleb128 0x9
 2385 0e6b CB0B0000 		.4byte	.LASF227
 2386 0e6f 18       		.byte	0x18
 2387 0e70 76       		.byte	0x76
 2388 0e71 830E0000 		.4byte	0xe83
 2389 0e75 00       		.byte	0
 2390 0e76 09       		.uleb128 0x9
 2391 0e77 C8030000 		.4byte	.LASF228
ARM GAS  /var/folders/qd/4mxf5pkd0zdf0b9dd1hp39180000gn/T//ccEUejPK.s 			page 43


 2392 0e7b 18       		.byte	0x18
 2393 0e7c 77       		.byte	0x77
 2394 0e7d 94000000 		.4byte	0x94
 2395 0e81 04       		.byte	0x4
 2396 0e82 00       		.byte	0
 2397 0e83 06       		.uleb128 0x6
 2398 0e84 04       		.byte	0x4
 2399 0e85 37000000 		.4byte	0x37
 2400 0e89 08       		.uleb128 0x8
 2401 0e8a 14070000 		.4byte	.LASF229
 2402 0e8e 68       		.byte	0x68
 2403 0e8f 18       		.byte	0x18
 2404 0e90 B5       		.byte	0xb5
 2405 0e91 B30F0000 		.4byte	0xfb3
 2406 0e95 15       		.uleb128 0x15
 2407 0e96 5F7000   		.ascii	"_p\000"
 2408 0e99 18       		.byte	0x18
 2409 0e9a B6       		.byte	0xb6
 2410 0e9b 830E0000 		.4byte	0xe83
 2411 0e9f 00       		.byte	0
 2412 0ea0 15       		.uleb128 0x15
 2413 0ea1 5F7200   		.ascii	"_r\000"
 2414 0ea4 18       		.byte	0x18
 2415 0ea5 B7       		.byte	0xb7
 2416 0ea6 94000000 		.4byte	0x94
 2417 0eaa 04       		.byte	0x4
 2418 0eab 15       		.uleb128 0x15
 2419 0eac 5F7700   		.ascii	"_w\000"
 2420 0eaf 18       		.byte	0x18
 2421 0eb0 B8       		.byte	0xb8
 2422 0eb1 94000000 		.4byte	0x94
 2423 0eb5 08       		.byte	0x8
 2424 0eb6 09       		.uleb128 0x9
 2425 0eb7 370A0000 		.4byte	.LASF230
 2426 0ebb 18       		.byte	0x18
 2427 0ebc B9       		.byte	0xb9
 2428 0ebd 3E000000 		.4byte	0x3e
 2429 0ec1 0C       		.byte	0xc
 2430 0ec2 09       		.uleb128 0x9
 2431 0ec3 5D030000 		.4byte	.LASF231
 2432 0ec7 18       		.byte	0x18
 2433 0ec8 BA       		.byte	0xba
 2434 0ec9 3E000000 		.4byte	0x3e
 2435 0ecd 0E       		.byte	0xe
 2436 0ece 15       		.uleb128 0x15
 2437 0ecf 5F626600 		.ascii	"_bf\000"
 2438 0ed3 18       		.byte	0x18
 2439 0ed4 BB       		.byte	0xbb
 2440 0ed5 5E0E0000 		.4byte	0xe5e
 2441 0ed9 10       		.byte	0x10
 2442 0eda 09       		.uleb128 0x9
 2443 0edb 960D0000 		.4byte	.LASF232
 2444 0edf 18       		.byte	0x18
 2445 0ee0 BC       		.byte	0xbc
 2446 0ee1 94000000 		.4byte	0x94
 2447 0ee5 18       		.byte	0x18
 2448 0ee6 09       		.uleb128 0x9
ARM GAS  /var/folders/qd/4mxf5pkd0zdf0b9dd1hp39180000gn/T//ccEUejPK.s 			page 44


 2449 0ee7 28060000 		.4byte	.LASF233
 2450 0eeb 18       		.byte	0x18
 2451 0eec C3       		.byte	0xc3
 2452 0eed 95030000 		.4byte	0x395
 2453 0ef1 1C       		.byte	0x1c
 2454 0ef2 09       		.uleb128 0x9
 2455 0ef3 50000000 		.4byte	.LASF234
 2456 0ef7 18       		.byte	0x18
 2457 0ef8 C5       		.byte	0xc5
 2458 0ef9 0E110000 		.4byte	0x110e
 2459 0efd 20       		.byte	0x20
 2460 0efe 09       		.uleb128 0x9
 2461 0eff B6010000 		.4byte	.LASF235
 2462 0f03 18       		.byte	0x18
 2463 0f04 C7       		.byte	0xc7
 2464 0f05 32110000 		.4byte	0x1132
 2465 0f09 24       		.byte	0x24
 2466 0f0a 09       		.uleb128 0x9
 2467 0f0b DA0A0000 		.4byte	.LASF236
 2468 0f0f 18       		.byte	0x18
 2469 0f10 CA       		.byte	0xca
 2470 0f11 56110000 		.4byte	0x1156
 2471 0f15 28       		.byte	0x28
 2472 0f16 09       		.uleb128 0x9
 2473 0f17 3D050000 		.4byte	.LASF237
 2474 0f1b 18       		.byte	0x18
 2475 0f1c CB       		.byte	0xcb
 2476 0f1d 70110000 		.4byte	0x1170
 2477 0f21 2C       		.byte	0x2c
 2478 0f22 15       		.uleb128 0x15
 2479 0f23 5F756200 		.ascii	"_ub\000"
 2480 0f27 18       		.byte	0x18
 2481 0f28 CE       		.byte	0xce
 2482 0f29 5E0E0000 		.4byte	0xe5e
 2483 0f2d 30       		.byte	0x30
 2484 0f2e 15       		.uleb128 0x15
 2485 0f2f 5F757000 		.ascii	"_up\000"
 2486 0f33 18       		.byte	0x18
 2487 0f34 CF       		.byte	0xcf
 2488 0f35 830E0000 		.4byte	0xe83
 2489 0f39 38       		.byte	0x38
 2490 0f3a 15       		.uleb128 0x15
 2491 0f3b 5F757200 		.ascii	"_ur\000"
 2492 0f3f 18       		.byte	0x18
 2493 0f40 D0       		.byte	0xd0
 2494 0f41 94000000 		.4byte	0x94
 2495 0f45 3C       		.byte	0x3c
 2496 0f46 09       		.uleb128 0x9
 2497 0f47 070A0000 		.4byte	.LASF238
 2498 0f4b 18       		.byte	0x18
 2499 0f4c D3       		.byte	0xd3
 2500 0f4d 76110000 		.4byte	0x1176
 2501 0f51 40       		.byte	0x40
 2502 0f52 09       		.uleb128 0x9
 2503 0f53 29020000 		.4byte	.LASF239
 2504 0f57 18       		.byte	0x18
 2505 0f58 D4       		.byte	0xd4
ARM GAS  /var/folders/qd/4mxf5pkd0zdf0b9dd1hp39180000gn/T//ccEUejPK.s 			page 45


 2506 0f59 86110000 		.4byte	0x1186
 2507 0f5d 43       		.byte	0x43
 2508 0f5e 15       		.uleb128 0x15
 2509 0f5f 5F6C6200 		.ascii	"_lb\000"
 2510 0f63 18       		.byte	0x18
 2511 0f64 D7       		.byte	0xd7
 2512 0f65 5E0E0000 		.4byte	0xe5e
 2513 0f69 44       		.byte	0x44
 2514 0f6a 09       		.uleb128 0x9
 2515 0f6b 3D090000 		.4byte	.LASF240
 2516 0f6f 18       		.byte	0x18
 2517 0f70 DA       		.byte	0xda
 2518 0f71 94000000 		.4byte	0x94
 2519 0f75 4C       		.byte	0x4c
 2520 0f76 09       		.uleb128 0x9
 2521 0f77 7D060000 		.4byte	.LASF241
 2522 0f7b 18       		.byte	0x18
 2523 0f7c DB       		.byte	0xdb
 2524 0f7d 3C0A0000 		.4byte	0xa3c
 2525 0f81 50       		.byte	0x50
 2526 0f82 09       		.uleb128 0x9
 2527 0f83 580C0000 		.4byte	.LASF242
 2528 0f87 18       		.byte	0x18
 2529 0f88 DE       		.byte	0xde
 2530 0f89 D10F0000 		.4byte	0xfd1
 2531 0f8d 54       		.byte	0x54
 2532 0f8e 09       		.uleb128 0x9
 2533 0f8f AE020000 		.4byte	.LASF243
 2534 0f93 18       		.byte	0x18
 2535 0f94 E2       		.byte	0xe2
 2536 0f95 B90A0000 		.4byte	0xab9
 2537 0f99 58       		.byte	0x58
 2538 0f9a 09       		.uleb128 0x9
 2539 0f9b 230A0000 		.4byte	.LASF244
 2540 0f9f 18       		.byte	0x18
 2541 0fa0 E4       		.byte	0xe4
 2542 0fa1 AE0A0000 		.4byte	0xaae
 2543 0fa5 5C       		.byte	0x5c
 2544 0fa6 09       		.uleb128 0x9
 2545 0fa7 27070000 		.4byte	.LASF245
 2546 0fab 18       		.byte	0x18
 2547 0fac E5       		.byte	0xe5
 2548 0fad 94000000 		.4byte	0x94
 2549 0fb1 64       		.byte	0x64
 2550 0fb2 00       		.byte	0
 2551 0fb3 24       		.uleb128 0x24
 2552 0fb4 94000000 		.4byte	0x94
 2553 0fb8 D10F0000 		.4byte	0xfd1
 2554 0fbc 0E       		.uleb128 0xe
 2555 0fbd D10F0000 		.4byte	0xfd1
 2556 0fc1 0E       		.uleb128 0xe
 2557 0fc2 95030000 		.4byte	0x395
 2558 0fc6 0E       		.uleb128 0xe
 2559 0fc7 C40A0000 		.4byte	0xac4
 2560 0fcb 0E       		.uleb128 0xe
 2561 0fcc 94000000 		.4byte	0x94
 2562 0fd0 00       		.byte	0
ARM GAS  /var/folders/qd/4mxf5pkd0zdf0b9dd1hp39180000gn/T//ccEUejPK.s 			page 46


 2563 0fd1 06       		.uleb128 0x6
 2564 0fd2 04       		.byte	0x4
 2565 0fd3 DC0F0000 		.4byte	0xfdc
 2566 0fd7 1C       		.uleb128 0x1c
 2567 0fd8 D10F0000 		.4byte	0xfd1
 2568 0fdc 10       		.uleb128 0x10
 2569 0fdd E6020000 		.4byte	.LASF246
 2570 0fe1 2804     		.2byte	0x428
 2571 0fe3 18       		.byte	0x18
 2572 0fe4 3902     		.2byte	0x239
 2573 0fe6 0E110000 		.4byte	0x110e
 2574 0fea 0B       		.uleb128 0xb
 2575 0feb 6C070000 		.4byte	.LASF247
 2576 0fef 18       		.byte	0x18
 2577 0ff0 3B02     		.2byte	0x23b
 2578 0ff2 94000000 		.4byte	0x94
 2579 0ff6 00       		.byte	0
 2580 0ff7 0B       		.uleb128 0xb
 2581 0ff8 87050000 		.4byte	.LASF248
 2582 0ffc 18       		.byte	0x18
 2583 0ffd 4002     		.2byte	0x240
 2584 0fff DD110000 		.4byte	0x11dd
 2585 1003 04       		.byte	0x4
 2586 1004 0B       		.uleb128 0xb
 2587 1005 A90B0000 		.4byte	.LASF249
 2588 1009 18       		.byte	0x18
 2589 100a 4002     		.2byte	0x240
 2590 100c DD110000 		.4byte	0x11dd
 2591 1010 08       		.byte	0x8
 2592 1011 0B       		.uleb128 0xb
 2593 1012 0D0A0000 		.4byte	.LASF250
 2594 1016 18       		.byte	0x18
 2595 1017 4002     		.2byte	0x240
 2596 1019 DD110000 		.4byte	0x11dd
 2597 101d 0C       		.byte	0xc
 2598 101e 0B       		.uleb128 0xb
 2599 101f A60D0000 		.4byte	.LASF251
 2600 1023 18       		.byte	0x18
 2601 1024 4202     		.2byte	0x242
 2602 1026 94000000 		.4byte	0x94
 2603 102a 10       		.byte	0x10
 2604 102b 0B       		.uleb128 0xb
 2605 102c 65080000 		.4byte	.LASF252
 2606 1030 18       		.byte	0x18
 2607 1031 4302     		.2byte	0x243
 2608 1033 BF130000 		.4byte	0x13bf
 2609 1037 14       		.byte	0x14
 2610 1038 0B       		.uleb128 0xb
 2611 1039 CC040000 		.4byte	.LASF253
 2612 103d 18       		.byte	0x18
 2613 103e 4602     		.2byte	0x246
 2614 1040 94000000 		.4byte	0x94
 2615 1044 30       		.byte	0x30
 2616 1045 0B       		.uleb128 0xb
 2617 1046 260E0000 		.4byte	.LASF254
 2618 104a 18       		.byte	0x18
 2619 104b 4702     		.2byte	0x247
ARM GAS  /var/folders/qd/4mxf5pkd0zdf0b9dd1hp39180000gn/T//ccEUejPK.s 			page 47


 2620 104d DE000000 		.4byte	0xde
 2621 1051 34       		.byte	0x34
 2622 1052 0B       		.uleb128 0xb
 2623 1053 1C070000 		.4byte	.LASF255
 2624 1057 18       		.byte	0x18
 2625 1058 4902     		.2byte	0x249
 2626 105a 94000000 		.4byte	0x94
 2627 105e 38       		.byte	0x38
 2628 105f 0B       		.uleb128 0xb
 2629 1060 2B080000 		.4byte	.LASF256
 2630 1064 18       		.byte	0x18
 2631 1065 4B02     		.2byte	0x24b
 2632 1067 DA130000 		.4byte	0x13da
 2633 106b 3C       		.byte	0x3c
 2634 106c 0B       		.uleb128 0xb
 2635 106d 4F0E0000 		.4byte	.LASF257
 2636 1071 18       		.byte	0x18
 2637 1072 4E02     		.2byte	0x24e
 2638 1074 240D0000 		.4byte	0xd24
 2639 1078 40       		.byte	0x40
 2640 1079 0B       		.uleb128 0xb
 2641 107a B1030000 		.4byte	.LASF258
 2642 107e 18       		.byte	0x18
 2643 107f 4F02     		.2byte	0x24f
 2644 1081 94000000 		.4byte	0x94
 2645 1085 44       		.byte	0x44
 2646 1086 0B       		.uleb128 0xb
 2647 1087 30060000 		.4byte	.LASF259
 2648 108b 18       		.byte	0x18
 2649 108c 5002     		.2byte	0x250
 2650 108e 240D0000 		.4byte	0xd24
 2651 1092 48       		.byte	0x48
 2652 1093 0B       		.uleb128 0xb
 2653 1094 0C090000 		.4byte	.LASF260
 2654 1098 18       		.byte	0x18
 2655 1099 5102     		.2byte	0x251
 2656 109b E0130000 		.4byte	0x13e0
 2657 109f 4C       		.byte	0x4c
 2658 10a0 0B       		.uleb128 0xb
 2659 10a1 D8010000 		.4byte	.LASF261
 2660 10a5 18       		.byte	0x18
 2661 10a6 5402     		.2byte	0x254
 2662 10a8 94000000 		.4byte	0x94
 2663 10ac 50       		.byte	0x50
 2664 10ad 0B       		.uleb128 0xb
 2665 10ae 90060000 		.4byte	.LASF262
 2666 10b2 18       		.byte	0x18
 2667 10b3 5502     		.2byte	0x255
 2668 10b5 C40A0000 		.4byte	0xac4
 2669 10b9 54       		.byte	0x54
 2670 10ba 0B       		.uleb128 0xb
 2671 10bb E3090000 		.4byte	.LASF263
 2672 10bf 18       		.byte	0x18
 2673 10c0 7802     		.2byte	0x278
 2674 10c2 9D130000 		.4byte	0x139d
 2675 10c6 58       		.byte	0x58
 2676 10c7 11       		.uleb128 0x11
ARM GAS  /var/folders/qd/4mxf5pkd0zdf0b9dd1hp39180000gn/T//ccEUejPK.s 			page 48


 2677 10c8 4F0A0000 		.4byte	.LASF223
 2678 10cc 18       		.byte	0x18
 2679 10cd 7C02     		.2byte	0x27c
 2680 10cf 410E0000 		.4byte	0xe41
 2681 10d3 4801     		.2byte	0x148
 2682 10d5 11       		.uleb128 0x11
 2683 10d6 35080000 		.4byte	.LASF264
 2684 10da 18       		.byte	0x18
 2685 10db 7D02     		.2byte	0x27d
 2686 10dd 030E0000 		.4byte	0xe03
 2687 10e1 4C01     		.2byte	0x14c
 2688 10e3 11       		.uleb128 0x11
 2689 10e4 73060000 		.4byte	.LASF265
 2690 10e8 18       		.byte	0x18
 2691 10e9 8102     		.2byte	0x281
 2692 10eb F1130000 		.4byte	0x13f1
 2693 10ef DC02     		.2byte	0x2dc
 2694 10f1 11       		.uleb128 0x11
 2695 10f2 CF080000 		.4byte	.LASF266
 2696 10f6 18       		.byte	0x18
 2697 10f7 8602     		.2byte	0x286
 2698 10f9 A2110000 		.4byte	0x11a2
 2699 10fd E002     		.2byte	0x2e0
 2700 10ff 11       		.uleb128 0x11
 2701 1100 37000000 		.4byte	.LASF267
 2702 1104 18       		.byte	0x18
 2703 1105 8802     		.2byte	0x288
 2704 1107 FD130000 		.4byte	0x13fd
 2705 110b EC02     		.2byte	0x2ec
 2706 110d 00       		.byte	0
 2707 110e 06       		.uleb128 0x6
 2708 110f 04       		.byte	0x4
 2709 1110 B30F0000 		.4byte	0xfb3
 2710 1114 24       		.uleb128 0x24
 2711 1115 94000000 		.4byte	0x94
 2712 1119 32110000 		.4byte	0x1132
 2713 111d 0E       		.uleb128 0xe
 2714 111e D10F0000 		.4byte	0xfd1
 2715 1122 0E       		.uleb128 0xe
 2716 1123 95030000 		.4byte	0x395
 2717 1127 0E       		.uleb128 0xe
 2718 1128 A7080000 		.4byte	0x8a7
 2719 112c 0E       		.uleb128 0xe
 2720 112d 94000000 		.4byte	0x94
 2721 1131 00       		.byte	0
 2722 1132 06       		.uleb128 0x6
 2723 1133 04       		.byte	0x4
 2724 1134 14110000 		.4byte	0x1114
 2725 1138 24       		.uleb128 0x24
 2726 1139 470A0000 		.4byte	0xa47
 2727 113d 56110000 		.4byte	0x1156
 2728 1141 0E       		.uleb128 0xe
 2729 1142 D10F0000 		.4byte	0xfd1
 2730 1146 0E       		.uleb128 0xe
 2731 1147 95030000 		.4byte	0x395
 2732 114b 0E       		.uleb128 0xe
 2733 114c 470A0000 		.4byte	0xa47
ARM GAS  /var/folders/qd/4mxf5pkd0zdf0b9dd1hp39180000gn/T//ccEUejPK.s 			page 49


 2734 1150 0E       		.uleb128 0xe
 2735 1151 94000000 		.4byte	0x94
 2736 1155 00       		.byte	0
 2737 1156 06       		.uleb128 0x6
 2738 1157 04       		.byte	0x4
 2739 1158 38110000 		.4byte	0x1138
 2740 115c 24       		.uleb128 0x24
 2741 115d 94000000 		.4byte	0x94
 2742 1161 70110000 		.4byte	0x1170
 2743 1165 0E       		.uleb128 0xe
 2744 1166 D10F0000 		.4byte	0xfd1
 2745 116a 0E       		.uleb128 0xe
 2746 116b 95030000 		.4byte	0x395
 2747 116f 00       		.byte	0
 2748 1170 06       		.uleb128 0x6
 2749 1171 04       		.byte	0x4
 2750 1172 5C110000 		.4byte	0x115c
 2751 1176 18       		.uleb128 0x18
 2752 1177 37000000 		.4byte	0x37
 2753 117b 86110000 		.4byte	0x1186
 2754 117f 19       		.uleb128 0x19
 2755 1180 9B000000 		.4byte	0x9b
 2756 1184 02       		.byte	0x2
 2757 1185 00       		.byte	0
 2758 1186 18       		.uleb128 0x18
 2759 1187 37000000 		.4byte	0x37
 2760 118b 96110000 		.4byte	0x1196
 2761 118f 19       		.uleb128 0x19
 2762 1190 9B000000 		.4byte	0x9b
 2763 1194 00       		.byte	0
 2764 1195 00       		.byte	0
 2765 1196 1E       		.uleb128 0x1e
 2766 1197 270C0000 		.4byte	.LASF268
 2767 119b 18       		.byte	0x18
 2768 119c 1F01     		.2byte	0x11f
 2769 119e 890E0000 		.4byte	0xe89
 2770 11a2 0C       		.uleb128 0xc
 2771 11a3 1C090000 		.4byte	.LASF269
 2772 11a7 0C       		.byte	0xc
 2773 11a8 18       		.byte	0x18
 2774 11a9 2301     		.2byte	0x123
 2775 11ab D7110000 		.4byte	0x11d7
 2776 11af 0B       		.uleb128 0xb
 2777 11b0 520C0000 		.4byte	.LASF204
 2778 11b4 18       		.byte	0x18
 2779 11b5 2501     		.2byte	0x125
 2780 11b7 D7110000 		.4byte	0x11d7
 2781 11bb 00       		.byte	0
 2782 11bc 0B       		.uleb128 0xb
 2783 11bd B5080000 		.4byte	.LASF270
 2784 11c1 18       		.byte	0x18
 2785 11c2 2601     		.2byte	0x126
 2786 11c4 94000000 		.4byte	0x94
 2787 11c8 04       		.byte	0x4
 2788 11c9 0B       		.uleb128 0xb
 2789 11ca 16090000 		.4byte	.LASF271
 2790 11ce 18       		.byte	0x18
ARM GAS  /var/folders/qd/4mxf5pkd0zdf0b9dd1hp39180000gn/T//ccEUejPK.s 			page 50


 2791 11cf 2701     		.2byte	0x127
 2792 11d1 DD110000 		.4byte	0x11dd
 2793 11d5 08       		.byte	0x8
 2794 11d6 00       		.byte	0
 2795 11d7 06       		.uleb128 0x6
 2796 11d8 04       		.byte	0x4
 2797 11d9 A2110000 		.4byte	0x11a2
 2798 11dd 06       		.uleb128 0x6
 2799 11de 04       		.byte	0x4
 2800 11df 96110000 		.4byte	0x1196
 2801 11e3 0C       		.uleb128 0xc
 2802 11e4 940B0000 		.4byte	.LASF272
 2803 11e8 0E       		.byte	0xe
 2804 11e9 18       		.byte	0x18
 2805 11ea 3F01     		.2byte	0x13f
 2806 11ec 18120000 		.4byte	0x1218
 2807 11f0 0B       		.uleb128 0xb
 2808 11f1 A8020000 		.4byte	.LASF273
 2809 11f5 18       		.byte	0x18
 2810 11f6 4001     		.2byte	0x140
 2811 11f8 18120000 		.4byte	0x1218
 2812 11fc 00       		.byte	0
 2813 11fd 0B       		.uleb128 0xb
 2814 11fe E0020000 		.4byte	.LASF274
 2815 1202 18       		.byte	0x18
 2816 1203 4101     		.2byte	0x141
 2817 1205 18120000 		.4byte	0x1218
 2818 1209 06       		.byte	0x6
 2819 120a 0B       		.uleb128 0xb
 2820 120b 6C0E0000 		.4byte	.LASF275
 2821 120f 18       		.byte	0x18
 2822 1210 4201     		.2byte	0x142
 2823 1212 50000000 		.4byte	0x50
 2824 1216 0C       		.byte	0xc
 2825 1217 00       		.byte	0
 2826 1218 18       		.uleb128 0x18
 2827 1219 50000000 		.4byte	0x50
 2828 121d 28120000 		.4byte	0x1228
 2829 1221 19       		.uleb128 0x19
 2830 1222 9B000000 		.4byte	0x9b
 2831 1226 02       		.byte	0x2
 2832 1227 00       		.byte	0
 2833 1228 25       		.uleb128 0x25
 2834 1229 D0       		.byte	0xd0
 2835 122a 18       		.byte	0x18
 2836 122b 5902     		.2byte	0x259
 2837 122d 29130000 		.4byte	0x1329
 2838 1231 0B       		.uleb128 0xb
 2839 1232 3C0B0000 		.4byte	.LASF276
 2840 1236 18       		.byte	0x18
 2841 1237 5B02     		.2byte	0x25b
 2842 1239 9B000000 		.4byte	0x9b
 2843 123d 00       		.byte	0
 2844 123e 0B       		.uleb128 0xb
 2845 123f D80B0000 		.4byte	.LASF277
 2846 1243 18       		.byte	0x18
 2847 1244 5C02     		.2byte	0x25c
ARM GAS  /var/folders/qd/4mxf5pkd0zdf0b9dd1hp39180000gn/T//ccEUejPK.s 			page 51


 2848 1246 C40A0000 		.4byte	0xac4
 2849 124a 04       		.byte	0x4
 2850 124b 0B       		.uleb128 0xb
 2851 124c CB010000 		.4byte	.LASF278
 2852 1250 18       		.byte	0x18
 2853 1251 5D02     		.2byte	0x25d
 2854 1253 29130000 		.4byte	0x1329
 2855 1257 08       		.byte	0x8
 2856 1258 0B       		.uleb128 0xb
 2857 1259 D5030000 		.4byte	.LASF279
 2858 125d 18       		.byte	0x18
 2859 125e 5E02     		.2byte	0x25e
 2860 1260 3A0D0000 		.4byte	0xd3a
 2861 1264 24       		.byte	0x24
 2862 1265 0B       		.uleb128 0xb
 2863 1266 E8080000 		.4byte	.LASF280
 2864 126a 18       		.byte	0x18
 2865 126b 5F02     		.2byte	0x25f
 2866 126d 94000000 		.4byte	0x94
 2867 1271 48       		.byte	0x48
 2868 1272 0B       		.uleb128 0xb
 2869 1273 2C0A0000 		.4byte	.LASF281
 2870 1277 18       		.byte	0x18
 2871 1278 6002     		.2byte	0x260
 2872 127a 8D000000 		.4byte	0x8d
 2873 127e 50       		.byte	0x50
 2874 127f 0B       		.uleb128 0xb
 2875 1280 460C0000 		.4byte	.LASF282
 2876 1284 18       		.byte	0x18
 2877 1285 6102     		.2byte	0x261
 2878 1287 E3110000 		.4byte	0x11e3
 2879 128b 58       		.byte	0x58
 2880 128c 0B       		.uleb128 0xb
 2881 128d F60C0000 		.4byte	.LASF283
 2882 1291 18       		.byte	0x18
 2883 1292 6202     		.2byte	0x262
 2884 1294 AE0A0000 		.4byte	0xaae
 2885 1298 68       		.byte	0x68
 2886 1299 0B       		.uleb128 0xb
 2887 129a 190B0000 		.4byte	.LASF284
 2888 129e 18       		.byte	0x18
 2889 129f 6302     		.2byte	0x263
 2890 12a1 AE0A0000 		.4byte	0xaae
 2891 12a5 70       		.byte	0x70
 2892 12a6 0B       		.uleb128 0xb
 2893 12a7 150A0000 		.4byte	.LASF285
 2894 12ab 18       		.byte	0x18
 2895 12ac 6402     		.2byte	0x264
 2896 12ae AE0A0000 		.4byte	0xaae
 2897 12b2 78       		.byte	0x78
 2898 12b3 0B       		.uleb128 0xb
 2899 12b4 38020000 		.4byte	.LASF286
 2900 12b8 18       		.byte	0x18
 2901 12b9 6502     		.2byte	0x265
 2902 12bb 39130000 		.4byte	0x1339
 2903 12bf 80       		.byte	0x80
 2904 12c0 0B       		.uleb128 0xb
ARM GAS  /var/folders/qd/4mxf5pkd0zdf0b9dd1hp39180000gn/T//ccEUejPK.s 			page 52


 2905 12c1 90070000 		.4byte	.LASF287
 2906 12c5 18       		.byte	0x18
 2907 12c6 6602     		.2byte	0x266
 2908 12c8 49130000 		.4byte	0x1349
 2909 12cc 88       		.byte	0x88
 2910 12cd 0B       		.uleb128 0xb
 2911 12ce 100F0000 		.4byte	.LASF288
 2912 12d2 18       		.byte	0x18
 2913 12d3 6702     		.2byte	0x267
 2914 12d5 94000000 		.4byte	0x94
 2915 12d9 A0       		.byte	0xa0
 2916 12da 0B       		.uleb128 0xb
 2917 12db 87030000 		.4byte	.LASF289
 2918 12df 18       		.byte	0x18
 2919 12e0 6802     		.2byte	0x268
 2920 12e2 AE0A0000 		.4byte	0xaae
 2921 12e6 A4       		.byte	0xa4
 2922 12e7 0B       		.uleb128 0xb
 2923 12e8 F20B0000 		.4byte	.LASF290
 2924 12ec 18       		.byte	0x18
 2925 12ed 6902     		.2byte	0x269
 2926 12ef AE0A0000 		.4byte	0xaae
 2927 12f3 AC       		.byte	0xac
 2928 12f4 0B       		.uleb128 0xb
 2929 12f5 AC0E0000 		.4byte	.LASF291
 2930 12f9 18       		.byte	0x18
 2931 12fa 6A02     		.2byte	0x26a
 2932 12fc AE0A0000 		.4byte	0xaae
 2933 1300 B4       		.byte	0xb4
 2934 1301 0B       		.uleb128 0xb
 2935 1302 B4090000 		.4byte	.LASF292
 2936 1306 18       		.byte	0x18
 2937 1307 6B02     		.2byte	0x26b
 2938 1309 AE0A0000 		.4byte	0xaae
 2939 130d BC       		.byte	0xbc
 2940 130e 0B       		.uleb128 0xb
 2941 130f 18020000 		.4byte	.LASF293
 2942 1313 18       		.byte	0x18
 2943 1314 6C02     		.2byte	0x26c
 2944 1316 AE0A0000 		.4byte	0xaae
 2945 131a C4       		.byte	0xc4
 2946 131b 0B       		.uleb128 0xb
 2947 131c 98090000 		.4byte	.LASF294
 2948 1320 18       		.byte	0x18
 2949 1321 6D02     		.2byte	0x26d
 2950 1323 94000000 		.4byte	0x94
 2951 1327 CC       		.byte	0xcc
 2952 1328 00       		.byte	0
 2953 1329 18       		.uleb128 0x18
 2954 132a B2080000 		.4byte	0x8b2
 2955 132e 39130000 		.4byte	0x1339
 2956 1332 19       		.uleb128 0x19
 2957 1333 9B000000 		.4byte	0x9b
 2958 1337 19       		.byte	0x19
 2959 1338 00       		.byte	0
 2960 1339 18       		.uleb128 0x18
 2961 133a B2080000 		.4byte	0x8b2
ARM GAS  /var/folders/qd/4mxf5pkd0zdf0b9dd1hp39180000gn/T//ccEUejPK.s 			page 53


 2962 133e 49130000 		.4byte	0x1349
 2963 1342 19       		.uleb128 0x19
 2964 1343 9B000000 		.4byte	0x9b
 2965 1347 07       		.byte	0x7
 2966 1348 00       		.byte	0
 2967 1349 18       		.uleb128 0x18
 2968 134a B2080000 		.4byte	0x8b2
 2969 134e 59130000 		.4byte	0x1359
 2970 1352 19       		.uleb128 0x19
 2971 1353 9B000000 		.4byte	0x9b
 2972 1357 17       		.byte	0x17
 2973 1358 00       		.byte	0
 2974 1359 25       		.uleb128 0x25
 2975 135a F0       		.byte	0xf0
 2976 135b 18       		.byte	0x18
 2977 135c 7202     		.2byte	0x272
 2978 135e 7D130000 		.4byte	0x137d
 2979 1362 0B       		.uleb128 0xb
 2980 1363 E60D0000 		.4byte	.LASF295
 2981 1367 18       		.byte	0x18
 2982 1368 7502     		.2byte	0x275
 2983 136a 7D130000 		.4byte	0x137d
 2984 136e 00       		.byte	0
 2985 136f 0B       		.uleb128 0xb
 2986 1370 D7080000 		.4byte	.LASF296
 2987 1374 18       		.byte	0x18
 2988 1375 7602     		.2byte	0x276
 2989 1377 8D130000 		.4byte	0x138d
 2990 137b 78       		.byte	0x78
 2991 137c 00       		.byte	0
 2992 137d 18       		.uleb128 0x18
 2993 137e 830E0000 		.4byte	0xe83
 2994 1382 8D130000 		.4byte	0x138d
 2995 1386 19       		.uleb128 0x19
 2996 1387 9B000000 		.4byte	0x9b
 2997 138b 1D       		.byte	0x1d
 2998 138c 00       		.byte	0
 2999 138d 18       		.uleb128 0x18
 3000 138e 9B000000 		.4byte	0x9b
 3001 1392 9D130000 		.4byte	0x139d
 3002 1396 19       		.uleb128 0x19
 3003 1397 9B000000 		.4byte	0x9b
 3004 139b 1D       		.byte	0x1d
 3005 139c 00       		.byte	0
 3006 139d 26       		.uleb128 0x26
 3007 139e F0       		.byte	0xf0
 3008 139f 18       		.byte	0x18
 3009 13a0 5702     		.2byte	0x257
 3010 13a2 BF130000 		.4byte	0x13bf
 3011 13a6 1B       		.uleb128 0x1b
 3012 13a7 E6020000 		.4byte	.LASF246
 3013 13ab 18       		.byte	0x18
 3014 13ac 6E02     		.2byte	0x26e
 3015 13ae 28120000 		.4byte	0x1228
 3016 13b2 1B       		.uleb128 0x1b
 3017 13b3 0B020000 		.4byte	.LASF297
 3018 13b7 18       		.byte	0x18
ARM GAS  /var/folders/qd/4mxf5pkd0zdf0b9dd1hp39180000gn/T//ccEUejPK.s 			page 54


 3019 13b8 7702     		.2byte	0x277
 3020 13ba 59130000 		.4byte	0x1359
 3021 13be 00       		.byte	0
 3022 13bf 18       		.uleb128 0x18
 3023 13c0 B2080000 		.4byte	0x8b2
 3024 13c4 CF130000 		.4byte	0x13cf
 3025 13c8 19       		.uleb128 0x19
 3026 13c9 9B000000 		.4byte	0x9b
 3027 13cd 18       		.byte	0x18
 3028 13ce 00       		.byte	0
 3029 13cf 0D       		.uleb128 0xd
 3030 13d0 DA130000 		.4byte	0x13da
 3031 13d4 0E       		.uleb128 0xe
 3032 13d5 D10F0000 		.4byte	0xfd1
 3033 13d9 00       		.byte	0
 3034 13da 06       		.uleb128 0x6
 3035 13db 04       		.byte	0x4
 3036 13dc CF130000 		.4byte	0x13cf
 3037 13e0 06       		.uleb128 0x6
 3038 13e1 04       		.byte	0x4
 3039 13e2 240D0000 		.4byte	0xd24
 3040 13e6 0D       		.uleb128 0xd
 3041 13e7 F1130000 		.4byte	0x13f1
 3042 13eb 0E       		.uleb128 0xe
 3043 13ec 94000000 		.4byte	0x94
 3044 13f0 00       		.byte	0
 3045 13f1 06       		.uleb128 0x6
 3046 13f2 04       		.byte	0x4
 3047 13f3 F7130000 		.4byte	0x13f7
 3048 13f7 06       		.uleb128 0x6
 3049 13f8 04       		.byte	0x4
 3050 13f9 E6130000 		.4byte	0x13e6
 3051 13fd 18       		.uleb128 0x18
 3052 13fe 96110000 		.4byte	0x1196
 3053 1402 0D140000 		.4byte	0x140d
 3054 1406 19       		.uleb128 0x19
 3055 1407 9B000000 		.4byte	0x9b
 3056 140b 02       		.byte	0x2
 3057 140c 00       		.byte	0
 3058 140d 13       		.uleb128 0x13
 3059 140e A5030000 		.4byte	.LASF298
 3060 1412 18       		.byte	0x18
 3061 1413 0703     		.2byte	0x307
 3062 1415 D10F0000 		.4byte	0xfd1
 3063 1419 13       		.uleb128 0x13
 3064 141a FA040000 		.4byte	.LASF299
 3065 141e 18       		.byte	0x18
 3066 141f 0803     		.2byte	0x308
 3067 1421 D70F0000 		.4byte	0xfd7
 3068 1425 27       		.uleb128 0x27
 3069 1426 7C0A0000 		.4byte	.LASF300
 3070 142a 01       		.byte	0x1
 3071 142b 19       		.byte	0x19
 3072 142c F1090000 		.4byte	0x9f1
 3073 1430 05       		.uleb128 0x5
 3074 1431 03       		.byte	0x3
 3075 1432 00000000 		.4byte	bus_lock
ARM GAS  /var/folders/qd/4mxf5pkd0zdf0b9dd1hp39180000gn/T//ccEUejPK.s 			page 55


 3076 1436 27       		.uleb128 0x27
 3077 1437 0F030000 		.4byte	.LASF301
 3078 143b 01       		.byte	0x1
 3079 143c 1A       		.byte	0x1a
 3080 143d 1B0A0000 		.4byte	0xa1b
 3081 1441 05       		.uleb128 0x5
 3082 1442 03       		.byte	0x3
 3083 1443 00000000 		.4byte	bus_condvar
 3084 1447 28       		.uleb128 0x28
 3085 1448 0D0D0000 		.4byte	.LASF302
 3086 144c 01       		.byte	0x1
 3087 144d 1D       		.byte	0x1d
 3088 144e 94000000 		.4byte	0x94
 3089 1452 05       		.uleb128 0x5
 3090 1453 03       		.byte	0x3
 3091 1454 00000000 		.4byte	tof_bias
 3092 1458 28       		.uleb128 0x28
 3093 1459 B00D0000 		.4byte	.LASF303
 3094 145d 01       		.byte	0x1
 3095 145e 1E       		.byte	0x1e
 3096 145f 94000000 		.4byte	0x94
 3097 1463 05       		.uleb128 0x5
 3098 1464 03       		.byte	0x3
 3099 1465 00000000 		.4byte	proximity_bias
 3100 1469 28       		.uleb128 0x28
 3101 146a 150C0000 		.4byte	.LASF304
 3102 146e 01       		.byte	0x1
 3103 146f 1F       		.byte	0x1f
 3104 1470 94000000 		.4byte	0x94
 3105 1474 05       		.uleb128 0x5
 3106 1475 03       		.byte	0x3
 3107 1476 00000000 		.4byte	proximity_divider
 3108 147a 29       		.uleb128 0x29
 3109 147b 5D040000 		.4byte	.LASF306
 3110 147f 01       		.byte	0x1
 3111 1480 5C       		.byte	0x5c
 3112 1481 00000000 		.4byte	.LFB228
 3113 1485 50000000 		.4byte	.LFE228-.LFB228
 3114 1489 01       		.uleb128 0x1
 3115 148a 9C       		.byte	0x9c
 3116 148b D9140000 		.4byte	0x14d9
 3117 148f 2A       		.uleb128 0x2a
 3118 1490 2C050000 		.4byte	.LASF308
 3119 1494 01       		.byte	0x1
 3120 1495 5C       		.byte	0x5c
 3121 1496 D9140000 		.4byte	0x14d9
 3122 149a 00000000 		.4byte	.LLST4
 3123 149e 28       		.uleb128 0x28
 3124 149f BB060000 		.4byte	.LASF305
 3125 14a3 01       		.byte	0x1
 3126 14a4 5E       		.byte	0x5e
 3127 14a5 BB0C0000 		.4byte	0xcbb
 3128 14a9 03       		.uleb128 0x3
 3129 14aa 91       		.byte	0x91
 3130 14ab E47E     		.sleb128 -156
 3131 14ad 2B       		.uleb128 0x2b
 3132 14ae 6900     		.ascii	"i\000"
ARM GAS  /var/folders/qd/4mxf5pkd0zdf0b9dd1hp39180000gn/T//ccEUejPK.s 			page 56


 3133 14b0 01       		.byte	0x1
 3134 14b1 61       		.byte	0x61
 3135 14b2 94000000 		.4byte	0x94
 3136 14b6 1E000000 		.4byte	.LLST5
 3137 14ba 2C       		.uleb128 0x2c
 3138 14bb 12000000 		.4byte	.LVL26
 3139 14bf 46160000 		.4byte	0x1646
 3140 14c3 CF140000 		.4byte	0x14cf
 3141 14c7 2D       		.uleb128 0x2d
 3142 14c8 01       		.uleb128 0x1
 3143 14c9 50       		.byte	0x50
 3144 14ca 03       		.uleb128 0x3
 3145 14cb 91       		.byte	0x91
 3146 14cc E47E     		.sleb128 -156
 3147 14ce 00       		.byte	0
 3148 14cf 2E       		.uleb128 0x2e
 3149 14d0 44000000 		.4byte	.LVL29
 3150 14d4 BB160000 		.4byte	0x16bb
 3151 14d8 00       		.byte	0
 3152 14d9 06       		.uleb128 0x6
 3153 14da 04       		.byte	0x4
 3154 14db 94000000 		.4byte	0x94
 3155 14df 29       		.uleb128 0x29
 3156 14e0 280D0000 		.4byte	.LASF307
 3157 14e4 01       		.byte	0x1
 3158 14e5 46       		.byte	0x46
 3159 14e6 00000000 		.4byte	.LFB227
 3160 14ea 78000000 		.4byte	.LFE227-.LFB227
 3161 14ee 01       		.uleb128 0x1
 3162 14ef 9C       		.byte	0x9c
 3163 14f0 5A150000 		.4byte	0x155a
 3164 14f4 2A       		.uleb128 0x2a
 3165 14f5 E4030000 		.4byte	.LASF309
 3166 14f9 01       		.byte	0x1
 3167 14fa 46       		.byte	0x46
 3168 14fb 94000000 		.4byte	0x94
 3169 14ff 32000000 		.4byte	.LLST3
 3170 1503 2F       		.uleb128 0x2f
 3171 1504 6900     		.ascii	"i\000"
 3172 1506 01       		.byte	0x1
 3173 1507 48       		.byte	0x48
 3174 1508 8F0B0000 		.4byte	0xb8f
 3175 150c 05       		.uleb128 0x5
 3176 150d 03       		.byte	0x3
 3177 150e 00000000 		.4byte	i.10160
 3178 1512 28       		.uleb128 0x28
 3179 1513 0B060000 		.4byte	.LASF310
 3180 1517 01       		.byte	0x1
 3181 1518 49       		.byte	0x49
 3182 1519 5A150000 		.4byte	0x155a
 3183 151d 05       		.uleb128 0x5
 3184 151e 03       		.byte	0x3
 3185 151f 00000000 		.4byte	previousValue.10161
 3186 1523 28       		.uleb128 0x28
 3187 1524 BB060000 		.4byte	.LASF305
 3188 1528 01       		.byte	0x1
 3189 1529 4B       		.byte	0x4b
ARM GAS  /var/folders/qd/4mxf5pkd0zdf0b9dd1hp39180000gn/T//ccEUejPK.s 			page 57


 3190 152a BB0C0000 		.4byte	0xcbb
 3191 152e 03       		.uleb128 0x3
 3192 152f 91       		.byte	0x91
 3193 1530 E47E     		.sleb128 -156
 3194 1532 2C       		.uleb128 0x2c
 3195 1533 14000000 		.4byte	.LVL20
 3196 1537 46160000 		.4byte	0x1646
 3197 153b 47150000 		.4byte	0x1547
 3198 153f 2D       		.uleb128 0x2d
 3199 1540 01       		.uleb128 0x1
 3200 1541 50       		.byte	0x50
 3201 1542 03       		.uleb128 0x3
 3202 1543 91       		.byte	0x91
 3203 1544 E47E     		.sleb128 -156
 3204 1546 00       		.byte	0
 3205 1547 2E       		.uleb128 0x2e
 3206 1548 54000000 		.4byte	.LVL22
 3207 154c C4160000 		.4byte	0x16c4
 3208 1550 2E       		.uleb128 0x2e
 3209 1551 64000000 		.4byte	.LVL23
 3210 1555 BB160000 		.4byte	0x16bb
 3211 1559 00       		.byte	0
 3212 155a 18       		.uleb128 0x18
 3213 155b 94000000 		.4byte	0x94
 3214 155f 6A150000 		.4byte	0x156a
 3215 1563 19       		.uleb128 0x19
 3216 1564 9B000000 		.4byte	0x9b
 3217 1568 01       		.byte	0x1
 3218 1569 00       		.byte	0
 3219 156a 29       		.uleb128 0x29
 3220 156b A3050000 		.4byte	.LASF311
 3221 156f 01       		.byte	0x1
 3222 1570 41       		.byte	0x41
 3223 1571 00000000 		.4byte	.LFB226
 3224 1575 24000000 		.4byte	.LFE226-.LFB226
 3225 1579 01       		.uleb128 0x1
 3226 157a 9C       		.byte	0x9c
 3227 157b 92150000 		.4byte	0x1592
 3228 157f 30       		.uleb128 0x30
 3229 1580 1C000000 		.4byte	.LVL16
 3230 1584 CF160000 		.4byte	0x16cf
 3231 1588 2E       		.uleb128 0x2e
 3232 1589 20000000 		.4byte	.LVL17
 3233 158d BB160000 		.4byte	0x16bb
 3234 1591 00       		.byte	0
 3235 1592 29       		.uleb128 0x29
 3236 1593 570D0000 		.4byte	.LASF312
 3237 1597 01       		.byte	0x1
 3238 1598 38       		.byte	0x38
 3239 1599 00000000 		.4byte	.LFB225
 3240 159d 40000000 		.4byte	.LFE225-.LFB225
 3241 15a1 01       		.uleb128 0x1
 3242 15a2 9C       		.byte	0x9c
 3243 15a3 E3150000 		.4byte	0x15e3
 3244 15a7 2E       		.uleb128 0x2e
 3245 15a8 0E000000 		.4byte	.LVL12
 3246 15ac DA160000 		.4byte	0x16da
ARM GAS  /var/folders/qd/4mxf5pkd0zdf0b9dd1hp39180000gn/T//ccEUejPK.s 			page 58


 3247 15b0 2C       		.uleb128 0x2c
 3248 15b1 18000000 		.4byte	.LVL13
 3249 15b5 E5160000 		.4byte	0x16e5
 3250 15b9 D0150000 		.4byte	0x15d0
 3251 15bd 2D       		.uleb128 0x2d
 3252 15be 01       		.uleb128 0x1
 3253 15bf 51       		.byte	0x51
 3254 15c0 05       		.uleb128 0x5
 3255 15c1 03       		.byte	0x3
 3256 15c2 00000000 		.4byte	.LANCHOR2
 3257 15c6 2D       		.uleb128 0x2d
 3258 15c7 01       		.uleb128 0x1
 3259 15c8 52       		.byte	0x52
 3260 15c9 05       		.uleb128 0x5
 3261 15ca 03       		.byte	0x3
 3262 15cb 00000000 		.4byte	.LANCHOR1
 3263 15cf 00       		.byte	0
 3264 15d0 30       		.uleb128 0x30
 3265 15d1 2A000000 		.4byte	.LVL14
 3266 15d5 F0160000 		.4byte	0x16f0
 3267 15d9 2E       		.uleb128 0x2e
 3268 15da 2E000000 		.4byte	.LVL15
 3269 15de BB160000 		.4byte	0x16bb
 3270 15e2 00       		.byte	0
 3271 15e3 31       		.uleb128 0x31
 3272 15e4 BD020000 		.4byte	.LASF328
 3273 15e8 01       		.byte	0x1
 3274 15e9 33       		.byte	0x33
 3275 15ea 94000000 		.4byte	0x94
 3276 15ee 00000000 		.4byte	.LFB224
 3277 15f2 30000000 		.4byte	.LFE224-.LFB224
 3278 15f6 01       		.uleb128 0x1
 3279 15f7 9C       		.byte	0x9c
 3280 15f8 0F160000 		.4byte	0x160f
 3281 15fc 2E       		.uleb128 0x2e
 3282 15fd 0E000000 		.4byte	.LVL10
 3283 1601 FB160000 		.4byte	0x16fb
 3284 1605 2E       		.uleb128 0x2e
 3285 1606 26000000 		.4byte	.LVL11
 3286 160a BB160000 		.4byte	0x16bb
 3287 160e 00       		.byte	0
 3288 160f 29       		.uleb128 0x29
 3289 1610 44050000 		.4byte	.LASF313
 3290 1614 01       		.byte	0x1
 3291 1615 2F       		.byte	0x2f
 3292 1616 00000000 		.4byte	.LFB223
 3293 161a 30000000 		.4byte	.LFE223-.LFB223
 3294 161e 01       		.uleb128 0x1
 3295 161f 9C       		.byte	0x9c
 3296 1620 46160000 		.4byte	0x1646
 3297 1624 2A       		.uleb128 0x2a
 3298 1625 4D080000 		.4byte	.LASF314
 3299 1629 01       		.byte	0x1
 3300 162a 2F       		.byte	0x2f
 3301 162b 94000000 		.4byte	0x94
 3302 162f 50000000 		.4byte	.LLST2
 3303 1633 2E       		.uleb128 0x2e
ARM GAS  /var/folders/qd/4mxf5pkd0zdf0b9dd1hp39180000gn/T//ccEUejPK.s 			page 59


 3304 1634 10000000 		.4byte	.LVL7
 3305 1638 FB160000 		.4byte	0x16fb
 3306 163c 2E       		.uleb128 0x2e
 3307 163d 26000000 		.4byte	.LVL9
 3308 1641 BB160000 		.4byte	0x16bb
 3309 1645 00       		.byte	0
 3310 1646 29       		.uleb128 0x29
 3311 1647 1B030000 		.4byte	.LASF315
 3312 164b 01       		.byte	0x1
 3313 164c 26       		.byte	0x26
 3314 164d 00000000 		.4byte	.LFB222
 3315 1651 3C000000 		.4byte	.LFE222-.LFB222
 3316 1655 01       		.uleb128 0x1
 3317 1656 9C       		.byte	0x9c
 3318 1657 B5160000 		.4byte	0x16b5
 3319 165b 2A       		.uleb128 0x2a
 3320 165c BB060000 		.4byte	.LASF305
 3321 1660 01       		.byte	0x1
 3322 1661 26       		.byte	0x26
 3323 1662 B5160000 		.4byte	0x16b5
 3324 1666 6E000000 		.4byte	.LLST0
 3325 166a 32       		.uleb128 0x32
 3326 166b C4080000 		.4byte	.LASF316
 3327 166f 01       		.byte	0x1
 3328 1670 27       		.byte	0x27
 3329 1671 E70B0000 		.4byte	0xbe7
 3330 1675 B0000000 		.4byte	.LLST1
 3331 1679 2C       		.uleb128 0x2c
 3332 167a 14000000 		.4byte	.LVL2
 3333 167e 06170000 		.4byte	0x1706
 3334 1682 90160000 		.4byte	0x1690
 3335 1686 2D       		.uleb128 0x2d
 3336 1687 01       		.uleb128 0x1
 3337 1688 51       		.byte	0x51
 3338 1689 05       		.uleb128 0x5
 3339 168a 03       		.byte	0x3
 3340 168b 00000000 		.4byte	.LC0
 3341 168f 00       		.byte	0
 3342 1690 33       		.uleb128 0x33
 3343 1691 2A000000 		.4byte	.LVL4
 3344 1695 11170000 		.4byte	0x1711
 3345 1699 AB160000 		.4byte	0x16ab
 3346 169d 2D       		.uleb128 0x2d
 3347 169e 01       		.uleb128 0x1
 3348 169f 51       		.byte	0x51
 3349 16a0 03       		.uleb128 0x3
 3350 16a1 F3       		.byte	0xf3
 3351 16a2 01       		.uleb128 0x1
 3352 16a3 50       		.byte	0x50
 3353 16a4 2D       		.uleb128 0x2d
 3354 16a5 01       		.uleb128 0x1
 3355 16a6 52       		.byte	0x52
 3356 16a7 02       		.uleb128 0x2
 3357 16a8 08       		.byte	0x8
 3358 16a9 80       		.byte	0x80
 3359 16aa 00       		.byte	0
 3360 16ab 2E       		.uleb128 0x2e
ARM GAS  /var/folders/qd/4mxf5pkd0zdf0b9dd1hp39180000gn/T//ccEUejPK.s 			page 60


 3361 16ac 2E000000 		.4byte	.LVL5
 3362 16b0 BB160000 		.4byte	0x16bb
 3363 16b4 00       		.byte	0
 3364 16b5 06       		.uleb128 0x6
 3365 16b6 04       		.byte	0x4
 3366 16b7 BB0C0000 		.4byte	0xcbb
 3367 16bb 34       		.uleb128 0x34
 3368 16bc 70080000 		.4byte	.LASF329
 3369 16c0 70080000 		.4byte	.LASF329
 3370 16c4 35       		.uleb128 0x35
 3371 16c5 E50B0000 		.4byte	.LASF317
 3372 16c9 E50B0000 		.4byte	.LASF317
 3373 16cd 17       		.byte	0x17
 3374 16ce 27       		.byte	0x27
 3375 16cf 35       		.uleb128 0x35
 3376 16d0 FF080000 		.4byte	.LASF318
 3377 16d4 FF080000 		.4byte	.LASF318
 3378 16d8 19       		.byte	0x19
 3379 16d9 4A       		.byte	0x4a
 3380 16da 35       		.uleb128 0x35
 3381 16db 640C0000 		.4byte	.LASF319
 3382 16df 640C0000 		.4byte	.LASF319
 3383 16e3 19       		.byte	0x19
 3384 16e4 44       		.byte	0x44
 3385 16e5 35       		.uleb128 0x35
 3386 16e6 BB050000 		.4byte	.LASF320
 3387 16ea BB050000 		.4byte	.LASF320
 3388 16ee 16       		.byte	0x16
 3389 16ef 49       		.byte	0x49
 3390 16f0 35       		.uleb128 0x35
 3391 16f1 0C0E0000 		.4byte	.LASF321
 3392 16f5 0C0E0000 		.4byte	.LASF321
 3393 16f9 17       		.byte	0x17
 3394 16fa 22       		.byte	0x22
 3395 16fb 35       		.uleb128 0x35
 3396 16fc D6050000 		.4byte	.LASF322
 3397 1700 D6050000 		.4byte	.LASF322
 3398 1704 19       		.byte	0x19
 3399 1705 51       		.byte	0x51
 3400 1706 35       		.uleb128 0x35
 3401 1707 E8090000 		.4byte	.LASF323
 3402 170b E8090000 		.4byte	.LASF323
 3403 170f 16       		.byte	0x16
 3404 1710 64       		.byte	0x64
 3405 1711 35       		.uleb128 0x35
 3406 1712 E00C0000 		.4byte	.LASF324
 3407 1716 E00C0000 		.4byte	.LASF324
 3408 171a 16       		.byte	0x16
 3409 171b 83       		.byte	0x83
 3410 171c 00       		.byte	0
 3411              		.section	.debug_abbrev,"",%progbits
 3412              	.Ldebug_abbrev0:
 3413 0000 01       		.uleb128 0x1
 3414 0001 11       		.uleb128 0x11
 3415 0002 01       		.byte	0x1
 3416 0003 25       		.uleb128 0x25
 3417 0004 0E       		.uleb128 0xe
ARM GAS  /var/folders/qd/4mxf5pkd0zdf0b9dd1hp39180000gn/T//ccEUejPK.s 			page 61


 3418 0005 13       		.uleb128 0x13
 3419 0006 0B       		.uleb128 0xb
 3420 0007 03       		.uleb128 0x3
 3421 0008 0E       		.uleb128 0xe
 3422 0009 1B       		.uleb128 0x1b
 3423 000a 0E       		.uleb128 0xe
 3424 000b 55       		.uleb128 0x55
 3425 000c 17       		.uleb128 0x17
 3426 000d 11       		.uleb128 0x11
 3427 000e 01       		.uleb128 0x1
 3428 000f 10       		.uleb128 0x10
 3429 0010 17       		.uleb128 0x17
 3430 0011 00       		.byte	0
 3431 0012 00       		.byte	0
 3432 0013 02       		.uleb128 0x2
 3433 0014 24       		.uleb128 0x24
 3434 0015 00       		.byte	0
 3435 0016 0B       		.uleb128 0xb
 3436 0017 0B       		.uleb128 0xb
 3437 0018 3E       		.uleb128 0x3e
 3438 0019 0B       		.uleb128 0xb
 3439 001a 03       		.uleb128 0x3
 3440 001b 0E       		.uleb128 0xe
 3441 001c 00       		.byte	0
 3442 001d 00       		.byte	0
 3443 001e 03       		.uleb128 0x3
 3444 001f 16       		.uleb128 0x16
 3445 0020 00       		.byte	0
 3446 0021 03       		.uleb128 0x3
 3447 0022 0E       		.uleb128 0xe
 3448 0023 3A       		.uleb128 0x3a
 3449 0024 0B       		.uleb128 0xb
 3450 0025 3B       		.uleb128 0x3b
 3451 0026 0B       		.uleb128 0xb
 3452 0027 49       		.uleb128 0x49
 3453 0028 13       		.uleb128 0x13
 3454 0029 00       		.byte	0
 3455 002a 00       		.byte	0
 3456 002b 04       		.uleb128 0x4
 3457 002c 24       		.uleb128 0x24
 3458 002d 00       		.byte	0
 3459 002e 0B       		.uleb128 0xb
 3460 002f 0B       		.uleb128 0xb
 3461 0030 3E       		.uleb128 0x3e
 3462 0031 0B       		.uleb128 0xb
 3463 0032 03       		.uleb128 0x3
 3464 0033 08       		.uleb128 0x8
 3465 0034 00       		.byte	0
 3466 0035 00       		.byte	0
 3467 0036 05       		.uleb128 0x5
 3468 0037 35       		.uleb128 0x35
 3469 0038 00       		.byte	0
 3470 0039 49       		.uleb128 0x49
 3471 003a 13       		.uleb128 0x13
 3472 003b 00       		.byte	0
 3473 003c 00       		.byte	0
 3474 003d 06       		.uleb128 0x6
ARM GAS  /var/folders/qd/4mxf5pkd0zdf0b9dd1hp39180000gn/T//ccEUejPK.s 			page 62


 3475 003e 0F       		.uleb128 0xf
 3476 003f 00       		.byte	0
 3477 0040 0B       		.uleb128 0xb
 3478 0041 0B       		.uleb128 0xb
 3479 0042 49       		.uleb128 0x49
 3480 0043 13       		.uleb128 0x13
 3481 0044 00       		.byte	0
 3482 0045 00       		.byte	0
 3483 0046 07       		.uleb128 0x7
 3484 0047 13       		.uleb128 0x13
 3485 0048 00       		.byte	0
 3486 0049 03       		.uleb128 0x3
 3487 004a 0E       		.uleb128 0xe
 3488 004b 3C       		.uleb128 0x3c
 3489 004c 19       		.uleb128 0x19
 3490 004d 00       		.byte	0
 3491 004e 00       		.byte	0
 3492 004f 08       		.uleb128 0x8
 3493 0050 13       		.uleb128 0x13
 3494 0051 01       		.byte	0x1
 3495 0052 03       		.uleb128 0x3
 3496 0053 0E       		.uleb128 0xe
 3497 0054 0B       		.uleb128 0xb
 3498 0055 0B       		.uleb128 0xb
 3499 0056 3A       		.uleb128 0x3a
 3500 0057 0B       		.uleb128 0xb
 3501 0058 3B       		.uleb128 0x3b
 3502 0059 0B       		.uleb128 0xb
 3503 005a 01       		.uleb128 0x1
 3504 005b 13       		.uleb128 0x13
 3505 005c 00       		.byte	0
 3506 005d 00       		.byte	0
 3507 005e 09       		.uleb128 0x9
 3508 005f 0D       		.uleb128 0xd
 3509 0060 00       		.byte	0
 3510 0061 03       		.uleb128 0x3
 3511 0062 0E       		.uleb128 0xe
 3512 0063 3A       		.uleb128 0x3a
 3513 0064 0B       		.uleb128 0xb
 3514 0065 3B       		.uleb128 0x3b
 3515 0066 0B       		.uleb128 0xb
 3516 0067 49       		.uleb128 0x49
 3517 0068 13       		.uleb128 0x13
 3518 0069 38       		.uleb128 0x38
 3519 006a 0B       		.uleb128 0xb
 3520 006b 00       		.byte	0
 3521 006c 00       		.byte	0
 3522 006d 0A       		.uleb128 0xa
 3523 006e 0D       		.uleb128 0xd
 3524 006f 00       		.byte	0
 3525 0070 03       		.uleb128 0x3
 3526 0071 08       		.uleb128 0x8
 3527 0072 3A       		.uleb128 0x3a
 3528 0073 0B       		.uleb128 0xb
 3529 0074 3B       		.uleb128 0x3b
 3530 0075 05       		.uleb128 0x5
 3531 0076 49       		.uleb128 0x49
ARM GAS  /var/folders/qd/4mxf5pkd0zdf0b9dd1hp39180000gn/T//ccEUejPK.s 			page 63


 3532 0077 13       		.uleb128 0x13
 3533 0078 38       		.uleb128 0x38
 3534 0079 0B       		.uleb128 0xb
 3535 007a 00       		.byte	0
 3536 007b 00       		.byte	0
 3537 007c 0B       		.uleb128 0xb
 3538 007d 0D       		.uleb128 0xd
 3539 007e 00       		.byte	0
 3540 007f 03       		.uleb128 0x3
 3541 0080 0E       		.uleb128 0xe
 3542 0081 3A       		.uleb128 0x3a
 3543 0082 0B       		.uleb128 0xb
 3544 0083 3B       		.uleb128 0x3b
 3545 0084 05       		.uleb128 0x5
 3546 0085 49       		.uleb128 0x49
 3547 0086 13       		.uleb128 0x13
 3548 0087 38       		.uleb128 0x38
 3549 0088 0B       		.uleb128 0xb
 3550 0089 00       		.byte	0
 3551 008a 00       		.byte	0
 3552 008b 0C       		.uleb128 0xc
 3553 008c 13       		.uleb128 0x13
 3554 008d 01       		.byte	0x1
 3555 008e 03       		.uleb128 0x3
 3556 008f 0E       		.uleb128 0xe
 3557 0090 0B       		.uleb128 0xb
 3558 0091 0B       		.uleb128 0xb
 3559 0092 3A       		.uleb128 0x3a
 3560 0093 0B       		.uleb128 0xb
 3561 0094 3B       		.uleb128 0x3b
 3562 0095 05       		.uleb128 0x5
 3563 0096 01       		.uleb128 0x1
 3564 0097 13       		.uleb128 0x13
 3565 0098 00       		.byte	0
 3566 0099 00       		.byte	0
 3567 009a 0D       		.uleb128 0xd
 3568 009b 15       		.uleb128 0x15
 3569 009c 01       		.byte	0x1
 3570 009d 27       		.uleb128 0x27
 3571 009e 19       		.uleb128 0x19
 3572 009f 01       		.uleb128 0x1
 3573 00a0 13       		.uleb128 0x13
 3574 00a1 00       		.byte	0
 3575 00a2 00       		.byte	0
 3576 00a3 0E       		.uleb128 0xe
 3577 00a4 05       		.uleb128 0x5
 3578 00a5 00       		.byte	0
 3579 00a6 49       		.uleb128 0x49
 3580 00a7 13       		.uleb128 0x13
 3581 00a8 00       		.byte	0
 3582 00a9 00       		.byte	0
 3583 00aa 0F       		.uleb128 0xf
 3584 00ab 0F       		.uleb128 0xf
 3585 00ac 00       		.byte	0
 3586 00ad 0B       		.uleb128 0xb
 3587 00ae 0B       		.uleb128 0xb
 3588 00af 00       		.byte	0
ARM GAS  /var/folders/qd/4mxf5pkd0zdf0b9dd1hp39180000gn/T//ccEUejPK.s 			page 64


 3589 00b0 00       		.byte	0
 3590 00b1 10       		.uleb128 0x10
 3591 00b2 13       		.uleb128 0x13
 3592 00b3 01       		.byte	0x1
 3593 00b4 03       		.uleb128 0x3
 3594 00b5 0E       		.uleb128 0xe
 3595 00b6 0B       		.uleb128 0xb
 3596 00b7 05       		.uleb128 0x5
 3597 00b8 3A       		.uleb128 0x3a
 3598 00b9 0B       		.uleb128 0xb
 3599 00ba 3B       		.uleb128 0x3b
 3600 00bb 05       		.uleb128 0x5
 3601 00bc 01       		.uleb128 0x1
 3602 00bd 13       		.uleb128 0x13
 3603 00be 00       		.byte	0
 3604 00bf 00       		.byte	0
 3605 00c0 11       		.uleb128 0x11
 3606 00c1 0D       		.uleb128 0xd
 3607 00c2 00       		.byte	0
 3608 00c3 03       		.uleb128 0x3
 3609 00c4 0E       		.uleb128 0xe
 3610 00c5 3A       		.uleb128 0x3a
 3611 00c6 0B       		.uleb128 0xb
 3612 00c7 3B       		.uleb128 0x3b
 3613 00c8 05       		.uleb128 0x5
 3614 00c9 49       		.uleb128 0x49
 3615 00ca 13       		.uleb128 0x13
 3616 00cb 38       		.uleb128 0x38
 3617 00cc 05       		.uleb128 0x5
 3618 00cd 00       		.byte	0
 3619 00ce 00       		.byte	0
 3620 00cf 12       		.uleb128 0x12
 3621 00d0 0D       		.uleb128 0xd
 3622 00d1 00       		.byte	0
 3623 00d2 03       		.uleb128 0x3
 3624 00d3 08       		.uleb128 0x8
 3625 00d4 3A       		.uleb128 0x3a
 3626 00d5 0B       		.uleb128 0xb
 3627 00d6 3B       		.uleb128 0x3b
 3628 00d7 05       		.uleb128 0x5
 3629 00d8 49       		.uleb128 0x49
 3630 00d9 13       		.uleb128 0x13
 3631 00da 38       		.uleb128 0x38
 3632 00db 05       		.uleb128 0x5
 3633 00dc 00       		.byte	0
 3634 00dd 00       		.byte	0
 3635 00de 13       		.uleb128 0x13
 3636 00df 34       		.uleb128 0x34
 3637 00e0 00       		.byte	0
 3638 00e1 03       		.uleb128 0x3
 3639 00e2 0E       		.uleb128 0xe
 3640 00e3 3A       		.uleb128 0x3a
 3641 00e4 0B       		.uleb128 0xb
 3642 00e5 3B       		.uleb128 0x3b
 3643 00e6 05       		.uleb128 0x5
 3644 00e7 49       		.uleb128 0x49
 3645 00e8 13       		.uleb128 0x13
ARM GAS  /var/folders/qd/4mxf5pkd0zdf0b9dd1hp39180000gn/T//ccEUejPK.s 			page 65


 3646 00e9 3F       		.uleb128 0x3f
 3647 00ea 19       		.uleb128 0x19
 3648 00eb 3C       		.uleb128 0x3c
 3649 00ec 19       		.uleb128 0x19
 3650 00ed 00       		.byte	0
 3651 00ee 00       		.byte	0
 3652 00ef 14       		.uleb128 0x14
 3653 00f0 34       		.uleb128 0x34
 3654 00f1 00       		.byte	0
 3655 00f2 03       		.uleb128 0x3
 3656 00f3 0E       		.uleb128 0xe
 3657 00f4 3A       		.uleb128 0x3a
 3658 00f5 0B       		.uleb128 0xb
 3659 00f6 3B       		.uleb128 0x3b
 3660 00f7 0B       		.uleb128 0xb
 3661 00f8 49       		.uleb128 0x49
 3662 00f9 13       		.uleb128 0x13
 3663 00fa 3F       		.uleb128 0x3f
 3664 00fb 19       		.uleb128 0x19
 3665 00fc 3C       		.uleb128 0x3c
 3666 00fd 19       		.uleb128 0x19
 3667 00fe 00       		.byte	0
 3668 00ff 00       		.byte	0
 3669 0100 15       		.uleb128 0x15
 3670 0101 0D       		.uleb128 0xd
 3671 0102 00       		.byte	0
 3672 0103 03       		.uleb128 0x3
 3673 0104 08       		.uleb128 0x8
 3674 0105 3A       		.uleb128 0x3a
 3675 0106 0B       		.uleb128 0xb
 3676 0107 3B       		.uleb128 0x3b
 3677 0108 0B       		.uleb128 0xb
 3678 0109 49       		.uleb128 0x49
 3679 010a 13       		.uleb128 0x13
 3680 010b 38       		.uleb128 0x38
 3681 010c 0B       		.uleb128 0xb
 3682 010d 00       		.byte	0
 3683 010e 00       		.byte	0
 3684 010f 16       		.uleb128 0x16
 3685 0110 13       		.uleb128 0x13
 3686 0111 01       		.byte	0x1
 3687 0112 0B       		.uleb128 0xb
 3688 0113 0B       		.uleb128 0xb
 3689 0114 3A       		.uleb128 0x3a
 3690 0115 0B       		.uleb128 0xb
 3691 0116 3B       		.uleb128 0x3b
 3692 0117 0B       		.uleb128 0xb
 3693 0118 01       		.uleb128 0x1
 3694 0119 13       		.uleb128 0x13
 3695 011a 00       		.byte	0
 3696 011b 00       		.byte	0
 3697 011c 17       		.uleb128 0x17
 3698 011d 13       		.uleb128 0x13
 3699 011e 01       		.byte	0x1
 3700 011f 0B       		.uleb128 0xb
 3701 0120 05       		.uleb128 0x5
 3702 0121 3A       		.uleb128 0x3a
ARM GAS  /var/folders/qd/4mxf5pkd0zdf0b9dd1hp39180000gn/T//ccEUejPK.s 			page 66


 3703 0122 0B       		.uleb128 0xb
 3704 0123 3B       		.uleb128 0x3b
 3705 0124 0B       		.uleb128 0xb
 3706 0125 01       		.uleb128 0x1
 3707 0126 13       		.uleb128 0x13
 3708 0127 00       		.byte	0
 3709 0128 00       		.byte	0
 3710 0129 18       		.uleb128 0x18
 3711 012a 01       		.uleb128 0x1
 3712 012b 01       		.byte	0x1
 3713 012c 49       		.uleb128 0x49
 3714 012d 13       		.uleb128 0x13
 3715 012e 01       		.uleb128 0x1
 3716 012f 13       		.uleb128 0x13
 3717 0130 00       		.byte	0
 3718 0131 00       		.byte	0
 3719 0132 19       		.uleb128 0x19
 3720 0133 21       		.uleb128 0x21
 3721 0134 00       		.byte	0
 3722 0135 49       		.uleb128 0x49
 3723 0136 13       		.uleb128 0x13
 3724 0137 2F       		.uleb128 0x2f
 3725 0138 0B       		.uleb128 0xb
 3726 0139 00       		.byte	0
 3727 013a 00       		.byte	0
 3728 013b 1A       		.uleb128 0x1a
 3729 013c 17       		.uleb128 0x17
 3730 013d 01       		.byte	0x1
 3731 013e 0B       		.uleb128 0xb
 3732 013f 0B       		.uleb128 0xb
 3733 0140 3A       		.uleb128 0x3a
 3734 0141 0B       		.uleb128 0xb
 3735 0142 3B       		.uleb128 0x3b
 3736 0143 0B       		.uleb128 0xb
 3737 0144 01       		.uleb128 0x1
 3738 0145 13       		.uleb128 0x13
 3739 0146 00       		.byte	0
 3740 0147 00       		.byte	0
 3741 0148 1B       		.uleb128 0x1b
 3742 0149 0D       		.uleb128 0xd
 3743 014a 00       		.byte	0
 3744 014b 03       		.uleb128 0x3
 3745 014c 0E       		.uleb128 0xe
 3746 014d 3A       		.uleb128 0x3a
 3747 014e 0B       		.uleb128 0xb
 3748 014f 3B       		.uleb128 0x3b
 3749 0150 05       		.uleb128 0x5
 3750 0151 49       		.uleb128 0x49
 3751 0152 13       		.uleb128 0x13
 3752 0153 00       		.byte	0
 3753 0154 00       		.byte	0
 3754 0155 1C       		.uleb128 0x1c
 3755 0156 26       		.uleb128 0x26
 3756 0157 00       		.byte	0
 3757 0158 49       		.uleb128 0x49
 3758 0159 13       		.uleb128 0x13
 3759 015a 00       		.byte	0
ARM GAS  /var/folders/qd/4mxf5pkd0zdf0b9dd1hp39180000gn/T//ccEUejPK.s 			page 67


 3760 015b 00       		.byte	0
 3761 015c 1D       		.uleb128 0x1d
 3762 015d 34       		.uleb128 0x34
 3763 015e 00       		.byte	0
 3764 015f 03       		.uleb128 0x3
 3765 0160 08       		.uleb128 0x8
 3766 0161 3A       		.uleb128 0x3a
 3767 0162 0B       		.uleb128 0xb
 3768 0163 3B       		.uleb128 0x3b
 3769 0164 05       		.uleb128 0x5
 3770 0165 49       		.uleb128 0x49
 3771 0166 13       		.uleb128 0x13
 3772 0167 3F       		.uleb128 0x3f
 3773 0168 19       		.uleb128 0x19
 3774 0169 3C       		.uleb128 0x3c
 3775 016a 19       		.uleb128 0x19
 3776 016b 00       		.byte	0
 3777 016c 00       		.byte	0
 3778 016d 1E       		.uleb128 0x1e
 3779 016e 16       		.uleb128 0x16
 3780 016f 00       		.byte	0
 3781 0170 03       		.uleb128 0x3
 3782 0171 0E       		.uleb128 0xe
 3783 0172 3A       		.uleb128 0x3a
 3784 0173 0B       		.uleb128 0xb
 3785 0174 3B       		.uleb128 0x3b
 3786 0175 05       		.uleb128 0x5
 3787 0176 49       		.uleb128 0x49
 3788 0177 13       		.uleb128 0x13
 3789 0178 00       		.byte	0
 3790 0179 00       		.byte	0
 3791 017a 1F       		.uleb128 0x1f
 3792 017b 0D       		.uleb128 0xd
 3793 017c 00       		.byte	0
 3794 017d 03       		.uleb128 0x3
 3795 017e 0E       		.uleb128 0xe
 3796 017f 3A       		.uleb128 0x3a
 3797 0180 0B       		.uleb128 0xb
 3798 0181 3B       		.uleb128 0x3b
 3799 0182 0B       		.uleb128 0xb
 3800 0183 49       		.uleb128 0x49
 3801 0184 13       		.uleb128 0x13
 3802 0185 00       		.byte	0
 3803 0186 00       		.byte	0
 3804 0187 20       		.uleb128 0x20
 3805 0188 34       		.uleb128 0x34
 3806 0189 00       		.byte	0
 3807 018a 03       		.uleb128 0x3
 3808 018b 08       		.uleb128 0x8
 3809 018c 3A       		.uleb128 0x3a
 3810 018d 0B       		.uleb128 0xb
 3811 018e 3B       		.uleb128 0x3b
 3812 018f 0B       		.uleb128 0xb
 3813 0190 49       		.uleb128 0x49
 3814 0191 13       		.uleb128 0x13
 3815 0192 3F       		.uleb128 0x3f
 3816 0193 19       		.uleb128 0x19
ARM GAS  /var/folders/qd/4mxf5pkd0zdf0b9dd1hp39180000gn/T//ccEUejPK.s 			page 68


 3817 0194 3C       		.uleb128 0x3c
 3818 0195 19       		.uleb128 0x19
 3819 0196 00       		.byte	0
 3820 0197 00       		.byte	0
 3821 0198 21       		.uleb128 0x21
 3822 0199 13       		.uleb128 0x13
 3823 019a 01       		.byte	0x1
 3824 019b 03       		.uleb128 0x3
 3825 019c 0E       		.uleb128 0xe
 3826 019d 0B       		.uleb128 0xb
 3827 019e 05       		.uleb128 0x5
 3828 019f 3A       		.uleb128 0x3a
 3829 01a0 0B       		.uleb128 0xb
 3830 01a1 3B       		.uleb128 0x3b
 3831 01a2 0B       		.uleb128 0xb
 3832 01a3 01       		.uleb128 0x1
 3833 01a4 13       		.uleb128 0x13
 3834 01a5 00       		.byte	0
 3835 01a6 00       		.byte	0
 3836 01a7 22       		.uleb128 0x22
 3837 01a8 0D       		.uleb128 0xd
 3838 01a9 00       		.byte	0
 3839 01aa 03       		.uleb128 0x3
 3840 01ab 0E       		.uleb128 0xe
 3841 01ac 3A       		.uleb128 0x3a
 3842 01ad 0B       		.uleb128 0xb
 3843 01ae 3B       		.uleb128 0x3b
 3844 01af 0B       		.uleb128 0xb
 3845 01b0 49       		.uleb128 0x49
 3846 01b1 13       		.uleb128 0x13
 3847 01b2 38       		.uleb128 0x38
 3848 01b3 05       		.uleb128 0x5
 3849 01b4 00       		.byte	0
 3850 01b5 00       		.byte	0
 3851 01b6 23       		.uleb128 0x23
 3852 01b7 15       		.uleb128 0x15
 3853 01b8 00       		.byte	0
 3854 01b9 27       		.uleb128 0x27
 3855 01ba 19       		.uleb128 0x19
 3856 01bb 00       		.byte	0
 3857 01bc 00       		.byte	0
 3858 01bd 24       		.uleb128 0x24
 3859 01be 15       		.uleb128 0x15
 3860 01bf 01       		.byte	0x1
 3861 01c0 27       		.uleb128 0x27
 3862 01c1 19       		.uleb128 0x19
 3863 01c2 49       		.uleb128 0x49
 3864 01c3 13       		.uleb128 0x13
 3865 01c4 01       		.uleb128 0x1
 3866 01c5 13       		.uleb128 0x13
 3867 01c6 00       		.byte	0
 3868 01c7 00       		.byte	0
 3869 01c8 25       		.uleb128 0x25
 3870 01c9 13       		.uleb128 0x13
 3871 01ca 01       		.byte	0x1
 3872 01cb 0B       		.uleb128 0xb
 3873 01cc 0B       		.uleb128 0xb
ARM GAS  /var/folders/qd/4mxf5pkd0zdf0b9dd1hp39180000gn/T//ccEUejPK.s 			page 69


 3874 01cd 3A       		.uleb128 0x3a
 3875 01ce 0B       		.uleb128 0xb
 3876 01cf 3B       		.uleb128 0x3b
 3877 01d0 05       		.uleb128 0x5
 3878 01d1 01       		.uleb128 0x1
 3879 01d2 13       		.uleb128 0x13
 3880 01d3 00       		.byte	0
 3881 01d4 00       		.byte	0
 3882 01d5 26       		.uleb128 0x26
 3883 01d6 17       		.uleb128 0x17
 3884 01d7 01       		.byte	0x1
 3885 01d8 0B       		.uleb128 0xb
 3886 01d9 0B       		.uleb128 0xb
 3887 01da 3A       		.uleb128 0x3a
 3888 01db 0B       		.uleb128 0xb
 3889 01dc 3B       		.uleb128 0x3b
 3890 01dd 05       		.uleb128 0x5
 3891 01de 01       		.uleb128 0x1
 3892 01df 13       		.uleb128 0x13
 3893 01e0 00       		.byte	0
 3894 01e1 00       		.byte	0
 3895 01e2 27       		.uleb128 0x27
 3896 01e3 34       		.uleb128 0x34
 3897 01e4 00       		.byte	0
 3898 01e5 03       		.uleb128 0x3
 3899 01e6 0E       		.uleb128 0xe
 3900 01e7 3A       		.uleb128 0x3a
 3901 01e8 0B       		.uleb128 0xb
 3902 01e9 3B       		.uleb128 0x3b
 3903 01ea 0B       		.uleb128 0xb
 3904 01eb 49       		.uleb128 0x49
 3905 01ec 13       		.uleb128 0x13
 3906 01ed 3F       		.uleb128 0x3f
 3907 01ee 19       		.uleb128 0x19
 3908 01ef 02       		.uleb128 0x2
 3909 01f0 18       		.uleb128 0x18
 3910 01f1 00       		.byte	0
 3911 01f2 00       		.byte	0
 3912 01f3 28       		.uleb128 0x28
 3913 01f4 34       		.uleb128 0x34
 3914 01f5 00       		.byte	0
 3915 01f6 03       		.uleb128 0x3
 3916 01f7 0E       		.uleb128 0xe
 3917 01f8 3A       		.uleb128 0x3a
 3918 01f9 0B       		.uleb128 0xb
 3919 01fa 3B       		.uleb128 0x3b
 3920 01fb 0B       		.uleb128 0xb
 3921 01fc 49       		.uleb128 0x49
 3922 01fd 13       		.uleb128 0x13
 3923 01fe 02       		.uleb128 0x2
 3924 01ff 18       		.uleb128 0x18
 3925 0200 00       		.byte	0
 3926 0201 00       		.byte	0
 3927 0202 29       		.uleb128 0x29
 3928 0203 2E       		.uleb128 0x2e
 3929 0204 01       		.byte	0x1
 3930 0205 3F       		.uleb128 0x3f
ARM GAS  /var/folders/qd/4mxf5pkd0zdf0b9dd1hp39180000gn/T//ccEUejPK.s 			page 70


 3931 0206 19       		.uleb128 0x19
 3932 0207 03       		.uleb128 0x3
 3933 0208 0E       		.uleb128 0xe
 3934 0209 3A       		.uleb128 0x3a
 3935 020a 0B       		.uleb128 0xb
 3936 020b 3B       		.uleb128 0x3b
 3937 020c 0B       		.uleb128 0xb
 3938 020d 27       		.uleb128 0x27
 3939 020e 19       		.uleb128 0x19
 3940 020f 11       		.uleb128 0x11
 3941 0210 01       		.uleb128 0x1
 3942 0211 12       		.uleb128 0x12
 3943 0212 06       		.uleb128 0x6
 3944 0213 40       		.uleb128 0x40
 3945 0214 18       		.uleb128 0x18
 3946 0215 9742     		.uleb128 0x2117
 3947 0217 19       		.uleb128 0x19
 3948 0218 01       		.uleb128 0x1
 3949 0219 13       		.uleb128 0x13
 3950 021a 00       		.byte	0
 3951 021b 00       		.byte	0
 3952 021c 2A       		.uleb128 0x2a
 3953 021d 05       		.uleb128 0x5
 3954 021e 00       		.byte	0
 3955 021f 03       		.uleb128 0x3
 3956 0220 0E       		.uleb128 0xe
 3957 0221 3A       		.uleb128 0x3a
 3958 0222 0B       		.uleb128 0xb
 3959 0223 3B       		.uleb128 0x3b
 3960 0224 0B       		.uleb128 0xb
 3961 0225 49       		.uleb128 0x49
 3962 0226 13       		.uleb128 0x13
 3963 0227 02       		.uleb128 0x2
 3964 0228 17       		.uleb128 0x17
 3965 0229 00       		.byte	0
 3966 022a 00       		.byte	0
 3967 022b 2B       		.uleb128 0x2b
 3968 022c 34       		.uleb128 0x34
 3969 022d 00       		.byte	0
 3970 022e 03       		.uleb128 0x3
 3971 022f 08       		.uleb128 0x8
 3972 0230 3A       		.uleb128 0x3a
 3973 0231 0B       		.uleb128 0xb
 3974 0232 3B       		.uleb128 0x3b
 3975 0233 0B       		.uleb128 0xb
 3976 0234 49       		.uleb128 0x49
 3977 0235 13       		.uleb128 0x13
 3978 0236 02       		.uleb128 0x2
 3979 0237 17       		.uleb128 0x17
 3980 0238 00       		.byte	0
 3981 0239 00       		.byte	0
 3982 023a 2C       		.uleb128 0x2c
 3983 023b 898201   		.uleb128 0x4109
 3984 023e 01       		.byte	0x1
 3985 023f 11       		.uleb128 0x11
 3986 0240 01       		.uleb128 0x1
 3987 0241 31       		.uleb128 0x31
ARM GAS  /var/folders/qd/4mxf5pkd0zdf0b9dd1hp39180000gn/T//ccEUejPK.s 			page 71


 3988 0242 13       		.uleb128 0x13
 3989 0243 01       		.uleb128 0x1
 3990 0244 13       		.uleb128 0x13
 3991 0245 00       		.byte	0
 3992 0246 00       		.byte	0
 3993 0247 2D       		.uleb128 0x2d
 3994 0248 8A8201   		.uleb128 0x410a
 3995 024b 00       		.byte	0
 3996 024c 02       		.uleb128 0x2
 3997 024d 18       		.uleb128 0x18
 3998 024e 9142     		.uleb128 0x2111
 3999 0250 18       		.uleb128 0x18
 4000 0251 00       		.byte	0
 4001 0252 00       		.byte	0
 4002 0253 2E       		.uleb128 0x2e
 4003 0254 898201   		.uleb128 0x4109
 4004 0257 00       		.byte	0
 4005 0258 11       		.uleb128 0x11
 4006 0259 01       		.uleb128 0x1
 4007 025a 31       		.uleb128 0x31
 4008 025b 13       		.uleb128 0x13
 4009 025c 00       		.byte	0
 4010 025d 00       		.byte	0
 4011 025e 2F       		.uleb128 0x2f
 4012 025f 34       		.uleb128 0x34
 4013 0260 00       		.byte	0
 4014 0261 03       		.uleb128 0x3
 4015 0262 08       		.uleb128 0x8
 4016 0263 3A       		.uleb128 0x3a
 4017 0264 0B       		.uleb128 0xb
 4018 0265 3B       		.uleb128 0x3b
 4019 0266 0B       		.uleb128 0xb
 4020 0267 49       		.uleb128 0x49
 4021 0268 13       		.uleb128 0x13
 4022 0269 02       		.uleb128 0x2
 4023 026a 18       		.uleb128 0x18
 4024 026b 00       		.byte	0
 4025 026c 00       		.byte	0
 4026 026d 30       		.uleb128 0x30
 4027 026e 898201   		.uleb128 0x4109
 4028 0271 00       		.byte	0
 4029 0272 11       		.uleb128 0x11
 4030 0273 01       		.uleb128 0x1
 4031 0274 9542     		.uleb128 0x2115
 4032 0276 19       		.uleb128 0x19
 4033 0277 31       		.uleb128 0x31
 4034 0278 13       		.uleb128 0x13
 4035 0279 00       		.byte	0
 4036 027a 00       		.byte	0
 4037 027b 31       		.uleb128 0x31
 4038 027c 2E       		.uleb128 0x2e
 4039 027d 01       		.byte	0x1
 4040 027e 3F       		.uleb128 0x3f
 4041 027f 19       		.uleb128 0x19
 4042 0280 03       		.uleb128 0x3
 4043 0281 0E       		.uleb128 0xe
 4044 0282 3A       		.uleb128 0x3a
ARM GAS  /var/folders/qd/4mxf5pkd0zdf0b9dd1hp39180000gn/T//ccEUejPK.s 			page 72


 4045 0283 0B       		.uleb128 0xb
 4046 0284 3B       		.uleb128 0x3b
 4047 0285 0B       		.uleb128 0xb
 4048 0286 27       		.uleb128 0x27
 4049 0287 19       		.uleb128 0x19
 4050 0288 49       		.uleb128 0x49
 4051 0289 13       		.uleb128 0x13
 4052 028a 11       		.uleb128 0x11
 4053 028b 01       		.uleb128 0x1
 4054 028c 12       		.uleb128 0x12
 4055 028d 06       		.uleb128 0x6
 4056 028e 40       		.uleb128 0x40
 4057 028f 18       		.uleb128 0x18
 4058 0290 9742     		.uleb128 0x2117
 4059 0292 19       		.uleb128 0x19
 4060 0293 01       		.uleb128 0x1
 4061 0294 13       		.uleb128 0x13
 4062 0295 00       		.byte	0
 4063 0296 00       		.byte	0
 4064 0297 32       		.uleb128 0x32
 4065 0298 34       		.uleb128 0x34
 4066 0299 00       		.byte	0
 4067 029a 03       		.uleb128 0x3
 4068 029b 0E       		.uleb128 0xe
 4069 029c 3A       		.uleb128 0x3a
 4070 029d 0B       		.uleb128 0xb
 4071 029e 3B       		.uleb128 0x3b
 4072 029f 0B       		.uleb128 0xb
 4073 02a0 49       		.uleb128 0x49
 4074 02a1 13       		.uleb128 0x13
 4075 02a2 02       		.uleb128 0x2
 4076 02a3 17       		.uleb128 0x17
 4077 02a4 00       		.byte	0
 4078 02a5 00       		.byte	0
 4079 02a6 33       		.uleb128 0x33
 4080 02a7 898201   		.uleb128 0x4109
 4081 02aa 01       		.byte	0x1
 4082 02ab 11       		.uleb128 0x11
 4083 02ac 01       		.uleb128 0x1
 4084 02ad 9542     		.uleb128 0x2115
 4085 02af 19       		.uleb128 0x19
 4086 02b0 31       		.uleb128 0x31
 4087 02b1 13       		.uleb128 0x13
 4088 02b2 01       		.uleb128 0x1
 4089 02b3 13       		.uleb128 0x13
 4090 02b4 00       		.byte	0
 4091 02b5 00       		.byte	0
 4092 02b6 34       		.uleb128 0x34
 4093 02b7 2E       		.uleb128 0x2e
 4094 02b8 00       		.byte	0
 4095 02b9 3F       		.uleb128 0x3f
 4096 02ba 19       		.uleb128 0x19
 4097 02bb 3C       		.uleb128 0x3c
 4098 02bc 19       		.uleb128 0x19
 4099 02bd 6E       		.uleb128 0x6e
 4100 02be 0E       		.uleb128 0xe
 4101 02bf 03       		.uleb128 0x3
ARM GAS  /var/folders/qd/4mxf5pkd0zdf0b9dd1hp39180000gn/T//ccEUejPK.s 			page 73


 4102 02c0 0E       		.uleb128 0xe
 4103 02c1 00       		.byte	0
 4104 02c2 00       		.byte	0
 4105 02c3 35       		.uleb128 0x35
 4106 02c4 2E       		.uleb128 0x2e
 4107 02c5 00       		.byte	0
 4108 02c6 3F       		.uleb128 0x3f
 4109 02c7 19       		.uleb128 0x19
 4110 02c8 3C       		.uleb128 0x3c
 4111 02c9 19       		.uleb128 0x19
 4112 02ca 6E       		.uleb128 0x6e
 4113 02cb 0E       		.uleb128 0xe
 4114 02cc 03       		.uleb128 0x3
 4115 02cd 0E       		.uleb128 0xe
 4116 02ce 3A       		.uleb128 0x3a
 4117 02cf 0B       		.uleb128 0xb
 4118 02d0 3B       		.uleb128 0x3b
 4119 02d1 0B       		.uleb128 0xb
 4120 02d2 00       		.byte	0
 4121 02d3 00       		.byte	0
 4122 02d4 00       		.byte	0
 4123              		.section	.debug_loc,"",%progbits
 4124              	.Ldebug_loc0:
 4125              	.LLST4:
 4126 0000 00000000 		.4byte	.LVL24
 4127 0004 0E000000 		.4byte	.LVL25
 4128 0008 0100     		.2byte	0x1
 4129 000a 50       		.byte	0x50
 4130 000b 0E000000 		.4byte	.LVL25
 4131 000f 50000000 		.4byte	.LFE228
 4132 0013 0100     		.2byte	0x1
 4133 0015 54       		.byte	0x54
 4134 0016 00000000 		.4byte	0
 4135 001a 00000000 		.4byte	0
 4136              	.LLST5:
 4137 001e 12000000 		.4byte	.LVL26
 4138 0022 22000000 		.4byte	.LVL27
 4139 0026 0200     		.2byte	0x2
 4140 0028 30       		.byte	0x30
 4141 0029 9F       		.byte	0x9f
 4142 002a 00000000 		.4byte	0
 4143 002e 00000000 		.4byte	0
 4144              	.LLST3:
 4145 0032 00000000 		.4byte	.LVL18
 4146 0036 0E000000 		.4byte	.LVL19
 4147 003a 0100     		.2byte	0x1
 4148 003c 50       		.byte	0x50
 4149 003d 0E000000 		.4byte	.LVL19
 4150 0041 78000000 		.4byte	.LFE227
 4151 0045 0100     		.2byte	0x1
 4152 0047 54       		.byte	0x54
 4153 0048 00000000 		.4byte	0
 4154 004c 00000000 		.4byte	0
 4155              	.LLST2:
 4156 0050 00000000 		.4byte	.LVL6
 4157 0054 0F000000 		.4byte	.LVL7-1
 4158 0058 0100     		.2byte	0x1
ARM GAS  /var/folders/qd/4mxf5pkd0zdf0b9dd1hp39180000gn/T//ccEUejPK.s 			page 74


 4159 005a 50       		.byte	0x50
 4160 005b 0F000000 		.4byte	.LVL7-1
 4161 005f 30000000 		.4byte	.LFE223
 4162 0063 0100     		.2byte	0x1
 4163 0065 54       		.byte	0x54
 4164 0066 00000000 		.4byte	0
 4165 006a 00000000 		.4byte	0
 4166              	.LLST0:
 4167 006e 00000000 		.4byte	.LVL0
 4168 0072 0E000000 		.4byte	.LVL1
 4169 0076 0100     		.2byte	0x1
 4170 0078 50       		.byte	0x50
 4171 0079 0E000000 		.4byte	.LVL1
 4172 007d 26000000 		.4byte	.LVL3
 4173 0081 0100     		.2byte	0x1
 4174 0083 55       		.byte	0x55
 4175 0084 26000000 		.4byte	.LVL3
 4176 0088 29000000 		.4byte	.LVL4-1
 4177 008c 0100     		.2byte	0x1
 4178 008e 51       		.byte	0x51
 4179 008f 29000000 		.4byte	.LVL4-1
 4180 0093 2A000000 		.4byte	.LVL4
 4181 0097 0400     		.2byte	0x4
 4182 0099 F3       		.byte	0xf3
 4183 009a 01       		.uleb128 0x1
 4184 009b 50       		.byte	0x50
 4185 009c 9F       		.byte	0x9f
 4186 009d 2A000000 		.4byte	.LVL4
 4187 00a1 3C000000 		.4byte	.LFE222
 4188 00a5 0100     		.2byte	0x1
 4189 00a7 55       		.byte	0x55
 4190 00a8 00000000 		.4byte	0
 4191 00ac 00000000 		.4byte	0
 4192              	.LLST1:
 4193 00b0 14000000 		.4byte	.LVL2
 4194 00b4 29000000 		.4byte	.LVL4-1
 4195 00b8 0100     		.2byte	0x1
 4196 00ba 50       		.byte	0x50
 4197 00bb 2A000000 		.4byte	.LVL4
 4198 00bf 2D000000 		.4byte	.LVL5-1
 4199 00c3 0100     		.2byte	0x1
 4200 00c5 50       		.byte	0x50
 4201 00c6 00000000 		.4byte	0
 4202 00ca 00000000 		.4byte	0
 4203              		.section	.debug_aranges,"",%progbits
 4204 0000 4C000000 		.4byte	0x4c
 4205 0004 0200     		.2byte	0x2
 4206 0006 00000000 		.4byte	.Ldebug_info0
 4207 000a 04       		.byte	0x4
 4208 000b 00       		.byte	0
 4209 000c 0000     		.2byte	0
 4210 000e 0000     		.2byte	0
 4211 0010 00000000 		.4byte	.LFB222
 4212 0014 3C000000 		.4byte	.LFE222-.LFB222
 4213 0018 00000000 		.4byte	.LFB223
 4214 001c 30000000 		.4byte	.LFE223-.LFB223
 4215 0020 00000000 		.4byte	.LFB224
ARM GAS  /var/folders/qd/4mxf5pkd0zdf0b9dd1hp39180000gn/T//ccEUejPK.s 			page 75


 4216 0024 30000000 		.4byte	.LFE224-.LFB224
 4217 0028 00000000 		.4byte	.LFB225
 4218 002c 40000000 		.4byte	.LFE225-.LFB225
 4219 0030 00000000 		.4byte	.LFB226
 4220 0034 24000000 		.4byte	.LFE226-.LFB226
 4221 0038 00000000 		.4byte	.LFB227
 4222 003c 78000000 		.4byte	.LFE227-.LFB227
 4223 0040 00000000 		.4byte	.LFB228
 4224 0044 50000000 		.4byte	.LFE228-.LFB228
 4225 0048 00000000 		.4byte	0
 4226 004c 00000000 		.4byte	0
 4227              		.section	.debug_ranges,"",%progbits
 4228              	.Ldebug_ranges0:
 4229 0000 00000000 		.4byte	.LFB222
 4230 0004 3C000000 		.4byte	.LFE222
 4231 0008 00000000 		.4byte	.LFB223
 4232 000c 30000000 		.4byte	.LFE223
 4233 0010 00000000 		.4byte	.LFB224
 4234 0014 30000000 		.4byte	.LFE224
 4235 0018 00000000 		.4byte	.LFB225
 4236 001c 40000000 		.4byte	.LFE225
 4237 0020 00000000 		.4byte	.LFB226
 4238 0024 24000000 		.4byte	.LFE226
 4239 0028 00000000 		.4byte	.LFB227
 4240 002c 78000000 		.4byte	.LFE227
 4241 0030 00000000 		.4byte	.LFB228
 4242 0034 50000000 		.4byte	.LFE228
 4243 0038 00000000 		.4byte	0
 4244 003c 00000000 		.4byte	0
 4245              		.section	.debug_line,"",%progbits
 4246              	.Ldebug_line0:
 4247 0000 4B050000 		.section	.debug_str,"MS",%progbits,1
 4247      02008F04 
 4247      00000201 
 4247      FB0E0D00 
 4247      01010101 
 4248              	.LASF54:
 4249 0000 705F7374 		.ascii	"p_stats\000"
 4249      61747300 
 4250              	.LASF19:
 4251 0008 73697A65 		.ascii	"size_t\000"
 4251      5F7400
 4252              	.LASF161:
 4253 000f 5F5F6C6F 		.ascii	"__locale_t\000"
 4253      63616C65 
 4253      5F7400
 4254              	.LASF124:
 4255 001a 77747365 		.ascii	"wtsemp\000"
 4255      6D7000
 4256              	.LASF147:
 4257 0021 63665F6F 		.ascii	"cf_off_name\000"
 4257      66665F6E 
 4257      616D6500 
 4258              	.LASF32:
 4259 002d 73797374 		.ascii	"systime_t\000"
 4259      696D655F 
 4259      7400
ARM GAS  /var/folders/qd/4mxf5pkd0zdf0b9dd1hp39180000gn/T//ccEUejPK.s 			page 76


 4260              	.LASF267:
 4261 0037 5F5F7366 		.ascii	"__sf\000"
 4261      00
 4262              	.LASF136:
 4263 003c 63685F69 		.ascii	"ch_identifier\000"
 4263      64656E74 
 4263      69666965 
 4263      7200
 4264              	.LASF37:
 4265 004a 705F6374 		.ascii	"p_ctx\000"
 4265      7800
 4266              	.LASF234:
 4267 0050 5F726561 		.ascii	"_read\000"
 4267      6400
 4268              	.LASF27:
 4269 0056 74707269 		.ascii	"tprio_t\000"
 4269      6F5F7400 
 4270              	.LASF325:
 4271 005e 474E5520 		.ascii	"GNU C11 7.2.1 20170904 (release) [ARM/embedded-7-br"
 4271      43313120 
 4271      372E322E 
 4271      31203230 
 4271      31373039 
 4272 0091 616E6368 		.ascii	"anch revision 255204] -mcpu=cortex-m4 -mfloat-abi=h"
 4272      20726576 
 4272      6973696F 
 4272      6E203235 
 4272      35323034 
 4273 00c4 61726420 		.ascii	"ard -mfpu=fpv4-sp-d16 -mno-thumb-interwork -mthumb "
 4273      2D6D6670 
 4273      753D6670 
 4273      76342D73 
 4273      702D6431 
 4274 00f7 2D676764 		.ascii	"-ggdb -O2 -fomit-frame-pointer -falign-functions=16"
 4274      62202D4F 
 4274      32202D66 
 4274      6F6D6974 
 4274      2D667261 
 4275 012a 202D666E 		.ascii	" -fno-strict-aliasing -fstack-protector-all -ffunct"
 4275      6F2D7374 
 4275      72696374 
 4275      2D616C69 
 4275      6173696E 
 4276 015d 696F6E2D 		.ascii	"ion-sections -fdata-sections -fno-common -fsingle-p"
 4276      73656374 
 4276      696F6E73 
 4276      202D6664 
 4276      6174612D 
 4277 0190 72656369 		.ascii	"recision-constant\000"
 4277      73696F6E 
 4277      2D636F6E 
 4277      7374616E 
 4277      7400
 4278              	.LASF155:
 4279 01a2 63685F64 		.ascii	"ch_debug\000"
 4279      65627567 
 4279      00
ARM GAS  /var/folders/qd/4mxf5pkd0zdf0b9dd1hp39180000gn/T//ccEUejPK.s 			page 77


 4280              	.LASF48:
 4281 01ab 705F6D73 		.ascii	"p_msgqueue\000"
 4281      67717565 
 4281      756500
 4282              	.LASF235:
 4283 01b6 5F777269 		.ascii	"_write\000"
 4283      746500
 4284              	.LASF65:
 4285 01bd 725F6374 		.ascii	"r_ctx\000"
 4285      7800
 4286              	.LASF16:
 4287 01c3 696E7433 		.ascii	"int32_t\000"
 4287      325F7400 
 4288              	.LASF278:
 4289 01cb 5F617363 		.ascii	"_asctime_buf\000"
 4289      74696D65 
 4289      5F627566 
 4289      00
 4290              	.LASF261:
 4291 01d8 5F637674 		.ascii	"_cvtlen\000"
 4291      6C656E00 
 4292              	.LASF144:
 4293 01e0 63665F6F 		.ascii	"cf_off_ctx\000"
 4293      66665F63 
 4293      747800
 4294              	.LASF69:
 4295 01eb 76746675 		.ascii	"vtfunc_t\000"
 4295      6E635F74 
 4295      00
 4296              	.LASF78:
 4297 01f4 63685F76 		.ascii	"ch_virtual_timers_list\000"
 4297      69727475 
 4297      616C5F74 
 4297      696D6572 
 4297      735F6C69 
 4298              	.LASF297:
 4299 020b 5F756E75 		.ascii	"_unused\000"
 4299      73656400 
 4300              	.LASF208:
 4301 0213 5F5F746D 		.ascii	"__tm\000"
 4301      00
 4302              	.LASF293:
 4303 0218 5F776373 		.ascii	"_wcsrtombs_state\000"
 4303      72746F6D 
 4303      62735F73 
 4303      74617465 
 4303      00
 4304              	.LASF239:
 4305 0229 5F6E6275 		.ascii	"_nbuf\000"
 4305      6600
 4306              	.LASF209:
 4307 022f 5F5F746D 		.ascii	"__tm_sec\000"
 4307      5F736563 
 4307      00
 4308              	.LASF286:
 4309 0238 5F6C3634 		.ascii	"_l64a_buf\000"
 4309      615F6275 
ARM GAS  /var/folders/qd/4mxf5pkd0zdf0b9dd1hp39180000gn/T//ccEUejPK.s 			page 78


 4309      6600
 4310              	.LASF225:
 4311 0242 5F666E73 		.ascii	"_fns\000"
 4311      00
 4312              	.LASF327:
 4313 0247 2F557365 		.ascii	"/Users/nicolas/Library/Mobile Documents/com~apple~C"
 4313      72732F6E 
 4313      69636F6C 
 4313      61732F4C 
 4313      69627261 
 4314 027a 6C6F7564 		.ascii	"loudDocs/Projects/Cours/epuck_project/Sources\000"
 4314      446F6373 
 4314      2F50726F 
 4314      6A656374 
 4314      732F436F 
 4315              	.LASF273:
 4316 02a8 5F736565 		.ascii	"_seed\000"
 4316      6400
 4317              	.LASF243:
 4318 02ae 5F6C6F63 		.ascii	"_lock\000"
 4318      6B00
 4319              	.LASF84:
 4320 02b4 6C6F636B 		.ascii	"lock_cnt\000"
 4320      5F636E74 
 4320      00
 4321              	.LASF328:
 4322 02bd 6D6F645F 		.ascii	"mod_sensors_getValueTOF\000"
 4322      73656E73 
 4322      6F72735F 
 4322      67657456 
 4322      616C7565 
 4323              	.LASF140:
 4324 02d5 63685F70 		.ascii	"ch_ptrsize\000"
 4324      74727369 
 4324      7A6500
 4325              	.LASF274:
 4326 02e0 5F6D756C 		.ascii	"_mult\000"
 4326      7400
 4327              	.LASF246:
 4328 02e6 5F726565 		.ascii	"_reent\000"
 4328      6E7400
 4329              	.LASF100:
 4330 02ed 73655F74 		.ascii	"se_tp\000"
 4330      7000
 4331              	.LASF114:
 4332 02f3 74696D65 		.ascii	"time_measurement_t\000"
 4332      5F6D6561 
 4332      73757265 
 4332      6D656E74 
 4332      5F7400
 4333              	.LASF185:
 4334 0306 77617463 		.ascii	"watchers\000"
 4334      68657273 
 4334      00
 4335              	.LASF301:
 4336 030f 6275735F 		.ascii	"bus_condvar\000"
 4336      636F6E64 
ARM GAS  /var/folders/qd/4mxf5pkd0zdf0b9dd1hp39180000gn/T//ccEUejPK.s 			page 79


 4336      76617200 
 4337              	.LASF315:
 4338 031b 67657449 		.ascii	"getIRSensorsValues\000"
 4338      5253656E 
 4338      736F7273 
 4338      56616C75 
 4338      657300
 4339              	.LASF132:
 4340 032e 6D5F6F77 		.ascii	"m_owner\000"
 4340      6E657200 
 4341              	.LASF76:
 4342 0336 76745F70 		.ascii	"vt_par\000"
 4342      617200
 4343              	.LASF166:
 4344 033d 5F5F7763 		.ascii	"__wch\000"
 4344      6800
 4345              	.LASF121:
 4346 0343 65786974 		.ascii	"exitcode\000"
 4346      636F6465 
 4346      00
 4347              	.LASF3:
 4348 034c 5F5F7569 		.ascii	"__uint8_t\000"
 4348      6E74385F 
 4348      7400
 4349              	.LASF126:
 4350 0356 65776D61 		.ascii	"ewmask\000"
 4350      736B00
 4351              	.LASF231:
 4352 035d 5F66696C 		.ascii	"_file\000"
 4352      6500
 4353              	.LASF142:
 4354 0363 63685F74 		.ascii	"ch_threadsize\000"
 4354      68726561 
 4354      6473697A 
 4354      6500
 4355              	.LASF218:
 4356 0371 5F6F6E5F 		.ascii	"_on_exit_args\000"
 4356      65786974 
 4356      5F617267 
 4356      7300
 4357              	.LASF38:
 4358 037f 705F6E65 		.ascii	"p_newer\000"
 4358      77657200 
 4359              	.LASF289:
 4360 0387 5F6D6272 		.ascii	"_mbrlen_state\000"
 4360      6C656E5F 
 4360      73746174 
 4360      6500
 4361              	.LASF7:
 4362 0395 6C6F6E67 		.ascii	"long int\000"
 4362      20696E74 
 4362      00
 4363              	.LASF34:
 4364 039e 705F6E65 		.ascii	"p_next\000"
 4364      787400
 4365              	.LASF298:
 4366 03a5 5F696D70 		.ascii	"_impure_ptr\000"
ARM GAS  /var/folders/qd/4mxf5pkd0zdf0b9dd1hp39180000gn/T//ccEUejPK.s 			page 80


 4366      7572655F 
 4366      70747200 
 4367              	.LASF258:
 4368 03b1 5F726573 		.ascii	"_result_k\000"
 4368      756C745F 
 4368      6B00
 4369              	.LASF149:
 4370 03bb 63665F6F 		.ascii	"cf_off_state\000"
 4370      66665F73 
 4370      74617465 
 4370      00
 4371              	.LASF228:
 4372 03c8 5F73697A 		.ascii	"_size\000"
 4372      6500
 4373              	.LASF35:
 4374 03ce 705F7072 		.ascii	"p_prev\000"
 4374      657600
 4375              	.LASF279:
 4376 03d5 5F6C6F63 		.ascii	"_localtime_buf\000"
 4376      616C7469 
 4376      6D655F62 
 4376      756600
 4377              	.LASF309:
 4378 03e4 63757272 		.ascii	"currentValue\000"
 4378      656E7456 
 4378      616C7565 
 4378      00
 4379              	.LASF24:
 4380 03f1 74737461 		.ascii	"tstate_t\000"
 4380      74655F74 
 4380      00
 4381              	.LASF22:
 4382 03fa 72747469 		.ascii	"rttime_t\000"
 4382      6D655F74 
 4382      00
 4383              	.LASF59:
 4384 0403 74687265 		.ascii	"threads_queue_t\000"
 4384      6164735F 
 4384      71756575 
 4384      655F7400 
 4385              	.LASF51:
 4386 0413 705F6D74 		.ascii	"p_mtxlist\000"
 4386      786C6973 
 4386      7400
 4387              	.LASF95:
 4388 041d 72656761 		.ascii	"regarm_t\000"
 4388      726D5F74 
 4388      00
 4389              	.LASF213:
 4390 0426 5F5F746D 		.ascii	"__tm_mon\000"
 4390      5F6D6F6E 
 4390      00
 4391              	.LASF191:
 4392 042f 68656164 		.ascii	"head\000"
 4392      00
 4393              	.LASF113:
 4394 0434 63756D75 		.ascii	"cumulative\000"
ARM GAS  /var/folders/qd/4mxf5pkd0zdf0b9dd1hp39180000gn/T//ccEUejPK.s 			page 81


 4394      6C617469 
 4394      766500
 4395              	.LASF0:
 4396 043f 7369676E 		.ascii	"signed char\000"
 4396      65642063 
 4396      68617200 
 4397              	.LASF45:
 4398 044b 705F7072 		.ascii	"p_preempt\000"
 4398      65656D70 
 4398      7400
 4399              	.LASF14:
 4400 0455 75696E74 		.ascii	"uint8_t\000"
 4400      385F7400 
 4401              	.LASF306:
 4402 045d 6D6F645F 		.ascii	"mod_sensors_getAllProximityValues\000"
 4402      73656E73 
 4402      6F72735F 
 4402      67657441 
 4402      6C6C5072 
 4403              	.LASF29:
 4404 047f 6576656E 		.ascii	"eventmask_t\000"
 4404      746D6173 
 4404      6B5F7400 
 4405              	.LASF97:
 4406 048b 636F6E74 		.ascii	"context\000"
 4406      65787400 
 4407              	.LASF190:
 4408 0493 6D657373 		.ascii	"messagebus_topic_t\000"
 4408      61676562 
 4408      75735F74 
 4408      6F706963 
 4408      5F7400
 4409              	.LASF123:
 4410 04a6 77747472 		.ascii	"wttrp\000"
 4410      7000
 4411              	.LASF172:
 4412 04ac 656E7669 		.ascii	"environ\000"
 4412      726F6E00 
 4413              	.LASF1:
 4414 04b4 756E7369 		.ascii	"unsigned char\000"
 4414      676E6564 
 4414      20636861 
 4414      7200
 4415              	.LASF82:
 4416 04c2 70616E69 		.ascii	"panic_msg\000"
 4416      635F6D73 
 4416      6700
 4417              	.LASF253:
 4418 04cc 5F756E73 		.ascii	"_unspecified_locale_info\000"
 4418      70656369 
 4418      66696564 
 4418      5F6C6F63 
 4418      616C655F 
 4419              	.LASF85:
 4420 04e5 74726163 		.ascii	"trace_buffer\000"
 4420      655F6275 
 4420      66666572 
ARM GAS  /var/folders/qd/4mxf5pkd0zdf0b9dd1hp39180000gn/T//ccEUejPK.s 			page 82


 4420      00
 4421              	.LASF66:
 4422 04f2 725F6E65 		.ascii	"r_newer\000"
 4422      77657200 
 4423              	.LASF299:
 4424 04fa 5F676C6F 		.ascii	"_global_impure_ptr\000"
 4424      62616C5F 
 4424      696D7075 
 4424      72655F70 
 4424      747200
 4425              	.LASF216:
 4426 050d 5F5F746D 		.ascii	"__tm_yday\000"
 4426      5F796461 
 4426      7900
 4427              	.LASF80:
 4428 0517 73797374 		.ascii	"system_debug_t\000"
 4428      656D5F64 
 4428      65627567 
 4428      5F7400
 4429              	.LASF187:
 4430 0526 5F426F6F 		.ascii	"_Bool\000"
 4430      6C00
 4431              	.LASF308:
 4432 052c 7461626C 		.ascii	"table\000"
 4432      6500
 4433              	.LASF135:
 4434 0532 63686172 		.ascii	"char\000"
 4434      00
 4435              	.LASF134:
 4436 0537 6D5F636E 		.ascii	"m_cnt\000"
 4436      7400
 4437              	.LASF237:
 4438 053d 5F636C6F 		.ascii	"_close\000"
 4438      736500
 4439              	.LASF313:
 4440 0544 6D6F645F 		.ascii	"mod_sensors_calibrateFrontSensor\000"
 4440      73656E73 
 4440      6F72735F 
 4440      63616C69 
 4440      62726174 
 4441              	.LASF36:
 4442 0565 705F7072 		.ascii	"p_prio\000"
 4442      696F00
 4443              	.LASF4:
 4444 056c 5F5F7569 		.ascii	"__uint16_t\000"
 4444      6E743136 
 4444      5F7400
 4445              	.LASF122:
 4446 0577 77746F62 		.ascii	"wtobjp\000"
 4446      6A7000
 4447              	.LASF116:
 4448 057e 6E5F6374 		.ascii	"n_ctxswc\000"
 4448      78737763 
 4448      00
 4449              	.LASF248:
 4450 0587 5F737464 		.ascii	"_stdin\000"
 4450      696E00
ARM GAS  /var/folders/qd/4mxf5pkd0zdf0b9dd1hp39180000gn/T//ccEUejPK.s 			page 83


 4451              	.LASF178:
 4452 058e 746F7069 		.ascii	"topic_s\000"
 4452      635F7300 
 4453              	.LASF145:
 4454 0596 63665F6F 		.ascii	"cf_off_newer\000"
 4454      66665F6E 
 4454      65776572 
 4454      00
 4455              	.LASF311:
 4456 05a3 6D6F645F 		.ascii	"mod_sensors_stopSensors\000"
 4456      73656E73 
 4456      6F72735F 
 4456      73746F70 
 4456      53656E73 
 4457              	.LASF320:
 4458 05bb 6D657373 		.ascii	"messagebus_init\000"
 4458      61676562 
 4458      75735F69 
 4458      6E697400 
 4459              	.LASF96:
 4460 05cb 73746B61 		.ascii	"stkalign_t\000"
 4460      6C69676E 
 4460      5F7400
 4461              	.LASF322:
 4462 05d6 564C3533 		.ascii	"VL53L0X_get_dist_mm\000"
 4462      4C30585F 
 4462      6765745F 
 4462      64697374 
 4462      5F6D6D00 
 4463              	.LASF177:
 4464 05ea 6F707472 		.ascii	"optreset\000"
 4464      65736574 
 4464      00
 4465              	.LASF143:
 4466 05f3 63665F6F 		.ascii	"cf_off_prio\000"
 4466      66665F70 
 4466      72696F00 
 4467              	.LASF111:
 4468 05ff 776F7273 		.ascii	"worst\000"
 4468      7400
 4469              	.LASF30:
 4470 0605 636E745F 		.ascii	"cnt_t\000"
 4470      7400
 4471              	.LASF310:
 4472 060b 70726576 		.ascii	"previousValue\000"
 4472      696F7573 
 4472      56616C75 
 4472      6500
 4473              	.LASF75:
 4474 0619 76745F66 		.ascii	"vt_func\000"
 4474      756E6300 
 4475              	.LASF179:
 4476 0621 62756666 		.ascii	"buffer\000"
 4476      657200
 4477              	.LASF233:
 4478 0628 5F636F6F 		.ascii	"_cookie\000"
 4478      6B696500 
ARM GAS  /var/folders/qd/4mxf5pkd0zdf0b9dd1hp39180000gn/T//ccEUejPK.s 			page 84


 4479              	.LASF259:
 4480 0630 5F703573 		.ascii	"_p5s\000"
 4480      00
 4481              	.LASF107:
 4482 0635 63685F74 		.ascii	"ch_trace_buffer_t\000"
 4482      72616365 
 4482      5F627566 
 4482      6665725F 
 4482      7400
 4483              	.LASF50:
 4484 0647 705F6570 		.ascii	"p_epending\000"
 4484      656E6469 
 4484      6E6700
 4485              	.LASF125:
 4486 0652 77746D74 		.ascii	"wtmtxp\000"
 4486      787000
 4487              	.LASF207:
 4488 0659 5F776473 		.ascii	"_wds\000"
 4488      00
 4489              	.LASF62:
 4490 065e 63685F72 		.ascii	"ch_ready_list\000"
 4490      65616479 
 4490      5F6C6973 
 4490      7400
 4491              	.LASF162:
 4492 066c 5F5F6C6F 		.ascii	"__lock\000"
 4492      636B00
 4493              	.LASF265:
 4494 0673 5F736967 		.ascii	"_sig_func\000"
 4494      5F66756E 
 4494      6300
 4495              	.LASF241:
 4496 067d 5F6F6666 		.ascii	"_offset\000"
 4496      73657400 
 4497              	.LASF180:
 4498 0685 62756666 		.ascii	"buffer_len\000"
 4498      65725F6C 
 4498      656E00
 4499              	.LASF262:
 4500 0690 5F637674 		.ascii	"_cvtbuf\000"
 4500      62756600 
 4501              	.LASF83:
 4502 0698 6973725F 		.ascii	"isr_cnt\000"
 4502      636E7400 
 4503              	.LASF118:
 4504 06a0 6D5F6372 		.ascii	"m_crit_isr\000"
 4504      69745F69 
 4504      737200
 4505              	.LASF174:
 4506 06ab 6F707469 		.ascii	"optind\000"
 4506      6E6400
 4507              	.LASF102:
 4508 06b2 73655F73 		.ascii	"se_state\000"
 4508      74617465 
 4508      00
 4509              	.LASF305:
 4510 06bb 70726F78 		.ascii	"prox_values\000"
ARM GAS  /var/folders/qd/4mxf5pkd0zdf0b9dd1hp39180000gn/T//ccEUejPK.s 			page 85


 4510      5F76616C 
 4510      75657300 
 4511              	.LASF117:
 4512 06c7 6D5F6372 		.ascii	"m_crit_thd\000"
 4512      69745F74 
 4512      686400
 4513              	.LASF11:
 4514 06d2 5F5F7569 		.ascii	"__uint64_t\000"
 4514      6E743634 
 4514      5F7400
 4515              	.LASF169:
 4516 06dd 5F5F7661 		.ascii	"__value\000"
 4516      6C756500 
 4517              	.LASF9:
 4518 06e5 6C6F6E67 		.ascii	"long unsigned int\000"
 4518      20756E73 
 4518      69676E65 
 4518      6420696E 
 4518      7400
 4519              	.LASF137:
 4520 06f7 63685F7A 		.ascii	"ch_zero\000"
 4520      65726F00 
 4521              	.LASF159:
 4522 06ff 636F6E64 		.ascii	"condition_variable_t\000"
 4522      6974696F 
 4522      6E5F7661 
 4522      72696162 
 4522      6C655F74 
 4523              	.LASF229:
 4524 0714 5F5F7346 		.ascii	"__sFILE\000"
 4524      494C4500 
 4525              	.LASF255:
 4526 071c 5F5F7364 		.ascii	"__sdidinit\000"
 4526      6964696E 
 4526      697400
 4527              	.LASF245:
 4528 0727 5F666C61 		.ascii	"_flags2\000"
 4528      67733200 
 4529              	.LASF94:
 4530 072f 53797374 		.ascii	"SystemCoreClock\000"
 4530      656D436F 
 4530      7265436C 
 4530      6F636B00 
 4531              	.LASF127:
 4532 073f 63685F73 		.ascii	"ch_semaphore\000"
 4532      656D6170 
 4532      686F7265 
 4532      00
 4533              	.LASF57:
 4534 074c 63685F74 		.ascii	"ch_thread\000"
 4534      68726561 
 4534      6400
 4535              	.LASF77:
 4536 0756 76697274 		.ascii	"virtual_timers_list_t\000"
 4536      75616C5F 
 4536      74696D65 
 4536      72735F6C 
ARM GAS  /var/folders/qd/4mxf5pkd0zdf0b9dd1hp39180000gn/T//ccEUejPK.s 			page 86


 4536      6973745F 
 4537              	.LASF247:
 4538 076c 5F657272 		.ascii	"_errno\000"
 4538      6E6F00
 4539              	.LASF70:
 4540 0773 76697274 		.ascii	"virtual_timer_t\000"
 4540      75616C5F 
 4540      74696D65 
 4540      725F7400 
 4541              	.LASF61:
 4542 0783 72656164 		.ascii	"ready_list_t\000"
 4542      795F6C69 
 4542      73745F74 
 4542      00
 4543              	.LASF287:
 4544 0790 5F736967 		.ascii	"_signal_buf\000"
 4544      6E616C5F 
 4544      62756600 
 4545              	.LASF193:
 4546 079c 6D657373 		.ascii	"messagebus_t\000"
 4546      61676562 
 4546      75735F74 
 4546      00
 4547              	.LASF31:
 4548 07a9 75636E74 		.ascii	"ucnt_t\000"
 4548      5F7400
 4549              	.LASF189:
 4550 07b0 67726F75 		.ascii	"group\000"
 4550      7000
 4551              	.LASF203:
 4552 07b6 5F426967 		.ascii	"_Bigint\000"
 4552      696E7400 
 4553              	.LASF58:
 4554 07be 63685F74 		.ascii	"ch_threads_list\000"
 4554      68726561 
 4554      64735F6C 
 4554      69737400 
 4555              	.LASF195:
 4556 07ce 7075626C 		.ascii	"published_topic\000"
 4556      69736865 
 4556      645F746F 
 4556      70696300 
 4557              	.LASF103:
 4558 07de 63685F73 		.ascii	"ch_swc_event_t\000"
 4558      77635F65 
 4558      76656E74 
 4558      5F7400
 4559              	.LASF205:
 4560 07ed 5F6D6178 		.ascii	"_maxwds\000"
 4560      77647300 
 4561              	.LASF194:
 4562 07f5 6D657373 		.ascii	"messagebus_watchgroup_s\000"
 4562      61676562 
 4562      75735F77 
 4562      61746368 
 4562      67726F75 
 4563              	.LASF196:
ARM GAS  /var/folders/qd/4mxf5pkd0zdf0b9dd1hp39180000gn/T//ccEUejPK.s 			page 87


 4564 080d 6D657373 		.ascii	"messagebus_watchgroup_t\000"
 4564      61676562 
 4564      75735F77 
 4564      61746368 
 4564      67726F75 
 4565              	.LASF115:
 4566 0825 6E5F6972 		.ascii	"n_irq\000"
 4566      7100
 4567              	.LASF256:
 4568 082b 5F5F636C 		.ascii	"__cleanup\000"
 4568      65616E75 
 4568      7000
 4569              	.LASF264:
 4570 0835 5F617465 		.ascii	"_atexit0\000"
 4570      78697430 
 4570      00
 4571              	.LASF152:
 4572 083e 63665F6F 		.ascii	"cf_off_preempt\000"
 4572      66665F70 
 4572      7265656D 
 4572      707400
 4573              	.LASF314:
 4574 084d 64657369 		.ascii	"desiredValue\000"
 4574      72656456 
 4574      616C7565 
 4574      00
 4575              	.LASF8:
 4576 085a 5F5F7569 		.ascii	"__uint32_t\000"
 4576      6E743332 
 4576      5F7400
 4577              	.LASF252:
 4578 0865 5F656D65 		.ascii	"_emergency\000"
 4578      7267656E 
 4578      637900
 4579              	.LASF329:
 4580 0870 5F5F7374 		.ascii	"__stack_chk_fail\000"
 4580      61636B5F 
 4580      63686B5F 
 4580      6661696C 
 4580      00
 4581              	.LASF10:
 4582 0881 6C6F6E67 		.ascii	"long long int\000"
 4582      206C6F6E 
 4582      6720696E 
 4582      7400
 4583              	.LASF139:
 4584 088f 63685F76 		.ascii	"ch_version\000"
 4584      65727369 
 4584      6F6E00
 4585              	.LASF131:
 4586 089a 6D5F7175 		.ascii	"m_queue\000"
 4586      65756500 
 4587              	.LASF157:
 4588 08a2 636F6E64 		.ascii	"condition_variable\000"
 4588      6974696F 
 4588      6E5F7661 
 4588      72696162 
ARM GAS  /var/folders/qd/4mxf5pkd0zdf0b9dd1hp39180000gn/T//ccEUejPK.s 			page 88


 4588      6C6500
 4589              	.LASF270:
 4590 08b5 5F6E696F 		.ascii	"_niobs\000"
 4590      627300
 4591              	.LASF72:
 4592 08bc 76745F6E 		.ascii	"vt_next\000"
 4592      65787400 
 4593              	.LASF316:
 4594 08c4 70726F78 		.ascii	"prox_topic\000"
 4594      5F746F70 
 4594      696300
 4595              	.LASF266:
 4596 08cf 5F5F7367 		.ascii	"__sglue\000"
 4596      6C756500 
 4597              	.LASF296:
 4598 08d7 5F6E6D61 		.ascii	"_nmalloc\000"
 4598      6C6C6F63 
 4598      00
 4599              	.LASF73:
 4600 08e0 76745F70 		.ascii	"vt_prev\000"
 4600      72657600 
 4601              	.LASF280:
 4602 08e8 5F67616D 		.ascii	"_gamma_signgam\000"
 4602      6D615F73 
 4602      69676E67 
 4602      616D00
 4603              	.LASF104:
 4604 08f7 74625F73 		.ascii	"tb_size\000"
 4604      697A6500 
 4605              	.LASF318:
 4606 08ff 564C3533 		.ascii	"VL53L0X_stop\000"
 4606      4C30585F 
 4606      73746F70 
 4606      00
 4607              	.LASF260:
 4608 090c 5F667265 		.ascii	"_freelist\000"
 4608      656C6973 
 4608      7400
 4609              	.LASF271:
 4610 0916 5F696F62 		.ascii	"_iobs\000"
 4610      7300
 4611              	.LASF269:
 4612 091c 5F676C75 		.ascii	"_glue\000"
 4612      6500
 4613              	.LASF93:
 4614 0922 49544D5F 		.ascii	"ITM_RxBuffer\000"
 4614      52784275 
 4614      66666572 
 4614      00
 4615              	.LASF206:
 4616 092f 5F736967 		.ascii	"_sign\000"
 4616      6E00
 4617              	.LASF197:
 4618 0935 616D6269 		.ascii	"ambient\000"
 4618      656E7400 
 4619              	.LASF240:
 4620 093d 5F626C6B 		.ascii	"_blksize\000"
ARM GAS  /var/folders/qd/4mxf5pkd0zdf0b9dd1hp39180000gn/T//ccEUejPK.s 			page 89


 4620      73697A65 
 4620      00
 4621              	.LASF47:
 4622 0946 705F7761 		.ascii	"p_waiting\000"
 4622      6974696E 
 4622      6700
 4623              	.LASF101:
 4624 0950 73655F77 		.ascii	"se_wtobjp\000"
 4624      746F626A 
 4624      7000
 4625              	.LASF43:
 4626 095a 705F666C 		.ascii	"p_flags\000"
 4626      61677300 
 4627              	.LASF92:
 4628 0962 69646C65 		.ascii	"idle_thread_wa\000"
 4628      5F746872 
 4628      6561645F 
 4628      776100
 4629              	.LASF13:
 4630 0971 756E7369 		.ascii	"unsigned int\000"
 4630      676E6564 
 4630      20696E74 
 4630      00
 4631              	.LASF184:
 4632 097e 7075626C 		.ascii	"published\000"
 4632      69736865 
 4632      6400
 4633              	.LASF21:
 4634 0988 7274636E 		.ascii	"rtcnt_t\000"
 4634      745F7400 
 4635              	.LASF53:
 4636 0990 705F6D70 		.ascii	"p_mpool\000"
 4636      6F6F6C00 
 4637              	.LASF294:
 4638 0998 5F685F65 		.ascii	"_h_errno\000"
 4638      72726E6F 
 4638      00
 4639              	.LASF44:
 4640 09a1 705F7265 		.ascii	"p_refs\000"
 4640      667300
 4641              	.LASF141:
 4642 09a8 63685F74 		.ascii	"ch_timesize\000"
 4642      696D6573 
 4642      697A6500 
 4643              	.LASF292:
 4644 09b4 5F776372 		.ascii	"_wcrtomb_state\000"
 4644      746F6D62 
 4644      5F737461 
 4644      746500
 4645              	.LASF192:
 4646 09c3 746F7069 		.ascii	"topics\000"
 4646      637300
 4647              	.LASF212:
 4648 09ca 5F5F746D 		.ascii	"__tm_mday\000"
 4648      5F6D6461 
 4648      7900
 4649              	.LASF119:
ARM GAS  /var/folders/qd/4mxf5pkd0zdf0b9dd1hp39180000gn/T//ccEUejPK.s 			page 90


 4650 09d4 6B65726E 		.ascii	"kernel_stats_t\000"
 4650      656C5F73 
 4650      74617473 
 4650      5F7400
 4651              	.LASF263:
 4652 09e3 5F6E6577 		.ascii	"_new\000"
 4652      00
 4653              	.LASF323:
 4654 09e8 6D657373 		.ascii	"messagebus_find_topic_blocking\000"
 4654      61676562 
 4654      75735F66 
 4654      696E645F 
 4654      746F7069 
 4655              	.LASF238:
 4656 0a07 5F756275 		.ascii	"_ubuf\000"
 4656      6600
 4657              	.LASF250:
 4658 0a0d 5F737464 		.ascii	"_stderr\000"
 4658      65727200 
 4659              	.LASF285:
 4660 0a15 5F776374 		.ascii	"_wctomb_state\000"
 4660      6F6D625F 
 4660      73746174 
 4660      6500
 4661              	.LASF244:
 4662 0a23 5F6D6273 		.ascii	"_mbstate\000"
 4662      74617465 
 4662      00
 4663              	.LASF281:
 4664 0a2c 5F72616E 		.ascii	"_rand_next\000"
 4664      645F6E65 
 4664      787400
 4665              	.LASF230:
 4666 0a37 5F666C61 		.ascii	"_flags\000"
 4666      677300
 4667              	.LASF108:
 4668 0a3e 6F666673 		.ascii	"offset\000"
 4668      657400
 4669              	.LASF106:
 4670 0a45 74625F62 		.ascii	"tb_buffer\000"
 4670      75666665 
 4670      7200
 4671              	.LASF223:
 4672 0a4f 5F617465 		.ascii	"_atexit\000"
 4672      78697400 
 4673              	.LASF46:
 4674 0a57 705F7469 		.ascii	"p_time\000"
 4674      6D6500
 4675              	.LASF151:
 4676 0a5e 63665F6F 		.ascii	"cf_off_refs\000"
 4676      66665F72 
 4676      65667300 
 4677              	.LASF168:
 4678 0a6a 5F5F636F 		.ascii	"__count\000"
 4678      756E7400 
 4679              	.LASF215:
 4680 0a72 5F5F746D 		.ascii	"__tm_wday\000"
ARM GAS  /var/folders/qd/4mxf5pkd0zdf0b9dd1hp39180000gn/T//ccEUejPK.s 			page 91


 4680      5F776461 
 4680      7900
 4681              	.LASF300:
 4682 0a7c 6275735F 		.ascii	"bus_lock\000"
 4682      6C6F636B 
 4682      00
 4683              	.LASF33:
 4684 0a85 74687265 		.ascii	"thread_t\000"
 4684      61645F74 
 4684      00
 4685              	.LASF20:
 4686 0a8e 6C6F6E67 		.ascii	"long double\000"
 4686      20646F75 
 4686      626C6500 
 4687              	.LASF55:
 4688 0a9a 74687265 		.ascii	"thread_reference_t\000"
 4688      61645F72 
 4688      65666572 
 4688      656E6365 
 4688      5F7400
 4689              	.LASF52:
 4690 0aad 705F7265 		.ascii	"p_realprio\000"
 4690      616C7072 
 4690      696F00
 4691              	.LASF98:
 4692 0ab8 706F7274 		.ascii	"port_intctx\000"
 4692      5F696E74 
 4692      63747800 
 4693              	.LASF198:
 4694 0ac4 7265666C 		.ascii	"reflected\000"
 4694      65637465 
 4694      6400
 4695              	.LASF153:
 4696 0ace 63665F6F 		.ascii	"cf_off_time\000"
 4696      66665F74 
 4696      696D6500 
 4697              	.LASF236:
 4698 0ada 5F736565 		.ascii	"_seek\000"
 4698      6B00
 4699              	.LASF74:
 4700 0ae0 76745F64 		.ascii	"vt_delta\000"
 4700      656C7461 
 4700      00
 4701              	.LASF200:
 4702 0ae9 696E6974 		.ascii	"initValue\000"
 4702      56616C75 
 4702      6500
 4703              	.LASF164:
 4704 0af3 5F66706F 		.ascii	"_fpos_t\000"
 4704      735F7400 
 4705              	.LASF167:
 4706 0afb 5F5F7763 		.ascii	"__wchb\000"
 4706      686200
 4707              	.LASF71:
 4708 0b02 63685F76 		.ascii	"ch_virtual_timer\000"
 4708      69727475 
 4708      616C5F74 
ARM GAS  /var/folders/qd/4mxf5pkd0zdf0b9dd1hp39180000gn/T//ccEUejPK.s 			page 92


 4708      696D6572 
 4708      00
 4709              	.LASF129:
 4710 0b13 735F636E 		.ascii	"s_cnt\000"
 4710      7400
 4711              	.LASF284:
 4712 0b19 5F6D6274 		.ascii	"_mbtowc_state\000"
 4712      6F77635F 
 4712      73746174 
 4712      6500
 4713              	.LASF158:
 4714 0b27 635F7175 		.ascii	"c_queue\000"
 4714      65756500 
 4715              	.LASF91:
 4716 0b2f 6B65726E 		.ascii	"kernel_stats\000"
 4716      656C5F73 
 4716      74617473 
 4716      00
 4717              	.LASF276:
 4718 0b3c 5F756E75 		.ascii	"_unused_rand\000"
 4718      7365645F 
 4718      72616E64 
 4718      00
 4719              	.LASF12:
 4720 0b49 6C6F6E67 		.ascii	"long long unsigned int\000"
 4720      206C6F6E 
 4720      6720756E 
 4720      7369676E 
 4720      65642069 
 4721              	.LASF39:
 4722 0b60 705F6F6C 		.ascii	"p_older\000"
 4722      64657200 
 4723              	.LASF15:
 4724 0b68 75696E74 		.ascii	"uint16_t\000"
 4724      31365F74 
 4724      00
 4725              	.LASF220:
 4726 0b71 5F64736F 		.ascii	"_dso_handle\000"
 4726      5F68616E 
 4726      646C6500 
 4727              	.LASF28:
 4728 0b7d 6D73675F 		.ascii	"msg_t\000"
 4728      7400
 4729              	.LASF60:
 4730 0b83 63685F74 		.ascii	"ch_threads_queue\000"
 4730      68726561 
 4730      64735F71 
 4730      75657565 
 4730      00
 4731              	.LASF272:
 4732 0b94 5F72616E 		.ascii	"_rand48\000"
 4732      64343800 
 4733              	.LASF150:
 4734 0b9c 63665F6F 		.ascii	"cf_off_flags\000"
 4734      66665F66 
 4734      6C616773 
 4734      00
ARM GAS  /var/folders/qd/4mxf5pkd0zdf0b9dd1hp39180000gn/T//ccEUejPK.s 			page 93


 4735              	.LASF249:
 4736 0ba9 5F737464 		.ascii	"_stdout\000"
 4736      6F757400 
 4737              	.LASF26:
 4738 0bb1 74736C69 		.ascii	"tslices_t\000"
 4738      6365735F 
 4738      7400
 4739              	.LASF199:
 4740 0bbb 64656C74 		.ascii	"delta\000"
 4740      6100
 4741              	.LASF68:
 4742 0bc1 725F6375 		.ascii	"r_current\000"
 4742      7272656E 
 4742      7400
 4743              	.LASF227:
 4744 0bcb 5F626173 		.ascii	"_base\000"
 4744      6500
 4745              	.LASF175:
 4746 0bd1 6F707465 		.ascii	"opterr\000"
 4746      727200
 4747              	.LASF277:
 4748 0bd8 5F737472 		.ascii	"_strtok_last\000"
 4748      746F6B5F 
 4748      6C617374 
 4748      00
 4749              	.LASF317:
 4750 0be5 63616C69 		.ascii	"calibrate_ir\000"
 4750      62726174 
 4750      655F6972 
 4750      00
 4751              	.LASF290:
 4752 0bf2 5F6D6272 		.ascii	"_mbrtowc_state\000"
 4752      746F7763 
 4752      5F737461 
 4752      746500
 4753              	.LASF90:
 4754 0c01 6D61696E 		.ascii	"mainthread\000"
 4754      74687265 
 4754      616400
 4755              	.LASF171:
 4756 0c0c 5F666C6F 		.ascii	"_flock_t\000"
 4756      636B5F74 
 4756      00
 4757              	.LASF304:
 4758 0c15 70726F78 		.ascii	"proximity_divider\000"
 4758      696D6974 
 4758      795F6469 
 4758      76696465 
 4758      7200
 4759              	.LASF268:
 4760 0c27 5F5F4649 		.ascii	"__FILE\000"
 4760      4C4500
 4761              	.LASF110:
 4762 0c2e 62657374 		.ascii	"best\000"
 4762      00
 4763              	.LASF170:
 4764 0c33 5F6D6273 		.ascii	"_mbstate_t\000"
ARM GAS  /var/folders/qd/4mxf5pkd0zdf0b9dd1hp39180000gn/T//ccEUejPK.s 			page 94


 4764      74617465 
 4764      5F7400
 4765              	.LASF63:
 4766 0c3e 725F7175 		.ascii	"r_queue\000"
 4766      65756500 
 4767              	.LASF282:
 4768 0c46 5F723438 		.ascii	"_r48\000"
 4768      00
 4769              	.LASF165:
 4770 0c4b 77696E74 		.ascii	"wint_t\000"
 4770      5F7400
 4771              	.LASF204:
 4772 0c52 5F6E6578 		.ascii	"_next\000"
 4772      7400
 4773              	.LASF242:
 4774 0c58 5F646174 		.ascii	"_data\000"
 4774      6100
 4775              	.LASF88:
 4776 0c5e 726C6973 		.ascii	"rlist\000"
 4776      7400
 4777              	.LASF319:
 4778 0c64 564C3533 		.ascii	"VL53L0X_start\000"
 4778      4C30585F 
 4778      73746172 
 4778      7400
 4779              	.LASF23:
 4780 0c72 746D6F64 		.ascii	"tmode_t\000"
 4780      655F7400 
 4781              	.LASF326:
 4782 0c7a 2E2F6D6F 		.ascii	"./modules/mod_sensors.c\000"
 4782      64756C65 
 4782      732F6D6F 
 4782      645F7365 
 4782      6E736F72 
 4783              	.LASF79:
 4784 0c92 76745F73 		.ascii	"vt_systime\000"
 4784      79737469 
 4784      6D6500
 4785              	.LASF188:
 4786 0c9d 6D657373 		.ascii	"messagebus_watcher_s\000"
 4786      61676562 
 4786      75735F77 
 4786      61746368 
 4786      65725F73 
 4787              	.LASF67:
 4788 0cb2 725F6F6C 		.ascii	"r_older\000"
 4788      64657200 
 4789              	.LASF109:
 4790 0cba 746D5F63 		.ascii	"tm_calibration_t\000"
 4790      616C6962 
 4790      72617469 
 4790      6F6E5F74 
 4790      00
 4791              	.LASF183:
 4792 0ccb 6E616D65 		.ascii	"name\000"
 4792      00
 4793              	.LASF128:
ARM GAS  /var/folders/qd/4mxf5pkd0zdf0b9dd1hp39180000gn/T//ccEUejPK.s 			page 95


 4794 0cd0 735F7175 		.ascii	"s_queue\000"
 4794      65756500 
 4795              	.LASF182:
 4796 0cd8 636F6E64 		.ascii	"condvar\000"
 4796      76617200 
 4797              	.LASF324:
 4798 0ce0 6D657373 		.ascii	"messagebus_topic_wait\000"
 4798      61676562 
 4798      75735F74 
 4798      6F706963 
 4798      5F776169 
 4799              	.LASF283:
 4800 0cf6 5F6D626C 		.ascii	"_mblen_state\000"
 4800      656E5F73 
 4800      74617465 
 4800      00
 4801              	.LASF2:
 4802 0d03 73686F72 		.ascii	"short int\000"
 4802      7420696E 
 4802      7400
 4803              	.LASF302:
 4804 0d0d 746F665F 		.ascii	"tof_bias\000"
 4804      62696173 
 4804      00
 4805              	.LASF18:
 4806 0d16 75696E74 		.ascii	"uint64_t\000"
 4806      36345F74 
 4806      00
 4807              	.LASF130:
 4808 0d1f 63685F6D 		.ascii	"ch_mutex\000"
 4808      75746578 
 4808      00
 4809              	.LASF307:
 4810 0d28 6D6F645F 		.ascii	"mod_sensors_calibrateIRSensors\000"
 4810      73656E73 
 4810      6F72735F 
 4810      63616C69 
 4810      62726174 
 4811              	.LASF221:
 4812 0d47 5F666E74 		.ascii	"_fntypes\000"
 4812      79706573 
 4812      00
 4813              	.LASF64:
 4814 0d50 725F7072 		.ascii	"r_prio\000"
 4814      696F00
 4815              	.LASF312:
 4816 0d57 6D6F645F 		.ascii	"mod_sensors_initSensors\000"
 4816      73656E73 
 4816      6F72735F 
 4816      696E6974 
 4816      53656E73 
 4817              	.LASF81:
 4818 0d6f 63685F73 		.ascii	"ch_system_debug\000"
 4818      79737465 
 4818      6D5F6465 
 4818      62756700 
 4819              	.LASF214:
ARM GAS  /var/folders/qd/4mxf5pkd0zdf0b9dd1hp39180000gn/T//ccEUejPK.s 			page 96


 4820 0d7f 5F5F746D 		.ascii	"__tm_year\000"
 4820      5F796561 
 4820      7200
 4821              	.LASF146:
 4822 0d89 63665F6F 		.ascii	"cf_off_older\000"
 4822      66665F6F 
 4822      6C646572 
 4822      00
 4823              	.LASF232:
 4824 0d96 5F6C6266 		.ascii	"_lbfsize\000"
 4824      73697A65 
 4824      00
 4825              	.LASF89:
 4826 0d9f 76746C69 		.ascii	"vtlist\000"
 4826      737400
 4827              	.LASF251:
 4828 0da6 5F696E63 		.ascii	"_inc\000"
 4828      00
 4829              	.LASF224:
 4830 0dab 5F696E64 		.ascii	"_ind\000"
 4830      00
 4831              	.LASF303:
 4832 0db0 70726F78 		.ascii	"proximity_bias\000"
 4832      696D6974 
 4832      795F6269 
 4832      617300
 4833              	.LASF226:
 4834 0dbf 5F5F7362 		.ascii	"__sbuf\000"
 4834      756600
 4835              	.LASF222:
 4836 0dc6 5F69735F 		.ascii	"_is_cxa\000"
 4836      63786100 
 4837              	.LASF160:
 4838 0dce 5F4C4F43 		.ascii	"_LOCK_T\000"
 4838      4B5F5400 
 4839              	.LASF156:
 4840 0dd6 6D757465 		.ascii	"mutex_t\000"
 4840      785F7400 
 4841              	.LASF25:
 4842 0dde 74726566 		.ascii	"trefs_t\000"
 4842      735F7400 
 4843              	.LASF295:
 4844 0de6 5F6E6578 		.ascii	"_nextf\000"
 4844      746600
 4845              	.LASF148:
 4846 0ded 63665F6F 		.ascii	"cf_off_stklimit\000"
 4846      66665F73 
 4846      746B6C69 
 4846      6D697400 
 4847              	.LASF56:
 4848 0dfd 74687265 		.ascii	"threads_list_t\000"
 4848      6164735F 
 4848      6C697374 
 4848      5F7400
 4849              	.LASF321:
 4850 0e0c 70726F78 		.ascii	"proximity_start\000"
 4850      696D6974 
ARM GAS  /var/folders/qd/4mxf5pkd0zdf0b9dd1hp39180000gn/T//ccEUejPK.s 			page 97


 4850      795F7374 
 4850      61727400 
 4851              	.LASF87:
 4852 0e1c 63685F73 		.ascii	"ch_system\000"
 4852      79737465 
 4852      6D00
 4853              	.LASF254:
 4854 0e26 5F6C6F63 		.ascii	"_locale\000"
 4854      616C6500 
 4855              	.LASF202:
 4856 0e2e 5F5F554C 		.ascii	"__ULong\000"
 4856      6F6E6700 
 4857              	.LASF201:
 4858 0e36 70726F78 		.ascii	"proximity_msg_t\000"
 4858      696D6974 
 4858      795F6D73 
 4858      675F7400 
 4859              	.LASF17:
 4860 0e46 75696E74 		.ascii	"uint32_t\000"
 4860      33325F74 
 4860      00
 4861              	.LASF257:
 4862 0e4f 5F726573 		.ascii	"_result\000"
 4862      756C7400 
 4863              	.LASF173:
 4864 0e57 6F707461 		.ascii	"optarg\000"
 4864      726700
 4865              	.LASF163:
 4866 0e5e 5F6F6666 		.ascii	"_off_t\000"
 4866      5F7400
 4867              	.LASF120:
 4868 0e65 7264796D 		.ascii	"rdymsg\000"
 4868      736700
 4869              	.LASF275:
 4870 0e6c 5F616464 		.ascii	"_add\000"
 4870      00
 4871              	.LASF5:
 4872 0e71 73686F72 		.ascii	"short unsigned int\000"
 4872      7420756E 
 4872      7369676E 
 4872      65642069 
 4872      6E7400
 4873              	.LASF211:
 4874 0e84 5F5F746D 		.ascii	"__tm_hour\000"
 4874      5F686F75 
 4874      7200
 4875              	.LASF86:
 4876 0e8e 63685F73 		.ascii	"ch_system_t\000"
 4876      79737465 
 4876      6D5F7400 
 4877              	.LASF154:
 4878 0e9a 63686465 		.ascii	"chdebug_t\000"
 4878      6275675F 
 4878      7400
 4879              	.LASF138:
 4880 0ea4 63685F73 		.ascii	"ch_size\000"
 4880      697A6500 
ARM GAS  /var/folders/qd/4mxf5pkd0zdf0b9dd1hp39180000gn/T//ccEUejPK.s 			page 98


 4881              	.LASF291:
 4882 0eac 5F6D6273 		.ascii	"_mbsrtowcs_state\000"
 4882      72746F77 
 4882      63735F73 
 4882      74617465 
 4882      00
 4883              	.LASF41:
 4884 0ebd 705F7374 		.ascii	"p_stklimit\000"
 4884      6B6C696D 
 4884      697400
 4885              	.LASF6:
 4886 0ec8 5F5F696E 		.ascii	"__int32_t\000"
 4886      7433325F 
 4886      7400
 4887              	.LASF219:
 4888 0ed2 5F666E61 		.ascii	"_fnargs\000"
 4888      72677300 
 4889              	.LASF217:
 4890 0eda 5F5F746D 		.ascii	"__tm_isdst\000"
 4890      5F697364 
 4890      737400
 4891              	.LASF99:
 4892 0ee5 73655F74 		.ascii	"se_time\000"
 4892      696D6500 
 4893              	.LASF40:
 4894 0eed 705F6E61 		.ascii	"p_name\000"
 4894      6D6500
 4895              	.LASF186:
 4896 0ef4 6E657874 		.ascii	"next\000"
 4896      00
 4897              	.LASF133:
 4898 0ef9 6D5F6E65 		.ascii	"m_next\000"
 4898      787400
 4899              	.LASF105:
 4900 0f00 74625F70 		.ascii	"tb_ptr\000"
 4900      747200
 4901              	.LASF210:
 4902 0f07 5F5F746D 		.ascii	"__tm_min\000"
 4902      5F6D696E 
 4902      00
 4903              	.LASF288:
 4904 0f10 5F676574 		.ascii	"_getdate_err\000"
 4904      64617465 
 4904      5F657272 
 4904      00
 4905              	.LASF176:
 4906 0f1d 6F70746F 		.ascii	"optopt\000"
 4906      707400
 4907              	.LASF181:
 4908 0f24 6C6F636B 		.ascii	"lock\000"
 4908      00
 4909              	.LASF112:
 4910 0f29 6C617374 		.ascii	"last\000"
 4910      00
 4911              	.LASF49:
 4912 0f2e 705F6D73 		.ascii	"p_msg\000"
 4912      6700
ARM GAS  /var/folders/qd/4mxf5pkd0zdf0b9dd1hp39180000gn/T//ccEUejPK.s 			page 99


 4913              	.LASF42:
 4914 0f34 705F7374 		.ascii	"p_state\000"
 4914      61746500 
 4915              		.ident	"GCC: (GNU Tools for Arm Embedded Processors 7-2017-q4-major) 7.2.1 20170904 (release) [ARM
ARM GAS  /var/folders/qd/4mxf5pkd0zdf0b9dd1hp39180000gn/T//ccEUejPK.s 			page 100


DEFINED SYMBOLS
                            *ABS*:0000000000000000 mod_sensors.c
/var/folders/qd/4mxf5pkd0zdf0b9dd1hp39180000gn/T//ccEUejPK.s:18     .text.getIRSensorsValues:0000000000000000 $t
/var/folders/qd/4mxf5pkd0zdf0b9dd1hp39180000gn/T//ccEUejPK.s:26     .text.getIRSensorsValues:0000000000000000 getIRSensorsValues
/var/folders/qd/4mxf5pkd0zdf0b9dd1hp39180000gn/T//ccEUejPK.s:84     .text.getIRSensorsValues:0000000000000030 $d
/var/folders/qd/4mxf5pkd0zdf0b9dd1hp39180000gn/T//ccEUejPK.s:91     .text.mod_sensors_calibrateFrontSensor:0000000000000000 $t
/var/folders/qd/4mxf5pkd0zdf0b9dd1hp39180000gn/T//ccEUejPK.s:99     .text.mod_sensors_calibrateFrontSensor:0000000000000000 mod_sensors_calibrateFrontSensor
/var/folders/qd/4mxf5pkd0zdf0b9dd1hp39180000gn/T//ccEUejPK.s:146    .text.mod_sensors_calibrateFrontSensor:0000000000000028 $d
/var/folders/qd/4mxf5pkd0zdf0b9dd1hp39180000gn/T//ccEUejPK.s:152    .text.mod_sensors_getValueTOF:0000000000000000 $t
/var/folders/qd/4mxf5pkd0zdf0b9dd1hp39180000gn/T//ccEUejPK.s:160    .text.mod_sensors_getValueTOF:0000000000000000 mod_sensors_getValueTOF
/var/folders/qd/4mxf5pkd0zdf0b9dd1hp39180000gn/T//ccEUejPK.s:201    .text.mod_sensors_getValueTOF:0000000000000028 $d
/var/folders/qd/4mxf5pkd0zdf0b9dd1hp39180000gn/T//ccEUejPK.s:207    .text.mod_sensors_initSensors:0000000000000000 $t
/var/folders/qd/4mxf5pkd0zdf0b9dd1hp39180000gn/T//ccEUejPK.s:215    .text.mod_sensors_initSensors:0000000000000000 mod_sensors_initSensors
/var/folders/qd/4mxf5pkd0zdf0b9dd1hp39180000gn/T//ccEUejPK.s:264    .text.mod_sensors_initSensors:0000000000000030 $d
/var/folders/qd/4mxf5pkd0zdf0b9dd1hp39180000gn/T//ccEUejPK.s:272    .text.mod_sensors_stopSensors:0000000000000000 $t
/var/folders/qd/4mxf5pkd0zdf0b9dd1hp39180000gn/T//ccEUejPK.s:280    .text.mod_sensors_stopSensors:0000000000000000 mod_sensors_stopSensors
/var/folders/qd/4mxf5pkd0zdf0b9dd1hp39180000gn/T//ccEUejPK.s:318    .text.mod_sensors_stopSensors:0000000000000020 $d
/var/folders/qd/4mxf5pkd0zdf0b9dd1hp39180000gn/T//ccEUejPK.s:323    .text.mod_sensors_calibrateIRSensors:0000000000000000 $t
/var/folders/qd/4mxf5pkd0zdf0b9dd1hp39180000gn/T//ccEUejPK.s:331    .text.mod_sensors_calibrateIRSensors:0000000000000000 mod_sensors_calibrateIRSensors
/var/folders/qd/4mxf5pkd0zdf0b9dd1hp39180000gn/T//ccEUejPK.s:419    .text.mod_sensors_calibrateIRSensors:0000000000000064 $d
/var/folders/qd/4mxf5pkd0zdf0b9dd1hp39180000gn/T//ccEUejPK.s:428    .text.mod_sensors_getAllProximityValues:0000000000000000 $t
/var/folders/qd/4mxf5pkd0zdf0b9dd1hp39180000gn/T//ccEUejPK.s:436    .text.mod_sensors_getAllProximityValues:0000000000000000 mod_sensors_getAllProximityValues
/var/folders/qd/4mxf5pkd0zdf0b9dd1hp39180000gn/T//ccEUejPK.s:498    .text.mod_sensors_getAllProximityValues:0000000000000044 $d
/var/folders/qd/4mxf5pkd0zdf0b9dd1hp39180000gn/T//ccEUejPK.s:538    .data.bus_condvar:0000000000000000 bus_condvar
/var/folders/qd/4mxf5pkd0zdf0b9dd1hp39180000gn/T//ccEUejPK.s:546    .data.bus_lock:0000000000000000 bus_lock
/var/folders/qd/4mxf5pkd0zdf0b9dd1hp39180000gn/T//ccEUejPK.s:510    .bss.i.10160:0000000000000000 i.10160
/var/folders/qd/4mxf5pkd0zdf0b9dd1hp39180000gn/T//ccEUejPK.s:511    .bss.i.10160:0000000000000000 $d
/var/folders/qd/4mxf5pkd0zdf0b9dd1hp39180000gn/T//ccEUejPK.s:513    .bss.previousValue.10161:0000000000000000 $d
/var/folders/qd/4mxf5pkd0zdf0b9dd1hp39180000gn/T//ccEUejPK.s:517    .bss.previousValue.10161:0000000000000000 previousValue.10161
/var/folders/qd/4mxf5pkd0zdf0b9dd1hp39180000gn/T//ccEUejPK.s:520    .bss.proximity_bias:0000000000000000 $d
/var/folders/qd/4mxf5pkd0zdf0b9dd1hp39180000gn/T//ccEUejPK.s:524    .bss.proximity_bias:0000000000000000 proximity_bias
/var/folders/qd/4mxf5pkd0zdf0b9dd1hp39180000gn/T//ccEUejPK.s:527    .bss.tof_bias:0000000000000000 $d
/var/folders/qd/4mxf5pkd0zdf0b9dd1hp39180000gn/T//ccEUejPK.s:531    .bss.tof_bias:0000000000000000 tof_bias
/var/folders/qd/4mxf5pkd0zdf0b9dd1hp39180000gn/T//ccEUejPK.s:534    .data.bus_condvar:0000000000000000 $d
/var/folders/qd/4mxf5pkd0zdf0b9dd1hp39180000gn/T//ccEUejPK.s:542    .data.bus_lock:0000000000000000 $d
/var/folders/qd/4mxf5pkd0zdf0b9dd1hp39180000gn/T//ccEUejPK.s:553    .data.proximity_divider:0000000000000000 $d
/var/folders/qd/4mxf5pkd0zdf0b9dd1hp39180000gn/T//ccEUejPK.s:557    .data.proximity_divider:0000000000000000 proximity_divider
/var/folders/qd/4mxf5pkd0zdf0b9dd1hp39180000gn/T//ccEUejPK.s:560    .rodata.getIRSensorsValues.str1.4:0000000000000000 $d

UNDEFINED SYMBOLS
messagebus_find_topic_blocking
messagebus_topic_wait
__stack_chk_fail
__stack_chk_guard
bus
VL53L0X_get_dist_mm
VL53L0X_start
messagebus_init
proximity_start
VL53L0X_stop
calibrate_ir
