ARM GAS  /var/folders/qd/4mxf5pkd0zdf0b9dd1hp39180000gn/T//cc5H6xqh.s 			page 1


   1              		.cpu cortex-m4
   2              		.eabi_attribute 27, 1
   3              		.eabi_attribute 28, 1
   4              		.eabi_attribute 20, 1
   5              		.eabi_attribute 21, 1
   6              		.eabi_attribute 23, 3
   7              		.eabi_attribute 24, 1
   8              		.eabi_attribute 25, 1
   9              		.eabi_attribute 26, 1
  10              		.eabi_attribute 30, 2
  11              		.eabi_attribute 34, 1
  12              		.eabi_attribute 18, 4
  13              		.file	"mpu9250.c"
  14              		.text
  15              	.Ltext0:
  16              		.cfi_sections	.debug_frame
  17              		.section	.text.mpu9250_change_addr,"ax",%progbits
  18              		.align	1
  19              		.p2align 4,,15
  20              		.global	mpu9250_change_addr
  21              		.syntax unified
  22              		.thumb
  23              		.thumb_func
  24              		.fpu fpv4-sp-d16
  25              		.type	mpu9250_change_addr, %function
  26              	mpu9250_change_addr:
  27              	.LFB256:
  28              		.file 1 "lib/e-puck2_main-processor/src/sensors/mpu9250.c"
  29              		.loc 1 23 0
  30              		.cfi_startproc
  31              		@ args = 0, pretend = 0, frame = 8
  32              		@ frame_needed = 0, uses_anonymous_args = 0
  33 0000 00B5     		push	{lr}
  34              		.cfi_def_cfa_offset 4
  35              		.cfi_offset 14, -4
  36              		.loc 1 24 0
  37 0002 0A4A     		ldr	r2, .L8
  38              		.loc 1 23 0
  39 0004 0A4B     		ldr	r3, .L8+4
  40              		.loc 1 24 0
  41 0006 1178     		ldrb	r1, [r2]	@ zero_extendqisi2
  42              		.loc 1 23 0
  43 0008 1868     		ldr	r0, [r3]
  44 000a 83B0     		sub	sp, sp, #12
  45              		.cfi_def_cfa_offset 16
  46              		.loc 1 24 0
  47 000c 6829     		cmp	r1, #104
  48              		.loc 1 23 0
  49 000e 0190     		str	r0, [sp, #4]
  50              		.loc 1 25 0
  51 0010 0CBF     		ite	eq
  52 0012 6921     		moveq	r1, #105
  53              		.loc 1 27 0
  54 0014 6821     		movne	r1, #104
  55 0016 1170     		strb	r1, [r2]
  56              		.loc 1 29 0
  57 0018 019A     		ldr	r2, [sp, #4]
ARM GAS  /var/folders/qd/4mxf5pkd0zdf0b9dd1hp39180000gn/T//cc5H6xqh.s 			page 2


  58 001a 1B68     		ldr	r3, [r3]
  59 001c 9A42     		cmp	r2, r3
  60 001e 02D1     		bne	.L7
  61 0020 03B0     		add	sp, sp, #12
  62              		.cfi_remember_state
  63              		.cfi_def_cfa_offset 4
  64              		@ sp needed
  65 0022 5DF804FB 		ldr	pc, [sp], #4
  66              	.L7:
  67              		.cfi_restore_state
  68 0026 FFF7FEFF 		bl	__stack_chk_fail
  69              	.LVL0:
  70              	.L9:
  71 002a 00BF     		.align	2
  72              	.L8:
  73 002c 00000000 		.word	.LANCHOR0
  74 0030 00000000 		.word	__stack_chk_guard
  75              		.cfi_endproc
  76              	.LFE256:
  77              		.size	mpu9250_change_addr, .-mpu9250_change_addr
  78              		.section	.text.mpu9250_read_id,"ax",%progbits
  79              		.align	1
  80              		.p2align 4,,15
  81              		.global	mpu9250_read_id
  82              		.syntax unified
  83              		.thumb
  84              		.thumb_func
  85              		.fpu fpv4-sp-d16
  86              		.type	mpu9250_read_id, %function
  87              	mpu9250_read_id:
  88              	.LFB257:
  89              		.loc 1 40 0
  90              		.cfi_startproc
  91              		@ args = 0, pretend = 0, frame = 8
  92              		@ frame_needed = 0, uses_anonymous_args = 0
  93              	.LVL1:
  94 0000 70B5     		push	{r4, r5, r6, lr}
  95              		.cfi_def_cfa_offset 16
  96              		.cfi_offset 4, -16
  97              		.cfi_offset 5, -12
  98              		.cfi_offset 6, -8
  99              		.cfi_offset 14, -4
 100 0002 124D     		ldr	r5, .L18
 101              		.loc 1 42 0
 102 0004 124C     		ldr	r4, .L18+4
 103              		.loc 1 40 0
 104 0006 2B68     		ldr	r3, [r5]
 105 0008 82B0     		sub	sp, sp, #8
 106              		.cfi_def_cfa_offset 24
 107              		.loc 1 40 0
 108 000a 0646     		mov	r6, r0
 109              		.loc 1 42 0
 110 000c 0246     		mov	r2, r0
 111 000e 7521     		movs	r1, #117
 112 0010 2078     		ldrb	r0, [r4]	@ zero_extendqisi2
 113              	.LVL2:
 114              		.loc 1 40 0
ARM GAS  /var/folders/qd/4mxf5pkd0zdf0b9dd1hp39180000gn/T//cc5H6xqh.s 			page 3


 115 0012 0193     		str	r3, [sp, #4]
 116              	.LVL3:
 117              		.loc 1 42 0
 118 0014 FFF7FEFF 		bl	read_reg
 119              	.LVL4:
 120 0018 80B1     		cbz	r0, .L11
 121              	.LVL5:
 122              	.LBB52:
 123              	.LBB53:
 124              	.LBB54:
 125              	.LBB55:
 126              		.loc 1 24 0
 127 001a 2378     		ldrb	r3, [r4]	@ zero_extendqisi2
 128              	.LBE55:
 129              	.LBE54:
 130              		.loc 1 44 0
 131 001c 019A     		ldr	r2, [sp, #4]
 132              	.LBB59:
 133              	.LBB56:
 134              		.loc 1 24 0
 135 001e 682B     		cmp	r3, #104
 136              	.LBE56:
 137              	.LBE59:
 138              		.loc 1 44 0
 139 0020 2B68     		ldr	r3, [r5]
 140              	.LBB60:
 141              	.LBB57:
 142              		.loc 1 25 0
 143 0022 0CBF     		ite	eq
 144 0024 6920     		moveq	r0, #105
 145              	.LVL6:
 146              		.loc 1 27 0
 147 0026 6820     		movne	r0, #104
 148              	.LBE57:
 149              	.LBE60:
 150              		.loc 1 44 0
 151 0028 9A42     		cmp	r2, r3
 152              	.LBB61:
 153              	.LBB58:
 154              		.loc 1 27 0
 155 002a 2070     		strb	r0, [r4]
 156              	.LBE58:
 157              	.LBE61:
 158              		.loc 1 44 0
 159 002c 0CD1     		bne	.L17
 160 002e 3246     		mov	r2, r6
 161 0030 7521     		movs	r1, #117
 162              	.LBE53:
 163              	.LBE52:
 164              		.loc 1 49 0
 165 0032 02B0     		add	sp, sp, #8
 166              		.cfi_remember_state
 167              		.cfi_def_cfa_offset 16
 168              		@ sp needed
 169 0034 BDE87040 		pop	{r4, r5, r6, lr}
 170              		.cfi_restore 14
 171              		.cfi_restore 6
ARM GAS  /var/folders/qd/4mxf5pkd0zdf0b9dd1hp39180000gn/T//cc5H6xqh.s 			page 4


 172              		.cfi_restore 5
 173              		.cfi_restore 4
 174              		.cfi_def_cfa_offset 0
 175              	.LVL7:
 176              	.LBB63:
 177              	.LBB62:
 178              		.loc 1 44 0
 179 0038 FFF7FEBF 		b	read_reg
 180              	.LVL8:
 181              	.L11:
 182              		.cfi_restore_state
 183              	.LBE62:
 184              	.LBE63:
 185              		.loc 1 49 0
 186 003c 019A     		ldr	r2, [sp, #4]
 187 003e 2B68     		ldr	r3, [r5]
 188 0040 9A42     		cmp	r2, r3
 189 0042 01D1     		bne	.L17
 190 0044 02B0     		add	sp, sp, #8
 191              		.cfi_remember_state
 192              		.cfi_def_cfa_offset 16
 193              		@ sp needed
 194 0046 70BD     		pop	{r4, r5, r6, pc}
 195              	.LVL9:
 196              	.L17:
 197              		.cfi_restore_state
 198 0048 FFF7FEFF 		bl	__stack_chk_fail
 199              	.LVL10:
 200              	.L19:
 201              		.align	2
 202              	.L18:
 203 004c 00000000 		.word	__stack_chk_guard
 204 0050 00000000 		.word	.LANCHOR0
 205              		.cfi_endproc
 206              	.LFE257:
 207              		.size	mpu9250_read_id, .-mpu9250_read_id
 208              		.section	.text.mpu9250_setup,"ax",%progbits
 209              		.align	1
 210              		.p2align 4,,15
 211              		.global	mpu9250_setup
 212              		.syntax unified
 213              		.thumb
 214              		.thumb_func
 215              		.fpu fpv4-sp-d16
 216              		.type	mpu9250_setup, %function
 217              	mpu9250_setup:
 218              	.LFB259:
 219              		.loc 1 68 0
 220              		.cfi_startproc
 221              		@ args = 0, pretend = 0, frame = 8
 222              		@ frame_needed = 0, uses_anonymous_args = 0
 223              	.LVL11:
 224 0000 F0B5     		push	{r4, r5, r6, r7, lr}
 225              		.cfi_def_cfa_offset 20
 226              		.cfi_offset 4, -20
 227              		.cfi_offset 5, -16
 228              		.cfi_offset 6, -12
ARM GAS  /var/folders/qd/4mxf5pkd0zdf0b9dd1hp39180000gn/T//cc5H6xqh.s 			page 5


 229              		.cfi_offset 7, -8
 230              		.cfi_offset 14, -4
 231 0002 504D     		ldr	r5, .L56
 232              		.loc 1 75 0
 233 0004 504C     		ldr	r4, .L56+4
 234              		.loc 1 68 0
 235 0006 2B68     		ldr	r3, [r5]
 236 0008 83B0     		sub	sp, sp, #12
 237              		.cfi_def_cfa_offset 32
 238              		.loc 1 68 0
 239 000a 0746     		mov	r7, r0
 240 000c 0193     		str	r3, [sp, #4]
 241              	.LVL12:
 242              		.loc 1 75 0
 243 000e 2078     		ldrb	r0, [r4]	@ zero_extendqisi2
 244              	.LVL13:
 245              		.loc 1 70 0
 246 0010 0023     		movs	r3, #0
 247              		.loc 1 75 0
 248 0012 8022     		movs	r2, #128
 249 0014 6B21     		movs	r1, #107
 250              		.loc 1 70 0
 251 0016 8DF80330 		strb	r3, [sp, #3]
 252              		.loc 1 75 0
 253 001a FFF7FEFF 		bl	write_reg
 254              	.LVL14:
 255 001e 58B1     		cbz	r0, .L26
 256              	.LBB64:
 257              	.LBB65:
 258              		.loc 1 24 0
 259 0020 2378     		ldrb	r3, [r4]	@ zero_extendqisi2
 260 0022 682B     		cmp	r3, #104
 261              		.loc 1 25 0
 262 0024 0CBF     		ite	eq
 263 0026 6920     		moveq	r0, #105
 264              	.LVL15:
 265              		.loc 1 27 0
 266 0028 6820     		movne	r0, #104
 267              	.LBE65:
 268              	.LBE64:
 269              		.loc 1 77 0
 270 002a 8022     		movs	r2, #128
 271 002c 6B21     		movs	r1, #107
 272              	.LBB67:
 273              	.LBB66:
 274              		.loc 1 27 0
 275 002e 2070     		strb	r0, [r4]
 276              	.LBE66:
 277              	.LBE67:
 278              		.loc 1 77 0
 279 0030 FFF7FEFF 		bl	write_reg
 280              	.LVL16:
 281 0034 0028     		cmp	r0, #0
 282 0036 7CD1     		bne	.L25
 283              	.L26:
 284              		.loc 1 81 0
 285 0038 0120     		movs	r0, #1
ARM GAS  /var/folders/qd/4mxf5pkd0zdf0b9dd1hp39180000gn/T//cc5H6xqh.s 			page 6


 286              	.LVL17:
 287 003a FFF7FEFF 		bl	chThdSleep
 288              	.LVL18:
 289              	.LBB68:
 290              	.LBB69:
 291              		.loc 1 27 0
 292 003e 6826     		movs	r6, #104
 293 0040 02E0     		b	.L22
 294              	.LVL19:
 295              	.L53:
 296              	.LBE69:
 297              	.LBE68:
 298              		.loc 1 92 0
 299 0042 0120     		movs	r0, #1
 300              	.LVL20:
 301 0044 FFF7FEFF 		bl	chThdSleep
 302              	.LVL21:
 303              	.L22:
 304              		.loc 1 83 0
 305 0048 0DF10302 		add	r2, sp, #3
 306 004c 6B21     		movs	r1, #107
 307 004e 2078     		ldrb	r0, [r4]	@ zero_extendqisi2
 308 0050 FFF7FEFF 		bl	read_reg
 309              	.LVL22:
 310 0054 78B1     		cbz	r0, .L32
 311              	.LBB72:
 312              	.LBB70:
 313              		.loc 1 24 0
 314 0056 2378     		ldrb	r3, [r4]	@ zero_extendqisi2
 315 0058 682B     		cmp	r3, #104
 316              		.loc 1 25 0
 317 005a 0CBF     		ite	eq
 318 005c 6920     		moveq	r0, #105
 319              	.LVL23:
 320              		.loc 1 27 0
 321 005e 6820     		movne	r0, #104
 322              	.LBE70:
 323              	.LBE72:
 324              		.loc 1 85 0
 325 0060 0DF10302 		add	r2, sp, #3
 326 0064 4FF06B01 		mov	r1, #107
 327              	.LBB73:
 328              	.LBB71:
 329              		.loc 1 25 0
 330 0068 0CBF     		ite	eq
 331 006a 2070     		strbeq	r0, [r4]
 332              		.loc 1 27 0
 333 006c 2670     		strbne	r6, [r4]
 334              	.LBE71:
 335              	.LBE73:
 336              		.loc 1 85 0
 337 006e FFF7FEFF 		bl	read_reg
 338              	.LVL24:
 339 0072 0028     		cmp	r0, #0
 340 0074 5DD1     		bne	.L25
 341              	.L32:
 342              		.loc 1 89 0
ARM GAS  /var/folders/qd/4mxf5pkd0zdf0b9dd1hp39180000gn/T//cc5H6xqh.s 			page 7


 343 0076 9DF90330 		ldrsb	r3, [sp, #3]
 344 007a 002B     		cmp	r3, #0
 345 007c E1DB     		blt	.L53
 346              		.loc 1 96 0
 347 007e 7E00     		lsls	r6, r7, #1
 348 0080 06F01806 		and	r6, r6, #24
 349 0084 3246     		mov	r2, r6
 350 0086 1B21     		movs	r1, #27
 351 0088 2078     		ldrb	r0, [r4]	@ zero_extendqisi2
 352              	.LVL25:
 353 008a FFF7FEFF 		bl	write_reg
 354              	.LVL26:
 355 008e 58B1     		cbz	r0, .L38
 356              	.LBB74:
 357              	.LBB75:
 358              		.loc 1 24 0
 359 0090 2378     		ldrb	r3, [r4]	@ zero_extendqisi2
 360 0092 682B     		cmp	r3, #104
 361              		.loc 1 25 0
 362 0094 0CBF     		ite	eq
 363 0096 6920     		moveq	r0, #105
 364              	.LVL27:
 365              		.loc 1 27 0
 366 0098 6820     		movne	r0, #104
 367              	.LBE75:
 368              	.LBE74:
 369              		.loc 1 98 0
 370 009a 3246     		mov	r2, r6
 371 009c 1B21     		movs	r1, #27
 372              	.LBB77:
 373              	.LBB76:
 374              		.loc 1 27 0
 375 009e 2070     		strb	r0, [r4]
 376              	.LBE76:
 377              	.LBE77:
 378              		.loc 1 98 0
 379 00a0 FFF7FEFF 		bl	write_reg
 380              	.LVL28:
 381 00a4 0028     		cmp	r0, #0
 382 00a6 44D1     		bne	.L25
 383              	.L38:
 384              		.loc 1 105 0
 385 00a8 FE00     		lsls	r6, r7, #3
 386              		.loc 1 102 0
 387 00aa 0120     		movs	r0, #1
 388              	.LVL29:
 389              		.loc 1 105 0
 390 00ac 06F01806 		and	r6, r6, #24
 391              		.loc 1 102 0
 392 00b0 FFF7FEFF 		bl	chThdSleep
 393              	.LVL30:
 394              		.loc 1 105 0
 395 00b4 3246     		mov	r2, r6
 396 00b6 1C21     		movs	r1, #28
 397 00b8 2078     		ldrb	r0, [r4]	@ zero_extendqisi2
 398 00ba FFF7FEFF 		bl	write_reg
 399              	.LVL31:
ARM GAS  /var/folders/qd/4mxf5pkd0zdf0b9dd1hp39180000gn/T//cc5H6xqh.s 			page 8


 400 00be 50B1     		cbz	r0, .L35
 401              	.LBB78:
 402              	.LBB79:
 403              		.loc 1 24 0
 404 00c0 2378     		ldrb	r3, [r4]	@ zero_extendqisi2
 405 00c2 682B     		cmp	r3, #104
 406              		.loc 1 25 0
 407 00c4 0CBF     		ite	eq
 408 00c6 6920     		moveq	r0, #105
 409              	.LVL32:
 410              		.loc 1 27 0
 411 00c8 6820     		movne	r0, #104
 412              	.LBE79:
 413              	.LBE78:
 414              		.loc 1 107 0
 415 00ca 3246     		mov	r2, r6
 416 00cc 1C21     		movs	r1, #28
 417              	.LBB81:
 418              	.LBB80:
 419              		.loc 1 27 0
 420 00ce 2070     		strb	r0, [r4]
 421              	.LBE80:
 422              	.LBE81:
 423              		.loc 1 107 0
 424 00d0 FFF7FEFF 		bl	write_reg
 425              	.LVL33:
 426 00d4 68BB     		cbnz	r0, .L25
 427              	.L35:
 428              		.loc 1 111 0
 429 00d6 0120     		movs	r0, #1
 430              	.LVL34:
 431              		.loc 1 114 0
 432 00d8 C7F30727 		ubfx	r7, r7, #8, #8
 433              	.LVL35:
 434              		.loc 1 111 0
 435 00dc FFF7FEFF 		bl	chThdSleep
 436              	.LVL36:
 437              		.loc 1 114 0
 438 00e0 3A46     		mov	r2, r7
 439 00e2 1921     		movs	r1, #25
 440 00e4 2078     		ldrb	r0, [r4]	@ zero_extendqisi2
 441 00e6 FFF7FEFF 		bl	write_reg
 442              	.LVL37:
 443 00ea 50B1     		cbz	r0, .L40
 444              	.LBB82:
 445              	.LBB83:
 446              		.loc 1 24 0
 447 00ec 2378     		ldrb	r3, [r4]	@ zero_extendqisi2
 448 00ee 682B     		cmp	r3, #104
 449              		.loc 1 25 0
 450 00f0 0CBF     		ite	eq
 451 00f2 6920     		moveq	r0, #105
 452              	.LVL38:
 453              		.loc 1 27 0
 454 00f4 6820     		movne	r0, #104
 455              	.LBE83:
 456              	.LBE82:
ARM GAS  /var/folders/qd/4mxf5pkd0zdf0b9dd1hp39180000gn/T//cc5H6xqh.s 			page 9


 457              		.loc 1 116 0
 458 00f6 3A46     		mov	r2, r7
 459 00f8 1921     		movs	r1, #25
 460              	.LBB85:
 461              	.LBB84:
 462              		.loc 1 27 0
 463 00fa 2070     		strb	r0, [r4]
 464              	.LBE84:
 465              	.LBE85:
 466              		.loc 1 116 0
 467 00fc FFF7FEFF 		bl	write_reg
 468              	.LVL39:
 469 0100 B8B9     		cbnz	r0, .L25
 470              	.L40:
 471              		.loc 1 120 0
 472 0102 0120     		movs	r0, #1
 473              	.LVL40:
 474 0104 FFF7FEFF 		bl	chThdSleep
 475              	.LVL41:
 476              		.loc 1 123 0
 477 0108 0122     		movs	r2, #1
 478 010a 3821     		movs	r1, #56
 479 010c 2078     		ldrb	r0, [r4]	@ zero_extendqisi2
 480 010e FFF7FEFF 		bl	write_reg
 481              	.LVL42:
 482 0112 50B1     		cbz	r0, .L44
 483              	.LBB86:
 484              	.LBB87:
 485              		.loc 1 24 0
 486 0114 2378     		ldrb	r3, [r4]	@ zero_extendqisi2
 487 0116 682B     		cmp	r3, #104
 488              		.loc 1 25 0
 489 0118 0CBF     		ite	eq
 490 011a 6920     		moveq	r0, #105
 491              	.LVL43:
 492              		.loc 1 27 0
 493 011c 6820     		movne	r0, #104
 494              	.LBE87:
 495              	.LBE86:
 496              		.loc 1 125 0
 497 011e 0122     		movs	r2, #1
 498 0120 3821     		movs	r1, #56
 499              	.LBB89:
 500              	.LBB88:
 501              		.loc 1 27 0
 502 0122 2070     		strb	r0, [r4]
 503              	.LBE88:
 504              	.LBE89:
 505              		.loc 1 125 0
 506 0124 FFF7FEFF 		bl	write_reg
 507              	.LVL44:
 508 0128 18B9     		cbnz	r0, .L25
 509              	.L44:
 510              	.LVL45:
 511              		.loc 1 129 0
 512 012a 0120     		movs	r0, #1
 513 012c FFF7FEFF 		bl	chThdSleep
ARM GAS  /var/folders/qd/4mxf5pkd0zdf0b9dd1hp39180000gn/T//cc5H6xqh.s 			page 10


 514              	.LVL46:
 515              		.loc 1 135 0
 516 0130 0020     		movs	r0, #0
 517              	.LVL47:
 518              	.L25:
 519              		.loc 1 137 0
 520 0132 019A     		ldr	r2, [sp, #4]
 521 0134 2B68     		ldr	r3, [r5]
 522 0136 9A42     		cmp	r2, r3
 523 0138 01D1     		bne	.L55
 524 013a 03B0     		add	sp, sp, #12
 525              		.cfi_remember_state
 526              		.cfi_def_cfa_offset 20
 527              		@ sp needed
 528 013c F0BD     		pop	{r4, r5, r6, r7, pc}
 529              	.L55:
 530              		.cfi_restore_state
 531 013e FFF7FEFF 		bl	__stack_chk_fail
 532              	.LVL48:
 533              	.L57:
 534 0142 00BF     		.align	2
 535              	.L56:
 536 0144 00000000 		.word	__stack_chk_guard
 537 0148 00000000 		.word	.LANCHOR0
 538              		.cfi_endproc
 539              	.LFE259:
 540              		.size	mpu9250_setup, .-mpu9250_setup
 541              		.section	.text.mpu9250_magnetometer_setup,"ax",%progbits
 542              		.align	1
 543              		.p2align 4,,15
 544              		.global	mpu9250_magnetometer_setup
 545              		.syntax unified
 546              		.thumb
 547              		.thumb_func
 548              		.fpu fpv4-sp-d16
 549              		.type	mpu9250_magnetometer_setup, %function
 550              	mpu9250_magnetometer_setup:
 551              	.LFB260:
 552              		.loc 1 139 0
 553              		.cfi_startproc
 554              		@ args = 0, pretend = 0, frame = 8
 555              		@ frame_needed = 0, uses_anonymous_args = 0
 556 0000 70B5     		push	{r4, r5, r6, lr}
 557              		.cfi_def_cfa_offset 16
 558              		.cfi_offset 4, -16
 559              		.cfi_offset 5, -12
 560              		.cfi_offset 6, -8
 561              		.cfi_offset 14, -4
 562 0002 514E     		ldr	r6, .L102
 563              		.loc 1 144 0
 564 0004 514C     		ldr	r4, .L102+4
 565              		.loc 1 139 0
 566 0006 3368     		ldr	r3, [r6]
 567              		.loc 1 144 0
 568 0008 2078     		ldrb	r0, [r4]	@ zero_extendqisi2
 569              		.loc 1 139 0
 570 000a 82B0     		sub	sp, sp, #8
ARM GAS  /var/folders/qd/4mxf5pkd0zdf0b9dd1hp39180000gn/T//cc5H6xqh.s 			page 11


 571              		.cfi_def_cfa_offset 24
 572              		.loc 1 144 0
 573 000c 0222     		movs	r2, #2
 574 000e 3721     		movs	r1, #55
 575              		.loc 1 139 0
 576 0010 0193     		str	r3, [sp, #4]
 577              	.LVL49:
 578              		.loc 1 144 0
 579 0012 FFF7FEFF 		bl	write_reg
 580              	.LVL50:
 581 0016 58B1     		cbz	r0, .L64
 582              	.LBB90:
 583              	.LBB91:
 584              		.loc 1 24 0
 585 0018 2378     		ldrb	r3, [r4]	@ zero_extendqisi2
 586 001a 682B     		cmp	r3, #104
 587              		.loc 1 25 0
 588 001c 0CBF     		ite	eq
 589 001e 6920     		moveq	r0, #105
 590              	.LVL51:
 591              		.loc 1 27 0
 592 0020 6820     		movne	r0, #104
 593              	.LBE91:
 594              	.LBE90:
 595              		.loc 1 146 0
 596 0022 0222     		movs	r2, #2
 597 0024 3721     		movs	r1, #55
 598              	.LBB93:
 599              	.LBB92:
 600              		.loc 1 27 0
 601 0026 2070     		strb	r0, [r4]
 602              	.LBE92:
 603              	.LBE93:
 604              		.loc 1 146 0
 605 0028 FFF7FEFF 		bl	write_reg
 606              	.LVL52:
 607 002c 0546     		mov	r5, r0
 608 002e 30B9     		cbnz	r0, .L60
 609              	.L64:
 610              		.loc 1 152 0
 611 0030 1222     		movs	r2, #18
 612 0032 0A21     		movs	r1, #10
 613 0034 0C20     		movs	r0, #12
 614              	.LVL53:
 615 0036 FFF7FEFF 		bl	write_reg
 616              	.LVL54:
 617 003a 0546     		mov	r5, r0
 618 003c 30B1     		cbz	r0, .L100
 619              	.LVL55:
 620              	.L60:
 621              		.loc 1 222 0
 622 003e 019A     		ldr	r2, [sp, #4]
 623 0040 3368     		ldr	r3, [r6]
 624 0042 9A42     		cmp	r2, r3
 625 0044 2846     		mov	r0, r5
 626 0046 7CD1     		bne	.L101
 627 0048 02B0     		add	sp, sp, #8
ARM GAS  /var/folders/qd/4mxf5pkd0zdf0b9dd1hp39180000gn/T//cc5H6xqh.s 			page 12


 628              		.cfi_remember_state
 629              		.cfi_def_cfa_offset 16
 630              		@ sp needed
 631 004a 70BD     		pop	{r4, r5, r6, pc}
 632              	.LVL56:
 633              	.L100:
 634              		.cfi_restore_state
 635              		.loc 1 158 0
 636 004c 0246     		mov	r2, r0
 637 004e 3721     		movs	r1, #55
 638 0050 2078     		ldrb	r0, [r4]	@ zero_extendqisi2
 639              	.LVL57:
 640 0052 FFF7FEFF 		bl	write_reg
 641              	.LVL58:
 642 0056 58B1     		cbz	r0, .L70
 643              	.LBB94:
 644              	.LBB95:
 645              		.loc 1 24 0
 646 0058 2378     		ldrb	r3, [r4]	@ zero_extendqisi2
 647 005a 682B     		cmp	r3, #104
 648              		.loc 1 25 0
 649 005c 0CBF     		ite	eq
 650 005e 6920     		moveq	r0, #105
 651              	.LVL59:
 652              		.loc 1 27 0
 653 0060 6820     		movne	r0, #104
 654              	.LBE95:
 655              	.LBE94:
 656              		.loc 1 160 0
 657 0062 0022     		movs	r2, #0
 658 0064 3721     		movs	r1, #55
 659              	.LBB97:
 660              	.LBB96:
 661              		.loc 1 27 0
 662 0066 2070     		strb	r0, [r4]
 663              	.LBE96:
 664              	.LBE97:
 665              		.loc 1 160 0
 666 0068 FFF7FEFF 		bl	write_reg
 667              	.LVL60:
 668 006c 0028     		cmp	r0, #0
 669 006e 66D1     		bne	.L94
 670              	.L70:
 671              		.loc 1 173 0
 672 0070 5D22     		movs	r2, #93
 673 0072 2421     		movs	r1, #36
 674 0074 2078     		ldrb	r0, [r4]	@ zero_extendqisi2
 675              	.LVL61:
 676 0076 FFF7FEFF 		bl	write_reg
 677              	.LVL62:
 678 007a 58B1     		cbz	r0, .L67
 679              	.LBB98:
 680              	.LBB99:
 681              		.loc 1 24 0
 682 007c 2378     		ldrb	r3, [r4]	@ zero_extendqisi2
 683 007e 682B     		cmp	r3, #104
 684              		.loc 1 25 0
ARM GAS  /var/folders/qd/4mxf5pkd0zdf0b9dd1hp39180000gn/T//cc5H6xqh.s 			page 13


 685 0080 0CBF     		ite	eq
 686 0082 6920     		moveq	r0, #105
 687              	.LVL63:
 688              		.loc 1 27 0
 689 0084 6820     		movne	r0, #104
 690              	.LBE99:
 691              	.LBE98:
 692              		.loc 1 175 0
 693 0086 5D22     		movs	r2, #93
 694 0088 2421     		movs	r1, #36
 695              	.LBB101:
 696              	.LBB100:
 697              		.loc 1 27 0
 698 008a 2070     		strb	r0, [r4]
 699              	.LBE100:
 700              	.LBE101:
 701              		.loc 1 175 0
 702 008c FFF7FEFF 		bl	write_reg
 703              	.LVL64:
 704 0090 0028     		cmp	r0, #0
 705 0092 54D1     		bne	.L94
 706              	.L67:
 707              		.loc 1 179 0
 708 0094 0120     		movs	r0, #1
 709              	.LVL65:
 710 0096 FFF7FEFF 		bl	chThdSleep
 711              	.LVL66:
 712              		.loc 1 182 0
 713 009a 2022     		movs	r2, #32
 714 009c 6A21     		movs	r1, #106
 715 009e 2078     		ldrb	r0, [r4]	@ zero_extendqisi2
 716 00a0 FFF7FEFF 		bl	write_reg
 717              	.LVL67:
 718 00a4 58B1     		cbz	r0, .L72
 719              	.LBB102:
 720              	.LBB103:
 721              		.loc 1 24 0
 722 00a6 2378     		ldrb	r3, [r4]	@ zero_extendqisi2
 723 00a8 682B     		cmp	r3, #104
 724              		.loc 1 25 0
 725 00aa 0CBF     		ite	eq
 726 00ac 6920     		moveq	r0, #105
 727              	.LVL68:
 728              		.loc 1 27 0
 729 00ae 6820     		movne	r0, #104
 730              	.LBE103:
 731              	.LBE102:
 732              		.loc 1 184 0
 733 00b0 2022     		movs	r2, #32
 734 00b2 6A21     		movs	r1, #106
 735              	.LBB105:
 736              	.LBB104:
 737              		.loc 1 27 0
 738 00b4 2070     		strb	r0, [r4]
 739              	.LBE104:
 740              	.LBE105:
 741              		.loc 1 184 0
ARM GAS  /var/folders/qd/4mxf5pkd0zdf0b9dd1hp39180000gn/T//cc5H6xqh.s 			page 14


 742 00b6 FFF7FEFF 		bl	write_reg
 743              	.LVL69:
 744 00ba 0028     		cmp	r0, #0
 745 00bc 3FD1     		bne	.L94
 746              	.L72:
 747              		.loc 1 188 0
 748 00be 0120     		movs	r0, #1
 749              	.LVL70:
 750 00c0 FFF7FEFF 		bl	chThdSleep
 751              	.LVL71:
 752              		.loc 1 191 0
 753 00c4 8C22     		movs	r2, #140
 754 00c6 2521     		movs	r1, #37
 755 00c8 2078     		ldrb	r0, [r4]	@ zero_extendqisi2
 756 00ca FFF7FEFF 		bl	write_reg
 757              	.LVL72:
 758 00ce 50B1     		cbz	r0, .L76
 759              	.LBB106:
 760              	.LBB107:
 761              		.loc 1 24 0
 762 00d0 2378     		ldrb	r3, [r4]	@ zero_extendqisi2
 763 00d2 682B     		cmp	r3, #104
 764              		.loc 1 25 0
 765 00d4 0CBF     		ite	eq
 766 00d6 6920     		moveq	r0, #105
 767              	.LVL73:
 768              		.loc 1 27 0
 769 00d8 6820     		movne	r0, #104
 770              	.LBE107:
 771              	.LBE106:
 772              		.loc 1 193 0
 773 00da 8C22     		movs	r2, #140
 774 00dc 2521     		movs	r1, #37
 775              	.LBB109:
 776              	.LBB108:
 777              		.loc 1 27 0
 778 00de 2070     		strb	r0, [r4]
 779              	.LBE108:
 780              	.LBE109:
 781              		.loc 1 193 0
 782 00e0 FFF7FEFF 		bl	write_reg
 783              	.LVL74:
 784 00e4 58BB     		cbnz	r0, .L94
 785              	.L76:
 786              		.loc 1 197 0
 787 00e6 0120     		movs	r0, #1
 788              	.LVL75:
 789 00e8 FFF7FEFF 		bl	chThdSleep
 790              	.LVL76:
 791              		.loc 1 200 0
 792 00ec 0322     		movs	r2, #3
 793 00ee 2621     		movs	r1, #38
 794 00f0 2078     		ldrb	r0, [r4]	@ zero_extendqisi2
 795 00f2 FFF7FEFF 		bl	write_reg
 796              	.LVL77:
 797 00f6 50B1     		cbz	r0, .L80
 798              	.LBB110:
ARM GAS  /var/folders/qd/4mxf5pkd0zdf0b9dd1hp39180000gn/T//cc5H6xqh.s 			page 15


 799              	.LBB111:
 800              		.loc 1 24 0
 801 00f8 2378     		ldrb	r3, [r4]	@ zero_extendqisi2
 802 00fa 682B     		cmp	r3, #104
 803              		.loc 1 25 0
 804 00fc 0CBF     		ite	eq
 805 00fe 6920     		moveq	r0, #105
 806              	.LVL78:
 807              		.loc 1 27 0
 808 0100 6820     		movne	r0, #104
 809              	.LBE111:
 810              	.LBE110:
 811              		.loc 1 202 0
 812 0102 0322     		movs	r2, #3
 813 0104 2621     		movs	r1, #38
 814              	.LBB113:
 815              	.LBB112:
 816              		.loc 1 27 0
 817 0106 2070     		strb	r0, [r4]
 818              	.LBE112:
 819              	.LBE113:
 820              		.loc 1 202 0
 821 0108 FFF7FEFF 		bl	write_reg
 822              	.LVL79:
 823 010c B8B9     		cbnz	r0, .L94
 824              	.L80:
 825              		.loc 1 206 0
 826 010e 0120     		movs	r0, #1
 827              	.LVL80:
 828 0110 FFF7FEFF 		bl	chThdSleep
 829              	.LVL81:
 830              		.loc 1 213 0
 831 0114 8722     		movs	r2, #135
 832 0116 2721     		movs	r1, #39
 833 0118 2078     		ldrb	r0, [r4]	@ zero_extendqisi2
 834 011a FFF7FEFF 		bl	write_reg
 835              	.LVL82:
 836 011e 50B1     		cbz	r0, .L84
 837              	.LBB114:
 838              	.LBB115:
 839              		.loc 1 24 0
 840 0120 2378     		ldrb	r3, [r4]	@ zero_extendqisi2
 841 0122 682B     		cmp	r3, #104
 842              		.loc 1 25 0
 843 0124 0CBF     		ite	eq
 844 0126 6920     		moveq	r0, #105
 845              	.LVL83:
 846              		.loc 1 27 0
 847 0128 6820     		movne	r0, #104
 848              	.LBE115:
 849              	.LBE114:
 850              		.loc 1 215 0
 851 012a 8722     		movs	r2, #135
 852 012c 2721     		movs	r1, #39
 853              	.LBB117:
 854              	.LBB116:
 855              		.loc 1 27 0
ARM GAS  /var/folders/qd/4mxf5pkd0zdf0b9dd1hp39180000gn/T//cc5H6xqh.s 			page 16


 856 012e 2070     		strb	r0, [r4]
 857              	.LBE116:
 858              	.LBE117:
 859              		.loc 1 215 0
 860 0130 FFF7FEFF 		bl	write_reg
 861              	.LVL84:
 862 0134 18B9     		cbnz	r0, .L94
 863              	.L84:
 864              	.LVL85:
 865              		.loc 1 219 0
 866 0136 0120     		movs	r0, #1
 867 0138 FFF7FEFF 		bl	chThdSleep
 868              	.LVL86:
 869              		.loc 1 221 0
 870 013c 7FE7     		b	.L60
 871              	.LVL87:
 872              	.L94:
 873 013e 0546     		mov	r5, r0
 874 0140 7DE7     		b	.L60
 875              	.LVL88:
 876              	.L101:
 877              		.loc 1 222 0
 878 0142 FFF7FEFF 		bl	__stack_chk_fail
 879              	.LVL89:
 880              	.L103:
 881 0146 00BF     		.align	2
 882              	.L102:
 883 0148 00000000 		.word	__stack_chk_guard
 884 014c 00000000 		.word	.LANCHOR0
 885              		.cfi_endproc
 886              	.LFE260:
 887              		.size	mpu9250_magnetometer_setup, .-mpu9250_magnetometer_setup
 888              		.section	.text.mpu9250_ping,"ax",%progbits
 889              		.align	1
 890              		.p2align 4,,15
 891              		.global	mpu9250_ping
 892              		.syntax unified
 893              		.thumb
 894              		.thumb_func
 895              		.fpu fpv4-sp-d16
 896              		.type	mpu9250_ping, %function
 897              	mpu9250_ping:
 898              	.LFB261:
 899              		.loc 1 224 0
 900              		.cfi_startproc
 901              		@ args = 0, pretend = 0, frame = 8
 902              		@ frame_needed = 0, uses_anonymous_args = 0
 903 0000 10B5     		push	{r4, lr}
 904              		.cfi_def_cfa_offset 8
 905              		.cfi_offset 4, -8
 906              		.cfi_offset 14, -4
 907 0002 82B0     		sub	sp, sp, #8
 908              		.cfi_def_cfa_offset 16
 909              		.loc 1 225 0
 910 0004 02A8     		add	r0, sp, #8
 911              		.loc 1 224 0
 912 0006 0C4C     		ldr	r4, .L108
ARM GAS  /var/folders/qd/4mxf5pkd0zdf0b9dd1hp39180000gn/T//cc5H6xqh.s 			page 17


 913              		.loc 1 225 0
 914 0008 0023     		movs	r3, #0
 915 000a 00F8053D 		strb	r3, [r0, #-5]!
 916              		.loc 1 224 0
 917 000e 2368     		ldr	r3, [r4]
 918 0010 0193     		str	r3, [sp, #4]
 919              		.loc 1 226 0
 920 0012 FFF7FEFF 		bl	mpu9250_read_id
 921              	.LVL90:
 922              		.loc 1 227 0
 923 0016 9DF80300 		ldrb	r0, [sp, #3]	@ zero_extendqisi2
 924              		.loc 1 228 0
 925 001a 019A     		ldr	r2, [sp, #4]
 926 001c 2368     		ldr	r3, [r4]
 927 001e A0F16800 		sub	r0, #104
 928 0022 B0FA80F0 		clz	r0, r0
 929 0026 9A42     		cmp	r2, r3
 930 0028 4FEA5010 		lsr	r0, r0, #5
 931 002c 01D1     		bne	.L107
 932 002e 02B0     		add	sp, sp, #8
 933              		.cfi_remember_state
 934              		.cfi_def_cfa_offset 8
 935              		@ sp needed
 936 0030 10BD     		pop	{r4, pc}
 937              	.L107:
 938              		.cfi_restore_state
 939 0032 FFF7FEFF 		bl	__stack_chk_fail
 940              	.LVL91:
 941              	.L109:
 942 0036 00BF     		.align	2
 943              	.L108:
 944 0038 00000000 		.word	__stack_chk_guard
 945              		.cfi_endproc
 946              	.LFE261:
 947              		.size	mpu9250_ping, .-mpu9250_ping
 948              		.section	.text.mpu9250_read,"ax",%progbits
 949              		.align	1
 950              		.p2align 4,,15
 951              		.global	mpu9250_read
 952              		.syntax unified
 953              		.thumb
 954              		.thumb_func
 955              		.fpu fpv4-sp-d16
 956              		.type	mpu9250_read, %function
 957              	mpu9250_read:
 958              	.LFB262:
 959              		.loc 1 230 0
 960              		.cfi_startproc
 961              		@ args = 20, pretend = 0, frame = 48
 962              		@ frame_needed = 0, uses_anonymous_args = 0
 963              	.LVL92:
 964 0000 2DE9F04F 		push	{r4, r5, r6, r7, r8, r9, r10, fp, lr}
 965              		.cfi_def_cfa_offset 36
 966              		.cfi_offset 4, -36
 967              		.cfi_offset 5, -32
 968              		.cfi_offset 6, -28
 969              		.cfi_offset 7, -24
ARM GAS  /var/folders/qd/4mxf5pkd0zdf0b9dd1hp39180000gn/T//cc5H6xqh.s 			page 18


 970              		.cfi_offset 8, -20
 971              		.cfi_offset 9, -16
 972              		.cfi_offset 10, -12
 973              		.cfi_offset 11, -8
 974              		.cfi_offset 14, -4
 975 0004 8DB0     		sub	sp, sp, #52
 976              		.cfi_def_cfa_offset 88
 977              		.loc 1 230 0
 978 0006 1E46     		mov	r6, r3
 979 0008 DDE918B3 		ldrd	fp, r3, [sp, #96]
 980              	.LVL93:
 981 000c DFF82C92 		ldr	r9, .L134+24
 982              		.loc 1 234 0
 983 0010 DFF82CA2 		ldr	r10, .L134+28
 984              		.loc 1 230 0
 985 0014 0393     		str	r3, [sp, #12]
 986 0016 1A9B     		ldr	r3, [sp, #104]
 987 0018 D9F80040 		ldr	r4, [r9]
 988 001c 0292     		str	r2, [sp, #8]
 989 001e 0746     		mov	r7, r0
 990 0020 8846     		mov	r8, r1
 991 0022 0193     		str	r3, [sp, #4]
 992              		.loc 1 234 0
 993 0024 9AF80000 		ldrb	r0, [r10]	@ zero_extendqisi2
 994              	.LVL94:
 995              		.loc 1 230 0
 996 0028 0B94     		str	r4, [sp, #44]
 997              	.LVL95:
 998              		.loc 1 234 0
 999 002a 05AA     		add	r2, sp, #20
 1000              	.LVL96:
 1001 002c 1623     		movs	r3, #22
 1002 002e 3A21     		movs	r1, #58
 1003              	.LVL97:
 1004              		.loc 1 230 0
 1005 0030 DDE91645 		ldrd	r4, r5, [sp, #88]
 1006              		.loc 1 234 0
 1007 0034 FFF7FEFF 		bl	read_reg_multi
 1008              	.LVL98:
 1009 0038 78B1     		cbz	r0, .L117
 1010              	.LBB118:
 1011              	.LBB119:
 1012              		.loc 1 24 0
 1013 003a 9AF80030 		ldrb	r3, [r10]	@ zero_extendqisi2
 1014 003e 682B     		cmp	r3, #104
 1015              		.loc 1 25 0
 1016 0040 0CBF     		ite	eq
 1017 0042 6920     		moveq	r0, #105
 1018              	.LVL99:
 1019              		.loc 1 27 0
 1020 0044 6820     		movne	r0, #104
 1021              	.LBE119:
 1022              	.LBE118:
 1023              		.loc 1 236 0
 1024 0046 05AA     		add	r2, sp, #20
 1025 0048 1623     		movs	r3, #22
 1026 004a 3A21     		movs	r1, #58
ARM GAS  /var/folders/qd/4mxf5pkd0zdf0b9dd1hp39180000gn/T//cc5H6xqh.s 			page 19


 1027              	.LBB121:
 1028              	.LBB120:
 1029              		.loc 1 27 0
 1030 004c 8AF80000 		strb	r0, [r10]
 1031              	.LBE120:
 1032              	.LBE121:
 1033              		.loc 1 236 0
 1034 0050 FFF7FEFF 		bl	read_reg_multi
 1035              	.LVL100:
 1036 0054 0028     		cmp	r0, #0
 1037 0056 40F0D980 		bne	.L116
 1038              	.L117:
 1039              		.loc 1 241 0
 1040 005a 019B     		ldr	r3, [sp, #4]
 1041 005c 1BB1     		cbz	r3, .L113
 1042              		.loc 1 242 0
 1043 005e 019A     		ldr	r2, [sp, #4]
 1044 0060 9DF81430 		ldrb	r3, [sp, #20]	@ zero_extendqisi2
 1045 0064 1370     		strb	r3, [r2]
 1046              	.L113:
 1047              		.loc 1 244 0
 1048 0066 B8F1000F 		cmp	r8, #0
 1049 006a 4CD0     		beq	.L118
 1050              	.LBB122:
 1051              	.LBB123:
 1052              		.loc 1 60 0
 1053 006c 9DF91720 		ldrsb	r2, [sp, #23]
 1054 0070 9DF81810 		ldrb	r1, [sp, #24]	@ zero_extendqisi2
 1055              	.LBE123:
 1056              	.LBE122:
 1057              	.LBB125:
 1058              	.LBB126:
 1059 0074 9DF915C0 		ldrsb	ip, [sp, #21]
 1060 0078 9DF81630 		ldrb	r3, [sp, #22]	@ zero_extendqisi2
 1061              	.LBE126:
 1062              	.LBE125:
 1063              	.LBB128:
 1064              	.LBB129:
 1065 007c 9DF91900 		ldrsb	r0, [sp, #25]
 1066              	.LVL101:
 1067              	.LBE129:
 1068              	.LBE128:
 1069              		.loc 1 249 0
 1070 0080 9FED686A 		vldr.32	s12, .L134
 1071 0084 DFED686A 		vldr.32	s13, .L134+4
 1072              		.loc 1 253 0
 1073 0088 DFED685A 		vldr.32	s11, .L134+8
 1074              	.LBB132:
 1075              	.LBB124:
 1076              		.loc 1 60 0
 1077 008c 41EA0221 		orr	r1, r1, r2, lsl #8
 1078              	.LBE124:
 1079              	.LBE132:
 1080              	.LBB133:
 1081              	.LBB130:
 1082 0090 9DF81A20 		ldrb	r2, [sp, #26]	@ zero_extendqisi2
 1083              	.LBE130:
ARM GAS  /var/folders/qd/4mxf5pkd0zdf0b9dd1hp39180000gn/T//cc5H6xqh.s 			page 20


 1084              	.LBE133:
 1085              	.LBB134:
 1086              	.LBB127:
 1087 0094 43EA0C23 		orr	r3, r3, ip, lsl #8
 1088              	.LBE127:
 1089              	.LBE134:
 1090              		.loc 1 247 0
 1091 0098 4942     		negs	r1, r1
 1092              		.loc 1 246 0
 1093 009a 5B42     		negs	r3, r3
 1094              	.LBB135:
 1095              	.LBB131:
 1096              		.loc 1 60 0
 1097 009c 42EA0022 		orr	r2, r2, r0, lsl #8
 1098              	.LBE131:
 1099              	.LBE135:
 1100              		.loc 1 247 0
 1101 00a0 6980     		strh	r1, [r5, #2]	@ movhi
 1102              		.loc 1 246 0
 1103 00a2 1BB2     		sxth	r3, r3
 1104              		.loc 1 249 0
 1105 00a4 0399     		ldr	r1, [sp, #12]
 1106              		.loc 1 246 0
 1107 00a6 2B80     		strh	r3, [r5]	@ movhi
 1108              		.loc 1 248 0
 1109 00a8 5242     		negs	r2, r2
 1110 00aa AA80     		strh	r2, [r5, #4]	@ movhi
 1111              		.loc 1 249 0
 1112 00ac B1F90020 		ldrsh	r2, [r1]
 1113 00b0 9B1A     		subs	r3, r3, r2
 1114 00b2 07EE903A 		vmov	s15, r3	@ int
 1115 00b6 F8EEE77A 		vcvt.f32.s32	s15, s15
 1116 00ba 67EE867A 		vmul.f32	s15, s15, s12
 1117 00be 67EEA67A 		vmul.f32	s15, s15, s13
 1118 00c2 C8ED007A 		vstr.32	s15, [r8]
 1119              		.loc 1 250 0
 1120 00c6 B1F90220 		ldrsh	r2, [r1, #2]
 1121 00ca B5F90230 		ldrsh	r3, [r5, #2]
 1122 00ce 9B1A     		subs	r3, r3, r2
 1123 00d0 07EE103A 		vmov	s14, r3	@ int
 1124 00d4 B8EEC77A 		vcvt.f32.s32	s14, s14
 1125 00d8 27EE067A 		vmul.f32	s14, s14, s12
 1126 00dc 27EE267A 		vmul.f32	s14, s14, s13
 1127 00e0 88ED017A 		vstr.32	s14, [r8, #4]
 1128              		.loc 1 253 0
 1129 00e4 B5F90430 		ldrsh	r3, [r5, #4]
 1130 00e8 B1F90420 		ldrsh	r2, [r1, #4]
 1131 00ec 9B1A     		subs	r3, r3, r2
 1132 00ee 07EE903A 		vmov	s15, r3	@ int
 1133 00f2 F8EEE77A 		vcvt.f32.s32	s15, s15
 1134 00f6 77EEE57A 		vsub.f32	s15, s15, s11
 1135 00fa 67EE867A 		vmul.f32	s15, s15, s12
 1136 00fe 67EEA67A 		vmul.f32	s15, s15, s13
 1137 0102 C8ED027A 		vstr.32	s15, [r8, #8]
 1138              	.L118:
 1139              		.loc 1 255 0
 1140 0106 0299     		ldr	r1, [sp, #8]
ARM GAS  /var/folders/qd/4mxf5pkd0zdf0b9dd1hp39180000gn/T//cc5H6xqh.s 			page 21


 1141 0108 A9B1     		cbz	r1, .L119
 1142              	.LBB136:
 1143              	.LBB137:
 1144              		.loc 1 60 0
 1145 010a 9DF91B20 		ldrsb	r2, [sp, #27]
 1146 010e 9DF81C30 		ldrb	r3, [sp, #28]	@ zero_extendqisi2
 1147              	.LBE137:
 1148              	.LBE136:
 1149              		.loc 1 256 0
 1150 0112 9FED476A 		vldr.32	s12, .L134+12
 1151              	.LBB139:
 1152              	.LBB138:
 1153              		.loc 1 60 0
 1154 0116 43EA0223 		orr	r3, r3, r2, lsl #8
 1155 011a 07EE903A 		vmov	s15, r3	@ int
 1156              	.LBE138:
 1157              	.LBE139:
 1158              		.loc 1 256 0
 1159 011e F8EEE77A 		vcvt.f32.s32	s15, s15
 1160 0122 F3EE056A 		vmov.f32	s13, #2.1e+1
 1161 0126 77EEE67A 		vsub.f32	s15, s15, s13
 1162 012a 87EE867A 		vdiv.f32	s14, s15, s12
 1163 012e 77EE267A 		vadd.f32	s15, s14, s13
 1164 0132 C1ED007A 		vstr.32	s15, [r1]
 1165              	.L119:
 1166              		.loc 1 258 0
 1167 0136 DFB3     		cbz	r7, .L120
 1168              	.LBB140:
 1169              	.LBB141:
 1170              		.loc 1 60 0
 1171 0138 9DF91DC0 		ldrsb	ip, [sp, #29]
 1172 013c 9DF81E30 		ldrb	r3, [sp, #30]	@ zero_extendqisi2
 1173              	.LBE141:
 1174              	.LBE140:
 1175              	.LBB142:
 1176              	.LBB143:
 1177 0140 9DF91F50 		ldrsb	r5, [sp, #31]
 1178 0144 9DF82010 		ldrb	r1, [sp, #32]	@ zero_extendqisi2
 1179              	.LBE143:
 1180              	.LBE142:
 1181              	.LBB145:
 1182              	.LBB146:
 1183 0148 9DF92100 		ldrsb	r0, [sp, #33]
 1184 014c 9DF82220 		ldrb	r2, [sp, #34]	@ zero_extendqisi2
 1185              	.LBE146:
 1186              	.LBE145:
 1187              		.loc 1 262 0
 1188 0150 DFED386A 		vldr.32	s13, .L134+16
 1189              		.loc 1 259 0
 1190 0154 43EA0C23 		orr	r3, r3, ip, lsl #8
 1191              	.LBB148:
 1192              	.LBB147:
 1193              		.loc 1 60 0
 1194 0158 42EA0022 		orr	r2, r2, r0, lsl #8
 1195              	.LBE147:
 1196              	.LBE148:
 1197              	.LBB149:
ARM GAS  /var/folders/qd/4mxf5pkd0zdf0b9dd1hp39180000gn/T//cc5H6xqh.s 			page 22


 1198              	.LBB144:
 1199 015c 41EA0521 		orr	r1, r1, r5, lsl #8
 1200              	.LBE144:
 1201              	.LBE149:
 1202              		.loc 1 259 0
 1203 0160 2380     		strh	r3, [r4]	@ movhi
 1204              		.loc 1 260 0
 1205 0162 6180     		strh	r1, [r4, #2]	@ movhi
 1206              		.loc 1 261 0
 1207 0164 A280     		strh	r2, [r4, #4]	@ movhi
 1208              		.loc 1 262 0
 1209 0166 BBF90020 		ldrsh	r2, [fp]
 1210 016a 9B1A     		subs	r3, r3, r2
 1211 016c 07EE903A 		vmov	s15, r3	@ int
 1212 0170 F8EEE77A 		vcvt.f32.s32	s15, s15
 1213 0174 67EEA67A 		vmul.f32	s15, s15, s13
 1214 0178 C7ED007A 		vstr.32	s15, [r7]
 1215              		.loc 1 263 0
 1216 017c BBF90220 		ldrsh	r2, [fp, #2]
 1217 0180 B4F90230 		ldrsh	r3, [r4, #2]
 1218 0184 9B1A     		subs	r3, r3, r2
 1219 0186 07EE103A 		vmov	s14, r3	@ int
 1220 018a B8EEC77A 		vcvt.f32.s32	s14, s14
 1221 018e 27EE267A 		vmul.f32	s14, s14, s13
 1222 0192 87ED017A 		vstr.32	s14, [r7, #4]
 1223              		.loc 1 264 0
 1224 0196 B4F90430 		ldrsh	r3, [r4, #4]
 1225 019a BBF90420 		ldrsh	r2, [fp, #4]
 1226 019e 9B1A     		subs	r3, r3, r2
 1227 01a0 07EE903A 		vmov	s15, r3	@ int
 1228 01a4 F8EEE77A 		vcvt.f32.s32	s15, s15
 1229 01a8 67EEA67A 		vmul.f32	s15, s15, s13
 1230 01ac C7ED027A 		vstr.32	s15, [r7, #8]
 1231              	.L120:
 1232              		.loc 1 267 0
 1233 01b0 A6B3     		cbz	r6, .L122
 1234              		.loc 1 270 0
 1235 01b2 9DF92800 		ldrsb	r0, [sp, #40]
 1236              		.loc 1 268 0
 1237 01b6 9DF92450 		ldrsb	r5, [sp, #36]
 1238 01ba 9DF82310 		ldrb	r1, [sp, #35]	@ zero_extendqisi2
 1239              		.loc 1 269 0
 1240 01be 9DF92640 		ldrsb	r4, [sp, #38]
 1241 01c2 9DF82520 		ldrb	r2, [sp, #37]	@ zero_extendqisi2
 1242              		.loc 1 270 0
 1243 01c6 9DF82730 		ldrb	r3, [sp, #39]	@ zero_extendqisi2
 1244              		.loc 1 268 0
 1245 01ca 9FED1B6A 		vldr.32	s12, .L134+20
 1246              		.loc 1 270 0
 1247 01ce 43EA0023 		orr	r3, r3, r0, lsl #8
 1248              		.loc 1 268 0
 1249 01d2 41EA0521 		orr	r1, r1, r5, lsl #8
 1250              		.loc 1 269 0
 1251 01d6 42EA0422 		orr	r2, r2, r4, lsl #8
 1252              		.loc 1 268 0
 1253 01da 06EE901A 		vmov	s13, r1	@ int
 1254              		.loc 1 269 0
ARM GAS  /var/folders/qd/4mxf5pkd0zdf0b9dd1hp39180000gn/T//cc5H6xqh.s 			page 23


 1255 01de 07EE102A 		vmov	s14, r2	@ int
 1256              		.loc 1 270 0
 1257 01e2 07EE903A 		vmov	s15, r3	@ int
 1258              		.loc 1 268 0
 1259 01e6 F8EEE66A 		vcvt.f32.s32	s13, s13
 1260              		.loc 1 269 0
 1261 01ea B8EEC77A 		vcvt.f32.s32	s14, s14
 1262              		.loc 1 270 0
 1263 01ee F8EEE77A 		vcvt.f32.s32	s15, s15
 1264              		.loc 1 268 0
 1265 01f2 66EE866A 		vmul.f32	s13, s13, s12
 1266              		.loc 1 269 0
 1267 01f6 27EE067A 		vmul.f32	s14, s14, s12
 1268              		.loc 1 270 0
 1269 01fa 67EE867A 		vmul.f32	s15, s15, s12
 1270              		.loc 1 268 0
 1271 01fe C6ED006A 		vstr.32	s13, [r6]
 1272              		.loc 1 269 0
 1273 0202 86ED017A 		vstr.32	s14, [r6, #4]
 1274              		.loc 1 270 0
 1275 0206 C6ED027A 		vstr.32	s15, [r6, #8]
 1276              		.loc 1 273 0
 1277 020a 0020     		movs	r0, #0
 1278              	.L116:
 1279              		.loc 1 274 0
 1280 020c 0B9A     		ldr	r2, [sp, #44]
 1281 020e D9F80030 		ldr	r3, [r9]
 1282 0212 9A42     		cmp	r2, r3
 1283 0214 04D1     		bne	.L133
 1284 0216 0DB0     		add	sp, sp, #52
 1285              		.cfi_remember_state
 1286              		.cfi_def_cfa_offset 36
 1287              		@ sp needed
 1288 0218 BDE8F08F 		pop	{r4, r5, r6, r7, r8, r9, r10, fp, pc}
 1289              	.LVL102:
 1290              	.L122:
 1291              		.cfi_restore_state
 1292              		.loc 1 273 0
 1293 021c 3046     		mov	r0, r6
 1294 021e F5E7     		b	.L116
 1295              	.L133:
 1296              		.loc 1 274 0
 1297 0220 FFF7FEFF 		bl	__stack_chk_fail
 1298              	.LVL103:
 1299              	.L135:
 1300              		.align	2
 1301              	.L134:
 1302 0224 0AE81C41 		.word	1092413450
 1303 0228 00008038 		.word	947912704
 1304 022c 00008046 		.word	1182793728
 1305 0230 5CEFA643 		.word	1135013724
 1306 0234 58A00B39 		.word	957063256
 1307 0238 0000163E 		.word	1041629184
 1308 023c 00000000 		.word	__stack_chk_guard
 1309 0240 00000000 		.word	.LANCHOR0
 1310              		.cfi_endproc
 1311              	.LFE262:
ARM GAS  /var/folders/qd/4mxf5pkd0zdf0b9dd1hp39180000gn/T//cc5H6xqh.s 			page 24


 1312              		.size	mpu9250_read, .-mpu9250_read
 1313              		.section	.data.imu_addr,"aw",%progbits
 1314              		.set	.LANCHOR0,. + 0
 1315              		.type	imu_addr, %object
 1316              		.size	imu_addr, 1
 1317              	imu_addr:
 1318 0000 68       		.byte	104
 1319              		.text
 1320              	.Letext0:
 1321              		.file 2 "/Applications/Eclipse_e-puck2.app/Contents/Eclipse_e-puck2/Tools/gcc-arm-none-eabi-7-2017
 1322              		.file 3 "/Applications/Eclipse_e-puck2.app/Contents/Eclipse_e-puck2/Tools/gcc-arm-none-eabi-7-2017
 1323              		.file 4 "/Applications/Eclipse_e-puck2.app/Contents/Eclipse_e-puck2/Tools/gcc-arm-none-eabi-7-2017
 1324              		.file 5 "/Applications/Eclipse_e-puck2.app/Contents/Eclipse_e-puck2/Tools/gcc-arm-none-eabi-7-2017
 1325              		.file 6 "/Applications/Eclipse_e-puck2.app/Contents/Eclipse_e-puck2/Tools/gcc-arm-none-eabi-7-2017
 1326              		.file 7 "/Applications/Eclipse_e-puck2.app/Contents/Eclipse_e-puck2/Tools/gcc-arm-none-eabi-7-2017
 1327              		.file 8 "/Applications/Eclipse_e-puck2.app/Contents/Eclipse_e-puck2/Tools/gcc-arm-none-eabi-7-2017
 1328              		.file 9 "lib/e-puck2_main-processor/ChibiOS//os/rt/ports/ARMCMx/compilers/GCC/chtypes.h"
 1329              		.file 10 "lib/e-puck2_main-processor/ChibiOS//os/rt/include/chsystypes.h"
 1330              		.file 11 "lib/e-puck2_main-processor/ChibiOS//os/rt/include/chschd.h"
 1331              		.file 12 "lib/e-puck2_main-processor/ChibiOS//os/ext/CMSIS/include/core_cm4.h"
 1332              		.file 13 "lib/e-puck2_main-processor/ChibiOS//os/ext/CMSIS/ST/system_stm32f4xx.h"
 1333              		.file 14 "lib/e-puck2_main-processor/ChibiOS//os/ext/CMSIS/ST/stm32f407xx.h"
 1334              		.file 15 "lib/e-puck2_main-processor/ChibiOS//os/rt/ports/ARMCMx/chcore.h"
 1335              		.file 16 "lib/e-puck2_main-processor/ChibiOS//os/rt/ports/ARMCMx/chcore_v7m.h"
 1336              		.file 17 "lib/e-puck2_main-processor/ChibiOS//os/rt/include/chdebug.h"
 1337              		.file 18 "lib/e-puck2_main-processor/ChibiOS//os/rt/include/chtm.h"
 1338              		.file 19 "lib/e-puck2_main-processor/ChibiOS//os/rt/include/chstats.h"
 1339              		.file 20 "lib/e-puck2_main-processor/ChibiOS//os/rt/include/chsem.h"
 1340              		.file 21 "lib/e-puck2_main-processor/ChibiOS//os/rt/include/chmtx.h"
 1341              		.file 22 "lib/e-puck2_main-processor/ChibiOS//os/rt/include/chregistry.h"
 1342              		.file 23 "lib/e-puck2_main-processor/ChibiOS//os/rt/include/chevents.h"
 1343              		.file 24 "lib/e-puck2_main-processor/ChibiOS//os/rt/include/chqueues.h"
 1344              		.file 25 "lib/e-puck2_main-processor/ChibiOS//os/hal/ports/STM32/STM32F4xx/stm32_dma.h"
 1345              		.file 26 "lib/e-puck2_main-processor/ChibiOS//os/hal/include/hal_ioblock.h"
 1346              		.file 27 "lib/e-puck2_main-processor/ChibiOS//os/hal/ports/STM32/LLD/GPIOv2/pal_lld.h"
 1347              		.file 28 "lib/e-puck2_main-processor/ChibiOS//os/hal/include/adc.h"
 1348              		.file 29 "lib/e-puck2_main-processor/ChibiOS//os/hal/ports/STM32/STM32F4xx/adc_lld.h"
 1349              		.file 30 "lib/e-puck2_main-processor/ChibiOS//os/hal/include/can.h"
 1350              		.file 31 "lib/e-puck2_main-processor/ChibiOS//os/hal/ports/STM32/LLD/can_lld.h"
 1351              		.file 32 "lib/e-puck2_main-processor/ChibiOS//os/hal/include/dac.h"
 1352              		.file 33 "lib/e-puck2_main-processor/ChibiOS//os/hal/ports/STM32/LLD/DACv1/dac_lld.h"
 1353              		.file 34 "lib/e-puck2_main-processor/ChibiOS//os/hal/include/ext.h"
 1354              		.file 35 "lib/e-puck2_main-processor/ChibiOS//os/hal/ports/STM32/LLD/ext_lld.h"
 1355              		.file 36 "lib/e-puck2_main-processor/ChibiOS//os/hal/include/gpt.h"
 1356              		.file 37 "lib/e-puck2_main-processor/ChibiOS//os/hal/ports/STM32/LLD/TIMv1/gpt_lld.h"
 1357              		.file 38 "lib/e-puck2_main-processor/ChibiOS//os/hal/ports/STM32/LLD/TIMv1/stm32_tim.h"
 1358              		.file 39 "lib/e-puck2_main-processor/ChibiOS//os/hal/include/i2c.h"
 1359              		.file 40 "lib/e-puck2_main-processor/ChibiOS//os/hal/ports/STM32/LLD/I2Cv1/i2c_lld.h"
 1360              		.file 41 "lib/e-puck2_main-processor/ChibiOS//os/hal/include/i2s.h"
 1361              		.file 42 "lib/e-puck2_main-processor/ChibiOS//os/hal/ports/STM32/LLD/SPIv1/i2s_lld.h"
 1362              		.file 43 "lib/e-puck2_main-processor/ChibiOS//os/hal/include/pwm.h"
 1363              		.file 44 "lib/e-puck2_main-processor/ChibiOS//os/hal/ports/STM32/LLD/TIMv1/pwm_lld.h"
 1364              		.file 45 "lib/e-puck2_main-processor/ChibiOS//os/hal/include/serial.h"
 1365              		.file 46 "lib/e-puck2_main-processor/ChibiOS//os/hal/ports/STM32/LLD/USARTv1/serial_lld.h"
 1366              		.file 47 "lib/e-puck2_main-processor/ChibiOS//os/hal/include/sdc.h"
 1367              		.file 48 "lib/e-puck2_main-processor/ChibiOS//os/hal/ports/STM32/LLD/sdc_lld.h"
 1368              		.file 49 "lib/e-puck2_main-processor/ChibiOS//os/hal/include/spi.h"
ARM GAS  /var/folders/qd/4mxf5pkd0zdf0b9dd1hp39180000gn/T//cc5H6xqh.s 			page 25


 1369              		.file 50 "lib/e-puck2_main-processor/ChibiOS//os/hal/ports/STM32/LLD/SPIv1/spi_lld.h"
 1370              		.file 51 "lib/e-puck2_main-processor/ChibiOS//os/hal/include/usb.h"
 1371              		.file 52 "lib/e-puck2_main-processor/ChibiOS//os/hal/ports/STM32/LLD/OTGv1/usb_lld.h"
 1372              		.file 53 "lib/e-puck2_main-processor/ChibiOS//os/hal/ports/STM32/LLD/OTGv1/stm32_otg.h"
 1373              		.file 54 "lib/e-puck2_main-processor/src/sensors/mpu9250.h"
 1374              		.file 55 "lib/e-puck2_main-processor/src/sensors/../i2c_bus.h"
 1375              		.file 56 "lib/e-puck2_main-processor/ChibiOS//os/rt/include/chthreads.h"