ARM GAS  /var/folders/qd/4mxf5pkd0zdf0b9dd1hp39180000gn/T//ccoRLjEl.s 			page 1


   1              		.cpu cortex-m4
   2              		.eabi_attribute 27, 1
   3              		.eabi_attribute 28, 1
   4              		.eabi_attribute 20, 1
   5              		.eabi_attribute 21, 1
   6              		.eabi_attribute 23, 3
   7              		.eabi_attribute 24, 1
   8              		.eabi_attribute 25, 1
   9              		.eabi_attribute 26, 1
  10              		.eabi_attribute 30, 2
  11              		.eabi_attribute 34, 1
  12              		.eabi_attribute 18, 4
  13              		.file	"VL53L0X.c"
  14              		.text
  15              	.Ltext0:
  16              		.cfi_sections	.debug_frame
  17              		.section	.text.VL53L0X_init,"ax",%progbits
  18              		.align	1
  19              		.p2align 4,,15
  20              		.global	VL53L0X_init
  21              		.syntax unified
  22              		.thumb
  23              		.thumb_func
  24              		.fpu fpv4-sp-d16
  25              		.type	VL53L0X_init, %function
  26              	VL53L0X_init:
  27              	.LFB261:
  28              		.file 1 "lib/e-puck2_main-processor/src/sensors/VL53L0X/VL53L0X.c"
  29              		.loc 1 59 0
  30              		.cfi_startproc
  31              		@ args = 0, pretend = 0, frame = 16
  32              		@ frame_needed = 0, uses_anonymous_args = 0
  33              	.LVL0:
  34 0000 30B5     		push	{r4, r5, lr}
  35              		.cfi_def_cfa_offset 12
  36              		.cfi_offset 4, -12
  37              		.cfi_offset 5, -8
  38              		.cfi_offset 14, -4
  39 0002 164C     		ldr	r4, .L8
  40 0004 85B0     		sub	sp, sp, #20
  41              		.cfi_def_cfa_offset 32
  42              		.loc 1 59 0
  43 0006 2368     		ldr	r3, [r4]
  44 0008 0393     		str	r3, [sp, #12]
  45              	.LVL1:
  46 000a 0546     		mov	r5, r0
  47              		.loc 1 72 0
  48 000c FFF7FEFF 		bl	VL53L0X_DataInit
  49              	.LVL2:
  50              		.loc 1 75 0
  51 0010 28B1     		cbz	r0, .L6
  52              	.LVL3:
  53              	.L2:
  54              		.loc 1 103 0
  55 0012 039A     		ldr	r2, [sp, #12]
  56 0014 2368     		ldr	r3, [r4]
  57 0016 9A42     		cmp	r2, r3
ARM GAS  /var/folders/qd/4mxf5pkd0zdf0b9dd1hp39180000gn/T//ccoRLjEl.s 			page 2


  58 0018 1DD1     		bne	.L7
  59 001a 05B0     		add	sp, sp, #20
  60              		.cfi_remember_state
  61              		.cfi_def_cfa_offset 12
  62              		@ sp needed
  63 001c 30BD     		pop	{r4, r5, pc}
  64              	.LVL4:
  65              	.L6:
  66              		.cfi_restore_state
  67              		.loc 1 78 0
  68 001e 05F5AE71 		add	r1, r5, #348
  69 0022 2846     		mov	r0, r5
  70              	.LVL5:
  71 0024 FFF7FEFF 		bl	VL53L0X_GetDeviceInfo
  72              	.LVL6:
  73              		.loc 1 81 0
  74 0028 0028     		cmp	r0, #0
  75 002a F2D1     		bne	.L2
  76              		.loc 1 84 0
  77 002c 2846     		mov	r0, r5
  78              	.LVL7:
  79 002e FFF7FEFF 		bl	VL53L0X_StaticInit
  80              	.LVL8:
  81              		.loc 1 88 0
  82 0032 0028     		cmp	r0, #0
  83 0034 EDD1     		bne	.L2
  84              		.loc 1 91 0
  85 0036 0DF10502 		add	r2, sp, #5
  86 003a 02A9     		add	r1, sp, #8
  87 003c 2846     		mov	r0, r5
  88              	.LVL9:
  89 003e FFF7FEFF 		bl	VL53L0X_PerformRefSpadManagement
  90              	.LVL10:
  91              		.loc 1 95 0
  92 0042 0028     		cmp	r0, #0
  93 0044 E5D1     		bne	.L2
  94              	.LVL11:
  95              	.LBB40:
  96              	.LBB41:
  97              		.loc 1 98 0
  98 0046 2846     		mov	r0, r5
  99              	.LVL12:
 100 0048 0DF10702 		add	r2, sp, #7
 101 004c 0DF10601 		add	r1, sp, #6
 102 0050 FFF7FEFF 		bl	VL53L0X_PerformRefCalibration
 103              	.LVL13:
 104 0054 DDE7     		b	.L2
 105              	.LVL14:
 106              	.L7:
 107              	.LBE41:
 108              	.LBE40:
 109              		.loc 1 103 0
 110 0056 FFF7FEFF 		bl	__stack_chk_fail
 111              	.LVL15:
 112              	.L9:
 113 005a 00BF     		.align	2
 114              	.L8:
ARM GAS  /var/folders/qd/4mxf5pkd0zdf0b9dd1hp39180000gn/T//ccoRLjEl.s 			page 3


 115 005c 00000000 		.word	__stack_chk_guard
 116              		.cfi_endproc
 117              	.LFE261:
 118              		.size	VL53L0X_init, .-VL53L0X_init
 119              		.section	.text.VL53L0X_configAccuracy,"ax",%progbits
 120              		.align	1
 121              		.p2align 4,,15
 122              		.global	VL53L0X_configAccuracy
 123              		.syntax unified
 124              		.thumb
 125              		.thumb_func
 126              		.fpu fpv4-sp-d16
 127              		.type	VL53L0X_configAccuracy, %function
 128              	VL53L0X_configAccuracy:
 129              	.LFB262:
 130              		.loc 1 105 0
 131              		.cfi_startproc
 132              		@ args = 0, pretend = 0, frame = 8
 133              		@ frame_needed = 0, uses_anonymous_args = 0
 134              	.LVL16:
 135 0000 70B5     		push	{r4, r5, r6, lr}
 136              		.cfi_def_cfa_offset 16
 137              		.cfi_offset 4, -16
 138              		.cfi_offset 5, -12
 139              		.cfi_offset 6, -8
 140              		.cfi_offset 14, -4
 141 0002 554D     		ldr	r5, .L29
 142 0004 82B0     		sub	sp, sp, #8
 143              		.cfi_def_cfa_offset 24
 144              		.loc 1 105 0
 145 0006 0C46     		mov	r4, r1
 146 0008 2B68     		ldr	r3, [r5]
 147 000a 0193     		str	r3, [sp, #4]
 148              	.LVL17:
 149              		.loc 1 111 0
 150 000c 0122     		movs	r2, #1
 151 000e 0021     		movs	r1, #0
 152              	.LVL18:
 153              		.loc 1 105 0
 154 0010 0646     		mov	r6, r0
 155              		.loc 1 111 0
 156 0012 FFF7FEFF 		bl	VL53L0X_SetLimitCheckEnable
 157              	.LVL19:
 158              		.loc 1 115 0
 159 0016 0028     		cmp	r0, #0
 160 0018 71D0     		beq	.L28
 161              		.loc 1 122 0
 162 001a 032C     		cmp	r4, #3
 163 001c 03D8     		bhi	.L12
 164 001e DFE804F0 		tbb	[pc, r4]
 165              	.L23:
 166 0022 04       		.byte	(.L18-.L23)/2
 167 0023 51       		.byte	(.L15-.L23)/2
 168 0024 25       		.byte	(.L16-.L23)/2
 169 0025 0B       		.byte	(.L17-.L23)/2
 170              		.p2align 1
 171              	.L12:
ARM GAS  /var/folders/qd/4mxf5pkd0zdf0b9dd1hp39180000gn/T//ccoRLjEl.s 			page 4


 172              		.loc 1 196 0
 173 0026 6FF00300 		mvn	r0, #3
 174              	.LVL20:
 175              	.L18:
 176              		.loc 1 201 0
 177 002a 019A     		ldr	r2, [sp, #4]
 178 002c 2B68     		ldr	r3, [r5]
 179 002e 9A42     		cmp	r2, r3
 180 0030 40F08F80 		bne	.L25
 181 0034 02B0     		add	sp, sp, #8
 182              		.cfi_remember_state
 183              		.cfi_def_cfa_offset 16
 184              		@ sp needed
 185 0036 70BD     		pop	{r4, r5, r6, pc}
 186              	.LVL21:
 187              	.L17:
 188              		.cfi_restore_state
 189              		.loc 1 180 0
 190 0038 0028     		cmp	r0, #0
 191 003a F6D1     		bne	.L18
 192              		.loc 1 181 0
 193 003c 4FF48042 		mov	r2, #16384
 194 0040 0121     		movs	r1, #1
 195 0042 3046     		mov	r0, r6
 196              	.LVL22:
 197 0044 FFF7FEFF 		bl	VL53L0X_SetLimitCheckValue
 198              	.LVL23:
 199              		.loc 1 185 0
 200 0048 0028     		cmp	r0, #0
 201 004a EED1     		bne	.L18
 202              		.loc 1 186 0
 203 004c 0146     		mov	r1, r0
 204 004e 4FF40012 		mov	r2, #2097152
 205 0052 3046     		mov	r0, r6
 206              	.LVL24:
 207 0054 FFF7FEFF 		bl	VL53L0X_SetLimitCheckValue
 208              	.LVL25:
 209              		.loc 1 190 0
 210 0058 0028     		cmp	r0, #0
 211 005a E6D1     		bne	.L18
 212              		.loc 1 191 0
 213 005c 019A     		ldr	r2, [sp, #4]
 214 005e 2B68     		ldr	r3, [r5]
 215 0060 9A42     		cmp	r2, r3
 216 0062 76D1     		bne	.L25
 217 0064 3046     		mov	r0, r6
 218              	.LVL26:
 219 0066 47F23051 		movw	r1, #30000
 220 006a 43E0     		b	.L27
 221              	.LVL27:
 222              	.L16:
 223              		.loc 1 155 0
 224 006c 0028     		cmp	r0, #0
 225 006e DCD1     		bne	.L18
 226              		.loc 1 156 0
 227 0070 41F69912 		movw	r2, #6553
 228 0074 0121     		movs	r1, #1
ARM GAS  /var/folders/qd/4mxf5pkd0zdf0b9dd1hp39180000gn/T//ccoRLjEl.s 			page 5


 229 0076 3046     		mov	r0, r6
 230              	.LVL28:
 231 0078 FFF7FEFF 		bl	VL53L0X_SetLimitCheckValue
 232              	.LVL29:
 233              		.loc 1 160 0
 234 007c 0028     		cmp	r0, #0
 235 007e D4D1     		bne	.L18
 236              		.loc 1 161 0
 237 0080 0146     		mov	r1, r0
 238 0082 4FF47012 		mov	r2, #3932160
 239 0086 3046     		mov	r0, r6
 240              	.LVL30:
 241 0088 FFF7FEFF 		bl	VL53L0X_SetLimitCheckValue
 242              	.LVL31:
 243              		.loc 1 165 0
 244 008c 0028     		cmp	r0, #0
 245 008e CCD1     		bne	.L18
 246              		.loc 1 166 0
 247 0090 48F2E801 		movw	r1, #33000
 248 0094 3046     		mov	r0, r6
 249              	.LVL32:
 250 0096 FFF7FEFF 		bl	VL53L0X_SetMeasurementTimingBudgetMicroSeconds
 251              	.LVL33:
 252              		.loc 1 169 0
 253 009a 0028     		cmp	r0, #0
 254 009c C5D1     		bne	.L18
 255              		.loc 1 170 0
 256 009e 0146     		mov	r1, r0
 257 00a0 1222     		movs	r2, #18
 258 00a2 3046     		mov	r0, r6
 259              	.LVL34:
 260 00a4 FFF7FEFF 		bl	VL53L0X_SetVcselPulsePeriod
 261              	.LVL35:
 262              		.loc 1 173 0
 263 00a8 0028     		cmp	r0, #0
 264 00aa BED1     		bne	.L18
 265              		.loc 1 174 0
 266 00ac 019A     		ldr	r2, [sp, #4]
 267 00ae 2B68     		ldr	r3, [r5]
 268 00b0 9A42     		cmp	r2, r3
 269 00b2 4ED1     		bne	.L25
 270 00b4 3046     		mov	r0, r6
 271              	.LVL36:
 272 00b6 0E22     		movs	r2, #14
 273 00b8 0121     		movs	r1, #1
 274              		.loc 1 201 0
 275 00ba 02B0     		add	sp, sp, #8
 276              		.cfi_remember_state
 277              		.cfi_def_cfa_offset 16
 278              		@ sp needed
 279 00bc BDE87040 		pop	{r4, r5, r6, lr}
 280              		.cfi_restore 14
 281              		.cfi_restore 6
 282              		.cfi_restore 5
 283              		.cfi_restore 4
 284              		.cfi_def_cfa_offset 0
 285              	.LVL37:
ARM GAS  /var/folders/qd/4mxf5pkd0zdf0b9dd1hp39180000gn/T//ccoRLjEl.s 			page 6


 286              		.loc 1 174 0
 287 00c0 FFF7FEBF 		b	VL53L0X_SetVcselPulsePeriod
 288              	.LVL38:
 289              	.L15:
 290              		.cfi_restore_state
 291              		.loc 1 138 0
 292 00c4 0028     		cmp	r0, #0
 293 00c6 B0D1     		bne	.L18
 294              		.loc 1 139 0
 295 00c8 4FF48042 		mov	r2, #16384
 296 00cc 0121     		movs	r1, #1
 297 00ce 3046     		mov	r0, r6
 298              	.LVL39:
 299 00d0 FFF7FEFF 		bl	VL53L0X_SetLimitCheckValue
 300              	.LVL40:
 301              		.loc 1 143 0
 302 00d4 0028     		cmp	r0, #0
 303 00d6 A8D1     		bne	.L18
 304              		.loc 1 144 0
 305 00d8 0146     		mov	r1, r0
 306 00da 4FF49012 		mov	r2, #1179648
 307 00de 3046     		mov	r0, r6
 308              	.LVL41:
 309 00e0 FFF7FEFF 		bl	VL53L0X_SetLimitCheckValue
 310              	.LVL42:
 311              		.loc 1 148 0
 312 00e4 0028     		cmp	r0, #0
 313 00e6 A0D1     		bne	.L18
 314              		.loc 1 149 0
 315 00e8 019A     		ldr	r2, [sp, #4]
 316 00ea 2B68     		ldr	r3, [r5]
 317 00ec 9A42     		cmp	r2, r3
 318 00ee 30D1     		bne	.L25
 319 00f0 1A49     		ldr	r1, .L29+4
 320 00f2 3046     		mov	r0, r6
 321              	.LVL43:
 322              	.L27:
 323              		.loc 1 201 0
 324 00f4 02B0     		add	sp, sp, #8
 325              		.cfi_remember_state
 326              		.cfi_def_cfa_offset 16
 327              		@ sp needed
 328 00f6 BDE87040 		pop	{r4, r5, r6, lr}
 329              		.cfi_restore 14
 330              		.cfi_restore 6
 331              		.cfi_restore 5
 332              		.cfi_restore 4
 333              		.cfi_def_cfa_offset 0
 334              		.loc 1 191 0
 335 00fa FFF7FEBF 		b	VL53L0X_SetMeasurementTimingBudgetMicroSeconds
 336              	.LVL44:
 337              	.L28:
 338              		.cfi_restore_state
 339              		.loc 1 116 0
 340 00fe 0122     		movs	r2, #1
 341 0100 1146     		mov	r1, r2
 342 0102 3046     		mov	r0, r6
ARM GAS  /var/folders/qd/4mxf5pkd0zdf0b9dd1hp39180000gn/T//ccoRLjEl.s 			page 7


 343              	.LVL45:
 344 0104 FFF7FEFF 		bl	VL53L0X_SetLimitCheckEnable
 345              	.LVL46:
 346              		.loc 1 122 0
 347 0108 032C     		cmp	r4, #3
 348 010a 8CD8     		bhi	.L12
 349 010c 01A3     		adr	r3, .L14
 350 010e 53F824F0 		ldr	pc, [r3, r4, lsl #2]
 351 0112 00BF     		.p2align 2
 352              	.L14:
 353 0114 25010000 		.word	.L13+1
 354 0118 C5000000 		.word	.L15+1
 355 011c 6D000000 		.word	.L16+1
 356 0120 39000000 		.word	.L17+1
 357              		.p2align 1
 358              	.L13:
 359              		.loc 1 125 0
 360 0124 0028     		cmp	r0, #0
 361 0126 80D1     		bne	.L18
 362              		.loc 1 126 0
 363 0128 0122     		movs	r2, #1
 364 012a 0321     		movs	r1, #3
 365 012c 3046     		mov	r0, r6
 366              	.LVL47:
 367 012e FFF7FEFF 		bl	VL53L0X_SetLimitCheckEnable
 368              	.LVL48:
 369              		.loc 1 130 0
 370 0132 0028     		cmp	r0, #0
 371 0134 7FF479AF 		bne	.L18
 372              		.loc 1 131 0
 373 0138 019A     		ldr	r2, [sp, #4]
 374 013a 2B68     		ldr	r3, [r5]
 375 013c 9A42     		cmp	r2, r3
 376 013e 08D1     		bne	.L25
 377 0140 3046     		mov	r0, r6
 378              	.LVL49:
 379 0142 40F6D402 		movw	r2, #2260
 380 0146 0321     		movs	r1, #3
 381              		.loc 1 201 0
 382 0148 02B0     		add	sp, sp, #8
 383              		.cfi_remember_state
 384              		.cfi_def_cfa_offset 16
 385              		@ sp needed
 386 014a BDE87040 		pop	{r4, r5, r6, lr}
 387              		.cfi_restore 14
 388              		.cfi_restore 6
 389              		.cfi_restore 5
 390              		.cfi_restore 4
 391              		.cfi_def_cfa_offset 0
 392              	.LVL50:
 393              		.loc 1 131 0
 394 014e FFF7FEBF 		b	VL53L0X_SetLimitCheckValue
 395              	.LVL51:
 396              	.L25:
 397              		.cfi_restore_state
 398              		.loc 1 201 0
 399 0152 FFF7FEFF 		bl	__stack_chk_fail
ARM GAS  /var/folders/qd/4mxf5pkd0zdf0b9dd1hp39180000gn/T//ccoRLjEl.s 			page 8


 400              	.LVL52:
 401              	.L30:
 402 0156 00BF     		.align	2
 403              	.L29:
 404 0158 00000000 		.word	__stack_chk_guard
 405 015c 400D0300 		.word	200000
 406              		.cfi_endproc
 407              	.LFE262:
 408              		.size	VL53L0X_configAccuracy, .-VL53L0X_configAccuracy
 409              		.section	.text.VL53L0X_startMeasure,"ax",%progbits
 410              		.align	1
 411              		.p2align 4,,15
 412              		.global	VL53L0X_startMeasure
 413              		.syntax unified
 414              		.thumb
 415              		.thumb_func
 416              		.fpu fpv4-sp-d16
 417              		.type	VL53L0X_startMeasure, %function
 418              	VL53L0X_startMeasure:
 419              	.LFB263:
 420              		.loc 1 203 0
 421              		.cfi_startproc
 422              		@ args = 0, pretend = 0, frame = 8
 423              		@ frame_needed = 0, uses_anonymous_args = 0
 424              	.LVL53:
 425 0000 30B5     		push	{r4, r5, lr}
 426              		.cfi_def_cfa_offset 12
 427              		.cfi_offset 4, -12
 428              		.cfi_offset 5, -8
 429              		.cfi_offset 14, -4
 430 0002 0C4C     		ldr	r4, .L38
 431 0004 83B0     		sub	sp, sp, #12
 432              		.cfi_def_cfa_offset 24
 433              		.loc 1 203 0
 434 0006 2368     		ldr	r3, [r4]
 435 0008 0193     		str	r3, [sp, #4]
 436              	.LVL54:
 437 000a 0546     		mov	r5, r0
 438              		.loc 1 207 0
 439 000c FFF7FEFF 		bl	VL53L0X_SetDeviceMode
 440              	.LVL55:
 441              		.loc 1 210 0
 442 0010 019A     		ldr	r2, [sp, #4]
 443 0012 2368     		ldr	r3, [r4]
 444              		.loc 1 209 0
 445 0014 18B1     		cbz	r0, .L37
 446              	.LVL56:
 447              		.loc 1 214 0
 448 0016 9A42     		cmp	r2, r3
 449 0018 09D1     		bne	.L36
 450 001a 03B0     		add	sp, sp, #12
 451              		.cfi_remember_state
 452              		.cfi_def_cfa_offset 12
 453              		@ sp needed
 454 001c 30BD     		pop	{r4, r5, pc}
 455              	.LVL57:
 456              	.L37:
ARM GAS  /var/folders/qd/4mxf5pkd0zdf0b9dd1hp39180000gn/T//ccoRLjEl.s 			page 9


 457              		.cfi_restore_state
 458              		.loc 1 210 0
 459 001e 9A42     		cmp	r2, r3
 460 0020 05D1     		bne	.L36
 461 0022 2846     		mov	r0, r5
 462              	.LVL58:
 463              		.loc 1 214 0
 464 0024 03B0     		add	sp, sp, #12
 465              		.cfi_remember_state
 466              		.cfi_def_cfa_offset 12
 467              		@ sp needed
 468 0026 BDE83040 		pop	{r4, r5, lr}
 469              		.cfi_restore 14
 470              		.cfi_restore 5
 471              		.cfi_restore 4
 472              		.cfi_def_cfa_offset 0
 473              	.LVL59:
 474              		.loc 1 210 0
 475 002a FFF7FEBF 		b	VL53L0X_StartMeasurement
 476              	.LVL60:
 477              	.L36:
 478              		.cfi_restore_state
 479              		.loc 1 214 0
 480 002e FFF7FEFF 		bl	__stack_chk_fail
 481              	.LVL61:
 482              	.L39:
 483 0032 00BF     		.align	2
 484              	.L38:
 485 0034 00000000 		.word	__stack_chk_guard
 486              		.cfi_endproc
 487              	.LFE263:
 488              		.size	VL53L0X_startMeasure, .-VL53L0X_startMeasure
 489              		.section	.text.VL53L0XThd,"ax",%progbits
 490              		.align	1
 491              		.p2align 4,,15
 492              		.syntax unified
 493              		.thumb
 494              		.thumb_func
 495              		.fpu fpv4-sp-d16
 496              		.type	VL53L0XThd, %function
 497              	VL53L0XThd:
 498              	.LFB260:
 499              		.loc 1 24 0
 500              		.cfi_startproc
 501              		@ args = 0, pretend = 0, frame = 456
 502              		@ frame_needed = 0, uses_anonymous_args = 0
 503              	.LVL62:
 504 0000 2DE9F043 		push	{r4, r5, r6, r7, r8, r9, lr}
 505              		.cfi_def_cfa_offset 28
 506              		.cfi_offset 4, -28
 507              		.cfi_offset 5, -24
 508              		.cfi_offset 6, -20
 509              		.cfi_offset 7, -16
 510              		.cfi_offset 8, -12
 511              		.cfi_offset 9, -8
 512              		.cfi_offset 14, -4
 513              	.LBB64:
ARM GAS  /var/folders/qd/4mxf5pkd0zdf0b9dd1hp39180000gn/T//ccoRLjEl.s 			page 10


 514              	.LBB65:
 515              		.file 2 "lib/e-puck2_main-processor/ChibiOS//os/rt/include/chregistry.h"
 516              		.loc 2 135 0
 517 0004 334C     		ldr	r4, .L56
 518              	.LBE65:
 519              	.LBE64:
 520              		.loc 1 24 0
 521 0006 344F     		ldr	r7, .L56+4
 522              	.LBB67:
 523              	.LBB66:
 524              		.loc 2 135 0
 525 0008 A369     		ldr	r3, [r4, #24]
 526 000a 344A     		ldr	r2, .L56+8
 527 000c 9A61     		str	r2, [r3, #24]
 528              	.LBE66:
 529              	.LBE67:
 530              		.loc 1 24 0
 531 000e F3B0     		sub	sp, sp, #460
 532              		.cfi_def_cfa_offset 488
 533              		.loc 1 24 0
 534 0010 3B68     		ldr	r3, [r7]
 535 0012 7193     		str	r3, [sp, #452]
 536              	.LVL63:
 537              		.loc 1 34 0
 538 0014 01A8     		add	r0, sp, #4
 539              	.LVL64:
 540              		.loc 1 32 0
 541 0016 5223     		movs	r3, #82
 542 0018 8DF8C331 		strb	r3, [sp, #451]
 543              		.loc 1 34 0
 544 001c FFF7FEFF 		bl	VL53L0X_init
 545              	.LVL65:
 546              		.loc 1 36 0
 547 0020 50B9     		cbnz	r0, .L41
 548              		.loc 1 37 0
 549 0022 0221     		movs	r1, #2
 550 0024 01A8     		add	r0, sp, #4
 551              	.LVL66:
 552 0026 FFF7FEFF 		bl	VL53L0X_configAccuracy
 553              	.LVL67:
 554              		.loc 1 43 0
 555 002a 2D4D     		ldr	r5, .L56+12
 556              		.loc 1 40 0
 557 002c 0121     		movs	r1, #1
 558 002e 01A8     		add	r0, sp, #4
 559 0030 FFF7FEFF 		bl	VL53L0X_startMeasure
 560              	.LVL68:
 561              		.loc 1 43 0
 562 0034 0123     		movs	r3, #1
 563 0036 2B70     		strb	r3, [r5]
 564              	.L41:
 565              	.LBB68:
 566              	.LBB69:
 567              		.file 3 "lib/e-puck2_main-processor/ChibiOS//os/rt/include/chthreads.h"
 568              		.loc 3 233 0
 569 0038 A369     		ldr	r3, [r4, #24]
 570              	.LBE69:
ARM GAS  /var/folders/qd/4mxf5pkd0zdf0b9dd1hp39180000gn/T//ccoRLjEl.s 			page 11


 571              	.LBE68:
 572              		.loc 1 47 0
 573 003a 93F82130 		ldrb	r3, [r3, #33]	@ zero_extendqisi2
 574 003e 5A07     		lsls	r2, r3, #29
 575 0040 3AD4     		bmi	.L40
 576 0042 274D     		ldr	r5, .L56+12
 577              		.loc 1 50 0
 578 0044 DFF8A080 		ldr	r8, .L56+20
 579              	.LBB71:
 580              	.LBB72:
 581              	.LBB73:
 582              	.LBB74:
 583              		.file 4 "lib/e-puck2_main-processor/ChibiOS//os/rt/include/chbsem.h"
 584              		.loc 4 270 0
 585 0048 264E     		ldr	r6, .L56+16
 586              	.LBE74:
 587              	.LBE73:
 588              	.LBB77:
 589              	.LBB78:
 590              		.file 5 "lib/e-puck2_main-processor/ChibiOS//os/rt/include/chsys.h"
 591              		.loc 5 367 0
 592 004a DFF8A090 		ldr	r9, .L56+24
 593 004e 07E0     		b	.L46
 594              	.L43:
 595              	.LBE78:
 596              	.LBE77:
 597              	.LBE72:
 598              	.LBE71:
 599              		.loc 1 53 0
 600 0050 6420     		movs	r0, #100
 601 0052 FFF7FEFF 		bl	chThdSleep
 602              	.LVL69:
 603              	.LBB93:
 604              	.LBB70:
 605              		.loc 3 233 0
 606 0056 A369     		ldr	r3, [r4, #24]
 607              	.LBE70:
 608              	.LBE93:
 609              		.loc 1 47 0
 610 0058 93F82130 		ldrb	r3, [r3, #33]	@ zero_extendqisi2
 611 005c 5B07     		lsls	r3, r3, #29
 612 005e 2BD4     		bmi	.L40
 613              	.L46:
 614              		.loc 1 48 0
 615 0060 2B78     		ldrb	r3, [r5]	@ zero_extendqisi2
 616 0062 002B     		cmp	r3, #0
 617 0064 F4D0     		beq	.L43
 618              	.LVL70:
 619              	.LBB94:
 620              	.LBB95:
 621              		.loc 1 217 0
 622 0066 15A9     		add	r1, sp, #84
 623 0068 01A8     		add	r0, sp, #4
 624              	.LVL71:
 625 006a FFF7FEFF 		bl	VL53L0X_GetRangingMeasurementData
 626              	.LVL72:
 627              	.LBE95:
ARM GAS  /var/folders/qd/4mxf5pkd0zdf0b9dd1hp39180000gn/T//ccoRLjEl.s 			page 12


 628              	.LBE94:
 629              		.loc 1 50 0
 630 006e BDF85C30 		ldrh	r3, [sp, #92]
 631 0072 A8F80030 		strh	r3, [r8]	@ movhi
 632              	.LVL73:
 633              	.LBB96:
 634              	.LBB91:
 635              	.LBB83:
 636              	.LBB84:
 637              	.LBB85:
 638              	.LBB86:
 639              	.LBB87:
 640              		.file 6 "lib/e-puck2_main-processor/ChibiOS//os/ext/CMSIS/include/core_cmFunc.h"
 641              		.loc 6 546 0
 642 0076 2023     		movs	r3, #32
 643              		.syntax unified
 644              	@ 546 "lib/e-puck2_main-processor/ChibiOS//os/ext/CMSIS/include/core_cmFunc.h" 1
 645 0078 83F31188 		MSR basepri, r3
 646              	@ 0 "" 2
 647              	.LVL74:
 648              		.thumb
 649              		.syntax unified
 650              	.LBE87:
 651              	.LBE86:
 652              	.LBE85:
 653              		.loc 5 349 0
 654 007c FFF7FEFF 		bl	_stats_start_measure_crit_thd
 655              	.LVL75:
 656              		.loc 5 350 0
 657 0080 FFF7FEFF 		bl	_dbg_check_lock
 658              	.LVL76:
 659              	.LBE84:
 660              	.LBE83:
 661              	.LBB88:
 662              	.LBB75:
 663              		.loc 4 268 0
 664 0084 FFF7FEFF 		bl	chDbgCheckClassI
 665              	.LVL77:
 666              		.loc 4 270 0
 667 0088 B368     		ldr	r3, [r6, #8]
 668 008a 002B     		cmp	r3, #0
 669 008c 1BDD     		ble	.L54
 670              	.L44:
 671              	.LVL78:
 672              	.LBE75:
 673              	.LBE88:
 674              		.loc 4 286 0
 675 008e FFF7FEFF 		bl	chSchRescheduleS
 676              	.LVL79:
 677              	.LBB89:
 678              	.LBB82:
 679              		.loc 5 360 0
 680 0092 FFF7FEFF 		bl	_dbg_check_unlock
 681              	.LVL80:
 682              		.loc 5 361 0
 683 0096 FFF7FEFF 		bl	_stats_stop_measure_crit_thd
 684              	.LVL81:
ARM GAS  /var/folders/qd/4mxf5pkd0zdf0b9dd1hp39180000gn/T//ccoRLjEl.s 			page 13


 685              		.loc 5 367 0
 686 009a 2368     		ldr	r3, [r4]
 687 009c A342     		cmp	r3, r4
 688 009e 07D0     		beq	.L45
 689 00a0 A269     		ldr	r2, [r4, #24]
 690 00a2 9B68     		ldr	r3, [r3, #8]
 691 00a4 9268     		ldr	r2, [r2, #8]
 692 00a6 9A42     		cmp	r2, r3
 693 00a8 02D2     		bcs	.L45
 694 00aa 4846     		mov	r0, r9
 695 00ac FFF7FEFF 		bl	chSysHalt
 696              	.LVL82:
 697              	.L45:
 698              	.LBB79:
 699              	.LBB80:
 700              	.LBB81:
 701              		.loc 6 546 0
 702 00b0 0023     		movs	r3, #0
 703              		.syntax unified
 704              	@ 546 "lib/e-puck2_main-processor/ChibiOS//os/ext/CMSIS/include/core_cmFunc.h" 1
 705 00b2 83F31188 		MSR basepri, r3
 706              	@ 0 "" 2
 707              	.LVL83:
 708              		.thumb
 709              		.syntax unified
 710 00b6 CBE7     		b	.L43
 711              	.LVL84:
 712              	.L40:
 713              	.LBE81:
 714              	.LBE80:
 715              	.LBE79:
 716              	.LBE82:
 717              	.LBE89:
 718              	.LBE91:
 719              	.LBE96:
 720              		.loc 1 56 0
 721 00b8 719A     		ldr	r2, [sp, #452]
 722 00ba 3B68     		ldr	r3, [r7]
 723 00bc 9A42     		cmp	r2, r3
 724 00be 06D1     		bne	.L55
 725 00c0 73B0     		add	sp, sp, #460
 726              		.cfi_remember_state
 727              		.cfi_def_cfa_offset 28
 728              		@ sp needed
 729 00c2 BDE8F083 		pop	{r4, r5, r6, r7, r8, r9, pc}
 730              	.LVL85:
 731              	.L54:
 732              		.cfi_restore_state
 733              	.LBB97:
 734              	.LBB92:
 735              	.LBB90:
 736              	.LBB76:
 737              		.loc 4 271 0
 738 00c6 3046     		mov	r0, r6
 739 00c8 FFF7FEFF 		bl	chSemSignalI
 740              	.LVL86:
 741 00cc DFE7     		b	.L44
ARM GAS  /var/folders/qd/4mxf5pkd0zdf0b9dd1hp39180000gn/T//ccoRLjEl.s 			page 14


 742              	.LVL87:
 743              	.L55:
 744              	.LBE76:
 745              	.LBE90:
 746              	.LBE92:
 747              	.LBE97:
 748              		.loc 1 56 0
 749 00ce FFF7FEFF 		bl	__stack_chk_fail
 750              	.LVL88:
 751              	.L57:
 752 00d2 00BF     		.align	2
 753              	.L56:
 754 00d4 00000000 		.word	ch
 755 00d8 00000000 		.word	__stack_chk_guard
 756 00dc 00000000 		.word	.LC0
 757 00e0 00000000 		.word	.LANCHOR0
 758 00e4 00000000 		.word	.LANCHOR2
 759 00e8 00000000 		.word	.LANCHOR1
 760 00ec 00000000 		.word	.LANCHOR3
 761              		.cfi_endproc
 762              	.LFE260:
 763              		.size	VL53L0XThd, .-VL53L0XThd
 764              		.section	.text.VL53L0X_getLastMeasure,"ax",%progbits
 765              		.align	1
 766              		.p2align 4,,15
 767              		.global	VL53L0X_getLastMeasure
 768              		.syntax unified
 769              		.thumb
 770              		.thumb_func
 771              		.fpu fpv4-sp-d16
 772              		.type	VL53L0X_getLastMeasure, %function
 773              	VL53L0X_getLastMeasure:
 774              	.LFB264:
 775              		.loc 1 216 0
 776              		.cfi_startproc
 777              		@ args = 0, pretend = 0, frame = 8
 778              		@ frame_needed = 0, uses_anonymous_args = 0
 779              	.LVL89:
 780 0000 00B5     		push	{lr}
 781              		.cfi_def_cfa_offset 4
 782              		.cfi_offset 14, -4
 783 0002 084B     		ldr	r3, .L63
 784 0004 83B0     		sub	sp, sp, #12
 785              		.cfi_def_cfa_offset 16
 786              		.loc 1 216 0
 787 0006 1A68     		ldr	r2, [r3]
 788 0008 0192     		str	r2, [sp, #4]
 789              		.loc 1 217 0
 790 000a 019A     		ldr	r2, [sp, #4]
 791 000c 1B68     		ldr	r3, [r3]
 792 000e 9A42     		cmp	r2, r3
 793 0010 06D1     		bne	.L62
 794 0012 0146     		mov	r1, r0
 795 0014 5031     		adds	r1, r1, #80
 796              		.loc 1 219 0
 797 0016 03B0     		add	sp, sp, #12
 798              		.cfi_remember_state
ARM GAS  /var/folders/qd/4mxf5pkd0zdf0b9dd1hp39180000gn/T//ccoRLjEl.s 			page 15


 799              		.cfi_def_cfa_offset 4
 800              		@ sp needed
 801 0018 5DF804EB 		ldr	lr, [sp], #4
 802              		.cfi_restore 14
 803              		.cfi_def_cfa_offset 0
 804              		.loc 1 217 0
 805 001c FFF7FEBF 		b	VL53L0X_GetRangingMeasurementData
 806              	.LVL90:
 807              	.L62:
 808              		.cfi_restore_state
 809 0020 FFF7FEFF 		bl	__stack_chk_fail
 810              	.LVL91:
 811              	.L64:
 812              		.align	2
 813              	.L63:
 814 0024 00000000 		.word	__stack_chk_guard
 815              		.cfi_endproc
 816              	.LFE264:
 817              		.size	VL53L0X_getLastMeasure, .-VL53L0X_getLastMeasure
 818              		.section	.text.VL53L0X_stopMeasure,"ax",%progbits
 819              		.align	1
 820              		.p2align 4,,15
 821              		.global	VL53L0X_stopMeasure
 822              		.syntax unified
 823              		.thumb
 824              		.thumb_func
 825              		.fpu fpv4-sp-d16
 826              		.type	VL53L0X_stopMeasure, %function
 827              	VL53L0X_stopMeasure:
 828              	.LFB265:
 829              		.loc 1 221 0
 830              		.cfi_startproc
 831              		@ args = 0, pretend = 0, frame = 8
 832              		@ frame_needed = 0, uses_anonymous_args = 0
 833              	.LVL92:
 834 0000 00B5     		push	{lr}
 835              		.cfi_def_cfa_offset 4
 836              		.cfi_offset 14, -4
 837 0002 074B     		ldr	r3, .L70
 838 0004 83B0     		sub	sp, sp, #12
 839              		.cfi_def_cfa_offset 16
 840              		.loc 1 221 0
 841 0006 1A68     		ldr	r2, [r3]
 842 0008 0192     		str	r2, [sp, #4]
 843              		.loc 1 222 0
 844 000a 019A     		ldr	r2, [sp, #4]
 845 000c 1B68     		ldr	r3, [r3]
 846 000e 9A42     		cmp	r2, r3
 847 0010 04D1     		bne	.L69
 848              		.loc 1 223 0
 849 0012 03B0     		add	sp, sp, #12
 850              		.cfi_remember_state
 851              		.cfi_def_cfa_offset 4
 852              		@ sp needed
 853 0014 5DF804EB 		ldr	lr, [sp], #4
 854              		.cfi_restore 14
 855              		.cfi_def_cfa_offset 0
ARM GAS  /var/folders/qd/4mxf5pkd0zdf0b9dd1hp39180000gn/T//ccoRLjEl.s 			page 16


 856              		.loc 1 222 0
 857 0018 FFF7FEBF 		b	VL53L0X_StopMeasurement
 858              	.LVL93:
 859              	.L69:
 860              		.cfi_restore_state
 861 001c FFF7FEFF 		bl	__stack_chk_fail
 862              	.LVL94:
 863              	.L71:
 864              		.align	2
 865              	.L70:
 866 0020 00000000 		.word	__stack_chk_guard
 867              		.cfi_endproc
 868              	.LFE265:
 869              		.size	VL53L0X_stopMeasure, .-VL53L0X_stopMeasure
 870              		.section	.text.VL53L0X_start,"ax",%progbits
 871              		.align	1
 872              		.p2align 4,,15
 873              		.global	VL53L0X_start
 874              		.syntax unified
 875              		.thumb
 876              		.thumb_func
 877              		.fpu fpv4-sp-d16
 878              		.type	VL53L0X_start, %function
 879              	VL53L0X_start:
 880              	.LFB266:
 881              		.loc 1 225 0
 882              		.cfi_startproc
 883              		@ args = 0, pretend = 0, frame = 8
 884              		@ frame_needed = 0, uses_anonymous_args = 0
 885 0000 30B5     		push	{r4, r5, lr}
 886              		.cfi_def_cfa_offset 12
 887              		.cfi_offset 4, -12
 888              		.cfi_offset 5, -8
 889              		.cfi_offset 14, -4
 890              		.loc 1 227 0
 891 0002 0D4B     		ldr	r3, .L77
 892              		.loc 1 225 0
 893 0004 0D4C     		ldr	r4, .L77+4
 894              		.loc 1 227 0
 895 0006 1D78     		ldrb	r5, [r3]	@ zero_extendqisi2
 896              		.loc 1 225 0
 897 0008 2368     		ldr	r3, [r4]
 898 000a 85B0     		sub	sp, sp, #20
 899              		.cfi_def_cfa_offset 32
 900              		.loc 1 225 0
 901 000c 0393     		str	r3, [sp, #12]
 902              		.loc 1 227 0
 903 000e 5DB9     		cbnz	r5, .L72
 904              		.loc 1 231 0
 905 0010 FFF7FEFF 		bl	i2c_start
 906              	.LVL95:
 907              		.loc 1 233 0
 908 0014 0A4B     		ldr	r3, .L77+8
 909 0016 0095     		str	r5, [sp]
 910 0018 0A48     		ldr	r0, .L77+12
 911 001a 4A22     		movs	r2, #74
 912 001c 40F67811 		movw	r1, #2424
ARM GAS  /var/folders/qd/4mxf5pkd0zdf0b9dd1hp39180000gn/T//ccoRLjEl.s 			page 17


 913 0020 FFF7FEFF 		bl	chThdCreateStatic
 914              	.LVL96:
 915 0024 084B     		ldr	r3, .L77+16
 916 0026 1860     		str	r0, [r3]
 917              	.L72:
 918              		.loc 1 238 0
 919 0028 039A     		ldr	r2, [sp, #12]
 920 002a 2368     		ldr	r3, [r4]
 921 002c 9A42     		cmp	r2, r3
 922 002e 01D1     		bne	.L76
 923 0030 05B0     		add	sp, sp, #20
 924              		.cfi_remember_state
 925              		.cfi_def_cfa_offset 12
 926              		@ sp needed
 927 0032 30BD     		pop	{r4, r5, pc}
 928              	.L76:
 929              		.cfi_restore_state
 930 0034 FFF7FEFF 		bl	__stack_chk_fail
 931              	.LVL97:
 932              	.L78:
 933              		.align	2
 934              	.L77:
 935 0038 00000000 		.word	.LANCHOR0
 936 003c 00000000 		.word	__stack_chk_guard
 937 0040 00000000 		.word	VL53L0XThd
 938 0044 00000000 		.word	.LANCHOR4
 939 0048 00000000 		.word	.LANCHOR5
 940              		.cfi_endproc
 941              	.LFE266:
 942              		.size	VL53L0X_start, .-VL53L0X_start
 943              		.section	.text.VL53L0X_stop,"ax",%progbits
 944              		.align	1
 945              		.p2align 4,,15
 946              		.global	VL53L0X_stop
 947              		.syntax unified
 948              		.thumb
 949              		.thumb_func
 950              		.fpu fpv4-sp-d16
 951              		.type	VL53L0X_stop, %function
 952              	VL53L0X_stop:
 953              	.LFB267:
 954              		.loc 1 240 0
 955              		.cfi_startproc
 956              		@ args = 0, pretend = 0, frame = 8
 957              		@ frame_needed = 0, uses_anonymous_args = 0
 958 0000 30B5     		push	{r4, r5, lr}
 959              		.cfi_def_cfa_offset 12
 960              		.cfi_offset 4, -12
 961              		.cfi_offset 5, -8
 962              		.cfi_offset 14, -4
 963              		.loc 1 241 0
 964 0002 0B4C     		ldr	r4, .L83
 965              		.loc 1 240 0
 966 0004 0B4D     		ldr	r5, .L83+4
 967              		.loc 1 241 0
 968 0006 2068     		ldr	r0, [r4]
 969              		.loc 1 240 0
ARM GAS  /var/folders/qd/4mxf5pkd0zdf0b9dd1hp39180000gn/T//ccoRLjEl.s 			page 18


 970 0008 2B68     		ldr	r3, [r5]
 971 000a 83B0     		sub	sp, sp, #12
 972              		.cfi_def_cfa_offset 24
 973              		.loc 1 240 0
 974 000c 0193     		str	r3, [sp, #4]
 975              		.loc 1 241 0
 976 000e FFF7FEFF 		bl	chThdTerminate
 977              	.LVL98:
 978              		.loc 1 242 0
 979 0012 2068     		ldr	r0, [r4]
 980 0014 FFF7FEFF 		bl	chThdWait
 981              	.LVL99:
 982              		.loc 1 245 0
 983 0018 0199     		ldr	r1, [sp, #4]
 984 001a 2A68     		ldr	r2, [r5]
 985              		.loc 1 244 0
 986 001c 0648     		ldr	r0, .L83+8
 987              		.loc 1 243 0
 988 001e 0023     		movs	r3, #0
 989              		.loc 1 245 0
 990 0020 9142     		cmp	r1, r2
 991              		.loc 1 243 0
 992 0022 2360     		str	r3, [r4]
 993              		.loc 1 244 0
 994 0024 0370     		strb	r3, [r0]
 995              		.loc 1 245 0
 996 0026 01D1     		bne	.L82
 997 0028 03B0     		add	sp, sp, #12
 998              		.cfi_remember_state
 999              		.cfi_def_cfa_offset 12
 1000              		@ sp needed
 1001 002a 30BD     		pop	{r4, r5, pc}
 1002              	.L82:
 1003              		.cfi_restore_state
 1004 002c FFF7FEFF 		bl	__stack_chk_fail
 1005              	.LVL100:
 1006              	.L84:
 1007              		.align	2
 1008              	.L83:
 1009 0030 00000000 		.word	.LANCHOR5
 1010 0034 00000000 		.word	__stack_chk_guard
 1011 0038 00000000 		.word	.LANCHOR0
 1012              		.cfi_endproc
 1013              	.LFE267:
 1014              		.size	VL53L0X_stop, .-VL53L0X_stop
 1015              		.section	.text.VL53L0X_get_dist_mm,"ax",%progbits
 1016              		.align	1
 1017              		.p2align 4,,15
 1018              		.global	VL53L0X_get_dist_mm
 1019              		.syntax unified
 1020              		.thumb
 1021              		.thumb_func
 1022              		.fpu fpv4-sp-d16
 1023              		.type	VL53L0X_get_dist_mm, %function
 1024              	VL53L0X_get_dist_mm:
 1025              	.LFB268:
 1026              		.loc 1 247 0
ARM GAS  /var/folders/qd/4mxf5pkd0zdf0b9dd1hp39180000gn/T//ccoRLjEl.s 			page 19


 1027              		.cfi_startproc
 1028              		@ args = 0, pretend = 0, frame = 8
 1029              		@ frame_needed = 0, uses_anonymous_args = 0
 1030 0000 00B5     		push	{lr}
 1031              		.cfi_def_cfa_offset 4
 1032              		.cfi_offset 14, -4
 1033 0002 074B     		ldr	r3, .L89
 1034              		.loc 1 248 0
 1035 0004 0749     		ldr	r1, .L89+4
 1036              		.loc 1 247 0
 1037 0006 1A68     		ldr	r2, [r3]
 1038              		.loc 1 249 0
 1039 0008 0888     		ldrh	r0, [r1]
 1040              		.loc 1 247 0
 1041 000a 83B0     		sub	sp, sp, #12
 1042              		.cfi_def_cfa_offset 16
 1043              		.loc 1 247 0
 1044 000c 0192     		str	r2, [sp, #4]
 1045              		.loc 1 249 0
 1046 000e 019A     		ldr	r2, [sp, #4]
 1047 0010 1B68     		ldr	r3, [r3]
 1048 0012 9A42     		cmp	r2, r3
 1049 0014 02D1     		bne	.L88
 1050 0016 03B0     		add	sp, sp, #12
 1051              		.cfi_remember_state
 1052              		.cfi_def_cfa_offset 4
 1053              		@ sp needed
 1054 0018 5DF804FB 		ldr	pc, [sp], #4
 1055              	.L88:
 1056              		.cfi_restore_state
 1057 001c FFF7FEFF 		bl	__stack_chk_fail
 1058              	.LVL101:
 1059              	.L90:
 1060              		.align	2
 1061              	.L89:
 1062 0020 00000000 		.word	__stack_chk_guard
 1063 0024 00000000 		.word	.LANCHOR1
 1064              		.cfi_endproc
 1065              	.LFE268:
 1066              		.size	VL53L0X_get_dist_mm, .-VL53L0X_get_dist_mm
 1067              		.global	tofNewDatas
 1068              		.section	.bss.VL53L0X_configured,"aw",%nobits
 1069              		.set	.LANCHOR0,. + 0
 1070              		.type	VL53L0X_configured, %object
 1071              		.size	VL53L0X_configured, 1
 1072              	VL53L0X_configured:
 1073 0000 00       		.space	1
 1074              		.section	.bss.distThd,"aw",%nobits
 1075              		.align	2
 1076              		.set	.LANCHOR5,. + 0
 1077              		.type	distThd, %object
 1078              		.size	distThd, 4
 1079              	distThd:
 1080 0000 00000000 		.space	4
 1081              		.section	.bss.dist_mm,"aw",%nobits
 1082              		.align	1
 1083              		.set	.LANCHOR1,. + 0
ARM GAS  /var/folders/qd/4mxf5pkd0zdf0b9dd1hp39180000gn/T//ccoRLjEl.s 			page 20


 1084              		.type	dist_mm, %object
 1085              		.size	dist_mm, 2
 1086              	dist_mm:
 1087 0000 0000     		.space	2
 1088              		.section	.bss.waVL53L0XThd,"aw",%nobits
 1089              		.align	3
 1090              		.set	.LANCHOR4,. + 0
 1091              		.type	waVL53L0XThd, %object
 1092              		.size	waVL53L0XThd, 2424
 1093              	waVL53L0XThd:
 1094 0000 00000000 		.space	2424
 1094      00000000 
 1094      00000000 
 1094      00000000 
 1094      00000000 
 1095              		.section	.data.tofNewDatas,"aw",%progbits
 1096              		.align	2
 1097              		.set	.LANCHOR2,. + 0
 1098              		.type	tofNewDatas, %object
 1099              		.size	tofNewDatas, 12
 1100              	tofNewDatas:
 1101 0000 00000000 		.word	tofNewDatas
 1102 0004 00000000 		.word	tofNewDatas
 1103 0008 00000000 		.word	0
 1104              		.section	.rodata.VL53L0XThd.str1.4,"aMS",%progbits,1
 1105              		.align	2
 1106              	.LC0:
 1107 0000 564C3533 		.ascii	"VL53L0x Thd\000"
 1107      4C307820 
 1107      54686400 
 1108              		.section	.rodata.__func__.7153,"a",%progbits
 1109              		.align	2
 1110              		.set	.LANCHOR3,. + 0
 1111              		.type	__func__.7153, %object
 1112              		.size	__func__.7153, 12
 1113              	__func__.7153:
 1114 0000 63685379 		.ascii	"chSysUnlock\000"
 1114      73556E6C 
 1114      6F636B00 
 1115              		.text
 1116              	.Letext0:
 1117              		.file 7 "/Applications/Eclipse_e-puck2.app/Contents/Eclipse_e-puck2/Tools/gcc-arm-none-eabi-7-2017
 1118              		.file 8 "/Applications/Eclipse_e-puck2.app/Contents/Eclipse_e-puck2/Tools/gcc-arm-none-eabi-7-2017
 1119              		.file 9 "/Applications/Eclipse_e-puck2.app/Contents/Eclipse_e-puck2/Tools/gcc-arm-none-eabi-7-2017
 1120              		.file 10 "lib/e-puck2_main-processor/ChibiOS//os/rt/ports/ARMCMx/compilers/GCC/chtypes.h"
 1121              		.file 11 "lib/e-puck2_main-processor/ChibiOS//os/rt/include/chsystypes.h"
 1122              		.file 12 "lib/e-puck2_main-processor/ChibiOS//os/rt/include/chschd.h"
 1123              		.file 13 "lib/e-puck2_main-processor/ChibiOS//os/ext/CMSIS/include/core_cm4.h"
 1124              		.file 14 "lib/e-puck2_main-processor/ChibiOS//os/ext/CMSIS/ST/system_stm32f4xx.h"
 1125              		.file 15 "lib/e-puck2_main-processor/ChibiOS//os/ext/CMSIS/ST/stm32f407xx.h"
 1126              		.file 16 "lib/e-puck2_main-processor/ChibiOS//os/rt/ports/ARMCMx/chcore.h"
 1127              		.file 17 "lib/e-puck2_main-processor/ChibiOS//os/rt/ports/ARMCMx/chcore_v7m.h"
 1128              		.file 18 "lib/e-puck2_main-processor/ChibiOS//os/rt/include/chdebug.h"
 1129              		.file 19 "lib/e-puck2_main-processor/ChibiOS//os/rt/include/chtm.h"
 1130              		.file 20 "lib/e-puck2_main-processor/ChibiOS//os/rt/include/chstats.h"
 1131              		.file 21 "lib/e-puck2_main-processor/ChibiOS//os/rt/include/chsem.h"
 1132              		.file 22 "lib/e-puck2_main-processor/ChibiOS//os/rt/include/chmtx.h"
ARM GAS  /var/folders/qd/4mxf5pkd0zdf0b9dd1hp39180000gn/T//ccoRLjEl.s 			page 21


 1133              		.file 23 "lib/e-puck2_main-processor/ChibiOS//os/rt/include/chevents.h"
 1134              		.file 24 "lib/e-puck2_main-processor/ChibiOS//os/rt/include/chqueues.h"
 1135              		.file 25 "lib/e-puck2_main-processor/ChibiOS//os/hal/ports/STM32/STM32F4xx/stm32_dma.h"
 1136              		.file 26 "lib/e-puck2_main-processor/ChibiOS//os/hal/include/hal_ioblock.h"
 1137              		.file 27 "lib/e-puck2_main-processor/ChibiOS//os/hal/ports/STM32/LLD/GPIOv2/pal_lld.h"
 1138              		.file 28 "lib/e-puck2_main-processor/ChibiOS//os/hal/include/adc.h"
 1139              		.file 29 "lib/e-puck2_main-processor/ChibiOS//os/hal/ports/STM32/STM32F4xx/adc_lld.h"
 1140              		.file 30 "lib/e-puck2_main-processor/ChibiOS//os/hal/include/can.h"
 1141              		.file 31 "lib/e-puck2_main-processor/ChibiOS//os/hal/ports/STM32/LLD/can_lld.h"
 1142              		.file 32 "lib/e-puck2_main-processor/ChibiOS//os/hal/include/dac.h"
 1143              		.file 33 "lib/e-puck2_main-processor/ChibiOS//os/hal/ports/STM32/LLD/DACv1/dac_lld.h"
 1144              		.file 34 "lib/e-puck2_main-processor/ChibiOS//os/hal/include/ext.h"
 1145              		.file 35 "lib/e-puck2_main-processor/ChibiOS//os/hal/ports/STM32/LLD/ext_lld.h"
 1146              		.file 36 "lib/e-puck2_main-processor/ChibiOS//os/hal/include/gpt.h"
 1147              		.file 37 "lib/e-puck2_main-processor/ChibiOS//os/hal/ports/STM32/LLD/TIMv1/gpt_lld.h"
 1148              		.file 38 "lib/e-puck2_main-processor/ChibiOS//os/hal/ports/STM32/LLD/TIMv1/stm32_tim.h"
 1149              		.file 39 "lib/e-puck2_main-processor/ChibiOS//os/hal/include/i2c.h"
 1150              		.file 40 "lib/e-puck2_main-processor/ChibiOS//os/hal/ports/STM32/LLD/I2Cv1/i2c_lld.h"
 1151              		.file 41 "lib/e-puck2_main-processor/ChibiOS//os/hal/include/i2s.h"
 1152              		.file 42 "lib/e-puck2_main-processor/ChibiOS//os/hal/ports/STM32/LLD/SPIv1/i2s_lld.h"
 1153              		.file 43 "lib/e-puck2_main-processor/ChibiOS//os/hal/include/pwm.h"
 1154              		.file 44 "lib/e-puck2_main-processor/ChibiOS//os/hal/ports/STM32/LLD/TIMv1/pwm_lld.h"
 1155              		.file 45 "lib/e-puck2_main-processor/ChibiOS//os/hal/include/serial.h"
 1156              		.file 46 "lib/e-puck2_main-processor/ChibiOS//os/hal/ports/STM32/LLD/USARTv1/serial_lld.h"
 1157              		.file 47 "lib/e-puck2_main-processor/ChibiOS//os/hal/include/sdc.h"
 1158              		.file 48 "lib/e-puck2_main-processor/ChibiOS//os/hal/ports/STM32/LLD/sdc_lld.h"
 1159              		.file 49 "lib/e-puck2_main-processor/ChibiOS//os/hal/include/spi.h"
 1160              		.file 50 "lib/e-puck2_main-processor/ChibiOS//os/hal/ports/STM32/LLD/SPIv1/spi_lld.h"
 1161              		.file 51 "lib/e-puck2_main-processor/ChibiOS//os/hal/include/usb.h"
 1162              		.file 52 "lib/e-puck2_main-processor/ChibiOS//os/hal/ports/STM32/LLD/OTGv1/usb_lld.h"
 1163              		.file 53 "lib/e-puck2_main-processor/ChibiOS//os/hal/ports/STM32/LLD/OTGv1/stm32_otg.h"
 1164              		.file 54 "lib/e-puck2_main-processor/ChibiOS//os/hal/include/serial_usb.h"
 1165              		.file 55 "lib/e-puck2_main-processor/src/sensors/VL53L0X/Api/core/inc/vl53l0x_types.h"
 1166              		.file 56 "lib/e-puck2_main-processor/src/sensors/VL53L0X/Api/core/inc/vl53l0x_device.h"
 1167              		.file 57 "lib/e-puck2_main-processor/src/sensors/VL53L0X/Api/core/inc/vl53l0x_def.h"
 1168              		.file 58 "/Applications/Eclipse_e-puck2.app/Contents/Eclipse_e-puck2/Tools/gcc-arm-none-eabi-7-201
 1169              		.file 59 "/Applications/Eclipse_e-puck2.app/Contents/Eclipse_e-puck2/Tools/gcc-arm-none-eabi-7-201
 1170              		.file 60 "/Applications/Eclipse_e-puck2.app/Contents/Eclipse_e-puck2/Tools/gcc-arm-none-eabi-7-201
 1171              		.file 61 "lib/e-puck2_main-processor/src/sensors/VL53L0X/Api/core/inc/../../platform/inc/vl53l0x_p
 1172              		.file 62 "lib/e-puck2_main-processor/ChibiOS//os/various/shell.h"
 1173              		.file 63 "lib/e-puck2_main-processor/src/usbcfg.h"
 1174              		.file 64 "lib/e-puck2_main-processor/src/i2c_bus.h"
 1175              		.file 65 "lib/e-puck2_main-processor/src/sensors/VL53L0X/Api/core/inc/vl53l0x_api.h"