
build/ch.elf:     file format elf32-littlearm


Disassembly of section .text:

080001c0 <Reset_Handler>:
 80001c0:	b672      	cpsid	i
 80001c2:	4821      	ldr	r0, [pc, #132]	; (8000248 <endfiniloop+0x6>)
 80001c4:	f380 8809 	msr	PSP, r0
 80001c8:	2002      	movs	r0, #2
 80001ca:	f380 8814 	msr	CONTROL, r0
 80001ce:	f3bf 8f6f 	isb	sy
 80001d2:	f001 fe2d 	bl	8001e30 <__early_init>
 80001d6:	f04f 3055 	mov.w	r0, #1431655765	; 0x55555555
 80001da:	491c      	ldr	r1, [pc, #112]	; (800024c <endfiniloop+0xa>)
 80001dc:	4a1c      	ldr	r2, [pc, #112]	; (8000250 <endfiniloop+0xe>)

080001de <msloop>:
 80001de:	4291      	cmp	r1, r2
 80001e0:	bf3c      	itt	cc
 80001e2:	f841 0b04 	strcc.w	r0, [r1], #4
 80001e6:	e7fa      	bcc.n	80001de <msloop>
 80001e8:	491a      	ldr	r1, [pc, #104]	; (8000254 <endfiniloop+0x12>)
 80001ea:	4a17      	ldr	r2, [pc, #92]	; (8000248 <endfiniloop+0x6>)

080001ec <psloop>:
 80001ec:	4291      	cmp	r1, r2
 80001ee:	bf3c      	itt	cc
 80001f0:	f841 0b04 	strcc.w	r0, [r1], #4
 80001f4:	e7fa      	bcc.n	80001ec <psloop>
 80001f6:	4918      	ldr	r1, [pc, #96]	; (8000258 <endfiniloop+0x16>)
 80001f8:	4a18      	ldr	r2, [pc, #96]	; (800025c <endfiniloop+0x1a>)
 80001fa:	4b19      	ldr	r3, [pc, #100]	; (8000260 <endfiniloop+0x1e>)

080001fc <dloop>:
 80001fc:	429a      	cmp	r2, r3
 80001fe:	bf3e      	ittt	cc
 8000200:	f851 0b04 	ldrcc.w	r0, [r1], #4
 8000204:	f842 0b04 	strcc.w	r0, [r2], #4
 8000208:	e7f8      	bcc.n	80001fc <dloop>
 800020a:	2000      	movs	r0, #0
 800020c:	4915      	ldr	r1, [pc, #84]	; (8000264 <endfiniloop+0x22>)
 800020e:	4a16      	ldr	r2, [pc, #88]	; (8000268 <endfiniloop+0x26>)

08000210 <bloop>:
 8000210:	4291      	cmp	r1, r2
 8000212:	bf3c      	itt	cc
 8000214:	f841 0b04 	strcc.w	r0, [r1], #4
 8000218:	e7fa      	bcc.n	8000210 <bloop>
 800021a:	f004 f949 	bl	80044b0 <__late_init>
 800021e:	4c13      	ldr	r4, [pc, #76]	; (800026c <endfiniloop+0x2a>)
 8000220:	4d13      	ldr	r5, [pc, #76]	; (8000270 <endfiniloop+0x2e>)

08000222 <initloop>:
 8000222:	42ac      	cmp	r4, r5
 8000224:	da03      	bge.n	800022e <endinitloop>
 8000226:	f854 1b04 	ldr.w	r1, [r4], #4
 800022a:	4788      	blx	r1
 800022c:	e7f9      	b.n	8000222 <initloop>

0800022e <endinitloop>:
 800022e:	f002 fc27 	bl	8002a80 <main>
 8000232:	4c10      	ldr	r4, [pc, #64]	; (8000274 <endfiniloop+0x32>)
 8000234:	4d10      	ldr	r5, [pc, #64]	; (8000278 <endfiniloop+0x36>)

08000236 <finiloop>:
 8000236:	42ac      	cmp	r4, r5
 8000238:	da03      	bge.n	8000242 <endfiniloop>
 800023a:	f854 1b04 	ldr.w	r1, [r4], #4
 800023e:	4788      	blx	r1
 8000240:	e7f9      	b.n	8000236 <finiloop>

08000242 <endfiniloop>:
 8000242:	f004 b92d 	b.w	80044a0 <__default_exit>
 8000246:	0000      	.short	0x0000
 8000248:	20000800 	.word	0x20000800
 800024c:	20000000 	.word	0x20000000
 8000250:	20000400 	.word	0x20000400
 8000254:	20000400 	.word	0x20000400
 8000258:	08005358 	.word	0x08005358
 800025c:	20000800 	.word	0x20000800
 8000260:	20000db0 	.word	0x20000db0
 8000264:	20000db0 	.word	0x20000db0
 8000268:	20005a70 	.word	0x20005a70
 800026c:	080001c0 	.word	0x080001c0
 8000270:	080001c0 	.word	0x080001c0
 8000274:	080001c0 	.word	0x080001c0
 8000278:	080001c0 	.word	0x080001c0
 800027c:	00000000 	.word	0x00000000

08000280 <_port_switch>:
 8000280:	e92d 4ff0 	stmdb	sp!, {r4, r5, r6, r7, r8, r9, sl, fp, lr}
 8000284:	f8c1 d00c 	str.w	sp, [r1, #12]
 8000288:	f8d0 d00c 	ldr.w	sp, [r0, #12]
 800028c:	e8bd 8ff0 	ldmia.w	sp!, {r4, r5, r6, r7, r8, r9, sl, fp, pc}

08000290 <_port_thread_start>:
 8000290:	f001 fe7e 	bl	8001f90 <_dbg_check_unlock>
 8000294:	f001 fe2c 	bl	8001ef0 <_stats_stop_measure_crit_thd>
 8000298:	2300      	movs	r3, #0
 800029a:	f383 8811 	msr	BASEPRI, r3
 800029e:	4628      	mov	r0, r5
 80002a0:	47a0      	blx	r4
 80002a2:	2000      	movs	r0, #0
 80002a4:	f002 fbb4 	bl	8002a10 <chThdExit>

080002a8 <_port_switch_from_isr>:
 80002a8:	f001 fe2a 	bl	8001f00 <_stats_start_measure_crit_thd>
 80002ac:	f001 fea0 	bl	8001ff0 <_dbg_check_lock>
 80002b0:	f001 fe2e 	bl	8001f10 <chSchDoReschedule>
 80002b4:	f001 fe6c 	bl	8001f90 <_dbg_check_unlock>
 80002b8:	f001 fe1a 	bl	8001ef0 <_stats_stop_measure_crit_thd>

080002bc <_port_exit_from_isr>:
 80002bc:	df00      	svc	0
 80002be:	e7fe      	b.n	80002be <_port_exit_from_isr+0x2>

080002c0 <memcpy>:
 80002c0:	4684      	mov	ip, r0
 80002c2:	ea41 0300 	orr.w	r3, r1, r0
 80002c6:	f013 0303 	ands.w	r3, r3, #3
 80002ca:	d16d      	bne.n	80003a8 <memcpy+0xe8>
 80002cc:	3a40      	subs	r2, #64	; 0x40
 80002ce:	d341      	bcc.n	8000354 <memcpy+0x94>
 80002d0:	f851 3b04 	ldr.w	r3, [r1], #4
 80002d4:	f840 3b04 	str.w	r3, [r0], #4
 80002d8:	f851 3b04 	ldr.w	r3, [r1], #4
 80002dc:	f840 3b04 	str.w	r3, [r0], #4
 80002e0:	f851 3b04 	ldr.w	r3, [r1], #4
 80002e4:	f840 3b04 	str.w	r3, [r0], #4
 80002e8:	f851 3b04 	ldr.w	r3, [r1], #4
 80002ec:	f840 3b04 	str.w	r3, [r0], #4
 80002f0:	f851 3b04 	ldr.w	r3, [r1], #4
 80002f4:	f840 3b04 	str.w	r3, [r0], #4
 80002f8:	f851 3b04 	ldr.w	r3, [r1], #4
 80002fc:	f840 3b04 	str.w	r3, [r0], #4
 8000300:	f851 3b04 	ldr.w	r3, [r1], #4
 8000304:	f840 3b04 	str.w	r3, [r0], #4
 8000308:	f851 3b04 	ldr.w	r3, [r1], #4
 800030c:	f840 3b04 	str.w	r3, [r0], #4
 8000310:	f851 3b04 	ldr.w	r3, [r1], #4
 8000314:	f840 3b04 	str.w	r3, [r0], #4
 8000318:	f851 3b04 	ldr.w	r3, [r1], #4
 800031c:	f840 3b04 	str.w	r3, [r0], #4
 8000320:	f851 3b04 	ldr.w	r3, [r1], #4
 8000324:	f840 3b04 	str.w	r3, [r0], #4
 8000328:	f851 3b04 	ldr.w	r3, [r1], #4
 800032c:	f840 3b04 	str.w	r3, [r0], #4
 8000330:	f851 3b04 	ldr.w	r3, [r1], #4
 8000334:	f840 3b04 	str.w	r3, [r0], #4
 8000338:	f851 3b04 	ldr.w	r3, [r1], #4
 800033c:	f840 3b04 	str.w	r3, [r0], #4
 8000340:	f851 3b04 	ldr.w	r3, [r1], #4
 8000344:	f840 3b04 	str.w	r3, [r0], #4
 8000348:	f851 3b04 	ldr.w	r3, [r1], #4
 800034c:	f840 3b04 	str.w	r3, [r0], #4
 8000350:	3a40      	subs	r2, #64	; 0x40
 8000352:	d2bd      	bcs.n	80002d0 <memcpy+0x10>
 8000354:	3230      	adds	r2, #48	; 0x30
 8000356:	d311      	bcc.n	800037c <memcpy+0xbc>
 8000358:	f851 3b04 	ldr.w	r3, [r1], #4
 800035c:	f840 3b04 	str.w	r3, [r0], #4
 8000360:	f851 3b04 	ldr.w	r3, [r1], #4
 8000364:	f840 3b04 	str.w	r3, [r0], #4
 8000368:	f851 3b04 	ldr.w	r3, [r1], #4
 800036c:	f840 3b04 	str.w	r3, [r0], #4
 8000370:	f851 3b04 	ldr.w	r3, [r1], #4
 8000374:	f840 3b04 	str.w	r3, [r0], #4
 8000378:	3a10      	subs	r2, #16
 800037a:	d2ed      	bcs.n	8000358 <memcpy+0x98>
 800037c:	320c      	adds	r2, #12
 800037e:	d305      	bcc.n	800038c <memcpy+0xcc>
 8000380:	f851 3b04 	ldr.w	r3, [r1], #4
 8000384:	f840 3b04 	str.w	r3, [r0], #4
 8000388:	3a04      	subs	r2, #4
 800038a:	d2f9      	bcs.n	8000380 <memcpy+0xc0>
 800038c:	3204      	adds	r2, #4
 800038e:	d008      	beq.n	80003a2 <memcpy+0xe2>
 8000390:	07d2      	lsls	r2, r2, #31
 8000392:	bf1c      	itt	ne
 8000394:	f811 3b01 	ldrbne.w	r3, [r1], #1
 8000398:	f800 3b01 	strbne.w	r3, [r0], #1
 800039c:	d301      	bcc.n	80003a2 <memcpy+0xe2>
 800039e:	880b      	ldrh	r3, [r1, #0]
 80003a0:	8003      	strh	r3, [r0, #0]
 80003a2:	4660      	mov	r0, ip
 80003a4:	4770      	bx	lr
 80003a6:	bf00      	nop
 80003a8:	2a08      	cmp	r2, #8
 80003aa:	d313      	bcc.n	80003d4 <memcpy+0x114>
 80003ac:	078b      	lsls	r3, r1, #30
 80003ae:	d08d      	beq.n	80002cc <memcpy+0xc>
 80003b0:	f010 0303 	ands.w	r3, r0, #3
 80003b4:	d08a      	beq.n	80002cc <memcpy+0xc>
 80003b6:	f1c3 0304 	rsb	r3, r3, #4
 80003ba:	1ad2      	subs	r2, r2, r3
 80003bc:	07db      	lsls	r3, r3, #31
 80003be:	bf1c      	itt	ne
 80003c0:	f811 3b01 	ldrbne.w	r3, [r1], #1
 80003c4:	f800 3b01 	strbne.w	r3, [r0], #1
 80003c8:	d380      	bcc.n	80002cc <memcpy+0xc>
 80003ca:	f831 3b02 	ldrh.w	r3, [r1], #2
 80003ce:	f820 3b02 	strh.w	r3, [r0], #2
 80003d2:	e77b      	b.n	80002cc <memcpy+0xc>
 80003d4:	3a04      	subs	r2, #4
 80003d6:	d3d9      	bcc.n	800038c <memcpy+0xcc>
 80003d8:	3a01      	subs	r2, #1
 80003da:	f811 3b01 	ldrb.w	r3, [r1], #1
 80003de:	f800 3b01 	strb.w	r3, [r0], #1
 80003e2:	d2f9      	bcs.n	80003d8 <memcpy+0x118>
 80003e4:	780b      	ldrb	r3, [r1, #0]
 80003e6:	7003      	strb	r3, [r0, #0]
 80003e8:	784b      	ldrb	r3, [r1, #1]
 80003ea:	7043      	strb	r3, [r0, #1]
 80003ec:	788b      	ldrb	r3, [r1, #2]
 80003ee:	7083      	strb	r3, [r0, #2]
 80003f0:	4660      	mov	r0, ip
 80003f2:	4770      	bx	lr
	...
 8000400:	eba2 0003 	sub.w	r0, r2, r3
 8000404:	4770      	bx	lr
 8000406:	bf00      	nop

08000408 <strcmp>:
 8000408:	7802      	ldrb	r2, [r0, #0]
 800040a:	780b      	ldrb	r3, [r1, #0]
 800040c:	2a01      	cmp	r2, #1
 800040e:	bf28      	it	cs
 8000410:	429a      	cmpcs	r2, r3
 8000412:	d1f5      	bne.n	8000400 <memcpy+0x140>
 8000414:	e96d 4504 	strd	r4, r5, [sp, #-16]!
 8000418:	ea40 0401 	orr.w	r4, r0, r1
 800041c:	e9cd 6702 	strd	r6, r7, [sp, #8]
 8000420:	f06f 0c00 	mvn.w	ip, #0
 8000424:	ea4f 7244 	mov.w	r2, r4, lsl #29
 8000428:	b312      	cbz	r2, 8000470 <strcmp+0x68>
 800042a:	ea80 0401 	eor.w	r4, r0, r1
 800042e:	f014 0f07 	tst.w	r4, #7
 8000432:	d16a      	bne.n	800050a <strcmp+0x102>
 8000434:	f000 0407 	and.w	r4, r0, #7
 8000438:	f020 0007 	bic.w	r0, r0, #7
 800043c:	f004 0503 	and.w	r5, r4, #3
 8000440:	f021 0107 	bic.w	r1, r1, #7
 8000444:	ea4f 05c5 	mov.w	r5, r5, lsl #3
 8000448:	e8f0 2304 	ldrd	r2, r3, [r0], #16
 800044c:	f014 0f04 	tst.w	r4, #4
 8000450:	e8f1 6704 	ldrd	r6, r7, [r1], #16
 8000454:	fa0c f405 	lsl.w	r4, ip, r5
 8000458:	ea62 0204 	orn	r2, r2, r4
 800045c:	ea66 0604 	orn	r6, r6, r4
 8000460:	d00a      	beq.n	8000478 <strcmp+0x70>
 8000462:	ea63 0304 	orn	r3, r3, r4
 8000466:	4662      	mov	r2, ip
 8000468:	ea67 0704 	orn	r7, r7, r4
 800046c:	4666      	mov	r6, ip
 800046e:	e003      	b.n	8000478 <strcmp+0x70>
 8000470:	e8f0 2304 	ldrd	r2, r3, [r0], #16
 8000474:	e8f1 6704 	ldrd	r6, r7, [r1], #16
 8000478:	fa82 f54c 	uadd8	r5, r2, ip
 800047c:	ea82 0406 	eor.w	r4, r2, r6
 8000480:	faa4 f48c 	sel	r4, r4, ip
 8000484:	bb6c      	cbnz	r4, 80004e2 <strcmp+0xda>
 8000486:	fa83 f54c 	uadd8	r5, r3, ip
 800048a:	ea83 0507 	eor.w	r5, r3, r7
 800048e:	faa5 f58c 	sel	r5, r5, ip
 8000492:	b995      	cbnz	r5, 80004ba <strcmp+0xb2>
 8000494:	e950 2302 	ldrd	r2, r3, [r0, #-8]
 8000498:	e951 6702 	ldrd	r6, r7, [r1, #-8]
 800049c:	fa82 f54c 	uadd8	r5, r2, ip
 80004a0:	ea82 0406 	eor.w	r4, r2, r6
 80004a4:	faa4 f48c 	sel	r4, r4, ip
 80004a8:	fa83 f54c 	uadd8	r5, r3, ip
 80004ac:	ea83 0507 	eor.w	r5, r3, r7
 80004b0:	faa5 f58c 	sel	r5, r5, ip
 80004b4:	4325      	orrs	r5, r4
 80004b6:	d0db      	beq.n	8000470 <strcmp+0x68>
 80004b8:	b99c      	cbnz	r4, 80004e2 <strcmp+0xda>
 80004ba:	ba2d      	rev	r5, r5
 80004bc:	fab5 f485 	clz	r4, r5
 80004c0:	f024 0407 	bic.w	r4, r4, #7
 80004c4:	fa27 f104 	lsr.w	r1, r7, r4
 80004c8:	e9dd 6702 	ldrd	r6, r7, [sp, #8]
 80004cc:	fa23 f304 	lsr.w	r3, r3, r4
 80004d0:	f003 00ff 	and.w	r0, r3, #255	; 0xff
 80004d4:	f001 01ff 	and.w	r1, r1, #255	; 0xff
 80004d8:	e8fd 4504 	ldrd	r4, r5, [sp], #16
 80004dc:	eba0 0001 	sub.w	r0, r0, r1
 80004e0:	4770      	bx	lr
 80004e2:	ba24      	rev	r4, r4
 80004e4:	fab4 f484 	clz	r4, r4
 80004e8:	f024 0407 	bic.w	r4, r4, #7
 80004ec:	fa26 f104 	lsr.w	r1, r6, r4
 80004f0:	e9dd 6702 	ldrd	r6, r7, [sp, #8]
 80004f4:	fa22 f204 	lsr.w	r2, r2, r4
 80004f8:	f002 00ff 	and.w	r0, r2, #255	; 0xff
 80004fc:	f001 01ff 	and.w	r1, r1, #255	; 0xff
 8000500:	e8fd 4504 	ldrd	r4, r5, [sp], #16
 8000504:	eba0 0001 	sub.w	r0, r0, r1
 8000508:	4770      	bx	lr
 800050a:	f014 0f03 	tst.w	r4, #3
 800050e:	d13c      	bne.n	800058a <strcmp+0x182>
 8000510:	f010 0403 	ands.w	r4, r0, #3
 8000514:	d128      	bne.n	8000568 <strcmp+0x160>
 8000516:	f850 2b08 	ldr.w	r2, [r0], #8
 800051a:	f851 3b08 	ldr.w	r3, [r1], #8
 800051e:	fa82 f54c 	uadd8	r5, r2, ip
 8000522:	ea82 0503 	eor.w	r5, r2, r3
 8000526:	faa5 f58c 	sel	r5, r5, ip
 800052a:	b95d      	cbnz	r5, 8000544 <strcmp+0x13c>
 800052c:	f850 2c04 	ldr.w	r2, [r0, #-4]
 8000530:	f851 3c04 	ldr.w	r3, [r1, #-4]
 8000534:	fa82 f54c 	uadd8	r5, r2, ip
 8000538:	ea82 0503 	eor.w	r5, r2, r3
 800053c:	faa5 f58c 	sel	r5, r5, ip
 8000540:	2d00      	cmp	r5, #0
 8000542:	d0e8      	beq.n	8000516 <strcmp+0x10e>
 8000544:	ba2d      	rev	r5, r5
 8000546:	fab5 f485 	clz	r4, r5
 800054a:	f024 0407 	bic.w	r4, r4, #7
 800054e:	fa23 f104 	lsr.w	r1, r3, r4
 8000552:	fa22 f204 	lsr.w	r2, r2, r4
 8000556:	f002 00ff 	and.w	r0, r2, #255	; 0xff
 800055a:	f001 01ff 	and.w	r1, r1, #255	; 0xff
 800055e:	e8fd 4504 	ldrd	r4, r5, [sp], #16
 8000562:	eba0 0001 	sub.w	r0, r0, r1
 8000566:	4770      	bx	lr
 8000568:	ea4f 04c4 	mov.w	r4, r4, lsl #3
 800056c:	f020 0003 	bic.w	r0, r0, #3
 8000570:	f850 2b08 	ldr.w	r2, [r0], #8
 8000574:	f021 0103 	bic.w	r1, r1, #3
 8000578:	f851 3b08 	ldr.w	r3, [r1], #8
 800057c:	fa0c f404 	lsl.w	r4, ip, r4
 8000580:	ea62 0204 	orn	r2, r2, r4
 8000584:	ea63 0304 	orn	r3, r3, r4
 8000588:	e7c9      	b.n	800051e <strcmp+0x116>
 800058a:	f010 0403 	ands.w	r4, r0, #3
 800058e:	d01a      	beq.n	80005c6 <strcmp+0x1be>
 8000590:	eba1 0104 	sub.w	r1, r1, r4
 8000594:	f020 0003 	bic.w	r0, r0, #3
 8000598:	07e4      	lsls	r4, r4, #31
 800059a:	f850 2b04 	ldr.w	r2, [r0], #4
 800059e:	d006      	beq.n	80005ae <strcmp+0x1a6>
 80005a0:	d20f      	bcs.n	80005c2 <strcmp+0x1ba>
 80005a2:	788b      	ldrb	r3, [r1, #2]
 80005a4:	fa5f f4a2 	uxtb.w	r4, r2, ror #16
 80005a8:	1ae4      	subs	r4, r4, r3
 80005aa:	d106      	bne.n	80005ba <strcmp+0x1b2>
 80005ac:	b12b      	cbz	r3, 80005ba <strcmp+0x1b2>
 80005ae:	78cb      	ldrb	r3, [r1, #3]
 80005b0:	fa5f f4b2 	uxtb.w	r4, r2, ror #24
 80005b4:	1ae4      	subs	r4, r4, r3
 80005b6:	d100      	bne.n	80005ba <strcmp+0x1b2>
 80005b8:	b91b      	cbnz	r3, 80005c2 <strcmp+0x1ba>
 80005ba:	4620      	mov	r0, r4
 80005bc:	f85d 4b10 	ldr.w	r4, [sp], #16
 80005c0:	4770      	bx	lr
 80005c2:	f101 0104 	add.w	r1, r1, #4
 80005c6:	f850 2b04 	ldr.w	r2, [r0], #4
 80005ca:	07cc      	lsls	r4, r1, #31
 80005cc:	f021 0103 	bic.w	r1, r1, #3
 80005d0:	f851 3b04 	ldr.w	r3, [r1], #4
 80005d4:	d848      	bhi.n	8000668 <strcmp+0x260>
 80005d6:	d224      	bcs.n	8000622 <strcmp+0x21a>
 80005d8:	f022 447f 	bic.w	r4, r2, #4278190080	; 0xff000000
 80005dc:	fa82 f54c 	uadd8	r5, r2, ip
 80005e0:	ea94 2513 	eors.w	r5, r4, r3, lsr #8
 80005e4:	faa5 f58c 	sel	r5, r5, ip
 80005e8:	d10a      	bne.n	8000600 <strcmp+0x1f8>
 80005ea:	b965      	cbnz	r5, 8000606 <strcmp+0x1fe>
 80005ec:	f851 3b04 	ldr.w	r3, [r1], #4
 80005f0:	ea84 0402 	eor.w	r4, r4, r2
 80005f4:	ebb4 6f03 	cmp.w	r4, r3, lsl #24
 80005f8:	d10e      	bne.n	8000618 <strcmp+0x210>
 80005fa:	f850 2b04 	ldr.w	r2, [r0], #4
 80005fe:	e7eb      	b.n	80005d8 <strcmp+0x1d0>
 8000600:	ea4f 2313 	mov.w	r3, r3, lsr #8
 8000604:	e055      	b.n	80006b2 <strcmp+0x2aa>
 8000606:	f035 457f 	bics.w	r5, r5, #4278190080	; 0xff000000
 800060a:	d14d      	bne.n	80006a8 <strcmp+0x2a0>
 800060c:	7808      	ldrb	r0, [r1, #0]
 800060e:	e8fd 4504 	ldrd	r4, r5, [sp], #16
 8000612:	f1c0 0000 	rsb	r0, r0, #0
 8000616:	4770      	bx	lr
 8000618:	ea4f 6212 	mov.w	r2, r2, lsr #24
 800061c:	f003 03ff 	and.w	r3, r3, #255	; 0xff
 8000620:	e047      	b.n	80006b2 <strcmp+0x2aa>
 8000622:	ea02 441c 	and.w	r4, r2, ip, lsr #16
 8000626:	fa82 f54c 	uadd8	r5, r2, ip
 800062a:	ea94 4513 	eors.w	r5, r4, r3, lsr #16
 800062e:	faa5 f58c 	sel	r5, r5, ip
 8000632:	d10a      	bne.n	800064a <strcmp+0x242>
 8000634:	b965      	cbnz	r5, 8000650 <strcmp+0x248>
 8000636:	f851 3b04 	ldr.w	r3, [r1], #4
 800063a:	ea84 0402 	eor.w	r4, r4, r2
 800063e:	ebb4 4f03 	cmp.w	r4, r3, lsl #16
 8000642:	d10c      	bne.n	800065e <strcmp+0x256>
 8000644:	f850 2b04 	ldr.w	r2, [r0], #4
 8000648:	e7eb      	b.n	8000622 <strcmp+0x21a>
 800064a:	ea4f 4313 	mov.w	r3, r3, lsr #16
 800064e:	e030      	b.n	80006b2 <strcmp+0x2aa>
 8000650:	ea15 451c 	ands.w	r5, r5, ip, lsr #16
 8000654:	d128      	bne.n	80006a8 <strcmp+0x2a0>
 8000656:	880b      	ldrh	r3, [r1, #0]
 8000658:	ea4f 4212 	mov.w	r2, r2, lsr #16
 800065c:	e029      	b.n	80006b2 <strcmp+0x2aa>
 800065e:	ea4f 4212 	mov.w	r2, r2, lsr #16
 8000662:	ea03 431c 	and.w	r3, r3, ip, lsr #16
 8000666:	e024      	b.n	80006b2 <strcmp+0x2aa>
 8000668:	f002 04ff 	and.w	r4, r2, #255	; 0xff
 800066c:	fa82 f54c 	uadd8	r5, r2, ip
 8000670:	ea94 6513 	eors.w	r5, r4, r3, lsr #24
 8000674:	faa5 f58c 	sel	r5, r5, ip
 8000678:	d10a      	bne.n	8000690 <strcmp+0x288>
 800067a:	b965      	cbnz	r5, 8000696 <strcmp+0x28e>
 800067c:	f851 3b04 	ldr.w	r3, [r1], #4
 8000680:	ea84 0402 	eor.w	r4, r4, r2
 8000684:	ebb4 2f03 	cmp.w	r4, r3, lsl #8
 8000688:	d109      	bne.n	800069e <strcmp+0x296>
 800068a:	f850 2b04 	ldr.w	r2, [r0], #4
 800068e:	e7eb      	b.n	8000668 <strcmp+0x260>
 8000690:	ea4f 6313 	mov.w	r3, r3, lsr #24
 8000694:	e00d      	b.n	80006b2 <strcmp+0x2aa>
 8000696:	f015 0fff 	tst.w	r5, #255	; 0xff
 800069a:	d105      	bne.n	80006a8 <strcmp+0x2a0>
 800069c:	680b      	ldr	r3, [r1, #0]
 800069e:	ea4f 2212 	mov.w	r2, r2, lsr #8
 80006a2:	f023 437f 	bic.w	r3, r3, #4278190080	; 0xff000000
 80006a6:	e004      	b.n	80006b2 <strcmp+0x2aa>
 80006a8:	f04f 0000 	mov.w	r0, #0
 80006ac:	e8fd 4504 	ldrd	r4, r5, [sp], #16
 80006b0:	4770      	bx	lr
 80006b2:	ba12      	rev	r2, r2
 80006b4:	ba1b      	rev	r3, r3
 80006b6:	fa82 f44c 	uadd8	r4, r2, ip
 80006ba:	ea82 0403 	eor.w	r4, r2, r3
 80006be:	faa4 f58c 	sel	r5, r4, ip
 80006c2:	fab5 f485 	clz	r4, r5
 80006c6:	fa02 f204 	lsl.w	r2, r2, r4
 80006ca:	fa03 f304 	lsl.w	r3, r3, r4
 80006ce:	ea4f 6012 	mov.w	r0, r2, lsr #24
 80006d2:	e8fd 4504 	ldrd	r4, r5, [sp], #16
 80006d6:	eba0 6013 	sub.w	r0, r0, r3, lsr #24
 80006da:	4770      	bx	lr
 80006dc:	0000      	movs	r0, r0
	...

080006e0 <_idle_thread>:
 80006e0:	e7fe      	b.n	80006e0 <_idle_thread>
 80006e2:	bf00      	nop
	...

080006f0 <notify6>:
 80006f0:	4a02      	ldr	r2, [pc, #8]	; (80006fc <notify6+0xc>)
 80006f2:	68d3      	ldr	r3, [r2, #12]
 80006f4:	f043 0380 	orr.w	r3, r3, #128	; 0x80
 80006f8:	60d3      	str	r3, [r2, #12]
 80006fa:	4770      	bx	lr
 80006fc:	40011400 	.word	0x40011400

08000700 <sdc_lld_is_write_protected>:
 8000700:	2000      	movs	r0, #0
 8000702:	4770      	bx	lr
	...

08000710 <sdc_lld_is_card_inserted>:
 8000710:	7903      	ldrb	r3, [r0, #4]
 8000712:	1eda      	subs	r2, r3, #3
 8000714:	2a01      	cmp	r2, #1
 8000716:	d909      	bls.n	800072c <sdc_lld_is_card_inserted+0x1c>
 8000718:	3b06      	subs	r3, #6
 800071a:	2b01      	cmp	r3, #1
 800071c:	d906      	bls.n	800072c <sdc_lld_is_card_inserted+0x1c>
 800071e:	4a05      	ldr	r2, [pc, #20]	; (8000734 <sdc_lld_is_card_inserted+0x24>)
 8000720:	4b05      	ldr	r3, [pc, #20]	; (8000738 <sdc_lld_is_card_inserted+0x28>)
 8000722:	6910      	ldr	r0, [r2, #16]
 8000724:	f3c0 20c0 	ubfx	r0, r0, #11, #1
 8000728:	7018      	strb	r0, [r3, #0]
 800072a:	4770      	bx	lr
 800072c:	4b02      	ldr	r3, [pc, #8]	; (8000738 <sdc_lld_is_card_inserted+0x28>)
 800072e:	7818      	ldrb	r0, [r3, #0]
 8000730:	4770      	bx	lr
 8000732:	bf00      	nop
 8000734:	40020800 	.word	0x40020800
 8000738:	200054f8 	.word	0x200054f8
 800073c:	00000000 	.word	0x00000000

08000740 <sdc_lld_collect_errors.isra.0>:
 8000740:	f001 0301 	and.w	r3, r1, #1
 8000744:	078a      	lsls	r2, r1, #30
 8000746:	bf48      	it	mi
 8000748:	f043 0302 	orrmi.w	r3, r3, #2
 800074c:	074a      	lsls	r2, r1, #29
 800074e:	bf48      	it	mi
 8000750:	f043 0308 	orrmi.w	r3, r3, #8
 8000754:	070a      	lsls	r2, r1, #28
 8000756:	bf48      	it	mi
 8000758:	f043 0304 	orrmi.w	r3, r3, #4
 800075c:	06ca      	lsls	r2, r1, #27
 800075e:	bf48      	it	mi
 8000760:	f043 0310 	orrmi.w	r3, r3, #16
 8000764:	068a      	lsls	r2, r1, #26
 8000766:	bf48      	it	mi
 8000768:	f043 0320 	orrmi.w	r3, r3, #32
 800076c:	058a      	lsls	r2, r1, #22
 800076e:	6802      	ldr	r2, [r0, #0]
 8000770:	bf48      	it	mi
 8000772:	f043 0340 	orrmi.w	r3, r3, #64	; 0x40
 8000776:	4313      	orrs	r3, r2
 8000778:	6003      	str	r3, [r0, #0]
 800077a:	4770      	bx	lr
 800077c:	0000      	movs	r0, r0
	...

08000780 <sdc_lld_send_cmd_long_crc>:
 8000780:	b510      	push	{r4, lr}
 8000782:	6c84      	ldr	r4, [r0, #72]	; 0x48
 8000784:	f441 6198 	orr.w	r1, r1, #1216	; 0x4c0
 8000788:	60a2      	str	r2, [r4, #8]
 800078a:	60e1      	str	r1, [r4, #12]
 800078c:	6b61      	ldr	r1, [r4, #52]	; 0x34
 800078e:	f011 0245 	ands.w	r2, r1, #69	; 0x45
 8000792:	d0fb      	beq.n	800078c <sdc_lld_send_cmd_long_crc+0xc>
 8000794:	63a2      	str	r2, [r4, #56]	; 0x38
 8000796:	f011 023f 	ands.w	r2, r1, #63	; 0x3f
 800079a:	d109      	bne.n	80007b0 <sdc_lld_send_cmd_long_crc+0x30>
 800079c:	6a21      	ldr	r1, [r4, #32]
 800079e:	6019      	str	r1, [r3, #0]
 80007a0:	69e1      	ldr	r1, [r4, #28]
 80007a2:	6059      	str	r1, [r3, #4]
 80007a4:	69a1      	ldr	r1, [r4, #24]
 80007a6:	6099      	str	r1, [r3, #8]
 80007a8:	6961      	ldr	r1, [r4, #20]
 80007aa:	60d9      	str	r1, [r3, #12]
 80007ac:	4610      	mov	r0, r2
 80007ae:	bd10      	pop	{r4, pc}
 80007b0:	3034      	adds	r0, #52	; 0x34
 80007b2:	f7ff ffc5 	bl	8000740 <sdc_lld_collect_errors.isra.0>
 80007b6:	2001      	movs	r0, #1
 80007b8:	bd10      	pop	{r4, pc}
 80007ba:	bf00      	nop
 80007bc:	0000      	movs	r0, r0
	...

080007c0 <sdc_lld_send_cmd_short_crc>:
 80007c0:	b510      	push	{r4, lr}
 80007c2:	6c84      	ldr	r4, [r0, #72]	; 0x48
 80007c4:	f441 6188 	orr.w	r1, r1, #1088	; 0x440
 80007c8:	60a2      	str	r2, [r4, #8]
 80007ca:	60e1      	str	r1, [r4, #12]
 80007cc:	6b61      	ldr	r1, [r4, #52]	; 0x34
 80007ce:	f011 0245 	ands.w	r2, r1, #69	; 0x45
 80007d2:	d0fb      	beq.n	80007cc <sdc_lld_send_cmd_short_crc+0xc>
 80007d4:	63a2      	str	r2, [r4, #56]	; 0x38
 80007d6:	f011 0205 	ands.w	r2, r1, #5
 80007da:	d103      	bne.n	80007e4 <sdc_lld_send_cmd_short_crc+0x24>
 80007dc:	6961      	ldr	r1, [r4, #20]
 80007de:	6019      	str	r1, [r3, #0]
 80007e0:	4610      	mov	r0, r2
 80007e2:	bd10      	pop	{r4, pc}
 80007e4:	3034      	adds	r0, #52	; 0x34
 80007e6:	f7ff ffab 	bl	8000740 <sdc_lld_collect_errors.isra.0>
 80007ea:	2001      	movs	r0, #1
 80007ec:	bd10      	pop	{r4, pc}
 80007ee:	bf00      	nop

080007f0 <sdc_lld_error_cleanup>:
 80007f0:	e92d 41f0 	stmdb	sp!, {r4, r5, r6, r7, r8, lr}
 80007f4:	e9d0 3511 	ldrd	r3, r5, [r0, #68]	; 0x44
 80007f8:	4606      	mov	r6, r0
 80007fa:	7a18      	ldrb	r0, [r3, #8]
 80007fc:	f8d5 e034 	ldr.w	lr, [r5, #52]	; 0x34
 8000800:	e9d3 3c00 	ldrd	r3, ip, [r3]
 8000804:	243d      	movs	r4, #61	; 0x3d
 8000806:	fa04 f000 	lsl.w	r0, r4, r0
 800080a:	f8cc 0000 	str.w	r0, [ip]
 800080e:	681c      	ldr	r4, [r3, #0]
 8000810:	f024 041f 	bic.w	r4, r4, #31
 8000814:	4688      	mov	r8, r1
 8000816:	4617      	mov	r7, r2
 8000818:	601c      	str	r4, [r3, #0]
 800081a:	681c      	ldr	r4, [r3, #0]
 800081c:	f014 0401 	ands.w	r4, r4, #1
 8000820:	d1fb      	bne.n	800081a <sdc_lld_error_cleanup+0x2a>
 8000822:	4b0c      	ldr	r3, [pc, #48]	; (8000854 <sdc_lld_error_cleanup+0x64>)
 8000824:	f8cc 0000 	str.w	r0, [ip]
 8000828:	4671      	mov	r1, lr
 800082a:	63ab      	str	r3, [r5, #56]	; 0x38
 800082c:	f106 0034 	add.w	r0, r6, #52	; 0x34
 8000830:	63ec      	str	r4, [r5, #60]	; 0x3c
 8000832:	62ec      	str	r4, [r5, #44]	; 0x2c
 8000834:	f7ff ff84 	bl	8000740 <sdc_lld_collect_errors.isra.0>
 8000838:	f1b8 0f01 	cmp.w	r8, #1
 800083c:	d907      	bls.n	800084e <sdc_lld_error_cleanup+0x5e>
 800083e:	463b      	mov	r3, r7
 8000840:	4622      	mov	r2, r4
 8000842:	4630      	mov	r0, r6
 8000844:	210c      	movs	r1, #12
 8000846:	e8bd 41f0 	ldmia.w	sp!, {r4, r5, r6, r7, r8, lr}
 800084a:	f7ff bfb9 	b.w	80007c0 <sdc_lld_send_cmd_short_crc>
 800084e:	e8bd 81f0 	ldmia.w	sp!, {r4, r5, r6, r7, r8, pc}
 8000852:	bf00      	nop
 8000854:	00c007ff 	.word	0x00c007ff
	...

08000860 <sdcGetInfo>:
 8000860:	b128      	cbz	r0, 800086e <sdcGetInfo+0xe>
 8000862:	b121      	cbz	r1, 800086e <sdcGetInfo+0xe>
 8000864:	7903      	ldrb	r3, [r0, #4]
 8000866:	2b05      	cmp	r3, #5
 8000868:	d006      	beq.n	8000878 <sdcGetInfo+0x18>
 800086a:	2001      	movs	r0, #1
 800086c:	4770      	bx	lr
 800086e:	b672      	cpsid	i
 8000870:	4b05      	ldr	r3, [pc, #20]	; (8000888 <sdcGetInfo+0x28>)
 8000872:	4a06      	ldr	r2, [pc, #24]	; (800088c <sdcGetInfo+0x2c>)
 8000874:	62da      	str	r2, [r3, #44]	; 0x2c
 8000876:	e7fe      	b.n	8000876 <sdcGetInfo+0x16>
 8000878:	6a83      	ldr	r3, [r0, #40]	; 0x28
 800087a:	604b      	str	r3, [r1, #4]
 800087c:	f44f 7300 	mov.w	r3, #512	; 0x200
 8000880:	600b      	str	r3, [r1, #0]
 8000882:	2000      	movs	r0, #0
 8000884:	4770      	bx	lr
 8000886:	bf00      	nop
 8000888:	20004e78 	.word	0x20004e78
 800088c:	08004a70 	.word	0x08004a70

08000890 <sdcSync>:
 8000890:	b120      	cbz	r0, 800089c <sdcSync+0xc>
 8000892:	7900      	ldrb	r0, [r0, #4]
 8000894:	3805      	subs	r0, #5
 8000896:	bf18      	it	ne
 8000898:	2001      	movne	r0, #1
 800089a:	4770      	bx	lr
 800089c:	b672      	cpsid	i
 800089e:	4b02      	ldr	r3, [pc, #8]	; (80008a8 <sdcSync+0x18>)
 80008a0:	4a02      	ldr	r2, [pc, #8]	; (80008ac <sdcSync+0x1c>)
 80008a2:	62da      	str	r2, [r3, #44]	; 0x2c
 80008a4:	e7fe      	b.n	80008a4 <sdcSync+0x14>
 80008a6:	bf00      	nop
 80008a8:	20004e78 	.word	0x20004e78
 80008ac:	08004a60 	.word	0x08004a60

080008b0 <_mmcsd_get_slice>:
 80008b0:	4291      	cmp	r1, r2
 80008b2:	d302      	bcc.n	80008ba <_mmcsd_get_slice+0xa>
 80008b4:	1a8b      	subs	r3, r1, r2
 80008b6:	2b1f      	cmp	r3, #31
 80008b8:	d904      	bls.n	80008c4 <_mmcsd_get_slice+0x14>
 80008ba:	b672      	cpsid	i
 80008bc:	4b11      	ldr	r3, [pc, #68]	; (8000904 <_mmcsd_get_slice+0x54>)
 80008be:	4a12      	ldr	r2, [pc, #72]	; (8000908 <_mmcsd_get_slice+0x58>)
 80008c0:	62da      	str	r2, [r3, #44]	; 0x2c
 80008c2:	e7fe      	b.n	80008c2 <_mmcsd_get_slice+0x12>
 80008c4:	f001 031f 	and.w	r3, r1, #31
 80008c8:	b430      	push	{r4, r5}
 80008ca:	0949      	lsrs	r1, r1, #5
 80008cc:	1c5c      	adds	r4, r3, #1
 80008ce:	0955      	lsrs	r5, r2, #5
 80008d0:	2301      	movs	r3, #1
 80008d2:	40a3      	lsls	r3, r4
 80008d4:	428d      	cmp	r5, r1
 80008d6:	f103 33ff 	add.w	r3, r3, #4294967295	; 0xffffffff
 80008da:	f002 021f 	and.w	r2, r2, #31
 80008de:	f850 4025 	ldr.w	r4, [r0, r5, lsl #2]
 80008e2:	d304      	bcc.n	80008ee <_mmcsd_get_slice+0x3e>
 80008e4:	4023      	ands	r3, r4
 80008e6:	fa23 f002 	lsr.w	r0, r3, r2
 80008ea:	bc30      	pop	{r4, r5}
 80008ec:	4770      	bx	lr
 80008ee:	f850 0021 	ldr.w	r0, [r0, r1, lsl #2]
 80008f2:	f1c2 0120 	rsb	r1, r2, #32
 80008f6:	4018      	ands	r0, r3
 80008f8:	fa24 f202 	lsr.w	r2, r4, r2
 80008fc:	4088      	lsls	r0, r1
 80008fe:	4310      	orrs	r0, r2
 8000900:	e7f3      	b.n	80008ea <_mmcsd_get_slice+0x3a>
 8000902:	bf00      	nop
 8000904:	20004e78 	.word	0x20004e78
 8000908:	08004920 	.word	0x08004920
 800090c:	00000000 	.word	0x00000000

08000910 <_mmcsd_get_capacity>:
 8000910:	b570      	push	{r4, r5, r6, lr}
 8000912:	227e      	movs	r2, #126	; 0x7e
 8000914:	217f      	movs	r1, #127	; 0x7f
 8000916:	4605      	mov	r5, r0
 8000918:	f7ff ffca 	bl	80008b0 <_mmcsd_get_slice>
 800091c:	b148      	cbz	r0, 8000932 <_mmcsd_get_capacity+0x22>
 800091e:	2801      	cmp	r0, #1
 8000920:	d11f      	bne.n	8000962 <_mmcsd_get_capacity+0x52>
 8000922:	4628      	mov	r0, r5
 8000924:	2230      	movs	r2, #48	; 0x30
 8000926:	2145      	movs	r1, #69	; 0x45
 8000928:	f7ff ffc2 	bl	80008b0 <_mmcsd_get_slice>
 800092c:	3001      	adds	r0, #1
 800092e:	0280      	lsls	r0, r0, #10
 8000930:	e018      	b.n	8000964 <_mmcsd_get_capacity+0x54>
 8000932:	223e      	movs	r2, #62	; 0x3e
 8000934:	2149      	movs	r1, #73	; 0x49
 8000936:	4628      	mov	r0, r5
 8000938:	f7ff ffba 	bl	80008b0 <_mmcsd_get_slice>
 800093c:	222f      	movs	r2, #47	; 0x2f
 800093e:	4604      	mov	r4, r0
 8000940:	2131      	movs	r1, #49	; 0x31
 8000942:	4628      	mov	r0, r5
 8000944:	f7ff ffb4 	bl	80008b0 <_mmcsd_get_slice>
 8000948:	2250      	movs	r2, #80	; 0x50
 800094a:	4606      	mov	r6, r0
 800094c:	2153      	movs	r1, #83	; 0x53
 800094e:	4628      	mov	r0, r5
 8000950:	f7ff ffae 	bl	80008b0 <_mmcsd_get_slice>
 8000954:	3401      	adds	r4, #1
 8000956:	3602      	adds	r6, #2
 8000958:	3809      	subs	r0, #9
 800095a:	40b4      	lsls	r4, r6
 800095c:	fa04 f000 	lsl.w	r0, r4, r0
 8000960:	e000      	b.n	8000964 <_mmcsd_get_capacity+0x54>
 8000962:	2000      	movs	r0, #0
 8000964:	bd70      	pop	{r4, r5, r6, pc}
	...

08000970 <stSetAlarm>:
 8000970:	f04f 4380 	mov.w	r3, #1073741824	; 0x40000000
 8000974:	68da      	ldr	r2, [r3, #12]
 8000976:	0792      	lsls	r2, r2, #30
 8000978:	d501      	bpl.n	800097e <stSetAlarm+0xe>
 800097a:	6358      	str	r0, [r3, #52]	; 0x34
 800097c:	4770      	bx	lr
 800097e:	b672      	cpsid	i
 8000980:	4b01      	ldr	r3, [pc, #4]	; (8000988 <stSetAlarm+0x18>)
 8000982:	4a02      	ldr	r2, [pc, #8]	; (800098c <stSetAlarm+0x1c>)
 8000984:	62da      	str	r2, [r3, #44]	; 0x2c
 8000986:	e7fe      	b.n	8000986 <stSetAlarm+0x16>
 8000988:	20004e78 	.word	0x20004e78
 800098c:	08004940 	.word	0x08004940

08000990 <_port_irq_epilogue>:
 8000990:	2320      	movs	r3, #32
 8000992:	f383 8811 	msr	BASEPRI, r3
 8000996:	4b11      	ldr	r3, [pc, #68]	; (80009dc <_port_irq_epilogue+0x4c>)
 8000998:	685b      	ldr	r3, [r3, #4]
 800099a:	f413 6300 	ands.w	r3, r3, #2048	; 0x800
 800099e:	d102      	bne.n	80009a6 <_port_irq_epilogue+0x16>
 80009a0:	f383 8811 	msr	BASEPRI, r3
 80009a4:	4770      	bx	lr
 80009a6:	b480      	push	{r7}
 80009a8:	af00      	add	r7, sp, #0
 80009aa:	f3ef 8309 	mrs	r3, PSP
 80009ae:	f04f 7280 	mov.w	r2, #16777216	; 0x1000000
 80009b2:	f843 2c04 	str.w	r2, [r3, #-4]
 80009b6:	f1a3 0220 	sub.w	r2, r3, #32
 80009ba:	f382 8809 	msr	PSP, r2
 80009be:	4a08      	ldr	r2, [pc, #32]	; (80009e0 <_port_irq_epilogue+0x50>)
 80009c0:	6811      	ldr	r1, [r2, #0]
 80009c2:	6992      	ldr	r2, [r2, #24]
 80009c4:	6889      	ldr	r1, [r1, #8]
 80009c6:	6892      	ldr	r2, [r2, #8]
 80009c8:	4291      	cmp	r1, r2
 80009ca:	bf8c      	ite	hi
 80009cc:	4a05      	ldrhi	r2, [pc, #20]	; (80009e4 <_port_irq_epilogue+0x54>)
 80009ce:	4a06      	ldrls	r2, [pc, #24]	; (80009e8 <_port_irq_epilogue+0x58>)
 80009d0:	f843 2c08 	str.w	r2, [r3, #-8]
 80009d4:	46bd      	mov	sp, r7
 80009d6:	bc80      	pop	{r7}
 80009d8:	4770      	bx	lr
 80009da:	bf00      	nop
 80009dc:	e000ed00 	.word	0xe000ed00
 80009e0:	20004e78 	.word	0x20004e78
 80009e4:	080002a9 	.word	0x080002a9
 80009e8:	080002bc 	.word	0x080002bc
 80009ec:	00000000 	.word	0x00000000

080009f0 <SVC_Handler>:
 80009f0:	b480      	push	{r7}
 80009f2:	af00      	add	r7, sp, #0
 80009f4:	f3ef 8309 	mrs	r3, PSP
 80009f8:	3320      	adds	r3, #32
 80009fa:	f383 8809 	msr	PSP, r3
 80009fe:	2300      	movs	r3, #0
 8000a00:	f383 8811 	msr	BASEPRI, r3
 8000a04:	46bd      	mov	sp, r7
 8000a06:	bc80      	pop	{r7}
 8000a08:	4770      	bx	lr
 8000a0a:	bf00      	nop
 8000a0c:	0000      	movs	r0, r0
	...

08000a10 <_stats_increase_irq>:
 8000a10:	4a03      	ldr	r2, [pc, #12]	; (8000a20 <_stats_increase_irq+0x10>)
 8000a12:	f8d2 34a8 	ldr.w	r3, [r2, #1192]	; 0x4a8
 8000a16:	3301      	adds	r3, #1
 8000a18:	f8c2 34a8 	str.w	r3, [r2, #1192]	; 0x4a8
 8000a1c:	4770      	bx	lr
 8000a1e:	bf00      	nop
 8000a20:	20004e78 	.word	0x20004e78
	...

08000a30 <chTMChainMeasurementToX>:
 8000a30:	4b0e      	ldr	r3, [pc, #56]	; (8000a6c <chTMChainMeasurementToX+0x3c>)
 8000a32:	6842      	ldr	r2, [r0, #4]
 8000a34:	685b      	ldr	r3, [r3, #4]
 8000a36:	b4f0      	push	{r4, r5, r6, r7}
 8000a38:	608b      	str	r3, [r1, #8]
 8000a3a:	e9d0 6102 	ldrd	r6, r1, [r0, #8]
 8000a3e:	e9d0 4504 	ldrd	r4, r5, [r0, #16]
 8000a42:	1b9b      	subs	r3, r3, r6
 8000a44:	18e6      	adds	r6, r4, r3
 8000a46:	f145 0700 	adc.w	r7, r5, #0
 8000a4a:	3101      	adds	r1, #1
 8000a4c:	4293      	cmp	r3, r2
 8000a4e:	e9c0 3102 	strd	r3, r1, [r0, #8]
 8000a52:	e9c0 6704 	strd	r6, r7, [r0, #16]
 8000a56:	d805      	bhi.n	8000a64 <chTMChainMeasurementToX+0x34>
 8000a58:	6802      	ldr	r2, [r0, #0]
 8000a5a:	4293      	cmp	r3, r2
 8000a5c:	bf38      	it	cc
 8000a5e:	6003      	strcc	r3, [r0, #0]
 8000a60:	bcf0      	pop	{r4, r5, r6, r7}
 8000a62:	4770      	bx	lr
 8000a64:	6043      	str	r3, [r0, #4]
 8000a66:	bcf0      	pop	{r4, r5, r6, r7}
 8000a68:	4770      	bx	lr
 8000a6a:	bf00      	nop
 8000a6c:	e0001000 	.word	0xe0001000

08000a70 <chTMStopMeasurementX>:
 8000a70:	4b0f      	ldr	r3, [pc, #60]	; (8000ab0 <chTMStopMeasurementX+0x40>)
 8000a72:	4a10      	ldr	r2, [pc, #64]	; (8000ab4 <chTMStopMeasurementX+0x44>)
 8000a74:	685b      	ldr	r3, [r3, #4]
 8000a76:	68c1      	ldr	r1, [r0, #12]
 8000a78:	b4f0      	push	{r4, r5, r6, r7}
 8000a7a:	6884      	ldr	r4, [r0, #8]
 8000a7c:	f8d2 64a0 	ldr.w	r6, [r2, #1184]	; 0x4a0
 8000a80:	6842      	ldr	r2, [r0, #4]
 8000a82:	1b1b      	subs	r3, r3, r4
 8000a84:	e9d0 4504 	ldrd	r4, r5, [r0, #16]
 8000a88:	1b9b      	subs	r3, r3, r6
 8000a8a:	18e6      	adds	r6, r4, r3
 8000a8c:	f145 0700 	adc.w	r7, r5, #0
 8000a90:	3101      	adds	r1, #1
 8000a92:	4293      	cmp	r3, r2
 8000a94:	e9c0 3102 	strd	r3, r1, [r0, #8]
 8000a98:	e9c0 6704 	strd	r6, r7, [r0, #16]
 8000a9c:	d805      	bhi.n	8000aaa <chTMStopMeasurementX+0x3a>
 8000a9e:	6802      	ldr	r2, [r0, #0]
 8000aa0:	4293      	cmp	r3, r2
 8000aa2:	bf38      	it	cc
 8000aa4:	6003      	strcc	r3, [r0, #0]
 8000aa6:	bcf0      	pop	{r4, r5, r6, r7}
 8000aa8:	4770      	bx	lr
 8000aaa:	6043      	str	r3, [r0, #4]
 8000aac:	bcf0      	pop	{r4, r5, r6, r7}
 8000aae:	4770      	bx	lr
 8000ab0:	e0001000 	.word	0xe0001000
 8000ab4:	20004e78 	.word	0x20004e78
	...

08000ac0 <_stats_stop_measure_crit_isr>:
 8000ac0:	4801      	ldr	r0, [pc, #4]	; (8000ac8 <_stats_stop_measure_crit_isr+0x8>)
 8000ac2:	f7ff bfd5 	b.w	8000a70 <chTMStopMeasurementX>
 8000ac6:	bf00      	nop
 8000ac8:	20005340 	.word	0x20005340
 8000acc:	00000000 	.word	0x00000000

08000ad0 <chTMStartMeasurementX>:
 8000ad0:	4b01      	ldr	r3, [pc, #4]	; (8000ad8 <chTMStartMeasurementX+0x8>)
 8000ad2:	685b      	ldr	r3, [r3, #4]
 8000ad4:	6083      	str	r3, [r0, #8]
 8000ad6:	4770      	bx	lr
 8000ad8:	e0001000 	.word	0xe0001000
 8000adc:	00000000 	.word	0x00000000

08000ae0 <_stats_start_measure_crit_isr>:
 8000ae0:	4801      	ldr	r0, [pc, #4]	; (8000ae8 <_stats_start_measure_crit_isr+0x8>)
 8000ae2:	f7ff bff5 	b.w	8000ad0 <chTMStartMeasurementX>
 8000ae6:	bf00      	nop
 8000ae8:	20005340 	.word	0x20005340
 8000aec:	00000000 	.word	0x00000000

08000af0 <_thread_init>:
 8000af0:	b5f8      	push	{r3, r4, r5, r6, r7, lr}
 8000af2:	4c16      	ldr	r4, [pc, #88]	; (8000b4c <_thread_init+0x5c>)
 8000af4:	6104      	str	r4, [r0, #16]
 8000af6:	4602      	mov	r2, r0
 8000af8:	2302      	movs	r3, #2
 8000afa:	6960      	ldr	r0, [r4, #20]
 8000afc:	6411      	str	r1, [r2, #64]	; 0x40
 8000afe:	6091      	str	r1, [r2, #8]
 8000b00:	8413      	strh	r3, [r2, #32]
 8000b02:	f102 0128 	add.w	r1, r2, #40	; 0x28
 8000b06:	2300      	movs	r3, #0
 8000b08:	2501      	movs	r5, #1
 8000b0a:	6150      	str	r0, [r2, #20]
 8000b0c:	f882 5022 	strb.w	r5, [r2, #34]	; 0x22
 8000b10:	e9c2 330e 	strd	r3, r3, [r2, #56]	; 0x38
 8000b14:	f102 0560 	add.w	r5, r2, #96	; 0x60
 8000b18:	6193      	str	r3, [r2, #24]
 8000b1a:	2600      	movs	r6, #0
 8000b1c:	6102      	str	r2, [r0, #16]
 8000b1e:	2700      	movs	r7, #0
 8000b20:	6291      	str	r1, [r2, #40]	; 0x28
 8000b22:	f04f 30ff 	mov.w	r0, #4294967295	; 0xffffffff
 8000b26:	f102 012c 	add.w	r1, r2, #44	; 0x2c
 8000b2a:	6490      	str	r0, [r2, #72]	; 0x48
 8000b2c:	e9c2 3313 	strd	r3, r3, [r2, #76]	; 0x4c
 8000b30:	f102 0048 	add.w	r0, r2, #72	; 0x48
 8000b34:	6553      	str	r3, [r2, #84]	; 0x54
 8000b36:	61d5      	str	r5, [r2, #28]
 8000b38:	e9c2 6716 	strd	r6, r7, [r2, #88]	; 0x58
 8000b3c:	e9c2 110b 	strd	r1, r1, [r2, #44]	; 0x2c
 8000b40:	6162      	str	r2, [r4, #20]
 8000b42:	f7ff ffc5 	bl	8000ad0 <chTMStartMeasurementX>
 8000b46:	4610      	mov	r0, r2
 8000b48:	bdf8      	pop	{r3, r4, r5, r6, r7, pc}
 8000b4a:	bf00      	nop
 8000b4c:	20004e78 	.word	0x20004e78

08000b50 <_dbg_trace>:
 8000b50:	4a0b      	ldr	r2, [pc, #44]	; (8000b80 <_dbg_trace+0x30>)
 8000b52:	b430      	push	{r4, r5}
 8000b54:	6bd3      	ldr	r3, [r2, #60]	; 0x3c
 8000b56:	6a44      	ldr	r4, [r0, #36]	; 0x24
 8000b58:	6991      	ldr	r1, [r2, #24]
 8000b5a:	f04f 4580 	mov.w	r5, #1073741824	; 0x40000000
 8000b5e:	6a6d      	ldr	r5, [r5, #36]	; 0x24
 8000b60:	601d      	str	r5, [r3, #0]
 8000b62:	e9c3 1401 	strd	r1, r4, [r3, #4]
 8000b66:	f890 1020 	ldrb.w	r1, [r0, #32]
 8000b6a:	7319      	strb	r1, [r3, #12]
 8000b6c:	3310      	adds	r3, #16
 8000b6e:	f502 6188 	add.w	r1, r2, #1088	; 0x440
 8000b72:	428b      	cmp	r3, r1
 8000b74:	bf28      	it	cs
 8000b76:	f102 0340 	addcs.w	r3, r2, #64	; 0x40
 8000b7a:	63d3      	str	r3, [r2, #60]	; 0x3c
 8000b7c:	bc30      	pop	{r4, r5}
 8000b7e:	4770      	bx	lr
 8000b80:	20004e78 	.word	0x20004e78
	...

08000b90 <chDbgCheckClassS>:
 8000b90:	4b05      	ldr	r3, [pc, #20]	; (8000ba8 <chDbgCheckClassS+0x18>)
 8000b92:	6b1a      	ldr	r2, [r3, #48]	; 0x30
 8000b94:	b91a      	cbnz	r2, 8000b9e <chDbgCheckClassS+0xe>
 8000b96:	6b5a      	ldr	r2, [r3, #52]	; 0x34
 8000b98:	2a00      	cmp	r2, #0
 8000b9a:	dd00      	ble.n	8000b9e <chDbgCheckClassS+0xe>
 8000b9c:	4770      	bx	lr
 8000b9e:	b672      	cpsid	i
 8000ba0:	4a02      	ldr	r2, [pc, #8]	; (8000bac <chDbgCheckClassS+0x1c>)
 8000ba2:	62da      	str	r2, [r3, #44]	; 0x2c
 8000ba4:	e7fe      	b.n	8000ba4 <chDbgCheckClassS+0x14>
 8000ba6:	bf00      	nop
 8000ba8:	20004e78 	.word	0x20004e78
 8000bac:	08004bf0 	.word	0x08004bf0

08000bb0 <chDbgCheckClassI>:
 8000bb0:	4b05      	ldr	r3, [pc, #20]	; (8000bc8 <chDbgCheckClassI+0x18>)
 8000bb2:	6b1a      	ldr	r2, [r3, #48]	; 0x30
 8000bb4:	2a00      	cmp	r2, #0
 8000bb6:	db03      	blt.n	8000bc0 <chDbgCheckClassI+0x10>
 8000bb8:	6b5a      	ldr	r2, [r3, #52]	; 0x34
 8000bba:	2a00      	cmp	r2, #0
 8000bbc:	dd00      	ble.n	8000bc0 <chDbgCheckClassI+0x10>
 8000bbe:	4770      	bx	lr
 8000bc0:	b672      	cpsid	i
 8000bc2:	4a02      	ldr	r2, [pc, #8]	; (8000bcc <chDbgCheckClassI+0x1c>)
 8000bc4:	62da      	str	r2, [r3, #44]	; 0x2c
 8000bc6:	e7fe      	b.n	8000bc6 <chDbgCheckClassI+0x16>
 8000bc8:	20004e78 	.word	0x20004e78
 8000bcc:	08004be0 	.word	0x08004be0

08000bd0 <chSchReadyI>:
 8000bd0:	b508      	push	{r3, lr}
 8000bd2:	f7ff ffed 	bl	8000bb0 <chDbgCheckClassI>
 8000bd6:	b1d0      	cbz	r0, 8000c0e <chSchReadyI+0x3e>
 8000bd8:	f890 3020 	ldrb.w	r3, [r0, #32]
 8000bdc:	4601      	mov	r1, r0
 8000bde:	b18b      	cbz	r3, 8000c04 <chSchReadyI+0x34>
 8000be0:	2b0f      	cmp	r3, #15
 8000be2:	d00f      	beq.n	8000c04 <chSchReadyI+0x34>
 8000be4:	2200      	movs	r2, #0
 8000be6:	4b0c      	ldr	r3, [pc, #48]	; (8000c18 <chSchReadyI+0x48>)
 8000be8:	6880      	ldr	r0, [r0, #8]
 8000bea:	f881 2020 	strb.w	r2, [r1, #32]
 8000bee:	681b      	ldr	r3, [r3, #0]
 8000bf0:	689a      	ldr	r2, [r3, #8]
 8000bf2:	4282      	cmp	r2, r0
 8000bf4:	d2fb      	bcs.n	8000bee <chSchReadyI+0x1e>
 8000bf6:	685a      	ldr	r2, [r3, #4]
 8000bf8:	4608      	mov	r0, r1
 8000bfa:	e9c1 3200 	strd	r3, r2, [r1]
 8000bfe:	6011      	str	r1, [r2, #0]
 8000c00:	6059      	str	r1, [r3, #4]
 8000c02:	bd08      	pop	{r3, pc}
 8000c04:	b672      	cpsid	i
 8000c06:	4b04      	ldr	r3, [pc, #16]	; (8000c18 <chSchReadyI+0x48>)
 8000c08:	4a04      	ldr	r2, [pc, #16]	; (8000c1c <chSchReadyI+0x4c>)
 8000c0a:	62da      	str	r2, [r3, #44]	; 0x2c
 8000c0c:	e7fe      	b.n	8000c0c <chSchReadyI+0x3c>
 8000c0e:	b672      	cpsid	i
 8000c10:	4b01      	ldr	r3, [pc, #4]	; (8000c18 <chSchReadyI+0x48>)
 8000c12:	4a02      	ldr	r2, [pc, #8]	; (8000c1c <chSchReadyI+0x4c>)
 8000c14:	62da      	str	r2, [r3, #44]	; 0x2c
 8000c16:	e7fe      	b.n	8000c16 <chSchReadyI+0x46>
 8000c18:	20004e78 	.word	0x20004e78
 8000c1c:	08004810 	.word	0x08004810

08000c20 <chThdDequeueNextI.constprop.26>:
 8000c20:	6803      	ldr	r3, [r0, #0]
 8000c22:	4298      	cmp	r0, r3
 8000c24:	d00b      	beq.n	8000c3e <chThdDequeueNextI.constprop.26+0x1e>
 8000c26:	681a      	ldr	r2, [r3, #0]
 8000c28:	6002      	str	r2, [r0, #0]
 8000c2a:	6050      	str	r0, [r2, #4]
 8000c2c:	f893 2020 	ldrb.w	r2, [r3, #32]
 8000c30:	2a04      	cmp	r2, #4
 8000c32:	d005      	beq.n	8000c40 <chThdDequeueNextI.constprop.26+0x20>
 8000c34:	b672      	cpsid	i
 8000c36:	4b05      	ldr	r3, [pc, #20]	; (8000c4c <chThdDequeueNextI.constprop.26+0x2c>)
 8000c38:	4a05      	ldr	r2, [pc, #20]	; (8000c50 <chThdDequeueNextI.constprop.26+0x30>)
 8000c3a:	62da      	str	r2, [r3, #44]	; 0x2c
 8000c3c:	e7fe      	b.n	8000c3c <chThdDequeueNextI.constprop.26+0x1c>
 8000c3e:	4770      	bx	lr
 8000c40:	2200      	movs	r2, #0
 8000c42:	625a      	str	r2, [r3, #36]	; 0x24
 8000c44:	4618      	mov	r0, r3
 8000c46:	f7ff bfc3 	b.w	8000bd0 <chSchReadyI>
 8000c4a:	bf00      	nop
 8000c4c:	20004e78 	.word	0x20004e78
 8000c50:	080047b0 	.word	0x080047b0
	...

08000c60 <chEvtBroadcastFlagsI>:
 8000c60:	b5f8      	push	{r3, r4, r5, r6, r7, lr}
 8000c62:	f7ff ffa5 	bl	8000bb0 <chDbgCheckClassI>
 8000c66:	b348      	cbz	r0, 8000cbc <chEvtBroadcastFlagsI+0x5c>
 8000c68:	6804      	ldr	r4, [r0, #0]
 8000c6a:	42a0      	cmp	r0, r4
 8000c6c:	4605      	mov	r5, r0
 8000c6e:	d01d      	beq.n	8000cac <chEvtBroadcastFlagsI+0x4c>
 8000c70:	460e      	mov	r6, r1
 8000c72:	2700      	movs	r7, #0
 8000c74:	68e3      	ldr	r3, [r4, #12]
 8000c76:	4333      	orrs	r3, r6
 8000c78:	60e3      	str	r3, [r4, #12]
 8000c7a:	b116      	cbz	r6, 8000c82 <chEvtBroadcastFlagsI+0x22>
 8000c7c:	6922      	ldr	r2, [r4, #16]
 8000c7e:	4213      	tst	r3, r2
 8000c80:	d011      	beq.n	8000ca6 <chEvtBroadcastFlagsI+0x46>
 8000c82:	e9d4 0101 	ldrd	r0, r1, [r4, #4]
 8000c86:	f7ff ff93 	bl	8000bb0 <chDbgCheckClassI>
 8000c8a:	b1e0      	cbz	r0, 8000cc6 <chEvtBroadcastFlagsI+0x66>
 8000c8c:	6b83      	ldr	r3, [r0, #56]	; 0x38
 8000c8e:	f890 2020 	ldrb.w	r2, [r0, #32]
 8000c92:	430b      	orrs	r3, r1
 8000c94:	2a0a      	cmp	r2, #10
 8000c96:	6383      	str	r3, [r0, #56]	; 0x38
 8000c98:	d009      	beq.n	8000cae <chEvtBroadcastFlagsI+0x4e>
 8000c9a:	2a0b      	cmp	r2, #11
 8000c9c:	d103      	bne.n	8000ca6 <chEvtBroadcastFlagsI+0x46>
 8000c9e:	6a42      	ldr	r2, [r0, #36]	; 0x24
 8000ca0:	ea32 0303 	bics.w	r3, r2, r3
 8000ca4:	d006      	beq.n	8000cb4 <chEvtBroadcastFlagsI+0x54>
 8000ca6:	6824      	ldr	r4, [r4, #0]
 8000ca8:	42a5      	cmp	r5, r4
 8000caa:	d1e3      	bne.n	8000c74 <chEvtBroadcastFlagsI+0x14>
 8000cac:	bdf8      	pop	{r3, r4, r5, r6, r7, pc}
 8000cae:	6a42      	ldr	r2, [r0, #36]	; 0x24
 8000cb0:	4213      	tst	r3, r2
 8000cb2:	d0f8      	beq.n	8000ca6 <chEvtBroadcastFlagsI+0x46>
 8000cb4:	6247      	str	r7, [r0, #36]	; 0x24
 8000cb6:	f7ff ff8b 	bl	8000bd0 <chSchReadyI>
 8000cba:	e7f4      	b.n	8000ca6 <chEvtBroadcastFlagsI+0x46>
 8000cbc:	b672      	cpsid	i
 8000cbe:	4b04      	ldr	r3, [pc, #16]	; (8000cd0 <chEvtBroadcastFlagsI+0x70>)
 8000cc0:	4a04      	ldr	r2, [pc, #16]	; (8000cd4 <chEvtBroadcastFlagsI+0x74>)
 8000cc2:	62da      	str	r2, [r3, #44]	; 0x2c
 8000cc4:	e7fe      	b.n	8000cc4 <chEvtBroadcastFlagsI+0x64>
 8000cc6:	b672      	cpsid	i
 8000cc8:	4b01      	ldr	r3, [pc, #4]	; (8000cd0 <chEvtBroadcastFlagsI+0x70>)
 8000cca:	4a03      	ldr	r2, [pc, #12]	; (8000cd8 <chEvtBroadcastFlagsI+0x78>)
 8000ccc:	62da      	str	r2, [r3, #44]	; 0x2c
 8000cce:	e7fe      	b.n	8000cce <chEvtBroadcastFlagsI+0x6e>
 8000cd0:	20004e78 	.word	0x20004e78
 8000cd4:	08004860 	.word	0x08004860
 8000cd8:	080048b0 	.word	0x080048b0
 8000cdc:	00000000 	.word	0x00000000

08000ce0 <_dbg_check_leave_isr>:
 8000ce0:	2320      	movs	r3, #32
 8000ce2:	f383 8811 	msr	BASEPRI, r3
 8000ce6:	4b07      	ldr	r3, [pc, #28]	; (8000d04 <_dbg_check_leave_isr+0x24>)
 8000ce8:	6b1a      	ldr	r2, [r3, #48]	; 0x30
 8000cea:	2a00      	cmp	r2, #0
 8000cec:	dd01      	ble.n	8000cf2 <_dbg_check_leave_isr+0x12>
 8000cee:	6b59      	ldr	r1, [r3, #52]	; 0x34
 8000cf0:	b119      	cbz	r1, 8000cfa <_dbg_check_leave_isr+0x1a>
 8000cf2:	b672      	cpsid	i
 8000cf4:	4a04      	ldr	r2, [pc, #16]	; (8000d08 <_dbg_check_leave_isr+0x28>)
 8000cf6:	62da      	str	r2, [r3, #44]	; 0x2c
 8000cf8:	e7fe      	b.n	8000cf8 <_dbg_check_leave_isr+0x18>
 8000cfa:	3a01      	subs	r2, #1
 8000cfc:	631a      	str	r2, [r3, #48]	; 0x30
 8000cfe:	f381 8811 	msr	BASEPRI, r1
 8000d02:	4770      	bx	lr
 8000d04:	20004e78 	.word	0x20004e78
 8000d08:	08004aa0 	.word	0x08004aa0
 8000d0c:	00000000 	.word	0x00000000

08000d10 <_dbg_check_enter_isr>:
 8000d10:	2320      	movs	r3, #32
 8000d12:	f383 8811 	msr	BASEPRI, r3
 8000d16:	4b07      	ldr	r3, [pc, #28]	; (8000d34 <_dbg_check_enter_isr+0x24>)
 8000d18:	6b1a      	ldr	r2, [r3, #48]	; 0x30
 8000d1a:	2a00      	cmp	r2, #0
 8000d1c:	db01      	blt.n	8000d22 <_dbg_check_enter_isr+0x12>
 8000d1e:	6b59      	ldr	r1, [r3, #52]	; 0x34
 8000d20:	b119      	cbz	r1, 8000d2a <_dbg_check_enter_isr+0x1a>
 8000d22:	b672      	cpsid	i
 8000d24:	4a04      	ldr	r2, [pc, #16]	; (8000d38 <_dbg_check_enter_isr+0x28>)
 8000d26:	62da      	str	r2, [r3, #44]	; 0x2c
 8000d28:	e7fe      	b.n	8000d28 <_dbg_check_enter_isr+0x18>
 8000d2a:	3201      	adds	r2, #1
 8000d2c:	631a      	str	r2, [r3, #48]	; 0x30
 8000d2e:	f381 8811 	msr	BASEPRI, r1
 8000d32:	4770      	bx	lr
 8000d34:	20004e78 	.word	0x20004e78
 8000d38:	08004a90 	.word	0x08004a90
 8000d3c:	00000000 	.word	0x00000000

08000d40 <Vector158>:
 8000d40:	b510      	push	{r4, lr}
 8000d42:	f7ff fe65 	bl	8000a10 <_stats_increase_irq>
 8000d46:	f7ff ffe3 	bl	8000d10 <_dbg_check_enter_isr>
 8000d4a:	4b09      	ldr	r3, [pc, #36]	; (8000d70 <Vector158+0x30>)
 8000d4c:	4809      	ldr	r0, [pc, #36]	; (8000d74 <Vector158+0x34>)
 8000d4e:	6859      	ldr	r1, [r3, #4]
 8000d50:	6f82      	ldr	r2, [r0, #120]	; 0x78
 8000d52:	0d89      	lsrs	r1, r1, #22
 8000d54:	f001 013d 	and.w	r1, r1, #61	; 0x3d
 8000d58:	058c      	lsls	r4, r1, #22
 8000d5a:	60dc      	str	r4, [r3, #12]
 8000d5c:	b10a      	cbz	r2, 8000d62 <Vector158+0x22>
 8000d5e:	6fc0      	ldr	r0, [r0, #124]	; 0x7c
 8000d60:	4790      	blx	r2
 8000d62:	f7ff ffbd 	bl	8000ce0 <_dbg_check_leave_isr>
 8000d66:	e8bd 4010 	ldmia.w	sp!, {r4, lr}
 8000d6a:	f7ff be11 	b.w	8000990 <_port_irq_epilogue>
 8000d6e:	bf00      	nop
 8000d70:	40026400 	.word	0x40026400
 8000d74:	20005470 	.word	0x20005470
	...

08000d80 <Vector154>:
 8000d80:	b510      	push	{r4, lr}
 8000d82:	f7ff fe45 	bl	8000a10 <_stats_increase_irq>
 8000d86:	f7ff ffc3 	bl	8000d10 <_dbg_check_enter_isr>
 8000d8a:	4b09      	ldr	r3, [pc, #36]	; (8000db0 <Vector154+0x30>)
 8000d8c:	4809      	ldr	r0, [pc, #36]	; (8000db4 <Vector154+0x34>)
 8000d8e:	6859      	ldr	r1, [r3, #4]
 8000d90:	6f02      	ldr	r2, [r0, #112]	; 0x70
 8000d92:	0c09      	lsrs	r1, r1, #16
 8000d94:	f001 013d 	and.w	r1, r1, #61	; 0x3d
 8000d98:	040c      	lsls	r4, r1, #16
 8000d9a:	60dc      	str	r4, [r3, #12]
 8000d9c:	b10a      	cbz	r2, 8000da2 <Vector154+0x22>
 8000d9e:	6f40      	ldr	r0, [r0, #116]	; 0x74
 8000da0:	4790      	blx	r2
 8000da2:	f7ff ff9d 	bl	8000ce0 <_dbg_check_leave_isr>
 8000da6:	e8bd 4010 	ldmia.w	sp!, {r4, lr}
 8000daa:	f7ff bdf1 	b.w	8000990 <_port_irq_epilogue>
 8000dae:	bf00      	nop
 8000db0:	40026400 	.word	0x40026400
 8000db4:	20005470 	.word	0x20005470
	...

08000dc0 <Vector150>:
 8000dc0:	b510      	push	{r4, lr}
 8000dc2:	f7ff fe25 	bl	8000a10 <_stats_increase_irq>
 8000dc6:	f7ff ffa3 	bl	8000d10 <_dbg_check_enter_isr>
 8000dca:	4b09      	ldr	r3, [pc, #36]	; (8000df0 <Vector150+0x30>)
 8000dcc:	4809      	ldr	r0, [pc, #36]	; (8000df4 <Vector150+0x34>)
 8000dce:	6859      	ldr	r1, [r3, #4]
 8000dd0:	6e82      	ldr	r2, [r0, #104]	; 0x68
 8000dd2:	0989      	lsrs	r1, r1, #6
 8000dd4:	f001 013d 	and.w	r1, r1, #61	; 0x3d
 8000dd8:	018c      	lsls	r4, r1, #6
 8000dda:	60dc      	str	r4, [r3, #12]
 8000ddc:	b10a      	cbz	r2, 8000de2 <Vector150+0x22>
 8000dde:	6ec0      	ldr	r0, [r0, #108]	; 0x6c
 8000de0:	4790      	blx	r2
 8000de2:	f7ff ff7d 	bl	8000ce0 <_dbg_check_leave_isr>
 8000de6:	e8bd 4010 	ldmia.w	sp!, {r4, lr}
 8000dea:	f7ff bdd1 	b.w	8000990 <_port_irq_epilogue>
 8000dee:	bf00      	nop
 8000df0:	40026400 	.word	0x40026400
 8000df4:	20005470 	.word	0x20005470
	...

08000e00 <Vector130>:
 8000e00:	b508      	push	{r3, lr}
 8000e02:	f7ff fe05 	bl	8000a10 <_stats_increase_irq>
 8000e06:	f7ff ff83 	bl	8000d10 <_dbg_check_enter_isr>
 8000e0a:	4b08      	ldr	r3, [pc, #32]	; (8000e2c <Vector130+0x2c>)
 8000e0c:	4808      	ldr	r0, [pc, #32]	; (8000e30 <Vector130+0x30>)
 8000e0e:	6859      	ldr	r1, [r3, #4]
 8000e10:	6e02      	ldr	r2, [r0, #96]	; 0x60
 8000e12:	f001 013d 	and.w	r1, r1, #61	; 0x3d
 8000e16:	60d9      	str	r1, [r3, #12]
 8000e18:	b10a      	cbz	r2, 8000e1e <Vector130+0x1e>
 8000e1a:	6e40      	ldr	r0, [r0, #100]	; 0x64
 8000e1c:	4790      	blx	r2
 8000e1e:	f7ff ff5f 	bl	8000ce0 <_dbg_check_leave_isr>
 8000e22:	e8bd 4008 	ldmia.w	sp!, {r3, lr}
 8000e26:	f7ff bdb3 	b.w	8000990 <_port_irq_epilogue>
 8000e2a:	bf00      	nop
 8000e2c:	40026400 	.word	0x40026400
 8000e30:	20005470 	.word	0x20005470
	...

08000e40 <Vector12C>:
 8000e40:	b510      	push	{r4, lr}
 8000e42:	f7ff fde5 	bl	8000a10 <_stats_increase_irq>
 8000e46:	f7ff ff63 	bl	8000d10 <_dbg_check_enter_isr>
 8000e4a:	4b09      	ldr	r3, [pc, #36]	; (8000e70 <Vector12C+0x30>)
 8000e4c:	4809      	ldr	r0, [pc, #36]	; (8000e74 <Vector12C+0x34>)
 8000e4e:	6819      	ldr	r1, [r3, #0]
 8000e50:	6d82      	ldr	r2, [r0, #88]	; 0x58
 8000e52:	0d89      	lsrs	r1, r1, #22
 8000e54:	f001 013d 	and.w	r1, r1, #61	; 0x3d
 8000e58:	058c      	lsls	r4, r1, #22
 8000e5a:	609c      	str	r4, [r3, #8]
 8000e5c:	b10a      	cbz	r2, 8000e62 <Vector12C+0x22>
 8000e5e:	6dc0      	ldr	r0, [r0, #92]	; 0x5c
 8000e60:	4790      	blx	r2
 8000e62:	f7ff ff3d 	bl	8000ce0 <_dbg_check_leave_isr>
 8000e66:	e8bd 4010 	ldmia.w	sp!, {r4, lr}
 8000e6a:	f7ff bd91 	b.w	8000990 <_port_irq_epilogue>
 8000e6e:	bf00      	nop
 8000e70:	40026400 	.word	0x40026400
 8000e74:	20005470 	.word	0x20005470
	...

08000e80 <Vector128>:
 8000e80:	b510      	push	{r4, lr}
 8000e82:	f7ff fdc5 	bl	8000a10 <_stats_increase_irq>
 8000e86:	f7ff ff43 	bl	8000d10 <_dbg_check_enter_isr>
 8000e8a:	4b09      	ldr	r3, [pc, #36]	; (8000eb0 <Vector128+0x30>)
 8000e8c:	4809      	ldr	r0, [pc, #36]	; (8000eb4 <Vector128+0x34>)
 8000e8e:	6819      	ldr	r1, [r3, #0]
 8000e90:	6d02      	ldr	r2, [r0, #80]	; 0x50
 8000e92:	0c09      	lsrs	r1, r1, #16
 8000e94:	f001 013d 	and.w	r1, r1, #61	; 0x3d
 8000e98:	040c      	lsls	r4, r1, #16
 8000e9a:	609c      	str	r4, [r3, #8]
 8000e9c:	b10a      	cbz	r2, 8000ea2 <Vector128+0x22>
 8000e9e:	6d40      	ldr	r0, [r0, #84]	; 0x54
 8000ea0:	4790      	blx	r2
 8000ea2:	f7ff ff1d 	bl	8000ce0 <_dbg_check_leave_isr>
 8000ea6:	e8bd 4010 	ldmia.w	sp!, {r4, lr}
 8000eaa:	f7ff bd71 	b.w	8000990 <_port_irq_epilogue>
 8000eae:	bf00      	nop
 8000eb0:	40026400 	.word	0x40026400
 8000eb4:	20005470 	.word	0x20005470
	...

08000ec0 <Vector124>:
 8000ec0:	b510      	push	{r4, lr}
 8000ec2:	f7ff fda5 	bl	8000a10 <_stats_increase_irq>
 8000ec6:	f7ff ff23 	bl	8000d10 <_dbg_check_enter_isr>
 8000eca:	4b09      	ldr	r3, [pc, #36]	; (8000ef0 <Vector124+0x30>)
 8000ecc:	4809      	ldr	r0, [pc, #36]	; (8000ef4 <Vector124+0x34>)
 8000ece:	6819      	ldr	r1, [r3, #0]
 8000ed0:	6c82      	ldr	r2, [r0, #72]	; 0x48
 8000ed2:	0989      	lsrs	r1, r1, #6
 8000ed4:	f001 013d 	and.w	r1, r1, #61	; 0x3d
 8000ed8:	018c      	lsls	r4, r1, #6
 8000eda:	609c      	str	r4, [r3, #8]
 8000edc:	b10a      	cbz	r2, 8000ee2 <Vector124+0x22>
 8000ede:	6cc0      	ldr	r0, [r0, #76]	; 0x4c
 8000ee0:	4790      	blx	r2
 8000ee2:	f7ff fefd 	bl	8000ce0 <_dbg_check_leave_isr>
 8000ee6:	e8bd 4010 	ldmia.w	sp!, {r4, lr}
 8000eea:	f7ff bd51 	b.w	8000990 <_port_irq_epilogue>
 8000eee:	bf00      	nop
 8000ef0:	40026400 	.word	0x40026400
 8000ef4:	20005470 	.word	0x20005470
	...

08000f00 <Vector120>:
 8000f00:	b508      	push	{r3, lr}
 8000f02:	f7ff fd85 	bl	8000a10 <_stats_increase_irq>
 8000f06:	f7ff ff03 	bl	8000d10 <_dbg_check_enter_isr>
 8000f0a:	4b08      	ldr	r3, [pc, #32]	; (8000f2c <Vector120+0x2c>)
 8000f0c:	4808      	ldr	r0, [pc, #32]	; (8000f30 <Vector120+0x30>)
 8000f0e:	6819      	ldr	r1, [r3, #0]
 8000f10:	6c02      	ldr	r2, [r0, #64]	; 0x40
 8000f12:	f001 013d 	and.w	r1, r1, #61	; 0x3d
 8000f16:	6099      	str	r1, [r3, #8]
 8000f18:	b10a      	cbz	r2, 8000f1e <Vector120+0x1e>
 8000f1a:	6c40      	ldr	r0, [r0, #68]	; 0x44
 8000f1c:	4790      	blx	r2
 8000f1e:	f7ff fedf 	bl	8000ce0 <_dbg_check_leave_isr>
 8000f22:	e8bd 4008 	ldmia.w	sp!, {r3, lr}
 8000f26:	f7ff bd33 	b.w	8000990 <_port_irq_epilogue>
 8000f2a:	bf00      	nop
 8000f2c:	40026400 	.word	0x40026400
 8000f30:	20005470 	.word	0x20005470
	...

08000f40 <VectorFC>:
 8000f40:	b510      	push	{r4, lr}
 8000f42:	f7ff fd65 	bl	8000a10 <_stats_increase_irq>
 8000f46:	f7ff fee3 	bl	8000d10 <_dbg_check_enter_isr>
 8000f4a:	4b09      	ldr	r3, [pc, #36]	; (8000f70 <VectorFC+0x30>)
 8000f4c:	4809      	ldr	r0, [pc, #36]	; (8000f74 <VectorFC+0x34>)
 8000f4e:	6859      	ldr	r1, [r3, #4]
 8000f50:	6b82      	ldr	r2, [r0, #56]	; 0x38
 8000f52:	0d89      	lsrs	r1, r1, #22
 8000f54:	f001 013d 	and.w	r1, r1, #61	; 0x3d
 8000f58:	058c      	lsls	r4, r1, #22
 8000f5a:	60dc      	str	r4, [r3, #12]
 8000f5c:	b10a      	cbz	r2, 8000f62 <VectorFC+0x22>
 8000f5e:	6bc0      	ldr	r0, [r0, #60]	; 0x3c
 8000f60:	4790      	blx	r2
 8000f62:	f7ff febd 	bl	8000ce0 <_dbg_check_leave_isr>
 8000f66:	e8bd 4010 	ldmia.w	sp!, {r4, lr}
 8000f6a:	f7ff bd11 	b.w	8000990 <_port_irq_epilogue>
 8000f6e:	bf00      	nop
 8000f70:	40026000 	.word	0x40026000
 8000f74:	20005470 	.word	0x20005470
	...

08000f80 <Vector84>:
 8000f80:	b510      	push	{r4, lr}
 8000f82:	f7ff fd45 	bl	8000a10 <_stats_increase_irq>
 8000f86:	f7ff fec3 	bl	8000d10 <_dbg_check_enter_isr>
 8000f8a:	4b09      	ldr	r3, [pc, #36]	; (8000fb0 <Vector84+0x30>)
 8000f8c:	4809      	ldr	r0, [pc, #36]	; (8000fb4 <Vector84+0x34>)
 8000f8e:	6859      	ldr	r1, [r3, #4]
 8000f90:	6b02      	ldr	r2, [r0, #48]	; 0x30
 8000f92:	0c09      	lsrs	r1, r1, #16
 8000f94:	f001 013d 	and.w	r1, r1, #61	; 0x3d
 8000f98:	040c      	lsls	r4, r1, #16
 8000f9a:	60dc      	str	r4, [r3, #12]
 8000f9c:	b10a      	cbz	r2, 8000fa2 <Vector84+0x22>
 8000f9e:	6b40      	ldr	r0, [r0, #52]	; 0x34
 8000fa0:	4790      	blx	r2
 8000fa2:	f7ff fe9d 	bl	8000ce0 <_dbg_check_leave_isr>
 8000fa6:	e8bd 4010 	ldmia.w	sp!, {r4, lr}
 8000faa:	f7ff bcf1 	b.w	8000990 <_port_irq_epilogue>
 8000fae:	bf00      	nop
 8000fb0:	40026000 	.word	0x40026000
 8000fb4:	20005470 	.word	0x20005470
	...

08000fc0 <Vector80>:
 8000fc0:	b510      	push	{r4, lr}
 8000fc2:	f7ff fd25 	bl	8000a10 <_stats_increase_irq>
 8000fc6:	f7ff fea3 	bl	8000d10 <_dbg_check_enter_isr>
 8000fca:	4b09      	ldr	r3, [pc, #36]	; (8000ff0 <Vector80+0x30>)
 8000fcc:	4809      	ldr	r0, [pc, #36]	; (8000ff4 <Vector80+0x34>)
 8000fce:	6859      	ldr	r1, [r3, #4]
 8000fd0:	6a82      	ldr	r2, [r0, #40]	; 0x28
 8000fd2:	0989      	lsrs	r1, r1, #6
 8000fd4:	f001 013d 	and.w	r1, r1, #61	; 0x3d
 8000fd8:	018c      	lsls	r4, r1, #6
 8000fda:	60dc      	str	r4, [r3, #12]
 8000fdc:	b10a      	cbz	r2, 8000fe2 <Vector80+0x22>
 8000fde:	6ac0      	ldr	r0, [r0, #44]	; 0x2c
 8000fe0:	4790      	blx	r2
 8000fe2:	f7ff fe7d 	bl	8000ce0 <_dbg_check_leave_isr>
 8000fe6:	e8bd 4010 	ldmia.w	sp!, {r4, lr}
 8000fea:	f7ff bcd1 	b.w	8000990 <_port_irq_epilogue>
 8000fee:	bf00      	nop
 8000ff0:	40026000 	.word	0x40026000
 8000ff4:	20005470 	.word	0x20005470
	...

08001000 <Vector7C>:
 8001000:	b508      	push	{r3, lr}
 8001002:	f7ff fd05 	bl	8000a10 <_stats_increase_irq>
 8001006:	f7ff fe83 	bl	8000d10 <_dbg_check_enter_isr>
 800100a:	4b08      	ldr	r3, [pc, #32]	; (800102c <Vector7C+0x2c>)
 800100c:	4808      	ldr	r0, [pc, #32]	; (8001030 <Vector7C+0x30>)
 800100e:	6859      	ldr	r1, [r3, #4]
 8001010:	6a02      	ldr	r2, [r0, #32]
 8001012:	f001 013d 	and.w	r1, r1, #61	; 0x3d
 8001016:	60d9      	str	r1, [r3, #12]
 8001018:	b10a      	cbz	r2, 800101e <Vector7C+0x1e>
 800101a:	6a40      	ldr	r0, [r0, #36]	; 0x24
 800101c:	4790      	blx	r2
 800101e:	f7ff fe5f 	bl	8000ce0 <_dbg_check_leave_isr>
 8001022:	e8bd 4008 	ldmia.w	sp!, {r3, lr}
 8001026:	f7ff bcb3 	b.w	8000990 <_port_irq_epilogue>
 800102a:	bf00      	nop
 800102c:	40026000 	.word	0x40026000
 8001030:	20005470 	.word	0x20005470
	...

08001040 <Vector78>:
 8001040:	b510      	push	{r4, lr}
 8001042:	f7ff fce5 	bl	8000a10 <_stats_increase_irq>
 8001046:	f7ff fe63 	bl	8000d10 <_dbg_check_enter_isr>
 800104a:	4b09      	ldr	r3, [pc, #36]	; (8001070 <Vector78+0x30>)
 800104c:	4809      	ldr	r0, [pc, #36]	; (8001074 <Vector78+0x34>)
 800104e:	6819      	ldr	r1, [r3, #0]
 8001050:	6982      	ldr	r2, [r0, #24]
 8001052:	0d89      	lsrs	r1, r1, #22
 8001054:	f001 013d 	and.w	r1, r1, #61	; 0x3d
 8001058:	058c      	lsls	r4, r1, #22
 800105a:	609c      	str	r4, [r3, #8]
 800105c:	b10a      	cbz	r2, 8001062 <Vector78+0x22>
 800105e:	69c0      	ldr	r0, [r0, #28]
 8001060:	4790      	blx	r2
 8001062:	f7ff fe3d 	bl	8000ce0 <_dbg_check_leave_isr>
 8001066:	e8bd 4010 	ldmia.w	sp!, {r4, lr}
 800106a:	f7ff bc91 	b.w	8000990 <_port_irq_epilogue>
 800106e:	bf00      	nop
 8001070:	40026000 	.word	0x40026000
 8001074:	20005470 	.word	0x20005470
	...

08001080 <Vector74>:
 8001080:	b510      	push	{r4, lr}
 8001082:	f7ff fcc5 	bl	8000a10 <_stats_increase_irq>
 8001086:	f7ff fe43 	bl	8000d10 <_dbg_check_enter_isr>
 800108a:	4b09      	ldr	r3, [pc, #36]	; (80010b0 <Vector74+0x30>)
 800108c:	4809      	ldr	r0, [pc, #36]	; (80010b4 <Vector74+0x34>)
 800108e:	6819      	ldr	r1, [r3, #0]
 8001090:	6902      	ldr	r2, [r0, #16]
 8001092:	0c09      	lsrs	r1, r1, #16
 8001094:	f001 013d 	and.w	r1, r1, #61	; 0x3d
 8001098:	040c      	lsls	r4, r1, #16
 800109a:	609c      	str	r4, [r3, #8]
 800109c:	b10a      	cbz	r2, 80010a2 <Vector74+0x22>
 800109e:	6940      	ldr	r0, [r0, #20]
 80010a0:	4790      	blx	r2
 80010a2:	f7ff fe1d 	bl	8000ce0 <_dbg_check_leave_isr>
 80010a6:	e8bd 4010 	ldmia.w	sp!, {r4, lr}
 80010aa:	f7ff bc71 	b.w	8000990 <_port_irq_epilogue>
 80010ae:	bf00      	nop
 80010b0:	40026000 	.word	0x40026000
 80010b4:	20005470 	.word	0x20005470
	...

080010c0 <Vector70>:
 80010c0:	b510      	push	{r4, lr}
 80010c2:	f7ff fca5 	bl	8000a10 <_stats_increase_irq>
 80010c6:	f7ff fe23 	bl	8000d10 <_dbg_check_enter_isr>
 80010ca:	4b09      	ldr	r3, [pc, #36]	; (80010f0 <Vector70+0x30>)
 80010cc:	4809      	ldr	r0, [pc, #36]	; (80010f4 <Vector70+0x34>)
 80010ce:	6819      	ldr	r1, [r3, #0]
 80010d0:	6882      	ldr	r2, [r0, #8]
 80010d2:	0989      	lsrs	r1, r1, #6
 80010d4:	f001 013d 	and.w	r1, r1, #61	; 0x3d
 80010d8:	018c      	lsls	r4, r1, #6
 80010da:	609c      	str	r4, [r3, #8]
 80010dc:	b10a      	cbz	r2, 80010e2 <Vector70+0x22>
 80010de:	68c0      	ldr	r0, [r0, #12]
 80010e0:	4790      	blx	r2
 80010e2:	f7ff fdfd 	bl	8000ce0 <_dbg_check_leave_isr>
 80010e6:	e8bd 4010 	ldmia.w	sp!, {r4, lr}
 80010ea:	f7ff bc51 	b.w	8000990 <_port_irq_epilogue>
 80010ee:	bf00      	nop
 80010f0:	40026000 	.word	0x40026000
 80010f4:	20005470 	.word	0x20005470
	...

08001100 <Vector6C>:
 8001100:	b508      	push	{r3, lr}
 8001102:	f7ff fc85 	bl	8000a10 <_stats_increase_irq>
 8001106:	f7ff fe03 	bl	8000d10 <_dbg_check_enter_isr>
 800110a:	4b08      	ldr	r3, [pc, #32]	; (800112c <Vector6C+0x2c>)
 800110c:	4a08      	ldr	r2, [pc, #32]	; (8001130 <Vector6C+0x30>)
 800110e:	6819      	ldr	r1, [r3, #0]
 8001110:	f001 013d 	and.w	r1, r1, #61	; 0x3d
 8001114:	6099      	str	r1, [r3, #8]
 8001116:	6813      	ldr	r3, [r2, #0]
 8001118:	b10b      	cbz	r3, 800111e <Vector6C+0x1e>
 800111a:	6850      	ldr	r0, [r2, #4]
 800111c:	4798      	blx	r3
 800111e:	f7ff fddf 	bl	8000ce0 <_dbg_check_leave_isr>
 8001122:	e8bd 4008 	ldmia.w	sp!, {r3, lr}
 8001126:	f7ff bc33 	b.w	8000990 <_port_irq_epilogue>
 800112a:	bf00      	nop
 800112c:	40026000 	.word	0x40026000
 8001130:	20005470 	.word	0x20005470
	...

08001140 <_dbg_check_unlock_from_isr>:
 8001140:	4b06      	ldr	r3, [pc, #24]	; (800115c <_dbg_check_unlock_from_isr+0x1c>)
 8001142:	6b1a      	ldr	r2, [r3, #48]	; 0x30
 8001144:	2a00      	cmp	r2, #0
 8001146:	dd05      	ble.n	8001154 <_dbg_check_unlock_from_isr+0x14>
 8001148:	6b5a      	ldr	r2, [r3, #52]	; 0x34
 800114a:	2a00      	cmp	r2, #0
 800114c:	dd02      	ble.n	8001154 <_dbg_check_unlock_from_isr+0x14>
 800114e:	2200      	movs	r2, #0
 8001150:	635a      	str	r2, [r3, #52]	; 0x34
 8001152:	4770      	bx	lr
 8001154:	b672      	cpsid	i
 8001156:	4a02      	ldr	r2, [pc, #8]	; (8001160 <_dbg_check_unlock_from_isr+0x20>)
 8001158:	62da      	str	r2, [r3, #44]	; 0x2c
 800115a:	e7fe      	b.n	800115a <_dbg_check_unlock_from_isr+0x1a>
 800115c:	20004e78 	.word	0x20004e78
 8001160:	08004ae0 	.word	0x08004ae0
	...

08001170 <_dbg_check_lock_from_isr>:
 8001170:	4b06      	ldr	r3, [pc, #24]	; (800118c <_dbg_check_lock_from_isr+0x1c>)
 8001172:	6b1a      	ldr	r2, [r3, #48]	; 0x30
 8001174:	2a00      	cmp	r2, #0
 8001176:	dd01      	ble.n	800117c <_dbg_check_lock_from_isr+0xc>
 8001178:	6b5a      	ldr	r2, [r3, #52]	; 0x34
 800117a:	b11a      	cbz	r2, 8001184 <_dbg_check_lock_from_isr+0x14>
 800117c:	b672      	cpsid	i
 800117e:	4a04      	ldr	r2, [pc, #16]	; (8001190 <_dbg_check_lock_from_isr+0x20>)
 8001180:	62da      	str	r2, [r3, #44]	; 0x2c
 8001182:	e7fe      	b.n	8001182 <_dbg_check_lock_from_isr+0x12>
 8001184:	2201      	movs	r2, #1
 8001186:	635a      	str	r2, [r3, #52]	; 0x34
 8001188:	4770      	bx	lr
 800118a:	bf00      	nop
 800118c:	20004e78 	.word	0x20004e78
 8001190:	08004ac0 	.word	0x08004ac0
	...

080011a0 <Vector104>:
 80011a0:	b508      	push	{r3, lr}
 80011a2:	f7ff fc35 	bl	8000a10 <_stats_increase_irq>
 80011a6:	f7ff fdb3 	bl	8000d10 <_dbg_check_enter_isr>
 80011aa:	2320      	movs	r3, #32
 80011ac:	f383 8811 	msr	BASEPRI, r3
 80011b0:	f7ff fc96 	bl	8000ae0 <_stats_start_measure_crit_isr>
 80011b4:	f7ff ffdc 	bl	8001170 <_dbg_check_lock_from_isr>
 80011b8:	4910      	ldr	r1, [pc, #64]	; (80011fc <Vector104+0x5c>)
 80011ba:	4811      	ldr	r0, [pc, #68]	; (8001200 <Vector104+0x60>)
 80011bc:	6bcb      	ldr	r3, [r1, #60]	; 0x3c
 80011be:	2200      	movs	r2, #0
 80011c0:	63c2      	str	r2, [r0, #60]	; 0x3c
 80011c2:	b16b      	cbz	r3, 80011e0 <Vector104+0x40>
 80011c4:	f893 0020 	ldrb.w	r0, [r3, #32]
 80011c8:	2803      	cmp	r0, #3
 80011ca:	d004      	beq.n	80011d6 <Vector104+0x36>
 80011cc:	b672      	cpsid	i
 80011ce:	4b0d      	ldr	r3, [pc, #52]	; (8001204 <Vector104+0x64>)
 80011d0:	4a0d      	ldr	r2, [pc, #52]	; (8001208 <Vector104+0x68>)
 80011d2:	62da      	str	r2, [r3, #44]	; 0x2c
 80011d4:	e7fe      	b.n	80011d4 <Vector104+0x34>
 80011d6:	63ca      	str	r2, [r1, #60]	; 0x3c
 80011d8:	4618      	mov	r0, r3
 80011da:	625a      	str	r2, [r3, #36]	; 0x24
 80011dc:	f7ff fcf8 	bl	8000bd0 <chSchReadyI>
 80011e0:	f7ff ffae 	bl	8001140 <_dbg_check_unlock_from_isr>
 80011e4:	f7ff fc6c 	bl	8000ac0 <_stats_stop_measure_crit_isr>
 80011e8:	2300      	movs	r3, #0
 80011ea:	f383 8811 	msr	BASEPRI, r3
 80011ee:	f7ff fd77 	bl	8000ce0 <_dbg_check_leave_isr>
 80011f2:	e8bd 4008 	ldmia.w	sp!, {r3, lr}
 80011f6:	f7ff bbcb 	b.w	8000990 <_port_irq_epilogue>
 80011fa:	bf00      	nop
 80011fc:	20000e28 	.word	0x20000e28
 8001200:	40012c00 	.word	0x40012c00
 8001204:	20004e78 	.word	0x20004e78
 8001208:	08004900 	.word	0x08004900
 800120c:	00000000 	.word	0x00000000

08001210 <VectorB0>:
 8001210:	e92d 47f0 	stmdb	sp!, {r4, r5, r6, r7, r8, r9, sl, lr}
 8001214:	f04f 4680 	mov.w	r6, #1073741824	; 0x40000000
 8001218:	f7ff fbfa 	bl	8000a10 <_stats_increase_irq>
 800121c:	f7ff fd78 	bl	8000d10 <_dbg_check_enter_isr>
 8001220:	6933      	ldr	r3, [r6, #16]
 8001222:	079b      	lsls	r3, r3, #30
 8001224:	d405      	bmi.n	8001232 <VectorB0+0x22>
 8001226:	f7ff fd5b 	bl	8000ce0 <_dbg_check_leave_isr>
 800122a:	e8bd 47f0 	ldmia.w	sp!, {r4, r5, r6, r7, r8, r9, sl, lr}
 800122e:	f7ff bbaf 	b.w	8000990 <_port_irq_epilogue>
 8001232:	2700      	movs	r7, #0
 8001234:	6137      	str	r7, [r6, #16]
 8001236:	f04f 0820 	mov.w	r8, #32
 800123a:	f388 8811 	msr	BASEPRI, r8
 800123e:	4c2e      	ldr	r4, [pc, #184]	; (80012f8 <VectorB0+0xe8>)
 8001240:	f7ff fc4e 	bl	8000ae0 <_stats_start_measure_crit_isr>
 8001244:	f7ff ff94 	bl	8001170 <_dbg_check_lock_from_isr>
 8001248:	f7ff fcb2 	bl	8000bb0 <chDbgCheckClassI>
 800124c:	f7ff fcb0 	bl	8000bb0 <chDbgCheckClassI>
 8001250:	69e5      	ldr	r5, [r4, #28]
 8001252:	6a73      	ldr	r3, [r6, #36]	; 0x24
 8001254:	6aa1      	ldr	r1, [r4, #40]	; 0x28
 8001256:	68aa      	ldr	r2, [r5, #8]
 8001258:	1a58      	subs	r0, r3, r1
 800125a:	4290      	cmp	r0, r2
 800125c:	d349      	bcc.n	80012f2 <VectorB0+0xe2>
 800125e:	46b9      	mov	r9, r7
 8001260:	4637      	mov	r7, r6
 8001262:	f104 061c 	add.w	r6, r4, #28
 8001266:	682b      	ldr	r3, [r5, #0]
 8001268:	f8d5 a00c 	ldr.w	sl, [r5, #12]
 800126c:	4411      	add	r1, r2
 800126e:	42b3      	cmp	r3, r6
 8001270:	62a1      	str	r1, [r4, #40]	; 0x28
 8001272:	605e      	str	r6, [r3, #4]
 8001274:	61e3      	str	r3, [r4, #28]
 8001276:	f8c5 900c 	str.w	r9, [r5, #12]
 800127a:	bf08      	it	eq
 800127c:	f8c7 900c 	streq.w	r9, [r7, #12]
 8001280:	f7ff ff5e 	bl	8001140 <_dbg_check_unlock_from_isr>
 8001284:	f7ff fc1c 	bl	8000ac0 <_stats_stop_measure_crit_isr>
 8001288:	f389 8811 	msr	BASEPRI, r9
 800128c:	6928      	ldr	r0, [r5, #16]
 800128e:	47d0      	blx	sl
 8001290:	f388 8811 	msr	BASEPRI, r8
 8001294:	f7ff fc24 	bl	8000ae0 <_stats_start_measure_crit_isr>
 8001298:	f7ff ff6a 	bl	8001170 <_dbg_check_lock_from_isr>
 800129c:	69e5      	ldr	r5, [r4, #28]
 800129e:	6a7b      	ldr	r3, [r7, #36]	; 0x24
 80012a0:	6aa1      	ldr	r1, [r4, #40]	; 0x28
 80012a2:	68aa      	ldr	r2, [r5, #8]
 80012a4:	1a58      	subs	r0, r3, r1
 80012a6:	4282      	cmp	r2, r0
 80012a8:	d9dd      	bls.n	8001266 <VectorB0+0x56>
 80012aa:	42b5      	cmp	r5, r6
 80012ac:	d014      	beq.n	80012d8 <VectorB0+0xc8>
 80012ae:	4411      	add	r1, r2
 80012b0:	1ac9      	subs	r1, r1, r3
 80012b2:	2902      	cmp	r1, #2
 80012b4:	bf2c      	ite	cs
 80012b6:	1859      	addcs	r1, r3, r1
 80012b8:	1c99      	addcc	r1, r3, #2
 80012ba:	4608      	mov	r0, r1
 80012bc:	f7ff fb58 	bl	8000970 <stSetAlarm>
 80012c0:	f04f 4380 	mov.w	r3, #1073741824	; 0x40000000
 80012c4:	6aa0      	ldr	r0, [r4, #40]	; 0x28
 80012c6:	6a5a      	ldr	r2, [r3, #36]	; 0x24
 80012c8:	1a0b      	subs	r3, r1, r0
 80012ca:	1a12      	subs	r2, r2, r0
 80012cc:	429a      	cmp	r2, r3
 80012ce:	d903      	bls.n	80012d8 <VectorB0+0xc8>
 80012d0:	b672      	cpsid	i
 80012d2:	4b0a      	ldr	r3, [pc, #40]	; (80012fc <VectorB0+0xec>)
 80012d4:	62e3      	str	r3, [r4, #44]	; 0x2c
 80012d6:	e7fe      	b.n	80012d6 <VectorB0+0xc6>
 80012d8:	f7ff ff32 	bl	8001140 <_dbg_check_unlock_from_isr>
 80012dc:	f7ff fbf0 	bl	8000ac0 <_stats_stop_measure_crit_isr>
 80012e0:	2300      	movs	r3, #0
 80012e2:	f383 8811 	msr	BASEPRI, r3
 80012e6:	f7ff fcfb 	bl	8000ce0 <_dbg_check_leave_isr>
 80012ea:	e8bd 47f0 	ldmia.w	sp!, {r4, r5, r6, r7, r8, r9, sl, lr}
 80012ee:	f7ff bb4f 	b.w	8000990 <_port_irq_epilogue>
 80012f2:	f104 061c 	add.w	r6, r4, #28
 80012f6:	e7d8      	b.n	80012aa <VectorB0+0x9a>
 80012f8:	20004e78 	.word	0x20004e78
 80012fc:	080047a0 	.word	0x080047a0

08001300 <wakeup>:
 8001300:	b508      	push	{r3, lr}
 8001302:	4601      	mov	r1, r0
 8001304:	2320      	movs	r3, #32
 8001306:	f383 8811 	msr	BASEPRI, r3
 800130a:	f7ff fbe9 	bl	8000ae0 <_stats_start_measure_crit_isr>
 800130e:	f7ff ff2f 	bl	8001170 <_dbg_check_lock_from_isr>
 8001312:	f891 3020 	ldrb.w	r3, [r1, #32]
 8001316:	2b07      	cmp	r3, #7
 8001318:	d810      	bhi.n	800133c <wakeup+0x3c>
 800131a:	e8df f003 	tbb	[pc, r3]
 800131e:	0f15      	.short	0x0f15
 8001320:	040a1d0f 	.word	0x040a1d0f
 8001324:	0a0f      	.short	0x0a0f
 8001326:	6a48      	ldr	r0, [r1, #36]	; 0x24
 8001328:	f7ff fc42 	bl	8000bb0 <chDbgCheckClassI>
 800132c:	6883      	ldr	r3, [r0, #8]
 800132e:	3301      	adds	r3, #1
 8001330:	6083      	str	r3, [r0, #8]
 8001332:	e9d1 2300 	ldrd	r2, r3, [r1]
 8001336:	601a      	str	r2, [r3, #0]
 8001338:	680a      	ldr	r2, [r1, #0]
 800133a:	6053      	str	r3, [r2, #4]
 800133c:	f04f 33ff 	mov.w	r3, #4294967295	; 0xffffffff
 8001340:	624b      	str	r3, [r1, #36]	; 0x24
 8001342:	4608      	mov	r0, r1
 8001344:	f7ff fc44 	bl	8000bd0 <chSchReadyI>
 8001348:	f7ff fefa 	bl	8001140 <_dbg_check_unlock_from_isr>
 800134c:	f7ff fbb8 	bl	8000ac0 <_stats_stop_measure_crit_isr>
 8001350:	2300      	movs	r3, #0
 8001352:	f383 8811 	msr	BASEPRI, r3
 8001356:	bd08      	pop	{r3, pc}
 8001358:	6a4b      	ldr	r3, [r1, #36]	; 0x24
 800135a:	2200      	movs	r2, #0
 800135c:	601a      	str	r2, [r3, #0]
 800135e:	f04f 33ff 	mov.w	r3, #4294967295	; 0xffffffff
 8001362:	624b      	str	r3, [r1, #36]	; 0x24
 8001364:	4608      	mov	r0, r1
 8001366:	f7ff fc33 	bl	8000bd0 <chSchReadyI>
 800136a:	e7ed      	b.n	8001348 <wakeup+0x48>
 800136c:	0000      	movs	r0, r0
	...

08001370 <BusFault_Handler>:
 8001370:	b672      	cpsid	i
 8001372:	4b02      	ldr	r3, [pc, #8]	; (800137c <BusFault_Handler+0xc>)
 8001374:	4a02      	ldr	r2, [pc, #8]	; (8001380 <BusFault_Handler+0x10>)
 8001376:	62da      	str	r2, [r3, #44]	; 0x2c
 8001378:	e7fe      	b.n	8001378 <BusFault_Handler+0x8>
 800137a:	bf00      	nop
 800137c:	20004e78 	.word	0x20004e78
 8001380:	08004bc0 	.word	0x08004bc0
	...

08001390 <chSchWakeupS.constprop.32>:
 8001390:	b570      	push	{r4, r5, r6, lr}
 8001392:	4d19      	ldr	r5, [pc, #100]	; (80013f8 <chSchWakeupS.constprop.32+0x68>)
 8001394:	4604      	mov	r4, r0
 8001396:	f7ff fbfb 	bl	8000b90 <chDbgCheckClassS>
 800139a:	69a8      	ldr	r0, [r5, #24]
 800139c:	68a2      	ldr	r2, [r4, #8]
 800139e:	6883      	ldr	r3, [r0, #8]
 80013a0:	2100      	movs	r1, #0
 80013a2:	429a      	cmp	r2, r3
 80013a4:	6261      	str	r1, [r4, #36]	; 0x24
 80013a6:	d91e      	bls.n	80013e6 <chSchWakeupS.constprop.32+0x56>
 80013a8:	f7ff fc12 	bl	8000bd0 <chSchReadyI>
 80013ac:	2301      	movs	r3, #1
 80013ae:	f884 3020 	strb.w	r3, [r4, #32]
 80013b2:	4606      	mov	r6, r0
 80013b4:	61ac      	str	r4, [r5, #24]
 80013b6:	f7ff fbcb 	bl	8000b50 <_dbg_trace>
 80013ba:	f8d5 34ac 	ldr.w	r3, [r5, #1196]	; 0x4ac
 80013be:	3048      	adds	r0, #72	; 0x48
 80013c0:	3301      	adds	r3, #1
 80013c2:	f104 0148 	add.w	r1, r4, #72	; 0x48
 80013c6:	f8c5 34ac 	str.w	r3, [r5, #1196]	; 0x4ac
 80013ca:	f7ff fb31 	bl	8000a30 <chTMChainMeasurementToX>
 80013ce:	f3ef 8309 	mrs	r3, PSP
 80013d2:	69f2      	ldr	r2, [r6, #28]
 80013d4:	3b24      	subs	r3, #36	; 0x24
 80013d6:	429a      	cmp	r2, r3
 80013d8:	d80a      	bhi.n	80013f0 <chSchWakeupS.constprop.32+0x60>
 80013da:	4631      	mov	r1, r6
 80013dc:	4620      	mov	r0, r4
 80013de:	e8bd 4070 	ldmia.w	sp!, {r4, r5, r6, lr}
 80013e2:	f7fe bf4d 	b.w	8000280 <_port_switch>
 80013e6:	4620      	mov	r0, r4
 80013e8:	e8bd 4070 	ldmia.w	sp!, {r4, r5, r6, lr}
 80013ec:	f7ff bbf0 	b.w	8000bd0 <chSchReadyI>
 80013f0:	b672      	cpsid	i
 80013f2:	4b02      	ldr	r3, [pc, #8]	; (80013fc <chSchWakeupS.constprop.32+0x6c>)
 80013f4:	62eb      	str	r3, [r5, #44]	; 0x2c
 80013f6:	e7fe      	b.n	80013f6 <chSchWakeupS.constprop.32+0x66>
 80013f8:	20004e78 	.word	0x20004e78
 80013fc:	08004c00 	.word	0x08004c00

08001400 <chSchGoSleepS>:
 8001400:	b538      	push	{r3, r4, r5, lr}
 8001402:	4c16      	ldr	r4, [pc, #88]	; (800145c <chSchGoSleepS+0x5c>)
 8001404:	f7ff fbc4 	bl	8000b90 <chDbgCheckClassS>
 8001408:	69a5      	ldr	r5, [r4, #24]
 800140a:	6823      	ldr	r3, [r4, #0]
 800140c:	f885 0020 	strb.w	r0, [r5, #32]
 8001410:	681a      	ldr	r2, [r3, #0]
 8001412:	6022      	str	r2, [r4, #0]
 8001414:	2101      	movs	r1, #1
 8001416:	6054      	str	r4, [r2, #4]
 8001418:	4628      	mov	r0, r5
 800141a:	f883 1020 	strb.w	r1, [r3, #32]
 800141e:	61a3      	str	r3, [r4, #24]
 8001420:	f7ff fb96 	bl	8000b50 <_dbg_trace>
 8001424:	f8d4 34ac 	ldr.w	r3, [r4, #1196]	; 0x4ac
 8001428:	69a1      	ldr	r1, [r4, #24]
 800142a:	3301      	adds	r3, #1
 800142c:	f105 0048 	add.w	r0, r5, #72	; 0x48
 8001430:	3148      	adds	r1, #72	; 0x48
 8001432:	f8c4 34ac 	str.w	r3, [r4, #1196]	; 0x4ac
 8001436:	f7ff fafb 	bl	8000a30 <chTMChainMeasurementToX>
 800143a:	f3ef 8309 	mrs	r3, PSP
 800143e:	69ea      	ldr	r2, [r5, #28]
 8001440:	3b24      	subs	r3, #36	; 0x24
 8001442:	429a      	cmp	r2, r3
 8001444:	d805      	bhi.n	8001452 <chSchGoSleepS+0x52>
 8001446:	4629      	mov	r1, r5
 8001448:	69a0      	ldr	r0, [r4, #24]
 800144a:	e8bd 4038 	ldmia.w	sp!, {r3, r4, r5, lr}
 800144e:	f7fe bf17 	b.w	8000280 <_port_switch>
 8001452:	b672      	cpsid	i
 8001454:	4b02      	ldr	r3, [pc, #8]	; (8001460 <chSchGoSleepS+0x60>)
 8001456:	62e3      	str	r3, [r4, #44]	; 0x2c
 8001458:	e7fe      	b.n	8001458 <chSchGoSleepS+0x58>
 800145a:	bf00      	nop
 800145c:	20004e78 	.word	0x20004e78
 8001460:	08004c00 	.word	0x08004c00
	...

08001470 <chMtxLockS>:
 8001470:	b5f8      	push	{r3, r4, r5, r6, r7, lr}
 8001472:	4e3b      	ldr	r6, [pc, #236]	; (8001560 <chMtxLockS+0xf0>)
 8001474:	69b4      	ldr	r4, [r6, #24]
 8001476:	f7ff fb8b 	bl	8000b90 <chDbgCheckClassS>
 800147a:	2800      	cmp	r0, #0
 800147c:	d033      	beq.n	80014e6 <chMtxLockS+0x76>
 800147e:	4605      	mov	r5, r0
 8001480:	6880      	ldr	r0, [r0, #8]
 8001482:	b358      	cbz	r0, 80014dc <chMtxLockS+0x6c>
 8001484:	68a2      	ldr	r2, [r4, #8]
 8001486:	6883      	ldr	r3, [r0, #8]
 8001488:	429a      	cmp	r2, r3
 800148a:	d907      	bls.n	800149c <chMtxLockS+0x2c>
 800148c:	f890 3020 	ldrb.w	r3, [r0, #32]
 8001490:	6082      	str	r2, [r0, #8]
 8001492:	2b06      	cmp	r3, #6
 8001494:	d04a      	beq.n	800152c <chMtxLockS+0xbc>
 8001496:	2b07      	cmp	r3, #7
 8001498:	d034      	beq.n	8001504 <chMtxLockS+0x94>
 800149a:	b343      	cbz	r3, 80014ee <chMtxLockS+0x7e>
 800149c:	462b      	mov	r3, r5
 800149e:	e003      	b.n	80014a8 <chMtxLockS+0x38>
 80014a0:	6899      	ldr	r1, [r3, #8]
 80014a2:	68a2      	ldr	r2, [r4, #8]
 80014a4:	4291      	cmp	r1, r2
 80014a6:	d302      	bcc.n	80014ae <chMtxLockS+0x3e>
 80014a8:	681b      	ldr	r3, [r3, #0]
 80014aa:	429d      	cmp	r5, r3
 80014ac:	d1f8      	bne.n	80014a0 <chMtxLockS+0x30>
 80014ae:	685a      	ldr	r2, [r3, #4]
 80014b0:	2006      	movs	r0, #6
 80014b2:	e9c4 3200 	strd	r3, r2, [r4]
 80014b6:	6014      	str	r4, [r2, #0]
 80014b8:	605c      	str	r4, [r3, #4]
 80014ba:	6265      	str	r5, [r4, #36]	; 0x24
 80014bc:	f7ff ffa0 	bl	8001400 <chSchGoSleepS>
 80014c0:	68ab      	ldr	r3, [r5, #8]
 80014c2:	42a3      	cmp	r3, r4
 80014c4:	d003      	beq.n	80014ce <chMtxLockS+0x5e>
 80014c6:	b672      	cpsid	i
 80014c8:	4b26      	ldr	r3, [pc, #152]	; (8001564 <chMtxLockS+0xf4>)
 80014ca:	62f3      	str	r3, [r6, #44]	; 0x2c
 80014cc:	e7fe      	b.n	80014cc <chMtxLockS+0x5c>
 80014ce:	6be3      	ldr	r3, [r4, #60]	; 0x3c
 80014d0:	42ab      	cmp	r3, r5
 80014d2:	d007      	beq.n	80014e4 <chMtxLockS+0x74>
 80014d4:	b672      	cpsid	i
 80014d6:	4b23      	ldr	r3, [pc, #140]	; (8001564 <chMtxLockS+0xf4>)
 80014d8:	62f3      	str	r3, [r6, #44]	; 0x2c
 80014da:	e7fe      	b.n	80014da <chMtxLockS+0x6a>
 80014dc:	6be3      	ldr	r3, [r4, #60]	; 0x3c
 80014de:	e9c5 4302 	strd	r4, r3, [r5, #8]
 80014e2:	63e5      	str	r5, [r4, #60]	; 0x3c
 80014e4:	bdf8      	pop	{r3, r4, r5, r6, r7, pc}
 80014e6:	b672      	cpsid	i
 80014e8:	4b1e      	ldr	r3, [pc, #120]	; (8001564 <chMtxLockS+0xf4>)
 80014ea:	62f3      	str	r3, [r6, #44]	; 0x2c
 80014ec:	e7fe      	b.n	80014ec <chMtxLockS+0x7c>
 80014ee:	e9d0 2300 	ldrd	r2, r3, [r0]
 80014f2:	2101      	movs	r1, #1
 80014f4:	f880 1020 	strb.w	r1, [r0, #32]
 80014f8:	601a      	str	r2, [r3, #0]
 80014fa:	6802      	ldr	r2, [r0, #0]
 80014fc:	6053      	str	r3, [r2, #4]
 80014fe:	f7ff fb67 	bl	8000bd0 <chSchReadyI>
 8001502:	e7cb      	b.n	800149c <chMtxLockS+0x2c>
 8001504:	e9d0 1300 	ldrd	r1, r3, [r0]
 8001508:	6019      	str	r1, [r3, #0]
 800150a:	6807      	ldr	r7, [r0, #0]
 800150c:	6a41      	ldr	r1, [r0, #36]	; 0x24
 800150e:	607b      	str	r3, [r7, #4]
 8001510:	460b      	mov	r3, r1
 8001512:	e002      	b.n	800151a <chMtxLockS+0xaa>
 8001514:	689f      	ldr	r7, [r3, #8]
 8001516:	4297      	cmp	r7, r2
 8001518:	d302      	bcc.n	8001520 <chMtxLockS+0xb0>
 800151a:	681b      	ldr	r3, [r3, #0]
 800151c:	4299      	cmp	r1, r3
 800151e:	d1f9      	bne.n	8001514 <chMtxLockS+0xa4>
 8001520:	685a      	ldr	r2, [r3, #4]
 8001522:	e9c0 3200 	strd	r3, r2, [r0]
 8001526:	6010      	str	r0, [r2, #0]
 8001528:	6058      	str	r0, [r3, #4]
 800152a:	e7b7      	b.n	800149c <chMtxLockS+0x2c>
 800152c:	e9d0 1300 	ldrd	r1, r3, [r0]
 8001530:	6019      	str	r1, [r3, #0]
 8001532:	6807      	ldr	r7, [r0, #0]
 8001534:	6a41      	ldr	r1, [r0, #36]	; 0x24
 8001536:	607b      	str	r3, [r7, #4]
 8001538:	460b      	mov	r3, r1
 800153a:	e002      	b.n	8001542 <chMtxLockS+0xd2>
 800153c:	689f      	ldr	r7, [r3, #8]
 800153e:	4297      	cmp	r7, r2
 8001540:	d302      	bcc.n	8001548 <chMtxLockS+0xd8>
 8001542:	681b      	ldr	r3, [r3, #0]
 8001544:	4299      	cmp	r1, r3
 8001546:	d1f9      	bne.n	800153c <chMtxLockS+0xcc>
 8001548:	685a      	ldr	r2, [r3, #4]
 800154a:	e9c0 3200 	strd	r3, r2, [r0]
 800154e:	6010      	str	r0, [r2, #0]
 8001550:	6058      	str	r0, [r3, #4]
 8001552:	6888      	ldr	r0, [r1, #8]
 8001554:	68a2      	ldr	r2, [r4, #8]
 8001556:	6883      	ldr	r3, [r0, #8]
 8001558:	4293      	cmp	r3, r2
 800155a:	d397      	bcc.n	800148c <chMtxLockS+0x1c>
 800155c:	e79e      	b.n	800149c <chMtxLockS+0x2c>
 800155e:	bf00      	nop
 8001560:	20004e78 	.word	0x20004e78
 8001564:	08004840 	.word	0x08004840
	...

08001570 <chThdExitS>:
 8001570:	4d10      	ldr	r5, [pc, #64]	; (80015b4 <chThdExitS+0x44>)
 8001572:	69ac      	ldr	r4, [r5, #24]
 8001574:	b508      	push	{r3, lr}
 8001576:	6aa3      	ldr	r3, [r4, #40]	; 0x28
 8001578:	6260      	str	r0, [r4, #36]	; 0x24
 800157a:	f104 0628 	add.w	r6, r4, #40	; 0x28
 800157e:	42b3      	cmp	r3, r6
 8001580:	d007      	beq.n	8001592 <chThdExitS+0x22>
 8001582:	681a      	ldr	r2, [r3, #0]
 8001584:	62a2      	str	r2, [r4, #40]	; 0x28
 8001586:	4618      	mov	r0, r3
 8001588:	f7ff fb22 	bl	8000bd0 <chSchReadyI>
 800158c:	6aa3      	ldr	r3, [r4, #40]	; 0x28
 800158e:	42b3      	cmp	r3, r6
 8001590:	d1f7      	bne.n	8001582 <chThdExitS+0x12>
 8001592:	f894 3021 	ldrb.w	r3, [r4, #33]	; 0x21
 8001596:	079b      	lsls	r3, r3, #30
 8001598:	d104      	bne.n	80015a4 <chThdExitS+0x34>
 800159a:	e9d4 2304 	ldrd	r2, r3, [r4, #16]
 800159e:	611a      	str	r2, [r3, #16]
 80015a0:	6922      	ldr	r2, [r4, #16]
 80015a2:	6153      	str	r3, [r2, #20]
 80015a4:	200f      	movs	r0, #15
 80015a6:	f7ff ff2b 	bl	8001400 <chSchGoSleepS>
 80015aa:	b672      	cpsid	i
 80015ac:	4b02      	ldr	r3, [pc, #8]	; (80015b8 <chThdExitS+0x48>)
 80015ae:	62eb      	str	r3, [r5, #44]	; 0x2c
 80015b0:	e7fe      	b.n	80015b0 <chThdExitS+0x40>
 80015b2:	bf00      	nop
 80015b4:	20004e78 	.word	0x20004e78
 80015b8:	080048c0 	.word	0x080048c0
 80015bc:	00000000 	.word	0x00000000

080015c0 <chSchGoSleepTimeoutS>:
 80015c0:	b5f0      	push	{r4, r5, r6, r7, lr}
 80015c2:	b087      	sub	sp, #28
 80015c4:	4607      	mov	r7, r0
 80015c6:	f7ff fae3 	bl	8000b90 <chDbgCheckClassS>
 80015ca:	1c4b      	adds	r3, r1, #1
 80015cc:	d04f      	beq.n	800166e <chSchGoSleepTimeoutS+0xae>
 80015ce:	f7ff faef 	bl	8000bb0 <chDbgCheckClassI>
 80015d2:	b921      	cbnz	r1, 80015de <chSchGoSleepTimeoutS+0x1e>
 80015d4:	b672      	cpsid	i
 80015d6:	4b44      	ldr	r3, [pc, #272]	; (80016e8 <chSchGoSleepTimeoutS+0x128>)
 80015d8:	4a44      	ldr	r2, [pc, #272]	; (80016ec <chSchGoSleepTimeoutS+0x12c>)
 80015da:	62da      	str	r2, [r3, #44]	; 0x2c
 80015dc:	e7fe      	b.n	80015dc <chSchGoSleepTimeoutS+0x1c>
 80015de:	4c42      	ldr	r4, [pc, #264]	; (80016e8 <chSchGoSleepTimeoutS+0x128>)
 80015e0:	4843      	ldr	r0, [pc, #268]	; (80016f0 <chSchGoSleepTimeoutS+0x130>)
 80015e2:	69a3      	ldr	r3, [r4, #24]
 80015e4:	9305      	str	r3, [sp, #20]
 80015e6:	4625      	mov	r5, r4
 80015e8:	f04f 4280 	mov.w	r2, #1073741824	; 0x40000000
 80015ec:	f855 3f1c 	ldr.w	r3, [r5, #28]!
 80015f0:	6a56      	ldr	r6, [r2, #36]	; 0x24
 80015f2:	9004      	str	r0, [sp, #16]
 80015f4:	2901      	cmp	r1, #1
 80015f6:	bf08      	it	eq
 80015f8:	2102      	moveq	r1, #2
 80015fa:	42ab      	cmp	r3, r5
 80015fc:	eb06 0001 	add.w	r0, r6, r1
 8001600:	d03c      	beq.n	800167c <chSchGoSleepTimeoutS+0xbc>
 8001602:	6aa1      	ldr	r1, [r4, #40]	; 0x28
 8001604:	689a      	ldr	r2, [r3, #8]
 8001606:	1a41      	subs	r1, r0, r1
 8001608:	4291      	cmp	r1, r2
 800160a:	d364      	bcc.n	80016d6 <chSchGoSleepTimeoutS+0x116>
 800160c:	4291      	cmp	r1, r2
 800160e:	d904      	bls.n	800161a <chSchGoSleepTimeoutS+0x5a>
 8001610:	681b      	ldr	r3, [r3, #0]
 8001612:	1a89      	subs	r1, r1, r2
 8001614:	689a      	ldr	r2, [r3, #8]
 8001616:	428a      	cmp	r2, r1
 8001618:	d3fa      	bcc.n	8001610 <chSchGoSleepTimeoutS+0x50>
 800161a:	685a      	ldr	r2, [r3, #4]
 800161c:	9202      	str	r2, [sp, #8]
 800161e:	ae01      	add	r6, sp, #4
 8001620:	9301      	str	r3, [sp, #4]
 8001622:	6016      	str	r6, [r2, #0]
 8001624:	605e      	str	r6, [r3, #4]
 8001626:	9103      	str	r1, [sp, #12]
 8001628:	689a      	ldr	r2, [r3, #8]
 800162a:	1a52      	subs	r2, r2, r1
 800162c:	f04f 31ff 	mov.w	r1, #4294967295	; 0xffffffff
 8001630:	609a      	str	r2, [r3, #8]
 8001632:	6261      	str	r1, [r4, #36]	; 0x24
 8001634:	4638      	mov	r0, r7
 8001636:	f7ff fee3 	bl	8001400 <chSchGoSleepS>
 800163a:	f7ff fab9 	bl	8000bb0 <chDbgCheckClassI>
 800163e:	9b04      	ldr	r3, [sp, #16]
 8001640:	b18b      	cbz	r3, 8001666 <chSchGoSleepTimeoutS+0xa6>
 8001642:	f7ff fab5 	bl	8000bb0 <chDbgCheckClassI>
 8001646:	69e3      	ldr	r3, [r4, #28]
 8001648:	9a01      	ldr	r2, [sp, #4]
 800164a:	42b3      	cmp	r3, r6
 800164c:	d02a      	beq.n	80016a4 <chSchGoSleepTimeoutS+0xe4>
 800164e:	9902      	ldr	r1, [sp, #8]
 8001650:	600a      	str	r2, [r1, #0]
 8001652:	9b01      	ldr	r3, [sp, #4]
 8001654:	2200      	movs	r2, #0
 8001656:	42ab      	cmp	r3, r5
 8001658:	6059      	str	r1, [r3, #4]
 800165a:	9204      	str	r2, [sp, #16]
 800165c:	d003      	beq.n	8001666 <chSchGoSleepTimeoutS+0xa6>
 800165e:	689a      	ldr	r2, [r3, #8]
 8001660:	9903      	ldr	r1, [sp, #12]
 8001662:	440a      	add	r2, r1
 8001664:	609a      	str	r2, [r3, #8]
 8001666:	69a3      	ldr	r3, [r4, #24]
 8001668:	6a58      	ldr	r0, [r3, #36]	; 0x24
 800166a:	b007      	add	sp, #28
 800166c:	bdf0      	pop	{r4, r5, r6, r7, pc}
 800166e:	4c1e      	ldr	r4, [pc, #120]	; (80016e8 <chSchGoSleepTimeoutS+0x128>)
 8001670:	f7ff fec6 	bl	8001400 <chSchGoSleepS>
 8001674:	69a3      	ldr	r3, [r4, #24]
 8001676:	6a58      	ldr	r0, [r3, #36]	; 0x24
 8001678:	b007      	add	sp, #28
 800167a:	bdf0      	pop	{r4, r5, r6, r7, pc}
 800167c:	62a6      	str	r6, [r4, #40]	; 0x28
 800167e:	9103      	str	r1, [sp, #12]
 8001680:	68d1      	ldr	r1, [r2, #12]
 8001682:	9301      	str	r3, [sp, #4]
 8001684:	ae01      	add	r6, sp, #4
 8001686:	f011 0102 	ands.w	r1, r1, #2
 800168a:	9302      	str	r3, [sp, #8]
 800168c:	e9c4 6607 	strd	r6, r6, [r4, #28]
 8001690:	d104      	bne.n	800169c <chSchGoSleepTimeoutS+0xdc>
 8001692:	2302      	movs	r3, #2
 8001694:	6350      	str	r0, [r2, #52]	; 0x34
 8001696:	6111      	str	r1, [r2, #16]
 8001698:	60d3      	str	r3, [r2, #12]
 800169a:	e7cb      	b.n	8001634 <chSchGoSleepTimeoutS+0x74>
 800169c:	b672      	cpsid	i
 800169e:	4b15      	ldr	r3, [pc, #84]	; (80016f4 <chSchGoSleepTimeoutS+0x134>)
 80016a0:	62e3      	str	r3, [r4, #44]	; 0x2c
 80016a2:	e7fe      	b.n	80016a2 <chSchGoSleepTimeoutS+0xe2>
 80016a4:	2300      	movs	r3, #0
 80016a6:	42aa      	cmp	r2, r5
 80016a8:	61e2      	str	r2, [r4, #28]
 80016aa:	6055      	str	r5, [r2, #4]
 80016ac:	9304      	str	r3, [sp, #16]
 80016ae:	d017      	beq.n	80016e0 <chSchGoSleepTimeoutS+0x120>
 80016b0:	6893      	ldr	r3, [r2, #8]
 80016b2:	9803      	ldr	r0, [sp, #12]
 80016b4:	6aa1      	ldr	r1, [r4, #40]	; 0x28
 80016b6:	4403      	add	r3, r0
 80016b8:	f04f 4080 	mov.w	r0, #1073741824	; 0x40000000
 80016bc:	6093      	str	r3, [r2, #8]
 80016be:	6a40      	ldr	r0, [r0, #36]	; 0x24
 80016c0:	1a42      	subs	r2, r0, r1
 80016c2:	4293      	cmp	r3, r2
 80016c4:	d9cf      	bls.n	8001666 <chSchGoSleepTimeoutS+0xa6>
 80016c6:	1a9b      	subs	r3, r3, r2
 80016c8:	2b02      	cmp	r3, #2
 80016ca:	bf2c      	ite	cs
 80016cc:	18c0      	addcs	r0, r0, r3
 80016ce:	3002      	addcc	r0, #2
 80016d0:	f7ff f94e 	bl	8000970 <stSetAlarm>
 80016d4:	e7c7      	b.n	8001666 <chSchGoSleepTimeoutS+0xa6>
 80016d6:	f7ff f94b 	bl	8000970 <stSetAlarm>
 80016da:	69e3      	ldr	r3, [r4, #28]
 80016dc:	689a      	ldr	r2, [r3, #8]
 80016de:	e795      	b.n	800160c <chSchGoSleepTimeoutS+0x4c>
 80016e0:	f04f 4280 	mov.w	r2, #1073741824	; 0x40000000
 80016e4:	60d3      	str	r3, [r2, #12]
 80016e6:	e7be      	b.n	8001666 <chSchGoSleepTimeoutS+0xa6>
 80016e8:	20004e78 	.word	0x20004e78
 80016ec:	08004830 	.word	0x08004830
 80016f0:	08001301 	.word	0x08001301
 80016f4:	08004910 	.word	0x08004910
	...

08001700 <chThdEnqueueTimeoutS>:
 8001700:	b161      	cbz	r1, 800171c <chThdEnqueueTimeoutS+0x1c>
 8001702:	4b08      	ldr	r3, [pc, #32]	; (8001724 <chThdEnqueueTimeoutS+0x24>)
 8001704:	699b      	ldr	r3, [r3, #24]
 8001706:	b410      	push	{r4}
 8001708:	6018      	str	r0, [r3, #0]
 800170a:	6844      	ldr	r4, [r0, #4]
 800170c:	605c      	str	r4, [r3, #4]
 800170e:	4602      	mov	r2, r0
 8001710:	6023      	str	r3, [r4, #0]
 8001712:	2004      	movs	r0, #4
 8001714:	6053      	str	r3, [r2, #4]
 8001716:	bc10      	pop	{r4}
 8001718:	f7ff bf52 	b.w	80015c0 <chSchGoSleepTimeoutS>
 800171c:	f04f 30ff 	mov.w	r0, #4294967295	; 0xffffffff
 8001720:	4770      	bx	lr
 8001722:	bf00      	nop
 8001724:	20004e78 	.word	0x20004e78
	...

08001730 <Vector15C>:
 8001730:	e92d 47f0 	stmdb	sp!, {r4, r5, r6, r7, r8, r9, sl, lr}
 8001734:	4d7e      	ldr	r5, [pc, #504]	; (8001930 <Vector15C+0x200>)
 8001736:	f7ff f96b 	bl	8000a10 <_stats_increase_irq>
 800173a:	f7ff fae9 	bl	8000d10 <_dbg_check_enter_isr>
 800173e:	6f6e      	ldr	r6, [r5, #116]	; 0x74
 8001740:	f8d6 900c 	ldr.w	r9, [r6, #12]
 8001744:	6833      	ldr	r3, [r6, #0]
 8001746:	05da      	lsls	r2, r3, #23
 8001748:	b29c      	uxth	r4, r3
 800174a:	f100 809d 	bmi.w	8001888 <Vector15C+0x158>
 800174e:	2320      	movs	r3, #32
 8001750:	f383 8811 	msr	BASEPRI, r3
 8001754:	f7ff f9c4 	bl	8000ae0 <_stats_start_measure_crit_isr>
 8001758:	f7ff fd0a 	bl	8001170 <_dbg_check_lock_from_isr>
 800175c:	f014 0f2f 	tst.w	r4, #47	; 0x2f
 8001760:	d048      	beq.n	80017f4 <Vector15C+0xc4>
 8001762:	4f74      	ldr	r7, [pc, #464]	; (8001934 <Vector15C+0x204>)
 8001764:	f107 0808 	add.w	r8, r7, #8
 8001768:	e008      	b.n	800177c <Vector15C+0x4c>
 800176a:	06a0      	lsls	r0, r4, #26
 800176c:	f8d6 a004 	ldr.w	sl, [r6, #4]
 8001770:	d41e      	bmi.n	80017b0 <Vector15C+0x80>
 8001772:	6834      	ldr	r4, [r6, #0]
 8001774:	b2a4      	uxth	r4, r4
 8001776:	f014 0f2f 	tst.w	r4, #47	; 0x2f
 800177a:	d03b      	beq.n	80017f4 <Vector15C+0xc4>
 800177c:	0723      	lsls	r3, r4, #28
 800177e:	d0f4      	beq.n	800176a <Vector15C+0x3a>
 8001780:	f014 0f08 	tst.w	r4, #8
 8001784:	bf14      	ite	ne
 8001786:	2180      	movne	r1, #128	; 0x80
 8001788:	2100      	moveq	r1, #0
 800178a:	07e0      	lsls	r0, r4, #31
 800178c:	bf48      	it	mi
 800178e:	f041 0120 	orrmi.w	r1, r1, #32
 8001792:	07a2      	lsls	r2, r4, #30
 8001794:	bf48      	it	mi
 8001796:	f041 0140 	orrmi.w	r1, r1, #64	; 0x40
 800179a:	0763      	lsls	r3, r4, #29
 800179c:	bf48      	it	mi
 800179e:	f441 7180 	orrmi.w	r1, r1, #256	; 0x100
 80017a2:	4638      	mov	r0, r7
 80017a4:	f7ff fa5c 	bl	8000c60 <chEvtBroadcastFlagsI>
 80017a8:	06a0      	lsls	r0, r4, #26
 80017aa:	f8d6 a004 	ldr.w	sl, [r6, #4]
 80017ae:	d5e0      	bpl.n	8001772 <Vector15C+0x42>
 80017b0:	f7ff f9fe 	bl	8000bb0 <chDbgCheckClassI>
 80017b4:	f7ff f9fc 	bl	8000bb0 <chDbgCheckClassI>
 80017b8:	6969      	ldr	r1, [r5, #20]
 80017ba:	b379      	cbz	r1, 800181c <Vector15C+0xec>
 80017bc:	f7ff f9f8 	bl	8000bb0 <chDbgCheckClassI>
 80017c0:	f7ff f9f6 	bl	8000bb0 <chDbgCheckClassI>
 80017c4:	e9d5 2308 	ldrd	r2, r3, [r5, #32]
 80017c8:	4293      	cmp	r3, r2
 80017ca:	d036      	beq.n	800183a <Vector15C+0x10a>
 80017cc:	1c53      	adds	r3, r2, #1
 80017ce:	3101      	adds	r1, #1
 80017d0:	622b      	str	r3, [r5, #32]
 80017d2:	6169      	str	r1, [r5, #20]
 80017d4:	f882 a000 	strb.w	sl, [r2]
 80017d8:	e9d5 3207 	ldrd	r3, r2, [r5, #28]
 80017dc:	429a      	cmp	r2, r3
 80017de:	d301      	bcc.n	80017e4 <Vector15C+0xb4>
 80017e0:	69ab      	ldr	r3, [r5, #24]
 80017e2:	622b      	str	r3, [r5, #32]
 80017e4:	4640      	mov	r0, r8
 80017e6:	f7ff fa1b 	bl	8000c20 <chThdDequeueNextI.constprop.26>
 80017ea:	6834      	ldr	r4, [r6, #0]
 80017ec:	b2a4      	uxth	r4, r4
 80017ee:	f014 0f2f 	tst.w	r4, #47	; 0x2f
 80017f2:	d1c3      	bne.n	800177c <Vector15C+0x4c>
 80017f4:	f7ff fca4 	bl	8001140 <_dbg_check_unlock_from_isr>
 80017f8:	f7ff f962 	bl	8000ac0 <_stats_stop_measure_crit_isr>
 80017fc:	2300      	movs	r3, #0
 80017fe:	f383 8811 	msr	BASEPRI, r3
 8001802:	f019 0f80 	tst.w	r9, #128	; 0x80
 8001806:	d001      	beq.n	800180c <Vector15C+0xdc>
 8001808:	0622      	lsls	r2, r4, #24
 800180a:	d454      	bmi.n	80018b6 <Vector15C+0x186>
 800180c:	0663      	lsls	r3, r4, #25
 800180e:	d419      	bmi.n	8001844 <Vector15C+0x114>
 8001810:	f7ff fa66 	bl	8000ce0 <_dbg_check_leave_isr>
 8001814:	e8bd 47f0 	ldmia.w	sp!, {r4, r5, r6, r7, r8, r9, sl, lr}
 8001818:	f7ff b8ba 	b.w	8000990 <_port_irq_epilogue>
 800181c:	2104      	movs	r1, #4
 800181e:	4638      	mov	r0, r7
 8001820:	f7ff fa1e 	bl	8000c60 <chEvtBroadcastFlagsI>
 8001824:	f7ff f9c4 	bl	8000bb0 <chDbgCheckClassI>
 8001828:	f7ff f9c2 	bl	8000bb0 <chDbgCheckClassI>
 800182c:	e9d5 2308 	ldrd	r2, r3, [r5, #32]
 8001830:	429a      	cmp	r2, r3
 8001832:	6969      	ldr	r1, [r5, #20]
 8001834:	d1ca      	bne.n	80017cc <Vector15C+0x9c>
 8001836:	2900      	cmp	r1, #0
 8001838:	d0c8      	beq.n	80017cc <Vector15C+0x9c>
 800183a:	2180      	movs	r1, #128	; 0x80
 800183c:	4638      	mov	r0, r7
 800183e:	f7ff fa0f 	bl	8000c60 <chEvtBroadcastFlagsI>
 8001842:	e796      	b.n	8001772 <Vector15C+0x42>
 8001844:	2320      	movs	r3, #32
 8001846:	f383 8811 	msr	BASEPRI, r3
 800184a:	f7ff f949 	bl	8000ae0 <_stats_start_measure_crit_isr>
 800184e:	f7ff fc8f 	bl	8001170 <_dbg_check_lock_from_isr>
 8001852:	f7ff f9ad 	bl	8000bb0 <chDbgCheckClassI>
 8001856:	e9d5 2311 	ldrd	r2, r3, [r5, #68]	; 0x44
 800185a:	429a      	cmp	r2, r3
 800185c:	d051      	beq.n	8001902 <Vector15C+0x1d2>
 800185e:	f64f 73bf 	movw	r3, #65471	; 0xffbf
 8001862:	ea09 0303 	and.w	r3, r9, r3
 8001866:	f06f 0240 	mvn.w	r2, #64	; 0x40
 800186a:	60f3      	str	r3, [r6, #12]
 800186c:	6032      	str	r2, [r6, #0]
 800186e:	f7ff fc67 	bl	8001140 <_dbg_check_unlock_from_isr>
 8001872:	f7ff f925 	bl	8000ac0 <_stats_stop_measure_crit_isr>
 8001876:	2300      	movs	r3, #0
 8001878:	f383 8811 	msr	BASEPRI, r3
 800187c:	f7ff fa30 	bl	8000ce0 <_dbg_check_leave_isr>
 8001880:	e8bd 47f0 	ldmia.w	sp!, {r4, r5, r6, r7, r8, r9, sl, lr}
 8001884:	f7ff b884 	b.w	8000990 <_port_irq_epilogue>
 8001888:	2320      	movs	r3, #32
 800188a:	f383 8811 	msr	BASEPRI, r3
 800188e:	f7ff f927 	bl	8000ae0 <_stats_start_measure_crit_isr>
 8001892:	f7ff fc6d 	bl	8001170 <_dbg_check_lock_from_isr>
 8001896:	1d28      	adds	r0, r5, #4
 8001898:	f44f 7100 	mov.w	r1, #512	; 0x200
 800189c:	f7ff f9e0 	bl	8000c60 <chEvtBroadcastFlagsI>
 80018a0:	f46f 7380 	mvn.w	r3, #256	; 0x100
 80018a4:	6033      	str	r3, [r6, #0]
 80018a6:	f7ff fc4b 	bl	8001140 <_dbg_check_unlock_from_isr>
 80018aa:	f7ff f909 	bl	8000ac0 <_stats_stop_measure_crit_isr>
 80018ae:	2300      	movs	r3, #0
 80018b0:	f383 8811 	msr	BASEPRI, r3
 80018b4:	e74b      	b.n	800174e <Vector15C+0x1e>
 80018b6:	2320      	movs	r3, #32
 80018b8:	f383 8811 	msr	BASEPRI, r3
 80018bc:	f7ff f910 	bl	8000ae0 <_stats_start_measure_crit_isr>
 80018c0:	f7ff fc56 	bl	8001170 <_dbg_check_lock_from_isr>
 80018c4:	f7ff f974 	bl	8000bb0 <chDbgCheckClassI>
 80018c8:	f7ff f972 	bl	8000bb0 <chDbgCheckClassI>
 80018cc:	e9d5 3211 	ldrd	r3, r2, [r5, #68]	; 0x44
 80018d0:	4293      	cmp	r3, r2
 80018d2:	6bab      	ldr	r3, [r5, #56]	; 0x38
 80018d4:	d01d      	beq.n	8001912 <Vector15C+0x1e2>
 80018d6:	6c29      	ldr	r1, [r5, #64]	; 0x40
 80018d8:	1c50      	adds	r0, r2, #1
 80018da:	3301      	adds	r3, #1
 80018dc:	63ab      	str	r3, [r5, #56]	; 0x38
 80018de:	64a8      	str	r0, [r5, #72]	; 0x48
 80018e0:	4288      	cmp	r0, r1
 80018e2:	7817      	ldrb	r7, [r2, #0]
 80018e4:	d301      	bcc.n	80018ea <Vector15C+0x1ba>
 80018e6:	6beb      	ldr	r3, [r5, #60]	; 0x3c
 80018e8:	64ab      	str	r3, [r5, #72]	; 0x48
 80018ea:	4813      	ldr	r0, [pc, #76]	; (8001938 <Vector15C+0x208>)
 80018ec:	f7ff f998 	bl	8000c20 <chThdDequeueNextI.constprop.26>
 80018f0:	6077      	str	r7, [r6, #4]
 80018f2:	f7ff fc25 	bl	8001140 <_dbg_check_unlock_from_isr>
 80018f6:	f7ff f8e3 	bl	8000ac0 <_stats_stop_measure_crit_isr>
 80018fa:	2300      	movs	r3, #0
 80018fc:	f383 8811 	msr	BASEPRI, r3
 8001900:	e784      	b.n	800180c <Vector15C+0xdc>
 8001902:	6bab      	ldr	r3, [r5, #56]	; 0x38
 8001904:	2b00      	cmp	r3, #0
 8001906:	d0aa      	beq.n	800185e <Vector15C+0x12e>
 8001908:	2110      	movs	r1, #16
 800190a:	480a      	ldr	r0, [pc, #40]	; (8001934 <Vector15C+0x204>)
 800190c:	f7ff f9a8 	bl	8000c60 <chEvtBroadcastFlagsI>
 8001910:	e7a5      	b.n	800185e <Vector15C+0x12e>
 8001912:	2b00      	cmp	r3, #0
 8001914:	d0df      	beq.n	80018d6 <Vector15C+0x1a6>
 8001916:	2108      	movs	r1, #8
 8001918:	4806      	ldr	r0, [pc, #24]	; (8001934 <Vector15C+0x204>)
 800191a:	f7ff f9a1 	bl	8000c60 <chEvtBroadcastFlagsI>
 800191e:	f64f 733f 	movw	r3, #65343	; 0xff3f
 8001922:	ea09 0303 	and.w	r3, r9, r3
 8001926:	f043 0340 	orr.w	r3, r3, #64	; 0x40
 800192a:	60f3      	str	r3, [r6, #12]
 800192c:	e7e1      	b.n	80018f2 <Vector15C+0x1c2>
 800192e:	bf00      	nop
 8001930:	20000db0 	.word	0x20000db0
 8001934:	20000db4 	.word	0x20000db4
 8001938:	20000de0 	.word	0x20000de0
 800193c:	00000000 	.word	0x00000000

08001940 <_strtok.constprop.3>:
 8001940:	b538      	push	{r3, r4, r5, lr}
 8001942:	460d      	mov	r5, r1
 8001944:	b198      	cbz	r0, 800196e <_strtok.constprop.3+0x2e>
 8001946:	4604      	mov	r4, r0
 8001948:	6028      	str	r0, [r5, #0]
 800194a:	490d      	ldr	r1, [pc, #52]	; (8001980 <_strtok.constprop.3+0x40>)
 800194c:	4620      	mov	r0, r4
 800194e:	f002 fe8f 	bl	8004670 <strspn>
 8001952:	4404      	add	r4, r0
 8001954:	4620      	mov	r0, r4
 8001956:	490a      	ldr	r1, [pc, #40]	; (8001980 <_strtok.constprop.3+0x40>)
 8001958:	f002 fe62 	bl	8004620 <strpbrk>
 800195c:	b168      	cbz	r0, 800197a <_strtok.constprop.3+0x3a>
 800195e:	1c42      	adds	r2, r0, #1
 8001960:	2300      	movs	r3, #0
 8001962:	602a      	str	r2, [r5, #0]
 8001964:	7003      	strb	r3, [r0, #0]
 8001966:	7823      	ldrb	r3, [r4, #0]
 8001968:	b123      	cbz	r3, 8001974 <_strtok.constprop.3+0x34>
 800196a:	4620      	mov	r0, r4
 800196c:	bd38      	pop	{r3, r4, r5, pc}
 800196e:	680c      	ldr	r4, [r1, #0]
 8001970:	2c00      	cmp	r4, #0
 8001972:	d1ea      	bne.n	800194a <_strtok.constprop.3+0xa>
 8001974:	2400      	movs	r4, #0
 8001976:	4620      	mov	r0, r4
 8001978:	bd38      	pop	{r3, r4, r5, pc}
 800197a:	6028      	str	r0, [r5, #0]
 800197c:	e7f3      	b.n	8001966 <_strtok.constprop.3+0x26>
 800197e:	bf00      	nop
 8001980:	08004bb0 	.word	0x08004bb0
	...

08001990 <chprintf.lto_priv.57>:
 8001990:	b40e      	push	{r1, r2, r3}
 8001992:	e92d 4ff0 	stmdb	sp!, {r4, r5, r6, r7, r8, r9, sl, fp, lr}
 8001996:	b086      	sub	sp, #24
 8001998:	af0f      	add	r7, sp, #60	; 0x3c
 800199a:	4604      	mov	r4, r0
 800199c:	f857 6b04 	ldr.w	r6, [r7], #4
 80019a0:	9702      	str	r7, [sp, #8]
 80019a2:	f04f 0800 	mov.w	r8, #0
 80019a6:	7831      	ldrb	r1, [r6, #0]
 80019a8:	1c72      	adds	r2, r6, #1
 80019aa:	b161      	cbz	r1, 80019c6 <chprintf.lto_priv.57+0x36>
 80019ac:	2925      	cmp	r1, #37	; 0x25
 80019ae:	d010      	beq.n	80019d2 <chprintf.lto_priv.57+0x42>
 80019b0:	6823      	ldr	r3, [r4, #0]
 80019b2:	4616      	mov	r6, r2
 80019b4:	689b      	ldr	r3, [r3, #8]
 80019b6:	4620      	mov	r0, r4
 80019b8:	4798      	blx	r3
 80019ba:	7831      	ldrb	r1, [r6, #0]
 80019bc:	f108 0801 	add.w	r8, r8, #1
 80019c0:	1c72      	adds	r2, r6, #1
 80019c2:	2900      	cmp	r1, #0
 80019c4:	d1f2      	bne.n	80019ac <chprintf.lto_priv.57+0x1c>
 80019c6:	4640      	mov	r0, r8
 80019c8:	b006      	add	sp, #24
 80019ca:	e8bd 4ff0 	ldmia.w	sp!, {r4, r5, r6, r7, r8, r9, sl, fp, lr}
 80019ce:	b003      	add	sp, #12
 80019d0:	4770      	bx	lr
 80019d2:	7871      	ldrb	r1, [r6, #1]
 80019d4:	292d      	cmp	r1, #45	; 0x2d
 80019d6:	bf03      	ittte	eq
 80019d8:	78b1      	ldrbeq	r1, [r6, #2]
 80019da:	1cb2      	addeq	r2, r6, #2
 80019dc:	f04f 0c01 	moveq.w	ip, #1
 80019e0:	f04f 0c00 	movne.w	ip, #0
 80019e4:	2930      	cmp	r1, #48	; 0x30
 80019e6:	bf03      	ittte	eq
 80019e8:	7851      	ldrbeq	r1, [r2, #1]
 80019ea:	3201      	addeq	r2, #1
 80019ec:	f04f 0a30 	moveq.w	sl, #48	; 0x30
 80019f0:	f04f 0a20 	movne.w	sl, #32
 80019f4:	3201      	adds	r2, #1
 80019f6:	2500      	movs	r5, #0
 80019f8:	e005      	b.n	8001a06 <chprintf.lto_priv.57+0x76>
 80019fa:	783b      	ldrb	r3, [r7, #0]
 80019fc:	3704      	adds	r7, #4
 80019fe:	f812 1b01 	ldrb.w	r1, [r2], #1
 8001a02:	eb03 0540 	add.w	r5, r3, r0, lsl #1
 8001a06:	f1a1 0330 	sub.w	r3, r1, #48	; 0x30
 8001a0a:	b2db      	uxtb	r3, r3
 8001a0c:	2b09      	cmp	r3, #9
 8001a0e:	4696      	mov	lr, r2
 8001a10:	eb05 0085 	add.w	r0, r5, r5, lsl #2
 8001a14:	d9f3      	bls.n	80019fe <chprintf.lto_priv.57+0x6e>
 8001a16:	292a      	cmp	r1, #42	; 0x2a
 8001a18:	d0ef      	beq.n	80019fa <chprintf.lto_priv.57+0x6a>
 8001a1a:	292e      	cmp	r1, #46	; 0x2e
 8001a1c:	f04f 0200 	mov.w	r2, #0
 8001a20:	d048      	beq.n	8001ab4 <chprintf.lto_priv.57+0x124>
 8001a22:	f001 03df 	and.w	r3, r1, #223	; 0xdf
 8001a26:	2b4c      	cmp	r3, #76	; 0x4c
 8001a28:	f10e 0601 	add.w	r6, lr, #1
 8001a2c:	d04e      	beq.n	8001acc <chprintf.lto_priv.57+0x13c>
 8001a2e:	f1a1 0341 	sub.w	r3, r1, #65	; 0x41
 8001a32:	f1a1 0044 	sub.w	r0, r1, #68	; 0x44
 8001a36:	b2db      	uxtb	r3, r3
 8001a38:	2834      	cmp	r0, #52	; 0x34
 8001a3a:	f200 8116 	bhi.w	8001c6a <chprintf.lto_priv.57+0x2da>
 8001a3e:	e8df f010 	tbh	[pc, r0, lsl #1]
 8001a42:	0165      	.short	0x0165
 8001a44:	01140114 	.word	0x01140114
 8001a48:	01140114 	.word	0x01140114
 8001a4c:	01140165 	.word	0x01140165
 8001a50:	01140114 	.word	0x01140114
 8001a54:	01140114 	.word	0x01140114
 8001a58:	01140110 	.word	0x01140110
 8001a5c:	01140114 	.word	0x01140114
 8001a60:	01140114 	.word	0x01140114
 8001a64:	011400e1 	.word	0x011400e1
 8001a68:	016e0114 	.word	0x016e0114
 8001a6c:	01140114 	.word	0x01140114
 8001a70:	01140114 	.word	0x01140114
 8001a74:	01140114 	.word	0x01140114
 8001a78:	01140114 	.word	0x01140114
 8001a7c:	01140114 	.word	0x01140114
 8001a80:	0165008f 	.word	0x0165008f
 8001a84:	01140114 	.word	0x01140114
 8001a88:	01140114 	.word	0x01140114
 8001a8c:	01140165 	.word	0x01140165
 8001a90:	01140114 	.word	0x01140114
 8001a94:	01140114 	.word	0x01140114
 8001a98:	01140110 	.word	0x01140110
 8001a9c:	01140114 	.word	0x01140114
 8001aa0:	0114006d 	.word	0x0114006d
 8001aa4:	011400e1 	.word	0x011400e1
 8001aa8:	016e0114 	.word	0x016e0114
 8001aac:	783b      	ldrb	r3, [r7, #0]
 8001aae:	3704      	adds	r7, #4
 8001ab0:	eb03 0240 	add.w	r2, r3, r0, lsl #1
 8001ab4:	f81e 1b01 	ldrb.w	r1, [lr], #1
 8001ab8:	f1a1 0330 	sub.w	r3, r1, #48	; 0x30
 8001abc:	b2db      	uxtb	r3, r3
 8001abe:	2b09      	cmp	r3, #9
 8001ac0:	eb02 0082 	add.w	r0, r2, r2, lsl #2
 8001ac4:	d9f4      	bls.n	8001ab0 <chprintf.lto_priv.57+0x120>
 8001ac6:	292a      	cmp	r1, #42	; 0x2a
 8001ac8:	d0f0      	beq.n	8001aac <chprintf.lto_priv.57+0x11c>
 8001aca:	e7aa      	b.n	8001a22 <chprintf.lto_priv.57+0x92>
 8001acc:	f89e 3000 	ldrb.w	r3, [lr]
 8001ad0:	b30b      	cbz	r3, 8001b16 <chprintf.lto_priv.57+0x186>
 8001ad2:	f1a3 0144 	sub.w	r1, r3, #68	; 0x44
 8001ad6:	2934      	cmp	r1, #52	; 0x34
 8001ad8:	f200 80c9 	bhi.w	8001c6e <chprintf.lto_priv.57+0x2de>
 8001adc:	e8df f001 	tbb	[pc, r1]
 8001ae0:	c7c7c7d7 	.word	0xc7c7c7d7
 8001ae4:	c7c7d7c7 	.word	0xc7c7d7c7
 8001ae8:	c2c7c7c7 	.word	0xc2c7c7c7
 8001aec:	c7c7c7c7 	.word	0xc7c7c7c7
 8001af0:	c7c793c7 	.word	0xc7c793c7
 8001af4:	c7c7c7d4 	.word	0xc7c7c7d4
 8001af8:	c7c7c7c7 	.word	0xc7c7c7c7
 8001afc:	41c7c7c7 	.word	0x41c7c7c7
 8001b00:	c7c7c7d7 	.word	0xc7c7c7d7
 8001b04:	c7c7d7c7 	.word	0xc7c7d7c7
 8001b08:	c2c7c7c7 	.word	0xc2c7c7c7
 8001b0c:	1fc7c7c7 	.word	0x1fc7c7c7
 8001b10:	c7c793c7 	.word	0xc7c793c7
 8001b14:	d4          	.byte	0xd4
 8001b15:	00          	.byte	0x00
 8001b16:	460b      	mov	r3, r1
 8001b18:	4676      	mov	r6, lr
 8001b1a:	e7da      	b.n	8001ad2 <chprintf.lto_priv.57+0x142>
 8001b1c:	4676      	mov	r6, lr
 8001b1e:	f8d7 9000 	ldr.w	r9, [r7]
 8001b22:	3704      	adds	r7, #4
 8001b24:	f1b9 0f00 	cmp.w	r9, #0
 8001b28:	f000 80fd 	beq.w	8001d26 <chprintf.lto_priv.57+0x396>
 8001b2c:	f899 3000 	ldrb.w	r3, [r9]
 8001b30:	4648      	mov	r0, r9
 8001b32:	2a00      	cmp	r2, #0
 8001b34:	f040 80fe 	bne.w	8001d34 <chprintf.lto_priv.57+0x3a4>
 8001b38:	2b00      	cmp	r3, #0
 8001b3a:	f000 810c 	beq.w	8001d56 <chprintf.lto_priv.57+0x3c6>
 8001b3e:	f647 72fe 	movw	r2, #32766	; 0x7ffe
 8001b42:	464b      	mov	r3, r9
 8001b44:	e001      	b.n	8001b4a <chprintf.lto_priv.57+0x1ba>
 8001b46:	3a01      	subs	r2, #1
 8001b48:	d403      	bmi.n	8001b52 <chprintf.lto_priv.57+0x1c2>
 8001b4a:	f813 1f01 	ldrb.w	r1, [r3, #1]!
 8001b4e:	2900      	cmp	r1, #0
 8001b50:	d1f9      	bne.n	8001b46 <chprintf.lto_priv.57+0x1b6>
 8001b52:	1a1b      	subs	r3, r3, r0
 8001b54:	1aed      	subs	r5, r5, r3
 8001b56:	3b01      	subs	r3, #1
 8001b58:	9300      	str	r3, [sp, #0]
 8001b5a:	f04f 0a20 	mov.w	sl, #32
 8001b5e:	e00b      	b.n	8001b78 <chprintf.lto_priv.57+0x1e8>
 8001b60:	4676      	mov	r6, lr
 8001b62:	f10d 0918 	add.w	r9, sp, #24
 8001b66:	683b      	ldr	r3, [r7, #0]
 8001b68:	f809 3d0c 	strb.w	r3, [r9, #-12]!
 8001b6c:	2300      	movs	r3, #0
 8001b6e:	3d01      	subs	r5, #1
 8001b70:	3704      	adds	r7, #4
 8001b72:	9300      	str	r3, [sp, #0]
 8001b74:	f04f 0a20 	mov.w	sl, #32
 8001b78:	2d00      	cmp	r5, #0
 8001b7a:	db1e      	blt.n	8001bba <chprintf.lto_priv.57+0x22a>
 8001b7c:	f1bc 0f00 	cmp.w	ip, #0
 8001b80:	d17e      	bne.n	8001c80 <chprintf.lto_priv.57+0x2f0>
 8001b82:	426b      	negs	r3, r5
 8001b84:	2d00      	cmp	r5, #0
 8001b86:	d07a      	beq.n	8001c7e <chprintf.lto_priv.57+0x2ee>
 8001b88:	f899 1000 	ldrb.w	r1, [r9]
 8001b8c:	6822      	ldr	r2, [r4, #0]
 8001b8e:	292d      	cmp	r1, #45	; 0x2d
 8001b90:	6892      	ldr	r2, [r2, #8]
 8001b92:	f000 80a8 	beq.w	8001ce6 <chprintf.lto_priv.57+0x356>
 8001b96:	469b      	mov	fp, r3
 8001b98:	e001      	b.n	8001b9e <chprintf.lto_priv.57+0x20e>
 8001b9a:	6823      	ldr	r3, [r4, #0]
 8001b9c:	689a      	ldr	r2, [r3, #8]
 8001b9e:	4651      	mov	r1, sl
 8001ba0:	4620      	mov	r0, r4
 8001ba2:	4790      	blx	r2
 8001ba4:	f11b 0b01 	adds.w	fp, fp, #1
 8001ba8:	d1f7      	bne.n	8001b9a <chprintf.lto_priv.57+0x20a>
 8001baa:	9a00      	ldr	r2, [sp, #0]
 8001bac:	2a00      	cmp	r2, #0
 8001bae:	465b      	mov	r3, fp
 8001bb0:	44a8      	add	r8, r5
 8001bb2:	f6ff aef8 	blt.w	80019a6 <chprintf.lto_priv.57+0x16>
 8001bb6:	461d      	mov	r5, r3
 8001bb8:	e004      	b.n	8001bc4 <chprintf.lto_priv.57+0x234>
 8001bba:	9b00      	ldr	r3, [sp, #0]
 8001bbc:	2b00      	cmp	r3, #0
 8001bbe:	f6ff aef2 	blt.w	80019a6 <chprintf.lto_priv.57+0x16>
 8001bc2:	2500      	movs	r5, #0
 8001bc4:	f8dd b000 	ldr.w	fp, [sp]
 8001bc8:	6823      	ldr	r3, [r4, #0]
 8001bca:	f819 1b01 	ldrb.w	r1, [r9], #1
 8001bce:	689b      	ldr	r3, [r3, #8]
 8001bd0:	f10b 3bff 	add.w	fp, fp, #4294967295	; 0xffffffff
 8001bd4:	4620      	mov	r0, r4
 8001bd6:	4798      	blx	r3
 8001bd8:	f1bb 3fff 	cmp.w	fp, #4294967295	; 0xffffffff
 8001bdc:	d1f4      	bne.n	8001bc8 <chprintf.lto_priv.57+0x238>
 8001bde:	9b00      	ldr	r3, [sp, #0]
 8001be0:	f108 0801 	add.w	r8, r8, #1
 8001be4:	4443      	add	r3, r8
 8001be6:	4698      	mov	r8, r3
 8001be8:	2d00      	cmp	r5, #0
 8001bea:	f43f aedc 	beq.w	80019a6 <chprintf.lto_priv.57+0x16>
 8001bee:	46a9      	mov	r9, r5
 8001bf0:	6823      	ldr	r3, [r4, #0]
 8001bf2:	4651      	mov	r1, sl
 8001bf4:	689b      	ldr	r3, [r3, #8]
 8001bf6:	4620      	mov	r0, r4
 8001bf8:	4798      	blx	r3
 8001bfa:	f1b9 0901 	subs.w	r9, r9, #1
 8001bfe:	d1f7      	bne.n	8001bf0 <chprintf.lto_priv.57+0x260>
 8001c00:	44a8      	add	r8, r5
 8001c02:	e6d0      	b.n	80019a6 <chprintf.lto_priv.57+0x16>
 8001c04:	4676      	mov	r6, lr
 8001c06:	f04f 090a 	mov.w	r9, #10
 8001c0a:	f857 2b04 	ldr.w	r2, [r7], #4
 8001c0e:	f10d 0117 	add.w	r1, sp, #23
 8001c12:	e000      	b.n	8001c16 <chprintf.lto_priv.57+0x286>
 8001c14:	4601      	mov	r1, r0
 8001c16:	fbb2 fef9 	udiv	lr, r2, r9
 8001c1a:	fb09 221e 	mls	r2, r9, lr, r2
 8001c1e:	f102 0330 	add.w	r3, r2, #48	; 0x30
 8001c22:	2b39      	cmp	r3, #57	; 0x39
 8001c24:	bfc8      	it	gt
 8001c26:	f102 0337 	addgt.w	r3, r2, #55	; 0x37
 8001c2a:	b2db      	uxtb	r3, r3
 8001c2c:	4672      	mov	r2, lr
 8001c2e:	f801 3c01 	strb.w	r3, [r1, #-1]
 8001c32:	1e48      	subs	r0, r1, #1
 8001c34:	2a00      	cmp	r2, #0
 8001c36:	d1ed      	bne.n	8001c14 <chprintf.lto_priv.57+0x284>
 8001c38:	f10d 0217 	add.w	r2, sp, #23
 8001c3c:	eba2 0b00 	sub.w	fp, r2, r0
 8001c40:	f10d 090c 	add.w	r9, sp, #12
 8001c44:	464a      	mov	r2, r9
 8001c46:	4458      	add	r0, fp
 8001c48:	e001      	b.n	8001c4e <chprintf.lto_priv.57+0x2be>
 8001c4a:	f811 3b01 	ldrb.w	r3, [r1], #1
 8001c4e:	f802 3b01 	strb.w	r3, [r2], #1
 8001c52:	4281      	cmp	r1, r0
 8001c54:	d1f9      	bne.n	8001c4a <chprintf.lto_priv.57+0x2ba>
 8001c56:	f10b 33ff 	add.w	r3, fp, #4294967295	; 0xffffffff
 8001c5a:	eba5 050b 	sub.w	r5, r5, fp
 8001c5e:	9300      	str	r3, [sp, #0]
 8001c60:	e78a      	b.n	8001b78 <chprintf.lto_priv.57+0x1e8>
 8001c62:	4676      	mov	r6, lr
 8001c64:	f04f 0908 	mov.w	r9, #8
 8001c68:	e7cf      	b.n	8001c0a <chprintf.lto_priv.57+0x27a>
 8001c6a:	4676      	mov	r6, lr
 8001c6c:	460b      	mov	r3, r1
 8001c6e:	f10d 0918 	add.w	r9, sp, #24
 8001c72:	3d01      	subs	r5, #1
 8001c74:	f809 3d0c 	strb.w	r3, [r9, #-12]!
 8001c78:	2300      	movs	r3, #0
 8001c7a:	9300      	str	r3, [sp, #0]
 8001c7c:	e77c      	b.n	8001b78 <chprintf.lto_priv.57+0x1e8>
 8001c7e:	461d      	mov	r5, r3
 8001c80:	9b00      	ldr	r3, [sp, #0]
 8001c82:	2b00      	cmp	r3, #0
 8001c84:	da9e      	bge.n	8001bc4 <chprintf.lto_priv.57+0x234>
 8001c86:	e7af      	b.n	8001be8 <chprintf.lto_priv.57+0x258>
 8001c88:	f04f 0910 	mov.w	r9, #16
 8001c8c:	e7bd      	b.n	8001c0a <chprintf.lto_priv.57+0x27a>
 8001c8e:	1d39      	adds	r1, r7, #4
 8001c90:	683a      	ldr	r2, [r7, #0]
 8001c92:	460f      	mov	r7, r1
 8001c94:	2a00      	cmp	r2, #0
 8001c96:	db55      	blt.n	8001d44 <chprintf.lto_priv.57+0x3b4>
 8001c98:	f10d 090c 	add.w	r9, sp, #12
 8001c9c:	4648      	mov	r0, r9
 8001c9e:	f100 030b 	add.w	r3, r0, #11
 8001ca2:	9300      	str	r3, [sp, #0]
 8001ca4:	4619      	mov	r1, r3
 8001ca6:	4b2f      	ldr	r3, [pc, #188]	; (8001d64 <chprintf.lto_priv.57+0x3d4>)
 8001ca8:	fba3 e302 	umull	lr, r3, r3, r2
 8001cac:	08db      	lsrs	r3, r3, #3
 8001cae:	eb03 0b83 	add.w	fp, r3, r3, lsl #2
 8001cb2:	469e      	mov	lr, r3
 8001cb4:	eba2 034b 	sub.w	r3, r2, fp, lsl #1
 8001cb8:	3330      	adds	r3, #48	; 0x30
 8001cba:	b2db      	uxtb	r3, r3
 8001cbc:	4672      	mov	r2, lr
 8001cbe:	f801 3d01 	strb.w	r3, [r1, #-1]!
 8001cc2:	2a00      	cmp	r2, #0
 8001cc4:	d1ef      	bne.n	8001ca6 <chprintf.lto_priv.57+0x316>
 8001cc6:	9a00      	ldr	r2, [sp, #0]
 8001cc8:	1a52      	subs	r2, r2, r1
 8001cca:	4402      	add	r2, r0
 8001ccc:	e001      	b.n	8001cd2 <chprintf.lto_priv.57+0x342>
 8001cce:	f811 3f01 	ldrb.w	r3, [r1, #1]!
 8001cd2:	f800 3b01 	strb.w	r3, [r0], #1
 8001cd6:	4290      	cmp	r0, r2
 8001cd8:	d1f9      	bne.n	8001cce <chprintf.lto_priv.57+0x33e>
 8001cda:	eba0 0009 	sub.w	r0, r0, r9
 8001cde:	1e43      	subs	r3, r0, #1
 8001ce0:	1a2d      	subs	r5, r5, r0
 8001ce2:	9300      	str	r3, [sp, #0]
 8001ce4:	e748      	b.n	8001b78 <chprintf.lto_priv.57+0x1e8>
 8001ce6:	f1ba 0f30 	cmp.w	sl, #48	; 0x30
 8001cea:	f47f af54 	bne.w	8001b96 <chprintf.lto_priv.57+0x206>
 8001cee:	4620      	mov	r0, r4
 8001cf0:	9301      	str	r3, [sp, #4]
 8001cf2:	4790      	blx	r2
 8001cf4:	9b00      	ldr	r3, [sp, #0]
 8001cf6:	6822      	ldr	r2, [r4, #0]
 8001cf8:	3b01      	subs	r3, #1
 8001cfa:	9300      	str	r3, [sp, #0]
 8001cfc:	9b01      	ldr	r3, [sp, #4]
 8001cfe:	6892      	ldr	r2, [r2, #8]
 8001d00:	f108 0801 	add.w	r8, r8, #1
 8001d04:	f109 0901 	add.w	r9, r9, #1
 8001d08:	469b      	mov	fp, r3
 8001d0a:	e748      	b.n	8001b9e <chprintf.lto_priv.57+0x20e>
 8001d0c:	4639      	mov	r1, r7
 8001d0e:	2b19      	cmp	r3, #25
 8001d10:	f851 2b04 	ldr.w	r2, [r1], #4
 8001d14:	4676      	mov	r6, lr
 8001d16:	bf88      	it	hi
 8001d18:	460f      	movhi	r7, r1
 8001d1a:	d8bb      	bhi.n	8001c94 <chprintf.lto_priv.57+0x304>
 8001d1c:	e7b8      	b.n	8001c90 <chprintf.lto_priv.57+0x300>
 8001d1e:	4676      	mov	r6, lr
 8001d20:	f04f 0910 	mov.w	r9, #16
 8001d24:	e771      	b.n	8001c0a <chprintf.lto_priv.57+0x27a>
 8001d26:	4810      	ldr	r0, [pc, #64]	; (8001d68 <chprintf.lto_priv.57+0x3d8>)
 8001d28:	4681      	mov	r9, r0
 8001d2a:	2a00      	cmp	r2, #0
 8001d2c:	f43f af07 	beq.w	8001b3e <chprintf.lto_priv.57+0x1ae>
 8001d30:	3a01      	subs	r2, #1
 8001d32:	e706      	b.n	8001b42 <chprintf.lto_priv.57+0x1b2>
 8001d34:	2b00      	cmp	r3, #0
 8001d36:	d1fb      	bne.n	8001d30 <chprintf.lto_priv.57+0x3a0>
 8001d38:	f04f 33ff 	mov.w	r3, #4294967295	; 0xffffffff
 8001d3c:	9300      	str	r3, [sp, #0]
 8001d3e:	f04f 0a20 	mov.w	sl, #32
 8001d42:	e719      	b.n	8001b78 <chprintf.lto_priv.57+0x1e8>
 8001d44:	232d      	movs	r3, #45	; 0x2d
 8001d46:	4252      	negs	r2, r2
 8001d48:	f88d 300c 	strb.w	r3, [sp, #12]
 8001d4c:	f10d 000d 	add.w	r0, sp, #13
 8001d50:	f10d 090c 	add.w	r9, sp, #12
 8001d54:	e7a3      	b.n	8001c9e <chprintf.lto_priv.57+0x30e>
 8001d56:	f04f 33ff 	mov.w	r3, #4294967295	; 0xffffffff
 8001d5a:	9300      	str	r3, [sp, #0]
 8001d5c:	f04f 0a20 	mov.w	sl, #32
 8001d60:	e70c      	b.n	8001b7c <chprintf.lto_priv.57+0x1ec>
 8001d62:	bf00      	nop
 8001d64:	cccccccd 	.word	0xcccccccd
 8001d68:	08004c30 	.word	0x08004c30
 8001d6c:	00000000 	.word	0x00000000

08001d70 <cmd_info>:
 8001d70:	2900      	cmp	r1, #0
 8001d72:	dd03      	ble.n	8001d7c <cmd_info+0xc>
 8001d74:	4a19      	ldr	r2, [pc, #100]	; (8001ddc <cmd_info+0x6c>)
 8001d76:	491a      	ldr	r1, [pc, #104]	; (8001de0 <cmd_info+0x70>)
 8001d78:	f7ff be0a 	b.w	8001990 <chprintf.lto_priv.57>
 8001d7c:	b510      	push	{r4, lr}
 8001d7e:	4a19      	ldr	r2, [pc, #100]	; (8001de4 <cmd_info+0x74>)
 8001d80:	4919      	ldr	r1, [pc, #100]	; (8001de8 <cmd_info+0x78>)
 8001d82:	b082      	sub	sp, #8
 8001d84:	4604      	mov	r4, r0
 8001d86:	f7ff fe03 	bl	8001990 <chprintf.lto_priv.57>
 8001d8a:	4a18      	ldr	r2, [pc, #96]	; (8001dec <cmd_info+0x7c>)
 8001d8c:	4918      	ldr	r1, [pc, #96]	; (8001df0 <cmd_info+0x80>)
 8001d8e:	4620      	mov	r0, r4
 8001d90:	f7ff fdfe 	bl	8001990 <chprintf.lto_priv.57>
 8001d94:	4a17      	ldr	r2, [pc, #92]	; (8001df4 <cmd_info+0x84>)
 8001d96:	4918      	ldr	r1, [pc, #96]	; (8001df8 <cmd_info+0x88>)
 8001d98:	4620      	mov	r0, r4
 8001d9a:	f7ff fdf9 	bl	8001990 <chprintf.lto_priv.57>
 8001d9e:	4a17      	ldr	r2, [pc, #92]	; (8001dfc <cmd_info+0x8c>)
 8001da0:	4917      	ldr	r1, [pc, #92]	; (8001e00 <cmd_info+0x90>)
 8001da2:	4620      	mov	r0, r4
 8001da4:	f7ff fdf4 	bl	8001990 <chprintf.lto_priv.57>
 8001da8:	4a16      	ldr	r2, [pc, #88]	; (8001e04 <cmd_info+0x94>)
 8001daa:	4917      	ldr	r1, [pc, #92]	; (8001e08 <cmd_info+0x98>)
 8001dac:	4620      	mov	r0, r4
 8001dae:	f7ff fdef 	bl	8001990 <chprintf.lto_priv.57>
 8001db2:	4a16      	ldr	r2, [pc, #88]	; (8001e0c <cmd_info+0x9c>)
 8001db4:	4916      	ldr	r1, [pc, #88]	; (8001e10 <cmd_info+0xa0>)
 8001db6:	4620      	mov	r0, r4
 8001db8:	f7ff fdea 	bl	8001990 <chprintf.lto_priv.57>
 8001dbc:	4a15      	ldr	r2, [pc, #84]	; (8001e14 <cmd_info+0xa4>)
 8001dbe:	4916      	ldr	r1, [pc, #88]	; (8001e18 <cmd_info+0xa8>)
 8001dc0:	4620      	mov	r0, r4
 8001dc2:	f7ff fde5 	bl	8001990 <chprintf.lto_priv.57>
 8001dc6:	4b15      	ldr	r3, [pc, #84]	; (8001e1c <cmd_info+0xac>)
 8001dc8:	9300      	str	r3, [sp, #0]
 8001dca:	4620      	mov	r0, r4
 8001dcc:	4b14      	ldr	r3, [pc, #80]	; (8001e20 <cmd_info+0xb0>)
 8001dce:	4a15      	ldr	r2, [pc, #84]	; (8001e24 <cmd_info+0xb4>)
 8001dd0:	4915      	ldr	r1, [pc, #84]	; (8001e28 <cmd_info+0xb8>)
 8001dd2:	f7ff fddd 	bl	8001990 <chprintf.lto_priv.57>
 8001dd6:	b002      	add	sp, #8
 8001dd8:	bd10      	pop	{r4, pc}
 8001dda:	bf00      	nop
 8001ddc:	08004c40 	.word	0x08004c40
 8001de0:	08004c48 	.word	0x08004c48
 8001de4:	08004c54 	.word	0x08004c54
 8001de8:	08004c5c 	.word	0x08004c5c
 8001dec:	08004c70 	.word	0x08004c70
 8001df0:	08004cb8 	.word	0x08004cb8
 8001df4:	08004ccc 	.word	0x08004ccc
 8001df8:	08004cd8 	.word	0x08004cd8
 8001dfc:	08004cec 	.word	0x08004cec
 8001e00:	08004cf8 	.word	0x08004cf8
 8001e04:	08004d0c 	.word	0x08004d0c
 8001e08:	08004d24 	.word	0x08004d24
 8001e0c:	08004d38 	.word	0x08004d38
 8001e10:	08004d64 	.word	0x08004d64
 8001e14:	08004d78 	.word	0x08004d78
 8001e18:	08004d8c 	.word	0x08004d8c
 8001e1c:	08004dc8 	.word	0x08004dc8
 8001e20:	08004da0 	.word	0x08004da0
 8001e24:	08004da4 	.word	0x08004da4
 8001e28:	08004db0 	.word	0x08004db0
 8001e2c:	00000000 	.word	0x00000000

08001e30 <__early_init>:
 8001e30:	4b2a      	ldr	r3, [pc, #168]	; (8001edc <__early_init+0xac>)
 8001e32:	4a2b      	ldr	r2, [pc, #172]	; (8001ee0 <__early_init+0xb0>)
 8001e34:	f04f 5080 	mov.w	r0, #268435456	; 0x10000000
 8001e38:	f44f 4140 	mov.w	r1, #49152	; 0xc000
 8001e3c:	6418      	str	r0, [r3, #64]	; 0x40
 8001e3e:	6011      	str	r1, [r2, #0]
 8001e40:	681a      	ldr	r2, [r3, #0]
 8001e42:	f042 0201 	orr.w	r2, r2, #1
 8001e46:	601a      	str	r2, [r3, #0]
 8001e48:	681a      	ldr	r2, [r3, #0]
 8001e4a:	0792      	lsls	r2, r2, #30
 8001e4c:	d5fc      	bpl.n	8001e48 <__early_init+0x18>
 8001e4e:	6899      	ldr	r1, [r3, #8]
 8001e50:	4a22      	ldr	r2, [pc, #136]	; (8001edc <__early_init+0xac>)
 8001e52:	f021 0103 	bic.w	r1, r1, #3
 8001e56:	6099      	str	r1, [r3, #8]
 8001e58:	6899      	ldr	r1, [r3, #8]
 8001e5a:	6099      	str	r1, [r3, #8]
 8001e5c:	6893      	ldr	r3, [r2, #8]
 8001e5e:	f013 030c 	ands.w	r3, r3, #12
 8001e62:	d1fb      	bne.n	8001e5c <__early_init+0x2c>
 8001e64:	6810      	ldr	r0, [r2, #0]
 8001e66:	491d      	ldr	r1, [pc, #116]	; (8001edc <__early_init+0xac>)
 8001e68:	f000 00f9 	and.w	r0, r0, #249	; 0xf9
 8001e6c:	6010      	str	r0, [r2, #0]
 8001e6e:	6093      	str	r3, [r2, #8]
 8001e70:	6813      	ldr	r3, [r2, #0]
 8001e72:	f443 3380 	orr.w	r3, r3, #65536	; 0x10000
 8001e76:	6013      	str	r3, [r2, #0]
 8001e78:	680b      	ldr	r3, [r1, #0]
 8001e7a:	0398      	lsls	r0, r3, #14
 8001e7c:	d5fc      	bpl.n	8001e78 <__early_init+0x48>
 8001e7e:	6f4b      	ldr	r3, [r1, #116]	; 0x74
 8001e80:	4a16      	ldr	r2, [pc, #88]	; (8001edc <__early_init+0xac>)
 8001e82:	f043 0301 	orr.w	r3, r3, #1
 8001e86:	674b      	str	r3, [r1, #116]	; 0x74
 8001e88:	6f53      	ldr	r3, [r2, #116]	; 0x74
 8001e8a:	0799      	lsls	r1, r3, #30
 8001e8c:	d5fc      	bpl.n	8001e88 <__early_init+0x58>
 8001e8e:	4b15      	ldr	r3, [pc, #84]	; (8001ee4 <__early_init+0xb4>)
 8001e90:	6053      	str	r3, [r2, #4]
 8001e92:	6813      	ldr	r3, [r2, #0]
 8001e94:	4912      	ldr	r1, [pc, #72]	; (8001ee0 <__early_init+0xb0>)
 8001e96:	f043 7380 	orr.w	r3, r3, #16777216	; 0x1000000
 8001e9a:	6013      	str	r3, [r2, #0]
 8001e9c:	684b      	ldr	r3, [r1, #4]
 8001e9e:	045a      	lsls	r2, r3, #17
 8001ea0:	d5fc      	bpl.n	8001e9c <__early_init+0x6c>
 8001ea2:	490e      	ldr	r1, [pc, #56]	; (8001edc <__early_init+0xac>)
 8001ea4:	680b      	ldr	r3, [r1, #0]
 8001ea6:	019b      	lsls	r3, r3, #6
 8001ea8:	d5fc      	bpl.n	8001ea4 <__early_init+0x74>
 8001eaa:	4b0f      	ldr	r3, [pc, #60]	; (8001ee8 <__early_init+0xb8>)
 8001eac:	4a0f      	ldr	r2, [pc, #60]	; (8001eec <__early_init+0xbc>)
 8001eae:	608a      	str	r2, [r1, #8]
 8001eb0:	f240 7205 	movw	r2, #1797	; 0x705
 8001eb4:	601a      	str	r2, [r3, #0]
 8001eb6:	688b      	ldr	r3, [r1, #8]
 8001eb8:	4a08      	ldr	r2, [pc, #32]	; (8001edc <__early_init+0xac>)
 8001eba:	f043 0302 	orr.w	r3, r3, #2
 8001ebe:	608b      	str	r3, [r1, #8]
 8001ec0:	6893      	ldr	r3, [r2, #8]
 8001ec2:	f003 030c 	and.w	r3, r3, #12
 8001ec6:	2b08      	cmp	r3, #8
 8001ec8:	d1fa      	bne.n	8001ec0 <__early_init+0x90>
 8001eca:	6c53      	ldr	r3, [r2, #68]	; 0x44
 8001ecc:	f443 4380 	orr.w	r3, r3, #16384	; 0x4000
 8001ed0:	6453      	str	r3, [r2, #68]	; 0x44
 8001ed2:	6e53      	ldr	r3, [r2, #100]	; 0x64
 8001ed4:	f443 4380 	orr.w	r3, r3, #16384	; 0x4000
 8001ed8:	6653      	str	r3, [r2, #100]	; 0x64
 8001eda:	4770      	bx	lr
 8001edc:	40023800 	.word	0x40023800
 8001ee0:	40007000 	.word	0x40007000
 8001ee4:	0740540c 	.word	0x0740540c
 8001ee8:	40023c00 	.word	0x40023c00
 8001eec:	38089400 	.word	0x38089400

08001ef0 <_stats_stop_measure_crit_thd>:
 8001ef0:	4801      	ldr	r0, [pc, #4]	; (8001ef8 <_stats_stop_measure_crit_thd+0x8>)
 8001ef2:	f7fe bdbd 	b.w	8000a70 <chTMStopMeasurementX>
 8001ef6:	bf00      	nop
 8001ef8:	20005328 	.word	0x20005328
 8001efc:	00000000 	.word	0x00000000

08001f00 <_stats_start_measure_crit_thd>:
 8001f00:	4801      	ldr	r0, [pc, #4]	; (8001f08 <_stats_start_measure_crit_thd+0x8>)
 8001f02:	f7fe bde5 	b.w	8000ad0 <chTMStartMeasurementX>
 8001f06:	bf00      	nop
 8001f08:	20005328 	.word	0x20005328
 8001f0c:	00000000 	.word	0x00000000

08001f10 <chSchDoReschedule>:
 8001f10:	b570      	push	{r4, r5, r6, lr}
 8001f12:	4c1b      	ldr	r4, [pc, #108]	; (8001f80 <chSchDoReschedule+0x70>)
 8001f14:	6822      	ldr	r2, [r4, #0]
 8001f16:	69a5      	ldr	r5, [r4, #24]
 8001f18:	6813      	ldr	r3, [r2, #0]
 8001f1a:	68ae      	ldr	r6, [r5, #8]
 8001f1c:	6023      	str	r3, [r4, #0]
 8001f1e:	2001      	movs	r0, #1
 8001f20:	2100      	movs	r1, #0
 8001f22:	605c      	str	r4, [r3, #4]
 8001f24:	f882 0020 	strb.w	r0, [r2, #32]
 8001f28:	61a2      	str	r2, [r4, #24]
 8001f2a:	f885 1020 	strb.w	r1, [r5, #32]
 8001f2e:	e000      	b.n	8001f32 <chSchDoReschedule+0x22>
 8001f30:	681b      	ldr	r3, [r3, #0]
 8001f32:	689a      	ldr	r2, [r3, #8]
 8001f34:	4296      	cmp	r6, r2
 8001f36:	d3fb      	bcc.n	8001f30 <chSchDoReschedule+0x20>
 8001f38:	685a      	ldr	r2, [r3, #4]
 8001f3a:	4628      	mov	r0, r5
 8001f3c:	e9c5 3200 	strd	r3, r2, [r5]
 8001f40:	6015      	str	r5, [r2, #0]
 8001f42:	605d      	str	r5, [r3, #4]
 8001f44:	f7fe fe04 	bl	8000b50 <_dbg_trace>
 8001f48:	f8d4 34ac 	ldr.w	r3, [r4, #1196]	; 0x4ac
 8001f4c:	69a1      	ldr	r1, [r4, #24]
 8001f4e:	3301      	adds	r3, #1
 8001f50:	3148      	adds	r1, #72	; 0x48
 8001f52:	f105 0048 	add.w	r0, r5, #72	; 0x48
 8001f56:	f8c4 34ac 	str.w	r3, [r4, #1196]	; 0x4ac
 8001f5a:	f7fe fd69 	bl	8000a30 <chTMChainMeasurementToX>
 8001f5e:	f3ef 8309 	mrs	r3, PSP
 8001f62:	69ea      	ldr	r2, [r5, #28]
 8001f64:	3b24      	subs	r3, #36	; 0x24
 8001f66:	429a      	cmp	r2, r3
 8001f68:	d805      	bhi.n	8001f76 <chSchDoReschedule+0x66>
 8001f6a:	4629      	mov	r1, r5
 8001f6c:	69a0      	ldr	r0, [r4, #24]
 8001f6e:	e8bd 4070 	ldmia.w	sp!, {r4, r5, r6, lr}
 8001f72:	f7fe b985 	b.w	8000280 <_port_switch>
 8001f76:	b672      	cpsid	i
 8001f78:	4b02      	ldr	r3, [pc, #8]	; (8001f84 <chSchDoReschedule+0x74>)
 8001f7a:	62e3      	str	r3, [r4, #44]	; 0x2c
 8001f7c:	e7fe      	b.n	8001f7c <chSchDoReschedule+0x6c>
 8001f7e:	bf00      	nop
 8001f80:	20004e78 	.word	0x20004e78
 8001f84:	08004c00 	.word	0x08004c00
	...

08001f90 <_dbg_check_unlock>:
 8001f90:	4b05      	ldr	r3, [pc, #20]	; (8001fa8 <_dbg_check_unlock+0x18>)
 8001f92:	6b1a      	ldr	r2, [r3, #48]	; 0x30
 8001f94:	b922      	cbnz	r2, 8001fa0 <_dbg_check_unlock+0x10>
 8001f96:	6b59      	ldr	r1, [r3, #52]	; 0x34
 8001f98:	2900      	cmp	r1, #0
 8001f9a:	dd01      	ble.n	8001fa0 <_dbg_check_unlock+0x10>
 8001f9c:	635a      	str	r2, [r3, #52]	; 0x34
 8001f9e:	4770      	bx	lr
 8001fa0:	b672      	cpsid	i
 8001fa2:	4a02      	ldr	r2, [pc, #8]	; (8001fac <_dbg_check_unlock+0x1c>)
 8001fa4:	62da      	str	r2, [r3, #44]	; 0x2c
 8001fa6:	e7fe      	b.n	8001fa6 <_dbg_check_unlock+0x16>
 8001fa8:	20004e78 	.word	0x20004e78
 8001fac:	08004ad0 	.word	0x08004ad0

08001fb0 <chSysUnlock.lto_priv.35>:
 8001fb0:	b508      	push	{r3, lr}
 8001fb2:	f7ff ffed 	bl	8001f90 <_dbg_check_unlock>
 8001fb6:	f7ff ff9b 	bl	8001ef0 <_stats_stop_measure_crit_thd>
 8001fba:	4b08      	ldr	r3, [pc, #32]	; (8001fdc <chSysUnlock.lto_priv.35+0x2c>)
 8001fbc:	681a      	ldr	r2, [r3, #0]
 8001fbe:	429a      	cmp	r2, r3
 8001fc0:	d004      	beq.n	8001fcc <chSysUnlock.lto_priv.35+0x1c>
 8001fc2:	6999      	ldr	r1, [r3, #24]
 8001fc4:	6892      	ldr	r2, [r2, #8]
 8001fc6:	6889      	ldr	r1, [r1, #8]
 8001fc8:	4291      	cmp	r1, r2
 8001fca:	d303      	bcc.n	8001fd4 <chSysUnlock.lto_priv.35+0x24>
 8001fcc:	2300      	movs	r3, #0
 8001fce:	f383 8811 	msr	BASEPRI, r3
 8001fd2:	bd08      	pop	{r3, pc}
 8001fd4:	b672      	cpsid	i
 8001fd6:	4a02      	ldr	r2, [pc, #8]	; (8001fe0 <chSysUnlock.lto_priv.35+0x30>)
 8001fd8:	62da      	str	r2, [r3, #44]	; 0x2c
 8001fda:	e7fe      	b.n	8001fda <chSysUnlock.lto_priv.35+0x2a>
 8001fdc:	20004e78 	.word	0x20004e78
 8001fe0:	08004730 	.word	0x08004730
	...

08001ff0 <_dbg_check_lock>:
 8001ff0:	4b05      	ldr	r3, [pc, #20]	; (8002008 <_dbg_check_lock+0x18>)
 8001ff2:	6b1a      	ldr	r2, [r3, #48]	; 0x30
 8001ff4:	b90a      	cbnz	r2, 8001ffa <_dbg_check_lock+0xa>
 8001ff6:	6b5a      	ldr	r2, [r3, #52]	; 0x34
 8001ff8:	b11a      	cbz	r2, 8002002 <_dbg_check_lock+0x12>
 8001ffa:	b672      	cpsid	i
 8001ffc:	4a03      	ldr	r2, [pc, #12]	; (800200c <_dbg_check_lock+0x1c>)
 8001ffe:	62da      	str	r2, [r3, #44]	; 0x2c
 8002000:	e7fe      	b.n	8002000 <_dbg_check_lock+0x10>
 8002002:	2201      	movs	r2, #1
 8002004:	635a      	str	r2, [r3, #52]	; 0x34
 8002006:	4770      	bx	lr
 8002008:	20004e78 	.word	0x20004e78
 800200c:	08004ab0 	.word	0x08004ab0

08002010 <chCoreAlloc>:
 8002010:	b510      	push	{r4, lr}
 8002012:	4601      	mov	r1, r0
 8002014:	2320      	movs	r3, #32
 8002016:	f383 8811 	msr	BASEPRI, r3
 800201a:	f7ff ff71 	bl	8001f00 <_stats_start_measure_crit_thd>
 800201e:	f7ff ffe7 	bl	8001ff0 <_dbg_check_lock>
 8002022:	f7fe fdc5 	bl	8000bb0 <chDbgCheckClassI>
 8002026:	4811      	ldr	r0, [pc, #68]	; (800206c <chCoreAlloc+0x5c>)
 8002028:	4b11      	ldr	r3, [pc, #68]	; (8002070 <chCoreAlloc+0x60>)
 800202a:	6804      	ldr	r4, [r0, #0]
 800202c:	681a      	ldr	r2, [r3, #0]
 800202e:	1dcb      	adds	r3, r1, #7
 8002030:	f023 0307 	bic.w	r3, r3, #7
 8002034:	1b12      	subs	r2, r2, r4
 8002036:	4293      	cmp	r3, r2
 8002038:	bf9a      	itte	ls
 800203a:	191b      	addls	r3, r3, r4
 800203c:	6003      	strls	r3, [r0, #0]
 800203e:	2400      	movhi	r4, #0
 8002040:	f7ff ffa6 	bl	8001f90 <_dbg_check_unlock>
 8002044:	f7ff ff54 	bl	8001ef0 <_stats_stop_measure_crit_thd>
 8002048:	4b0a      	ldr	r3, [pc, #40]	; (8002074 <chCoreAlloc+0x64>)
 800204a:	681a      	ldr	r2, [r3, #0]
 800204c:	429a      	cmp	r2, r3
 800204e:	d004      	beq.n	800205a <chCoreAlloc+0x4a>
 8002050:	6999      	ldr	r1, [r3, #24]
 8002052:	6892      	ldr	r2, [r2, #8]
 8002054:	6889      	ldr	r1, [r1, #8]
 8002056:	4291      	cmp	r1, r2
 8002058:	d304      	bcc.n	8002064 <chCoreAlloc+0x54>
 800205a:	2300      	movs	r3, #0
 800205c:	f383 8811 	msr	BASEPRI, r3
 8002060:	4620      	mov	r0, r4
 8002062:	bd10      	pop	{r4, pc}
 8002064:	b672      	cpsid	i
 8002066:	4a04      	ldr	r2, [pc, #16]	; (8002078 <chCoreAlloc+0x68>)
 8002068:	62da      	str	r2, [r3, #44]	; 0x2c
 800206a:	e7fe      	b.n	800206a <chCoreAlloc+0x5a>
 800206c:	200054fc 	.word	0x200054fc
 8002070:	200054f4 	.word	0x200054f4
 8002074:	20004e78 	.word	0x20004e78
 8002078:	08004770 	.word	0x08004770
 800207c:	00000000 	.word	0x00000000

08002080 <shell_thread>:
 8002080:	e92d 4880 	stmdb	sp!, {r7, fp, lr}
 8002084:	4b7f      	ldr	r3, [pc, #508]	; (8002284 <shell_thread+0x204>)
 8002086:	6804      	ldr	r4, [r0, #0]
 8002088:	699b      	ldr	r3, [r3, #24]
 800208a:	4a7f      	ldr	r2, [pc, #508]	; (8002288 <shell_thread+0x208>)
 800208c:	f8d0 9004 	ldr.w	r9, [r0, #4]
 8002090:	497e      	ldr	r1, [pc, #504]	; (800228c <shell_thread+0x20c>)
 8002092:	619a      	str	r2, [r3, #24]
 8002094:	b099      	sub	sp, #100	; 0x64
 8002096:	4620      	mov	r0, r4
 8002098:	f7ff fc7a 	bl	8001990 <chprintf.lto_priv.57>
 800209c:	f8df 8220 	ldr.w	r8, [pc, #544]	; 80022c0 <shell_thread+0x240>
 80020a0:	ae08      	add	r6, sp, #32
 80020a2:	f10d 075f 	add.w	r7, sp, #95	; 0x5f
 80020a6:	4641      	mov	r1, r8
 80020a8:	4620      	mov	r0, r4
 80020aa:	f7ff fc71 	bl	8001990 <chprintf.lto_priv.57>
 80020ae:	6823      	ldr	r3, [r4, #0]
 80020b0:	4635      	mov	r5, r6
 80020b2:	685b      	ldr	r3, [r3, #4]
 80020b4:	2201      	movs	r2, #1
 80020b6:	f10d 0107 	add.w	r1, sp, #7
 80020ba:	4620      	mov	r0, r4
 80020bc:	4798      	blx	r3
 80020be:	2800      	cmp	r0, #0
 80020c0:	d070      	beq.n	80021a4 <shell_thread+0x124>
 80020c2:	f89d 1007 	ldrb.w	r1, [sp, #7]
 80020c6:	2904      	cmp	r1, #4
 80020c8:	d068      	beq.n	800219c <shell_thread+0x11c>
 80020ca:	2908      	cmp	r1, #8
 80020cc:	d011      	beq.n	80020f2 <shell_thread+0x72>
 80020ce:	297f      	cmp	r1, #127	; 0x7f
 80020d0:	d00f      	beq.n	80020f2 <shell_thread+0x72>
 80020d2:	290d      	cmp	r1, #13
 80020d4:	d021      	beq.n	800211a <shell_thread+0x9a>
 80020d6:	291f      	cmp	r1, #31
 80020d8:	6823      	ldr	r3, [r4, #0]
 80020da:	d9ea      	bls.n	80020b2 <shell_thread+0x32>
 80020dc:	42bd      	cmp	r5, r7
 80020de:	d2e8      	bcs.n	80020b2 <shell_thread+0x32>
 80020e0:	689b      	ldr	r3, [r3, #8]
 80020e2:	4620      	mov	r0, r4
 80020e4:	4798      	blx	r3
 80020e6:	f89d 3007 	ldrb.w	r3, [sp, #7]
 80020ea:	702b      	strb	r3, [r5, #0]
 80020ec:	6823      	ldr	r3, [r4, #0]
 80020ee:	3501      	adds	r5, #1
 80020f0:	e7df      	b.n	80020b2 <shell_thread+0x32>
 80020f2:	42b5      	cmp	r5, r6
 80020f4:	6823      	ldr	r3, [r4, #0]
 80020f6:	d0dc      	beq.n	80020b2 <shell_thread+0x32>
 80020f8:	689b      	ldr	r3, [r3, #8]
 80020fa:	4620      	mov	r0, r4
 80020fc:	4798      	blx	r3
 80020fe:	6823      	ldr	r3, [r4, #0]
 8002100:	2120      	movs	r1, #32
 8002102:	689b      	ldr	r3, [r3, #8]
 8002104:	4620      	mov	r0, r4
 8002106:	4798      	blx	r3
 8002108:	6823      	ldr	r3, [r4, #0]
 800210a:	f89d 1007 	ldrb.w	r1, [sp, #7]
 800210e:	689b      	ldr	r3, [r3, #8]
 8002110:	4620      	mov	r0, r4
 8002112:	4798      	blx	r3
 8002114:	3d01      	subs	r5, #1
 8002116:	6823      	ldr	r3, [r4, #0]
 8002118:	e7cb      	b.n	80020b2 <shell_thread+0x32>
 800211a:	495d      	ldr	r1, [pc, #372]	; (8002290 <shell_thread+0x210>)
 800211c:	4620      	mov	r0, r4
 800211e:	f7ff fc37 	bl	8001990 <chprintf.lto_priv.57>
 8002122:	2300      	movs	r3, #0
 8002124:	a902      	add	r1, sp, #8
 8002126:	702b      	strb	r3, [r5, #0]
 8002128:	4630      	mov	r0, r6
 800212a:	461d      	mov	r5, r3
 800212c:	f7ff fc08 	bl	8001940 <_strtok.constprop.3>
 8002130:	a902      	add	r1, sp, #8
 8002132:	4683      	mov	fp, r0
 8002134:	2000      	movs	r0, #0
 8002136:	f10d 0a0c 	add.w	sl, sp, #12
 800213a:	f7ff fc01 	bl	8001940 <_strtok.constprop.3>
 800213e:	b150      	cbz	r0, 8002156 <shell_thread+0xd6>
 8002140:	2d04      	cmp	r5, #4
 8002142:	d024      	beq.n	800218e <shell_thread+0x10e>
 8002144:	f84a 0b04 	str.w	r0, [sl], #4
 8002148:	a902      	add	r1, sp, #8
 800214a:	2000      	movs	r0, #0
 800214c:	3501      	adds	r5, #1
 800214e:	f7ff fbf7 	bl	8001940 <_strtok.constprop.3>
 8002152:	2800      	cmp	r0, #0
 8002154:	d1f4      	bne.n	8002140 <shell_thread+0xc0>
 8002156:	ab18      	add	r3, sp, #96	; 0x60
 8002158:	eb03 0385 	add.w	r3, r3, r5, lsl #2
 800215c:	f843 0c54 	str.w	r0, [r3, #-84]
 8002160:	f1bb 0f00 	cmp.w	fp, #0
 8002164:	d09f      	beq.n	80020a6 <shell_thread+0x26>
 8002166:	494b      	ldr	r1, [pc, #300]	; (8002294 <shell_thread+0x214>)
 8002168:	4658      	mov	r0, fp
 800216a:	f002 fa31 	bl	80045d0 <strcasecmp>
 800216e:	b9f0      	cbnz	r0, 80021ae <shell_thread+0x12e>
 8002170:	bb4d      	cbnz	r5, 80021c6 <shell_thread+0x146>
 8002172:	2320      	movs	r3, #32
 8002174:	f383 8811 	msr	BASEPRI, r3
 8002178:	f7ff fec2 	bl	8001f00 <_stats_start_measure_crit_thd>
 800217c:	f7ff ff38 	bl	8001ff0 <_dbg_check_lock>
 8002180:	4845      	ldr	r0, [pc, #276]	; (8002298 <shell_thread+0x218>)
 8002182:	2100      	movs	r1, #0
 8002184:	f7fe fd6c 	bl	8000c60 <chEvtBroadcastFlagsI>
 8002188:	2000      	movs	r0, #0
 800218a:	f7ff f9f1 	bl	8001570 <chThdExitS>
 800218e:	4943      	ldr	r1, [pc, #268]	; (800229c <shell_thread+0x21c>)
 8002190:	4620      	mov	r0, r4
 8002192:	f7ff fbfd 	bl	8001990 <chprintf.lto_priv.57>
 8002196:	2300      	movs	r3, #0
 8002198:	9307      	str	r3, [sp, #28]
 800219a:	e784      	b.n	80020a6 <shell_thread+0x26>
 800219c:	4940      	ldr	r1, [pc, #256]	; (80022a0 <shell_thread+0x220>)
 800219e:	4620      	mov	r0, r4
 80021a0:	f7ff fbf6 	bl	8001990 <chprintf.lto_priv.57>
 80021a4:	4620      	mov	r0, r4
 80021a6:	493f      	ldr	r1, [pc, #252]	; (80022a4 <shell_thread+0x224>)
 80021a8:	f7ff fbf2 	bl	8001990 <chprintf.lto_priv.57>
 80021ac:	e7e1      	b.n	8002172 <shell_thread+0xf2>
 80021ae:	493e      	ldr	r1, [pc, #248]	; (80022a8 <shell_thread+0x228>)
 80021b0:	4658      	mov	r0, fp
 80021b2:	f002 fa0d 	bl	80045d0 <strcasecmp>
 80021b6:	b960      	cbnz	r0, 80021d2 <shell_thread+0x152>
 80021b8:	b305      	cbz	r5, 80021fc <shell_thread+0x17c>
 80021ba:	4a3b      	ldr	r2, [pc, #236]	; (80022a8 <shell_thread+0x228>)
 80021bc:	493b      	ldr	r1, [pc, #236]	; (80022ac <shell_thread+0x22c>)
 80021be:	4620      	mov	r0, r4
 80021c0:	f7ff fbe6 	bl	8001990 <chprintf.lto_priv.57>
 80021c4:	e76f      	b.n	80020a6 <shell_thread+0x26>
 80021c6:	4a33      	ldr	r2, [pc, #204]	; (8002294 <shell_thread+0x214>)
 80021c8:	4938      	ldr	r1, [pc, #224]	; (80022ac <shell_thread+0x22c>)
 80021ca:	4620      	mov	r0, r4
 80021cc:	f7ff fbe0 	bl	8001990 <chprintf.lto_priv.57>
 80021d0:	e769      	b.n	80020a6 <shell_thread+0x26>
 80021d2:	f8df a0f0 	ldr.w	sl, [pc, #240]	; 80022c4 <shell_thread+0x244>
 80021d6:	f8da 0000 	ldr.w	r0, [sl]
 80021da:	b918      	cbnz	r0, 80021e4 <shell_thread+0x164>
 80021dc:	e036      	b.n	800224c <shell_thread+0x1cc>
 80021de:	f85a 0f08 	ldr.w	r0, [sl, #8]!
 80021e2:	b398      	cbz	r0, 800224c <shell_thread+0x1cc>
 80021e4:	4659      	mov	r1, fp
 80021e6:	f002 f9f3 	bl	80045d0 <strcasecmp>
 80021ea:	2800      	cmp	r0, #0
 80021ec:	d1f7      	bne.n	80021de <shell_thread+0x15e>
 80021ee:	f8da 3004 	ldr.w	r3, [sl, #4]
 80021f2:	aa03      	add	r2, sp, #12
 80021f4:	4629      	mov	r1, r5
 80021f6:	4620      	mov	r0, r4
 80021f8:	4798      	blx	r3
 80021fa:	e754      	b.n	80020a6 <shell_thread+0x26>
 80021fc:	f8df a0c4 	ldr.w	sl, [pc, #196]	; 80022c4 <shell_thread+0x244>
 8002200:	492b      	ldr	r1, [pc, #172]	; (80022b0 <shell_thread+0x230>)
 8002202:	4620      	mov	r0, r4
 8002204:	f7ff fbc4 	bl	8001990 <chprintf.lto_priv.57>
 8002208:	f8da 2000 	ldr.w	r2, [sl]
 800220c:	b142      	cbz	r2, 8002220 <shell_thread+0x1a0>
 800220e:	4d29      	ldr	r5, [pc, #164]	; (80022b4 <shell_thread+0x234>)
 8002210:	4629      	mov	r1, r5
 8002212:	4620      	mov	r0, r4
 8002214:	f7ff fbbc 	bl	8001990 <chprintf.lto_priv.57>
 8002218:	f85a 2f08 	ldr.w	r2, [sl, #8]!
 800221c:	2a00      	cmp	r2, #0
 800221e:	d1f7      	bne.n	8002210 <shell_thread+0x190>
 8002220:	f1b9 0f00 	cmp.w	r9, #0
 8002224:	d00d      	beq.n	8002242 <shell_thread+0x1c2>
 8002226:	f8d9 2000 	ldr.w	r2, [r9]
 800222a:	b152      	cbz	r2, 8002242 <shell_thread+0x1c2>
 800222c:	f8df a084 	ldr.w	sl, [pc, #132]	; 80022b4 <shell_thread+0x234>
 8002230:	464d      	mov	r5, r9
 8002232:	4651      	mov	r1, sl
 8002234:	4620      	mov	r0, r4
 8002236:	f7ff fbab 	bl	8001990 <chprintf.lto_priv.57>
 800223a:	f855 2f08 	ldr.w	r2, [r5, #8]!
 800223e:	2a00      	cmp	r2, #0
 8002240:	d1f7      	bne.n	8002232 <shell_thread+0x1b2>
 8002242:	4913      	ldr	r1, [pc, #76]	; (8002290 <shell_thread+0x210>)
 8002244:	4620      	mov	r0, r4
 8002246:	f7ff fba3 	bl	8001990 <chprintf.lto_priv.57>
 800224a:	e72c      	b.n	80020a6 <shell_thread+0x26>
 800224c:	f1b9 0f00 	cmp.w	r9, #0
 8002250:	d00d      	beq.n	800226e <shell_thread+0x1ee>
 8002252:	f8d9 0000 	ldr.w	r0, [r9]
 8002256:	b150      	cbz	r0, 800226e <shell_thread+0x1ee>
 8002258:	46ca      	mov	sl, r9
 800225a:	e002      	b.n	8002262 <shell_thread+0x1e2>
 800225c:	f85a 0f08 	ldr.w	r0, [sl, #8]!
 8002260:	b128      	cbz	r0, 800226e <shell_thread+0x1ee>
 8002262:	4659      	mov	r1, fp
 8002264:	f002 f9b4 	bl	80045d0 <strcasecmp>
 8002268:	2800      	cmp	r0, #0
 800226a:	d1f7      	bne.n	800225c <shell_thread+0x1dc>
 800226c:	e7bf      	b.n	80021ee <shell_thread+0x16e>
 800226e:	465a      	mov	r2, fp
 8002270:	4911      	ldr	r1, [pc, #68]	; (80022b8 <shell_thread+0x238>)
 8002272:	4620      	mov	r0, r4
 8002274:	f7ff fb8c 	bl	8001990 <chprintf.lto_priv.57>
 8002278:	4910      	ldr	r1, [pc, #64]	; (80022bc <shell_thread+0x23c>)
 800227a:	4620      	mov	r0, r4
 800227c:	f7ff fb88 	bl	8001990 <chprintf.lto_priv.57>
 8002280:	e711      	b.n	80020a6 <shell_thread+0x26>
 8002282:	bf00      	nop
 8002284:	20004e78 	.word	0x20004e78
 8002288:	08005160 	.word	0x08005160
 800228c:	08005168 	.word	0x08005168
 8002290:	08004e24 	.word	0x08004e24
 8002294:	080051b0 	.word	0x080051b0
 8002298:	20005700 	.word	0x20005700
 800229c:	08005198 	.word	0x08005198
 80022a0:	08005188 	.word	0x08005188
 80022a4:	0800518c 	.word	0x0800518c
 80022a8:	080051b8 	.word	0x080051b8
 80022ac:	08004c48 	.word	0x08004c48
 80022b0:	080051c0 	.word	0x080051c0
 80022b4:	080051d8 	.word	0x080051d8
 80022b8:	080051dc 	.word	0x080051dc
 80022bc:	080051e0 	.word	0x080051e0
 80022c0:	08005180 	.word	0x08005180
 80022c4:	20000800 	.word	0x20000800
	...

080022d0 <cmd_systime>:
 80022d0:	2900      	cmp	r1, #0
 80022d2:	dd03      	ble.n	80022dc <cmd_systime+0xc>
 80022d4:	4a15      	ldr	r2, [pc, #84]	; (800232c <cmd_systime+0x5c>)
 80022d6:	4916      	ldr	r1, [pc, #88]	; (8002330 <cmd_systime+0x60>)
 80022d8:	f7ff bb5a 	b.w	8001990 <chprintf.lto_priv.57>
 80022dc:	b538      	push	{r3, r4, r5, lr}
 80022de:	4604      	mov	r4, r0
 80022e0:	2320      	movs	r3, #32
 80022e2:	f383 8811 	msr	BASEPRI, r3
 80022e6:	f7ff fe0b 	bl	8001f00 <_stats_start_measure_crit_thd>
 80022ea:	f7ff fe81 	bl	8001ff0 <_dbg_check_lock>
 80022ee:	f04f 4380 	mov.w	r3, #1073741824	; 0x40000000
 80022f2:	6a5d      	ldr	r5, [r3, #36]	; 0x24
 80022f4:	f7ff fe4c 	bl	8001f90 <_dbg_check_unlock>
 80022f8:	f7ff fdfa 	bl	8001ef0 <_stats_stop_measure_crit_thd>
 80022fc:	4b0d      	ldr	r3, [pc, #52]	; (8002334 <cmd_systime+0x64>)
 80022fe:	6819      	ldr	r1, [r3, #0]
 8002300:	4299      	cmp	r1, r3
 8002302:	d004      	beq.n	800230e <cmd_systime+0x3e>
 8002304:	6998      	ldr	r0, [r3, #24]
 8002306:	688a      	ldr	r2, [r1, #8]
 8002308:	6881      	ldr	r1, [r0, #8]
 800230a:	4291      	cmp	r1, r2
 800230c:	d309      	bcc.n	8002322 <cmd_systime+0x52>
 800230e:	2300      	movs	r3, #0
 8002310:	f383 8811 	msr	BASEPRI, r3
 8002314:	4908      	ldr	r1, [pc, #32]	; (8002338 <cmd_systime+0x68>)
 8002316:	462a      	mov	r2, r5
 8002318:	4620      	mov	r0, r4
 800231a:	e8bd 4038 	ldmia.w	sp!, {r3, r4, r5, lr}
 800231e:	f7ff bb37 	b.w	8001990 <chprintf.lto_priv.57>
 8002322:	b672      	cpsid	i
 8002324:	4a05      	ldr	r2, [pc, #20]	; (800233c <cmd_systime+0x6c>)
 8002326:	62da      	str	r2, [r3, #44]	; 0x2c
 8002328:	e7fe      	b.n	8002328 <cmd_systime+0x58>
 800232a:	bf00      	nop
 800232c:	080050e0 	.word	0x080050e0
 8002330:	08004c48 	.word	0x08004c48
 8002334:	20004e78 	.word	0x20004e78
 8002338:	080050e8 	.word	0x080050e8
 800233c:	080047f0 	.word	0x080047f0

08002340 <sdc_lld_wait_transaction_end>:
 8002340:	e92d 41f0 	stmdb	sp!, {r4, r5, r6, r7, r8, lr}
 8002344:	2320      	movs	r3, #32
 8002346:	4605      	mov	r5, r0
 8002348:	460f      	mov	r7, r1
 800234a:	4616      	mov	r6, r2
 800234c:	f383 8811 	msr	BASEPRI, r3
 8002350:	f7ff fdd6 	bl	8001f00 <_stats_start_measure_crit_thd>
 8002354:	f7ff fe4c 	bl	8001ff0 <_dbg_check_lock>
 8002358:	6caa      	ldr	r2, [r5, #72]	; 0x48
 800235a:	6bd3      	ldr	r3, [r2, #60]	; 0x3c
 800235c:	bb6b      	cbnz	r3, 80023ba <sdc_lld_wait_transaction_end+0x7a>
 800235e:	6b53      	ldr	r3, [r2, #52]	; 0x34
 8002360:	4c2e      	ldr	r4, [pc, #184]	; (800241c <sdc_lld_wait_transaction_end+0xdc>)
 8002362:	05db      	lsls	r3, r3, #23
 8002364:	d53d      	bpl.n	80023e2 <sdc_lld_wait_transaction_end+0xa2>
 8002366:	6c69      	ldr	r1, [r5, #68]	; 0x44
 8002368:	6808      	ldr	r0, [r1, #0]
 800236a:	6803      	ldr	r3, [r0, #0]
 800236c:	f013 0301 	ands.w	r3, r3, #1
 8002370:	d1fb      	bne.n	800236a <sdc_lld_wait_transaction_end+0x2a>
 8002372:	f891 e008 	ldrb.w	lr, [r1, #8]
 8002376:	f8d1 c004 	ldr.w	ip, [r1, #4]
 800237a:	4829      	ldr	r0, [pc, #164]	; (8002420 <sdc_lld_wait_transaction_end+0xe0>)
 800237c:	213d      	movs	r1, #61	; 0x3d
 800237e:	fa01 f10e 	lsl.w	r1, r1, lr
 8002382:	f8cc 1000 	str.w	r1, [ip]
 8002386:	6390      	str	r0, [r2, #56]	; 0x38
 8002388:	62d3      	str	r3, [r2, #44]	; 0x2c
 800238a:	f7ff fe01 	bl	8001f90 <_dbg_check_unlock>
 800238e:	f7ff fdaf 	bl	8001ef0 <_stats_stop_measure_crit_thd>
 8002392:	6823      	ldr	r3, [r4, #0]
 8002394:	42a3      	cmp	r3, r4
 8002396:	d004      	beq.n	80023a2 <sdc_lld_wait_transaction_end+0x62>
 8002398:	69a2      	ldr	r2, [r4, #24]
 800239a:	689b      	ldr	r3, [r3, #8]
 800239c:	6892      	ldr	r2, [r2, #8]
 800239e:	429a      	cmp	r2, r3
 80023a0:	d334      	bcc.n	800240c <sdc_lld_wait_transaction_end+0xcc>
 80023a2:	2200      	movs	r2, #0
 80023a4:	f382 8811 	msr	BASEPRI, r2
 80023a8:	2f01      	cmp	r7, #1
 80023aa:	d92c      	bls.n	8002406 <sdc_lld_wait_transaction_end+0xc6>
 80023ac:	4633      	mov	r3, r6
 80023ae:	4628      	mov	r0, r5
 80023b0:	210c      	movs	r1, #12
 80023b2:	e8bd 41f0 	ldmia.w	sp!, {r4, r5, r6, r7, r8, lr}
 80023b6:	f7fe ba03 	b.w	80007c0 <sdc_lld_send_cmd_short_crc>
 80023ba:	6beb      	ldr	r3, [r5, #60]	; 0x3c
 80023bc:	b123      	cbz	r3, 80023c8 <sdc_lld_wait_transaction_end+0x88>
 80023be:	b672      	cpsid	i
 80023c0:	4b16      	ldr	r3, [pc, #88]	; (800241c <sdc_lld_wait_transaction_end+0xdc>)
 80023c2:	4a18      	ldr	r2, [pc, #96]	; (8002424 <sdc_lld_wait_transaction_end+0xe4>)
 80023c4:	62da      	str	r2, [r3, #44]	; 0x2c
 80023c6:	e7fe      	b.n	80023c6 <sdc_lld_wait_transaction_end+0x86>
 80023c8:	4c14      	ldr	r4, [pc, #80]	; (800241c <sdc_lld_wait_transaction_end+0xdc>)
 80023ca:	462b      	mov	r3, r5
 80023cc:	69a2      	ldr	r2, [r4, #24]
 80023ce:	f843 2f3c 	str.w	r2, [r3, #60]!
 80023d2:	2003      	movs	r0, #3
 80023d4:	6253      	str	r3, [r2, #36]	; 0x24
 80023d6:	f7ff f813 	bl	8001400 <chSchGoSleepS>
 80023da:	6caa      	ldr	r2, [r5, #72]	; 0x48
 80023dc:	6b53      	ldr	r3, [r2, #52]	; 0x34
 80023de:	05db      	lsls	r3, r3, #23
 80023e0:	d4c1      	bmi.n	8002366 <sdc_lld_wait_transaction_end+0x26>
 80023e2:	f7ff fdd5 	bl	8001f90 <_dbg_check_unlock>
 80023e6:	f7ff fd83 	bl	8001ef0 <_stats_stop_measure_crit_thd>
 80023ea:	6823      	ldr	r3, [r4, #0]
 80023ec:	42a3      	cmp	r3, r4
 80023ee:	d004      	beq.n	80023fa <sdc_lld_wait_transaction_end+0xba>
 80023f0:	69a2      	ldr	r2, [r4, #24]
 80023f2:	689b      	ldr	r3, [r3, #8]
 80023f4:	6892      	ldr	r2, [r2, #8]
 80023f6:	429a      	cmp	r2, r3
 80023f8:	d30c      	bcc.n	8002414 <sdc_lld_wait_transaction_end+0xd4>
 80023fa:	2300      	movs	r3, #0
 80023fc:	f383 8811 	msr	BASEPRI, r3
 8002400:	2001      	movs	r0, #1
 8002402:	e8bd 81f0 	ldmia.w	sp!, {r4, r5, r6, r7, r8, pc}
 8002406:	4610      	mov	r0, r2
 8002408:	e8bd 81f0 	ldmia.w	sp!, {r4, r5, r6, r7, r8, pc}
 800240c:	b672      	cpsid	i
 800240e:	4b06      	ldr	r3, [pc, #24]	; (8002428 <sdc_lld_wait_transaction_end+0xe8>)
 8002410:	62e3      	str	r3, [r4, #44]	; 0x2c
 8002412:	e7fe      	b.n	8002412 <sdc_lld_wait_transaction_end+0xd2>
 8002414:	b672      	cpsid	i
 8002416:	4b04      	ldr	r3, [pc, #16]	; (8002428 <sdc_lld_wait_transaction_end+0xe8>)
 8002418:	62e3      	str	r3, [r4, #44]	; 0x2c
 800241a:	e7fe      	b.n	800241a <sdc_lld_wait_transaction_end+0xda>
 800241c:	20004e78 	.word	0x20004e78
 8002420:	00c007ff 	.word	0x00c007ff
 8002424:	080048f0 	.word	0x080048f0
 8002428:	080047e0 	.word	0x080047e0
 800242c:	00000000 	.word	0x00000000

08002430 <sdc_lld_write_aligned.part.5>:
 8002430:	b5f0      	push	{r4, r5, r6, r7, lr}
 8002432:	4604      	mov	r4, r0
 8002434:	461d      	mov	r5, r3
 8002436:	e9d0 0310 	ldrd	r0, r3, [r0, #64]	; 0x40
 800243a:	681b      	ldr	r3, [r3, #0]
 800243c:	f8d4 c030 	ldr.w	ip, [r4, #48]	; 0x30
 8002440:	60da      	str	r2, [r3, #12]
 8002442:	026f      	lsls	r7, r5, #9
 8002444:	f040 0040 	orr.w	r0, r0, #64	; 0x40
 8002448:	08ba      	lsrs	r2, r7, #2
 800244a:	605a      	str	r2, [r3, #4]
 800244c:	6018      	str	r0, [r3, #0]
 800244e:	681e      	ldr	r6, [r3, #0]
 8002450:	6ca0      	ldr	r0, [r4, #72]	; 0x48
 8002452:	f046 0601 	orr.w	r6, r6, #1
 8002456:	601e      	str	r6, [r3, #0]
 8002458:	f01c 0f10 	tst.w	ip, #16
 800245c:	4b19      	ldr	r3, [pc, #100]	; (80024c4 <sdc_lld_write_aligned.part.5+0x94>)
 800245e:	6383      	str	r3, [r0, #56]	; 0x38
 8002460:	b083      	sub	sp, #12
 8002462:	f240 331a 	movw	r3, #794	; 0x31a
 8002466:	460a      	mov	r2, r1
 8002468:	ae01      	add	r6, sp, #4
 800246a:	bf08      	it	eq
 800246c:	024a      	lsleq	r2, r1, #9
 800246e:	2d01      	cmp	r5, #1
 8002470:	63c3      	str	r3, [r0, #60]	; 0x3c
 8002472:	6287      	str	r7, [r0, #40]	; 0x28
 8002474:	4633      	mov	r3, r6
 8002476:	d919      	bls.n	80024ac <sdc_lld_write_aligned.part.5+0x7c>
 8002478:	2119      	movs	r1, #25
 800247a:	4620      	mov	r0, r4
 800247c:	f7fe f9a0 	bl	80007c0 <sdc_lld_send_cmd_short_crc>
 8002480:	b960      	cbnz	r0, 800249c <sdc_lld_write_aligned.part.5+0x6c>
 8002482:	9a01      	ldr	r2, [sp, #4]
 8002484:	4b10      	ldr	r3, [pc, #64]	; (80024c8 <sdc_lld_write_aligned.part.5+0x98>)
 8002486:	4013      	ands	r3, r2
 8002488:	b943      	cbnz	r3, 800249c <sdc_lld_write_aligned.part.5+0x6c>
 800248a:	6ca3      	ldr	r3, [r4, #72]	; 0x48
 800248c:	2299      	movs	r2, #153	; 0x99
 800248e:	62da      	str	r2, [r3, #44]	; 0x2c
 8002490:	4629      	mov	r1, r5
 8002492:	4632      	mov	r2, r6
 8002494:	4620      	mov	r0, r4
 8002496:	f7ff ff53 	bl	8002340 <sdc_lld_wait_transaction_end>
 800249a:	b128      	cbz	r0, 80024a8 <sdc_lld_write_aligned.part.5+0x78>
 800249c:	4620      	mov	r0, r4
 800249e:	4632      	mov	r2, r6
 80024a0:	4629      	mov	r1, r5
 80024a2:	f7fe f9a5 	bl	80007f0 <sdc_lld_error_cleanup>
 80024a6:	2001      	movs	r0, #1
 80024a8:	b003      	add	sp, #12
 80024aa:	bdf0      	pop	{r4, r5, r6, r7, pc}
 80024ac:	2118      	movs	r1, #24
 80024ae:	4620      	mov	r0, r4
 80024b0:	f7fe f986 	bl	80007c0 <sdc_lld_send_cmd_short_crc>
 80024b4:	2800      	cmp	r0, #0
 80024b6:	d1f1      	bne.n	800249c <sdc_lld_write_aligned.part.5+0x6c>
 80024b8:	9a01      	ldr	r2, [sp, #4]
 80024ba:	4b03      	ldr	r3, [pc, #12]	; (80024c8 <sdc_lld_write_aligned.part.5+0x98>)
 80024bc:	4013      	ands	r3, r2
 80024be:	2b00      	cmp	r3, #0
 80024c0:	d0e3      	beq.n	800248a <sdc_lld_write_aligned.part.5+0x5a>
 80024c2:	e7eb      	b.n	800249c <sdc_lld_write_aligned.part.5+0x6c>
 80024c4:	00c007ff 	.word	0x00c007ff
 80024c8:	fdffe008 	.word	0xfdffe008
 80024cc:	00000000 	.word	0x00000000

080024d0 <sdc_lld_read_aligned.part.4>:
 80024d0:	b5f0      	push	{r4, r5, r6, r7, lr}
 80024d2:	4604      	mov	r4, r0
 80024d4:	461d      	mov	r5, r3
 80024d6:	e9d0 0310 	ldrd	r0, r3, [r0, #64]	; 0x40
 80024da:	681b      	ldr	r3, [r3, #0]
 80024dc:	f8d4 c030 	ldr.w	ip, [r4, #48]	; 0x30
 80024e0:	60da      	str	r2, [r3, #12]
 80024e2:	026f      	lsls	r7, r5, #9
 80024e4:	08ba      	lsrs	r2, r7, #2
 80024e6:	605a      	str	r2, [r3, #4]
 80024e8:	6018      	str	r0, [r3, #0]
 80024ea:	681e      	ldr	r6, [r3, #0]
 80024ec:	6ca0      	ldr	r0, [r4, #72]	; 0x48
 80024ee:	f046 0601 	orr.w	r6, r6, #1
 80024f2:	601e      	str	r6, [r3, #0]
 80024f4:	4b1a      	ldr	r3, [pc, #104]	; (8002560 <sdc_lld_read_aligned.part.4+0x90>)
 80024f6:	6383      	str	r3, [r0, #56]	; 0x38
 80024f8:	f01c 0f10 	tst.w	ip, #16
 80024fc:	f240 332a 	movw	r3, #810	; 0x32a
 8002500:	b083      	sub	sp, #12
 8002502:	63c3      	str	r3, [r0, #60]	; 0x3c
 8002504:	460a      	mov	r2, r1
 8002506:	f04f 039b 	mov.w	r3, #155	; 0x9b
 800250a:	bf08      	it	eq
 800250c:	024a      	lsleq	r2, r1, #9
 800250e:	ae01      	add	r6, sp, #4
 8002510:	2d01      	cmp	r5, #1
 8002512:	6287      	str	r7, [r0, #40]	; 0x28
 8002514:	62c3      	str	r3, [r0, #44]	; 0x2c
 8002516:	4633      	mov	r3, r6
 8002518:	d916      	bls.n	8002548 <sdc_lld_read_aligned.part.4+0x78>
 800251a:	2112      	movs	r1, #18
 800251c:	4620      	mov	r0, r4
 800251e:	f7fe f94f 	bl	80007c0 <sdc_lld_send_cmd_short_crc>
 8002522:	b948      	cbnz	r0, 8002538 <sdc_lld_read_aligned.part.4+0x68>
 8002524:	9a01      	ldr	r2, [sp, #4]
 8002526:	4b0f      	ldr	r3, [pc, #60]	; (8002564 <sdc_lld_read_aligned.part.4+0x94>)
 8002528:	4013      	ands	r3, r2
 800252a:	b92b      	cbnz	r3, 8002538 <sdc_lld_read_aligned.part.4+0x68>
 800252c:	4632      	mov	r2, r6
 800252e:	4629      	mov	r1, r5
 8002530:	4620      	mov	r0, r4
 8002532:	f7ff ff05 	bl	8002340 <sdc_lld_wait_transaction_end>
 8002536:	b128      	cbz	r0, 8002544 <sdc_lld_read_aligned.part.4+0x74>
 8002538:	4620      	mov	r0, r4
 800253a:	4632      	mov	r2, r6
 800253c:	4629      	mov	r1, r5
 800253e:	f7fe f957 	bl	80007f0 <sdc_lld_error_cleanup>
 8002542:	2001      	movs	r0, #1
 8002544:	b003      	add	sp, #12
 8002546:	bdf0      	pop	{r4, r5, r6, r7, pc}
 8002548:	2111      	movs	r1, #17
 800254a:	4620      	mov	r0, r4
 800254c:	f7fe f938 	bl	80007c0 <sdc_lld_send_cmd_short_crc>
 8002550:	2800      	cmp	r0, #0
 8002552:	d1f1      	bne.n	8002538 <sdc_lld_read_aligned.part.4+0x68>
 8002554:	9a01      	ldr	r2, [sp, #4]
 8002556:	4b03      	ldr	r3, [pc, #12]	; (8002564 <sdc_lld_read_aligned.part.4+0x94>)
 8002558:	4013      	ands	r3, r2
 800255a:	2b00      	cmp	r3, #0
 800255c:	d0e6      	beq.n	800252c <sdc_lld_read_aligned.part.4+0x5c>
 800255e:	e7eb      	b.n	8002538 <sdc_lld_read_aligned.part.4+0x68>
 8002560:	00c007ff 	.word	0x00c007ff
 8002564:	fdffe008 	.word	0xfdffe008
	...

08002570 <chOQWriteTimeout>:
 8002570:	2a00      	cmp	r2, #0
 8002572:	d064      	beq.n	800263e <chOQWriteTimeout+0xce>
 8002574:	e92d 4ff0 	stmdb	sp!, {r4, r5, r6, r7, r8, r9, sl, fp, lr}
 8002578:	4617      	mov	r7, r2
 800257a:	b083      	sub	sp, #12
 800257c:	4604      	mov	r4, r0
 800257e:	4688      	mov	r8, r1
 8002580:	469a      	mov	sl, r3
 8002582:	f8d0 901c 	ldr.w	r9, [r0, #28]
 8002586:	2220      	movs	r2, #32
 8002588:	f382 8811 	msr	BASEPRI, r2
 800258c:	f7ff fcb8 	bl	8001f00 <_stats_start_measure_crit_thd>
 8002590:	9201      	str	r2, [sp, #4]
 8002592:	f7ff fd2d 	bl	8001ff0 <_dbg_check_lock>
 8002596:	4d2e      	ldr	r5, [pc, #184]	; (8002650 <chOQWriteTimeout+0xe0>)
 8002598:	2600      	movs	r6, #0
 800259a:	f7fe fb09 	bl	8000bb0 <chDbgCheckClassI>
 800259e:	68a3      	ldr	r3, [r4, #8]
 80025a0:	f108 0b01 	add.w	fp, r8, #1
 80025a4:	1e5a      	subs	r2, r3, #1
 80025a6:	4620      	mov	r0, r4
 80025a8:	b363      	cbz	r3, 8002604 <chOQWriteTimeout+0x94>
 80025aa:	6963      	ldr	r3, [r4, #20]
 80025ac:	60a2      	str	r2, [r4, #8]
 80025ae:	1c5a      	adds	r2, r3, #1
 80025b0:	6162      	str	r2, [r4, #20]
 80025b2:	f898 2000 	ldrb.w	r2, [r8]
 80025b6:	701a      	strb	r2, [r3, #0]
 80025b8:	e9d4 3204 	ldrd	r3, r2, [r4, #16]
 80025bc:	429a      	cmp	r2, r3
 80025be:	bf24      	itt	cs
 80025c0:	68e3      	ldrcs	r3, [r4, #12]
 80025c2:	6163      	strcs	r3, [r4, #20]
 80025c4:	f1b9 0f00 	cmp.w	r9, #0
 80025c8:	d000      	beq.n	80025cc <chOQWriteTimeout+0x5c>
 80025ca:	47c8      	blx	r9
 80025cc:	f7ff fce0 	bl	8001f90 <_dbg_check_unlock>
 80025d0:	f7ff fc8e 	bl	8001ef0 <_stats_stop_measure_crit_thd>
 80025d4:	682b      	ldr	r3, [r5, #0]
 80025d6:	42ab      	cmp	r3, r5
 80025d8:	d004      	beq.n	80025e4 <chOQWriteTimeout+0x74>
 80025da:	69aa      	ldr	r2, [r5, #24]
 80025dc:	689b      	ldr	r3, [r3, #8]
 80025de:	6892      	ldr	r2, [r2, #8]
 80025e0:	429a      	cmp	r2, r3
 80025e2:	d328      	bcc.n	8002636 <chOQWriteTimeout+0xc6>
 80025e4:	2300      	movs	r3, #0
 80025e6:	f383 8811 	msr	BASEPRI, r3
 80025ea:	3f01      	subs	r7, #1
 80025ec:	f106 0601 	add.w	r6, r6, #1
 80025f0:	d01d      	beq.n	800262e <chOQWriteTimeout+0xbe>
 80025f2:	9b01      	ldr	r3, [sp, #4]
 80025f4:	f383 8811 	msr	BASEPRI, r3
 80025f8:	f7ff fc82 	bl	8001f00 <_stats_start_measure_crit_thd>
 80025fc:	46d8      	mov	r8, fp
 80025fe:	f7ff fcf7 	bl	8001ff0 <_dbg_check_lock>
 8002602:	e7ca      	b.n	800259a <chOQWriteTimeout+0x2a>
 8002604:	4651      	mov	r1, sl
 8002606:	4620      	mov	r0, r4
 8002608:	f7ff f87a 	bl	8001700 <chThdEnqueueTimeoutS>
 800260c:	2800      	cmp	r0, #0
 800260e:	d0c4      	beq.n	800259a <chOQWriteTimeout+0x2a>
 8002610:	f7ff fcbe 	bl	8001f90 <_dbg_check_unlock>
 8002614:	f7ff fc6c 	bl	8001ef0 <_stats_stop_measure_crit_thd>
 8002618:	682b      	ldr	r3, [r5, #0]
 800261a:	42ab      	cmp	r3, r5
 800261c:	d004      	beq.n	8002628 <chOQWriteTimeout+0xb8>
 800261e:	69aa      	ldr	r2, [r5, #24]
 8002620:	689b      	ldr	r3, [r3, #8]
 8002622:	6892      	ldr	r2, [r2, #8]
 8002624:	429a      	cmp	r2, r3
 8002626:	d30f      	bcc.n	8002648 <chOQWriteTimeout+0xd8>
 8002628:	2300      	movs	r3, #0
 800262a:	f383 8811 	msr	BASEPRI, r3
 800262e:	4630      	mov	r0, r6
 8002630:	b003      	add	sp, #12
 8002632:	e8bd 8ff0 	ldmia.w	sp!, {r4, r5, r6, r7, r8, r9, sl, fp, pc}
 8002636:	b672      	cpsid	i
 8002638:	4b06      	ldr	r3, [pc, #24]	; (8002654 <chOQWriteTimeout+0xe4>)
 800263a:	62eb      	str	r3, [r5, #44]	; 0x2c
 800263c:	e7fe      	b.n	800263c <chOQWriteTimeout+0xcc>
 800263e:	b672      	cpsid	i
 8002640:	4b03      	ldr	r3, [pc, #12]	; (8002650 <chOQWriteTimeout+0xe0>)
 8002642:	4a05      	ldr	r2, [pc, #20]	; (8002658 <chOQWriteTimeout+0xe8>)
 8002644:	62da      	str	r2, [r3, #44]	; 0x2c
 8002646:	e7fe      	b.n	8002646 <chOQWriteTimeout+0xd6>
 8002648:	b672      	cpsid	i
 800264a:	4b02      	ldr	r3, [pc, #8]	; (8002654 <chOQWriteTimeout+0xe4>)
 800264c:	62eb      	str	r3, [r5, #44]	; 0x2c
 800264e:	e7fe      	b.n	800264e <chOQWriteTimeout+0xde>
 8002650:	20004e78 	.word	0x20004e78
 8002654:	08004760 	.word	0x08004760
 8002658:	080048d0 	.word	0x080048d0
 800265c:	00000000 	.word	0x00000000

08002660 <writet>:
 8002660:	3030      	adds	r0, #48	; 0x30
 8002662:	f7ff bf85 	b.w	8002570 <chOQWriteTimeout>
 8002666:	bf00      	nop
	...

08002670 <write>:
 8002670:	3030      	adds	r0, #48	; 0x30
 8002672:	f04f 33ff 	mov.w	r3, #4294967295	; 0xffffffff
 8002676:	f7ff bf7b 	b.w	8002570 <chOQWriteTimeout>
 800267a:	bf00      	nop
 800267c:	0000      	movs	r0, r0
	...

08002680 <chOQPutTimeout>:
 8002680:	b5f8      	push	{r3, r4, r5, r6, r7, lr}
 8002682:	4604      	mov	r4, r0
 8002684:	460f      	mov	r7, r1
 8002686:	4616      	mov	r6, r2
 8002688:	2320      	movs	r3, #32
 800268a:	f383 8811 	msr	BASEPRI, r3
 800268e:	f7ff fc37 	bl	8001f00 <_stats_start_measure_crit_thd>
 8002692:	f7ff fcad 	bl	8001ff0 <_dbg_check_lock>
 8002696:	e003      	b.n	80026a0 <chOQPutTimeout+0x20>
 8002698:	f7ff f832 	bl	8001700 <chThdEnqueueTimeoutS>
 800269c:	1e05      	subs	r5, r0, #0
 800269e:	db27      	blt.n	80026f0 <chOQPutTimeout+0x70>
 80026a0:	f7fe fa86 	bl	8000bb0 <chDbgCheckClassI>
 80026a4:	68a3      	ldr	r3, [r4, #8]
 80026a6:	4631      	mov	r1, r6
 80026a8:	4620      	mov	r0, r4
 80026aa:	2b00      	cmp	r3, #0
 80026ac:	d0f4      	beq.n	8002698 <chOQPutTimeout+0x18>
 80026ae:	6962      	ldr	r2, [r4, #20]
 80026b0:	3b01      	subs	r3, #1
 80026b2:	1c51      	adds	r1, r2, #1
 80026b4:	6161      	str	r1, [r4, #20]
 80026b6:	60a3      	str	r3, [r4, #8]
 80026b8:	7017      	strb	r7, [r2, #0]
 80026ba:	e9d4 3204 	ldrd	r3, r2, [r4, #16]
 80026be:	429a      	cmp	r2, r3
 80026c0:	bf24      	itt	cs
 80026c2:	68e3      	ldrcs	r3, [r4, #12]
 80026c4:	6163      	strcs	r3, [r4, #20]
 80026c6:	69e3      	ldr	r3, [r4, #28]
 80026c8:	b103      	cbz	r3, 80026cc <chOQPutTimeout+0x4c>
 80026ca:	4798      	blx	r3
 80026cc:	f7ff fc60 	bl	8001f90 <_dbg_check_unlock>
 80026d0:	f7ff fc0e 	bl	8001ef0 <_stats_stop_measure_crit_thd>
 80026d4:	4b13      	ldr	r3, [pc, #76]	; (8002724 <chOQPutTimeout+0xa4>)
 80026d6:	681a      	ldr	r2, [r3, #0]
 80026d8:	429a      	cmp	r2, r3
 80026da:	d004      	beq.n	80026e6 <chOQPutTimeout+0x66>
 80026dc:	6999      	ldr	r1, [r3, #24]
 80026de:	6892      	ldr	r2, [r2, #8]
 80026e0:	6889      	ldr	r1, [r1, #8]
 80026e2:	4291      	cmp	r1, r2
 80026e4:	d31a      	bcc.n	800271c <chOQPutTimeout+0x9c>
 80026e6:	2500      	movs	r5, #0
 80026e8:	f385 8811 	msr	BASEPRI, r5
 80026ec:	4628      	mov	r0, r5
 80026ee:	bdf8      	pop	{r3, r4, r5, r6, r7, pc}
 80026f0:	f7ff fc4e 	bl	8001f90 <_dbg_check_unlock>
 80026f4:	f7ff fbfc 	bl	8001ef0 <_stats_stop_measure_crit_thd>
 80026f8:	4b0a      	ldr	r3, [pc, #40]	; (8002724 <chOQPutTimeout+0xa4>)
 80026fa:	681a      	ldr	r2, [r3, #0]
 80026fc:	429a      	cmp	r2, r3
 80026fe:	d004      	beq.n	800270a <chOQPutTimeout+0x8a>
 8002700:	6999      	ldr	r1, [r3, #24]
 8002702:	6892      	ldr	r2, [r2, #8]
 8002704:	6889      	ldr	r1, [r1, #8]
 8002706:	4291      	cmp	r1, r2
 8002708:	d304      	bcc.n	8002714 <chOQPutTimeout+0x94>
 800270a:	2300      	movs	r3, #0
 800270c:	f383 8811 	msr	BASEPRI, r3
 8002710:	4628      	mov	r0, r5
 8002712:	bdf8      	pop	{r3, r4, r5, r6, r7, pc}
 8002714:	b672      	cpsid	i
 8002716:	4a04      	ldr	r2, [pc, #16]	; (8002728 <chOQPutTimeout+0xa8>)
 8002718:	62da      	str	r2, [r3, #44]	; 0x2c
 800271a:	e7fe      	b.n	800271a <chOQPutTimeout+0x9a>
 800271c:	b672      	cpsid	i
 800271e:	4a02      	ldr	r2, [pc, #8]	; (8002728 <chOQPutTimeout+0xa8>)
 8002720:	62da      	str	r2, [r3, #44]	; 0x2c
 8002722:	e7fe      	b.n	8002722 <chOQPutTimeout+0xa2>
 8002724:	20004e78 	.word	0x20004e78
 8002728:	08004760 	.word	0x08004760
 800272c:	00000000 	.word	0x00000000

08002730 <putt>:
 8002730:	3030      	adds	r0, #48	; 0x30
 8002732:	f7ff bfa5 	b.w	8002680 <chOQPutTimeout>
 8002736:	bf00      	nop
	...

08002740 <put>:
 8002740:	3030      	adds	r0, #48	; 0x30
 8002742:	f04f 32ff 	mov.w	r2, #4294967295	; 0xffffffff
 8002746:	f7ff bf9b 	b.w	8002680 <chOQPutTimeout>
 800274a:	bf00      	nop
 800274c:	0000      	movs	r0, r0
	...

08002750 <chIQReadTimeout>:
 8002750:	2a00      	cmp	r2, #0
 8002752:	d064      	beq.n	800281e <chIQReadTimeout+0xce>
 8002754:	e92d 4ff0 	stmdb	sp!, {r4, r5, r6, r7, r8, r9, sl, fp, lr}
 8002758:	b083      	sub	sp, #12
 800275a:	4698      	mov	r8, r3
 800275c:	9201      	str	r2, [sp, #4]
 800275e:	4681      	mov	r9, r0
 8002760:	f8d0 a01c 	ldr.w	sl, [r0, #28]
 8002764:	2720      	movs	r7, #32
 8002766:	f387 8811 	msr	BASEPRI, r7
 800276a:	f7ff fbc9 	bl	8001f00 <_stats_start_measure_crit_thd>
 800276e:	f7ff fc3f 	bl	8001ff0 <_dbg_check_lock>
 8002772:	2600      	movs	r6, #0
 8002774:	4c30      	ldr	r4, [pc, #192]	; (8002838 <chIQReadTimeout+0xe8>)
 8002776:	1e4d      	subs	r5, r1, #1
 8002778:	46b3      	mov	fp, r6
 800277a:	f1ba 0f00 	cmp.w	sl, #0
 800277e:	d005      	beq.n	800278c <chIQReadTimeout+0x3c>
 8002780:	4648      	mov	r0, r9
 8002782:	47d0      	blx	sl
 8002784:	e002      	b.n	800278c <chIQReadTimeout+0x3c>
 8002786:	f7fe ffbb 	bl	8001700 <chThdEnqueueTimeoutS>
 800278a:	bba8      	cbnz	r0, 80027f8 <chIQReadTimeout+0xa8>
 800278c:	f7fe fa10 	bl	8000bb0 <chDbgCheckClassI>
 8002790:	f8d9 2008 	ldr.w	r2, [r9, #8]
 8002794:	4641      	mov	r1, r8
 8002796:	4648      	mov	r0, r9
 8002798:	2a00      	cmp	r2, #0
 800279a:	d0f4      	beq.n	8002786 <chIQReadTimeout+0x36>
 800279c:	f8d9 1018 	ldr.w	r1, [r9, #24]
 80027a0:	3a01      	subs	r2, #1
 80027a2:	1c48      	adds	r0, r1, #1
 80027a4:	f8c9 0018 	str.w	r0, [r9, #24]
 80027a8:	f8c9 2008 	str.w	r2, [r9, #8]
 80027ac:	780a      	ldrb	r2, [r1, #0]
 80027ae:	f805 2f01 	strb.w	r2, [r5, #1]!
 80027b2:	f8d9 2010 	ldr.w	r2, [r9, #16]
 80027b6:	f8d9 1018 	ldr.w	r1, [r9, #24]
 80027ba:	4291      	cmp	r1, r2
 80027bc:	bf24      	itt	cs
 80027be:	f8d9 200c 	ldrcs.w	r2, [r9, #12]
 80027c2:	f8c9 2018 	strcs.w	r2, [r9, #24]
 80027c6:	f7ff fbe3 	bl	8001f90 <_dbg_check_unlock>
 80027ca:	f7ff fb91 	bl	8001ef0 <_stats_stop_measure_crit_thd>
 80027ce:	6822      	ldr	r2, [r4, #0]
 80027d0:	42a2      	cmp	r2, r4
 80027d2:	d004      	beq.n	80027de <chIQReadTimeout+0x8e>
 80027d4:	69a1      	ldr	r1, [r4, #24]
 80027d6:	6892      	ldr	r2, [r2, #8]
 80027d8:	6889      	ldr	r1, [r1, #8]
 80027da:	4291      	cmp	r1, r2
 80027dc:	d324      	bcc.n	8002828 <chIQReadTimeout+0xd8>
 80027de:	f38b 8811 	msr	BASEPRI, fp
 80027e2:	9b01      	ldr	r3, [sp, #4]
 80027e4:	3601      	adds	r6, #1
 80027e6:	42b3      	cmp	r3, r6
 80027e8:	d015      	beq.n	8002816 <chIQReadTimeout+0xc6>
 80027ea:	f387 8811 	msr	BASEPRI, r7
 80027ee:	f7ff fb87 	bl	8001f00 <_stats_start_measure_crit_thd>
 80027f2:	f7ff fbfd 	bl	8001ff0 <_dbg_check_lock>
 80027f6:	e7c0      	b.n	800277a <chIQReadTimeout+0x2a>
 80027f8:	f7ff fbca 	bl	8001f90 <_dbg_check_unlock>
 80027fc:	f7ff fb78 	bl	8001ef0 <_stats_stop_measure_crit_thd>
 8002800:	6823      	ldr	r3, [r4, #0]
 8002802:	42a3      	cmp	r3, r4
 8002804:	d004      	beq.n	8002810 <chIQReadTimeout+0xc0>
 8002806:	69a2      	ldr	r2, [r4, #24]
 8002808:	689b      	ldr	r3, [r3, #8]
 800280a:	6892      	ldr	r2, [r2, #8]
 800280c:	429a      	cmp	r2, r3
 800280e:	d30f      	bcc.n	8002830 <chIQReadTimeout+0xe0>
 8002810:	2300      	movs	r3, #0
 8002812:	f383 8811 	msr	BASEPRI, r3
 8002816:	4630      	mov	r0, r6
 8002818:	b003      	add	sp, #12
 800281a:	e8bd 8ff0 	ldmia.w	sp!, {r4, r5, r6, r7, r8, r9, sl, fp, pc}
 800281e:	b672      	cpsid	i
 8002820:	4b05      	ldr	r3, [pc, #20]	; (8002838 <chIQReadTimeout+0xe8>)
 8002822:	4a06      	ldr	r2, [pc, #24]	; (800283c <chIQReadTimeout+0xec>)
 8002824:	62da      	str	r2, [r3, #44]	; 0x2c
 8002826:	e7fe      	b.n	8002826 <chIQReadTimeout+0xd6>
 8002828:	b672      	cpsid	i
 800282a:	4b05      	ldr	r3, [pc, #20]	; (8002840 <chIQReadTimeout+0xf0>)
 800282c:	62e3      	str	r3, [r4, #44]	; 0x2c
 800282e:	e7fe      	b.n	800282e <chIQReadTimeout+0xde>
 8002830:	b672      	cpsid	i
 8002832:	4b03      	ldr	r3, [pc, #12]	; (8002840 <chIQReadTimeout+0xf0>)
 8002834:	62e3      	str	r3, [r4, #44]	; 0x2c
 8002836:	e7fe      	b.n	8002836 <chIQReadTimeout+0xe6>
 8002838:	20004e78 	.word	0x20004e78
 800283c:	08004890 	.word	0x08004890
 8002840:	08004760 	.word	0x08004760
	...

08002850 <readt>:
 8002850:	300c      	adds	r0, #12
 8002852:	f7ff bf7d 	b.w	8002750 <chIQReadTimeout>
 8002856:	bf00      	nop
	...

08002860 <read>:
 8002860:	300c      	adds	r0, #12
 8002862:	f04f 33ff 	mov.w	r3, #4294967295	; 0xffffffff
 8002866:	f7ff bf73 	b.w	8002750 <chIQReadTimeout>
 800286a:	bf00      	nop
 800286c:	0000      	movs	r0, r0
	...

08002870 <chIQGetTimeout>:
 8002870:	b570      	push	{r4, r5, r6, lr}
 8002872:	2320      	movs	r3, #32
 8002874:	4604      	mov	r4, r0
 8002876:	460e      	mov	r6, r1
 8002878:	f383 8811 	msr	BASEPRI, r3
 800287c:	f7ff fb40 	bl	8001f00 <_stats_start_measure_crit_thd>
 8002880:	f7ff fbb6 	bl	8001ff0 <_dbg_check_lock>
 8002884:	69e3      	ldr	r3, [r4, #28]
 8002886:	b133      	cbz	r3, 8002896 <chIQGetTimeout+0x26>
 8002888:	4620      	mov	r0, r4
 800288a:	4798      	blx	r3
 800288c:	e003      	b.n	8002896 <chIQGetTimeout+0x26>
 800288e:	f7fe ff37 	bl	8001700 <chThdEnqueueTimeoutS>
 8002892:	1e05      	subs	r5, r0, #0
 8002894:	db24      	blt.n	80028e0 <chIQGetTimeout+0x70>
 8002896:	f7fe f98b 	bl	8000bb0 <chDbgCheckClassI>
 800289a:	68a3      	ldr	r3, [r4, #8]
 800289c:	4631      	mov	r1, r6
 800289e:	4620      	mov	r0, r4
 80028a0:	2b00      	cmp	r3, #0
 80028a2:	d0f4      	beq.n	800288e <chIQGetTimeout+0x1e>
 80028a4:	69a1      	ldr	r1, [r4, #24]
 80028a6:	6920      	ldr	r0, [r4, #16]
 80028a8:	1c4a      	adds	r2, r1, #1
 80028aa:	3b01      	subs	r3, #1
 80028ac:	4282      	cmp	r2, r0
 80028ae:	60a3      	str	r3, [r4, #8]
 80028b0:	61a2      	str	r2, [r4, #24]
 80028b2:	bf28      	it	cs
 80028b4:	68e3      	ldrcs	r3, [r4, #12]
 80028b6:	780d      	ldrb	r5, [r1, #0]
 80028b8:	bf28      	it	cs
 80028ba:	61a3      	strcs	r3, [r4, #24]
 80028bc:	f7ff fb68 	bl	8001f90 <_dbg_check_unlock>
 80028c0:	f7ff fb16 	bl	8001ef0 <_stats_stop_measure_crit_thd>
 80028c4:	4b11      	ldr	r3, [pc, #68]	; (800290c <chIQGetTimeout+0x9c>)
 80028c6:	681a      	ldr	r2, [r3, #0]
 80028c8:	429a      	cmp	r2, r3
 80028ca:	d004      	beq.n	80028d6 <chIQGetTimeout+0x66>
 80028cc:	6999      	ldr	r1, [r3, #24]
 80028ce:	6892      	ldr	r2, [r2, #8]
 80028d0:	6889      	ldr	r1, [r1, #8]
 80028d2:	4291      	cmp	r1, r2
 80028d4:	d315      	bcc.n	8002902 <chIQGetTimeout+0x92>
 80028d6:	2300      	movs	r3, #0
 80028d8:	f383 8811 	msr	BASEPRI, r3
 80028dc:	4628      	mov	r0, r5
 80028de:	bd70      	pop	{r4, r5, r6, pc}
 80028e0:	f7ff fb56 	bl	8001f90 <_dbg_check_unlock>
 80028e4:	f7ff fb04 	bl	8001ef0 <_stats_stop_measure_crit_thd>
 80028e8:	4b08      	ldr	r3, [pc, #32]	; (800290c <chIQGetTimeout+0x9c>)
 80028ea:	681a      	ldr	r2, [r3, #0]
 80028ec:	429a      	cmp	r2, r3
 80028ee:	d0f2      	beq.n	80028d6 <chIQGetTimeout+0x66>
 80028f0:	6999      	ldr	r1, [r3, #24]
 80028f2:	6892      	ldr	r2, [r2, #8]
 80028f4:	6889      	ldr	r1, [r1, #8]
 80028f6:	4291      	cmp	r1, r2
 80028f8:	d2ed      	bcs.n	80028d6 <chIQGetTimeout+0x66>
 80028fa:	b672      	cpsid	i
 80028fc:	4a04      	ldr	r2, [pc, #16]	; (8002910 <chIQGetTimeout+0xa0>)
 80028fe:	62da      	str	r2, [r3, #44]	; 0x2c
 8002900:	e7fe      	b.n	8002900 <chIQGetTimeout+0x90>
 8002902:	b672      	cpsid	i
 8002904:	4a02      	ldr	r2, [pc, #8]	; (8002910 <chIQGetTimeout+0xa0>)
 8002906:	62da      	str	r2, [r3, #44]	; 0x2c
 8002908:	e7fe      	b.n	8002908 <chIQGetTimeout+0x98>
 800290a:	bf00      	nop
 800290c:	20004e78 	.word	0x20004e78
 8002910:	08004760 	.word	0x08004760
	...

08002920 <gett>:
 8002920:	300c      	adds	r0, #12
 8002922:	f7ff bfa5 	b.w	8002870 <chIQGetTimeout>
 8002926:	bf00      	nop
	...

08002930 <get>:
 8002930:	300c      	adds	r0, #12
 8002932:	f04f 31ff 	mov.w	r1, #4294967295	; 0xffffffff
 8002936:	f7ff bf9b 	b.w	8002870 <chIQGetTimeout>
 800293a:	bf00      	nop
 800293c:	0000      	movs	r0, r0
	...

08002940 <chMtxUnlock>:
 8002940:	b5f8      	push	{r3, r4, r5, r6, r7, lr}
 8002942:	b1c8      	cbz	r0, 8002978 <chMtxUnlock+0x38>
 8002944:	4f2c      	ldr	r7, [pc, #176]	; (80029f8 <chMtxUnlock+0xb8>)
 8002946:	4601      	mov	r1, r0
 8002948:	2320      	movs	r3, #32
 800294a:	69bd      	ldr	r5, [r7, #24]
 800294c:	f383 8811 	msr	BASEPRI, r3
 8002950:	f7ff fad6 	bl	8001f00 <_stats_start_measure_crit_thd>
 8002954:	f7ff fb4c 	bl	8001ff0 <_dbg_check_lock>
 8002958:	6bee      	ldr	r6, [r5, #60]	; 0x3c
 800295a:	2e00      	cmp	r6, #0
 800295c:	d048      	beq.n	80029f0 <chMtxUnlock+0xb0>
 800295e:	68b3      	ldr	r3, [r6, #8]
 8002960:	42ab      	cmp	r3, r5
 8002962:	d003      	beq.n	800296c <chMtxUnlock+0x2c>
 8002964:	b672      	cpsid	i
 8002966:	4b25      	ldr	r3, [pc, #148]	; (80029fc <chMtxUnlock+0xbc>)
 8002968:	62fb      	str	r3, [r7, #44]	; 0x2c
 800296a:	e7fe      	b.n	800296a <chMtxUnlock+0x2a>
 800296c:	428e      	cmp	r6, r1
 800296e:	d008      	beq.n	8002982 <chMtxUnlock+0x42>
 8002970:	b672      	cpsid	i
 8002972:	4b22      	ldr	r3, [pc, #136]	; (80029fc <chMtxUnlock+0xbc>)
 8002974:	62fb      	str	r3, [r7, #44]	; 0x2c
 8002976:	e7fe      	b.n	8002976 <chMtxUnlock+0x36>
 8002978:	b672      	cpsid	i
 800297a:	4b1f      	ldr	r3, [pc, #124]	; (80029f8 <chMtxUnlock+0xb8>)
 800297c:	4a1f      	ldr	r2, [pc, #124]	; (80029fc <chMtxUnlock+0xbc>)
 800297e:	62da      	str	r2, [r3, #44]	; 0x2c
 8002980:	e7fe      	b.n	8002980 <chMtxUnlock+0x40>
 8002982:	68c8      	ldr	r0, [r1, #12]
 8002984:	63e8      	str	r0, [r5, #60]	; 0x3c
 8002986:	f7fe f903 	bl	8000b90 <chDbgCheckClassS>
 800298a:	680c      	ldr	r4, [r1, #0]
 800298c:	42a1      	cmp	r1, r4
 800298e:	d02c      	beq.n	80029ea <chMtxUnlock+0xaa>
 8002990:	6c2e      	ldr	r6, [r5, #64]	; 0x40
 8002992:	b158      	cbz	r0, 80029ac <chMtxUnlock+0x6c>
 8002994:	f7fe f8fc 	bl	8000b90 <chDbgCheckClassS>
 8002998:	6803      	ldr	r3, [r0, #0]
 800299a:	4298      	cmp	r0, r3
 800299c:	d003      	beq.n	80029a6 <chMtxUnlock+0x66>
 800299e:	689b      	ldr	r3, [r3, #8]
 80029a0:	429e      	cmp	r6, r3
 80029a2:	bf38      	it	cc
 80029a4:	461e      	movcc	r6, r3
 80029a6:	68c0      	ldr	r0, [r0, #12]
 80029a8:	2800      	cmp	r0, #0
 80029aa:	d1f3      	bne.n	8002994 <chMtxUnlock+0x54>
 80029ac:	6823      	ldr	r3, [r4, #0]
 80029ae:	6be2      	ldr	r2, [r4, #60]	; 0x3c
 80029b0:	60ae      	str	r6, [r5, #8]
 80029b2:	4620      	mov	r0, r4
 80029b4:	600b      	str	r3, [r1, #0]
 80029b6:	6059      	str	r1, [r3, #4]
 80029b8:	e9c1 4202 	strd	r4, r2, [r1, #8]
 80029bc:	63e1      	str	r1, [r4, #60]	; 0x3c
 80029be:	f7fe fce7 	bl	8001390 <chSchWakeupS.constprop.32>
 80029c2:	f7ff fae5 	bl	8001f90 <_dbg_check_unlock>
 80029c6:	f7ff fa93 	bl	8001ef0 <_stats_stop_measure_crit_thd>
 80029ca:	683b      	ldr	r3, [r7, #0]
 80029cc:	42bb      	cmp	r3, r7
 80029ce:	d004      	beq.n	80029da <chMtxUnlock+0x9a>
 80029d0:	69ba      	ldr	r2, [r7, #24]
 80029d2:	689b      	ldr	r3, [r3, #8]
 80029d4:	6892      	ldr	r2, [r2, #8]
 80029d6:	429a      	cmp	r2, r3
 80029d8:	d303      	bcc.n	80029e2 <chMtxUnlock+0xa2>
 80029da:	2300      	movs	r3, #0
 80029dc:	f383 8811 	msr	BASEPRI, r3
 80029e0:	bdf8      	pop	{r3, r4, r5, r6, r7, pc}
 80029e2:	b672      	cpsid	i
 80029e4:	4b06      	ldr	r3, [pc, #24]	; (8002a00 <chMtxUnlock+0xc0>)
 80029e6:	62fb      	str	r3, [r7, #44]	; 0x2c
 80029e8:	e7fe      	b.n	80029e8 <chMtxUnlock+0xa8>
 80029ea:	2300      	movs	r3, #0
 80029ec:	60b3      	str	r3, [r6, #8]
 80029ee:	e7e8      	b.n	80029c2 <chMtxUnlock+0x82>
 80029f0:	b672      	cpsid	i
 80029f2:	4b02      	ldr	r3, [pc, #8]	; (80029fc <chMtxUnlock+0xbc>)
 80029f4:	62fb      	str	r3, [r7, #44]	; 0x2c
 80029f6:	e7fe      	b.n	80029f6 <chMtxUnlock+0xb6>
 80029f8:	20004e78 	.word	0x20004e78
 80029fc:	080048a0 	.word	0x080048a0
 8002a00:	08004750 	.word	0x08004750
	...

08002a10 <chThdExit>:
 8002a10:	b508      	push	{r3, lr}
 8002a12:	4601      	mov	r1, r0
 8002a14:	2320      	movs	r3, #32
 8002a16:	f383 8811 	msr	BASEPRI, r3
 8002a1a:	f7ff fa71 	bl	8001f00 <_stats_start_measure_crit_thd>
 8002a1e:	f7ff fae7 	bl	8001ff0 <_dbg_check_lock>
 8002a22:	4608      	mov	r0, r1
 8002a24:	f7fe fda4 	bl	8001570 <chThdExitS>
	...

08002a30 <chThdSleep>:
 8002a30:	b508      	push	{r3, lr}
 8002a32:	4601      	mov	r1, r0
 8002a34:	2320      	movs	r3, #32
 8002a36:	f383 8811 	msr	BASEPRI, r3
 8002a3a:	f7ff fa61 	bl	8001f00 <_stats_start_measure_crit_thd>
 8002a3e:	f7ff fad7 	bl	8001ff0 <_dbg_check_lock>
 8002a42:	2008      	movs	r0, #8
 8002a44:	f7fe fdbc 	bl	80015c0 <chSchGoSleepTimeoutS>
 8002a48:	f7ff faa2 	bl	8001f90 <_dbg_check_unlock>
 8002a4c:	f7ff fa50 	bl	8001ef0 <_stats_stop_measure_crit_thd>
 8002a50:	4b08      	ldr	r3, [pc, #32]	; (8002a74 <chThdSleep+0x44>)
 8002a52:	681a      	ldr	r2, [r3, #0]
 8002a54:	429a      	cmp	r2, r3
 8002a56:	d004      	beq.n	8002a62 <chThdSleep+0x32>
 8002a58:	6999      	ldr	r1, [r3, #24]
 8002a5a:	6892      	ldr	r2, [r2, #8]
 8002a5c:	6889      	ldr	r1, [r1, #8]
 8002a5e:	4291      	cmp	r1, r2
 8002a60:	d303      	bcc.n	8002a6a <chThdSleep+0x3a>
 8002a62:	2300      	movs	r3, #0
 8002a64:	f383 8811 	msr	BASEPRI, r3
 8002a68:	bd08      	pop	{r3, pc}
 8002a6a:	b672      	cpsid	i
 8002a6c:	4a02      	ldr	r2, [pc, #8]	; (8002a78 <chThdSleep+0x48>)
 8002a6e:	62da      	str	r2, [r3, #44]	; 0x2c
 8002a70:	e7fe      	b.n	8002a70 <chThdSleep+0x40>
 8002a72:	bf00      	nop
 8002a74:	20004e78 	.word	0x20004e78
 8002a78:	08004730 	.word	0x08004730
 8002a7c:	00000000 	.word	0x00000000

08002a80 <main>:
 8002a80:	4b1b      	ldr	r3, [pc, #108]	; (8002af0 <main+0x70>)
 8002a82:	4c1c      	ldr	r4, [pc, #112]	; (8002af4 <main+0x74>)
 8002a84:	691a      	ldr	r2, [r3, #16]
 8002a86:	f04f 31ff 	mov.w	r1, #4294967295	; 0xffffffff
 8002a8a:	2200      	movs	r2, #0
 8002a8c:	e92d 4880 	stmdb	sp!, {r7, fp, lr}
 8002a90:	6119      	str	r1, [r3, #16]
 8002a92:	611a      	str	r2, [r3, #16]
 8002a94:	6958      	ldr	r0, [r3, #20]
 8002a96:	6159      	str	r1, [r3, #20]
 8002a98:	615a      	str	r2, [r3, #20]
 8002a9a:	6a18      	ldr	r0, [r3, #32]
 8002a9c:	f060 5080 	orn	r0, r0, #268435456	; 0x10000000
 8002aa0:	6218      	str	r0, [r3, #32]
 8002aa2:	621a      	str	r2, [r3, #32]
 8002aa4:	6a58      	ldr	r0, [r3, #36]	; 0x24
 8002aa6:	6259      	str	r1, [r3, #36]	; 0x24
 8002aa8:	625a      	str	r2, [r3, #36]	; 0x24
 8002aaa:	6c19      	ldr	r1, [r3, #64]	; 0x40
 8002aac:	f041 5180 	orr.w	r1, r1, #268435456	; 0x10000000
 8002ab0:	6419      	str	r1, [r3, #64]	; 0x40
 8002ab2:	6821      	ldr	r1, [r4, #0]
 8002ab4:	f441 7180 	orr.w	r1, r1, #256	; 0x100
 8002ab8:	6021      	str	r1, [r4, #0]
 8002aba:	6f19      	ldr	r1, [r3, #112]	; 0x70
 8002abc:	f401 7140 	and.w	r1, r1, #768	; 0x300
 8002ac0:	f5b1 7f00 	cmp.w	r1, #512	; 0x200
 8002ac4:	b089      	sub	sp, #36	; 0x24
 8002ac6:	d003      	beq.n	8002ad0 <main+0x50>
 8002ac8:	f44f 3180 	mov.w	r1, #65536	; 0x10000
 8002acc:	6719      	str	r1, [r3, #112]	; 0x70
 8002ace:	671a      	str	r2, [r3, #112]	; 0x70
 8002ad0:	4c08      	ldr	r4, [pc, #32]	; (8002af4 <main+0x74>)
 8002ad2:	4a09      	ldr	r2, [pc, #36]	; (8002af8 <main+0x78>)
 8002ad4:	6863      	ldr	r3, [r4, #4]
 8002ad6:	4909      	ldr	r1, [pc, #36]	; (8002afc <main+0x7c>)
 8002ad8:	f8df b028 	ldr.w	fp, [pc, #40]	; 8002b04 <main+0x84>
 8002adc:	f423 7300 	bic.w	r3, r3, #512	; 0x200
 8002ae0:	6063      	str	r3, [r4, #4]
 8002ae2:	4c07      	ldr	r4, [pc, #28]	; (8002b00 <main+0x80>)
 8002ae4:	2000      	movs	r0, #0
 8002ae6:	6020      	str	r0, [r4, #0]
 8002ae8:	4603      	mov	r3, r0
 8002aea:	4604      	mov	r4, r0
 8002aec:	e00e      	b.n	8002b0c <main+0x8c>
 8002aee:	bf00      	nop
 8002af0:	40023800 	.word	0x40023800
 8002af4:	40007000 	.word	0x40007000
 8002af8:	08004afc 	.word	0x08004afc
 8002afc:	40026010 	.word	0x40026010
 8002b00:	200054f0 	.word	0x200054f0
 8002b04:	20005470 	.word	0x20005470
 8002b08:	f852 1c0c 	ldr.w	r1, [r2, #-12]
 8002b0c:	600c      	str	r4, [r1, #0]
 8002b0e:	f84b 4033 	str.w	r4, [fp, r3, lsl #3]
 8002b12:	3301      	adds	r3, #1
 8002b14:	2b10      	cmp	r3, #16
 8002b16:	f102 020c 	add.w	r2, r2, #12
 8002b1a:	d1f5      	bne.n	8002b08 <main+0x88>
 8002b1c:	4fd2      	ldr	r7, [pc, #840]	; (8002e68 <main+0x3e8>)
 8002b1e:	49d3      	ldr	r1, [pc, #844]	; (8002e6c <main+0x3ec>)
 8002b20:	f8df 93a8 	ldr.w	r9, [pc, #936]	; 8002ecc <main+0x44c>
 8002b24:	9300      	str	r3, [sp, #0]
 8002b26:	f04f 36ff 	mov.w	r6, #4294967295	; 0xffffffff
 8002b2a:	60be      	str	r6, [r7, #8]
 8002b2c:	60fe      	str	r6, [r7, #12]
 8002b2e:	608e      	str	r6, [r1, #8]
 8002b30:	60ce      	str	r6, [r1, #12]
 8002b32:	f8d9 7030 	ldr.w	r7, [r9, #48]	; 0x30
 8002b36:	f8df e398 	ldr.w	lr, [pc, #920]	; 8002ed0 <main+0x450>
 8002b3a:	4bcd      	ldr	r3, [pc, #820]	; (8002e70 <main+0x3f0>)
 8002b3c:	f8df c394 	ldr.w	ip, [pc, #916]	; 8002ed4 <main+0x454>
 8002b40:	48cc      	ldr	r0, [pc, #816]	; (8002e74 <main+0x3f4>)
 8002b42:	4dcd      	ldr	r5, [pc, #820]	; (8002e78 <main+0x3f8>)
 8002b44:	4acd      	ldr	r2, [pc, #820]	; (8002e7c <main+0x3fc>)
 8002b46:	f240 11ff 	movw	r1, #511	; 0x1ff
 8002b4a:	430f      	orrs	r7, r1
 8002b4c:	f8c9 7030 	str.w	r7, [r9, #48]	; 0x30
 8002b50:	f8d9 a050 	ldr.w	sl, [r9, #80]	; 0x50
 8002b54:	4fca      	ldr	r7, [pc, #808]	; (8002e80 <main+0x400>)
 8002b56:	ea4a 0a01 	orr.w	sl, sl, r1
 8002b5a:	f8c9 a050 	str.w	sl, [r9, #80]	; 0x50
 8002b5e:	f64f 6aff 	movw	sl, #65279	; 0xfeff
 8002b62:	f8ce 4004 	str.w	r4, [lr, #4]
 8002b66:	f8ce 6008 	str.w	r6, [lr, #8]
 8002b6a:	f8ce 300c 	str.w	r3, [lr, #12]
 8002b6e:	f8ce a014 	str.w	sl, [lr, #20]
 8002b72:	f8df a364 	ldr.w	sl, [pc, #868]	; 8002ed8 <main+0x458>
 8002b76:	f8ce a020 	str.w	sl, [lr, #32]
 8002b7a:	f8df a360 	ldr.w	sl, [pc, #864]	; 8002edc <main+0x45c>
 8002b7e:	f8ce a024 	str.w	sl, [lr, #36]	; 0x24
 8002b82:	f8df a35c 	ldr.w	sl, [pc, #860]	; 8002ee0 <main+0x460>
 8002b86:	f8ce a000 	str.w	sl, [lr]
 8002b8a:	f44f 7e40 	mov.w	lr, #768	; 0x300
 8002b8e:	f8cc e004 	str.w	lr, [ip, #4]
 8002b92:	f8df e350 	ldr.w	lr, [pc, #848]	; 8002ee4 <main+0x464>
 8002b96:	f8cc 6008 	str.w	r6, [ip, #8]
 8002b9a:	f8cc e00c 	str.w	lr, [ip, #12]
 8002b9e:	f64f 7efe 	movw	lr, #65534	; 0xfffe
 8002ba2:	f8cc e014 	str.w	lr, [ip, #20]
 8002ba6:	f8df e340 	ldr.w	lr, [pc, #832]	; 8002ee8 <main+0x468>
 8002baa:	f8cc 4020 	str.w	r4, [ip, #32]
 8002bae:	f8cc e024 	str.w	lr, [ip, #36]	; 0x24
 8002bb2:	f8df e338 	ldr.w	lr, [pc, #824]	; 8002eec <main+0x46c>
 8002bb6:	f8cc e000 	str.w	lr, [ip]
 8002bba:	f1ae 5ecb 	sub.w	lr, lr, #425721856	; 0x19600000
 8002bbe:	f46f 634d 	mvn.w	r3, #3280	; 0xcd0
 8002bc2:	f5ae 2e6a 	sub.w	lr, lr, #958464	; 0xea000
 8002bc6:	f04f 0801 	mov.w	r8, #1
 8002bca:	f64f 71ff 	movw	r1, #65535	; 0xffff
 8002bce:	449e      	add	lr, r3
 8002bd0:	607c      	str	r4, [r7, #4]
 8002bd2:	60be      	str	r6, [r7, #8]
 8002bd4:	f8c7 800c 	str.w	r8, [r7, #12]
 8002bd8:	6179      	str	r1, [r7, #20]
 8002bda:	f8c7 e020 	str.w	lr, [r7, #32]
 8002bde:	f8df e310 	ldr.w	lr, [pc, #784]	; 8002ef0 <main+0x470>
 8002be2:	f8c7 e024 	str.w	lr, [r7, #36]	; 0x24
 8002be6:	f8df e30c 	ldr.w	lr, [pc, #780]	; 8002ef4 <main+0x474>
 8002bea:	f8c7 e000 	str.w	lr, [r7]
 8002bee:	f8df e308 	ldr.w	lr, [pc, #776]	; 8002ef8 <main+0x478>
 8002bf2:	6044      	str	r4, [r0, #4]
 8002bf4:	6086      	str	r6, [r0, #8]
 8002bf6:	f8c0 e00c 	str.w	lr, [r0, #12]
 8002bfa:	f44f 6e40 	mov.w	lr, #3072	; 0xc00
 8002bfe:	6141      	str	r1, [r0, #20]
 8002c00:	f04f 3355 	mov.w	r3, #1431655765	; 0x55555555
 8002c04:	f8c0 e020 	str.w	lr, [r0, #32]
 8002c08:	f04f 0e20 	mov.w	lr, #32
 8002c0c:	6244      	str	r4, [r0, #36]	; 0x24
 8002c0e:	f8c0 e000 	str.w	lr, [r0]
 8002c12:	f8cc 4c04 	str.w	r4, [ip, #3076]	; 0xc04
 8002c16:	f8cc 6c08 	str.w	r6, [ip, #3080]	; 0xc08
 8002c1a:	f8cc 3c0c 	str.w	r3, [ip, #3084]	; 0xc0c
 8002c1e:	f8cc 1c14 	str.w	r1, [ip, #3092]	; 0xc14
 8002c22:	f8cc 4c20 	str.w	r4, [ip, #3104]	; 0xc20
 8002c26:	f8cc 4c24 	str.w	r4, [ip, #3108]	; 0xc24
 8002c2a:	f8cc 4c00 	str.w	r4, [ip, #3072]	; 0xc00
 8002c2e:	f8df c2cc 	ldr.w	ip, [pc, #716]	; 8002efc <main+0x47c>
 8002c32:	f8c7 4c04 	str.w	r4, [r7, #3076]	; 0xc04
 8002c36:	f8c7 6c08 	str.w	r6, [r7, #3080]	; 0xc08
 8002c3a:	f8c7 cc0c 	str.w	ip, [r7, #3084]	; 0xc0c
 8002c3e:	f8c7 1c14 	str.w	r1, [r7, #3092]	; 0xc14
 8002c42:	f8c7 4c20 	str.w	r4, [r7, #3104]	; 0xc20
 8002c46:	f8c7 4c24 	str.w	r4, [r7, #3108]	; 0xc24
 8002c4a:	f8c7 4c00 	str.w	r4, [r7, #3072]	; 0xc00
 8002c4e:	4f8d      	ldr	r7, [pc, #564]	; (8002e84 <main+0x404>)
 8002c50:	f8c0 4c04 	str.w	r4, [r0, #3076]	; 0xc04
 8002c54:	f8c0 6c08 	str.w	r6, [r0, #3080]	; 0xc08
 8002c58:	f8c0 7c0c 	str.w	r7, [r0, #3084]	; 0xc0c
 8002c5c:	4f8a      	ldr	r7, [pc, #552]	; (8002e88 <main+0x408>)
 8002c5e:	f8c0 1c14 	str.w	r1, [r0, #3092]	; 0xc14
 8002c62:	f8df c29c 	ldr.w	ip, [pc, #668]	; 8002f00 <main+0x480>
 8002c66:	f8c0 4c20 	str.w	r4, [r0, #3104]	; 0xc20
 8002c6a:	f8c0 7c24 	str.w	r7, [r0, #3108]	; 0xc24
 8002c6e:	4f87      	ldr	r7, [pc, #540]	; (8002e8c <main+0x40c>)
 8002c70:	f8c0 7c00 	str.w	r7, [r0, #3072]	; 0xc00
 8002c74:	4628      	mov	r0, r5
 8002c76:	4f86      	ldr	r7, [pc, #536]	; (8002e90 <main+0x410>)
 8002c78:	f8cc 4004 	str.w	r4, [ip, #4]
 8002c7c:	f8cc 6008 	str.w	r6, [ip, #8]
 8002c80:	f8cc 700c 	str.w	r7, [ip, #12]
 8002c84:	4f83      	ldr	r7, [pc, #524]	; (8002e94 <main+0x414>)
 8002c86:	f8cc 1014 	str.w	r1, [ip, #20]
 8002c8a:	f8cc 4020 	str.w	r4, [ip, #32]
 8002c8e:	f8cc 4024 	str.w	r4, [ip, #36]	; 0x24
 8002c92:	f8cc 4000 	str.w	r4, [ip]
 8002c96:	6054      	str	r4, [r2, #4]
 8002c98:	6096      	str	r6, [r2, #8]
 8002c9a:	60d3      	str	r3, [r2, #12]
 8002c9c:	6151      	str	r1, [r2, #20]
 8002c9e:	6214      	str	r4, [r2, #32]
 8002ca0:	6254      	str	r4, [r2, #36]	; 0x24
 8002ca2:	6014      	str	r4, [r2, #0]
 8002ca4:	f840 7b04 	str.w	r7, [r0], #4
 8002ca8:	f8df a258 	ldr.w	sl, [pc, #600]	; 8002f04 <main+0x484>
 8002cac:	497a      	ldr	r1, [pc, #488]	; (8002e98 <main+0x418>)
 8002cae:	9b00      	ldr	r3, [sp, #0]
 8002cb0:	64e9      	str	r1, [r5, #76]	; 0x4c
 8002cb2:	f105 0774 	add.w	r7, r5, #116	; 0x74
 8002cb6:	f5a2 3286 	sub.w	r2, r2, #68608	; 0x10c00
 8002cba:	f105 0154 	add.w	r1, r5, #84	; 0x54
 8002cbe:	642f      	str	r7, [r5, #64]	; 0x40
 8002cc0:	676a      	str	r2, [r5, #116]	; 0x74
 8002cc2:	f105 070c 	add.w	r7, r5, #12
 8002cc6:	f105 0264 	add.w	r2, r5, #100	; 0x64
 8002cca:	6068      	str	r0, [r5, #4]
 8002ccc:	f105 0030 	add.w	r0, r5, #48	; 0x30
 8002cd0:	63ab      	str	r3, [r5, #56]	; 0x38
 8002cd2:	e9c5 7703 	strd	r7, r7, [r5, #12]
 8002cd6:	61a9      	str	r1, [r5, #24]
 8002cd8:	e9c5 1108 	strd	r1, r1, [r5, #32]
 8002cdc:	61ea      	str	r2, [r5, #28]
 8002cde:	63ea      	str	r2, [r5, #60]	; 0x3c
 8002ce0:	e9c5 2211 	strd	r2, r2, [r5, #68]	; 0x44
 8002ce4:	e9c5 000c 	strd	r0, r0, [r5, #48]	; 0x30
 8002ce8:	f885 8008 	strb.w	r8, [r5, #8]
 8002cec:	616c      	str	r4, [r5, #20]
 8002cee:	e9c5 450a 	strd	r4, r5, [r5, #40]	; 0x28
 8002cf2:	652d      	str	r5, [r5, #80]	; 0x50
 8002cf4:	f88a 8004 	strb.w	r8, [sl, #4]
 8002cf8:	f8ca 4034 	str.w	r4, [sl, #52]	; 0x34
 8002cfc:	e9ca 440a 	strd	r4, r4, [sl, #40]	; 0x28
 8002d00:	f8d9 0040 	ldr.w	r0, [r9, #64]	; 0x40
 8002d04:	4965      	ldr	r1, [pc, #404]	; (8002e9c <main+0x41c>)
 8002d06:	4f66      	ldr	r7, [pc, #408]	; (8002ea0 <main+0x420>)
 8002d08:	f8ca 7000 	str.w	r7, [sl]
 8002d0c:	ea40 0008 	orr.w	r0, r0, r8
 8002d10:	f8ca 403c 	str.w	r4, [sl, #60]	; 0x3c
 8002d14:	f8c9 0040 	str.w	r0, [r9, #64]	; 0x40
 8002d18:	f8d1 c008 	ldr.w	ip, [r1, #8]
 8002d1c:	4a61      	ldr	r2, [pc, #388]	; (8002ea4 <main+0x424>)
 8002d1e:	4f62      	ldr	r7, [pc, #392]	; (8002ea8 <main+0x428>)
 8002d20:	4862      	ldr	r0, [pc, #392]	; (8002eac <main+0x42c>)
 8002d22:	f8df 91e4 	ldr.w	r9, [pc, #484]	; 8002f08 <main+0x488>
 8002d26:	ea4c 0c08 	orr.w	ip, ip, r8
 8002d2a:	f8c1 c008 	str.w	ip, [r1, #8]
 8002d2e:	f04f 4180 	mov.w	r1, #1073741824	; 0x40000000
 8002d32:	f242 0ccf 	movw	ip, #8399	; 0x20cf
 8002d36:	f8c1 c028 	str.w	ip, [r1, #40]	; 0x28
 8002d3a:	62ce      	str	r6, [r1, #44]	; 0x2c
 8002d3c:	f04f 0c80 	mov.w	ip, #128	; 0x80
 8002d40:	618c      	str	r4, [r1, #24]
 8002d42:	634c      	str	r4, [r1, #52]	; 0x34
 8002d44:	60cc      	str	r4, [r1, #12]
 8002d46:	604c      	str	r4, [r1, #4]
 8002d48:	f8c1 8014 	str.w	r8, [r1, #20]
 8002d4c:	f8c1 8000 	str.w	r8, [r1]
 8002d50:	f04f 5180 	mov.w	r1, #268435456	; 0x10000000
 8002d54:	f887 c31c 	strb.w	ip, [r7, #796]	; 0x31c
 8002d58:	f8c7 1180 	str.w	r1, [r7, #384]	; 0x180
 8002d5c:	6039      	str	r1, [r7, #0]
 8002d5e:	6094      	str	r4, [r2, #8]
 8002d60:	68d1      	ldr	r1, [r2, #12]
 8002d62:	f8df c1a8 	ldr.w	ip, [pc, #424]	; 8002f0c <main+0x48c>
 8002d66:	f64f 07ff 	movw	r7, #63743	; 0xf8ff
 8002d6a:	4039      	ands	r1, r7
 8002d6c:	4308      	orrs	r0, r1
 8002d6e:	60d0      	str	r0, [r2, #12]
 8002d70:	f8dc 100c 	ldr.w	r1, [ip, #12]
 8002d74:	484e      	ldr	r0, [pc, #312]	; (8002eb0 <main+0x430>)
 8002d76:	4f4f      	ldr	r7, [pc, #316]	; (8002eb4 <main+0x434>)
 8002d78:	f041 7180 	orr.w	r1, r1, #16777216	; 0x1000000
 8002d7c:	f8cc 100c 	str.w	r1, [ip, #12]
 8002d80:	6801      	ldr	r1, [r0, #0]
 8002d82:	f8df c18c 	ldr.w	ip, [pc, #396]	; 8002f10 <main+0x490>
 8002d86:	f8ca c044 	str.w	ip, [sl, #68]	; 0x44
 8002d8a:	ea41 0108 	orr.w	r1, r1, r8
 8002d8e:	6001      	str	r1, [r0, #0]
 8002d90:	f107 0c1c 	add.w	ip, r7, #28
 8002d94:	77d3      	strb	r3, [r2, #31]
 8002d96:	4948      	ldr	r1, [pc, #288]	; (8002eb8 <main+0x438>)
 8002d98:	f882 e022 	strb.w	lr, [r2, #34]	; 0x22
 8002d9c:	2300      	movs	r3, #0
 8002d9e:	2200      	movs	r2, #0
 8002da0:	a802      	add	r0, sp, #8
 8002da2:	f8ca 1048 	str.w	r1, [sl, #72]	; 0x48
 8002da6:	e9c7 7700 	strd	r7, r7, [r7]
 8002daa:	60bc      	str	r4, [r7, #8]
 8002dac:	e9c7 7704 	strd	r7, r7, [r7, #16]
 8002db0:	e9c7 cc07 	strd	ip, ip, [r7, #28]
 8002db4:	e9cd 2306 	strd	r2, r3, [sp, #24]
 8002db8:	e9cd 2300 	strd	r2, r3, [sp]
 8002dbc:	e9c7 6409 	strd	r6, r4, [r7, #36]	; 0x24
 8002dc0:	e9cd 6402 	strd	r6, r4, [sp, #8]
 8002dc4:	f8c7 44a0 	str.w	r4, [r7, #1184]	; 0x4a0
 8002dc8:	e9cd 4404 	strd	r4, r4, [sp, #16]
 8002dcc:	f7fd fe80 	bl	8000ad0 <chTMStartMeasurementX>
 8002dd0:	a802      	add	r0, sp, #8
 8002dd2:	f7fd fe4d 	bl	8000a70 <chTMStopMeasurementX>
 8002dd6:	e9dd 2300 	ldrd	r2, r3, [sp]
 8002dda:	f8c7 64b0 	str.w	r6, [r7, #1200]	; 0x4b0
 8002dde:	f8c7 64c8 	str.w	r6, [r7, #1224]	; 0x4c8
 8002de2:	9e04      	ldr	r6, [sp, #16]
 8002de4:	f8c7 64a0 	str.w	r6, [r7, #1184]	; 0x4a0
 8002de8:	f507 6698 	add.w	r6, r7, #1216	; 0x4c0
 8002dec:	e9c6 2300 	strd	r2, r3, [r6]
 8002df0:	4932      	ldr	r1, [pc, #200]	; (8002ebc <main+0x43c>)
 8002df2:	4833      	ldr	r0, [pc, #204]	; (8002ec0 <main+0x440>)
 8002df4:	f8df c11c 	ldr.w	ip, [pc, #284]	; 8002f14 <main+0x494>
 8002df8:	f8df e11c 	ldr.w	lr, [pc, #284]	; 8002f18 <main+0x498>
 8002dfc:	f8c7 44b4 	str.w	r4, [r7, #1204]	; 0x4b4
 8002e00:	f507 669b 	add.w	r6, r7, #1240	; 0x4d8
 8002e04:	e9c6 2300 	strd	r2, r3, [r6]
 8002e08:	2340      	movs	r3, #64	; 0x40
 8002e0a:	18fa      	adds	r2, r7, r3
 8002e0c:	f021 0107 	bic.w	r1, r1, #7
 8002e10:	f109 0610 	add.w	r6, r9, #16
 8002e14:	6001      	str	r1, [r0, #0]
 8002e16:	f02c 0c07 	bic.w	ip, ip, #7
 8002e1a:	63fa      	str	r2, [r7, #60]	; 0x3c
 8002e1c:	4619      	mov	r1, r3
 8002e1e:	4a29      	ldr	r2, [pc, #164]	; (8002ec4 <main+0x444>)
 8002e20:	f8c7 44b8 	str.w	r4, [r7, #1208]	; 0x4b8
 8002e24:	f8c7 44bc 	str.w	r4, [r7, #1212]	; 0x4bc
 8002e28:	f8c7 44cc 	str.w	r4, [r7, #1228]	; 0x4cc
 8002e2c:	f8c7 44d0 	str.w	r4, [r7, #1232]	; 0x4d0
 8002e30:	f8c7 44d4 	str.w	r4, [r7, #1236]	; 0x4d4
 8002e34:	f507 6088 	add.w	r0, r7, #1088	; 0x440
 8002e38:	f8c9 4018 	str.w	r4, [r9, #24]
 8002e3c:	e9c9 6604 	strd	r6, r6, [r9, #16]
 8002e40:	f8c9 2000 	str.w	r2, [r9]
 8002e44:	63bb      	str	r3, [r7, #56]	; 0x38
 8002e46:	f8c7 44a8 	str.w	r4, [r7, #1192]	; 0x4a8
 8002e4a:	f8c7 44ac 	str.w	r4, [r7, #1196]	; 0x4ac
 8002e4e:	f8ce c000 	str.w	ip, [lr]
 8002e52:	e9c9 4402 	strd	r4, r4, [r9, #8]
 8002e56:	f7fd fe4b 	bl	8000af0 <_thread_init>
 8002e5a:	f880 8020 	strb.w	r8, [r0, #32]
 8002e5e:	6b3b      	ldr	r3, [r7, #48]	; 0x30
 8002e60:	4a19      	ldr	r2, [pc, #100]	; (8002ec8 <main+0x448>)
 8002e62:	61b8      	str	r0, [r7, #24]
 8002e64:	61c2      	str	r2, [r0, #28]
 8002e66:	e059      	b.n	8002f1c <main+0x49c>
 8002e68:	40026000 	.word	0x40026000
 8002e6c:	40026400 	.word	0x40026400
 8002e70:	20081500 	.word	0x20081500
 8002e74:	40020c00 	.word	0x40020c00
 8002e78:	20000db0 	.word	0x20000db0
 8002e7c:	40022000 	.word	0x40022000
 8002e80:	40020800 	.word	0x40020800
 8002e84:	41055555 	.word	0x41055555
 8002e88:	0bb0b000 	.word	0x0bb0b000
 8002e8c:	28900000 	.word	0x28900000
 8002e90:	55555550 	.word	0x55555550
 8002e94:	08005210 	.word	0x08005210
 8002e98:	080006f1 	.word	0x080006f1
 8002e9c:	e0042000 	.word	0xe0042000
 8002ea0:	08005120 	.word	0x08005120
 8002ea4:	e000ed00 	.word	0xe000ed00
 8002ea8:	e000e100 	.word	0xe000e100
 8002eac:	05fa0300 	.word	0x05fa0300
 8002eb0:	e0001000 	.word	0xe0001000
 8002eb4:	20004e78 	.word	0x20004e78
 8002eb8:	40012c00 	.word	0x40012c00
 8002ebc:	20005a77 	.word	0x20005a77
 8002ec0:	200054fc 	.word	0x200054fc
 8002ec4:	08002011 	.word	0x08002011
 8002ec8:	20000400 	.word	0x20000400
 8002ecc:	40023800 	.word	0x40023800
 8002ed0:	40020000 	.word	0x40020000
 8002ed4:	40020400 	.word	0x40020400
 8002ed8:	b0000bb0 	.word	0xb0000bb0
 8002edc:	000aaa00 	.word	0x000aaa00
 8002ee0:	aaa18028 	.word	0xaaa18028
 8002ee4:	08405400 	.word	0x08405400
 8002ee8:	cc0c0544 	.word	0xcc0c0544
 8002eec:	a22a0281 	.word	0xa22a0281
 8002ef0:	000ccccc 	.word	0x000ccccc
 8002ef4:	06aaaaa8 	.word	0x06aaaaa8
 8002ef8:	55555545 	.word	0x55555545
 8002efc:	55155555 	.word	0x55155555
 8002f00:	40021c00 	.word	0x40021c00
 8002f04:	20000e28 	.word	0x20000e28
 8002f08:	20005450 	.word	0x20005450
 8002f0c:	e000edf0 	.word	0xe000edf0
 8002f10:	08004b74 	.word	0x08004b74
 8002f14:	20020000 	.word	0x20020000
 8002f18:	200054f4 	.word	0x200054f4
 8002f1c:	b90b      	cbnz	r3, 8002f22 <main+0x4a2>
 8002f1e:	6b7b      	ldr	r3, [r7, #52]	; 0x34
 8002f20:	b11b      	cbz	r3, 8002f2a <main+0x4aa>
 8002f22:	b672      	cpsid	i
 8002f24:	4bbc      	ldr	r3, [pc, #752]	; (8003218 <main+0x798>)
 8002f26:	62fb      	str	r3, [r7, #44]	; 0x2c
 8002f28:	e7fe      	b.n	8002f28 <main+0x4a8>
 8002f2a:	f383 8811 	msr	BASEPRI, r3
 8002f2e:	b662      	cpsie	i
 8002f30:	69bb      	ldr	r3, [r7, #24]
 8002f32:	4aba      	ldr	r2, [pc, #744]	; (800321c <main+0x79c>)
 8002f34:	619a      	str	r2, [r3, #24]
 8002f36:	f507 61a8 	add.w	r1, r7, #1344	; 0x540
 8002f3a:	f507 639c 	add.w	r3, r7, #1248	; 0x4e0
 8002f3e:	22ff      	movs	r2, #255	; 0xff
 8002f40:	f803 2b01 	strb.w	r2, [r3], #1
 8002f44:	428b      	cmp	r3, r1
 8002f46:	d1fb      	bne.n	8002f40 <main+0x4c0>
 8002f48:	f103 0198 	add.w	r1, r3, #152	; 0x98
 8002f4c:	2255      	movs	r2, #85	; 0x55
 8002f4e:	f803 2b01 	strb.w	r2, [r3], #1
 8002f52:	428b      	cmp	r3, r1
 8002f54:	d1fb      	bne.n	8002f4e <main+0x4ce>
 8002f56:	2420      	movs	r4, #32
 8002f58:	f384 8811 	msr	BASEPRI, r4
 8002f5c:	f7fe ffd0 	bl	8001f00 <_stats_start_measure_crit_thd>
 8002f60:	f7ff f846 	bl	8001ff0 <_dbg_check_lock>
 8002f64:	f7fd fe24 	bl	8000bb0 <chDbgCheckClassI>
 8002f68:	4bad      	ldr	r3, [pc, #692]	; (8003220 <main+0x7a0>)
 8002f6a:	4aae      	ldr	r2, [pc, #696]	; (8003224 <main+0x7a4>)
 8002f6c:	f8c7 25b4 	str.w	r2, [r7, #1460]	; 0x5b4
 8002f70:	4ead      	ldr	r6, [pc, #692]	; (8003228 <main+0x7a8>)
 8002f72:	f8c7 34ec 	str.w	r3, [r7, #1260]	; 0x4ec
 8002f76:	2200      	movs	r2, #0
 8002f78:	f8c7 25b8 	str.w	r2, [r7, #1464]	; 0x5b8
 8002f7c:	f1a3 00d4 	sub.w	r0, r3, #212	; 0xd4
 8002f80:	2101      	movs	r1, #1
 8002f82:	f8c7 65d4 	str.w	r6, [r7, #1492]	; 0x5d4
 8002f86:	f7fd fdb3 	bl	8000af0 <_thread_init>
 8002f8a:	4680      	mov	r8, r0
 8002f8c:	f7fe fa00 	bl	8001390 <chSchWakeupS.constprop.32>
 8002f90:	f7ff f80e 	bl	8001fb0 <chSysUnlock.lto_priv.35>
 8002f94:	4ba5      	ldr	r3, [pc, #660]	; (800322c <main+0x7ac>)
 8002f96:	4aa6      	ldr	r2, [pc, #664]	; (8003230 <main+0x7b0>)
 8002f98:	f8c8 2018 	str.w	r2, [r8, #24]
 8002f9c:	601b      	str	r3, [r3, #0]
 8002f9e:	f384 8811 	msr	BASEPRI, r4
 8002fa2:	f7fe ffad 	bl	8001f00 <_stats_start_measure_crit_thd>
 8002fa6:	f7ff f823 	bl	8001ff0 <_dbg_check_lock>
 8002faa:	7a2b      	ldrb	r3, [r5, #8]
 8002fac:	1e5a      	subs	r2, r3, #1
 8002fae:	2a01      	cmp	r2, #1
 8002fb0:	d903      	bls.n	8002fba <main+0x53a>
 8002fb2:	b672      	cpsid	i
 8002fb4:	4b9f      	ldr	r3, [pc, #636]	; (8003234 <main+0x7b4>)
 8002fb6:	62fb      	str	r3, [r7, #44]	; 0x2c
 8002fb8:	e7fe      	b.n	8002fb8 <main+0x538>
 8002fba:	2b01      	cmp	r3, #1
 8002fbc:	d10c      	bne.n	8002fd8 <main+0x558>
 8002fbe:	499e      	ldr	r1, [pc, #632]	; (8003238 <main+0x7b8>)
 8002fc0:	4b9e      	ldr	r3, [pc, #632]	; (800323c <main+0x7bc>)
 8002fc2:	6c4a      	ldr	r2, [r1, #68]	; 0x44
 8002fc4:	f042 0220 	orr.w	r2, r2, #32
 8002fc8:	644a      	str	r2, [r1, #68]	; 0x44
 8002fca:	2280      	movs	r2, #128	; 0x80
 8002fcc:	21c0      	movs	r1, #192	; 0xc0
 8002fce:	f883 1347 	strb.w	r1, [r3, #839]	; 0x347
 8002fd2:	f8c3 2188 	str.w	r2, [r3, #392]	; 0x188
 8002fd6:	609a      	str	r2, [r3, #8]
 8002fd8:	6f6b      	ldr	r3, [r5, #116]	; 0x74
 8002fda:	4a99      	ldr	r2, [pc, #612]	; (8003240 <main+0x7c0>)
 8002fdc:	4293      	cmp	r3, r2
 8002fde:	f000 80e8 	beq.w	80031b2 <main+0x732>
 8002fe2:	f502 6280 	add.w	r2, r2, #1024	; 0x400
 8002fe6:	4293      	cmp	r3, r2
 8002fe8:	f000 80e3 	beq.w	80031b2 <main+0x732>
 8002fec:	f240 4245 	movw	r2, #1093	; 0x445
 8002ff0:	609a      	str	r2, [r3, #8]
 8002ff2:	f244 0140 	movw	r1, #16448	; 0x4040
 8002ff6:	2201      	movs	r2, #1
 8002ff8:	6119      	str	r1, [r3, #16]
 8002ffa:	615a      	str	r2, [r3, #20]
 8002ffc:	f242 112c 	movw	r1, #8492	; 0x212c
 8003000:	2200      	movs	r2, #0
 8003002:	60d9      	str	r1, [r3, #12]
 8003004:	601a      	str	r2, [r3, #0]
 8003006:	2202      	movs	r2, #2
 8003008:	6819      	ldr	r1, [r3, #0]
 800300a:	685b      	ldr	r3, [r3, #4]
 800300c:	722a      	strb	r2, [r5, #8]
 800300e:	f7fe ffbf 	bl	8001f90 <_dbg_check_unlock>
 8003012:	f7fe ff6d 	bl	8001ef0 <_stats_stop_measure_crit_thd>
 8003016:	683b      	ldr	r3, [r7, #0]
 8003018:	42bb      	cmp	r3, r7
 800301a:	d005      	beq.n	8003028 <main+0x5a8>
 800301c:	69ba      	ldr	r2, [r7, #24]
 800301e:	689b      	ldr	r3, [r3, #8]
 8003020:	6892      	ldr	r2, [r2, #8]
 8003022:	429a      	cmp	r2, r3
 8003024:	f0c0 80c9 	bcc.w	80031ba <main+0x73a>
 8003028:	2300      	movs	r3, #0
 800302a:	f383 8811 	msr	BASEPRI, r3
 800302e:	2320      	movs	r3, #32
 8003030:	f383 8811 	msr	BASEPRI, r3
 8003034:	f7fe ff64 	bl	8001f00 <_stats_start_measure_crit_thd>
 8003038:	f7fe ffda 	bl	8001ff0 <_dbg_check_lock>
 800303c:	f89a 3004 	ldrb.w	r3, [sl, #4]
 8003040:	1e5a      	subs	r2, r3, #1
 8003042:	2a01      	cmp	r2, #1
 8003044:	d903      	bls.n	800304e <main+0x5ce>
 8003046:	b672      	cpsid	i
 8003048:	4b7e      	ldr	r3, [pc, #504]	; (8003244 <main+0x7c4>)
 800304a:	62fb      	str	r3, [r7, #44]	; 0x2c
 800304c:	e7fe      	b.n	800304c <main+0x5cc>
 800304e:	497e      	ldr	r1, [pc, #504]	; (8003248 <main+0x7c8>)
 8003050:	4a7e      	ldr	r2, [pc, #504]	; (800324c <main+0x7cc>)
 8003052:	f8ca 102c 	str.w	r1, [sl, #44]	; 0x2c
 8003056:	2b01      	cmp	r3, #1
 8003058:	f8ca 2040 	str.w	r2, [sl, #64]	; 0x40
 800305c:	d054      	beq.n	8003108 <main+0x688>
 800305e:	f8da 3048 	ldr.w	r3, [sl, #72]	; 0x48
 8003062:	2200      	movs	r2, #0
 8003064:	601a      	str	r2, [r3, #0]
 8003066:	605a      	str	r2, [r3, #4]
 8003068:	62da      	str	r2, [r3, #44]	; 0x2c
 800306a:	625a      	str	r2, [r3, #36]	; 0x24
 800306c:	2302      	movs	r3, #2
 800306e:	f88a 3004 	strb.w	r3, [sl, #4]
 8003072:	f7fe ff8d 	bl	8001f90 <_dbg_check_unlock>
 8003076:	f7fe ff3b 	bl	8001ef0 <_stats_stop_measure_crit_thd>
 800307a:	683b      	ldr	r3, [r7, #0]
 800307c:	42bb      	cmp	r3, r7
 800307e:	d005      	beq.n	800308c <main+0x60c>
 8003080:	69ba      	ldr	r2, [r7, #24]
 8003082:	689b      	ldr	r3, [r3, #8]
 8003084:	6892      	ldr	r2, [r2, #8]
 8003086:	429a      	cmp	r2, r3
 8003088:	f0c0 809b 	bcc.w	80031c2 <main+0x742>
 800308c:	2300      	movs	r3, #0
 800308e:	f383 8811 	msr	BASEPRI, r3
 8003092:	4c6f      	ldr	r4, [pc, #444]	; (8003250 <main+0x7d0>)
 8003094:	21ff      	movs	r1, #255	; 0xff
 8003096:	4623      	mov	r3, r4
 8003098:	f104 0260 	add.w	r2, r4, #96	; 0x60
 800309c:	f803 1b01 	strb.w	r1, [r3], #1
 80030a0:	4293      	cmp	r3, r2
 80030a2:	d1fb      	bne.n	800309c <main+0x61c>
 80030a4:	f503 7184 	add.w	r1, r3, #264	; 0x108
 80030a8:	2255      	movs	r2, #85	; 0x55
 80030aa:	f803 2b01 	strb.w	r2, [r3], #1
 80030ae:	428b      	cmp	r3, r1
 80030b0:	d1fb      	bne.n	80030aa <main+0x62a>
 80030b2:	2320      	movs	r3, #32
 80030b4:	f383 8811 	msr	BASEPRI, r3
 80030b8:	f7fe ff22 	bl	8001f00 <_stats_start_measure_crit_thd>
 80030bc:	f7fe ff98 	bl	8001ff0 <_dbg_check_lock>
 80030c0:	f7fd fd76 	bl	8000bb0 <chDbgCheckClassI>
 80030c4:	4b63      	ldr	r3, [pc, #396]	; (8003254 <main+0x7d4>)
 80030c6:	4a64      	ldr	r2, [pc, #400]	; (8003258 <main+0x7d8>)
 80030c8:	f8c4 2144 	str.w	r2, [r4, #324]	; 0x144
 80030cc:	2500      	movs	r5, #0
 80030ce:	60e3      	str	r3, [r4, #12]
 80030d0:	f5a3 70a2 	sub.w	r0, r3, #324	; 0x144
 80030d4:	2140      	movs	r1, #64	; 0x40
 80030d6:	f8c4 6164 	str.w	r6, [r4, #356]	; 0x164
 80030da:	f8c4 5148 	str.w	r5, [r4, #328]	; 0x148
 80030de:	f7fd fd07 	bl	8000af0 <_thread_init>
 80030e2:	f7fe f955 	bl	8001390 <chSchWakeupS.constprop.32>
 80030e6:	f7fe ff63 	bl	8001fb0 <chSysUnlock.lto_priv.35>
 80030ea:	f8df 8188 	ldr.w	r8, [pc, #392]	; 8003274 <main+0x7f4>
 80030ee:	462c      	mov	r4, r5
 80030f0:	2d00      	cmp	r5, #0
 80030f2:	d06a      	beq.n	80031ca <main+0x74a>
 80030f4:	f895 3020 	ldrb.w	r3, [r5, #32]
 80030f8:	2b0f      	cmp	r3, #15
 80030fa:	f000 80bd 	beq.w	8003278 <main+0x7f8>
 80030fe:	f242 7010 	movw	r0, #10000	; 0x2710
 8003102:	f7ff fc95 	bl	8002a30 <chThdSleep>
 8003106:	e7f3      	b.n	80030f0 <main+0x670>
 8003108:	f8da 2044 	ldr.w	r2, [sl, #68]	; 0x44
 800310c:	2a00      	cmp	r2, #0
 800310e:	d04c      	beq.n	80031aa <main+0x72a>
 8003110:	4852      	ldr	r0, [pc, #328]	; (800325c <main+0x7dc>)
 8003112:	7a51      	ldrb	r1, [r2, #9]
 8003114:	6800      	ldr	r0, [r0, #0]
 8003116:	408b      	lsls	r3, r1
 8003118:	ea13 0400 	ands.w	r4, r3, r0
 800311c:	d141      	bne.n	80031a2 <main+0x722>
 800311e:	4303      	orrs	r3, r0
 8003120:	eb0b 05c1 	add.w	r5, fp, r1, lsl #3
 8003124:	484d      	ldr	r0, [pc, #308]	; (800325c <main+0x7dc>)
 8003126:	f84b 4031 	str.w	r4, [fp, r1, lsl #3]
 800312a:	f013 0fff 	tst.w	r3, #255	; 0xff
 800312e:	6003      	str	r3, [r0, #0]
 8003130:	606c      	str	r4, [r5, #4]
 8003132:	d004      	beq.n	800313e <main+0x6be>
 8003134:	4840      	ldr	r0, [pc, #256]	; (8003238 <main+0x7b8>)
 8003136:	6b01      	ldr	r1, [r0, #48]	; 0x30
 8003138:	f441 1100 	orr.w	r1, r1, #2097152	; 0x200000
 800313c:	6301      	str	r1, [r0, #48]	; 0x30
 800313e:	f413 4f7f 	tst.w	r3, #65280	; 0xff00
 8003142:	d004      	beq.n	800314e <main+0x6ce>
 8003144:	493c      	ldr	r1, [pc, #240]	; (8003238 <main+0x7b8>)
 8003146:	6b0b      	ldr	r3, [r1, #48]	; 0x30
 8003148:	f443 0380 	orr.w	r3, r3, #4194304	; 0x400000
 800314c:	630b      	str	r3, [r1, #48]	; 0x30
 800314e:	6813      	ldr	r3, [r2, #0]
 8003150:	6819      	ldr	r1, [r3, #0]
 8003152:	f021 011f 	bic.w	r1, r1, #31
 8003156:	6019      	str	r1, [r3, #0]
 8003158:	6818      	ldr	r0, [r3, #0]
 800315a:	f010 0001 	ands.w	r0, r0, #1
 800315e:	d1fb      	bne.n	8003158 <main+0x6d8>
 8003160:	f892 c008 	ldrb.w	ip, [r2, #8]
 8003164:	6855      	ldr	r5, [r2, #4]
 8003166:	f8da 1048 	ldr.w	r1, [sl, #72]	; 0x48
 800316a:	4c34      	ldr	r4, [pc, #208]	; (800323c <main+0x7bc>)
 800316c:	223d      	movs	r2, #61	; 0x3d
 800316e:	fa02 f20c 	lsl.w	r2, r2, ip
 8003172:	602a      	str	r2, [r5, #0]
 8003174:	2221      	movs	r2, #33	; 0x21
 8003176:	6018      	str	r0, [r3, #0]
 8003178:	3180      	adds	r1, #128	; 0x80
 800317a:	615a      	str	r2, [r3, #20]
 800317c:	f44f 3000 	mov.w	r0, #131072	; 0x20000
 8003180:	4a2d      	ldr	r2, [pc, #180]	; (8003238 <main+0x7b8>)
 8003182:	6099      	str	r1, [r3, #8]
 8003184:	f04f 0c07 	mov.w	ip, #7
 8003188:	2590      	movs	r5, #144	; 0x90
 800318a:	f8c3 c014 	str.w	ip, [r3, #20]
 800318e:	f884 5331 	strb.w	r5, [r4, #817]	; 0x331
 8003192:	f8c4 0184 	str.w	r0, [r4, #388]	; 0x184
 8003196:	6060      	str	r0, [r4, #4]
 8003198:	6c53      	ldr	r3, [r2, #68]	; 0x44
 800319a:	f443 6300 	orr.w	r3, r3, #2048	; 0x800
 800319e:	6453      	str	r3, [r2, #68]	; 0x44
 80031a0:	e75d      	b.n	800305e <main+0x5de>
 80031a2:	b672      	cpsid	i
 80031a4:	4b2e      	ldr	r3, [pc, #184]	; (8003260 <main+0x7e0>)
 80031a6:	62fb      	str	r3, [r7, #44]	; 0x2c
 80031a8:	e7fe      	b.n	80031a8 <main+0x728>
 80031aa:	b672      	cpsid	i
 80031ac:	4b2d      	ldr	r3, [pc, #180]	; (8003264 <main+0x7e4>)
 80031ae:	62fb      	str	r3, [r7, #44]	; 0x2c
 80031b0:	e7fe      	b.n	80031b0 <main+0x730>
 80031b2:	f640 028b 	movw	r2, #2187	; 0x88b
 80031b6:	609a      	str	r2, [r3, #8]
 80031b8:	e71b      	b.n	8002ff2 <main+0x572>
 80031ba:	b672      	cpsid	i
 80031bc:	4b2a      	ldr	r3, [pc, #168]	; (8003268 <main+0x7e8>)
 80031be:	62fb      	str	r3, [r7, #44]	; 0x2c
 80031c0:	e7fe      	b.n	80031c0 <main+0x740>
 80031c2:	b672      	cpsid	i
 80031c4:	4b29      	ldr	r3, [pc, #164]	; (800326c <main+0x7ec>)
 80031c6:	62fb      	str	r3, [r7, #44]	; 0x2c
 80031c8:	e7fe      	b.n	80031c8 <main+0x748>
 80031ca:	2320      	movs	r3, #32
 80031cc:	f383 8811 	msr	BASEPRI, r3
 80031d0:	f7fe fe96 	bl	8001f00 <_stats_start_measure_crit_thd>
 80031d4:	f7fe ff0c 	bl	8001ff0 <_dbg_check_lock>
 80031d8:	4640      	mov	r0, r8
 80031da:	f7fe f949 	bl	8001470 <chMtxLockS>
 80031de:	f7fe fed7 	bl	8001f90 <_dbg_check_unlock>
 80031e2:	f7fe fe85 	bl	8001ef0 <_stats_stop_measure_crit_thd>
 80031e6:	683b      	ldr	r3, [r7, #0]
 80031e8:	42bb      	cmp	r3, r7
 80031ea:	d005      	beq.n	80031f8 <main+0x778>
 80031ec:	69ba      	ldr	r2, [r7, #24]
 80031ee:	689b      	ldr	r3, [r3, #8]
 80031f0:	6892      	ldr	r2, [r2, #8]
 80031f2:	429a      	cmp	r2, r3
 80031f4:	f0c0 816c 	bcc.w	80034d0 <main+0xa50>
 80031f8:	f384 8811 	msr	BASEPRI, r4
 80031fc:	4a1c      	ldr	r2, [pc, #112]	; (8003270 <main+0x7f0>)
 80031fe:	f640 01e7 	movw	r1, #2279	; 0x8e7
 8003202:	6815      	ldr	r5, [r2, #0]
 8003204:	2d00      	cmp	r5, #0
 8003206:	f000 8108 	beq.w	800341a <main+0x99a>
 800320a:	686b      	ldr	r3, [r5, #4]
 800320c:	428b      	cmp	r3, r1
 800320e:	f200 80ee 	bhi.w	80033ee <main+0x96e>
 8003212:	462a      	mov	r2, r5
 8003214:	e7f5      	b.n	8003202 <main+0x782>
 8003216:	bf00      	nop
 8003218:	08005100 	.word	0x08005100
 800321c:	08004c10 	.word	0x08004c10
 8003220:	2000542c 	.word	0x2000542c
 8003224:	080006e1 	.word	0x080006e1
 8003228:	08000291 	.word	0x08000291
 800322c:	20005700 	.word	0x20005700
 8003230:	08005108 	.word	0x08005108
 8003234:	08004950 	.word	0x08004950
 8003238:	40023800 	.word	0x40023800
 800323c:	e000e100 	.word	0xe000e100
 8003240:	40011000 	.word	0x40011000
 8003244:	080049b0 	.word	0x080049b0
 8003248:	08005140 	.word	0x08005140
 800324c:	08a35420 	.word	0x08a35420
 8003250:	20005908 	.word	0x20005908
 8003254:	20005a4c 	.word	0x20005a4c
 8003258:	08003521 	.word	0x08003521
 800325c:	200054f0 	.word	0x200054f0
 8003260:	08004980 	.word	0x08004980
 8003264:	08004960 	.word	0x08004960
 8003268:	08004790 	.word	0x08004790
 800326c:	080047d0 	.word	0x080047d0
 8003270:	20005458 	.word	0x20005458
 8003274:	20005460 	.word	0x20005460
 8003278:	2320      	movs	r3, #32
 800327a:	f383 8811 	msr	BASEPRI, r3
 800327e:	f7fe fe3f 	bl	8001f00 <_stats_start_measure_crit_thd>
 8003282:	f7fe feb5 	bl	8001ff0 <_dbg_check_lock>
 8003286:	f895 3022 	ldrb.w	r3, [r5, #34]	; 0x22
 800328a:	b1e3      	cbz	r3, 80032c6 <main+0x846>
 800328c:	3b01      	subs	r3, #1
 800328e:	fa5f fa83 	uxtb.w	sl, r3
 8003292:	f885 a022 	strb.w	sl, [r5, #34]	; 0x22
 8003296:	f7fe fe7b 	bl	8001f90 <_dbg_check_unlock>
 800329a:	f7fe fe29 	bl	8001ef0 <_stats_stop_measure_crit_thd>
 800329e:	683b      	ldr	r3, [r7, #0]
 80032a0:	42bb      	cmp	r3, r7
 80032a2:	d005      	beq.n	80032b0 <main+0x830>
 80032a4:	69ba      	ldr	r2, [r7, #24]
 80032a6:	689b      	ldr	r3, [r3, #8]
 80032a8:	6892      	ldr	r2, [r2, #8]
 80032aa:	429a      	cmp	r2, r3
 80032ac:	f0c0 8114 	bcc.w	80034d8 <main+0xa58>
 80032b0:	f384 8811 	msr	BASEPRI, r4
 80032b4:	f1ba 0f00 	cmp.w	sl, #0
 80032b8:	d103      	bne.n	80032c2 <main+0x842>
 80032ba:	f895 3020 	ldrb.w	r3, [r5, #32]
 80032be:	2b0f      	cmp	r3, #15
 80032c0:	d005      	beq.n	80032ce <main+0x84e>
 80032c2:	2500      	movs	r5, #0
 80032c4:	e71b      	b.n	80030fe <main+0x67e>
 80032c6:	b672      	cpsid	i
 80032c8:	4b8b      	ldr	r3, [pc, #556]	; (80034f8 <main+0xa78>)
 80032ca:	62fb      	str	r3, [r7, #44]	; 0x2c
 80032cc:	e7fe      	b.n	80032cc <main+0x84c>
 80032ce:	f895 3021 	ldrb.w	r3, [r5, #33]	; 0x21
 80032d2:	f003 0303 	and.w	r3, r3, #3
 80032d6:	2b01      	cmp	r3, #1
 80032d8:	d02b      	beq.n	8003332 <main+0x8b2>
 80032da:	2b02      	cmp	r3, #2
 80032dc:	d127      	bne.n	800332e <main+0x8ae>
 80032de:	e9d5 2304 	ldrd	r2, r3, [r5, #16]
 80032e2:	611a      	str	r2, [r3, #16]
 80032e4:	692a      	ldr	r2, [r5, #16]
 80032e6:	6c69      	ldr	r1, [r5, #68]	; 0x44
 80032e8:	6153      	str	r3, [r2, #20]
 80032ea:	2320      	movs	r3, #32
 80032ec:	f383 8811 	msr	BASEPRI, r3
 80032f0:	f7fe fe06 	bl	8001f00 <_stats_start_measure_crit_thd>
 80032f4:	f7fe fe7c 	bl	8001ff0 <_dbg_check_lock>
 80032f8:	f7fd fc5a 	bl	8000bb0 <chDbgCheckClassI>
 80032fc:	b199      	cbz	r1, 8003326 <main+0x8a6>
 80032fe:	680b      	ldr	r3, [r1, #0]
 8003300:	602b      	str	r3, [r5, #0]
 8003302:	600d      	str	r5, [r1, #0]
 8003304:	f7fe fe44 	bl	8001f90 <_dbg_check_unlock>
 8003308:	f7fe fdf2 	bl	8001ef0 <_stats_stop_measure_crit_thd>
 800330c:	683b      	ldr	r3, [r7, #0]
 800330e:	42bb      	cmp	r3, r7
 8003310:	d005      	beq.n	800331e <main+0x89e>
 8003312:	69ba      	ldr	r2, [r7, #24]
 8003314:	689b      	ldr	r3, [r3, #8]
 8003316:	6892      	ldr	r2, [r2, #8]
 8003318:	429a      	cmp	r2, r3
 800331a:	f0c0 80e1 	bcc.w	80034e0 <main+0xa60>
 800331e:	f384 8811 	msr	BASEPRI, r4
 8003322:	2500      	movs	r5, #0
 8003324:	e6eb      	b.n	80030fe <main+0x67e>
 8003326:	b672      	cpsid	i
 8003328:	4b74      	ldr	r3, [pc, #464]	; (80034fc <main+0xa7c>)
 800332a:	62fb      	str	r3, [r7, #44]	; 0x2c
 800332c:	e7fe      	b.n	800332c <main+0x8ac>
 800332e:	4655      	mov	r5, sl
 8003330:	e6e5      	b.n	80030fe <main+0x67e>
 8003332:	e9d5 3204 	ldrd	r3, r2, [r5, #16]
 8003336:	6113      	str	r3, [r2, #16]
 8003338:	6929      	ldr	r1, [r5, #16]
 800333a:	f855 3c08 	ldr.w	r3, [r5, #-8]
 800333e:	614a      	str	r2, [r1, #20]
 8003340:	f103 0108 	add.w	r1, r3, #8
 8003344:	f103 0a10 	add.w	sl, r3, #16
 8003348:	9100      	str	r1, [sp, #0]
 800334a:	f1a5 0b08 	sub.w	fp, r5, #8
 800334e:	2320      	movs	r3, #32
 8003350:	f383 8811 	msr	BASEPRI, r3
 8003354:	f7fe fdd4 	bl	8001f00 <_stats_start_measure_crit_thd>
 8003358:	f7fe fe4a 	bl	8001ff0 <_dbg_check_lock>
 800335c:	4650      	mov	r0, sl
 800335e:	f7fe f887 	bl	8001470 <chMtxLockS>
 8003362:	f7fe fe15 	bl	8001f90 <_dbg_check_unlock>
 8003366:	f7fe fdc3 	bl	8001ef0 <_stats_stop_measure_crit_thd>
 800336a:	683a      	ldr	r2, [r7, #0]
 800336c:	9900      	ldr	r1, [sp, #0]
 800336e:	42ba      	cmp	r2, r7
 8003370:	d005      	beq.n	800337e <main+0x8fe>
 8003372:	69bb      	ldr	r3, [r7, #24]
 8003374:	6892      	ldr	r2, [r2, #8]
 8003376:	689b      	ldr	r3, [r3, #8]
 8003378:	4293      	cmp	r3, r2
 800337a:	f0c0 80b9 	bcc.w	80034f0 <main+0xa70>
 800337e:	f384 8811 	msr	BASEPRI, r4
 8003382:	460b      	mov	r3, r1
 8003384:	459b      	cmp	fp, r3
 8003386:	d305      	bcc.n	8003394 <main+0x914>
 8003388:	685a      	ldr	r2, [r3, #4]
 800338a:	3208      	adds	r2, #8
 800338c:	441a      	add	r2, r3
 800338e:	4593      	cmp	fp, r2
 8003390:	f0c0 80aa 	bcc.w	80034e8 <main+0xa68>
 8003394:	4299      	cmp	r1, r3
 8003396:	681a      	ldr	r2, [r3, #0]
 8003398:	d001      	beq.n	800339e <main+0x91e>
 800339a:	459b      	cmp	fp, r3
 800339c:	d902      	bls.n	80033a4 <main+0x924>
 800339e:	b11a      	cbz	r2, 80033a8 <main+0x928>
 80033a0:	4593      	cmp	fp, r2
 80033a2:	d301      	bcc.n	80033a8 <main+0x928>
 80033a4:	4613      	mov	r3, r2
 80033a6:	e7ed      	b.n	8003384 <main+0x904>
 80033a8:	f845 2c08 	str.w	r2, [r5, #-8]
 80033ac:	f855 2c04 	ldr.w	r2, [r5, #-4]
 80033b0:	f8c3 b000 	str.w	fp, [r3]
 80033b4:	f855 1c08 	ldr.w	r1, [r5, #-8]
 80033b8:	18a8      	adds	r0, r5, r2
 80033ba:	4288      	cmp	r0, r1
 80033bc:	d107      	bne.n	80033ce <main+0x94e>
 80033be:	6840      	ldr	r0, [r0, #4]
 80033c0:	58a9      	ldr	r1, [r5, r2]
 80033c2:	f845 1c08 	str.w	r1, [r5, #-8]
 80033c6:	3208      	adds	r2, #8
 80033c8:	4402      	add	r2, r0
 80033ca:	f845 2c04 	str.w	r2, [r5, #-4]
 80033ce:	6859      	ldr	r1, [r3, #4]
 80033d0:	f101 0208 	add.w	r2, r1, #8
 80033d4:	441a      	add	r2, r3
 80033d6:	4593      	cmp	fp, r2
 80033d8:	d105      	bne.n	80033e6 <main+0x966>
 80033da:	e955 0202 	ldrd	r0, r2, [r5, #-8]
 80033de:	3208      	adds	r2, #8
 80033e0:	440a      	add	r2, r1
 80033e2:	6018      	str	r0, [r3, #0]
 80033e4:	605a      	str	r2, [r3, #4]
 80033e6:	4650      	mov	r0, sl
 80033e8:	f7ff faaa 	bl	8002940 <chMtxUnlock>
 80033ec:	e769      	b.n	80032c2 <main+0x842>
 80033ee:	f5b3 6f0f 	cmp.w	r3, #2288	; 0x8f0
 80033f2:	6828      	ldr	r0, [r5, #0]
 80033f4:	d22e      	bcs.n	8003454 <main+0x9d4>
 80033f6:	6010      	str	r0, [r2, #0]
 80033f8:	4640      	mov	r0, r8
 80033fa:	f845 9b08 	str.w	r9, [r5], #8
 80033fe:	f7ff fa9f 	bl	8002940 <chMtxUnlock>
 8003402:	2d00      	cmp	r5, #0
 8003404:	f43f af5d 	beq.w	80032c2 <main+0x842>
 8003408:	f105 0160 	add.w	r1, r5, #96	; 0x60
 800340c:	462b      	mov	r3, r5
 800340e:	22ff      	movs	r2, #255	; 0xff
 8003410:	4299      	cmp	r1, r3
 8003412:	d017      	beq.n	8003444 <main+0x9c4>
 8003414:	f803 2b01 	strb.w	r2, [r3], #1
 8003418:	e7fa      	b.n	8003410 <main+0x990>
 800341a:	4640      	mov	r0, r8
 800341c:	f7ff fa90 	bl	8002940 <chMtxUnlock>
 8003420:	f8d9 3000 	ldr.w	r3, [r9]
 8003424:	2b00      	cmp	r3, #0
 8003426:	f43f af4c 	beq.w	80032c2 <main+0x842>
 800342a:	f44f 600f 	mov.w	r0, #2288	; 0x8f0
 800342e:	4798      	blx	r3
 8003430:	2800      	cmp	r0, #0
 8003432:	f43f af46 	beq.w	80032c2 <main+0x842>
 8003436:	f640 03e8 	movw	r3, #2280	; 0x8e8
 800343a:	e9c0 9300 	strd	r9, r3, [r0]
 800343e:	f100 0508 	add.w	r5, r0, #8
 8003442:	e7de      	b.n	8003402 <main+0x982>
 8003444:	f605 01e8 	addw	r1, r5, #2280	; 0x8e8
 8003448:	2255      	movs	r2, #85	; 0x55
 800344a:	4299      	cmp	r1, r3
 800344c:	d00f      	beq.n	800346e <main+0x9ee>
 800344e:	f803 2b01 	strb.w	r2, [r3], #1
 8003452:	e7fa      	b.n	800344a <main+0x9ca>
 8003454:	f8c5 08f0 	str.w	r0, [r5, #2288]	; 0x8f0
 8003458:	f505 610f 	add.w	r1, r5, #2288	; 0x8f0
 800345c:	f5a3 630f 	sub.w	r3, r3, #2288	; 0x8f0
 8003460:	f640 00e8 	movw	r0, #2280	; 0x8e8
 8003464:	f8c5 38f4 	str.w	r3, [r5, #2292]	; 0x8f4
 8003468:	6011      	str	r1, [r2, #0]
 800346a:	6068      	str	r0, [r5, #4]
 800346c:	e7c4      	b.n	80033f8 <main+0x978>
 800346e:	2320      	movs	r3, #32
 8003470:	f383 8811 	msr	BASEPRI, r3
 8003474:	f7fe fd44 	bl	8001f00 <_stats_start_measure_crit_thd>
 8003478:	f7fe fdba 	bl	8001ff0 <_dbg_check_lock>
 800347c:	f7fd fb98 	bl	8000bb0 <chDbgCheckClassI>
 8003480:	4a1f      	ldr	r2, [pc, #124]	; (8003500 <main+0xa80>)
 8003482:	f8c5 28c4 	str.w	r2, [r5, #2244]	; 0x8c4
 8003486:	f605 03c4 	addw	r3, r5, #2244	; 0x8c4
 800348a:	4a1e      	ldr	r2, [pc, #120]	; (8003504 <main+0xa84>)
 800348c:	f8c5 28c8 	str.w	r2, [r5, #2248]	; 0x8c8
 8003490:	2140      	movs	r1, #64	; 0x40
 8003492:	60eb      	str	r3, [r5, #12]
 8003494:	f8c5 68e4 	str.w	r6, [r5, #2276]	; 0x8e4
 8003498:	4628      	mov	r0, r5
 800349a:	f7fd fb29 	bl	8000af0 <_thread_init>
 800349e:	2301      	movs	r3, #1
 80034a0:	f880 3021 	strb.w	r3, [r0, #33]	; 0x21
 80034a4:	4605      	mov	r5, r0
 80034a6:	f7fd ff73 	bl	8001390 <chSchWakeupS.constprop.32>
 80034aa:	f7fe fd71 	bl	8001f90 <_dbg_check_unlock>
 80034ae:	f7fe fd1f 	bl	8001ef0 <_stats_stop_measure_crit_thd>
 80034b2:	683b      	ldr	r3, [r7, #0]
 80034b4:	42bb      	cmp	r3, r7
 80034b6:	d004      	beq.n	80034c2 <main+0xa42>
 80034b8:	69ba      	ldr	r2, [r7, #24]
 80034ba:	689b      	ldr	r3, [r3, #8]
 80034bc:	6892      	ldr	r2, [r2, #8]
 80034be:	429a      	cmp	r2, r3
 80034c0:	d302      	bcc.n	80034c8 <main+0xa48>
 80034c2:	f384 8811 	msr	BASEPRI, r4
 80034c6:	e61a      	b.n	80030fe <main+0x67e>
 80034c8:	b672      	cpsid	i
 80034ca:	4b0f      	ldr	r3, [pc, #60]	; (8003508 <main+0xa88>)
 80034cc:	62fb      	str	r3, [r7, #44]	; 0x2c
 80034ce:	e7fe      	b.n	80034ce <main+0xa4e>
 80034d0:	b672      	cpsid	i
 80034d2:	4b0e      	ldr	r3, [pc, #56]	; (800350c <main+0xa8c>)
 80034d4:	62fb      	str	r3, [r7, #44]	; 0x2c
 80034d6:	e7fe      	b.n	80034d6 <main+0xa56>
 80034d8:	b672      	cpsid	i
 80034da:	4b0b      	ldr	r3, [pc, #44]	; (8003508 <main+0xa88>)
 80034dc:	62fb      	str	r3, [r7, #44]	; 0x2c
 80034de:	e7fe      	b.n	80034de <main+0xa5e>
 80034e0:	b672      	cpsid	i
 80034e2:	4b0b      	ldr	r3, [pc, #44]	; (8003510 <main+0xa90>)
 80034e4:	62fb      	str	r3, [r7, #44]	; 0x2c
 80034e6:	e7fe      	b.n	80034e6 <main+0xa66>
 80034e8:	b672      	cpsid	i
 80034ea:	4b0a      	ldr	r3, [pc, #40]	; (8003514 <main+0xa94>)
 80034ec:	62fb      	str	r3, [r7, #44]	; 0x2c
 80034ee:	e7fe      	b.n	80034ee <main+0xa6e>
 80034f0:	b672      	cpsid	i
 80034f2:	4b06      	ldr	r3, [pc, #24]	; (800350c <main+0xa8c>)
 80034f4:	62fb      	str	r3, [r7, #44]	; 0x2c
 80034f6:	e7fe      	b.n	80034f6 <main+0xa76>
 80034f8:	08004820 	.word	0x08004820
 80034fc:	08004880 	.word	0x08004880
 8003500:	08002081 	.word	0x08002081
 8003504:	08005150 	.word	0x08005150
 8003508:	08004740 	.word	0x08004740
 800350c:	08004750 	.word	0x08004750
 8003510:	08004780 	.word	0x08004780
 8003514:	08004850 	.word	0x08004850
	...

08003520 <Thread1>:
 8003520:	b508      	push	{r3, lr}
 8003522:	4b09      	ldr	r3, [pc, #36]	; (8003548 <Thread1+0x28>)
 8003524:	4a09      	ldr	r2, [pc, #36]	; (800354c <Thread1+0x2c>)
 8003526:	699b      	ldr	r3, [r3, #24]
 8003528:	4c09      	ldr	r4, [pc, #36]	; (8003550 <Thread1+0x30>)
 800352a:	619a      	str	r2, [r3, #24]
 800352c:	f44f 5500 	mov.w	r5, #8192	; 0x2000
 8003530:	462e      	mov	r6, r5
 8003532:	8326      	strh	r6, [r4, #24]
 8003534:	f241 3088 	movw	r0, #5000	; 0x1388
 8003538:	f7ff fa7a 	bl	8002a30 <chThdSleep>
 800353c:	8365      	strh	r5, [r4, #26]
 800353e:	f241 3088 	movw	r0, #5000	; 0x1388
 8003542:	f7ff fa75 	bl	8002a30 <chThdSleep>
 8003546:	e7f4      	b.n	8003532 <Thread1+0x12>
 8003548:	20004e78 	.word	0x20004e78
 800354c:	08004720 	.word	0x08004720
 8003550:	40020800 	.word	0x40020800
	...

08003560 <_sdc_wait_for_transfer_state>:
 8003560:	b530      	push	{r4, r5, lr}
 8003562:	4d0e      	ldr	r5, [pc, #56]	; (800359c <_sdc_wait_for_transfer_state+0x3c>)
 8003564:	b083      	sub	sp, #12
 8003566:	4604      	mov	r4, r0
 8003568:	ab01      	add	r3, sp, #4
 800356a:	6ba2      	ldr	r2, [r4, #56]	; 0x38
 800356c:	210d      	movs	r1, #13
 800356e:	4620      	mov	r0, r4
 8003570:	f7fd f926 	bl	80007c0 <sdc_lld_send_cmd_short_crc>
 8003574:	b978      	cbnz	r0, 8003596 <_sdc_wait_for_transfer_state+0x36>
 8003576:	9b01      	ldr	r3, [sp, #4]
 8003578:	422b      	tst	r3, r5
 800357a:	f3c3 2243 	ubfx	r2, r3, #9, #4
 800357e:	d109      	bne.n	8003594 <_sdc_wait_for_transfer_state+0x34>
 8003580:	2a04      	cmp	r2, #4
 8003582:	d008      	beq.n	8003596 <_sdc_wait_for_transfer_state+0x36>
 8003584:	f04f 000a 	mov.w	r0, #10
 8003588:	d304      	bcc.n	8003594 <_sdc_wait_for_transfer_state+0x34>
 800358a:	2a07      	cmp	r2, #7
 800358c:	d802      	bhi.n	8003594 <_sdc_wait_for_transfer_state+0x34>
 800358e:	f7ff fa4f 	bl	8002a30 <chThdSleep>
 8003592:	e7e9      	b.n	8003568 <_sdc_wait_for_transfer_state+0x8>
 8003594:	2001      	movs	r0, #1
 8003596:	b003      	add	sp, #12
 8003598:	bd30      	pop	{r4, r5, pc}
 800359a:	bf00      	nop
 800359c:	fdffe008 	.word	0xfdffe008

080035a0 <sdcErase.constprop.9>:
 80035a0:	b570      	push	{r4, r5, r6, lr}
 80035a2:	4c24      	ldr	r4, [pc, #144]	; (8003634 <sdcErase.constprop.9+0x94>)
 80035a4:	7923      	ldrb	r3, [r4, #4]
 80035a6:	2b05      	cmp	r3, #5
 80035a8:	b082      	sub	sp, #8
 80035aa:	d004      	beq.n	80035b6 <sdcErase.constprop.9+0x16>
 80035ac:	b672      	cpsid	i
 80035ae:	4b22      	ldr	r3, [pc, #136]	; (8003638 <sdcErase.constprop.9+0x98>)
 80035b0:	4a22      	ldr	r2, [pc, #136]	; (800363c <sdcErase.constprop.9+0x9c>)
 80035b2:	62da      	str	r2, [r3, #44]	; 0x2c
 80035b4:	e7fe      	b.n	80035b4 <sdcErase.constprop.9+0x14>
 80035b6:	6b23      	ldr	r3, [r4, #48]	; 0x30
 80035b8:	06db      	lsls	r3, r3, #27
 80035ba:	4605      	mov	r5, r0
 80035bc:	f04f 0207 	mov.w	r2, #7
 80035c0:	bf48      	it	mi
 80035c2:	0245      	lslmi	r5, r0, #9
 80035c4:	481b      	ldr	r0, [pc, #108]	; (8003634 <sdcErase.constprop.9+0x94>)
 80035c6:	7122      	strb	r2, [r4, #4]
 80035c8:	460e      	mov	r6, r1
 80035ca:	bf48      	it	mi
 80035cc:	024e      	lslmi	r6, r1, #9
 80035ce:	f7ff ffc7 	bl	8003560 <_sdc_wait_for_transfer_state>
 80035d2:	b120      	cbz	r0, 80035de <sdcErase.constprop.9+0x3e>
 80035d4:	2305      	movs	r3, #5
 80035d6:	7123      	strb	r3, [r4, #4]
 80035d8:	2001      	movs	r0, #1
 80035da:	b002      	add	sp, #8
 80035dc:	bd70      	pop	{r4, r5, r6, pc}
 80035de:	462a      	mov	r2, r5
 80035e0:	ab01      	add	r3, sp, #4
 80035e2:	2120      	movs	r1, #32
 80035e4:	4813      	ldr	r0, [pc, #76]	; (8003634 <sdcErase.constprop.9+0x94>)
 80035e6:	f7fd f8eb 	bl	80007c0 <sdc_lld_send_cmd_short_crc>
 80035ea:	2800      	cmp	r0, #0
 80035ec:	d1f2      	bne.n	80035d4 <sdcErase.constprop.9+0x34>
 80035ee:	9b01      	ldr	r3, [sp, #4]
 80035f0:	4d13      	ldr	r5, [pc, #76]	; (8003640 <sdcErase.constprop.9+0xa0>)
 80035f2:	422b      	tst	r3, r5
 80035f4:	d1ee      	bne.n	80035d4 <sdcErase.constprop.9+0x34>
 80035f6:	4632      	mov	r2, r6
 80035f8:	ab01      	add	r3, sp, #4
 80035fa:	2121      	movs	r1, #33	; 0x21
 80035fc:	480d      	ldr	r0, [pc, #52]	; (8003634 <sdcErase.constprop.9+0x94>)
 80035fe:	f7fd f8df 	bl	80007c0 <sdc_lld_send_cmd_short_crc>
 8003602:	2800      	cmp	r0, #0
 8003604:	d1e6      	bne.n	80035d4 <sdcErase.constprop.9+0x34>
 8003606:	9b01      	ldr	r3, [sp, #4]
 8003608:	ea13 0205 	ands.w	r2, r3, r5
 800360c:	d1e2      	bne.n	80035d4 <sdcErase.constprop.9+0x34>
 800360e:	ab01      	add	r3, sp, #4
 8003610:	2126      	movs	r1, #38	; 0x26
 8003612:	4808      	ldr	r0, [pc, #32]	; (8003634 <sdcErase.constprop.9+0x94>)
 8003614:	f7fd f8d4 	bl	80007c0 <sdc_lld_send_cmd_short_crc>
 8003618:	2800      	cmp	r0, #0
 800361a:	d1db      	bne.n	80035d4 <sdcErase.constprop.9+0x34>
 800361c:	9b01      	ldr	r3, [sp, #4]
 800361e:	422b      	tst	r3, r5
 8003620:	d1d8      	bne.n	80035d4 <sdcErase.constprop.9+0x34>
 8003622:	4804      	ldr	r0, [pc, #16]	; (8003634 <sdcErase.constprop.9+0x94>)
 8003624:	f7ff ff9c 	bl	8003560 <_sdc_wait_for_transfer_state>
 8003628:	2800      	cmp	r0, #0
 800362a:	d1d3      	bne.n	80035d4 <sdcErase.constprop.9+0x34>
 800362c:	2305      	movs	r3, #5
 800362e:	7123      	strb	r3, [r4, #4]
 8003630:	e7d3      	b.n	80035da <sdcErase.constprop.9+0x3a>
 8003632:	bf00      	nop
 8003634:	20000e28 	.word	0x20000e28
 8003638:	20004e78 	.word	0x20004e78
 800363c:	08004a80 	.word	0x08004a80
 8003640:	fdffe008 	.word	0xfdffe008
	...

08003650 <sdc_lld_read_special>:
 8003650:	e92d 41f0 	stmdb	sp!, {r4, r5, r6, r7, r8, lr}
 8003654:	6c85      	ldr	r5, [r0, #72]	; 0x48
 8003656:	4e1f      	ldr	r6, [pc, #124]	; (80036d4 <sdc_lld_read_special+0x84>)
 8003658:	626e      	str	r6, [r5, #36]	; 0x24
 800365a:	b082      	sub	sp, #8
 800365c:	4604      	mov	r4, r0
 800365e:	460d      	mov	r5, r1
 8003660:	4617      	mov	r7, r2
 8003662:	4698      	mov	r8, r3
 8003664:	f7ff ff7c 	bl	8003560 <_sdc_wait_for_transfer_state>
 8003668:	bb50      	cbnz	r0, 80036c0 <sdc_lld_read_special+0x70>
 800366a:	e9d4 3210 	ldrd	r3, r2, [r4, #64]	; 0x40
 800366e:	6810      	ldr	r0, [r2, #0]
 8003670:	6ca6      	ldr	r6, [r4, #72]	; 0x48
 8003672:	60c5      	str	r5, [r0, #12]
 8003674:	08ba      	lsrs	r2, r7, #2
 8003676:	6042      	str	r2, [r0, #4]
 8003678:	6003      	str	r3, [r0, #0]
 800367a:	6805      	ldr	r5, [r0, #0]
 800367c:	f8df c05c 	ldr.w	ip, [pc, #92]	; 80036dc <sdc_lld_read_special+0x8c>
 8003680:	f045 0501 	orr.w	r5, r5, #1
 8003684:	6005      	str	r5, [r0, #0]
 8003686:	f240 332a 	movw	r3, #810	; 0x32a
 800368a:	220f      	movs	r2, #15
 800368c:	ad01      	add	r5, sp, #4
 800368e:	f8c6 c038 	str.w	ip, [r6, #56]	; 0x38
 8003692:	4641      	mov	r1, r8
 8003694:	63f3      	str	r3, [r6, #60]	; 0x3c
 8003696:	4620      	mov	r0, r4
 8003698:	62b7      	str	r7, [r6, #40]	; 0x28
 800369a:	462b      	mov	r3, r5
 800369c:	62f2      	str	r2, [r6, #44]	; 0x2c
 800369e:	9a08      	ldr	r2, [sp, #32]
 80036a0:	f7fd f88e 	bl	80007c0 <sdc_lld_send_cmd_short_crc>
 80036a4:	b918      	cbnz	r0, 80036ae <sdc_lld_read_special+0x5e>
 80036a6:	9a01      	ldr	r2, [sp, #4]
 80036a8:	4b0b      	ldr	r3, [pc, #44]	; (80036d8 <sdc_lld_read_special+0x88>)
 80036aa:	4013      	ands	r3, r2
 80036ac:	b153      	cbz	r3, 80036c4 <sdc_lld_read_special+0x74>
 80036ae:	4620      	mov	r0, r4
 80036b0:	462a      	mov	r2, r5
 80036b2:	2101      	movs	r1, #1
 80036b4:	f7fd f89c 	bl	80007f0 <sdc_lld_error_cleanup>
 80036b8:	2001      	movs	r0, #1
 80036ba:	b002      	add	sp, #8
 80036bc:	e8bd 81f0 	ldmia.w	sp!, {r4, r5, r6, r7, r8, pc}
 80036c0:	ad01      	add	r5, sp, #4
 80036c2:	e7f4      	b.n	80036ae <sdc_lld_read_special+0x5e>
 80036c4:	462a      	mov	r2, r5
 80036c6:	2101      	movs	r1, #1
 80036c8:	4620      	mov	r0, r4
 80036ca:	f7fe fe39 	bl	8002340 <sdc_lld_wait_transaction_end>
 80036ce:	2800      	cmp	r0, #0
 80036d0:	d1ed      	bne.n	80036ae <sdc_lld_read_special+0x5e>
 80036d2:	e7f2      	b.n	80036ba <sdc_lld_read_special+0x6a>
 80036d4:	000927c0 	.word	0x000927c0
 80036d8:	fdffe008 	.word	0xfdffe008
 80036dc:	00c007ff 	.word	0x00c007ff

080036e0 <sdcConnect>:
 80036e0:	2800      	cmp	r0, #0
 80036e2:	d077      	beq.n	80037d4 <sdcConnect+0xf4>
 80036e4:	7903      	ldrb	r3, [r0, #4]
 80036e6:	2b02      	cmp	r3, #2
 80036e8:	d001      	beq.n	80036ee <sdcConnect+0xe>
 80036ea:	2b05      	cmp	r3, #5
 80036ec:	d167      	bne.n	80037be <sdcConnect+0xde>
 80036ee:	e92d 43f0 	stmdb	sp!, {r4, r5, r6, r7, r8, r9, lr}
 80036f2:	b085      	sub	sp, #20
 80036f4:	6c83      	ldr	r3, [r0, #72]	; 0x48
 80036f6:	2103      	movs	r1, #3
 80036f8:	2278      	movs	r2, #120	; 0x78
 80036fa:	7101      	strb	r1, [r0, #4]
 80036fc:	605a      	str	r2, [r3, #4]
 80036fe:	681a      	ldr	r2, [r3, #0]
 8003700:	430a      	orrs	r2, r1
 8003702:	601a      	str	r2, [r3, #0]
 8003704:	685a      	ldr	r2, [r3, #4]
 8003706:	4604      	mov	r4, r0
 8003708:	f442 7280 	orr.w	r2, r2, #256	; 0x100
 800370c:	605a      	str	r2, [r3, #4]
 800370e:	af02      	add	r7, sp, #8
 8003710:	2064      	movs	r0, #100	; 0x64
 8003712:	f7ff f98d 	bl	8002a30 <chThdSleep>
 8003716:	6ca3      	ldr	r3, [r4, #72]	; 0x48
 8003718:	2100      	movs	r1, #0
 800371a:	f44f 6280 	mov.w	r2, #1024	; 0x400
 800371e:	6099      	str	r1, [r3, #8]
 8003720:	60da      	str	r2, [r3, #12]
 8003722:	6b5a      	ldr	r2, [r3, #52]	; 0x34
 8003724:	0611      	lsls	r1, r2, #24
 8003726:	d5fc      	bpl.n	8003722 <sdcConnect+0x42>
 8003728:	2280      	movs	r2, #128	; 0x80
 800372a:	639a      	str	r2, [r3, #56]	; 0x38
 800372c:	2108      	movs	r1, #8
 800372e:	f44f 72d5 	mov.w	r2, #426	; 0x1aa
 8003732:	1d3b      	adds	r3, r7, #4
 8003734:	4620      	mov	r0, r4
 8003736:	f7fd f843 	bl	80007c0 <sdc_lld_send_cmd_short_crc>
 800373a:	4602      	mov	r2, r0
 800373c:	b998      	cbnz	r0, 8003766 <sdcConnect+0x86>
 800373e:	687b      	ldr	r3, [r7, #4]
 8003740:	2101      	movs	r1, #1
 8003742:	f3c3 2303 	ubfx	r3, r3, #8, #4
 8003746:	428b      	cmp	r3, r1
 8003748:	6321      	str	r1, [r4, #48]	; 0x30
 800374a:	f000 80bb 	beq.w	80038c4 <sdcConnect+0x1e4>
 800374e:	6ca5      	ldr	r5, [r4, #72]	; 0x48
 8003750:	2300      	movs	r3, #0
 8003752:	2202      	movs	r2, #2
 8003754:	606b      	str	r3, [r5, #4]
 8003756:	2601      	movs	r6, #1
 8003758:	602b      	str	r3, [r5, #0]
 800375a:	7122      	strb	r2, [r4, #4]
 800375c:	4630      	mov	r0, r6
 800375e:	370c      	adds	r7, #12
 8003760:	46bd      	mov	sp, r7
 8003762:	e8bd 83f0 	ldmia.w	sp!, {r4, r5, r6, r7, r8, r9, pc}
 8003766:	1d3b      	adds	r3, r7, #4
 8003768:	2200      	movs	r2, #0
 800376a:	2137      	movs	r1, #55	; 0x37
 800376c:	4620      	mov	r0, r4
 800376e:	f7fd f827 	bl	80007c0 <sdc_lld_send_cmd_short_crc>
 8003772:	2800      	cmp	r0, #0
 8003774:	f040 81a9 	bne.w	8003aca <sdcConnect+0x3ea>
 8003778:	687a      	ldr	r2, [r7, #4]
 800377a:	4bbd      	ldr	r3, [pc, #756]	; (8003a70 <sdcConnect+0x390>)
 800377c:	6ca5      	ldr	r5, [r4, #72]	; 0x48
 800377e:	4013      	ands	r3, r2
 8003780:	2b00      	cmp	r3, #0
 8003782:	f000 8196 	beq.w	8003ab2 <sdcConnect+0x3d2>
 8003786:	2302      	movs	r3, #2
 8003788:	6323      	str	r3, [r4, #48]	; 0x30
 800378a:	f8df 9308 	ldr.w	r9, [pc, #776]	; 8003a94 <sdcConnect+0x3b4>
 800378e:	2664      	movs	r6, #100	; 0x64
 8003790:	f240 4841 	movw	r8, #1089	; 0x441
 8003794:	f8c5 9008 	str.w	r9, [r5, #8]
 8003798:	f8c5 800c 	str.w	r8, [r5, #12]
 800379c:	6b69      	ldr	r1, [r5, #52]	; 0x34
 800379e:	f011 0345 	ands.w	r3, r1, #69	; 0x45
 80037a2:	d0fb      	beq.n	800379c <sdcConnect+0xbc>
 80037a4:	63ab      	str	r3, [r5, #56]	; 0x38
 80037a6:	074b      	lsls	r3, r1, #29
 80037a8:	d40e      	bmi.n	80037c8 <sdcConnect+0xe8>
 80037aa:	696b      	ldr	r3, [r5, #20]
 80037ac:	2b00      	cmp	r3, #0
 80037ae:	db16      	blt.n	80037de <sdcConnect+0xfe>
 80037b0:	3e01      	subs	r6, #1
 80037b2:	d0cd      	beq.n	8003750 <sdcConnect+0x70>
 80037b4:	2064      	movs	r0, #100	; 0x64
 80037b6:	f7ff f93b 	bl	8002a30 <chThdSleep>
 80037ba:	6ca5      	ldr	r5, [r4, #72]	; 0x48
 80037bc:	e7ea      	b.n	8003794 <sdcConnect+0xb4>
 80037be:	b672      	cpsid	i
 80037c0:	4bac      	ldr	r3, [pc, #688]	; (8003a74 <sdcConnect+0x394>)
 80037c2:	4aad      	ldr	r2, [pc, #692]	; (8003a78 <sdcConnect+0x398>)
 80037c4:	62da      	str	r2, [r3, #44]	; 0x2c
 80037c6:	e7fe      	b.n	80037c6 <sdcConnect+0xe6>
 80037c8:	f104 0034 	add.w	r0, r4, #52	; 0x34
 80037cc:	f7fc ffb8 	bl	8000740 <sdc_lld_collect_errors.isra.0>
 80037d0:	6ca5      	ldr	r5, [r4, #72]	; 0x48
 80037d2:	e7bd      	b.n	8003750 <sdcConnect+0x70>
 80037d4:	b672      	cpsid	i
 80037d6:	4ba7      	ldr	r3, [pc, #668]	; (8003a74 <sdcConnect+0x394>)
 80037d8:	4aa7      	ldr	r2, [pc, #668]	; (8003a78 <sdcConnect+0x398>)
 80037da:	62da      	str	r2, [r3, #44]	; 0x2c
 80037dc:	e7fe      	b.n	80037dc <sdcConnect+0xfc>
 80037de:	005a      	lsls	r2, r3, #1
 80037e0:	d503      	bpl.n	80037ea <sdcConnect+0x10a>
 80037e2:	6b23      	ldr	r3, [r4, #48]	; 0x30
 80037e4:	f043 0310 	orr.w	r3, r3, #16
 80037e8:	6323      	str	r3, [r4, #48]	; 0x30
 80037ea:	2200      	movs	r2, #0
 80037ec:	f104 0308 	add.w	r3, r4, #8
 80037f0:	2102      	movs	r1, #2
 80037f2:	4620      	mov	r0, r4
 80037f4:	f7fc ffc4 	bl	8000780 <sdc_lld_send_cmd_long_crc>
 80037f8:	4602      	mov	r2, r0
 80037fa:	2800      	cmp	r0, #0
 80037fc:	d1a7      	bne.n	800374e <sdcConnect+0x6e>
 80037fe:	f104 0338 	add.w	r3, r4, #56	; 0x38
 8003802:	2103      	movs	r1, #3
 8003804:	4620      	mov	r0, r4
 8003806:	f7fc ffdb 	bl	80007c0 <sdc_lld_send_cmd_short_crc>
 800380a:	2800      	cmp	r0, #0
 800380c:	d19f      	bne.n	800374e <sdcConnect+0x6e>
 800380e:	f104 0618 	add.w	r6, r4, #24
 8003812:	4633      	mov	r3, r6
 8003814:	6ba2      	ldr	r2, [r4, #56]	; 0x38
 8003816:	2109      	movs	r1, #9
 8003818:	4620      	mov	r0, r4
 800381a:	f7fc ffb1 	bl	8000780 <sdc_lld_send_cmd_long_crc>
 800381e:	2800      	cmp	r0, #0
 8003820:	d195      	bne.n	800374e <sdcConnect+0x6e>
 8003822:	463b      	mov	r3, r7
 8003824:	6ba2      	ldr	r2, [r4, #56]	; 0x38
 8003826:	2107      	movs	r1, #7
 8003828:	4620      	mov	r0, r4
 800382a:	f7fc ffc9 	bl	80007c0 <sdc_lld_send_cmd_short_crc>
 800382e:	4681      	mov	r9, r0
 8003830:	2800      	cmp	r0, #0
 8003832:	d18c      	bne.n	800374e <sdcConnect+0x6e>
 8003834:	6b23      	ldr	r3, [r4, #48]	; 0x30
 8003836:	f003 020f 	and.w	r2, r3, #15
 800383a:	2a02      	cmp	r2, #2
 800383c:	f000 812c 	beq.w	8003a98 <sdcConnect+0x3b8>
 8003840:	466d      	mov	r5, sp
 8003842:	227e      	movs	r2, #126	; 0x7e
 8003844:	b090      	sub	sp, #64	; 0x40
 8003846:	217f      	movs	r1, #127	; 0x7f
 8003848:	4630      	mov	r0, r6
 800384a:	f10d 0808 	add.w	r8, sp, #8
 800384e:	f7fd f82f 	bl	80008b0 <_mmcsd_get_slice>
 8003852:	2800      	cmp	r0, #0
 8003854:	f040 80f1 	bne.w	8003a3a <sdcConnect+0x35a>
 8003858:	6b23      	ldr	r3, [r4, #48]	; 0x30
 800385a:	46ad      	mov	sp, r5
 800385c:	6ca5      	ldr	r5, [r4, #72]	; 0x48
 800385e:	686a      	ldr	r2, [r5, #4]
 8003860:	f003 030f 	and.w	r3, r3, #15
 8003864:	f022 02ff 	bic.w	r2, r2, #255	; 0xff
 8003868:	2b02      	cmp	r3, #2
 800386a:	606a      	str	r2, [r5, #4]
 800386c:	f000 80bc 	beq.w	80039e8 <sdcConnect+0x308>
 8003870:	4630      	mov	r0, r6
 8003872:	f7fd f84d 	bl	8000910 <_mmcsd_get_capacity>
 8003876:	62a0      	str	r0, [r4, #40]	; 0x28
 8003878:	463b      	mov	r3, r7
 800387a:	f44f 7200 	mov.w	r2, #512	; 0x200
 800387e:	2110      	movs	r1, #16
 8003880:	4620      	mov	r0, r4
 8003882:	f7fc ff9d 	bl	80007c0 <sdc_lld_send_cmd_short_crc>
 8003886:	4606      	mov	r6, r0
 8003888:	2800      	cmp	r0, #0
 800388a:	f47f af60 	bne.w	800374e <sdcConnect+0x6e>
 800388e:	683b      	ldr	r3, [r7, #0]
 8003890:	f8df 81dc 	ldr.w	r8, [pc, #476]	; 8003a70 <sdcConnect+0x390>
 8003894:	ea13 0f08 	tst.w	r3, r8
 8003898:	f47f af59 	bne.w	800374e <sdcConnect+0x6e>
 800389c:	6b23      	ldr	r3, [r4, #48]	; 0x30
 800389e:	f003 030f 	and.w	r3, r3, #15
 80038a2:	2b01      	cmp	r3, #1
 80038a4:	d976      	bls.n	8003994 <sdcConnect+0x2b4>
 80038a6:	2b02      	cmp	r3, #2
 80038a8:	f47f af51 	bne.w	800374e <sdcConnect+0x6e>
 80038ac:	6ae3      	ldr	r3, [r4, #44]	; 0x2c
 80038ae:	791b      	ldrb	r3, [r3, #4]
 80038b0:	2b01      	cmp	r3, #1
 80038b2:	d066      	beq.n	8003982 <sdcConnect+0x2a2>
 80038b4:	d362      	bcc.n	800397c <sdcConnect+0x29c>
 80038b6:	2b02      	cmp	r3, #2
 80038b8:	d04a      	beq.n	8003950 <sdcConnect+0x270>
 80038ba:	b672      	cpsid	i
 80038bc:	4b6d      	ldr	r3, [pc, #436]	; (8003a74 <sdcConnect+0x394>)
 80038be:	4a6f      	ldr	r2, [pc, #444]	; (8003a7c <sdcConnect+0x39c>)
 80038c0:	62da      	str	r2, [r3, #44]	; 0x2c
 80038c2:	e7fe      	b.n	80038c2 <sdcConnect+0x1e2>
 80038c4:	1d3b      	adds	r3, r7, #4
 80038c6:	2137      	movs	r1, #55	; 0x37
 80038c8:	4620      	mov	r0, r4
 80038ca:	f7fc ff79 	bl	80007c0 <sdc_lld_send_cmd_short_crc>
 80038ce:	2800      	cmp	r0, #0
 80038d0:	f47f af3d 	bne.w	800374e <sdcConnect+0x6e>
 80038d4:	687a      	ldr	r2, [r7, #4]
 80038d6:	4b66      	ldr	r3, [pc, #408]	; (8003a70 <sdcConnect+0x390>)
 80038d8:	4013      	ands	r3, r2
 80038da:	2b00      	cmp	r3, #0
 80038dc:	f47f af37 	bne.w	800374e <sdcConnect+0x6e>
 80038e0:	6b23      	ldr	r3, [r4, #48]	; 0x30
 80038e2:	f003 030f 	and.w	r3, r3, #15
 80038e6:	2b02      	cmp	r3, #2
 80038e8:	d030      	beq.n	800394c <sdcConnect+0x26c>
 80038ea:	4e65      	ldr	r6, [pc, #404]	; (8003a80 <sdcConnect+0x3a0>)
 80038ec:	4a65      	ldr	r2, [pc, #404]	; (8003a84 <sdcConnect+0x3a4>)
 80038ee:	2b01      	cmp	r3, #1
 80038f0:	bf08      	it	eq
 80038f2:	4616      	moveq	r6, r2
 80038f4:	f8df 9178 	ldr.w	r9, [pc, #376]	; 8003a70 <sdcConnect+0x390>
 80038f8:	f04f 0864 	mov.w	r8, #100	; 0x64
 80038fc:	1d3b      	adds	r3, r7, #4
 80038fe:	2200      	movs	r2, #0
 8003900:	2137      	movs	r1, #55	; 0x37
 8003902:	4620      	mov	r0, r4
 8003904:	f7fc ff5c 	bl	80007c0 <sdc_lld_send_cmd_short_crc>
 8003908:	2800      	cmp	r0, #0
 800390a:	f47f af20 	bne.w	800374e <sdcConnect+0x6e>
 800390e:	687b      	ldr	r3, [r7, #4]
 8003910:	6ca5      	ldr	r5, [r4, #72]	; 0x48
 8003912:	ea13 0f09 	tst.w	r3, r9
 8003916:	f47f af1b 	bne.w	8003750 <sdcConnect+0x70>
 800391a:	f240 4369 	movw	r3, #1129	; 0x469
 800391e:	60ae      	str	r6, [r5, #8]
 8003920:	60eb      	str	r3, [r5, #12]
 8003922:	6b69      	ldr	r1, [r5, #52]	; 0x34
 8003924:	f011 0345 	ands.w	r3, r1, #69	; 0x45
 8003928:	d0fb      	beq.n	8003922 <sdcConnect+0x242>
 800392a:	0748      	lsls	r0, r1, #29
 800392c:	63ab      	str	r3, [r5, #56]	; 0x38
 800392e:	f53f af4b 	bmi.w	80037c8 <sdcConnect+0xe8>
 8003932:	696b      	ldr	r3, [r5, #20]
 8003934:	607b      	str	r3, [r7, #4]
 8003936:	2b00      	cmp	r3, #0
 8003938:	f6ff af51 	blt.w	80037de <sdcConnect+0xfe>
 800393c:	f1b8 0801 	subs.w	r8, r8, #1
 8003940:	f43f af06 	beq.w	8003750 <sdcConnect+0x70>
 8003944:	2064      	movs	r0, #100	; 0x64
 8003946:	f7ff f873 	bl	8002a30 <chThdSleep>
 800394a:	e7d7      	b.n	80038fc <sdcConnect+0x21c>
 800394c:	6ca5      	ldr	r5, [r4, #72]	; 0x48
 800394e:	e71c      	b.n	800378a <sdcConnect+0xaa>
 8003950:	6ca1      	ldr	r1, [r4, #72]	; 0x48
 8003952:	4a4d      	ldr	r2, [pc, #308]	; (8003a88 <sdcConnect+0x3a8>)
 8003954:	684b      	ldr	r3, [r1, #4]
 8003956:	f423 53c0 	bic.w	r3, r3, #6144	; 0x1800
 800395a:	f443 5380 	orr.w	r3, r3, #4096	; 0x1000
 800395e:	604b      	str	r3, [r1, #4]
 8003960:	1d3b      	adds	r3, r7, #4
 8003962:	2106      	movs	r1, #6
 8003964:	4620      	mov	r0, r4
 8003966:	f7fc ff2b 	bl	80007c0 <sdc_lld_send_cmd_short_crc>
 800396a:	2800      	cmp	r0, #0
 800396c:	f47f aeef 	bne.w	800374e <sdcConnect+0x6e>
 8003970:	687a      	ldr	r2, [r7, #4]
 8003972:	4b3f      	ldr	r3, [pc, #252]	; (8003a70 <sdcConnect+0x390>)
 8003974:	4013      	ands	r3, r2
 8003976:	2b00      	cmp	r3, #0
 8003978:	f47f aee9 	bne.w	800374e <sdcConnect+0x6e>
 800397c:	2305      	movs	r3, #5
 800397e:	7123      	strb	r3, [r4, #4]
 8003980:	e6ec      	b.n	800375c <sdcConnect+0x7c>
 8003982:	6ca1      	ldr	r1, [r4, #72]	; 0x48
 8003984:	4a41      	ldr	r2, [pc, #260]	; (8003a8c <sdcConnect+0x3ac>)
 8003986:	684b      	ldr	r3, [r1, #4]
 8003988:	f423 53c0 	bic.w	r3, r3, #6144	; 0x1800
 800398c:	f443 6300 	orr.w	r3, r3, #2048	; 0x800
 8003990:	604b      	str	r3, [r1, #4]
 8003992:	e7e5      	b.n	8003960 <sdcConnect+0x280>
 8003994:	6ae3      	ldr	r3, [r4, #44]	; 0x2c
 8003996:	791b      	ldrb	r3, [r3, #4]
 8003998:	2b00      	cmp	r3, #0
 800399a:	d0ef      	beq.n	800397c <sdcConnect+0x29c>
 800399c:	2b01      	cmp	r3, #1
 800399e:	6ca5      	ldr	r5, [r4, #72]	; 0x48
 80039a0:	f47f aed6 	bne.w	8003750 <sdcConnect+0x70>
 80039a4:	686b      	ldr	r3, [r5, #4]
 80039a6:	6ba2      	ldr	r2, [r4, #56]	; 0x38
 80039a8:	f423 53c0 	bic.w	r3, r3, #6144	; 0x1800
 80039ac:	f443 6300 	orr.w	r3, r3, #2048	; 0x800
 80039b0:	606b      	str	r3, [r5, #4]
 80039b2:	2137      	movs	r1, #55	; 0x37
 80039b4:	1d3b      	adds	r3, r7, #4
 80039b6:	4620      	mov	r0, r4
 80039b8:	f7fc ff02 	bl	80007c0 <sdc_lld_send_cmd_short_crc>
 80039bc:	2800      	cmp	r0, #0
 80039be:	f47f aec6 	bne.w	800374e <sdcConnect+0x6e>
 80039c2:	687b      	ldr	r3, [r7, #4]
 80039c4:	ea13 0f08 	tst.w	r3, r8
 80039c8:	f47f aec1 	bne.w	800374e <sdcConnect+0x6e>
 80039cc:	1d3b      	adds	r3, r7, #4
 80039ce:	2202      	movs	r2, #2
 80039d0:	2106      	movs	r1, #6
 80039d2:	4620      	mov	r0, r4
 80039d4:	f7fc fef4 	bl	80007c0 <sdc_lld_send_cmd_short_crc>
 80039d8:	2800      	cmp	r0, #0
 80039da:	f47f aeb8 	bne.w	800374e <sdcConnect+0x6e>
 80039de:	687b      	ldr	r3, [r7, #4]
 80039e0:	ea13 0f08 	tst.w	r3, r8
 80039e4:	d0ca      	beq.n	800397c <sdcConnect+0x29c>
 80039e6:	e6b2      	b.n	800374e <sdcConnect+0x6e>
 80039e8:	227e      	movs	r2, #126	; 0x7e
 80039ea:	217f      	movs	r1, #127	; 0x7f
 80039ec:	4630      	mov	r0, r6
 80039ee:	f7fc ff5f 	bl	80008b0 <_mmcsd_get_slice>
 80039f2:	2801      	cmp	r0, #1
 80039f4:	f67f af3c 	bls.w	8003870 <sdcConnect+0x190>
 80039f8:	6ae3      	ldr	r3, [r4, #44]	; 0x2c
 80039fa:	681e      	ldr	r6, [r3, #0]
 80039fc:	2e00      	cmp	r6, #0
 80039fe:	f43f aea7 	beq.w	8003750 <sdcConnect+0x70>
 8003a02:	2300      	movs	r3, #0
 8003a04:	9300      	str	r3, [sp, #0]
 8003a06:	f44f 7200 	mov.w	r2, #512	; 0x200
 8003a0a:	2308      	movs	r3, #8
 8003a0c:	4631      	mov	r1, r6
 8003a0e:	4620      	mov	r0, r4
 8003a10:	f7ff fe1e 	bl	8003650 <sdc_lld_read_special>
 8003a14:	2800      	cmp	r0, #0
 8003a16:	f47f ae9a 	bne.w	800374e <sdcConnect+0x6e>
 8003a1a:	f896 30d6 	ldrb.w	r3, [r6, #214]	; 0xd6
 8003a1e:	f896 00d7 	ldrb.w	r0, [r6, #215]	; 0xd7
 8003a22:	f896 10d4 	ldrb.w	r1, [r6, #212]	; 0xd4
 8003a26:	f896 20d5 	ldrb.w	r2, [r6, #213]	; 0xd5
 8003a2a:	041b      	lsls	r3, r3, #16
 8003a2c:	eb03 6300 	add.w	r3, r3, r0, lsl #24
 8003a30:	440b      	add	r3, r1
 8003a32:	eb03 2302 	add.w	r3, r3, r2, lsl #8
 8003a36:	62a3      	str	r3, [r4, #40]	; 0x28
 8003a38:	e71e      	b.n	8003878 <sdcConnect+0x198>
 8003a3a:	f8cd 9000 	str.w	r9, [sp]
 8003a3e:	2306      	movs	r3, #6
 8003a40:	2240      	movs	r2, #64	; 0x40
 8003a42:	4641      	mov	r1, r8
 8003a44:	4620      	mov	r0, r4
 8003a46:	f7ff fe03 	bl	8003650 <sdc_lld_read_special>
 8003a4a:	b978      	cbnz	r0, 8003a6c <sdcConnect+0x38c>
 8003a4c:	f898 300d 	ldrb.w	r3, [r8, #13]
 8003a50:	079b      	lsls	r3, r3, #30
 8003a52:	f57f af01 	bpl.w	8003858 <sdcConnect+0x178>
 8003a56:	4b0e      	ldr	r3, [pc, #56]	; (8003a90 <sdcConnect+0x3b0>)
 8003a58:	9300      	str	r3, [sp, #0]
 8003a5a:	4641      	mov	r1, r8
 8003a5c:	2306      	movs	r3, #6
 8003a5e:	2240      	movs	r2, #64	; 0x40
 8003a60:	4620      	mov	r0, r4
 8003a62:	f7ff fdf5 	bl	8003650 <sdc_lld_read_special>
 8003a66:	2800      	cmp	r0, #0
 8003a68:	f43f aef6 	beq.w	8003858 <sdcConnect+0x178>
 8003a6c:	46ad      	mov	sp, r5
 8003a6e:	e66e      	b.n	800374e <sdcConnect+0x6e>
 8003a70:	fdffe008 	.word	0xfdffe008
 8003a74:	20004e78 	.word	0x20004e78
 8003a78:	080049e0 	.word	0x080049e0
 8003a7c:	08004990 	.word	0x08004990
 8003a80:	80100000 	.word	0x80100000
 8003a84:	c0100000 	.word	0xc0100000
 8003a88:	03b70200 	.word	0x03b70200
 8003a8c:	03b70100 	.word	0x03b70100
 8003a90:	80fffff1 	.word	0x80fffff1
 8003a94:	c0ff8000 	.word	0xc0ff8000
 8003a98:	6ae2      	ldr	r2, [r4, #44]	; 0x2c
 8003a9a:	6812      	ldr	r2, [r2, #0]
 8003a9c:	2a00      	cmp	r2, #0
 8003a9e:	f43f aedd 	beq.w	800385c <sdcConnect+0x17c>
 8003aa2:	1d3b      	adds	r3, r7, #4
 8003aa4:	4a0a      	ldr	r2, [pc, #40]	; (8003ad0 <sdcConnect+0x3f0>)
 8003aa6:	2106      	movs	r1, #6
 8003aa8:	4620      	mov	r0, r4
 8003aaa:	f7fc fe89 	bl	80007c0 <sdc_lld_send_cmd_short_crc>
 8003aae:	6b23      	ldr	r3, [r4, #48]	; 0x30
 8003ab0:	e6d4      	b.n	800385c <sdcConnect+0x17c>
 8003ab2:	f44f 6280 	mov.w	r2, #1024	; 0x400
 8003ab6:	6323      	str	r3, [r4, #48]	; 0x30
 8003ab8:	60ab      	str	r3, [r5, #8]
 8003aba:	60ea      	str	r2, [r5, #12]
 8003abc:	6b6b      	ldr	r3, [r5, #52]	; 0x34
 8003abe:	061a      	lsls	r2, r3, #24
 8003ac0:	d5fc      	bpl.n	8003abc <sdcConnect+0x3dc>
 8003ac2:	2380      	movs	r3, #128	; 0x80
 8003ac4:	63ab      	str	r3, [r5, #56]	; 0x38
 8003ac6:	4e03      	ldr	r6, [pc, #12]	; (8003ad4 <sdcConnect+0x3f4>)
 8003ac8:	e714      	b.n	80038f4 <sdcConnect+0x214>
 8003aca:	6ca5      	ldr	r5, [r4, #72]	; 0x48
 8003acc:	e65b      	b.n	8003786 <sdcConnect+0xa6>
 8003ace:	bf00      	nop
 8003ad0:	03b90100 	.word	0x03b90100
 8003ad4:	80100000 	.word	0x80100000
	...

08003ae0 <sdcWrite>:
 8003ae0:	e92d 43f8 	stmdb	sp!, {r3, r4, r5, r6, r7, r8, r9, lr}
 8003ae4:	b160      	cbz	r0, 8003b00 <sdcWrite+0x20>
 8003ae6:	4690      	mov	r8, r2
 8003ae8:	b152      	cbz	r2, 8003b00 <sdcWrite+0x20>
 8003aea:	461e      	mov	r6, r3
 8003aec:	b143      	cbz	r3, 8003b00 <sdcWrite+0x20>
 8003aee:	7903      	ldrb	r3, [r0, #4]
 8003af0:	2b05      	cmp	r3, #5
 8003af2:	4604      	mov	r4, r0
 8003af4:	d009      	beq.n	8003b0a <sdcWrite+0x2a>
 8003af6:	b672      	cpsid	i
 8003af8:	4b2c      	ldr	r3, [pc, #176]	; (8003bac <sdcWrite+0xcc>)
 8003afa:	4a2d      	ldr	r2, [pc, #180]	; (8003bb0 <sdcWrite+0xd0>)
 8003afc:	62da      	str	r2, [r3, #44]	; 0x2c
 8003afe:	e7fe      	b.n	8003afe <sdcWrite+0x1e>
 8003b00:	b672      	cpsid	i
 8003b02:	4b2a      	ldr	r3, [pc, #168]	; (8003bac <sdcWrite+0xcc>)
 8003b04:	4a2a      	ldr	r2, [pc, #168]	; (8003bb0 <sdcWrite+0xd0>)
 8003b06:	62da      	str	r2, [r3, #44]	; 0x2c
 8003b08:	e7fe      	b.n	8003b08 <sdcWrite+0x28>
 8003b0a:	1e4b      	subs	r3, r1, #1
 8003b0c:	6a82      	ldr	r2, [r0, #40]	; 0x28
 8003b0e:	4433      	add	r3, r6
 8003b10:	4293      	cmp	r3, r2
 8003b12:	460d      	mov	r5, r1
 8003b14:	d906      	bls.n	8003b24 <sdcWrite+0x44>
 8003b16:	6b43      	ldr	r3, [r0, #52]	; 0x34
 8003b18:	f043 0380 	orr.w	r3, r3, #128	; 0x80
 8003b1c:	6343      	str	r3, [r0, #52]	; 0x34
 8003b1e:	2001      	movs	r0, #1
 8003b20:	e8bd 83f8 	ldmia.w	sp!, {r3, r4, r5, r6, r7, r8, r9, pc}
 8003b24:	2307      	movs	r3, #7
 8003b26:	f018 0f03 	tst.w	r8, #3
 8003b2a:	7103      	strb	r3, [r0, #4]
 8003b2c:	d01c      	beq.n	8003b68 <sdcWrite+0x88>
 8003b2e:	ebc1 57c1 	rsb	r7, r1, r1, lsl #23
 8003b32:	eb08 2747 	add.w	r7, r8, r7, lsl #9
 8003b36:	f8df 907c 	ldr.w	r9, [pc, #124]	; 8003bb4 <sdcWrite+0xd4>
 8003b3a:	f8df 8080 	ldr.w	r8, [pc, #128]	; 8003bbc <sdcWrite+0xdc>
 8003b3e:	440e      	add	r6, r1
 8003b40:	42ae      	cmp	r6, r5
 8003b42:	eb07 2145 	add.w	r1, r7, r5, lsl #9
 8003b46:	f44f 7200 	mov.w	r2, #512	; 0x200
 8003b4a:	4640      	mov	r0, r8
 8003b4c:	d027      	beq.n	8003b9e <sdcWrite+0xbe>
 8003b4e:	f7fc fbb7 	bl	80002c0 <memcpy>
 8003b52:	6ca3      	ldr	r3, [r4, #72]	; 0x48
 8003b54:	4620      	mov	r0, r4
 8003b56:	f8c3 9024 	str.w	r9, [r3, #36]	; 0x24
 8003b5a:	f7ff fd01 	bl	8003560 <_sdc_wait_for_transfer_state>
 8003b5e:	b1a0      	cbz	r0, 8003b8a <sdcWrite+0xaa>
 8003b60:	2001      	movs	r0, #1
 8003b62:	2305      	movs	r3, #5
 8003b64:	7123      	strb	r3, [r4, #4]
 8003b66:	e7db      	b.n	8003b20 <sdcWrite+0x40>
 8003b68:	f5b6 4f00 	cmp.w	r6, #32768	; 0x8000
 8003b6c:	d219      	bcs.n	8003ba2 <sdcWrite+0xc2>
 8003b6e:	6c83      	ldr	r3, [r0, #72]	; 0x48
 8003b70:	4a10      	ldr	r2, [pc, #64]	; (8003bb4 <sdcWrite+0xd4>)
 8003b72:	625a      	str	r2, [r3, #36]	; 0x24
 8003b74:	f7ff fcf4 	bl	8003560 <_sdc_wait_for_transfer_state>
 8003b78:	2800      	cmp	r0, #0
 8003b7a:	d1f1      	bne.n	8003b60 <sdcWrite+0x80>
 8003b7c:	4633      	mov	r3, r6
 8003b7e:	4642      	mov	r2, r8
 8003b80:	4629      	mov	r1, r5
 8003b82:	4620      	mov	r0, r4
 8003b84:	f7fe fc54 	bl	8002430 <sdc_lld_write_aligned.part.5>
 8003b88:	e7eb      	b.n	8003b62 <sdcWrite+0x82>
 8003b8a:	2301      	movs	r3, #1
 8003b8c:	4642      	mov	r2, r8
 8003b8e:	4629      	mov	r1, r5
 8003b90:	4620      	mov	r0, r4
 8003b92:	f7fe fc4d 	bl	8002430 <sdc_lld_write_aligned.part.5>
 8003b96:	2800      	cmp	r0, #0
 8003b98:	d1e2      	bne.n	8003b60 <sdcWrite+0x80>
 8003b9a:	3501      	adds	r5, #1
 8003b9c:	e7d0      	b.n	8003b40 <sdcWrite+0x60>
 8003b9e:	2000      	movs	r0, #0
 8003ba0:	e7df      	b.n	8003b62 <sdcWrite+0x82>
 8003ba2:	b672      	cpsid	i
 8003ba4:	4b01      	ldr	r3, [pc, #4]	; (8003bac <sdcWrite+0xcc>)
 8003ba6:	4a04      	ldr	r2, [pc, #16]	; (8003bb8 <sdcWrite+0xd8>)
 8003ba8:	62da      	str	r2, [r3, #44]	; 0x2c
 8003baa:	e7fe      	b.n	8003baa <sdcWrite+0xca>
 8003bac:	20004e78 	.word	0x20004e78
 8003bb0:	08004a30 	.word	0x08004a30
 8003bb4:	005b8d80 	.word	0x005b8d80
 8003bb8:	080049f0 	.word	0x080049f0
 8003bbc:	20005704 	.word	0x20005704

08003bc0 <sdcRead>:
 8003bc0:	e92d 43f8 	stmdb	sp!, {r3, r4, r5, r6, r7, r8, r9, lr}
 8003bc4:	b160      	cbz	r0, 8003be0 <sdcRead+0x20>
 8003bc6:	4690      	mov	r8, r2
 8003bc8:	b152      	cbz	r2, 8003be0 <sdcRead+0x20>
 8003bca:	461e      	mov	r6, r3
 8003bcc:	b143      	cbz	r3, 8003be0 <sdcRead+0x20>
 8003bce:	7903      	ldrb	r3, [r0, #4]
 8003bd0:	2b05      	cmp	r3, #5
 8003bd2:	4604      	mov	r4, r0
 8003bd4:	d009      	beq.n	8003bea <sdcRead+0x2a>
 8003bd6:	b672      	cpsid	i
 8003bd8:	4b2c      	ldr	r3, [pc, #176]	; (8003c8c <sdcRead+0xcc>)
 8003bda:	4a2d      	ldr	r2, [pc, #180]	; (8003c90 <sdcRead+0xd0>)
 8003bdc:	62da      	str	r2, [r3, #44]	; 0x2c
 8003bde:	e7fe      	b.n	8003bde <sdcRead+0x1e>
 8003be0:	b672      	cpsid	i
 8003be2:	4b2a      	ldr	r3, [pc, #168]	; (8003c8c <sdcRead+0xcc>)
 8003be4:	4a2a      	ldr	r2, [pc, #168]	; (8003c90 <sdcRead+0xd0>)
 8003be6:	62da      	str	r2, [r3, #44]	; 0x2c
 8003be8:	e7fe      	b.n	8003be8 <sdcRead+0x28>
 8003bea:	1e4b      	subs	r3, r1, #1
 8003bec:	6a82      	ldr	r2, [r0, #40]	; 0x28
 8003bee:	4433      	add	r3, r6
 8003bf0:	4293      	cmp	r3, r2
 8003bf2:	460d      	mov	r5, r1
 8003bf4:	d906      	bls.n	8003c04 <sdcRead+0x44>
 8003bf6:	6b43      	ldr	r3, [r0, #52]	; 0x34
 8003bf8:	f043 0380 	orr.w	r3, r3, #128	; 0x80
 8003bfc:	6343      	str	r3, [r0, #52]	; 0x34
 8003bfe:	2001      	movs	r0, #1
 8003c00:	e8bd 83f8 	ldmia.w	sp!, {r3, r4, r5, r6, r7, r8, r9, pc}
 8003c04:	2306      	movs	r3, #6
 8003c06:	f018 0f03 	tst.w	r8, #3
 8003c0a:	7103      	strb	r3, [r0, #4]
 8003c0c:	d015      	beq.n	8003c3a <sdcRead+0x7a>
 8003c0e:	ebc1 57c1 	rsb	r7, r1, r1, lsl #23
 8003c12:	eb08 2747 	add.w	r7, r8, r7, lsl #9
 8003c16:	f8df 907c 	ldr.w	r9, [pc, #124]	; 8003c94 <sdcRead+0xd4>
 8003c1a:	f8df 8080 	ldr.w	r8, [pc, #128]	; 8003c9c <sdcRead+0xdc>
 8003c1e:	440e      	add	r6, r1
 8003c20:	42ae      	cmp	r6, r5
 8003c22:	4620      	mov	r0, r4
 8003c24:	d02b      	beq.n	8003c7e <sdcRead+0xbe>
 8003c26:	6ca3      	ldr	r3, [r4, #72]	; 0x48
 8003c28:	f8c3 9024 	str.w	r9, [r3, #36]	; 0x24
 8003c2c:	f7ff fc98 	bl	8003560 <_sdc_wait_for_transfer_state>
 8003c30:	b1a0      	cbz	r0, 8003c5c <sdcRead+0x9c>
 8003c32:	2001      	movs	r0, #1
 8003c34:	2305      	movs	r3, #5
 8003c36:	7123      	strb	r3, [r4, #4]
 8003c38:	e7e2      	b.n	8003c00 <sdcRead+0x40>
 8003c3a:	f5b6 4f00 	cmp.w	r6, #32768	; 0x8000
 8003c3e:	d220      	bcs.n	8003c82 <sdcRead+0xc2>
 8003c40:	6c83      	ldr	r3, [r0, #72]	; 0x48
 8003c42:	4a14      	ldr	r2, [pc, #80]	; (8003c94 <sdcRead+0xd4>)
 8003c44:	625a      	str	r2, [r3, #36]	; 0x24
 8003c46:	f7ff fc8b 	bl	8003560 <_sdc_wait_for_transfer_state>
 8003c4a:	2800      	cmp	r0, #0
 8003c4c:	d1f1      	bne.n	8003c32 <sdcRead+0x72>
 8003c4e:	4633      	mov	r3, r6
 8003c50:	4642      	mov	r2, r8
 8003c52:	4629      	mov	r1, r5
 8003c54:	4620      	mov	r0, r4
 8003c56:	f7fe fc3b 	bl	80024d0 <sdc_lld_read_aligned.part.4>
 8003c5a:	e7eb      	b.n	8003c34 <sdcRead+0x74>
 8003c5c:	4642      	mov	r2, r8
 8003c5e:	4629      	mov	r1, r5
 8003c60:	2301      	movs	r3, #1
 8003c62:	4620      	mov	r0, r4
 8003c64:	f7fe fc34 	bl	80024d0 <sdc_lld_read_aligned.part.4>
 8003c68:	f44f 7200 	mov.w	r2, #512	; 0x200
 8003c6c:	4641      	mov	r1, r8
 8003c6e:	2800      	cmp	r0, #0
 8003c70:	d1df      	bne.n	8003c32 <sdcRead+0x72>
 8003c72:	eb07 2045 	add.w	r0, r7, r5, lsl #9
 8003c76:	f7fc fb23 	bl	80002c0 <memcpy>
 8003c7a:	3501      	adds	r5, #1
 8003c7c:	e7d0      	b.n	8003c20 <sdcRead+0x60>
 8003c7e:	2000      	movs	r0, #0
 8003c80:	e7d8      	b.n	8003c34 <sdcRead+0x74>
 8003c82:	b672      	cpsid	i
 8003c84:	4b01      	ldr	r3, [pc, #4]	; (8003c8c <sdcRead+0xcc>)
 8003c86:	4a04      	ldr	r2, [pc, #16]	; (8003c98 <sdcRead+0xd8>)
 8003c88:	62da      	str	r2, [r3, #44]	; 0x2c
 8003c8a:	e7fe      	b.n	8003c8a <sdcRead+0xca>
 8003c8c:	20004e78 	.word	0x20004e78
 8003c90:	08004a20 	.word	0x08004a20
 8003c94:	000927c0 	.word	0x000927c0
 8003c98:	080049c0 	.word	0x080049c0
 8003c9c:	20005704 	.word	0x20005704

08003ca0 <sdcDisconnect>:
 8003ca0:	b538      	push	{r3, r4, r5, lr}
 8003ca2:	2800      	cmp	r0, #0
 8003ca4:	d03e      	beq.n	8003d24 <sdcDisconnect+0x84>
 8003ca6:	4604      	mov	r4, r0
 8003ca8:	2320      	movs	r3, #32
 8003caa:	f383 8811 	msr	BASEPRI, r3
 8003cae:	f7fe f927 	bl	8001f00 <_stats_start_measure_crit_thd>
 8003cb2:	f7fe f99d 	bl	8001ff0 <_dbg_check_lock>
 8003cb6:	7923      	ldrb	r3, [r4, #4]
 8003cb8:	2b02      	cmp	r3, #2
 8003cba:	d022      	beq.n	8003d02 <sdcDisconnect+0x62>
 8003cbc:	2b05      	cmp	r3, #5
 8003cbe:	d11b      	bne.n	8003cf8 <sdcDisconnect+0x58>
 8003cc0:	2304      	movs	r3, #4
 8003cc2:	7123      	strb	r3, [r4, #4]
 8003cc4:	f7fe f964 	bl	8001f90 <_dbg_check_unlock>
 8003cc8:	f7fe f912 	bl	8001ef0 <_stats_stop_measure_crit_thd>
 8003ccc:	4b1e      	ldr	r3, [pc, #120]	; (8003d48 <sdcDisconnect+0xa8>)
 8003cce:	681a      	ldr	r2, [r3, #0]
 8003cd0:	429a      	cmp	r2, r3
 8003cd2:	d004      	beq.n	8003cde <sdcDisconnect+0x3e>
 8003cd4:	6999      	ldr	r1, [r3, #24]
 8003cd6:	6892      	ldr	r2, [r2, #8]
 8003cd8:	6889      	ldr	r1, [r1, #8]
 8003cda:	4291      	cmp	r1, r2
 8003cdc:	d32f      	bcc.n	8003d3e <sdcDisconnect+0x9e>
 8003cde:	2500      	movs	r5, #0
 8003ce0:	f385 8811 	msr	BASEPRI, r5
 8003ce4:	4620      	mov	r0, r4
 8003ce6:	f7ff fc3b 	bl	8003560 <_sdc_wait_for_transfer_state>
 8003cea:	6ca3      	ldr	r3, [r4, #72]	; 0x48
 8003cec:	2202      	movs	r2, #2
 8003cee:	bb10      	cbnz	r0, 8003d36 <sdcDisconnect+0x96>
 8003cf0:	6058      	str	r0, [r3, #4]
 8003cf2:	6018      	str	r0, [r3, #0]
 8003cf4:	7122      	strb	r2, [r4, #4]
 8003cf6:	bd38      	pop	{r3, r4, r5, pc}
 8003cf8:	b672      	cpsid	i
 8003cfa:	4b13      	ldr	r3, [pc, #76]	; (8003d48 <sdcDisconnect+0xa8>)
 8003cfc:	4a13      	ldr	r2, [pc, #76]	; (8003d4c <sdcDisconnect+0xac>)
 8003cfe:	62da      	str	r2, [r3, #44]	; 0x2c
 8003d00:	e7fe      	b.n	8003d00 <sdcDisconnect+0x60>
 8003d02:	f7fe f945 	bl	8001f90 <_dbg_check_unlock>
 8003d06:	f7fe f8f3 	bl	8001ef0 <_stats_stop_measure_crit_thd>
 8003d0a:	4b0f      	ldr	r3, [pc, #60]	; (8003d48 <sdcDisconnect+0xa8>)
 8003d0c:	681a      	ldr	r2, [r3, #0]
 8003d0e:	429a      	cmp	r2, r3
 8003d10:	d004      	beq.n	8003d1c <sdcDisconnect+0x7c>
 8003d12:	6999      	ldr	r1, [r3, #24]
 8003d14:	6892      	ldr	r2, [r2, #8]
 8003d16:	6889      	ldr	r1, [r1, #8]
 8003d18:	4291      	cmp	r1, r2
 8003d1a:	d308      	bcc.n	8003d2e <sdcDisconnect+0x8e>
 8003d1c:	2000      	movs	r0, #0
 8003d1e:	f380 8811 	msr	BASEPRI, r0
 8003d22:	bd38      	pop	{r3, r4, r5, pc}
 8003d24:	b672      	cpsid	i
 8003d26:	4b08      	ldr	r3, [pc, #32]	; (8003d48 <sdcDisconnect+0xa8>)
 8003d28:	4a08      	ldr	r2, [pc, #32]	; (8003d4c <sdcDisconnect+0xac>)
 8003d2a:	62da      	str	r2, [r3, #44]	; 0x2c
 8003d2c:	e7fe      	b.n	8003d2c <sdcDisconnect+0x8c>
 8003d2e:	b672      	cpsid	i
 8003d30:	4a07      	ldr	r2, [pc, #28]	; (8003d50 <sdcDisconnect+0xb0>)
 8003d32:	62da      	str	r2, [r3, #44]	; 0x2c
 8003d34:	e7fe      	b.n	8003d34 <sdcDisconnect+0x94>
 8003d36:	605d      	str	r5, [r3, #4]
 8003d38:	601d      	str	r5, [r3, #0]
 8003d3a:	7122      	strb	r2, [r4, #4]
 8003d3c:	bd38      	pop	{r3, r4, r5, pc}
 8003d3e:	b672      	cpsid	i
 8003d40:	4a03      	ldr	r2, [pc, #12]	; (8003d50 <sdcDisconnect+0xb0>)
 8003d42:	62da      	str	r2, [r3, #44]	; 0x2c
 8003d44:	e7fe      	b.n	8003d44 <sdcDisconnect+0xa4>
 8003d46:	bf00      	nop
 8003d48:	20004e78 	.word	0x20004e78
 8003d4c:	08004a10 	.word	0x08004a10
 8003d50:	080047d0 	.word	0x080047d0
	...

08003d60 <cmd_sdc>:
 8003d60:	2901      	cmp	r1, #1
 8003d62:	f040 82b1 	bne.w	80042c8 <cmd_sdc+0x568>
 8003d66:	e92d 4ff0 	stmdb	sp!, {r4, r5, r6, r7, r8, r9, sl, fp, lr}
 8003d6a:	4e7f      	ldr	r6, [pc, #508]	; (8003f68 <cmd_sdc+0x208>)
 8003d6c:	6833      	ldr	r3, [r6, #0]
 8003d6e:	b085      	sub	sp, #20
 8003d70:	4604      	mov	r4, r0
 8003d72:	681b      	ldr	r3, [r3, #0]
 8003d74:	9203      	str	r2, [sp, #12]
 8003d76:	4630      	mov	r0, r6
 8003d78:	4798      	blx	r3
 8003d7a:	2800      	cmp	r0, #0
 8003d7c:	f000 8299 	beq.w	80042b2 <cmd_sdc+0x552>
 8003d80:	497a      	ldr	r1, [pc, #488]	; (8003f6c <cmd_sdc+0x20c>)
 8003d82:	4620      	mov	r0, r4
 8003d84:	f7fd fe04 	bl	8001990 <chprintf.lto_priv.57>
 8003d88:	4630      	mov	r0, r6
 8003d8a:	f7ff fca9 	bl	80036e0 <sdcConnect>
 8003d8e:	2800      	cmp	r0, #0
 8003d90:	f040 80e3 	bne.w	8003f5a <cmd_sdc+0x1fa>
 8003d94:	4976      	ldr	r1, [pc, #472]	; (8003f70 <cmd_sdc+0x210>)
 8003d96:	4620      	mov	r0, r4
 8003d98:	f7fd fdfa 	bl	8001990 <chprintf.lto_priv.57>
 8003d9c:	e9d6 0106 	ldrd	r0, r1, [r6, #24]
 8003da0:	e9d6 3208 	ldrd	r3, r2, [r6, #32]
 8003da4:	e9cd 1000 	strd	r1, r0, [sp]
 8003da8:	4972      	ldr	r1, [pc, #456]	; (8003f74 <cmd_sdc+0x214>)
 8003daa:	4620      	mov	r0, r4
 8003dac:	f7fd fdf0 	bl	8001990 <chprintf.lto_priv.57>
 8003db0:	e9d6 0102 	ldrd	r0, r1, [r6, #8]
 8003db4:	e9d6 3204 	ldrd	r3, r2, [r6, #16]
 8003db8:	e9cd 1000 	strd	r1, r0, [sp]
 8003dbc:	496e      	ldr	r1, [pc, #440]	; (8003f78 <cmd_sdc+0x218>)
 8003dbe:	4620      	mov	r0, r4
 8003dc0:	f7fd fde6 	bl	8001990 <chprintf.lto_priv.57>
 8003dc4:	6b33      	ldr	r3, [r6, #48]	; 0x30
 8003dc6:	4a6d      	ldr	r2, [pc, #436]	; (8003f7c <cmd_sdc+0x21c>)
 8003dc8:	496d      	ldr	r1, [pc, #436]	; (8003f80 <cmd_sdc+0x220>)
 8003dca:	f003 0303 	and.w	r3, r3, #3
 8003dce:	4620      	mov	r0, r4
 8003dd0:	f852 2023 	ldr.w	r2, [r2, r3, lsl #2]
 8003dd4:	f7fd fddc 	bl	8001990 <chprintf.lto_priv.57>
 8003dd8:	6ab2      	ldr	r2, [r6, #40]	; 0x28
 8003dda:	496a      	ldr	r1, [pc, #424]	; (8003f84 <cmd_sdc+0x224>)
 8003ddc:	0ad2      	lsrs	r2, r2, #11
 8003dde:	4620      	mov	r0, r4
 8003de0:	f7fd fdd6 	bl	8001990 <chprintf.lto_priv.57>
 8003de4:	9b03      	ldr	r3, [sp, #12]
 8003de6:	6ab7      	ldr	r7, [r6, #40]	; 0x28
 8003de8:	681d      	ldr	r5, [r3, #0]
 8003dea:	4967      	ldr	r1, [pc, #412]	; (8003f88 <cmd_sdc+0x228>)
 8003dec:	4628      	mov	r0, r5
 8003dee:	0abf      	lsrs	r7, r7, #10
 8003df0:	f7fc fb0a 	bl	8000408 <strcmp>
 8003df4:	2800      	cmp	r0, #0
 8003df6:	f000 80e1 	beq.w	8003fbc <cmd_sdc+0x25c>
 8003dfa:	4964      	ldr	r1, [pc, #400]	; (8003f8c <cmd_sdc+0x22c>)
 8003dfc:	4628      	mov	r0, r5
 8003dfe:	f7fc fb03 	bl	8000408 <strcmp>
 8003e02:	2800      	cmp	r0, #0
 8003e04:	f000 80da 	beq.w	8003fbc <cmd_sdc+0x25c>
 8003e08:	4961      	ldr	r1, [pc, #388]	; (8003f90 <cmd_sdc+0x230>)
 8003e0a:	4628      	mov	r0, r5
 8003e0c:	f7fc fafc 	bl	8000408 <strcmp>
 8003e10:	2800      	cmp	r0, #0
 8003e12:	f040 8243 	bne.w	800429c <cmd_sdc+0x53c>
 8003e16:	4d5f      	ldr	r5, [pc, #380]	; (8003f94 <cmd_sdc+0x234>)
 8003e18:	f44f 6280 	mov.w	r2, #1024	; 0x400
 8003e1c:	21aa      	movs	r1, #170	; 0xaa
 8003e1e:	4628      	mov	r0, r5
 8003e20:	f000 fb86 	bl	8004530 <memset>
 8003e24:	495c      	ldr	r1, [pc, #368]	; (8003f98 <cmd_sdc+0x238>)
 8003e26:	4620      	mov	r0, r4
 8003e28:	f7fd fdb2 	bl	8001990 <chprintf.lto_priv.57>
 8003e2c:	462a      	mov	r2, r5
 8003e2e:	2302      	movs	r3, #2
 8003e30:	4639      	mov	r1, r7
 8003e32:	484d      	ldr	r0, [pc, #308]	; (8003f68 <cmd_sdc+0x208>)
 8003e34:	f7ff fe54 	bl	8003ae0 <sdcWrite>
 8003e38:	2800      	cmp	r0, #0
 8003e3a:	f040 824e 	bne.w	80042da <cmd_sdc+0x57a>
 8003e3e:	4957      	ldr	r1, [pc, #348]	; (8003f9c <cmd_sdc+0x23c>)
 8003e40:	4620      	mov	r0, r4
 8003e42:	f7fd fda5 	bl	8001990 <chprintf.lto_priv.57>
 8003e46:	f44f 6280 	mov.w	r2, #1024	; 0x400
 8003e4a:	2155      	movs	r1, #85	; 0x55
 8003e4c:	4628      	mov	r0, r5
 8003e4e:	f000 fb6f 	bl	8004530 <memset>
 8003e52:	4953      	ldr	r1, [pc, #332]	; (8003fa0 <cmd_sdc+0x240>)
 8003e54:	4620      	mov	r0, r4
 8003e56:	f7fd fd9b 	bl	8001990 <chprintf.lto_priv.57>
 8003e5a:	6833      	ldr	r3, [r6, #0]
 8003e5c:	4842      	ldr	r0, [pc, #264]	; (8003f68 <cmd_sdc+0x208>)
 8003e5e:	f8d3 8010 	ldr.w	r8, [r3, #16]
 8003e62:	462a      	mov	r2, r5
 8003e64:	2301      	movs	r3, #1
 8003e66:	4639      	mov	r1, r7
 8003e68:	47c0      	blx	r8
 8003e6a:	2800      	cmp	r0, #0
 8003e6c:	f040 8235 	bne.w	80042da <cmd_sdc+0x57a>
 8003e70:	494a      	ldr	r1, [pc, #296]	; (8003f9c <cmd_sdc+0x23c>)
 8003e72:	4620      	mov	r0, r4
 8003e74:	f7fd fd8c 	bl	8001990 <chprintf.lto_priv.57>
 8003e78:	1e6a      	subs	r2, r5, #1
 8003e7a:	f205 11ff 	addw	r1, r5, #511	; 0x1ff
 8003e7e:	2308      	movs	r3, #8
 8003e80:	f802 3f01 	strb.w	r3, [r2, #1]!
 8003e84:	3301      	adds	r3, #1
 8003e86:	4291      	cmp	r1, r2
 8003e88:	b2db      	uxtb	r3, r3
 8003e8a:	d1f9      	bne.n	8003e80 <cmd_sdc+0x120>
 8003e8c:	4942      	ldr	r1, [pc, #264]	; (8003f98 <cmd_sdc+0x238>)
 8003e8e:	4620      	mov	r0, r4
 8003e90:	f7fd fd7e 	bl	8001990 <chprintf.lto_priv.57>
 8003e94:	2302      	movs	r3, #2
 8003e96:	4a3f      	ldr	r2, [pc, #252]	; (8003f94 <cmd_sdc+0x234>)
 8003e98:	4833      	ldr	r0, [pc, #204]	; (8003f68 <cmd_sdc+0x208>)
 8003e9a:	4639      	mov	r1, r7
 8003e9c:	f7ff fe20 	bl	8003ae0 <sdcWrite>
 8003ea0:	4680      	mov	r8, r0
 8003ea2:	2800      	cmp	r0, #0
 8003ea4:	f040 8219 	bne.w	80042da <cmd_sdc+0x57a>
 8003ea8:	493c      	ldr	r1, [pc, #240]	; (8003f9c <cmd_sdc+0x23c>)
 8003eaa:	4620      	mov	r0, r4
 8003eac:	f7fd fd70 	bl	8001990 <chprintf.lto_priv.57>
 8003eb0:	4641      	mov	r1, r8
 8003eb2:	f44f 6280 	mov.w	r2, #1024	; 0x400
 8003eb6:	4837      	ldr	r0, [pc, #220]	; (8003f94 <cmd_sdc+0x234>)
 8003eb8:	f000 fb3a 	bl	8004530 <memset>
 8003ebc:	4938      	ldr	r1, [pc, #224]	; (8003fa0 <cmd_sdc+0x240>)
 8003ebe:	4620      	mov	r0, r4
 8003ec0:	f7fd fd66 	bl	8001990 <chprintf.lto_priv.57>
 8003ec4:	6833      	ldr	r3, [r6, #0]
 8003ec6:	4a33      	ldr	r2, [pc, #204]	; (8003f94 <cmd_sdc+0x234>)
 8003ec8:	f8d3 8010 	ldr.w	r8, [r3, #16]
 8003ecc:	4826      	ldr	r0, [pc, #152]	; (8003f68 <cmd_sdc+0x208>)
 8003ece:	2301      	movs	r3, #1
 8003ed0:	4639      	mov	r1, r7
 8003ed2:	47c0      	blx	r8
 8003ed4:	2800      	cmp	r0, #0
 8003ed6:	f040 8200 	bne.w	80042da <cmd_sdc+0x57a>
 8003eda:	4930      	ldr	r1, [pc, #192]	; (8003f9c <cmd_sdc+0x23c>)
 8003edc:	4620      	mov	r0, r4
 8003ede:	f7fd fd57 	bl	8001990 <chprintf.lto_priv.57>
 8003ee2:	9b03      	ldr	r3, [sp, #12]
 8003ee4:	492f      	ldr	r1, [pc, #188]	; (8003fa4 <cmd_sdc+0x244>)
 8003ee6:	f8d3 8000 	ldr.w	r8, [r3]
 8003eea:	4640      	mov	r0, r8
 8003eec:	f7fc fa8c 	bl	8000408 <strcmp>
 8003ef0:	b130      	cbz	r0, 8003f00 <cmd_sdc+0x1a0>
 8003ef2:	4640      	mov	r0, r8
 8003ef4:	4925      	ldr	r1, [pc, #148]	; (8003f8c <cmd_sdc+0x22c>)
 8003ef6:	f7fc fa87 	bl	8000408 <strcmp>
 8003efa:	2800      	cmp	r0, #0
 8003efc:	f040 81d3 	bne.w	80042a6 <cmd_sdc+0x546>
 8003f00:	f44f 6280 	mov.w	r2, #1024	; 0x400
 8003f04:	2100      	movs	r1, #0
 8003f06:	4823      	ldr	r0, [pc, #140]	; (8003f94 <cmd_sdc+0x234>)
 8003f08:	f000 fb12 	bl	8004530 <memset>
 8003f0c:	2100      	movs	r1, #0
 8003f0e:	f44f 6280 	mov.w	r2, #1024	; 0x400
 8003f12:	4825      	ldr	r0, [pc, #148]	; (8003fa8 <cmd_sdc+0x248>)
 8003f14:	f000 fb0c 	bl	8004530 <memset>
 8003f18:	4924      	ldr	r1, [pc, #144]	; (8003fac <cmd_sdc+0x24c>)
 8003f1a:	f8df e09c 	ldr.w	lr, [pc, #156]	; 8003fb8 <cmd_sdc+0x258>
 8003f1e:	f1c5 0508 	rsb	r5, r5, #8
 8003f22:	f501 6c80 	add.w	ip, r1, #1024	; 0x400
 8003f26:	2054      	movs	r0, #84	; 0x54
 8003f28:	186a      	adds	r2, r5, r1
 8003f2a:	0893      	lsrs	r3, r2, #2
 8003f2c:	fbae 8303 	umull	r8, r3, lr, r3
 8003f30:	089b      	lsrs	r3, r3, #2
 8003f32:	fb00 2313 	mls	r3, r0, r3, r2
 8003f36:	f801 3f01 	strb.w	r3, [r1, #1]!
 8003f3a:	4561      	cmp	r1, ip
 8003f3c:	d1f4      	bne.n	8003f28 <cmd_sdc+0x1c8>
 8003f3e:	2302      	movs	r3, #2
 8003f40:	4a14      	ldr	r2, [pc, #80]	; (8003f94 <cmd_sdc+0x234>)
 8003f42:	4809      	ldr	r0, [pc, #36]	; (8003f68 <cmd_sdc+0x208>)
 8003f44:	4639      	mov	r1, r7
 8003f46:	f7ff fdcb 	bl	8003ae0 <sdcWrite>
 8003f4a:	2800      	cmp	r0, #0
 8003f4c:	f000 81f2 	beq.w	8004334 <cmd_sdc+0x5d4>
 8003f50:	4620      	mov	r0, r4
 8003f52:	4917      	ldr	r1, [pc, #92]	; (8003fb0 <cmd_sdc+0x250>)
 8003f54:	f7fd fd1c 	bl	8001990 <chprintf.lto_priv.57>
 8003f58:	e1a5      	b.n	80042a6 <cmd_sdc+0x546>
 8003f5a:	4916      	ldr	r1, [pc, #88]	; (8003fb4 <cmd_sdc+0x254>)
 8003f5c:	4620      	mov	r0, r4
 8003f5e:	b005      	add	sp, #20
 8003f60:	e8bd 4ff0 	ldmia.w	sp!, {r4, r5, r6, r7, r8, r9, sl, fp, lr}
 8003f64:	f7fd bd14 	b.w	8001990 <chprintf.lto_priv.57>
 8003f68:	20000e28 	.word	0x20000e28
 8003f6c:	08004e28 	.word	0x08004e28
 8003f70:	08004e38 	.word	0x08004e38
 8003f74:	08004e4c 	.word	0x08004e4c
 8003f78:	08004e70 	.word	0x08004e70
 8003f7c:	08005110 	.word	0x08005110
 8003f80:	08004e94 	.word	0x08004e94
 8003f84:	08004ea4 	.word	0x08004ea4
 8003f88:	08004eb8 	.word	0x08004eb8
 8003f8c:	08004ec0 	.word	0x08004ec0
 8003f90:	08004fb0 	.word	0x08004fb0
 8003f94:	20000e74 	.word	0x20000e74
 8003f98:	08004fb8 	.word	0x08004fb8
 8003f9c:	08004fc4 	.word	0x08004fc4
 8003fa0:	08004fcc 	.word	0x08004fcc
 8003fa4:	08004fd8 	.word	0x08004fd8
 8003fa8:	20002e78 	.word	0x20002e78
 8003fac:	20000e73 	.word	0x20000e73
 8003fb0:	08004fe0 	.word	0x08004fe0
 8003fb4:	08005040 	.word	0x08005040
 8003fb8:	30c30c31 	.word	0x30c30c31
 8003fbc:	49c9      	ldr	r1, [pc, #804]	; (80042e4 <cmd_sdc+0x584>)
 8003fbe:	4620      	mov	r0, r4
 8003fc0:	f7fd fce6 	bl	8001990 <chprintf.lto_priv.57>
 8003fc4:	2320      	movs	r3, #32
 8003fc6:	f383 8811 	msr	BASEPRI, r3
 8003fca:	f7fd ff99 	bl	8001f00 <_stats_start_measure_crit_thd>
 8003fce:	4dc6      	ldr	r5, [pc, #792]	; (80042e8 <cmd_sdc+0x588>)
 8003fd0:	f7fe f80e 	bl	8001ff0 <_dbg_check_lock>
 8003fd4:	f04f 4380 	mov.w	r3, #1073741824	; 0x40000000
 8003fd8:	f8d3 a024 	ldr.w	sl, [r3, #36]	; 0x24
 8003fdc:	f7fd ffd8 	bl	8001f90 <_dbg_check_unlock>
 8003fe0:	f7fd ff86 	bl	8001ef0 <_stats_stop_measure_crit_thd>
 8003fe4:	682b      	ldr	r3, [r5, #0]
 8003fe6:	42ab      	cmp	r3, r5
 8003fe8:	d005      	beq.n	8003ff6 <cmd_sdc+0x296>
 8003fea:	69aa      	ldr	r2, [r5, #24]
 8003fec:	689b      	ldr	r3, [r3, #8]
 8003fee:	6892      	ldr	r2, [r2, #8]
 8003ff0:	429a      	cmp	r2, r3
 8003ff2:	f0c0 8165 	bcc.w	80042c0 <cmd_sdc+0x560>
 8003ff6:	f04f 0800 	mov.w	r8, #0
 8003ffa:	f388 8811 	msr	BASEPRI, r8
 8003ffe:	f8df 9318 	ldr.w	r9, [pc, #792]	; 8004318 <cmd_sdc+0x5b8>
 8004002:	6833      	ldr	r3, [r6, #0]
 8004004:	48b9      	ldr	r0, [pc, #740]	; (80042ec <cmd_sdc+0x58c>)
 8004006:	f8d3 b010 	ldr.w	fp, [r3, #16]
 800400a:	464a      	mov	r2, r9
 800400c:	2301      	movs	r3, #1
 800400e:	4639      	mov	r1, r7
 8004010:	47d8      	blx	fp
 8004012:	f108 0801 	add.w	r8, r8, #1
 8004016:	2320      	movs	r3, #32
 8004018:	2800      	cmp	r0, #0
 800401a:	f040 815e 	bne.w	80042da <cmd_sdc+0x57a>
 800401e:	f383 8811 	msr	BASEPRI, r3
 8004022:	f7fd ff6d 	bl	8001f00 <_stats_start_measure_crit_thd>
 8004026:	f7fd ffe3 	bl	8001ff0 <_dbg_check_lock>
 800402a:	f04f 4380 	mov.w	r3, #1073741824	; 0x40000000
 800402e:	f8d3 b024 	ldr.w	fp, [r3, #36]	; 0x24
 8004032:	f7fd ffad 	bl	8001f90 <_dbg_check_unlock>
 8004036:	f7fd ff5b 	bl	8001ef0 <_stats_stop_measure_crit_thd>
 800403a:	682b      	ldr	r3, [r5, #0]
 800403c:	42ab      	cmp	r3, r5
 800403e:	f04f 0200 	mov.w	r2, #0
 8004042:	d005      	beq.n	8004050 <cmd_sdc+0x2f0>
 8004044:	69a9      	ldr	r1, [r5, #24]
 8004046:	689b      	ldr	r3, [r3, #8]
 8004048:	6889      	ldr	r1, [r1, #8]
 800404a:	4299      	cmp	r1, r3
 800404c:	f0c0 813f 	bcc.w	80042ce <cmd_sdc+0x56e>
 8004050:	f382 8811 	msr	BASEPRI, r2
 8004054:	f242 730f 	movw	r3, #9999	; 0x270f
 8004058:	ebab 0b0a 	sub.w	fp, fp, sl
 800405c:	459b      	cmp	fp, r3
 800405e:	d9d0      	bls.n	8004002 <cmd_sdc+0x2a2>
 8004060:	ea4f 2348 	mov.w	r3, r8, lsl #9
 8004064:	4642      	mov	r2, r8
 8004066:	49a2      	ldr	r1, [pc, #648]	; (80042f0 <cmd_sdc+0x590>)
 8004068:	4620      	mov	r0, r4
 800406a:	f7fd fc91 	bl	8001990 <chprintf.lto_priv.57>
 800406e:	49a1      	ldr	r1, [pc, #644]	; (80042f4 <cmd_sdc+0x594>)
 8004070:	4620      	mov	r0, r4
 8004072:	f7fd fc8d 	bl	8001990 <chprintf.lto_priv.57>
 8004076:	2320      	movs	r3, #32
 8004078:	f383 8811 	msr	BASEPRI, r3
 800407c:	f7fd ff40 	bl	8001f00 <_stats_start_measure_crit_thd>
 8004080:	f7fd ffb6 	bl	8001ff0 <_dbg_check_lock>
 8004084:	f04f 4380 	mov.w	r3, #1073741824	; 0x40000000
 8004088:	f8d3 a024 	ldr.w	sl, [r3, #36]	; 0x24
 800408c:	f7fd ff80 	bl	8001f90 <_dbg_check_unlock>
 8004090:	f7fd ff2e 	bl	8001ef0 <_stats_stop_measure_crit_thd>
 8004094:	682b      	ldr	r3, [r5, #0]
 8004096:	42ab      	cmp	r3, r5
 8004098:	d005      	beq.n	80040a6 <cmd_sdc+0x346>
 800409a:	69aa      	ldr	r2, [r5, #24]
 800409c:	689b      	ldr	r3, [r3, #8]
 800409e:	6892      	ldr	r2, [r2, #8]
 80040a0:	429a      	cmp	r2, r3
 80040a2:	f0c0 813f 	bcc.w	8004324 <cmd_sdc+0x5c4>
 80040a6:	f04f 0800 	mov.w	r8, #0
 80040aa:	f388 8811 	msr	BASEPRI, r8
 80040ae:	f8df 9268 	ldr.w	r9, [pc, #616]	; 8004318 <cmd_sdc+0x5b8>
 80040b2:	6833      	ldr	r3, [r6, #0]
 80040b4:	488d      	ldr	r0, [pc, #564]	; (80042ec <cmd_sdc+0x58c>)
 80040b6:	f8d3 b010 	ldr.w	fp, [r3, #16]
 80040ba:	464a      	mov	r2, r9
 80040bc:	2310      	movs	r3, #16
 80040be:	4639      	mov	r1, r7
 80040c0:	47d8      	blx	fp
 80040c2:	f108 0810 	add.w	r8, r8, #16
 80040c6:	2320      	movs	r3, #32
 80040c8:	2800      	cmp	r0, #0
 80040ca:	f040 8106 	bne.w	80042da <cmd_sdc+0x57a>
 80040ce:	f383 8811 	msr	BASEPRI, r3
 80040d2:	f7fd ff15 	bl	8001f00 <_stats_start_measure_crit_thd>
 80040d6:	f7fd ff8b 	bl	8001ff0 <_dbg_check_lock>
 80040da:	f04f 4380 	mov.w	r3, #1073741824	; 0x40000000
 80040de:	f8d3 b024 	ldr.w	fp, [r3, #36]	; 0x24
 80040e2:	f7fd ff55 	bl	8001f90 <_dbg_check_unlock>
 80040e6:	f7fd ff03 	bl	8001ef0 <_stats_stop_measure_crit_thd>
 80040ea:	682b      	ldr	r3, [r5, #0]
 80040ec:	42ab      	cmp	r3, r5
 80040ee:	f04f 0200 	mov.w	r2, #0
 80040f2:	d005      	beq.n	8004100 <cmd_sdc+0x3a0>
 80040f4:	69a9      	ldr	r1, [r5, #24]
 80040f6:	689b      	ldr	r3, [r3, #8]
 80040f8:	6889      	ldr	r1, [r1, #8]
 80040fa:	4299      	cmp	r1, r3
 80040fc:	f0c0 8116 	bcc.w	800432c <cmd_sdc+0x5cc>
 8004100:	f382 8811 	msr	BASEPRI, r2
 8004104:	f242 730f 	movw	r3, #9999	; 0x270f
 8004108:	ebab 0b0a 	sub.w	fp, fp, sl
 800410c:	459b      	cmp	fp, r3
 800410e:	d9d0      	bls.n	80040b2 <cmd_sdc+0x352>
 8004110:	ea4f 2348 	mov.w	r3, r8, lsl #9
 8004114:	4642      	mov	r2, r8
 8004116:	4976      	ldr	r1, [pc, #472]	; (80042f0 <cmd_sdc+0x590>)
 8004118:	4620      	mov	r0, r4
 800411a:	f7fd fc39 	bl	8001990 <chprintf.lto_priv.57>
 800411e:	4976      	ldr	r1, [pc, #472]	; (80042f8 <cmd_sdc+0x598>)
 8004120:	4620      	mov	r0, r4
 8004122:	f7fd fc35 	bl	8001990 <chprintf.lto_priv.57>
 8004126:	2320      	movs	r3, #32
 8004128:	f383 8811 	msr	BASEPRI, r3
 800412c:	f7fd fee8 	bl	8001f00 <_stats_start_measure_crit_thd>
 8004130:	f7fd ff5e 	bl	8001ff0 <_dbg_check_lock>
 8004134:	f04f 4380 	mov.w	r3, #1073741824	; 0x40000000
 8004138:	f8d3 a024 	ldr.w	sl, [r3, #36]	; 0x24
 800413c:	f7fd ff28 	bl	8001f90 <_dbg_check_unlock>
 8004140:	f7fd fed6 	bl	8001ef0 <_stats_stop_measure_crit_thd>
 8004144:	682b      	ldr	r3, [r5, #0]
 8004146:	42ab      	cmp	r3, r5
 8004148:	d005      	beq.n	8004156 <cmd_sdc+0x3f6>
 800414a:	69aa      	ldr	r2, [r5, #24]
 800414c:	689b      	ldr	r3, [r3, #8]
 800414e:	6892      	ldr	r2, [r2, #8]
 8004150:	429a      	cmp	r2, r3
 8004152:	f0c0 814c 	bcc.w	80043ee <cmd_sdc+0x68e>
 8004156:	f04f 0800 	mov.w	r8, #0
 800415a:	f388 8811 	msr	BASEPRI, r8
 800415e:	f8df 91c0 	ldr.w	r9, [pc, #448]	; 8004320 <cmd_sdc+0x5c0>
 8004162:	6833      	ldr	r3, [r6, #0]
 8004164:	4861      	ldr	r0, [pc, #388]	; (80042ec <cmd_sdc+0x58c>)
 8004166:	f8d3 b010 	ldr.w	fp, [r3, #16]
 800416a:	464a      	mov	r2, r9
 800416c:	2301      	movs	r3, #1
 800416e:	4639      	mov	r1, r7
 8004170:	47d8      	blx	fp
 8004172:	f108 0801 	add.w	r8, r8, #1
 8004176:	2320      	movs	r3, #32
 8004178:	2800      	cmp	r0, #0
 800417a:	f040 80ae 	bne.w	80042da <cmd_sdc+0x57a>
 800417e:	f383 8811 	msr	BASEPRI, r3
 8004182:	f7fd febd 	bl	8001f00 <_stats_start_measure_crit_thd>
 8004186:	f7fd ff33 	bl	8001ff0 <_dbg_check_lock>
 800418a:	f04f 4380 	mov.w	r3, #1073741824	; 0x40000000
 800418e:	f8d3 b024 	ldr.w	fp, [r3, #36]	; 0x24
 8004192:	f7fd fefd 	bl	8001f90 <_dbg_check_unlock>
 8004196:	f7fd feab 	bl	8001ef0 <_stats_stop_measure_crit_thd>
 800419a:	682b      	ldr	r3, [r5, #0]
 800419c:	42ab      	cmp	r3, r5
 800419e:	f04f 0200 	mov.w	r2, #0
 80041a2:	d005      	beq.n	80041b0 <cmd_sdc+0x450>
 80041a4:	69a9      	ldr	r1, [r5, #24]
 80041a6:	689b      	ldr	r3, [r3, #8]
 80041a8:	6889      	ldr	r1, [r1, #8]
 80041aa:	4299      	cmp	r1, r3
 80041ac:	f0c0 80ce 	bcc.w	800434c <cmd_sdc+0x5ec>
 80041b0:	f382 8811 	msr	BASEPRI, r2
 80041b4:	f242 730f 	movw	r3, #9999	; 0x270f
 80041b8:	ebab 0b0a 	sub.w	fp, fp, sl
 80041bc:	459b      	cmp	fp, r3
 80041be:	d9d0      	bls.n	8004162 <cmd_sdc+0x402>
 80041c0:	ea4f 2348 	mov.w	r3, r8, lsl #9
 80041c4:	4642      	mov	r2, r8
 80041c6:	494a      	ldr	r1, [pc, #296]	; (80042f0 <cmd_sdc+0x590>)
 80041c8:	4620      	mov	r0, r4
 80041ca:	f7fd fbe1 	bl	8001990 <chprintf.lto_priv.57>
 80041ce:	494b      	ldr	r1, [pc, #300]	; (80042fc <cmd_sdc+0x59c>)
 80041d0:	4620      	mov	r0, r4
 80041d2:	f7fd fbdd 	bl	8001990 <chprintf.lto_priv.57>
 80041d6:	2320      	movs	r3, #32
 80041d8:	f383 8811 	msr	BASEPRI, r3
 80041dc:	f7fd fe90 	bl	8001f00 <_stats_start_measure_crit_thd>
 80041e0:	f7fd ff06 	bl	8001ff0 <_dbg_check_lock>
 80041e4:	f04f 4380 	mov.w	r3, #1073741824	; 0x40000000
 80041e8:	f8d3 a024 	ldr.w	sl, [r3, #36]	; 0x24
 80041ec:	f7fd fed0 	bl	8001f90 <_dbg_check_unlock>
 80041f0:	f7fd fe7e 	bl	8001ef0 <_stats_stop_measure_crit_thd>
 80041f4:	682b      	ldr	r3, [r5, #0]
 80041f6:	42ab      	cmp	r3, r5
 80041f8:	d005      	beq.n	8004206 <cmd_sdc+0x4a6>
 80041fa:	69aa      	ldr	r2, [r5, #24]
 80041fc:	689b      	ldr	r3, [r3, #8]
 80041fe:	6892      	ldr	r2, [r2, #8]
 8004200:	429a      	cmp	r2, r3
 8004202:	f0c0 80f0 	bcc.w	80043e6 <cmd_sdc+0x686>
 8004206:	f04f 0800 	mov.w	r8, #0
 800420a:	f388 8811 	msr	BASEPRI, r8
 800420e:	f8df 9110 	ldr.w	r9, [pc, #272]	; 8004320 <cmd_sdc+0x5c0>
 8004212:	6833      	ldr	r3, [r6, #0]
 8004214:	4835      	ldr	r0, [pc, #212]	; (80042ec <cmd_sdc+0x58c>)
 8004216:	f8d3 b010 	ldr.w	fp, [r3, #16]
 800421a:	464a      	mov	r2, r9
 800421c:	2310      	movs	r3, #16
 800421e:	4639      	mov	r1, r7
 8004220:	47d8      	blx	fp
 8004222:	f108 0810 	add.w	r8, r8, #16
 8004226:	2320      	movs	r3, #32
 8004228:	2800      	cmp	r0, #0
 800422a:	d156      	bne.n	80042da <cmd_sdc+0x57a>
 800422c:	f383 8811 	msr	BASEPRI, r3
 8004230:	f7fd fe66 	bl	8001f00 <_stats_start_measure_crit_thd>
 8004234:	f7fd fedc 	bl	8001ff0 <_dbg_check_lock>
 8004238:	f04f 4380 	mov.w	r3, #1073741824	; 0x40000000
 800423c:	f8d3 b024 	ldr.w	fp, [r3, #36]	; 0x24
 8004240:	f7fd fea6 	bl	8001f90 <_dbg_check_unlock>
 8004244:	f7fd fe54 	bl	8001ef0 <_stats_stop_measure_crit_thd>
 8004248:	682b      	ldr	r3, [r5, #0]
 800424a:	42ab      	cmp	r3, r5
 800424c:	f04f 0200 	mov.w	r2, #0
 8004250:	d005      	beq.n	800425e <cmd_sdc+0x4fe>
 8004252:	69a9      	ldr	r1, [r5, #24]
 8004254:	689b      	ldr	r3, [r3, #8]
 8004256:	6889      	ldr	r1, [r1, #8]
 8004258:	4299      	cmp	r1, r3
 800425a:	f0c0 80cc 	bcc.w	80043f6 <cmd_sdc+0x696>
 800425e:	f382 8811 	msr	BASEPRI, r2
 8004262:	f242 730f 	movw	r3, #9999	; 0x270f
 8004266:	ebab 0b0a 	sub.w	fp, fp, sl
 800426a:	459b      	cmp	fp, r3
 800426c:	d9d1      	bls.n	8004212 <cmd_sdc+0x4b2>
 800426e:	ea4f 2348 	mov.w	r3, r8, lsl #9
 8004272:	491f      	ldr	r1, [pc, #124]	; (80042f0 <cmd_sdc+0x590>)
 8004274:	4642      	mov	r2, r8
 8004276:	4620      	mov	r0, r4
 8004278:	f7fd fb8a 	bl	8001990 <chprintf.lto_priv.57>
 800427c:	9b03      	ldr	r3, [sp, #12]
 800427e:	4920      	ldr	r1, [pc, #128]	; (8004300 <cmd_sdc+0x5a0>)
 8004280:	681d      	ldr	r5, [r3, #0]
 8004282:	4628      	mov	r0, r5
 8004284:	f7fc f8c0 	bl	8000408 <strcmp>
 8004288:	2800      	cmp	r0, #0
 800428a:	f43f adc4 	beq.w	8003e16 <cmd_sdc+0xb6>
 800428e:	491d      	ldr	r1, [pc, #116]	; (8004304 <cmd_sdc+0x5a4>)
 8004290:	4628      	mov	r0, r5
 8004292:	f7fc f8b9 	bl	8000408 <strcmp>
 8004296:	2800      	cmp	r0, #0
 8004298:	f43f adbd 	beq.w	8003e16 <cmd_sdc+0xb6>
 800429c:	4628      	mov	r0, r5
 800429e:	491a      	ldr	r1, [pc, #104]	; (8004308 <cmd_sdc+0x5a8>)
 80042a0:	f7fc f8b2 	bl	8000408 <strcmp>
 80042a4:	b1b8      	cbz	r0, 80042d6 <cmd_sdc+0x576>
 80042a6:	4811      	ldr	r0, [pc, #68]	; (80042ec <cmd_sdc+0x58c>)
 80042a8:	b005      	add	sp, #20
 80042aa:	e8bd 4ff0 	ldmia.w	sp!, {r4, r5, r6, r7, r8, r9, sl, fp, lr}
 80042ae:	f7ff bcf7 	b.w	8003ca0 <sdcDisconnect>
 80042b2:	4916      	ldr	r1, [pc, #88]	; (800430c <cmd_sdc+0x5ac>)
 80042b4:	4620      	mov	r0, r4
 80042b6:	b005      	add	sp, #20
 80042b8:	e8bd 4ff0 	ldmia.w	sp!, {r4, r5, r6, r7, r8, r9, sl, fp, lr}
 80042bc:	f7fd bb68 	b.w	8001990 <chprintf.lto_priv.57>
 80042c0:	b672      	cpsid	i
 80042c2:	4b13      	ldr	r3, [pc, #76]	; (8004310 <cmd_sdc+0x5b0>)
 80042c4:	62eb      	str	r3, [r5, #44]	; 0x2c
 80042c6:	e7fe      	b.n	80042c6 <cmd_sdc+0x566>
 80042c8:	4912      	ldr	r1, [pc, #72]	; (8004314 <cmd_sdc+0x5b4>)
 80042ca:	f7fd bb61 	b.w	8001990 <chprintf.lto_priv.57>
 80042ce:	b672      	cpsid	i
 80042d0:	4b0f      	ldr	r3, [pc, #60]	; (8004310 <cmd_sdc+0x5b0>)
 80042d2:	62eb      	str	r3, [r5, #44]	; 0x2c
 80042d4:	e7fe      	b.n	80042d4 <cmd_sdc+0x574>
 80042d6:	4d10      	ldr	r5, [pc, #64]	; (8004318 <cmd_sdc+0x5b8>)
 80042d8:	e612      	b.n	8003f00 <cmd_sdc+0x1a0>
 80042da:	4620      	mov	r0, r4
 80042dc:	490f      	ldr	r1, [pc, #60]	; (800431c <cmd_sdc+0x5bc>)
 80042de:	f7fd fb57 	bl	8001990 <chprintf.lto_priv.57>
 80042e2:	e7e0      	b.n	80042a6 <cmd_sdc+0x546>
 80042e4:	08004ec4 	.word	0x08004ec4
 80042e8:	20004e78 	.word	0x20004e78
 80042ec:	20000e28 	.word	0x20000e28
 80042f0:	08004ef8 	.word	0x08004ef8
 80042f4:	08004f14 	.word	0x08004f14
 80042f8:	08004f48 	.word	0x08004f48
 80042fc:	08004f7c 	.word	0x08004f7c
 8004300:	08004fb0 	.word	0x08004fb0
 8004304:	08004ec0 	.word	0x08004ec0
 8004308:	08004fd8 	.word	0x08004fd8
 800430c:	08004e08 	.word	0x08004e08
 8004310:	08004800 	.word	0x08004800
 8004314:	08004de0 	.word	0x08004de0
 8004318:	20000e74 	.word	0x20000e74
 800431c:	08005040 	.word	0x08005040
 8004320:	20000e75 	.word	0x20000e75
 8004324:	b672      	cpsid	i
 8004326:	4b4e      	ldr	r3, [pc, #312]	; (8004460 <cmd_sdc+0x700>)
 8004328:	62eb      	str	r3, [r5, #44]	; 0x2c
 800432a:	e7fe      	b.n	800432a <cmd_sdc+0x5ca>
 800432c:	b672      	cpsid	i
 800432e:	4b4c      	ldr	r3, [pc, #304]	; (8004460 <cmd_sdc+0x700>)
 8004330:	62eb      	str	r3, [r5, #44]	; 0x2c
 8004332:	e7fe      	b.n	8004332 <cmd_sdc+0x5d2>
 8004334:	1cbd      	adds	r5, r7, #2
 8004336:	4629      	mov	r1, r5
 8004338:	1c78      	adds	r0, r7, #1
 800433a:	f7ff f931 	bl	80035a0 <sdcErase.constprop.9>
 800433e:	4601      	mov	r1, r0
 8004340:	b140      	cbz	r0, 8004354 <cmd_sdc+0x5f4>
 8004342:	4620      	mov	r0, r4
 8004344:	4947      	ldr	r1, [pc, #284]	; (8004464 <cmd_sdc+0x704>)
 8004346:	f7fd fb23 	bl	8001990 <chprintf.lto_priv.57>
 800434a:	e7ac      	b.n	80042a6 <cmd_sdc+0x546>
 800434c:	b672      	cpsid	i
 800434e:	4b44      	ldr	r3, [pc, #272]	; (8004460 <cmd_sdc+0x700>)
 8004350:	62eb      	str	r3, [r5, #44]	; 0x2c
 8004352:	e7fe      	b.n	8004352 <cmd_sdc+0x5f2>
 8004354:	7933      	ldrb	r3, [r6, #4]
 8004356:	2b05      	cmp	r3, #5
 8004358:	d004      	beq.n	8004364 <cmd_sdc+0x604>
 800435a:	b672      	cpsid	i
 800435c:	4b42      	ldr	r3, [pc, #264]	; (8004468 <cmd_sdc+0x708>)
 800435e:	4a43      	ldr	r2, [pc, #268]	; (800446c <cmd_sdc+0x70c>)
 8004360:	62da      	str	r2, [r3, #44]	; 0x2c
 8004362:	e7fe      	b.n	8004362 <cmd_sdc+0x602>
 8004364:	2320      	movs	r3, #32
 8004366:	f383 8811 	msr	BASEPRI, r3
 800436a:	f7fd fdc9 	bl	8001f00 <_stats_start_measure_crit_thd>
 800436e:	f7fd fe3f 	bl	8001ff0 <_dbg_check_lock>
 8004372:	f8d6 8034 	ldr.w	r8, [r6, #52]	; 0x34
 8004376:	6371      	str	r1, [r6, #52]	; 0x34
 8004378:	f7fd fe0a 	bl	8001f90 <_dbg_check_unlock>
 800437c:	f7fd fdb8 	bl	8001ef0 <_stats_stop_measure_crit_thd>
 8004380:	4b39      	ldr	r3, [pc, #228]	; (8004468 <cmd_sdc+0x708>)
 8004382:	681a      	ldr	r2, [r3, #0]
 8004384:	429a      	cmp	r2, r3
 8004386:	d004      	beq.n	8004392 <cmd_sdc+0x632>
 8004388:	6999      	ldr	r1, [r3, #24]
 800438a:	6892      	ldr	r2, [r2, #8]
 800438c:	6889      	ldr	r1, [r1, #8]
 800438e:	4291      	cmp	r1, r2
 8004390:	d30b      	bcc.n	80043aa <cmd_sdc+0x64a>
 8004392:	2300      	movs	r3, #0
 8004394:	f383 8811 	msr	BASEPRI, r3
 8004398:	f1b8 0f00 	cmp.w	r8, #0
 800439c:	d009      	beq.n	80043b2 <cmd_sdc+0x652>
 800439e:	4642      	mov	r2, r8
 80043a0:	4620      	mov	r0, r4
 80043a2:	4933      	ldr	r1, [pc, #204]	; (8004470 <cmd_sdc+0x710>)
 80043a4:	f7fd faf4 	bl	8001990 <chprintf.lto_priv.57>
 80043a8:	e77d      	b.n	80042a6 <cmd_sdc+0x546>
 80043aa:	b672      	cpsid	i
 80043ac:	4a31      	ldr	r2, [pc, #196]	; (8004474 <cmd_sdc+0x714>)
 80043ae:	62da      	str	r2, [r3, #44]	; 0x2c
 80043b0:	e7fe      	b.n	80043b0 <cmd_sdc+0x650>
 80043b2:	2302      	movs	r3, #2
 80043b4:	4a30      	ldr	r2, [pc, #192]	; (8004478 <cmd_sdc+0x718>)
 80043b6:	4831      	ldr	r0, [pc, #196]	; (800447c <cmd_sdc+0x71c>)
 80043b8:	4639      	mov	r1, r7
 80043ba:	f7ff fc01 	bl	8003bc0 <sdcRead>
 80043be:	bb68      	cbnz	r0, 800441c <cmd_sdc+0x6bc>
 80043c0:	f44f 7200 	mov.w	r2, #512	; 0x200
 80043c4:	492c      	ldr	r1, [pc, #176]	; (8004478 <cmd_sdc+0x718>)
 80043c6:	482e      	ldr	r0, [pc, #184]	; (8004480 <cmd_sdc+0x720>)
 80043c8:	f000 f87a 	bl	80044c0 <memcmp>
 80043cc:	bb08      	cbnz	r0, 8004412 <cmd_sdc+0x6b2>
 80043ce:	f44f 7200 	mov.w	r2, #512	; 0x200
 80043d2:	492c      	ldr	r1, [pc, #176]	; (8004484 <cmd_sdc+0x724>)
 80043d4:	482c      	ldr	r0, [pc, #176]	; (8004488 <cmd_sdc+0x728>)
 80043d6:	f000 f873 	bl	80044c0 <memcmp>
 80043da:	b980      	cbnz	r0, 80043fe <cmd_sdc+0x69e>
 80043dc:	4620      	mov	r0, r4
 80043de:	492b      	ldr	r1, [pc, #172]	; (800448c <cmd_sdc+0x72c>)
 80043e0:	f7fd fad6 	bl	8001990 <chprintf.lto_priv.57>
 80043e4:	e75f      	b.n	80042a6 <cmd_sdc+0x546>
 80043e6:	b672      	cpsid	i
 80043e8:	4b1d      	ldr	r3, [pc, #116]	; (8004460 <cmd_sdc+0x700>)
 80043ea:	62eb      	str	r3, [r5, #44]	; 0x2c
 80043ec:	e7fe      	b.n	80043ec <cmd_sdc+0x68c>
 80043ee:	b672      	cpsid	i
 80043f0:	4b1b      	ldr	r3, [pc, #108]	; (8004460 <cmd_sdc+0x700>)
 80043f2:	62eb      	str	r3, [r5, #44]	; 0x2c
 80043f4:	e7fe      	b.n	80043f4 <cmd_sdc+0x694>
 80043f6:	b672      	cpsid	i
 80043f8:	4b19      	ldr	r3, [pc, #100]	; (8004460 <cmd_sdc+0x700>)
 80043fa:	62eb      	str	r3, [r5, #44]	; 0x2c
 80043fc:	e7fe      	b.n	80043fc <cmd_sdc+0x69c>
 80043fe:	4629      	mov	r1, r5
 8004400:	4638      	mov	r0, r7
 8004402:	f7ff f8cd 	bl	80035a0 <sdcErase.constprop.9>
 8004406:	b170      	cbz	r0, 8004426 <cmd_sdc+0x6c6>
 8004408:	4620      	mov	r0, r4
 800440a:	4921      	ldr	r1, [pc, #132]	; (8004490 <cmd_sdc+0x730>)
 800440c:	f7fd fac0 	bl	8001990 <chprintf.lto_priv.57>
 8004410:	e749      	b.n	80042a6 <cmd_sdc+0x546>
 8004412:	4620      	mov	r0, r4
 8004414:	491f      	ldr	r1, [pc, #124]	; (8004494 <cmd_sdc+0x734>)
 8004416:	f7fd fabb 	bl	8001990 <chprintf.lto_priv.57>
 800441a:	e744      	b.n	80042a6 <cmd_sdc+0x546>
 800441c:	4620      	mov	r0, r4
 800441e:	491e      	ldr	r1, [pc, #120]	; (8004498 <cmd_sdc+0x738>)
 8004420:	f7fd fab6 	bl	8001990 <chprintf.lto_priv.57>
 8004424:	e73f      	b.n	80042a6 <cmd_sdc+0x546>
 8004426:	4639      	mov	r1, r7
 8004428:	2302      	movs	r3, #2
 800442a:	4a13      	ldr	r2, [pc, #76]	; (8004478 <cmd_sdc+0x718>)
 800442c:	4813      	ldr	r0, [pc, #76]	; (800447c <cmd_sdc+0x71c>)
 800442e:	f7ff fbc7 	bl	8003bc0 <sdcRead>
 8004432:	2800      	cmp	r0, #0
 8004434:	d1f2      	bne.n	800441c <cmd_sdc+0x6bc>
 8004436:	f44f 7200 	mov.w	r2, #512	; 0x200
 800443a:	490f      	ldr	r1, [pc, #60]	; (8004478 <cmd_sdc+0x718>)
 800443c:	4810      	ldr	r0, [pc, #64]	; (8004480 <cmd_sdc+0x720>)
 800443e:	f000 f83f 	bl	80044c0 <memcmp>
 8004442:	b140      	cbz	r0, 8004456 <cmd_sdc+0x6f6>
 8004444:	f44f 7200 	mov.w	r2, #512	; 0x200
 8004448:	490e      	ldr	r1, [pc, #56]	; (8004484 <cmd_sdc+0x724>)
 800444a:	480f      	ldr	r0, [pc, #60]	; (8004488 <cmd_sdc+0x728>)
 800444c:	f000 f838 	bl	80044c0 <memcmp>
 8004450:	2800      	cmp	r0, #0
 8004452:	f47f af28 	bne.w	80042a6 <cmd_sdc+0x546>
 8004456:	4620      	mov	r0, r4
 8004458:	4910      	ldr	r1, [pc, #64]	; (800449c <cmd_sdc+0x73c>)
 800445a:	f7fd fa99 	bl	8001990 <chprintf.lto_priv.57>
 800445e:	e722      	b.n	80042a6 <cmd_sdc+0x546>
 8004460:	08004800 	.word	0x08004800
 8004464:	08005088 	.word	0x08005088
 8004468:	20004e78 	.word	0x20004e78
 800446c:	08004a40 	.word	0x08004a40
 8004470:	08005000 	.word	0x08005000
 8004474:	080047d0 	.word	0x080047d0
 8004478:	20002e78 	.word	0x20002e78
 800447c:	20000e28 	.word	0x20000e28
 8004480:	20000e74 	.word	0x20000e74
 8004484:	20003078 	.word	0x20003078
 8004488:	20001074 	.word	0x20001074
 800448c:	080050a8 	.word	0x080050a8
 8004490:	0800507c 	.word	0x0800507c
 8004494:	0800504c 	.word	0x0800504c
 8004498:	08005028 	.word	0x08005028
 800449c:	0800509c 	.word	0x0800509c

080044a0 <__default_exit>:
 80044a0:	e7fe      	b.n	80044a0 <__default_exit>
 80044a2:	bf00      	nop
	...

080044b0 <__late_init>:
 80044b0:	4770      	bx	lr
 80044b2:	bf00      	nop
	...

080044c0 <memcmp>:
 80044c0:	2a03      	cmp	r2, #3
 80044c2:	b470      	push	{r4, r5, r6}
 80044c4:	d914      	bls.n	80044f0 <memcmp+0x30>
 80044c6:	ea40 0501 	orr.w	r5, r0, r1
 80044ca:	07ad      	lsls	r5, r5, #30
 80044cc:	4604      	mov	r4, r0
 80044ce:	460b      	mov	r3, r1
 80044d0:	d122      	bne.n	8004518 <memcmp+0x58>
 80044d2:	681d      	ldr	r5, [r3, #0]
 80044d4:	6826      	ldr	r6, [r4, #0]
 80044d6:	42ae      	cmp	r6, r5
 80044d8:	4619      	mov	r1, r3
 80044da:	4620      	mov	r0, r4
 80044dc:	f103 0304 	add.w	r3, r3, #4
 80044e0:	f104 0404 	add.w	r4, r4, #4
 80044e4:	d118      	bne.n	8004518 <memcmp+0x58>
 80044e6:	3a04      	subs	r2, #4
 80044e8:	2a03      	cmp	r2, #3
 80044ea:	4620      	mov	r0, r4
 80044ec:	4619      	mov	r1, r3
 80044ee:	d8f0      	bhi.n	80044d2 <memcmp+0x12>
 80044f0:	1e54      	subs	r4, r2, #1
 80044f2:	b172      	cbz	r2, 8004512 <memcmp+0x52>
 80044f4:	7802      	ldrb	r2, [r0, #0]
 80044f6:	780b      	ldrb	r3, [r1, #0]
 80044f8:	429a      	cmp	r2, r3
 80044fa:	bf08      	it	eq
 80044fc:	1864      	addeq	r4, r4, r1
 80044fe:	d006      	beq.n	800450e <memcmp+0x4e>
 8004500:	e00c      	b.n	800451c <memcmp+0x5c>
 8004502:	f810 2f01 	ldrb.w	r2, [r0, #1]!
 8004506:	f811 3f01 	ldrb.w	r3, [r1, #1]!
 800450a:	429a      	cmp	r2, r3
 800450c:	d106      	bne.n	800451c <memcmp+0x5c>
 800450e:	42a1      	cmp	r1, r4
 8004510:	d1f7      	bne.n	8004502 <memcmp+0x42>
 8004512:	2000      	movs	r0, #0
 8004514:	bc70      	pop	{r4, r5, r6}
 8004516:	4770      	bx	lr
 8004518:	1e54      	subs	r4, r2, #1
 800451a:	e7eb      	b.n	80044f4 <memcmp+0x34>
 800451c:	1ad0      	subs	r0, r2, r3
 800451e:	bc70      	pop	{r4, r5, r6}
 8004520:	4770      	bx	lr
 8004522:	bf00      	nop
	...

08004530 <memset>:
 8004530:	b4f0      	push	{r4, r5, r6, r7}
 8004532:	0786      	lsls	r6, r0, #30
 8004534:	d043      	beq.n	80045be <memset+0x8e>
 8004536:	1e54      	subs	r4, r2, #1
 8004538:	2a00      	cmp	r2, #0
 800453a:	d03e      	beq.n	80045ba <memset+0x8a>
 800453c:	b2ca      	uxtb	r2, r1
 800453e:	4603      	mov	r3, r0
 8004540:	e002      	b.n	8004548 <memset+0x18>
 8004542:	f114 34ff 	adds.w	r4, r4, #4294967295	; 0xffffffff
 8004546:	d338      	bcc.n	80045ba <memset+0x8a>
 8004548:	f803 2b01 	strb.w	r2, [r3], #1
 800454c:	079d      	lsls	r5, r3, #30
 800454e:	d1f8      	bne.n	8004542 <memset+0x12>
 8004550:	2c03      	cmp	r4, #3
 8004552:	d92b      	bls.n	80045ac <memset+0x7c>
 8004554:	b2cd      	uxtb	r5, r1
 8004556:	ea45 2505 	orr.w	r5, r5, r5, lsl #8
 800455a:	2c0f      	cmp	r4, #15
 800455c:	ea45 4505 	orr.w	r5, r5, r5, lsl #16
 8004560:	d916      	bls.n	8004590 <memset+0x60>
 8004562:	f1a4 0710 	sub.w	r7, r4, #16
 8004566:	093f      	lsrs	r7, r7, #4
 8004568:	f103 0620 	add.w	r6, r3, #32
 800456c:	eb06 1607 	add.w	r6, r6, r7, lsl #4
 8004570:	f103 0210 	add.w	r2, r3, #16
 8004574:	e942 5504 	strd	r5, r5, [r2, #-16]
 8004578:	e942 5502 	strd	r5, r5, [r2, #-8]
 800457c:	3210      	adds	r2, #16
 800457e:	42b2      	cmp	r2, r6
 8004580:	d1f8      	bne.n	8004574 <memset+0x44>
 8004582:	f004 040f 	and.w	r4, r4, #15
 8004586:	3701      	adds	r7, #1
 8004588:	2c03      	cmp	r4, #3
 800458a:	eb03 1307 	add.w	r3, r3, r7, lsl #4
 800458e:	d90d      	bls.n	80045ac <memset+0x7c>
 8004590:	461e      	mov	r6, r3
 8004592:	4622      	mov	r2, r4
 8004594:	3a04      	subs	r2, #4
 8004596:	2a03      	cmp	r2, #3
 8004598:	f846 5b04 	str.w	r5, [r6], #4
 800459c:	d8fa      	bhi.n	8004594 <memset+0x64>
 800459e:	1f22      	subs	r2, r4, #4
 80045a0:	f022 0203 	bic.w	r2, r2, #3
 80045a4:	3204      	adds	r2, #4
 80045a6:	4413      	add	r3, r2
 80045a8:	f004 0403 	and.w	r4, r4, #3
 80045ac:	b12c      	cbz	r4, 80045ba <memset+0x8a>
 80045ae:	b2c9      	uxtb	r1, r1
 80045b0:	441c      	add	r4, r3
 80045b2:	f803 1b01 	strb.w	r1, [r3], #1
 80045b6:	429c      	cmp	r4, r3
 80045b8:	d1fb      	bne.n	80045b2 <memset+0x82>
 80045ba:	bcf0      	pop	{r4, r5, r6, r7}
 80045bc:	4770      	bx	lr
 80045be:	4614      	mov	r4, r2
 80045c0:	4603      	mov	r3, r0
 80045c2:	e7c5      	b.n	8004550 <memset+0x20>
	...

080045d0 <strcasecmp>:
 80045d0:	b5f8      	push	{r3, r4, r5, r6, r7, lr}
 80045d2:	4607      	mov	r7, r0
 80045d4:	460e      	mov	r6, r1
 80045d6:	f817 4b01 	ldrb.w	r4, [r7], #1
 80045da:	f000 f869 	bl	80046b0 <__locale_ctype_ptr>
 80045de:	4420      	add	r0, r4
 80045e0:	f816 5b01 	ldrb.w	r5, [r6], #1
 80045e4:	7843      	ldrb	r3, [r0, #1]
 80045e6:	f003 0303 	and.w	r3, r3, #3
 80045ea:	2b01      	cmp	r3, #1
 80045ec:	bf08      	it	eq
 80045ee:	3420      	addeq	r4, #32
 80045f0:	f000 f85e 	bl	80046b0 <__locale_ctype_ptr>
 80045f4:	4428      	add	r0, r5
 80045f6:	7843      	ldrb	r3, [r0, #1]
 80045f8:	f003 0303 	and.w	r3, r3, #3
 80045fc:	2b01      	cmp	r3, #1
 80045fe:	d004      	beq.n	800460a <strcasecmp+0x3a>
 8004600:	1b60      	subs	r0, r4, r5
 8004602:	d101      	bne.n	8004608 <strcasecmp+0x38>
 8004604:	2d00      	cmp	r5, #0
 8004606:	d1e6      	bne.n	80045d6 <strcasecmp+0x6>
 8004608:	bdf8      	pop	{r3, r4, r5, r6, r7, pc}
 800460a:	f105 0020 	add.w	r0, r5, #32
 800460e:	1a20      	subs	r0, r4, r0
 8004610:	d0e1      	beq.n	80045d6 <strcasecmp+0x6>
 8004612:	bdf8      	pop	{r3, r4, r5, r6, r7, pc}
	...

08004620 <strpbrk>:
 8004620:	b430      	push	{r4, r5}
 8004622:	7804      	ldrb	r4, [r0, #0]
 8004624:	b1dc      	cbz	r4, 800465e <strpbrk+0x3e>
 8004626:	780d      	ldrb	r5, [r1, #0]
 8004628:	b19d      	cbz	r5, 8004652 <strpbrk+0x32>
 800462a:	42ac      	cmp	r4, r5
 800462c:	d00f      	beq.n	800464e <strpbrk+0x2e>
 800462e:	460a      	mov	r2, r1
 8004630:	e001      	b.n	8004636 <strpbrk+0x16>
 8004632:	429c      	cmp	r4, r3
 8004634:	d00b      	beq.n	800464e <strpbrk+0x2e>
 8004636:	f812 3f01 	ldrb.w	r3, [r2, #1]!
 800463a:	2b00      	cmp	r3, #0
 800463c:	d1f9      	bne.n	8004632 <strpbrk+0x12>
 800463e:	f810 4f01 	ldrb.w	r4, [r0, #1]!
 8004642:	2c00      	cmp	r4, #0
 8004644:	d1f0      	bne.n	8004628 <strpbrk+0x8>
 8004646:	7813      	ldrb	r3, [r2, #0]
 8004648:	2b00      	cmp	r3, #0
 800464a:	bf08      	it	eq
 800464c:	2000      	moveq	r0, #0
 800464e:	bc30      	pop	{r4, r5}
 8004650:	4770      	bx	lr
 8004652:	f810 4f01 	ldrb.w	r4, [r0, #1]!
 8004656:	460a      	mov	r2, r1
 8004658:	2c00      	cmp	r4, #0
 800465a:	d1e5      	bne.n	8004628 <strpbrk+0x8>
 800465c:	e7f3      	b.n	8004646 <strpbrk+0x26>
 800465e:	4620      	mov	r0, r4
 8004660:	e7f5      	b.n	800464e <strpbrk+0x2e>
 8004662:	bf00      	nop
	...

08004670 <strspn>:
 8004670:	b470      	push	{r4, r5, r6}
 8004672:	7804      	ldrb	r4, [r0, #0]
 8004674:	b1a4      	cbz	r4, 80046a0 <strspn+0x30>
 8004676:	780d      	ldrb	r5, [r1, #0]
 8004678:	4606      	mov	r6, r0
 800467a:	b14d      	cbz	r5, 8004690 <strspn+0x20>
 800467c:	42a5      	cmp	r5, r4
 800467e:	d00a      	beq.n	8004696 <strspn+0x26>
 8004680:	460a      	mov	r2, r1
 8004682:	e001      	b.n	8004688 <strspn+0x18>
 8004684:	42a3      	cmp	r3, r4
 8004686:	d006      	beq.n	8004696 <strspn+0x26>
 8004688:	f812 3f01 	ldrb.w	r3, [r2, #1]!
 800468c:	2b00      	cmp	r3, #0
 800468e:	d1f9      	bne.n	8004684 <strspn+0x14>
 8004690:	1b80      	subs	r0, r0, r6
 8004692:	bc70      	pop	{r4, r5, r6}
 8004694:	4770      	bx	lr
 8004696:	f810 4f01 	ldrb.w	r4, [r0, #1]!
 800469a:	2c00      	cmp	r4, #0
 800469c:	d1ed      	bne.n	800467a <strspn+0xa>
 800469e:	e7f7      	b.n	8004690 <strspn+0x20>
 80046a0:	4620      	mov	r0, r4
 80046a2:	e7f6      	b.n	8004692 <strspn+0x22>
	...

080046b0 <__locale_ctype_ptr>:
 80046b0:	4b04      	ldr	r3, [pc, #16]	; (80046c4 <__locale_ctype_ptr+0x14>)
 80046b2:	4a05      	ldr	r2, [pc, #20]	; (80046c8 <__locale_ctype_ptr+0x18>)
 80046b4:	681b      	ldr	r3, [r3, #0]
 80046b6:	6b5b      	ldr	r3, [r3, #52]	; 0x34
 80046b8:	2b00      	cmp	r3, #0
 80046ba:	bf08      	it	eq
 80046bc:	4613      	moveq	r3, r2
 80046be:	f8d3 00ec 	ldr.w	r0, [r3, #236]	; 0xec
 80046c2:	4770      	bx	lr
 80046c4:	20000984 	.word	0x20000984
 80046c8:	20000818 	.word	0x20000818
 80046cc:	00000000 	.word	0x00000000

080046d0 <__ascii_mbtowc>:
 80046d0:	b082      	sub	sp, #8
 80046d2:	b149      	cbz	r1, 80046e8 <__ascii_mbtowc+0x18>
 80046d4:	b15a      	cbz	r2, 80046ee <__ascii_mbtowc+0x1e>
 80046d6:	b16b      	cbz	r3, 80046f4 <__ascii_mbtowc+0x24>
 80046d8:	7813      	ldrb	r3, [r2, #0]
 80046da:	600b      	str	r3, [r1, #0]
 80046dc:	7812      	ldrb	r2, [r2, #0]
 80046de:	1c10      	adds	r0, r2, #0
 80046e0:	bf18      	it	ne
 80046e2:	2001      	movne	r0, #1
 80046e4:	b002      	add	sp, #8
 80046e6:	4770      	bx	lr
 80046e8:	a901      	add	r1, sp, #4
 80046ea:	2a00      	cmp	r2, #0
 80046ec:	d1f3      	bne.n	80046d6 <__ascii_mbtowc+0x6>
 80046ee:	4610      	mov	r0, r2
 80046f0:	b002      	add	sp, #8
 80046f2:	4770      	bx	lr
 80046f4:	f06f 0001 	mvn.w	r0, #1
 80046f8:	e7f4      	b.n	80046e4 <__ascii_mbtowc+0x14>
 80046fa:	bf00      	nop
 80046fc:	0000      	movs	r0, r0
	...

08004700 <__ascii_wctomb>:
 8004700:	b121      	cbz	r1, 800470c <__ascii_wctomb+0xc>
 8004702:	2aff      	cmp	r2, #255	; 0xff
 8004704:	d804      	bhi.n	8004710 <__ascii_wctomb+0x10>
 8004706:	700a      	strb	r2, [r1, #0]
 8004708:	2001      	movs	r0, #1
 800470a:	4770      	bx	lr
 800470c:	4608      	mov	r0, r1
 800470e:	4770      	bx	lr
 8004710:	238a      	movs	r3, #138	; 0x8a
 8004712:	6003      	str	r3, [r0, #0]
 8004714:	f04f 30ff 	mov.w	r0, #4294967295	; 0xffffffff
 8004718:	4770      	bx	lr
 800471a:	bf00      	nop
 800471c:	0000      	movs	r0, r0
 800471e:	0000      	movs	r0, r0
 8004720:	6e696c62 	.word	0x6e696c62
 8004724:	0072656b 	.word	0x0072656b
	...

08004730 <__func__.5906.lto_priv.46>:
 8004730:	79536863 6c6e5573 006b636f 00000000     chSysUnlock.....

08004740 <__func__.5906.lto_priv.47>:
 8004740:	79536863 6c6e5573 006b636f 00000000     chSysUnlock.....

08004750 <__func__.5906.lto_priv.48>:
 8004750:	79536863 6c6e5573 006b636f 00000000     chSysUnlock.....

08004760 <__func__.5906.lto_priv.49>:
 8004760:	79536863 6c6e5573 006b636f 00000000     chSysUnlock.....

08004770 <__func__.5906.lto_priv.50>:
 8004770:	79536863 6c6e5573 006b636f 00000000     chSysUnlock.....

08004780 <__func__.5906.lto_priv.51>:
 8004780:	79536863 6c6e5573 006b636f 00000000     chSysUnlock.....

08004790 <__func__.5906.lto_priv.52>:
 8004790:	79536863 6c6e5573 006b636f 00000000     chSysUnlock.....

080047a0 <__func__.5992>:
 80047a0:	54566863 69546f44 00496b63 00000000     chVTDoTickI.....

080047b0 <__func__.6089>:
 80047b0:	68546863 446f4464 65757165 654e6575     chThdDoDequeueNe
 80047c0:	00497478 00000000 00000000 00000000     xtI.............

080047d0 <__func__.6307.lto_priv.53>:
 80047d0:	79536863 6c6e5573 006b636f 00000000     chSysUnlock.....

080047e0 <__func__.6307.lto_priv.54>:
 80047e0:	79536863 6c6e5573 006b636f 00000000     chSysUnlock.....

080047f0 <__func__.6307.lto_priv.55>:
 80047f0:	79536863 6c6e5573 006b636f 00000000     chSysUnlock.....

08004800 <__func__.6307.lto_priv.56>:
 8004800:	79536863 6c6e5573 006b636f 00000000     chSysUnlock.....

08004810 <__func__.6606.lto_priv.33>:
 8004810:	63536863 61655268 00497964 00000000     chSchReadyI.....

08004820 <__func__.6606.lto_priv.34>:
 8004820:	68546863 6c655264 65736165 00000000     chThdRelease....

08004830 <__func__.6609.lto_priv.59>:
 8004830:	54566863 65536f44 00004974 00000000     chVTDoSetI......

08004840 <__func__.6609.lto_priv.60>:
 8004840:	744d6863 636f4c78 0000536b 00000000     chMtxLockS......

08004850 <__func__.6625>:
 8004850:	65486863 72467061 00006565 00000000     chHeapFree......

08004860 <__func__.6626>:
 8004860:	76456863 6f724274 61636461 6c467473     chEvtBroadcastFl
 8004870:	49736761 00000000 00000000 00000000     agsI............

08004880 <__func__.6627>:
 8004880:	6f506863 72466c6f 00496565 00000000     chPoolFreeI.....

08004890 <__func__.6629>:
 8004890:	51496863 64616552 656d6954 0074756f     chIQReadTimeout.

080048a0 <__func__.6632>:
 80048a0:	744d6863 6c6e5578 006b636f 00000000     chMtxUnlock.....

080048b0 <__func__.6643>:
 80048b0:	76456863 67695374 496c616e 00000000     chEvtSignalI....

080048c0 <__func__.6662>:
 80048c0:	68546863 69784564 00005374 00000000     chThdExitS......

080048d0 <__func__.6665>:
 80048d0:	514f6863 74697257 6d695465 74756f65     chOQWriteTimeout
	...

080048f0 <__func__.6672>:
 80048f0:	68546863 73755364 646e6570 00000053     chThdSuspendS...

08004900 <__func__.6684>:
 8004900:	68546863 73655264 49656d75 00000000     chThdResumeI....

08004910 <__func__.7338>:
 8004910:	74537473 41747261 6d72616c 00000000     stStartAlarm....

08004920 <__func__.7341>:
 8004920:	636d6d5f 675f6473 735f7465 6563696c     _mmcsd_get_slice
	...

08004940 <__func__.7345>:
 8004940:	65537473 616c4174 00006d72 00000000     stSetAlarm......

08004950 <__func__.7383>:
 8004950:	74536473 00747261 00000000 00000000     sdStart.........

08004960 <__func__.7416>:
 8004960:	53616d64 61657274 6c6c416d 7461636f     dmaStreamAllocat
 8004970:	00000065 00000000 00000000 00000000     e...............

08004980 <__func__.7789>:
 8004980:	5f636473 5f646c6c 72617473 00000074     sdc_lld_start...

08004990 <__func__.7842>:
 8004990:	5f636d6d 5f746573 5f737562 74646977     mmc_set_bus_widt
 80049a0:	00000068 00000000 00000000 00000000     h...............

080049b0 <__func__.7864>:
 80049b0:	53636473 74726174 00000000 00000000     sdcStart........

080049c0 <__func__.7866>:
 80049c0:	5f636473 5f646c6c 64616572 696c615f     sdc_lld_read_ali
 80049d0:	64656e67 00000000 00000000 00000000     gned............

080049e0 <__func__.7874>:
 80049e0:	43636473 656e6e6f 00007463 00000000     sdcConnect......

080049f0 <__func__.7875>:
 80049f0:	5f636473 5f646c6c 74697277 6c615f65     sdc_lld_write_al
 8004a00:	656e6769 00000064 00000000 00000000     igned...........

08004a10 <__func__.7885>:
 8004a10:	44636473 6f637369 63656e6e 00000074     sdcDisconnect...

08004a20 <__func__.7893>:
 8004a20:	52636473 00646165 00000000 00000000     sdcRead.........

08004a30 <__func__.7901>:
 8004a30:	57636473 65746972 00000000 00000000     sdcWrite........

08004a40 <__func__.7906>:
 8004a40:	47636473 6e417465 656c4364 72457261     sdcGetAndClearEr
 8004a50:	73726f72 00000000 00000000 00000000     rors............

08004a60 <__func__.7911>:
 8004a60:	53636473 00636e79 00000000 00000000     sdcSync.........

08004a70 <__func__.7916>:
 8004a70:	47636473 6e497465 00006f66 00000000     sdcGetInfo......

08004a80 <__func__.7923>:
 8004a80:	45636473 65736172 00000000 00000000     sdcErase........
 8004a90:	38235653 00000000 00000000 00000000     SV#8............
 8004aa0:	39235653 00000000 00000000 00000000     SV#9............
 8004ab0:	34235653 00000000 00000000 00000000     SV#4............
 8004ac0:	36235653 00000000 00000000 00000000     SV#6............
 8004ad0:	35235653 00000000 00000000 00000000     SV#5............
 8004ae0:	37235653 00000000 00000000 00000000     SV#7............

08004af0 <_stm32_dma_streams>:
 8004af0:	40026010 40026008 000b0000 40026028     .`.@.`.@....(`.@
 8004b00:	40026008 000c0106 40026040 40026008     .`.@....@`.@.`.@
 8004b10:	000d0210 40026058 40026008 000e0316     ....X`.@.`.@....
 8004b20:	40026070 4002600c 000f0400 40026088     p`.@.`.@.....`.@
 8004b30:	4002600c 00100506 400260a0 4002600c     .`.@.....`.@.`.@
 8004b40:	00110610 400260b8 4002600c 002f0716     .....`.@.`.@../.
 8004b50:	40026410 40026408 00380800 40026428     .d.@.d.@..8.(d.@
 8004b60:	40026408 00390906 40026440 40026408     .d.@..9.@d.@.d.@
 8004b70:	003a0a10 40026458 40026408 003b0b16     ..:.Xd.@.d.@..;.
 8004b80:	40026470 4002640c 003c0c00 40026488     pd.@.d.@..<..d.@
 8004b90:	4002640c 00440d06 400264a0 4002640c     .d.@..D..d.@.d.@
 8004ba0:	00450e10 400264b8 4002640c 00460f16     ..E..d.@.d.@..F.
 8004bb0:	00000920 00000000 00000000 00000000      ...............
 8004bc0:	61686e75 656c646e 78652064 74706563     unhandled except
 8004bd0:	006e6f69 00000000 00000000 00000000     ion.............
 8004be0:	31235653 00000030 00000000 00000000     SV#10...........
 8004bf0:	31235653 00000031 00000000 00000000     SV#11...........
 8004c00:	63617473 766f206b 6c667265 0000776f     stack overflow..

08004c10 <ch_debug>:
 8004c10:	6e69616d 18011600 08600404 1814100c     main......`.....
 8004c20:	2221201c 00000000 00000000 00000000     . !"............
 8004c30:	6c756e28 0000296c 00000000 00000000     (null)..........
 8004c40:	6f666e69 00000000 67617355 25203a65     info....Usage: %
 8004c50:	000a0d73 2e302e33 00000030 6e72654b     s...3.0.0...Kern
 8004c60:	203a6c65 20202020 73252020 00000a0d     el:       %s....
 8004c70:	20434347 2e322e37 30322031 39303731     GCC 7.2.1 201709
 8004c80:	28203430 656c6572 29657361 52415b20     04 (release) [AR
 8004c90:	6d652f4d 64646562 372d6465 6172622d     M/embedded-7-bra
 8004ca0:	2068636e 69766572 6e6f6973 35353220     nch revision 255
 8004cb0:	5d343032 00000000 706d6f43 72656c69     204]....Compiler
 8004cc0:	2020203a 73252020 00000a0d 764d5241     :     %s....ARMv
 8004cd0:	454d2d37 00000000 68637241 63657469     7-ME....Architec
 8004ce0:	65727574 7325203a 00000a0d 74726f43     ture: %s....Cort
 8004cf0:	4d2d7865 00000034 65726f43 72615620     ex-M4...Core Var
 8004d00:	746e6169 7325203a 00000a0d 61766441     iant: %s....Adva
 8004d10:	6465636e 72656b20 206c656e 65646f6d     nced kernel mode
 8004d20:	00000000 74726f50 666e4920 20203a6f     ....Port Info:  
 8004d30:	73252020 00000a0d 334d5453 30344632       %s....STM32F40
 8004d40:	69482037 50206867 6f667265 6e616d72     7 High Performan
 8004d50:	77206563 20687469 20505344 20646e61     ce with DSP and 
 8004d60:	00555046 74616c50 6d726f66 2020203a     FPU.Platform:   
 8004d70:	73252020 00000a0d 6d696c4f 53207865       %s....Olimex S
 8004d80:	32334d54 3034452d 00000037 72616f42     TM32-E407...Boar
 8004d90:	20203a64 20202020 73252020 00000a0d     d:        %s....
 8004da0:	00202d20 20727041 32203620 00383130      - .Apr  6 2018.
 8004db0:	6c697542 69742064 203a656d 73252020     Build time:   %s
 8004dc0:	73257325 00000a0d 303a3631 37333a33     %s%s....16:03:37
	...
 8004de0:	67617355 73203a65 746f6964 20747365     Usage: sdiotest 
 8004df0:	64616572 6972777c 657c6574 65736172     read|write|erase
 8004e00:	6c6c617c 00000a0d 64726143 746f6e20     |all....Card not
 8004e10:	736e6920 65747265 61202c64 74726f62      inserted, abort
 8004e20:	2e676e69 00000a0d 6e6e6f43 69746365     ing.....Connecti
 8004e30:	2e2e676e 0000202e 0a0d4b4f 61430a0d     ng... ..OK....Ca
 8004e40:	49206472 0d6f666e 0000000a 20445343     rd Info.....CSD 
 8004e50:	20202020 25203a20 20583830 20583825          : %08X %8X 
 8004e60:	58383025 38302520 0a0d2058 00000000     %08X %08X ......
 8004e70:	20444943 20202020 25203a20 20583830     CID      : %08X 
 8004e80:	20583825 58383025 38302520 0a0d2058     %8X %08X %08X ..
 8004e90:	00000000 65646f4d 20202020 25203a20     ....Mode     : %
 8004ea0:	000a0d73 61706143 79746963 25203a20     s...Capacity : %
 8004eb0:	0d424d44 0000000a 64616572 00000000     DMB.....read....
 8004ec0:	006c6c61 676e6953 6220656c 6b636f6c     all.Single block
 8004ed0:	696c6120 64656e67 61657220 65702064      aligned read pe
 8004ee0:	726f6672 636e616d 20203a65 20202020     rformance:      
 8004ef0:	20202020 00000020 62204425 6b636f6c          ...%D block
 8004f00:	2c532f73 20442520 65747962 0d532f73     s/S, %D bytes/S.
 8004f10:	0000000a 73203631 65757165 6169746e     ....16 sequentia
 8004f20:	6c62206c 736b636f 696c6120 64656e67     l blocks aligned
 8004f30:	61657220 65702064 726f6672 636e616d      read performanc
 8004f40:	20203a65 00000020 676e6953 6220656c     e:   ...Single b
 8004f50:	6b636f6c 616e7520 6e67696c 72206465     lock unaligned r
 8004f60:	20646165 66726570 616d726f 3a65636e     ead performance:
 8004f70:	20202020 20202020 00000020 73203631              ...16 s
 8004f80:	65757165 6169746e 6c62206c 736b636f     equential blocks
 8004f90:	616e7520 6e67696c 72206465 20646165      unaligned read 
 8004fa0:	66726570 616d726f 3a65636e 00000020     performance: ...
 8004fb0:	74697277 00000065 74697257 2e676e69     write...Writing.
 8004fc0:	00002e2e 0a0d4b4f 00000000 64616552     ....OK......Read
 8004fd0:	2e676e69 00002e2e 73617265 00000065     ing.....erase...
 8004fe0:	45636473 65736172 74202928 20747365     sdcErase() test 
 8004ff0:	74697277 61662065 64656c69 00000a0d     write failed....
 8005000:	45636473 65736172 79202928 646c6569     sdcErase() yield
 8005010:	65206465 726f7272 616c6620 203a7367     ed error flags: 
 8005020:	0a0d6425 00000000 676e6973 622d656c     %d......single-b
 8005030:	6b636f6c 63647320 73617245 20292865     lock sdcErase() 
 8005040:	6c696166 0a0d6465 00000000 45636473     failed......sdcE
 8005050:	65736172 6e202928 652d6e6f 65736172     rase() non-erase
 8005060:	6c622064 206b636f 706d6f63 20657261     d block compare 
 8005070:	6c696166 0a0d6465 00000000 746c756d     failed......mult
 8005080:	6c622d69 206b636f 45636473 65736172     i-block sdcErase
 8005090:	66202928 656c6961 000a0d64 746c756d     () failed...mult
 80050a0:	6c622d69 206b636f 45636473 65736172     i-block sdcErase
 80050b0:	65202928 65736172 6c622064 206b636f     () erased block 
 80050c0:	706d6f63 20657261 6c696166 0a0d6465     compare failed..
	...
 80050e0:	74737973 00656d69 0d756c25 0000000a     systime.%lu.....

080050f0 <commands>:
 80050f0:	080051f0 08003d61 00000000 00000000     .Q..a=..........
 8005100:	33235653 00000000 656c6469 00000000     SV#3....idle....

08005110 <mode.7793>:
 8005110:	080051f4 080051fc 08005204 00000000     .Q...Q...R......

08005120 <sdc_vmt>:
 8005120:	08000711 08000701 080036e1 08003ca1     .........6...<..
 8005130:	08003bc1 08003ae1 08000891 08000861     .;...:......a...

08005140 <sdccfg>:
 8005140:	20005500 00000001 00000000 00000000     .U. ............

08005150 <shell_cfg1>:
 8005150:	20000db0 080050f0 00000000 00000000     ... .P..........
 8005160:	6c656873 0000006c 68430a0d 4f696269     shell.....ChibiO
 8005170:	54522f53 65685320 0a0d6c6c 00000000     S/RT Shell......
 8005180:	203e6863 00000000 0000445e 6f6c0a0d     ch> ....^D....lo
 8005190:	74756f67 00000000 206f6f74 796e616d     gout....too many
 80051a0:	67726120 6e656d75 0a0d7374 00000000      arguments......
 80051b0:	74697865 00000000 706c6568 00000000     exit....help....
 80051c0:	6d6d6f43 73646e61 6568203a 6520706c     Commands: help e
 80051d0:	20746978 00000000 00207325 00007325     xit ....%s .%s..
 80051e0:	0a0d3f20 00000000 00000000 00000000      ?..............
 80051f0:	00636473 31564453 00000031 32564453     sdc.SDV11...SDV2
 8005200:	00000030 00434d4d 00000000 00000000     0...MMC.........

08005210 <vmt>:
 8005210:	08002671 08002861 08002741 08002931     q&..a(..A'..1)..
 8005220:	08002731 08002921 08002661 08002851     1'..!)..a&..Q(..
 8005230:	00000043 49534f50 00000058 00000000     C...POSIX.......
 8005240:	0000002e 00000000 00000000 00000000     ................

08005250 <_ctype_>:
 8005250:	20202000 20202020 28282020 20282828     .         ((((( 
 8005260:	20202020 20202020 20202020 20202020                     
 8005270:	10108820 10101010 10101010 10101010      ...............
 8005280:	04040410 04040404 10040404 10101010     ................
 8005290:	41411010 41414141 01010101 01010101     ..AAAAAA........
 80052a0:	01010101 01010101 01010101 10101010     ................
 80052b0:	42421010 42424242 02020202 02020202     ..BBBBBB........
 80052c0:	02020202 02020202 02020202 10101010     ................
 80052d0:	00000020 00000000 00000000 00000000      ...............
	...
