
build/ch.elf:     file format elf32-littlearm


Disassembly of section .text:

080000c0 <Reset_Handler>:
 80000c0:	b672      	cpsid	i
 80000c2:	4820      	ldr	r0, [pc, #128]	; (8000144 <endfiniloop+0x4>)
 80000c4:	f380 8809 	msr	PSP, r0
 80000c8:	2002      	movs	r0, #2
 80000ca:	f380 8814 	msr	CONTROL, r0
 80000ce:	f3bf 8f6f 	isb	sy
 80000d2:	f001 fb7d 	bl	80017d0 <__early_init>
 80000d6:	481c      	ldr	r0, [pc, #112]	; (8000148 <endfiniloop+0x8>)
 80000d8:	491c      	ldr	r1, [pc, #112]	; (800014c <endfiniloop+0xc>)
 80000da:	4a1d      	ldr	r2, [pc, #116]	; (8000150 <endfiniloop+0x10>)

080000dc <msloop>:
 80000dc:	4291      	cmp	r1, r2
 80000de:	da02      	bge.n	80000e6 <endmsloop>
 80000e0:	6008      	str	r0, [r1, #0]
 80000e2:	3104      	adds	r1, #4
 80000e4:	e7fa      	b.n	80000dc <msloop>

080000e6 <endmsloop>:
 80000e6:	491b      	ldr	r1, [pc, #108]	; (8000154 <endfiniloop+0x14>)
 80000e8:	4a16      	ldr	r2, [pc, #88]	; (8000144 <endfiniloop+0x4>)

080000ea <psloop>:
 80000ea:	4291      	cmp	r1, r2
 80000ec:	da02      	bge.n	80000f4 <endpsloop>
 80000ee:	6008      	str	r0, [r1, #0]
 80000f0:	3104      	adds	r1, #4
 80000f2:	e7fa      	b.n	80000ea <psloop>

080000f4 <endpsloop>:
 80000f4:	4918      	ldr	r1, [pc, #96]	; (8000158 <endfiniloop+0x18>)
 80000f6:	4a19      	ldr	r2, [pc, #100]	; (800015c <endfiniloop+0x1c>)
 80000f8:	4b19      	ldr	r3, [pc, #100]	; (8000160 <endfiniloop+0x20>)

080000fa <dloop>:
 80000fa:	429a      	cmp	r2, r3
 80000fc:	da04      	bge.n	8000108 <enddloop>
 80000fe:	6808      	ldr	r0, [r1, #0]
 8000100:	6010      	str	r0, [r2, #0]
 8000102:	3104      	adds	r1, #4
 8000104:	3204      	adds	r2, #4
 8000106:	e7f8      	b.n	80000fa <dloop>

08000108 <enddloop>:
 8000108:	2000      	movs	r0, #0
 800010a:	4916      	ldr	r1, [pc, #88]	; (8000164 <endfiniloop+0x24>)
 800010c:	4a16      	ldr	r2, [pc, #88]	; (8000168 <endfiniloop+0x28>)

0800010e <bloop>:
 800010e:	4291      	cmp	r1, r2
 8000110:	da02      	bge.n	8000118 <endbloop>
 8000112:	6008      	str	r0, [r1, #0]
 8000114:	3104      	adds	r1, #4
 8000116:	e7fa      	b.n	800010e <bloop>

08000118 <endbloop>:
 8000118:	f007 fba2 	bl	8007860 <__late_init>
 800011c:	4c13      	ldr	r4, [pc, #76]	; (800016c <endfiniloop+0x2c>)
 800011e:	4d14      	ldr	r5, [pc, #80]	; (8000170 <endfiniloop+0x30>)

08000120 <initloop>:
 8000120:	42ac      	cmp	r4, r5
 8000122:	da03      	bge.n	800012c <endinitloop>
 8000124:	6821      	ldr	r1, [r4, #0]
 8000126:	4788      	blx	r1
 8000128:	3404      	adds	r4, #4
 800012a:	e7f9      	b.n	8000120 <initloop>

0800012c <endinitloop>:
 800012c:	f004 fe10 	bl	8004d50 <main>
 8000130:	4c10      	ldr	r4, [pc, #64]	; (8000174 <endfiniloop+0x34>)
 8000132:	4d11      	ldr	r5, [pc, #68]	; (8000178 <endfiniloop+0x38>)

08000134 <finiloop>:
 8000134:	42ac      	cmp	r4, r5
 8000136:	da03      	bge.n	8000140 <endfiniloop>
 8000138:	6821      	ldr	r1, [r4, #0]
 800013a:	4788      	blx	r1
 800013c:	3404      	adds	r4, #4
 800013e:	e7f9      	b.n	8000134 <finiloop>

08000140 <endfiniloop>:
 8000140:	490e      	ldr	r1, [pc, #56]	; (800017c <endfiniloop+0x3c>)
 8000142:	4708      	bx	r1
 8000144:	20000600 	.word	0x20000600
 8000148:	55555555 	.word	0x55555555
 800014c:	20000000 	.word	0x20000000
 8000150:	20000400 	.word	0x20000400
 8000154:	20000400 	.word	0x20000400
 8000158:	08008ac8 	.word	0x08008ac8
 800015c:	20000600 	.word	0x20000600
 8000160:	200006b8 	.word	0x200006b8
 8000164:	200006b8 	.word	0x200006b8
 8000168:	20001718 	.word	0x20001718
 800016c:	080000c0 	.word	0x080000c0
 8000170:	080000c0 	.word	0x080000c0
 8000174:	080000c0 	.word	0x080000c0
 8000178:	080000c0 	.word	0x080000c0
 800017c:	08007851 	.word	0x08007851

08000180 <_port_switch>:
 8000180:	b5f0      	push	{r4, r5, r6, r7, lr}
 8000182:	4644      	mov	r4, r8
 8000184:	464d      	mov	r5, r9
 8000186:	4656      	mov	r6, sl
 8000188:	465f      	mov	r7, fp
 800018a:	b4f0      	push	{r4, r5, r6, r7}
 800018c:	466b      	mov	r3, sp
 800018e:	60cb      	str	r3, [r1, #12]
 8000190:	68c3      	ldr	r3, [r0, #12]
 8000192:	469d      	mov	sp, r3
 8000194:	bcf0      	pop	{r4, r5, r6, r7}
 8000196:	46a0      	mov	r8, r4
 8000198:	46a9      	mov	r9, r5
 800019a:	46b2      	mov	sl, r6
 800019c:	46bb      	mov	fp, r7
 800019e:	bdf0      	pop	{r4, r5, r6, r7, pc}

080001a0 <_port_thread_start>:
 80001a0:	f001 fb76 	bl	8001890 <_dbg_check_unlock>
 80001a4:	b662      	cpsie	i
 80001a6:	1c28      	adds	r0, r5, #0
 80001a8:	47a0      	blx	r4
 80001aa:	2000      	movs	r0, #0
 80001ac:	f004 f838 	bl	8004220 <chThdExit>

080001b0 <_port_switch_from_isr>:
 80001b0:	f001 fc1e 	bl	80019f0 <_dbg_check_lock>
 80001b4:	f001 fb64 	bl	8001880 <chSchDoReschedule>
 80001b8:	f001 fb6a 	bl	8001890 <_dbg_check_unlock>

080001bc <_port_exit_from_isr>:
 80001bc:	4a01      	ldr	r2, [pc, #4]	; (80001c4 <_port_exit_from_isr+0x8>)
 80001be:	4b02      	ldr	r3, [pc, #8]	; (80001c8 <_port_exit_from_isr+0xc>)
 80001c0:	6013      	str	r3, [r2, #0]
 80001c2:	e7fe      	b.n	80001c2 <_port_exit_from_isr+0x6>
 80001c4:	e000ed04 	.word	0xe000ed04
 80001c8:	80000000 	.word	0x80000000
 80001cc:	00000000 	.word	0x00000000

080001d0 <__udivsi3>:
 80001d0:	2200      	movs	r2, #0
 80001d2:	0843      	lsrs	r3, r0, #1
 80001d4:	428b      	cmp	r3, r1
 80001d6:	d374      	bcc.n	80002c2 <__udivsi3+0xf2>
 80001d8:	0903      	lsrs	r3, r0, #4
 80001da:	428b      	cmp	r3, r1
 80001dc:	d35f      	bcc.n	800029e <__udivsi3+0xce>
 80001de:	0a03      	lsrs	r3, r0, #8
 80001e0:	428b      	cmp	r3, r1
 80001e2:	d344      	bcc.n	800026e <__udivsi3+0x9e>
 80001e4:	0b03      	lsrs	r3, r0, #12
 80001e6:	428b      	cmp	r3, r1
 80001e8:	d328      	bcc.n	800023c <__udivsi3+0x6c>
 80001ea:	0c03      	lsrs	r3, r0, #16
 80001ec:	428b      	cmp	r3, r1
 80001ee:	d30d      	bcc.n	800020c <__udivsi3+0x3c>
 80001f0:	22ff      	movs	r2, #255	; 0xff
 80001f2:	0209      	lsls	r1, r1, #8
 80001f4:	ba12      	rev	r2, r2
 80001f6:	0c03      	lsrs	r3, r0, #16
 80001f8:	428b      	cmp	r3, r1
 80001fa:	d302      	bcc.n	8000202 <__udivsi3+0x32>
 80001fc:	1212      	asrs	r2, r2, #8
 80001fe:	0209      	lsls	r1, r1, #8
 8000200:	d065      	beq.n	80002ce <__udivsi3+0xfe>
 8000202:	0b03      	lsrs	r3, r0, #12
 8000204:	428b      	cmp	r3, r1
 8000206:	d319      	bcc.n	800023c <__udivsi3+0x6c>
 8000208:	e000      	b.n	800020c <__udivsi3+0x3c>
 800020a:	0a09      	lsrs	r1, r1, #8
 800020c:	0bc3      	lsrs	r3, r0, #15
 800020e:	428b      	cmp	r3, r1
 8000210:	d301      	bcc.n	8000216 <__udivsi3+0x46>
 8000212:	03cb      	lsls	r3, r1, #15
 8000214:	1ac0      	subs	r0, r0, r3
 8000216:	4152      	adcs	r2, r2
 8000218:	0b83      	lsrs	r3, r0, #14
 800021a:	428b      	cmp	r3, r1
 800021c:	d301      	bcc.n	8000222 <__udivsi3+0x52>
 800021e:	038b      	lsls	r3, r1, #14
 8000220:	1ac0      	subs	r0, r0, r3
 8000222:	4152      	adcs	r2, r2
 8000224:	0b43      	lsrs	r3, r0, #13
 8000226:	428b      	cmp	r3, r1
 8000228:	d301      	bcc.n	800022e <__udivsi3+0x5e>
 800022a:	034b      	lsls	r3, r1, #13
 800022c:	1ac0      	subs	r0, r0, r3
 800022e:	4152      	adcs	r2, r2
 8000230:	0b03      	lsrs	r3, r0, #12
 8000232:	428b      	cmp	r3, r1
 8000234:	d301      	bcc.n	800023a <__udivsi3+0x6a>
 8000236:	030b      	lsls	r3, r1, #12
 8000238:	1ac0      	subs	r0, r0, r3
 800023a:	4152      	adcs	r2, r2
 800023c:	0ac3      	lsrs	r3, r0, #11
 800023e:	428b      	cmp	r3, r1
 8000240:	d301      	bcc.n	8000246 <__udivsi3+0x76>
 8000242:	02cb      	lsls	r3, r1, #11
 8000244:	1ac0      	subs	r0, r0, r3
 8000246:	4152      	adcs	r2, r2
 8000248:	0a83      	lsrs	r3, r0, #10
 800024a:	428b      	cmp	r3, r1
 800024c:	d301      	bcc.n	8000252 <__udivsi3+0x82>
 800024e:	028b      	lsls	r3, r1, #10
 8000250:	1ac0      	subs	r0, r0, r3
 8000252:	4152      	adcs	r2, r2
 8000254:	0a43      	lsrs	r3, r0, #9
 8000256:	428b      	cmp	r3, r1
 8000258:	d301      	bcc.n	800025e <__udivsi3+0x8e>
 800025a:	024b      	lsls	r3, r1, #9
 800025c:	1ac0      	subs	r0, r0, r3
 800025e:	4152      	adcs	r2, r2
 8000260:	0a03      	lsrs	r3, r0, #8
 8000262:	428b      	cmp	r3, r1
 8000264:	d301      	bcc.n	800026a <__udivsi3+0x9a>
 8000266:	020b      	lsls	r3, r1, #8
 8000268:	1ac0      	subs	r0, r0, r3
 800026a:	4152      	adcs	r2, r2
 800026c:	d2cd      	bcs.n	800020a <__udivsi3+0x3a>
 800026e:	09c3      	lsrs	r3, r0, #7
 8000270:	428b      	cmp	r3, r1
 8000272:	d301      	bcc.n	8000278 <__udivsi3+0xa8>
 8000274:	01cb      	lsls	r3, r1, #7
 8000276:	1ac0      	subs	r0, r0, r3
 8000278:	4152      	adcs	r2, r2
 800027a:	0983      	lsrs	r3, r0, #6
 800027c:	428b      	cmp	r3, r1
 800027e:	d301      	bcc.n	8000284 <__udivsi3+0xb4>
 8000280:	018b      	lsls	r3, r1, #6
 8000282:	1ac0      	subs	r0, r0, r3
 8000284:	4152      	adcs	r2, r2
 8000286:	0943      	lsrs	r3, r0, #5
 8000288:	428b      	cmp	r3, r1
 800028a:	d301      	bcc.n	8000290 <__udivsi3+0xc0>
 800028c:	014b      	lsls	r3, r1, #5
 800028e:	1ac0      	subs	r0, r0, r3
 8000290:	4152      	adcs	r2, r2
 8000292:	0903      	lsrs	r3, r0, #4
 8000294:	428b      	cmp	r3, r1
 8000296:	d301      	bcc.n	800029c <__udivsi3+0xcc>
 8000298:	010b      	lsls	r3, r1, #4
 800029a:	1ac0      	subs	r0, r0, r3
 800029c:	4152      	adcs	r2, r2
 800029e:	08c3      	lsrs	r3, r0, #3
 80002a0:	428b      	cmp	r3, r1
 80002a2:	d301      	bcc.n	80002a8 <__udivsi3+0xd8>
 80002a4:	00cb      	lsls	r3, r1, #3
 80002a6:	1ac0      	subs	r0, r0, r3
 80002a8:	4152      	adcs	r2, r2
 80002aa:	0883      	lsrs	r3, r0, #2
 80002ac:	428b      	cmp	r3, r1
 80002ae:	d301      	bcc.n	80002b4 <__udivsi3+0xe4>
 80002b0:	008b      	lsls	r3, r1, #2
 80002b2:	1ac0      	subs	r0, r0, r3
 80002b4:	4152      	adcs	r2, r2
 80002b6:	0843      	lsrs	r3, r0, #1
 80002b8:	428b      	cmp	r3, r1
 80002ba:	d301      	bcc.n	80002c0 <__udivsi3+0xf0>
 80002bc:	004b      	lsls	r3, r1, #1
 80002be:	1ac0      	subs	r0, r0, r3
 80002c0:	4152      	adcs	r2, r2
 80002c2:	1a41      	subs	r1, r0, r1
 80002c4:	d200      	bcs.n	80002c8 <__udivsi3+0xf8>
 80002c6:	4601      	mov	r1, r0
 80002c8:	4152      	adcs	r2, r2
 80002ca:	4610      	mov	r0, r2
 80002cc:	4770      	bx	lr
 80002ce:	e7ff      	b.n	80002d0 <__udivsi3+0x100>
 80002d0:	b501      	push	{r0, lr}
 80002d2:	2000      	movs	r0, #0
 80002d4:	f000 f80c 	bl	80002f0 <__aeabi_idiv0>
 80002d8:	bd02      	pop	{r1, pc}
 80002da:	46c0      	nop			; (mov r8, r8)

080002dc <__aeabi_uidivmod>:
 80002dc:	2900      	cmp	r1, #0
 80002de:	d0f7      	beq.n	80002d0 <__udivsi3+0x100>
 80002e0:	e776      	b.n	80001d0 <__udivsi3>
 80002e2:	4770      	bx	lr
	...

080002f0 <__aeabi_idiv0>:
 80002f0:	4770      	bx	lr
 80002f2:	46c0      	nop			; (mov r8, r8)
	...

08000300 <_pal_lld_setgroupmode.constprop.5>:
 8000300:	2307      	movs	r3, #7
 8000302:	b5f0      	push	{r4, r5, r6, r7, lr}
 8000304:	4646      	mov	r6, r8
 8000306:	4698      	mov	r8, r3
 8000308:	3308      	adds	r3, #8
 800030a:	46d6      	mov	lr, sl
 800030c:	464f      	mov	r7, r9
 800030e:	469c      	mov	ip, r3
 8000310:	2103      	movs	r1, #3
 8000312:	2390      	movs	r3, #144	; 0x90
 8000314:	b5c0      	push	{r6, r7, lr}
 8000316:	2200      	movs	r2, #0
 8000318:	2502      	movs	r5, #2
 800031a:	2601      	movs	r6, #1
 800031c:	05db      	lsls	r3, r3, #23
 800031e:	468a      	mov	sl, r1
 8000320:	e01a      	b.n	8000358 <_pal_lld_setgroupmode.constprop.5+0x58>
 8000322:	6a1f      	ldr	r7, [r3, #32]
 8000324:	4039      	ands	r1, r7
 8000326:	4321      	orrs	r1, r4
 8000328:	6219      	str	r1, [r3, #32]
 800032a:	0034      	movs	r4, r6
 800032c:	4094      	lsls	r4, r2
 800032e:	4657      	mov	r7, sl
 8000330:	6859      	ldr	r1, [r3, #4]
 8000332:	43a1      	bics	r1, r4
 8000334:	0054      	lsls	r4, r2, #1
 8000336:	40a7      	lsls	r7, r4
 8000338:	43fc      	mvns	r4, r7
 800033a:	6059      	str	r1, [r3, #4]
 800033c:	6899      	ldr	r1, [r3, #8]
 800033e:	4021      	ands	r1, r4
 8000340:	6099      	str	r1, [r3, #8]
 8000342:	68d9      	ldr	r1, [r3, #12]
 8000344:	4021      	ands	r1, r4
 8000346:	60d9      	str	r1, [r3, #12]
 8000348:	6819      	ldr	r1, [r3, #0]
 800034a:	4021      	ands	r1, r4
 800034c:	4329      	orrs	r1, r5
 800034e:	6019      	str	r1, [r3, #0]
 8000350:	0840      	lsrs	r0, r0, #1
 8000352:	d012      	beq.n	800037a <_pal_lld_setgroupmode.constprop.5+0x7a>
 8000354:	00ad      	lsls	r5, r5, #2
 8000356:	3201      	adds	r2, #1
 8000358:	4206      	tst	r6, r0
 800035a:	d0f9      	beq.n	8000350 <_pal_lld_setgroupmode.constprop.5+0x50>
 800035c:	4641      	mov	r1, r8
 800035e:	4667      	mov	r7, ip
 8000360:	4011      	ands	r1, r2
 8000362:	0089      	lsls	r1, r1, #2
 8000364:	0034      	movs	r4, r6
 8000366:	408f      	lsls	r7, r1
 8000368:	408c      	lsls	r4, r1
 800036a:	43f9      	mvns	r1, r7
 800036c:	2a07      	cmp	r2, #7
 800036e:	d9d8      	bls.n	8000322 <_pal_lld_setgroupmode.constprop.5+0x22>
 8000370:	6a5f      	ldr	r7, [r3, #36]	; 0x24
 8000372:	4039      	ands	r1, r7
 8000374:	4321      	orrs	r1, r4
 8000376:	6259      	str	r1, [r3, #36]	; 0x24
 8000378:	e7d7      	b.n	800032a <_pal_lld_setgroupmode.constprop.5+0x2a>
 800037a:	bc1c      	pop	{r2, r3, r4}
 800037c:	4690      	mov	r8, r2
 800037e:	4699      	mov	r9, r3
 8000380:	46a2      	mov	sl, r4
 8000382:	bdf0      	pop	{r4, r5, r6, r7, pc}
	...

08000390 <tmr>:
 8000390:	2201      	movs	r2, #1
 8000392:	4b01      	ldr	r3, [pc, #4]	; (8000398 <tmr+0x8>)
 8000394:	701a      	strb	r2, [r3, #0]
 8000396:	4770      	bx	lr
 8000398:	20001410 	.word	0x20001410
 800039c:	00000000 	.word	0x00000000

080003a0 <_idle_thread>:
 80003a0:	e7fe      	b.n	80003a0 <_idle_thread>
 80003a2:	46c0      	nop			; (mov r8, r8)
	...

080003b0 <notify1>:
 80003b0:	2180      	movs	r1, #128	; 0x80
 80003b2:	4a02      	ldr	r2, [pc, #8]	; (80003bc <notify1+0xc>)
 80003b4:	6813      	ldr	r3, [r2, #0]
 80003b6:	430b      	orrs	r3, r1
 80003b8:	6013      	str	r3, [r2, #0]
 80003ba:	4770      	bx	lr
 80003bc:	40013800 	.word	0x40013800

080003c0 <notify>:
 80003c0:	4770      	bx	lr
 80003c2:	46c0      	nop			; (mov r8, r8)
	...

080003d0 <tmo>:
 80003d0:	4770      	bx	lr
 80003d2:	46c0      	nop			; (mov r8, r8)
	...

080003e0 <queues2_setup>:
 80003e0:	2204      	movs	r2, #4
 80003e2:	4b07      	ldr	r3, [pc, #28]	; (8000400 <queues2_setup+0x20>)
 80003e4:	609a      	str	r2, [r3, #8]
 80003e6:	4a07      	ldr	r2, [pc, #28]	; (8000404 <queues2_setup+0x24>)
 80003e8:	601b      	str	r3, [r3, #0]
 80003ea:	60da      	str	r2, [r3, #12]
 80003ec:	619a      	str	r2, [r3, #24]
 80003ee:	615a      	str	r2, [r3, #20]
 80003f0:	3204      	adds	r2, #4
 80003f2:	611a      	str	r2, [r3, #16]
 80003f4:	4a04      	ldr	r2, [pc, #16]	; (8000408 <queues2_setup+0x28>)
 80003f6:	605b      	str	r3, [r3, #4]
 80003f8:	61da      	str	r2, [r3, #28]
 80003fa:	2200      	movs	r2, #0
 80003fc:	621a      	str	r2, [r3, #32]
 80003fe:	4770      	bx	lr
 8000400:	20000688 	.word	0x20000688
 8000404:	20000d58 	.word	0x20000d58
 8000408:	080003c1 	.word	0x080003c1
 800040c:	00000000 	.word	0x00000000

08000410 <queues1_setup>:
 8000410:	2100      	movs	r1, #0
 8000412:	4b07      	ldr	r3, [pc, #28]	; (8000430 <queues1_setup+0x20>)
 8000414:	4a07      	ldr	r2, [pc, #28]	; (8000434 <queues1_setup+0x24>)
 8000416:	601b      	str	r3, [r3, #0]
 8000418:	60da      	str	r2, [r3, #12]
 800041a:	619a      	str	r2, [r3, #24]
 800041c:	615a      	str	r2, [r3, #20]
 800041e:	3204      	adds	r2, #4
 8000420:	611a      	str	r2, [r3, #16]
 8000422:	4a05      	ldr	r2, [pc, #20]	; (8000438 <queues1_setup+0x28>)
 8000424:	605b      	str	r3, [r3, #4]
 8000426:	6099      	str	r1, [r3, #8]
 8000428:	61da      	str	r2, [r3, #28]
 800042a:	6219      	str	r1, [r3, #32]
 800042c:	4770      	bx	lr
 800042e:	46c0      	nop			; (mov r8, r8)
 8000430:	20000610 	.word	0x20000610
 8000434:	20000d58 	.word	0x20000d58
 8000438:	080003c1 	.word	0x080003c1
 800043c:	00000000 	.word	0x00000000

08000440 <dyn1_setup>:
 8000440:	20d1      	movs	r0, #209	; 0xd1
 8000442:	2200      	movs	r2, #0
 8000444:	4b06      	ldr	r3, [pc, #24]	; (8000460 <dyn1_setup+0x20>)
 8000446:	4907      	ldr	r1, [pc, #28]	; (8000464 <dyn1_setup+0x24>)
 8000448:	00c0      	lsls	r0, r0, #3
 800044a:	6099      	str	r1, [r3, #8]
 800044c:	600a      	str	r2, [r1, #0]
 800044e:	6048      	str	r0, [r1, #4]
 8000450:	0019      	movs	r1, r3
 8000452:	3110      	adds	r1, #16
 8000454:	601a      	str	r2, [r3, #0]
 8000456:	60da      	str	r2, [r3, #12]
 8000458:	6119      	str	r1, [r3, #16]
 800045a:	6159      	str	r1, [r3, #20]
 800045c:	619a      	str	r2, [r3, #24]
 800045e:	4770      	bx	lr
 8000460:	20000cd0 	.word	0x20000cd0
 8000464:	20000d58 	.word	0x20000d58
	...

08000470 <dyn3_setup>:
 8000470:	b510      	push	{r4, lr}
 8000472:	f7ff ffe5 	bl	8000440 <dyn1_setup>
 8000476:	bd10      	pop	{r4, pc}
	...

08000480 <null_provider>:
 8000480:	2000      	movs	r0, #0
 8000482:	4770      	bx	lr
	...

08000490 <heap1_setup>:
 8000490:	20d1      	movs	r0, #209	; 0xd1
 8000492:	2200      	movs	r2, #0
 8000494:	4b06      	ldr	r3, [pc, #24]	; (80004b0 <heap1_setup+0x20>)
 8000496:	4907      	ldr	r1, [pc, #28]	; (80004b4 <heap1_setup+0x24>)
 8000498:	00c0      	lsls	r0, r0, #3
 800049a:	6099      	str	r1, [r3, #8]
 800049c:	600a      	str	r2, [r1, #0]
 800049e:	6048      	str	r0, [r1, #4]
 80004a0:	0019      	movs	r1, r3
 80004a2:	3110      	adds	r1, #16
 80004a4:	601a      	str	r2, [r3, #0]
 80004a6:	60da      	str	r2, [r3, #12]
 80004a8:	6119      	str	r1, [r3, #16]
 80004aa:	6159      	str	r1, [r3, #20]
 80004ac:	619a      	str	r2, [r3, #24]
 80004ae:	4770      	bx	lr
 80004b0:	200013f0 	.word	0x200013f0
 80004b4:	20000d58 	.word	0x20000d58
	...

080004c0 <mtx4_setup>:
 80004c0:	2200      	movs	r2, #0
 80004c2:	4b04      	ldr	r3, [pc, #16]	; (80004d4 <mtx4_setup+0x14>)
 80004c4:	601b      	str	r3, [r3, #0]
 80004c6:	605b      	str	r3, [r3, #4]
 80004c8:	609a      	str	r2, [r3, #8]
 80004ca:	4b03      	ldr	r3, [pc, #12]	; (80004d8 <mtx4_setup+0x18>)
 80004cc:	601b      	str	r3, [r3, #0]
 80004ce:	605b      	str	r3, [r3, #4]
 80004d0:	609a      	str	r2, [r3, #8]
 80004d2:	4770      	bx	lr
 80004d4:	20000634 	.word	0x20000634
 80004d8:	20000644 	.word	0x20000644
 80004dc:	00000000 	.word	0x00000000

080004e0 <test_printn.part.1>:
 80004e0:	b5f0      	push	{r4, r5, r6, r7, lr}
 80004e2:	46c6      	mov	lr, r8
 80004e4:	b500      	push	{lr}
 80004e6:	0006      	movs	r6, r0
 80004e8:	b084      	sub	sp, #16
 80004ea:	2800      	cmp	r0, #0
 80004ec:	d020      	beq.n	8000530 <test_printn.part.1+0x50>
 80004ee:	46e8      	mov	r8, sp
 80004f0:	4645      	mov	r5, r8
 80004f2:	e000      	b.n	80004f6 <test_printn.part.1+0x16>
 80004f4:	003d      	movs	r5, r7
 80004f6:	0030      	movs	r0, r6
 80004f8:	210a      	movs	r1, #10
 80004fa:	f7ff feef 	bl	80002dc <__aeabi_uidivmod>
 80004fe:	3130      	adds	r1, #48	; 0x30
 8000500:	b2cc      	uxtb	r4, r1
 8000502:	0030      	movs	r0, r6
 8000504:	702c      	strb	r4, [r5, #0]
 8000506:	210a      	movs	r1, #10
 8000508:	f7ff fe62 	bl	80001d0 <__udivsi3>
 800050c:	1c6f      	adds	r7, r5, #1
 800050e:	1e06      	subs	r6, r0, #0
 8000510:	d1f0      	bne.n	80004f4 <test_printn.part.1+0x14>
 8000512:	4547      	cmp	r7, r8
 8000514:	d90c      	bls.n	8000530 <test_printn.part.1+0x50>
 8000516:	466b      	mov	r3, sp
 8000518:	4e07      	ldr	r6, [pc, #28]	; (8000538 <test_printn.part.1+0x58>)
 800051a:	1e5f      	subs	r7, r3, #1
 800051c:	e000      	b.n	8000520 <test_printn.part.1+0x40>
 800051e:	782c      	ldrb	r4, [r5, #0]
 8000520:	6830      	ldr	r0, [r6, #0]
 8000522:	0021      	movs	r1, r4
 8000524:	6803      	ldr	r3, [r0, #0]
 8000526:	3d01      	subs	r5, #1
 8000528:	689b      	ldr	r3, [r3, #8]
 800052a:	4798      	blx	r3
 800052c:	42af      	cmp	r7, r5
 800052e:	d1f6      	bne.n	800051e <test_printn.part.1+0x3e>
 8000530:	b004      	add	sp, #16
 8000532:	bc04      	pop	{r2}
 8000534:	4690      	mov	r8, r2
 8000536:	bdf0      	pop	{r4, r5, r6, r7, pc}
 8000538:	20000ca0 	.word	0x20000ca0
 800053c:	00000000 	.word	0x00000000

08000540 <test_printn>:
 8000540:	b510      	push	{r4, lr}
 8000542:	2800      	cmp	r0, #0
 8000544:	d106      	bne.n	8000554 <test_printn+0x14>
 8000546:	4b05      	ldr	r3, [pc, #20]	; (800055c <test_printn+0x1c>)
 8000548:	2130      	movs	r1, #48	; 0x30
 800054a:	6818      	ldr	r0, [r3, #0]
 800054c:	6803      	ldr	r3, [r0, #0]
 800054e:	689b      	ldr	r3, [r3, #8]
 8000550:	4798      	blx	r3
 8000552:	bd10      	pop	{r4, pc}
 8000554:	f7ff ffc4 	bl	80004e0 <test_printn.part.1>
 8000558:	e7fb      	b.n	8000552 <test_printn+0x12>
 800055a:	46c0      	nop			; (mov r8, r8)
 800055c:	20000ca0 	.word	0x20000ca0

08000560 <print_line>:
 8000560:	b570      	push	{r4, r5, r6, lr}
 8000562:	244c      	movs	r4, #76	; 0x4c
 8000564:	4d07      	ldr	r5, [pc, #28]	; (8000584 <print_line+0x24>)
 8000566:	6828      	ldr	r0, [r5, #0]
 8000568:	212d      	movs	r1, #45	; 0x2d
 800056a:	6803      	ldr	r3, [r0, #0]
 800056c:	3c01      	subs	r4, #1
 800056e:	689b      	ldr	r3, [r3, #8]
 8000570:	4798      	blx	r3
 8000572:	2c00      	cmp	r4, #0
 8000574:	d1f7      	bne.n	8000566 <print_line+0x6>
 8000576:	6828      	ldr	r0, [r5, #0]
 8000578:	2202      	movs	r2, #2
 800057a:	6803      	ldr	r3, [r0, #0]
 800057c:	4902      	ldr	r1, [pc, #8]	; (8000588 <print_line+0x28>)
 800057e:	681b      	ldr	r3, [r3, #0]
 8000580:	4798      	blx	r3
 8000582:	bd70      	pop	{r4, r5, r6, pc}
 8000584:	20000ca0 	.word	0x20000ca0
 8000588:	08008300 	.word	0x08008300
 800058c:	00000000 	.word	0x00000000

08000590 <_test_assert_sequence>:
 8000590:	b5f0      	push	{r4, r5, r6, r7, lr}
 8000592:	4e0e      	ldr	r6, [pc, #56]	; (80005cc <_test_assert_sequence+0x3c>)
 8000594:	4f0e      	ldr	r7, [pc, #56]	; (80005d0 <_test_assert_sequence+0x40>)
 8000596:	6835      	ldr	r5, [r6, #0]
 8000598:	003b      	movs	r3, r7
 800059a:	e004      	b.n	80005a6 <_test_assert_sequence+0x16>
 800059c:	7824      	ldrb	r4, [r4, #0]
 800059e:	3101      	adds	r1, #1
 80005a0:	3301      	adds	r3, #1
 80005a2:	4294      	cmp	r4, r2
 80005a4:	d108      	bne.n	80005b8 <_test_assert_sequence+0x28>
 80005a6:	780a      	ldrb	r2, [r1, #0]
 80005a8:	001c      	movs	r4, r3
 80005aa:	42ab      	cmp	r3, r5
 80005ac:	d3f6      	bcc.n	800059c <_test_assert_sequence+0xc>
 80005ae:	2a00      	cmp	r2, #0
 80005b0:	d102      	bne.n	80005b8 <_test_assert_sequence+0x28>
 80005b2:	6037      	str	r7, [r6, #0]
 80005b4:	2000      	movs	r0, #0
 80005b6:	e007      	b.n	80005c8 <_test_assert_sequence+0x38>
 80005b8:	2301      	movs	r3, #1
 80005ba:	4a06      	ldr	r2, [pc, #24]	; (80005d4 <_test_assert_sequence+0x44>)
 80005bc:	7013      	strb	r3, [r2, #0]
 80005be:	4a06      	ldr	r2, [pc, #24]	; (80005d8 <_test_assert_sequence+0x48>)
 80005c0:	7013      	strb	r3, [r2, #0]
 80005c2:	4b06      	ldr	r3, [pc, #24]	; (80005dc <_test_assert_sequence+0x4c>)
 80005c4:	6018      	str	r0, [r3, #0]
 80005c6:	2001      	movs	r0, #1
 80005c8:	bdf0      	pop	{r4, r5, r6, r7, pc}
 80005ca:	46c0      	nop			; (mov r8, r8)
 80005cc:	20001438 	.word	0x20001438
 80005d0:	20001428 	.word	0x20001428
 80005d4:	200013e8 	.word	0x200013e8
 80005d8:	20000d24 	.word	0x20000d24
 80005dc:	20000ccc 	.word	0x20000ccc

080005e0 <_test_assert>:
 80005e0:	2300      	movs	r3, #0
 80005e2:	2900      	cmp	r1, #0
 80005e4:	d107      	bne.n	80005f6 <_test_assert+0x16>
 80005e6:	4a05      	ldr	r2, [pc, #20]	; (80005fc <_test_assert+0x1c>)
 80005e8:	3301      	adds	r3, #1
 80005ea:	7013      	strb	r3, [r2, #0]
 80005ec:	4a04      	ldr	r2, [pc, #16]	; (8000600 <_test_assert+0x20>)
 80005ee:	7013      	strb	r3, [r2, #0]
 80005f0:	4b04      	ldr	r3, [pc, #16]	; (8000604 <_test_assert+0x24>)
 80005f2:	6018      	str	r0, [r3, #0]
 80005f4:	2301      	movs	r3, #1
 80005f6:	0018      	movs	r0, r3
 80005f8:	4770      	bx	lr
 80005fa:	46c0      	nop			; (mov r8, r8)
 80005fc:	200013e8 	.word	0x200013e8
 8000600:	20000d24 	.word	0x20000d24
 8000604:	20000ccc 	.word	0x20000ccc
	...

08000610 <test_println>:
 8000610:	b570      	push	{r4, r5, r6, lr}
 8000612:	7801      	ldrb	r1, [r0, #0]
 8000614:	0004      	movs	r4, r0
 8000616:	4d09      	ldr	r5, [pc, #36]	; (800063c <test_println+0x2c>)
 8000618:	2900      	cmp	r1, #0
 800061a:	d007      	beq.n	800062c <test_println+0x1c>
 800061c:	6828      	ldr	r0, [r5, #0]
 800061e:	3401      	adds	r4, #1
 8000620:	6803      	ldr	r3, [r0, #0]
 8000622:	689b      	ldr	r3, [r3, #8]
 8000624:	4798      	blx	r3
 8000626:	7821      	ldrb	r1, [r4, #0]
 8000628:	2900      	cmp	r1, #0
 800062a:	d1f7      	bne.n	800061c <test_println+0xc>
 800062c:	6828      	ldr	r0, [r5, #0]
 800062e:	2202      	movs	r2, #2
 8000630:	6803      	ldr	r3, [r0, #0]
 8000632:	4903      	ldr	r1, [pc, #12]	; (8000640 <test_println+0x30>)
 8000634:	681b      	ldr	r3, [r3, #0]
 8000636:	4798      	blx	r3
 8000638:	bd70      	pop	{r4, r5, r6, pc}
 800063a:	46c0      	nop			; (mov r8, r8)
 800063c:	20000ca0 	.word	0x20000ca0
 8000640:	08008300 	.word	0x08008300
	...

08000650 <test_print>:
 8000650:	b570      	push	{r4, r5, r6, lr}
 8000652:	7801      	ldrb	r1, [r0, #0]
 8000654:	0004      	movs	r4, r0
 8000656:	2900      	cmp	r1, #0
 8000658:	d008      	beq.n	800066c <test_print+0x1c>
 800065a:	4d05      	ldr	r5, [pc, #20]	; (8000670 <test_print+0x20>)
 800065c:	6828      	ldr	r0, [r5, #0]
 800065e:	3401      	adds	r4, #1
 8000660:	6803      	ldr	r3, [r0, #0]
 8000662:	689b      	ldr	r3, [r3, #8]
 8000664:	4798      	blx	r3
 8000666:	7821      	ldrb	r1, [r4, #0]
 8000668:	2900      	cmp	r1, #0
 800066a:	d1f7      	bne.n	800065c <test_print+0xc>
 800066c:	bd70      	pop	{r4, r5, r6, pc}
 800066e:	46c0      	nop			; (mov r8, r8)
 8000670:	20000ca0 	.word	0x20000ca0
	...

08000680 <stSetAlarm>:
 8000680:	2380      	movs	r3, #128	; 0x80
 8000682:	05db      	lsls	r3, r3, #23
 8000684:	68da      	ldr	r2, [r3, #12]
 8000686:	0792      	lsls	r2, r2, #30
 8000688:	d501      	bpl.n	800068e <stSetAlarm+0xe>
 800068a:	6358      	str	r0, [r3, #52]	; 0x34
 800068c:	4770      	bx	lr
 800068e:	b672      	cpsid	i
 8000690:	4b01      	ldr	r3, [pc, #4]	; (8000698 <stSetAlarm+0x18>)
 8000692:	4a02      	ldr	r2, [pc, #8]	; (800069c <stSetAlarm+0x1c>)
 8000694:	62da      	str	r2, [r3, #44]	; 0x2c
 8000696:	e7fe      	b.n	8000696 <stSetAlarm+0x16>
 8000698:	20000738 	.word	0x20000738
 800069c:	08007cd0 	.word	0x08007cd0

080006a0 <_port_irq_epilogue.part.0>:
 80006a0:	b580      	push	{r7, lr}
 80006a2:	af00      	add	r7, sp, #0
 80006a4:	b672      	cpsid	i
 80006a6:	f3ef 8309 	mrs	r3, PSP
 80006aa:	3b20      	subs	r3, #32
 80006ac:	f383 8809 	msr	PSP, r3
 80006b0:	2280      	movs	r2, #128	; 0x80
 80006b2:	0452      	lsls	r2, r2, #17
 80006b4:	61da      	str	r2, [r3, #28]
 80006b6:	4a07      	ldr	r2, [pc, #28]	; (80006d4 <_port_irq_epilogue.part.0+0x34>)
 80006b8:	6811      	ldr	r1, [r2, #0]
 80006ba:	6992      	ldr	r2, [r2, #24]
 80006bc:	6889      	ldr	r1, [r1, #8]
 80006be:	6892      	ldr	r2, [r2, #8]
 80006c0:	4291      	cmp	r1, r2
 80006c2:	d803      	bhi.n	80006cc <_port_irq_epilogue.part.0+0x2c>
 80006c4:	4a04      	ldr	r2, [pc, #16]	; (80006d8 <_port_irq_epilogue.part.0+0x38>)
 80006c6:	619a      	str	r2, [r3, #24]
 80006c8:	46bd      	mov	sp, r7
 80006ca:	bd80      	pop	{r7, pc}
 80006cc:	4a03      	ldr	r2, [pc, #12]	; (80006dc <_port_irq_epilogue.part.0+0x3c>)
 80006ce:	619a      	str	r2, [r3, #24]
 80006d0:	e7fa      	b.n	80006c8 <_port_irq_epilogue.part.0+0x28>
 80006d2:	46c0      	nop			; (mov r8, r8)
 80006d4:	20000738 	.word	0x20000738
 80006d8:	080001bc 	.word	0x080001bc
 80006dc:	080001b1 	.word	0x080001b1

080006e0 <NMI_Handler>:
 80006e0:	b580      	push	{r7, lr}
 80006e2:	af00      	add	r7, sp, #0
 80006e4:	f3ef 8309 	mrs	r3, PSP
 80006e8:	3320      	adds	r3, #32
 80006ea:	f383 8809 	msr	PSP, r3
 80006ee:	b662      	cpsie	i
 80006f0:	46bd      	mov	sp, r7
 80006f2:	bd80      	pop	{r7, pc}
	...

08000700 <_dbg_trace>:
 8000700:	2180      	movs	r1, #128	; 0x80
 8000702:	4a0b      	ldr	r2, [pc, #44]	; (8000730 <_dbg_trace+0x30>)
 8000704:	05c9      	lsls	r1, r1, #23
 8000706:	6bd3      	ldr	r3, [r2, #60]	; 0x3c
 8000708:	6a49      	ldr	r1, [r1, #36]	; 0x24
 800070a:	6019      	str	r1, [r3, #0]
 800070c:	6991      	ldr	r1, [r2, #24]
 800070e:	6059      	str	r1, [r3, #4]
 8000710:	6a41      	ldr	r1, [r0, #36]	; 0x24
 8000712:	6099      	str	r1, [r3, #8]
 8000714:	2120      	movs	r1, #32
 8000716:	5c41      	ldrb	r1, [r0, r1]
 8000718:	7319      	strb	r1, [r3, #12]
 800071a:	2188      	movs	r1, #136	; 0x88
 800071c:	00c9      	lsls	r1, r1, #3
 800071e:	3310      	adds	r3, #16
 8000720:	1851      	adds	r1, r2, r1
 8000722:	428b      	cmp	r3, r1
 8000724:	d301      	bcc.n	800072a <_dbg_trace+0x2a>
 8000726:	0013      	movs	r3, r2
 8000728:	3340      	adds	r3, #64	; 0x40
 800072a:	63d3      	str	r3, [r2, #60]	; 0x3c
 800072c:	4770      	bx	lr
 800072e:	46c0      	nop			; (mov r8, r8)
 8000730:	20000738 	.word	0x20000738
	...

08000740 <chDbgCheckClassS>:
 8000740:	4b05      	ldr	r3, [pc, #20]	; (8000758 <chDbgCheckClassS+0x18>)
 8000742:	6b1a      	ldr	r2, [r3, #48]	; 0x30
 8000744:	2a00      	cmp	r2, #0
 8000746:	d103      	bne.n	8000750 <chDbgCheckClassS+0x10>
 8000748:	6b5a      	ldr	r2, [r3, #52]	; 0x34
 800074a:	2a00      	cmp	r2, #0
 800074c:	dd00      	ble.n	8000750 <chDbgCheckClassS+0x10>
 800074e:	4770      	bx	lr
 8000750:	b672      	cpsid	i
 8000752:	4a02      	ldr	r2, [pc, #8]	; (800075c <chDbgCheckClassS+0x1c>)
 8000754:	62da      	str	r2, [r3, #44]	; 0x2c
 8000756:	e7fe      	b.n	8000756 <chDbgCheckClassS+0x16>
 8000758:	20000738 	.word	0x20000738
 800075c:	08007ef0 	.word	0x08007ef0

08000760 <chDbgCheckClassI>:
 8000760:	4b05      	ldr	r3, [pc, #20]	; (8000778 <chDbgCheckClassI+0x18>)
 8000762:	6b1a      	ldr	r2, [r3, #48]	; 0x30
 8000764:	2a00      	cmp	r2, #0
 8000766:	db03      	blt.n	8000770 <chDbgCheckClassI+0x10>
 8000768:	6b5a      	ldr	r2, [r3, #52]	; 0x34
 800076a:	2a00      	cmp	r2, #0
 800076c:	dd00      	ble.n	8000770 <chDbgCheckClassI+0x10>
 800076e:	4770      	bx	lr
 8000770:	b672      	cpsid	i
 8000772:	4a02      	ldr	r2, [pc, #8]	; (800077c <chDbgCheckClassI+0x1c>)
 8000774:	62da      	str	r2, [r3, #44]	; 0x2c
 8000776:	e7fe      	b.n	8000776 <chDbgCheckClassI+0x16>
 8000778:	20000738 	.word	0x20000738
 800077c:	08007ee0 	.word	0x08007ee0

08000780 <chThdCreateI>:
 8000780:	b5f8      	push	{r3, r4, r5, r6, r7, lr}
 8000782:	0004      	movs	r4, r0
 8000784:	000d      	movs	r5, r1
 8000786:	0016      	movs	r6, r2
 8000788:	001f      	movs	r7, r3
 800078a:	f7ff ffe9 	bl	8000760 <chDbgCheckClassI>
 800078e:	2c00      	cmp	r4, #0
 8000790:	d027      	beq.n	80007e2 <chThdCreateI+0x62>
 8000792:	2dcf      	cmp	r5, #207	; 0xcf
 8000794:	d925      	bls.n	80007e2 <chThdCreateI+0x62>
 8000796:	2e7f      	cmp	r6, #127	; 0x7f
 8000798:	d823      	bhi.n	80007e2 <chThdCreateI+0x62>
 800079a:	002b      	movs	r3, r5
 800079c:	9a06      	ldr	r2, [sp, #24]
 800079e:	3b24      	subs	r3, #36	; 0x24
 80007a0:	18e3      	adds	r3, r4, r3
 80007a2:	60e3      	str	r3, [r4, #12]
 80007a4:	615a      	str	r2, [r3, #20]
 80007a6:	4a11      	ldr	r2, [pc, #68]	; (80007ec <chThdCreateI+0x6c>)
 80007a8:	611f      	str	r7, [r3, #16]
 80007aa:	621a      	str	r2, [r3, #32]
 80007ac:	2202      	movs	r2, #2
 80007ae:	2300      	movs	r3, #0
 80007b0:	2101      	movs	r1, #1
 80007b2:	8422      	strh	r2, [r4, #32]
 80007b4:	3220      	adds	r2, #32
 80007b6:	60a6      	str	r6, [r4, #8]
 80007b8:	6426      	str	r6, [r4, #64]	; 0x40
 80007ba:	63e3      	str	r3, [r4, #60]	; 0x3c
 80007bc:	63a3      	str	r3, [r4, #56]	; 0x38
 80007be:	54a1      	strb	r1, [r4, r2]
 80007c0:	61a3      	str	r3, [r4, #24]
 80007c2:	4b0b      	ldr	r3, [pc, #44]	; (80007f0 <chThdCreateI+0x70>)
 80007c4:	0020      	movs	r0, r4
 80007c6:	6123      	str	r3, [r4, #16]
 80007c8:	695a      	ldr	r2, [r3, #20]
 80007ca:	6162      	str	r2, [r4, #20]
 80007cc:	6114      	str	r4, [r2, #16]
 80007ce:	615c      	str	r4, [r3, #20]
 80007d0:	0023      	movs	r3, r4
 80007d2:	3328      	adds	r3, #40	; 0x28
 80007d4:	62a3      	str	r3, [r4, #40]	; 0x28
 80007d6:	3304      	adds	r3, #4
 80007d8:	62e3      	str	r3, [r4, #44]	; 0x2c
 80007da:	6323      	str	r3, [r4, #48]	; 0x30
 80007dc:	331c      	adds	r3, #28
 80007de:	61e3      	str	r3, [r4, #28]
 80007e0:	bdf8      	pop	{r3, r4, r5, r6, r7, pc}
 80007e2:	b672      	cpsid	i
 80007e4:	4b02      	ldr	r3, [pc, #8]	; (80007f0 <chThdCreateI+0x70>)
 80007e6:	4a03      	ldr	r2, [pc, #12]	; (80007f4 <chThdCreateI+0x74>)
 80007e8:	62da      	str	r2, [r3, #44]	; 0x2c
 80007ea:	e7fe      	b.n	80007ea <chThdCreateI+0x6a>
 80007ec:	080001a1 	.word	0x080001a1
 80007f0:	20000738 	.word	0x20000738
 80007f4:	08007b00 	.word	0x08007b00
	...

08000800 <chSchReadyI>:
 8000800:	b510      	push	{r4, lr}
 8000802:	0004      	movs	r4, r0
 8000804:	f7ff ffac 	bl	8000760 <chDbgCheckClassI>
 8000808:	2c00      	cmp	r4, #0
 800080a:	d019      	beq.n	8000840 <chSchReadyI+0x40>
 800080c:	2320      	movs	r3, #32
 800080e:	5ce2      	ldrb	r2, [r4, r3]
 8000810:	2a00      	cmp	r2, #0
 8000812:	d010      	beq.n	8000836 <chSchReadyI+0x36>
 8000814:	2a0f      	cmp	r2, #15
 8000816:	d00e      	beq.n	8000836 <chSchReadyI+0x36>
 8000818:	2200      	movs	r2, #0
 800081a:	54e2      	strb	r2, [r4, r3]
 800081c:	68a2      	ldr	r2, [r4, #8]
 800081e:	4b0b      	ldr	r3, [pc, #44]	; (800084c <chSchReadyI+0x4c>)
 8000820:	681b      	ldr	r3, [r3, #0]
 8000822:	6899      	ldr	r1, [r3, #8]
 8000824:	4291      	cmp	r1, r2
 8000826:	d2fb      	bcs.n	8000820 <chSchReadyI+0x20>
 8000828:	685a      	ldr	r2, [r3, #4]
 800082a:	6023      	str	r3, [r4, #0]
 800082c:	6062      	str	r2, [r4, #4]
 800082e:	0020      	movs	r0, r4
 8000830:	6014      	str	r4, [r2, #0]
 8000832:	605c      	str	r4, [r3, #4]
 8000834:	bd10      	pop	{r4, pc}
 8000836:	b672      	cpsid	i
 8000838:	4b04      	ldr	r3, [pc, #16]	; (800084c <chSchReadyI+0x4c>)
 800083a:	4a05      	ldr	r2, [pc, #20]	; (8000850 <chSchReadyI+0x50>)
 800083c:	62da      	str	r2, [r3, #44]	; 0x2c
 800083e:	e7fe      	b.n	800083e <chSchReadyI+0x3e>
 8000840:	b672      	cpsid	i
 8000842:	4b02      	ldr	r3, [pc, #8]	; (800084c <chSchReadyI+0x4c>)
 8000844:	4a02      	ldr	r2, [pc, #8]	; (8000850 <chSchReadyI+0x50>)
 8000846:	62da      	str	r2, [r3, #44]	; 0x2c
 8000848:	e7fe      	b.n	8000848 <chSchReadyI+0x48>
 800084a:	46c0      	nop			; (mov r8, r8)
 800084c:	20000738 	.word	0x20000738
 8000850:	08007a80 	.word	0x08007a80
	...

08000860 <chIQPutI>:
 8000860:	b570      	push	{r4, r5, r6, lr}
 8000862:	0004      	movs	r4, r0
 8000864:	000d      	movs	r5, r1
 8000866:	f7ff ff7b 	bl	8000760 <chDbgCheckClassI>
 800086a:	f7ff ff79 	bl	8000760 <chDbgCheckClassI>
 800086e:	6962      	ldr	r2, [r4, #20]
 8000870:	69a1      	ldr	r1, [r4, #24]
 8000872:	68a3      	ldr	r3, [r4, #8]
 8000874:	428a      	cmp	r2, r1
 8000876:	d021      	beq.n	80008bc <chIQPutI+0x5c>
 8000878:	3301      	adds	r3, #1
 800087a:	60a3      	str	r3, [r4, #8]
 800087c:	1c53      	adds	r3, r2, #1
 800087e:	6163      	str	r3, [r4, #20]
 8000880:	7015      	strb	r5, [r2, #0]
 8000882:	6963      	ldr	r3, [r4, #20]
 8000884:	6922      	ldr	r2, [r4, #16]
 8000886:	4293      	cmp	r3, r2
 8000888:	d301      	bcc.n	800088e <chIQPutI+0x2e>
 800088a:	68e3      	ldr	r3, [r4, #12]
 800088c:	6163      	str	r3, [r4, #20]
 800088e:	6820      	ldr	r0, [r4, #0]
 8000890:	4284      	cmp	r4, r0
 8000892:	d00b      	beq.n	80008ac <chIQPutI+0x4c>
 8000894:	6803      	ldr	r3, [r0, #0]
 8000896:	6023      	str	r3, [r4, #0]
 8000898:	605c      	str	r4, [r3, #4]
 800089a:	2320      	movs	r3, #32
 800089c:	5cc3      	ldrb	r3, [r0, r3]
 800089e:	2b04      	cmp	r3, #4
 80008a0:	d006      	beq.n	80008b0 <chIQPutI+0x50>
 80008a2:	b672      	cpsid	i
 80008a4:	4b08      	ldr	r3, [pc, #32]	; (80008c8 <chIQPutI+0x68>)
 80008a6:	4a09      	ldr	r2, [pc, #36]	; (80008cc <chIQPutI+0x6c>)
 80008a8:	62da      	str	r2, [r3, #44]	; 0x2c
 80008aa:	e7fe      	b.n	80008aa <chIQPutI+0x4a>
 80008ac:	2000      	movs	r0, #0
 80008ae:	bd70      	pop	{r4, r5, r6, pc}
 80008b0:	2300      	movs	r3, #0
 80008b2:	6243      	str	r3, [r0, #36]	; 0x24
 80008b4:	f7ff ffa4 	bl	8000800 <chSchReadyI>
 80008b8:	2000      	movs	r0, #0
 80008ba:	e7f8      	b.n	80008ae <chIQPutI+0x4e>
 80008bc:	2b00      	cmp	r3, #0
 80008be:	d0db      	beq.n	8000878 <chIQPutI+0x18>
 80008c0:	2004      	movs	r0, #4
 80008c2:	4240      	negs	r0, r0
 80008c4:	e7f3      	b.n	80008ae <chIQPutI+0x4e>
 80008c6:	46c0      	nop			; (mov r8, r8)
 80008c8:	20000738 	.word	0x20000738
 80008cc:	08007a40 	.word	0x08007a40

080008d0 <chOQGetI>:
 80008d0:	b570      	push	{r4, r5, r6, lr}
 80008d2:	0004      	movs	r4, r0
 80008d4:	f7ff ff44 	bl	8000760 <chDbgCheckClassI>
 80008d8:	f7ff ff42 	bl	8000760 <chDbgCheckClassI>
 80008dc:	69a2      	ldr	r2, [r4, #24]
 80008de:	6961      	ldr	r1, [r4, #20]
 80008e0:	68a3      	ldr	r3, [r4, #8]
 80008e2:	4291      	cmp	r1, r2
 80008e4:	d01e      	beq.n	8000924 <chOQGetI+0x54>
 80008e6:	3301      	adds	r3, #1
 80008e8:	60a3      	str	r3, [r4, #8]
 80008ea:	1c53      	adds	r3, r2, #1
 80008ec:	61a3      	str	r3, [r4, #24]
 80008ee:	7815      	ldrb	r5, [r2, #0]
 80008f0:	6922      	ldr	r2, [r4, #16]
 80008f2:	4293      	cmp	r3, r2
 80008f4:	d301      	bcc.n	80008fa <chOQGetI+0x2a>
 80008f6:	68e3      	ldr	r3, [r4, #12]
 80008f8:	61a3      	str	r3, [r4, #24]
 80008fa:	6820      	ldr	r0, [r4, #0]
 80008fc:	4284      	cmp	r4, r0
 80008fe:	d00f      	beq.n	8000920 <chOQGetI+0x50>
 8000900:	6803      	ldr	r3, [r0, #0]
 8000902:	6023      	str	r3, [r4, #0]
 8000904:	605c      	str	r4, [r3, #4]
 8000906:	2320      	movs	r3, #32
 8000908:	5cc3      	ldrb	r3, [r0, r3]
 800090a:	2b04      	cmp	r3, #4
 800090c:	d004      	beq.n	8000918 <chOQGetI+0x48>
 800090e:	b672      	cpsid	i
 8000910:	4b07      	ldr	r3, [pc, #28]	; (8000930 <chOQGetI+0x60>)
 8000912:	4a08      	ldr	r2, [pc, #32]	; (8000934 <chOQGetI+0x64>)
 8000914:	62da      	str	r2, [r3, #44]	; 0x2c
 8000916:	e7fe      	b.n	8000916 <chOQGetI+0x46>
 8000918:	2300      	movs	r3, #0
 800091a:	6243      	str	r3, [r0, #36]	; 0x24
 800091c:	f7ff ff70 	bl	8000800 <chSchReadyI>
 8000920:	0028      	movs	r0, r5
 8000922:	bd70      	pop	{r4, r5, r6, pc}
 8000924:	2b00      	cmp	r3, #0
 8000926:	d0de      	beq.n	80008e6 <chOQGetI+0x16>
 8000928:	2003      	movs	r0, #3
 800092a:	4240      	negs	r0, r0
 800092c:	e7f9      	b.n	8000922 <chOQGetI+0x52>
 800092e:	46c0      	nop			; (mov r8, r8)
 8000930:	20000738 	.word	0x20000738
 8000934:	08007a40 	.word	0x08007a40
	...

08000940 <chEvtSignalI>:
 8000940:	b570      	push	{r4, r5, r6, lr}
 8000942:	0004      	movs	r4, r0
 8000944:	000d      	movs	r5, r1
 8000946:	f7ff ff0b 	bl	8000760 <chDbgCheckClassI>
 800094a:	2c00      	cmp	r4, #0
 800094c:	d016      	beq.n	800097c <chEvtSignalI+0x3c>
 800094e:	2320      	movs	r3, #32
 8000950:	6ba1      	ldr	r1, [r4, #56]	; 0x38
 8000952:	4329      	orrs	r1, r5
 8000954:	63a1      	str	r1, [r4, #56]	; 0x38
 8000956:	5ce3      	ldrb	r3, [r4, r3]
 8000958:	2b0a      	cmp	r3, #10
 800095a:	d006      	beq.n	800096a <chEvtSignalI+0x2a>
 800095c:	2b0b      	cmp	r3, #11
 800095e:	d103      	bne.n	8000968 <chEvtSignalI+0x28>
 8000960:	6a63      	ldr	r3, [r4, #36]	; 0x24
 8000962:	4019      	ands	r1, r3
 8000964:	428b      	cmp	r3, r1
 8000966:	d003      	beq.n	8000970 <chEvtSignalI+0x30>
 8000968:	bd70      	pop	{r4, r5, r6, pc}
 800096a:	6a63      	ldr	r3, [r4, #36]	; 0x24
 800096c:	420b      	tst	r3, r1
 800096e:	d0fb      	beq.n	8000968 <chEvtSignalI+0x28>
 8000970:	2300      	movs	r3, #0
 8000972:	0020      	movs	r0, r4
 8000974:	6263      	str	r3, [r4, #36]	; 0x24
 8000976:	f7ff ff43 	bl	8000800 <chSchReadyI>
 800097a:	e7f5      	b.n	8000968 <chEvtSignalI+0x28>
 800097c:	b672      	cpsid	i
 800097e:	4b02      	ldr	r3, [pc, #8]	; (8000988 <chEvtSignalI+0x48>)
 8000980:	4a02      	ldr	r2, [pc, #8]	; (800098c <chEvtSignalI+0x4c>)
 8000982:	62da      	str	r2, [r3, #44]	; 0x2c
 8000984:	e7fe      	b.n	8000984 <chEvtSignalI+0x44>
 8000986:	46c0      	nop			; (mov r8, r8)
 8000988:	20000738 	.word	0x20000738
 800098c:	08007c30 	.word	0x08007c30

08000990 <chEvtBroadcastFlagsI>:
 8000990:	b570      	push	{r4, r5, r6, lr}
 8000992:	0005      	movs	r5, r0
 8000994:	000e      	movs	r6, r1
 8000996:	f7ff fee3 	bl	8000760 <chDbgCheckClassI>
 800099a:	2d00      	cmp	r5, #0
 800099c:	d012      	beq.n	80009c4 <chEvtBroadcastFlagsI+0x34>
 800099e:	682c      	ldr	r4, [r5, #0]
 80009a0:	42a5      	cmp	r5, r4
 80009a2:	d00e      	beq.n	80009c2 <chEvtBroadcastFlagsI+0x32>
 80009a4:	68e3      	ldr	r3, [r4, #12]
 80009a6:	4333      	orrs	r3, r6
 80009a8:	60e3      	str	r3, [r4, #12]
 80009aa:	2e00      	cmp	r6, #0
 80009ac:	d002      	beq.n	80009b4 <chEvtBroadcastFlagsI+0x24>
 80009ae:	6922      	ldr	r2, [r4, #16]
 80009b0:	421a      	tst	r2, r3
 80009b2:	d003      	beq.n	80009bc <chEvtBroadcastFlagsI+0x2c>
 80009b4:	68a1      	ldr	r1, [r4, #8]
 80009b6:	6860      	ldr	r0, [r4, #4]
 80009b8:	f7ff ffc2 	bl	8000940 <chEvtSignalI>
 80009bc:	6824      	ldr	r4, [r4, #0]
 80009be:	42a5      	cmp	r5, r4
 80009c0:	d1f0      	bne.n	80009a4 <chEvtBroadcastFlagsI+0x14>
 80009c2:	bd70      	pop	{r4, r5, r6, pc}
 80009c4:	b672      	cpsid	i
 80009c6:	4b02      	ldr	r3, [pc, #8]	; (80009d0 <chEvtBroadcastFlagsI+0x40>)
 80009c8:	4a02      	ldr	r2, [pc, #8]	; (80009d4 <chEvtBroadcastFlagsI+0x44>)
 80009ca:	62da      	str	r2, [r3, #44]	; 0x2c
 80009cc:	e7fe      	b.n	80009cc <chEvtBroadcastFlagsI+0x3c>
 80009ce:	46c0      	nop			; (mov r8, r8)
 80009d0:	20000738 	.word	0x20000738
 80009d4:	08007b30 	.word	0x08007b30
	...

080009e0 <chMtxUnlockS>:
 80009e0:	b5f0      	push	{r4, r5, r6, r7, lr}
 80009e2:	46c6      	mov	lr, r8
 80009e4:	b500      	push	{lr}
 80009e6:	0004      	movs	r4, r0
 80009e8:	f7ff feaa 	bl	8000740 <chDbgCheckClassS>
 80009ec:	2c00      	cmp	r4, #0
 80009ee:	d012      	beq.n	8000a16 <chMtxUnlockS+0x36>
 80009f0:	4b22      	ldr	r3, [pc, #136]	; (8000a7c <chMtxUnlockS+0x9c>)
 80009f2:	699f      	ldr	r7, [r3, #24]
 80009f4:	6bfa      	ldr	r2, [r7, #60]	; 0x3c
 80009f6:	4690      	mov	r8, r2
 80009f8:	2a00      	cmp	r2, #0
 80009fa:	d03b      	beq.n	8000a74 <chMtxUnlockS+0x94>
 80009fc:	6892      	ldr	r2, [r2, #8]
 80009fe:	42ba      	cmp	r2, r7
 8000a00:	d003      	beq.n	8000a0a <chMtxUnlockS+0x2a>
 8000a02:	b672      	cpsid	i
 8000a04:	4a1e      	ldr	r2, [pc, #120]	; (8000a80 <chMtxUnlockS+0xa0>)
 8000a06:	62da      	str	r2, [r3, #44]	; 0x2c
 8000a08:	e7fe      	b.n	8000a08 <chMtxUnlockS+0x28>
 8000a0a:	45a0      	cmp	r8, r4
 8000a0c:	d008      	beq.n	8000a20 <chMtxUnlockS+0x40>
 8000a0e:	b672      	cpsid	i
 8000a10:	4a1b      	ldr	r2, [pc, #108]	; (8000a80 <chMtxUnlockS+0xa0>)
 8000a12:	62da      	str	r2, [r3, #44]	; 0x2c
 8000a14:	e7fe      	b.n	8000a14 <chMtxUnlockS+0x34>
 8000a16:	b672      	cpsid	i
 8000a18:	4b18      	ldr	r3, [pc, #96]	; (8000a7c <chMtxUnlockS+0x9c>)
 8000a1a:	4a19      	ldr	r2, [pc, #100]	; (8000a80 <chMtxUnlockS+0xa0>)
 8000a1c:	62da      	str	r2, [r3, #44]	; 0x2c
 8000a1e:	e7fe      	b.n	8000a1e <chMtxUnlockS+0x3e>
 8000a20:	68e5      	ldr	r5, [r4, #12]
 8000a22:	63fd      	str	r5, [r7, #60]	; 0x3c
 8000a24:	f7ff fe8c 	bl	8000740 <chDbgCheckClassS>
 8000a28:	6826      	ldr	r6, [r4, #0]
 8000a2a:	42b4      	cmp	r4, r6
 8000a2c:	d01e      	beq.n	8000a6c <chMtxUnlockS+0x8c>
 8000a2e:	6c3b      	ldr	r3, [r7, #64]	; 0x40
 8000a30:	4698      	mov	r8, r3
 8000a32:	2d00      	cmp	r5, #0
 8000a34:	d00b      	beq.n	8000a4e <chMtxUnlockS+0x6e>
 8000a36:	f7ff fe83 	bl	8000740 <chDbgCheckClassS>
 8000a3a:	682b      	ldr	r3, [r5, #0]
 8000a3c:	429d      	cmp	r5, r3
 8000a3e:	d003      	beq.n	8000a48 <chMtxUnlockS+0x68>
 8000a40:	689b      	ldr	r3, [r3, #8]
 8000a42:	4598      	cmp	r8, r3
 8000a44:	d200      	bcs.n	8000a48 <chMtxUnlockS+0x68>
 8000a46:	4698      	mov	r8, r3
 8000a48:	68ed      	ldr	r5, [r5, #12]
 8000a4a:	2d00      	cmp	r5, #0
 8000a4c:	d1f3      	bne.n	8000a36 <chMtxUnlockS+0x56>
 8000a4e:	4643      	mov	r3, r8
 8000a50:	60bb      	str	r3, [r7, #8]
 8000a52:	6833      	ldr	r3, [r6, #0]
 8000a54:	0030      	movs	r0, r6
 8000a56:	6023      	str	r3, [r4, #0]
 8000a58:	605c      	str	r4, [r3, #4]
 8000a5a:	6bf3      	ldr	r3, [r6, #60]	; 0x3c
 8000a5c:	60a6      	str	r6, [r4, #8]
 8000a5e:	60e3      	str	r3, [r4, #12]
 8000a60:	63f4      	str	r4, [r6, #60]	; 0x3c
 8000a62:	f7ff fecd 	bl	8000800 <chSchReadyI>
 8000a66:	bc04      	pop	{r2}
 8000a68:	4690      	mov	r8, r2
 8000a6a:	bdf0      	pop	{r4, r5, r6, r7, pc}
 8000a6c:	2300      	movs	r3, #0
 8000a6e:	4642      	mov	r2, r8
 8000a70:	6093      	str	r3, [r2, #8]
 8000a72:	e7f8      	b.n	8000a66 <chMtxUnlockS+0x86>
 8000a74:	b672      	cpsid	i
 8000a76:	4a02      	ldr	r2, [pc, #8]	; (8000a80 <chMtxUnlockS+0xa0>)
 8000a78:	62da      	str	r2, [r3, #44]	; 0x2c
 8000a7a:	e7fe      	b.n	8000a7a <chMtxUnlockS+0x9a>
 8000a7c:	20000738 	.word	0x20000738
 8000a80:	08007c00 	.word	0x08007c00
	...

08000a90 <chSemSignalI>:
 8000a90:	b510      	push	{r4, lr}
 8000a92:	0004      	movs	r4, r0
 8000a94:	f7ff fe64 	bl	8000760 <chDbgCheckClassI>
 8000a98:	2c00      	cmp	r4, #0
 8000a9a:	d011      	beq.n	8000ac0 <chSemSignalI+0x30>
 8000a9c:	68a3      	ldr	r3, [r4, #8]
 8000a9e:	6820      	ldr	r0, [r4, #0]
 8000aa0:	2b00      	cmp	r3, #0
 8000aa2:	db06      	blt.n	8000ab2 <chSemSignalI+0x22>
 8000aa4:	42a0      	cmp	r0, r4
 8000aa6:	d006      	beq.n	8000ab6 <chSemSignalI+0x26>
 8000aa8:	b672      	cpsid	i
 8000aaa:	4b0c      	ldr	r3, [pc, #48]	; (8000adc <chSemSignalI+0x4c>)
 8000aac:	4a0c      	ldr	r2, [pc, #48]	; (8000ae0 <chSemSignalI+0x50>)
 8000aae:	62da      	str	r2, [r3, #44]	; 0x2c
 8000ab0:	e7fe      	b.n	8000ab0 <chSemSignalI+0x20>
 8000ab2:	42a0      	cmp	r0, r4
 8000ab4:	d0f8      	beq.n	8000aa8 <chSemSignalI+0x18>
 8000ab6:	3301      	adds	r3, #1
 8000ab8:	60a3      	str	r3, [r4, #8]
 8000aba:	2b00      	cmp	r3, #0
 8000abc:	dd05      	ble.n	8000aca <chSemSignalI+0x3a>
 8000abe:	bd10      	pop	{r4, pc}
 8000ac0:	b672      	cpsid	i
 8000ac2:	4b06      	ldr	r3, [pc, #24]	; (8000adc <chSemSignalI+0x4c>)
 8000ac4:	4a06      	ldr	r2, [pc, #24]	; (8000ae0 <chSemSignalI+0x50>)
 8000ac6:	62da      	str	r2, [r3, #44]	; 0x2c
 8000ac8:	e7fe      	b.n	8000ac8 <chSemSignalI+0x38>
 8000aca:	6803      	ldr	r3, [r0, #0]
 8000acc:	6023      	str	r3, [r4, #0]
 8000ace:	605c      	str	r4, [r3, #4]
 8000ad0:	2300      	movs	r3, #0
 8000ad2:	6243      	str	r3, [r0, #36]	; 0x24
 8000ad4:	f7ff fe94 	bl	8000800 <chSchReadyI>
 8000ad8:	e7f1      	b.n	8000abe <chSemSignalI+0x2e>
 8000ada:	46c0      	nop			; (mov r8, r8)
 8000adc:	20000738 	.word	0x20000738
 8000ae0:	08007bf0 	.word	0x08007bf0
	...

08000af0 <chMBFetchI.constprop.15>:
 8000af0:	b570      	push	{r4, r5, r6, lr}
 8000af2:	0006      	movs	r6, r0
 8000af4:	f7ff fe34 	bl	8000760 <chDbgCheckClassI>
 8000af8:	f7ff fe32 	bl	8000760 <chDbgCheckClassI>
 8000afc:	4c0d      	ldr	r4, [pc, #52]	; (8000b34 <chMBFetchI.constprop.15+0x44>)
 8000afe:	69a5      	ldr	r5, [r4, #24]
 8000b00:	2d00      	cmp	r5, #0
 8000b02:	dd13      	ble.n	8000b2c <chMBFetchI.constprop.15+0x3c>
 8000b04:	f7ff fe2c 	bl	8000760 <chDbgCheckClassI>
 8000b08:	3d01      	subs	r5, #1
 8000b0a:	68e2      	ldr	r2, [r4, #12]
 8000b0c:	61a5      	str	r5, [r4, #24]
 8000b0e:	1d13      	adds	r3, r2, #4
 8000b10:	6812      	ldr	r2, [r2, #0]
 8000b12:	60e3      	str	r3, [r4, #12]
 8000b14:	6032      	str	r2, [r6, #0]
 8000b16:	6862      	ldr	r2, [r4, #4]
 8000b18:	4293      	cmp	r3, r2
 8000b1a:	d301      	bcc.n	8000b20 <chMBFetchI.constprop.15+0x30>
 8000b1c:	6823      	ldr	r3, [r4, #0]
 8000b1e:	60e3      	str	r3, [r4, #12]
 8000b20:	0020      	movs	r0, r4
 8000b22:	301c      	adds	r0, #28
 8000b24:	f7ff ffb4 	bl	8000a90 <chSemSignalI>
 8000b28:	2000      	movs	r0, #0
 8000b2a:	e001      	b.n	8000b30 <chMBFetchI.constprop.15+0x40>
 8000b2c:	2001      	movs	r0, #1
 8000b2e:	4240      	negs	r0, r0
 8000b30:	bd70      	pop	{r4, r5, r6, pc}
 8000b32:	46c0      	nop			; (mov r8, r8)
 8000b34:	20000654 	.word	0x20000654
	...

08000b40 <chSemResetI>:
 8000b40:	b570      	push	{r4, r5, r6, lr}
 8000b42:	000e      	movs	r6, r1
 8000b44:	0004      	movs	r4, r0
 8000b46:	f7ff fe0b 	bl	8000760 <chDbgCheckClassI>
 8000b4a:	2e00      	cmp	r6, #0
 8000b4c:	db1d      	blt.n	8000b8a <chSemResetI+0x4a>
 8000b4e:	68a5      	ldr	r5, [r4, #8]
 8000b50:	6823      	ldr	r3, [r4, #0]
 8000b52:	2d00      	cmp	r5, #0
 8000b54:	db06      	blt.n	8000b64 <chSemResetI+0x24>
 8000b56:	429c      	cmp	r4, r3
 8000b58:	d006      	beq.n	8000b68 <chSemResetI+0x28>
 8000b5a:	b672      	cpsid	i
 8000b5c:	4b0d      	ldr	r3, [pc, #52]	; (8000b94 <chSemResetI+0x54>)
 8000b5e:	4a0e      	ldr	r2, [pc, #56]	; (8000b98 <chSemResetI+0x58>)
 8000b60:	62da      	str	r2, [r3, #44]	; 0x2c
 8000b62:	e7fe      	b.n	8000b62 <chSemResetI+0x22>
 8000b64:	429c      	cmp	r4, r3
 8000b66:	d0f8      	beq.n	8000b5a <chSemResetI+0x1a>
 8000b68:	3501      	adds	r5, #1
 8000b6a:	60a6      	str	r6, [r4, #8]
 8000b6c:	2d00      	cmp	r5, #0
 8000b6e:	dc0b      	bgt.n	8000b88 <chSemResetI+0x48>
 8000b70:	2602      	movs	r6, #2
 8000b72:	4276      	negs	r6, r6
 8000b74:	6860      	ldr	r0, [r4, #4]
 8000b76:	3501      	adds	r5, #1
 8000b78:	6843      	ldr	r3, [r0, #4]
 8000b7a:	6063      	str	r3, [r4, #4]
 8000b7c:	601c      	str	r4, [r3, #0]
 8000b7e:	f7ff fe3f 	bl	8000800 <chSchReadyI>
 8000b82:	6246      	str	r6, [r0, #36]	; 0x24
 8000b84:	2d01      	cmp	r5, #1
 8000b86:	d1f5      	bne.n	8000b74 <chSemResetI+0x34>
 8000b88:	bd70      	pop	{r4, r5, r6, pc}
 8000b8a:	b672      	cpsid	i
 8000b8c:	4b01      	ldr	r3, [pc, #4]	; (8000b94 <chSemResetI+0x54>)
 8000b8e:	4a02      	ldr	r2, [pc, #8]	; (8000b98 <chSemResetI+0x58>)
 8000b90:	62da      	str	r2, [r3, #44]	; 0x2c
 8000b92:	e7fe      	b.n	8000b92 <chSemResetI+0x52>
 8000b94:	20000738 	.word	0x20000738
 8000b98:	08007ad0 	.word	0x08007ad0
 8000b9c:	00000000 	.word	0x00000000

08000ba0 <chVTDoResetI>:
 8000ba0:	b510      	push	{r4, lr}
 8000ba2:	0004      	movs	r4, r0
 8000ba4:	f7ff fddc 	bl	8000760 <chDbgCheckClassI>
 8000ba8:	68e3      	ldr	r3, [r4, #12]
 8000baa:	2b00      	cmp	r3, #0
 8000bac:	d030      	beq.n	8000c10 <chVTDoResetI+0x70>
 8000bae:	4b1d      	ldr	r3, [pc, #116]	; (8000c24 <chVTDoResetI+0x84>)
 8000bb0:	69d9      	ldr	r1, [r3, #28]
 8000bb2:	42a1      	cmp	r1, r4
 8000bb4:	d00f      	beq.n	8000bd6 <chVTDoResetI+0x36>
 8000bb6:	6861      	ldr	r1, [r4, #4]
 8000bb8:	6822      	ldr	r2, [r4, #0]
 8000bba:	331c      	adds	r3, #28
 8000bbc:	600a      	str	r2, [r1, #0]
 8000bbe:	6822      	ldr	r2, [r4, #0]
 8000bc0:	6051      	str	r1, [r2, #4]
 8000bc2:	2100      	movs	r1, #0
 8000bc4:	60e1      	str	r1, [r4, #12]
 8000bc6:	429a      	cmp	r2, r3
 8000bc8:	d004      	beq.n	8000bd4 <chVTDoResetI+0x34>
 8000bca:	6891      	ldr	r1, [r2, #8]
 8000bcc:	68a3      	ldr	r3, [r4, #8]
 8000bce:	468c      	mov	ip, r1
 8000bd0:	4463      	add	r3, ip
 8000bd2:	6093      	str	r3, [r2, #8]
 8000bd4:	bd10      	pop	{r4, pc}
 8000bd6:	001c      	movs	r4, r3
 8000bd8:	2000      	movs	r0, #0
 8000bda:	680a      	ldr	r2, [r1, #0]
 8000bdc:	341c      	adds	r4, #28
 8000bde:	61da      	str	r2, [r3, #28]
 8000be0:	6054      	str	r4, [r2, #4]
 8000be2:	60c8      	str	r0, [r1, #12]
 8000be4:	42a2      	cmp	r2, r4
 8000be6:	d018      	beq.n	8000c1a <chVTDoResetI+0x7a>
 8000be8:	6888      	ldr	r0, [r1, #8]
 8000bea:	6891      	ldr	r1, [r2, #8]
 8000bec:	6a9b      	ldr	r3, [r3, #40]	; 0x28
 8000bee:	468c      	mov	ip, r1
 8000bf0:	4460      	add	r0, ip
 8000bf2:	6090      	str	r0, [r2, #8]
 8000bf4:	2280      	movs	r2, #128	; 0x80
 8000bf6:	05d2      	lsls	r2, r2, #23
 8000bf8:	6a52      	ldr	r2, [r2, #36]	; 0x24
 8000bfa:	1ad3      	subs	r3, r2, r3
 8000bfc:	4298      	cmp	r0, r3
 8000bfe:	d9e9      	bls.n	8000bd4 <chVTDoResetI+0x34>
 8000c00:	1ac0      	subs	r0, r0, r3
 8000c02:	2802      	cmp	r0, #2
 8000c04:	d200      	bcs.n	8000c08 <chVTDoResetI+0x68>
 8000c06:	2002      	movs	r0, #2
 8000c08:	1880      	adds	r0, r0, r2
 8000c0a:	f7ff fd39 	bl	8000680 <stSetAlarm>
 8000c0e:	e7e1      	b.n	8000bd4 <chVTDoResetI+0x34>
 8000c10:	b672      	cpsid	i
 8000c12:	4b04      	ldr	r3, [pc, #16]	; (8000c24 <chVTDoResetI+0x84>)
 8000c14:	4a04      	ldr	r2, [pc, #16]	; (8000c28 <chVTDoResetI+0x88>)
 8000c16:	62da      	str	r2, [r3, #44]	; 0x2c
 8000c18:	e7fe      	b.n	8000c18 <chVTDoResetI+0x78>
 8000c1a:	2380      	movs	r3, #128	; 0x80
 8000c1c:	05db      	lsls	r3, r3, #23
 8000c1e:	60d8      	str	r0, [r3, #12]
 8000c20:	e7d8      	b.n	8000bd4 <chVTDoResetI+0x34>
 8000c22:	46c0      	nop			; (mov r8, r8)
 8000c24:	20000738 	.word	0x20000738
 8000c28:	08007af0 	.word	0x08007af0
 8000c2c:	00000000 	.word	0x00000000

08000c30 <chVTDoSetI>:
 8000c30:	b5f8      	push	{r3, r4, r5, r6, r7, lr}
 8000c32:	000c      	movs	r4, r1
 8000c34:	0005      	movs	r5, r0
 8000c36:	0016      	movs	r6, r2
 8000c38:	001f      	movs	r7, r3
 8000c3a:	f7ff fd91 	bl	8000760 <chDbgCheckClassI>
 8000c3e:	2c00      	cmp	r4, #0
 8000c40:	d02b      	beq.n	8000c9a <chVTDoSetI+0x6a>
 8000c42:	2380      	movs	r3, #128	; 0x80
 8000c44:	05db      	lsls	r3, r3, #23
 8000c46:	612f      	str	r7, [r5, #16]
 8000c48:	60ee      	str	r6, [r5, #12]
 8000c4a:	6a5a      	ldr	r2, [r3, #36]	; 0x24
 8000c4c:	0020      	movs	r0, r4
 8000c4e:	2c02      	cmp	r4, #2
 8000c50:	d200      	bcs.n	8000c54 <chVTDoSetI+0x24>
 8000c52:	2002      	movs	r0, #2
 8000c54:	4e1e      	ldr	r6, [pc, #120]	; (8000cd0 <chVTDoSetI+0xa0>)
 8000c56:	491f      	ldr	r1, [pc, #124]	; (8000cd4 <chVTDoSetI+0xa4>)
 8000c58:	69f3      	ldr	r3, [r6, #28]
 8000c5a:	428b      	cmp	r3, r1
 8000c5c:	d022      	beq.n	8000ca4 <chVTDoSetI+0x74>
 8000c5e:	1880      	adds	r0, r0, r2
 8000c60:	689b      	ldr	r3, [r3, #8]
 8000c62:	6ab2      	ldr	r2, [r6, #40]	; 0x28
 8000c64:	1a84      	subs	r4, r0, r2
 8000c66:	42a3      	cmp	r3, r4
 8000c68:	d901      	bls.n	8000c6e <chVTDoSetI+0x3e>
 8000c6a:	f7ff fd09 	bl	8000680 <stSetAlarm>
 8000c6e:	69f3      	ldr	r3, [r6, #28]
 8000c70:	689a      	ldr	r2, [r3, #8]
 8000c72:	4294      	cmp	r4, r2
 8000c74:	d904      	bls.n	8000c80 <chVTDoSetI+0x50>
 8000c76:	681b      	ldr	r3, [r3, #0]
 8000c78:	1aa4      	subs	r4, r4, r2
 8000c7a:	689a      	ldr	r2, [r3, #8]
 8000c7c:	42a2      	cmp	r2, r4
 8000c7e:	d3fa      	bcc.n	8000c76 <chVTDoSetI+0x46>
 8000c80:	685a      	ldr	r2, [r3, #4]
 8000c82:	602b      	str	r3, [r5, #0]
 8000c84:	606a      	str	r2, [r5, #4]
 8000c86:	6015      	str	r5, [r2, #0]
 8000c88:	605d      	str	r5, [r3, #4]
 8000c8a:	60ac      	str	r4, [r5, #8]
 8000c8c:	689a      	ldr	r2, [r3, #8]
 8000c8e:	1b14      	subs	r4, r2, r4
 8000c90:	609c      	str	r4, [r3, #8]
 8000c92:	2301      	movs	r3, #1
 8000c94:	425b      	negs	r3, r3
 8000c96:	6273      	str	r3, [r6, #36]	; 0x24
 8000c98:	e014      	b.n	8000cc4 <chVTDoSetI+0x94>
 8000c9a:	b672      	cpsid	i
 8000c9c:	4b0c      	ldr	r3, [pc, #48]	; (8000cd0 <chVTDoSetI+0xa0>)
 8000c9e:	4a0e      	ldr	r2, [pc, #56]	; (8000cd8 <chVTDoSetI+0xa8>)
 8000ca0:	62da      	str	r2, [r3, #44]	; 0x2c
 8000ca2:	e7fe      	b.n	8000ca2 <chVTDoSetI+0x72>
 8000ca4:	62b2      	str	r2, [r6, #40]	; 0x28
 8000ca6:	61f5      	str	r5, [r6, #28]
 8000ca8:	6235      	str	r5, [r6, #32]
 8000caa:	602b      	str	r3, [r5, #0]
 8000cac:	606b      	str	r3, [r5, #4]
 8000cae:	2380      	movs	r3, #128	; 0x80
 8000cb0:	2102      	movs	r1, #2
 8000cb2:	60a8      	str	r0, [r5, #8]
 8000cb4:	05db      	lsls	r3, r3, #23
 8000cb6:	1880      	adds	r0, r0, r2
 8000cb8:	68da      	ldr	r2, [r3, #12]
 8000cba:	400a      	ands	r2, r1
 8000cbc:	d103      	bne.n	8000cc6 <chVTDoSetI+0x96>
 8000cbe:	6358      	str	r0, [r3, #52]	; 0x34
 8000cc0:	611a      	str	r2, [r3, #16]
 8000cc2:	60d9      	str	r1, [r3, #12]
 8000cc4:	bdf8      	pop	{r3, r4, r5, r6, r7, pc}
 8000cc6:	b672      	cpsid	i
 8000cc8:	4b04      	ldr	r3, [pc, #16]	; (8000cdc <chVTDoSetI+0xac>)
 8000cca:	62f3      	str	r3, [r6, #44]	; 0x2c
 8000ccc:	e7fe      	b.n	8000ccc <chVTDoSetI+0x9c>
 8000cce:	46c0      	nop			; (mov r8, r8)
 8000cd0:	20000738 	.word	0x20000738
 8000cd4:	20000754 	.word	0x20000754
 8000cd8:	08007ab0 	.word	0x08007ab0
 8000cdc:	08007cc0 	.word	0x08007cc0

08000ce0 <_dbg_check_leave_isr>:
 8000ce0:	b672      	cpsid	i
 8000ce2:	4b07      	ldr	r3, [pc, #28]	; (8000d00 <_dbg_check_leave_isr+0x20>)
 8000ce4:	6b1a      	ldr	r2, [r3, #48]	; 0x30
 8000ce6:	2a00      	cmp	r2, #0
 8000ce8:	dd02      	ble.n	8000cf0 <_dbg_check_leave_isr+0x10>
 8000cea:	6b59      	ldr	r1, [r3, #52]	; 0x34
 8000cec:	2900      	cmp	r1, #0
 8000cee:	d003      	beq.n	8000cf8 <_dbg_check_leave_isr+0x18>
 8000cf0:	b672      	cpsid	i
 8000cf2:	4a04      	ldr	r2, [pc, #16]	; (8000d04 <_dbg_check_leave_isr+0x24>)
 8000cf4:	62da      	str	r2, [r3, #44]	; 0x2c
 8000cf6:	e7fe      	b.n	8000cf6 <_dbg_check_leave_isr+0x16>
 8000cf8:	3a01      	subs	r2, #1
 8000cfa:	631a      	str	r2, [r3, #48]	; 0x30
 8000cfc:	b662      	cpsie	i
 8000cfe:	4770      	bx	lr
 8000d00:	20000738 	.word	0x20000738
 8000d04:	08007d10 	.word	0x08007d10
	...

08000d10 <_dbg_check_enter_isr>:
 8000d10:	b672      	cpsid	i
 8000d12:	4b07      	ldr	r3, [pc, #28]	; (8000d30 <_dbg_check_enter_isr+0x20>)
 8000d14:	6b1a      	ldr	r2, [r3, #48]	; 0x30
 8000d16:	2a00      	cmp	r2, #0
 8000d18:	db02      	blt.n	8000d20 <_dbg_check_enter_isr+0x10>
 8000d1a:	6b59      	ldr	r1, [r3, #52]	; 0x34
 8000d1c:	2900      	cmp	r1, #0
 8000d1e:	d003      	beq.n	8000d28 <_dbg_check_enter_isr+0x18>
 8000d20:	b672      	cpsid	i
 8000d22:	4a04      	ldr	r2, [pc, #16]	; (8000d34 <_dbg_check_enter_isr+0x24>)
 8000d24:	62da      	str	r2, [r3, #44]	; 0x2c
 8000d26:	e7fe      	b.n	8000d26 <_dbg_check_enter_isr+0x16>
 8000d28:	3201      	adds	r2, #1
 8000d2a:	631a      	str	r2, [r3, #48]	; 0x30
 8000d2c:	b662      	cpsie	i
 8000d2e:	4770      	bx	lr
 8000d30:	20000738 	.word	0x20000738
 8000d34:	08007d00 	.word	0x08007d00
	...

08000d40 <_dbg_check_unlock_from_isr>:
 8000d40:	4b06      	ldr	r3, [pc, #24]	; (8000d5c <_dbg_check_unlock_from_isr+0x1c>)
 8000d42:	6b1a      	ldr	r2, [r3, #48]	; 0x30
 8000d44:	2a00      	cmp	r2, #0
 8000d46:	dd05      	ble.n	8000d54 <_dbg_check_unlock_from_isr+0x14>
 8000d48:	6b5a      	ldr	r2, [r3, #52]	; 0x34
 8000d4a:	2a00      	cmp	r2, #0
 8000d4c:	dd02      	ble.n	8000d54 <_dbg_check_unlock_from_isr+0x14>
 8000d4e:	2200      	movs	r2, #0
 8000d50:	635a      	str	r2, [r3, #52]	; 0x34
 8000d52:	4770      	bx	lr
 8000d54:	b672      	cpsid	i
 8000d56:	4a02      	ldr	r2, [pc, #8]	; (8000d60 <_dbg_check_unlock_from_isr+0x20>)
 8000d58:	62da      	str	r2, [r3, #44]	; 0x2c
 8000d5a:	e7fe      	b.n	8000d5a <_dbg_check_unlock_from_isr+0x1a>
 8000d5c:	20000738 	.word	0x20000738
 8000d60:	08007d60 	.word	0x08007d60
	...

08000d70 <_dbg_check_lock_from_isr>:
 8000d70:	4b06      	ldr	r3, [pc, #24]	; (8000d8c <_dbg_check_lock_from_isr+0x1c>)
 8000d72:	6b1a      	ldr	r2, [r3, #48]	; 0x30
 8000d74:	2a00      	cmp	r2, #0
 8000d76:	dd02      	ble.n	8000d7e <_dbg_check_lock_from_isr+0xe>
 8000d78:	6b5a      	ldr	r2, [r3, #52]	; 0x34
 8000d7a:	2a00      	cmp	r2, #0
 8000d7c:	d003      	beq.n	8000d86 <_dbg_check_lock_from_isr+0x16>
 8000d7e:	b672      	cpsid	i
 8000d80:	4a03      	ldr	r2, [pc, #12]	; (8000d90 <_dbg_check_lock_from_isr+0x20>)
 8000d82:	62da      	str	r2, [r3, #44]	; 0x2c
 8000d84:	e7fe      	b.n	8000d84 <_dbg_check_lock_from_isr+0x14>
 8000d86:	2201      	movs	r2, #1
 8000d88:	635a      	str	r2, [r3, #52]	; 0x34
 8000d8a:	4770      	bx	lr
 8000d8c:	20000738 	.word	0x20000738
 8000d90:	08007d30 	.word	0x08007d30
	...

08000da0 <wakeup>:
 8000da0:	b570      	push	{r4, r5, r6, lr}
 8000da2:	0004      	movs	r4, r0
 8000da4:	b672      	cpsid	i
 8000da6:	f7ff ffe3 	bl	8000d70 <_dbg_check_lock_from_isr>
 8000daa:	2320      	movs	r3, #32
 8000dac:	5ce3      	ldrb	r3, [r4, r3]
 8000dae:	2b07      	cmp	r3, #7
 8000db0:	d80e      	bhi.n	8000dd0 <wakeup+0x30>
 8000db2:	4a11      	ldr	r2, [pc, #68]	; (8000df8 <wakeup+0x58>)
 8000db4:	009b      	lsls	r3, r3, #2
 8000db6:	58d3      	ldr	r3, [r2, r3]
 8000db8:	469f      	mov	pc, r3
 8000dba:	6a65      	ldr	r5, [r4, #36]	; 0x24
 8000dbc:	f7ff fcd0 	bl	8000760 <chDbgCheckClassI>
 8000dc0:	68ab      	ldr	r3, [r5, #8]
 8000dc2:	3301      	adds	r3, #1
 8000dc4:	60ab      	str	r3, [r5, #8]
 8000dc6:	6822      	ldr	r2, [r4, #0]
 8000dc8:	6863      	ldr	r3, [r4, #4]
 8000dca:	601a      	str	r2, [r3, #0]
 8000dcc:	6822      	ldr	r2, [r4, #0]
 8000dce:	6053      	str	r3, [r2, #4]
 8000dd0:	2301      	movs	r3, #1
 8000dd2:	425b      	negs	r3, r3
 8000dd4:	6263      	str	r3, [r4, #36]	; 0x24
 8000dd6:	0020      	movs	r0, r4
 8000dd8:	f7ff fd12 	bl	8000800 <chSchReadyI>
 8000ddc:	f7ff ffb0 	bl	8000d40 <_dbg_check_unlock_from_isr>
 8000de0:	b662      	cpsie	i
 8000de2:	bd70      	pop	{r4, r5, r6, pc}
 8000de4:	2200      	movs	r2, #0
 8000de6:	6a63      	ldr	r3, [r4, #36]	; 0x24
 8000de8:	0020      	movs	r0, r4
 8000dea:	601a      	str	r2, [r3, #0]
 8000dec:	2301      	movs	r3, #1
 8000dee:	425b      	negs	r3, r3
 8000df0:	6263      	str	r3, [r4, #36]	; 0x24
 8000df2:	f7ff fd05 	bl	8000800 <chSchReadyI>
 8000df6:	e7f1      	b.n	8000ddc <wakeup+0x3c>
 8000df8:	08007870 	.word	0x08007870
 8000dfc:	00000000 	.word	0x00000000

08000e00 <_dbg_check_enable>:
 8000e00:	4b05      	ldr	r3, [pc, #20]	; (8000e18 <_dbg_check_enable+0x18>)
 8000e02:	6b1a      	ldr	r2, [r3, #48]	; 0x30
 8000e04:	2a00      	cmp	r2, #0
 8000e06:	d102      	bne.n	8000e0e <_dbg_check_enable+0xe>
 8000e08:	6b5a      	ldr	r2, [r3, #52]	; 0x34
 8000e0a:	2a00      	cmp	r2, #0
 8000e0c:	d003      	beq.n	8000e16 <_dbg_check_enable+0x16>
 8000e0e:	b672      	cpsid	i
 8000e10:	4a02      	ldr	r2, [pc, #8]	; (8000e1c <_dbg_check_enable+0x1c>)
 8000e12:	62da      	str	r2, [r3, #44]	; 0x2c
 8000e14:	e7fe      	b.n	8000e14 <_dbg_check_enable+0x14>
 8000e16:	4770      	bx	lr
 8000e18:	20000738 	.word	0x20000738
 8000e1c:	08007cf0 	.word	0x08007cf0

08000e20 <_dbg_check_suspend>:
 8000e20:	4b05      	ldr	r3, [pc, #20]	; (8000e38 <_dbg_check_suspend+0x18>)
 8000e22:	6b1a      	ldr	r2, [r3, #48]	; 0x30
 8000e24:	2a00      	cmp	r2, #0
 8000e26:	d102      	bne.n	8000e2e <_dbg_check_suspend+0xe>
 8000e28:	6b5a      	ldr	r2, [r3, #52]	; 0x34
 8000e2a:	2a00      	cmp	r2, #0
 8000e2c:	d003      	beq.n	8000e36 <_dbg_check_suspend+0x16>
 8000e2e:	b672      	cpsid	i
 8000e30:	4a02      	ldr	r2, [pc, #8]	; (8000e3c <_dbg_check_suspend+0x1c>)
 8000e32:	62da      	str	r2, [r3, #44]	; 0x2c
 8000e34:	e7fe      	b.n	8000e34 <_dbg_check_suspend+0x14>
 8000e36:	4770      	bx	lr
 8000e38:	20000738 	.word	0x20000738
 8000e3c:	08007d40 	.word	0x08007d40

08000e40 <sys2_execute>:
 8000e40:	b510      	push	{r4, lr}
 8000e42:	b672      	cpsid	i
 8000e44:	f7ff ffec 	bl	8000e20 <_dbg_check_suspend>
 8000e48:	b672      	cpsid	i
 8000e4a:	4b09      	ldr	r3, [pc, #36]	; (8000e70 <sys2_execute+0x30>)
 8000e4c:	6b1a      	ldr	r2, [r3, #48]	; 0x30
 8000e4e:	2a00      	cmp	r2, #0
 8000e50:	d102      	bne.n	8000e58 <sys2_execute+0x18>
 8000e52:	6b5a      	ldr	r2, [r3, #52]	; 0x34
 8000e54:	2a00      	cmp	r2, #0
 8000e56:	d003      	beq.n	8000e60 <sys2_execute+0x20>
 8000e58:	b672      	cpsid	i
 8000e5a:	4a06      	ldr	r2, [pc, #24]	; (8000e74 <sys2_execute+0x34>)
 8000e5c:	62da      	str	r2, [r3, #44]	; 0x2c
 8000e5e:	e7fe      	b.n	8000e5e <sys2_execute+0x1e>
 8000e60:	b672      	cpsid	i
 8000e62:	f7ff ffdd 	bl	8000e20 <_dbg_check_suspend>
 8000e66:	f7ff ffcb 	bl	8000e00 <_dbg_check_enable>
 8000e6a:	b662      	cpsie	i
 8000e6c:	bd10      	pop	{r4, pc}
 8000e6e:	46c0      	nop			; (mov r8, r8)
 8000e70:	20000738 	.word	0x20000738
 8000e74:	080087e0 	.word	0x080087e0
	...

08000e80 <chSysIntegrityCheckI>:
 8000e80:	b510      	push	{r4, lr}
 8000e82:	0004      	movs	r4, r0
 8000e84:	f7ff fc6c 	bl	8000760 <chDbgCheckClassI>
 8000e88:	07e3      	lsls	r3, r4, #31
 8000e8a:	d512      	bpl.n	8000eb2 <chSysIntegrityCheckI+0x32>
 8000e8c:	4b26      	ldr	r3, [pc, #152]	; (8000f28 <chSysIntegrityCheckI+0xa8>)
 8000e8e:	2200      	movs	r2, #0
 8000e90:	6819      	ldr	r1, [r3, #0]
 8000e92:	6858      	ldr	r0, [r3, #4]
 8000e94:	4299      	cmp	r1, r3
 8000e96:	d039      	beq.n	8000f0c <chSysIntegrityCheckI+0x8c>
 8000e98:	6809      	ldr	r1, [r1, #0]
 8000e9a:	3201      	adds	r2, #1
 8000e9c:	4299      	cmp	r1, r3
 8000e9e:	d1fb      	bne.n	8000e98 <chSysIntegrityCheckI+0x18>
 8000ea0:	4288      	cmp	r0, r1
 8000ea2:	d036      	beq.n	8000f12 <chSysIntegrityCheckI+0x92>
 8000ea4:	6840      	ldr	r0, [r0, #4]
 8000ea6:	3a01      	subs	r2, #1
 8000ea8:	4298      	cmp	r0, r3
 8000eaa:	d1fb      	bne.n	8000ea4 <chSysIntegrityCheckI+0x24>
 8000eac:	2001      	movs	r0, #1
 8000eae:	2a00      	cmp	r2, #0
 8000eb0:	d12b      	bne.n	8000f0a <chSysIntegrityCheckI+0x8a>
 8000eb2:	07a3      	lsls	r3, r4, #30
 8000eb4:	d513      	bpl.n	8000ede <chSysIntegrityCheckI+0x5e>
 8000eb6:	491c      	ldr	r1, [pc, #112]	; (8000f28 <chSysIntegrityCheckI+0xa8>)
 8000eb8:	69ca      	ldr	r2, [r1, #28]
 8000eba:	6a08      	ldr	r0, [r1, #32]
 8000ebc:	311c      	adds	r1, #28
 8000ebe:	428a      	cmp	r2, r1
 8000ec0:	d029      	beq.n	8000f16 <chSysIntegrityCheckI+0x96>
 8000ec2:	2300      	movs	r3, #0
 8000ec4:	6812      	ldr	r2, [r2, #0]
 8000ec6:	3301      	adds	r3, #1
 8000ec8:	428a      	cmp	r2, r1
 8000eca:	d1fb      	bne.n	8000ec4 <chSysIntegrityCheckI+0x44>
 8000ecc:	4290      	cmp	r0, r2
 8000ece:	d020      	beq.n	8000f12 <chSysIntegrityCheckI+0x92>
 8000ed0:	6840      	ldr	r0, [r0, #4]
 8000ed2:	3b01      	subs	r3, #1
 8000ed4:	4288      	cmp	r0, r1
 8000ed6:	d1fb      	bne.n	8000ed0 <chSysIntegrityCheckI+0x50>
 8000ed8:	2001      	movs	r0, #1
 8000eda:	2b00      	cmp	r3, #0
 8000edc:	d115      	bne.n	8000f0a <chSysIntegrityCheckI+0x8a>
 8000ede:	2000      	movs	r0, #0
 8000ee0:	0763      	lsls	r3, r4, #29
 8000ee2:	d512      	bpl.n	8000f0a <chSysIntegrityCheckI+0x8a>
 8000ee4:	4b10      	ldr	r3, [pc, #64]	; (8000f28 <chSysIntegrityCheckI+0xa8>)
 8000ee6:	2200      	movs	r2, #0
 8000ee8:	6919      	ldr	r1, [r3, #16]
 8000eea:	695c      	ldr	r4, [r3, #20]
 8000eec:	4299      	cmp	r1, r3
 8000eee:	d017      	beq.n	8000f20 <chSysIntegrityCheckI+0xa0>
 8000ef0:	6909      	ldr	r1, [r1, #16]
 8000ef2:	3201      	adds	r2, #1
 8000ef4:	4299      	cmp	r1, r3
 8000ef6:	d1fb      	bne.n	8000ef0 <chSysIntegrityCheckI+0x70>
 8000ef8:	428c      	cmp	r4, r1
 8000efa:	d00a      	beq.n	8000f12 <chSysIntegrityCheckI+0x92>
 8000efc:	6964      	ldr	r4, [r4, #20]
 8000efe:	3a01      	subs	r2, #1
 8000f00:	429c      	cmp	r4, r3
 8000f02:	d1fb      	bne.n	8000efc <chSysIntegrityCheckI+0x7c>
 8000f04:	1e50      	subs	r0, r2, #1
 8000f06:	4182      	sbcs	r2, r0
 8000f08:	b2d0      	uxtb	r0, r2
 8000f0a:	bd10      	pop	{r4, pc}
 8000f0c:	4298      	cmp	r0, r3
 8000f0e:	d1c9      	bne.n	8000ea4 <chSysIntegrityCheckI+0x24>
 8000f10:	e7cf      	b.n	8000eb2 <chSysIntegrityCheckI+0x32>
 8000f12:	2001      	movs	r0, #1
 8000f14:	e7f9      	b.n	8000f0a <chSysIntegrityCheckI+0x8a>
 8000f16:	4290      	cmp	r0, r2
 8000f18:	d0e1      	beq.n	8000ede <chSysIntegrityCheckI+0x5e>
 8000f1a:	2300      	movs	r3, #0
 8000f1c:	0011      	movs	r1, r2
 8000f1e:	e7d7      	b.n	8000ed0 <chSysIntegrityCheckI+0x50>
 8000f20:	428c      	cmp	r4, r1
 8000f22:	d1eb      	bne.n	8000efc <chSysIntegrityCheckI+0x7c>
 8000f24:	e7f1      	b.n	8000f0a <chSysIntegrityCheckI+0x8a>
 8000f26:	46c0      	nop			; (mov r8, r8)
 8000f28:	20000738 	.word	0x20000738
 8000f2c:	00000000 	.word	0x00000000

08000f30 <BusFault_Handler>:
 8000f30:	b672      	cpsid	i
 8000f32:	4b02      	ldr	r3, [pc, #8]	; (8000f3c <BusFault_Handler+0xc>)
 8000f34:	4a02      	ldr	r2, [pc, #8]	; (8000f40 <BusFault_Handler+0x10>)
 8000f36:	62da      	str	r2, [r3, #44]	; 0x2c
 8000f38:	e7fe      	b.n	8000f38 <BusFault_Handler+0x8>
 8000f3a:	46c0      	nop			; (mov r8, r8)
 8000f3c:	20000738 	.word	0x20000738
 8000f40:	08007d70 	.word	0x08007d70
	...

08000f50 <chCondSignalI.constprop.47>:
 8000f50:	b510      	push	{r4, lr}
 8000f52:	f7ff fc05 	bl	8000760 <chDbgCheckClassI>
 8000f56:	4b06      	ldr	r3, [pc, #24]	; (8000f70 <chCondSignalI.constprop.47+0x20>)
 8000f58:	6818      	ldr	r0, [r3, #0]
 8000f5a:	4298      	cmp	r0, r3
 8000f5c:	d006      	beq.n	8000f6c <chCondSignalI.constprop.47+0x1c>
 8000f5e:	6802      	ldr	r2, [r0, #0]
 8000f60:	6053      	str	r3, [r2, #4]
 8000f62:	601a      	str	r2, [r3, #0]
 8000f64:	2300      	movs	r3, #0
 8000f66:	6243      	str	r3, [r0, #36]	; 0x24
 8000f68:	f7ff fc4a 	bl	8000800 <chSchReadyI>
 8000f6c:	bd10      	pop	{r4, pc}
 8000f6e:	46c0      	nop			; (mov r8, r8)
 8000f70:	20000600 	.word	0x20000600
	...

08000f80 <chMBPostI.constprop.21>:
 8000f80:	b570      	push	{r4, r5, r6, lr}
 8000f82:	0006      	movs	r6, r0
 8000f84:	f7ff fbec 	bl	8000760 <chDbgCheckClassI>
 8000f88:	f7ff fbea 	bl	8000760 <chDbgCheckClassI>
 8000f8c:	4c0d      	ldr	r4, [pc, #52]	; (8000fc4 <chMBPostI.constprop.21+0x44>)
 8000f8e:	6a65      	ldr	r5, [r4, #36]	; 0x24
 8000f90:	2d00      	cmp	r5, #0
 8000f92:	dd13      	ble.n	8000fbc <chMBPostI.constprop.21+0x3c>
 8000f94:	f7ff fbe4 	bl	8000760 <chDbgCheckClassI>
 8000f98:	68a2      	ldr	r2, [r4, #8]
 8000f9a:	3d01      	subs	r5, #1
 8000f9c:	1d13      	adds	r3, r2, #4
 8000f9e:	6265      	str	r5, [r4, #36]	; 0x24
 8000fa0:	60a3      	str	r3, [r4, #8]
 8000fa2:	6016      	str	r6, [r2, #0]
 8000fa4:	6862      	ldr	r2, [r4, #4]
 8000fa6:	4293      	cmp	r3, r2
 8000fa8:	d205      	bcs.n	8000fb6 <chMBPostI.constprop.21+0x36>
 8000faa:	0020      	movs	r0, r4
 8000fac:	3010      	adds	r0, #16
 8000fae:	f7ff fd6f 	bl	8000a90 <chSemSignalI>
 8000fb2:	2000      	movs	r0, #0
 8000fb4:	bd70      	pop	{r4, r5, r6, pc}
 8000fb6:	6823      	ldr	r3, [r4, #0]
 8000fb8:	60a3      	str	r3, [r4, #8]
 8000fba:	e7f6      	b.n	8000faa <chMBPostI.constprop.21+0x2a>
 8000fbc:	2001      	movs	r0, #1
 8000fbe:	4240      	negs	r0, r0
 8000fc0:	e7f8      	b.n	8000fb4 <chMBPostI.constprop.21+0x34>
 8000fc2:	46c0      	nop			; (mov r8, r8)
 8000fc4:	20000654 	.word	0x20000654
	...

08000fd0 <chMBPostAheadI.constprop.18>:
 8000fd0:	b570      	push	{r4, r5, r6, lr}
 8000fd2:	0006      	movs	r6, r0
 8000fd4:	f7ff fbc4 	bl	8000760 <chDbgCheckClassI>
 8000fd8:	f7ff fbc2 	bl	8000760 <chDbgCheckClassI>
 8000fdc:	4c0d      	ldr	r4, [pc, #52]	; (8001014 <chMBPostAheadI.constprop.18+0x44>)
 8000fde:	6a65      	ldr	r5, [r4, #36]	; 0x24
 8000fe0:	2d00      	cmp	r5, #0
 8000fe2:	dd14      	ble.n	800100e <chMBPostAheadI.constprop.18+0x3e>
 8000fe4:	f7ff fbbc 	bl	8000760 <chDbgCheckClassI>
 8000fe8:	68e3      	ldr	r3, [r4, #12]
 8000fea:	6822      	ldr	r2, [r4, #0]
 8000fec:	3d01      	subs	r5, #1
 8000fee:	3b04      	subs	r3, #4
 8000ff0:	6265      	str	r5, [r4, #36]	; 0x24
 8000ff2:	60e3      	str	r3, [r4, #12]
 8000ff4:	4293      	cmp	r3, r2
 8000ff6:	d306      	bcc.n	8001006 <chMBPostAheadI.constprop.18+0x36>
 8000ff8:	0020      	movs	r0, r4
 8000ffa:	601e      	str	r6, [r3, #0]
 8000ffc:	3010      	adds	r0, #16
 8000ffe:	f7ff fd47 	bl	8000a90 <chSemSignalI>
 8001002:	2000      	movs	r0, #0
 8001004:	bd70      	pop	{r4, r5, r6, pc}
 8001006:	6863      	ldr	r3, [r4, #4]
 8001008:	3b04      	subs	r3, #4
 800100a:	60e3      	str	r3, [r4, #12]
 800100c:	e7f4      	b.n	8000ff8 <chMBPostAheadI.constprop.18+0x28>
 800100e:	2001      	movs	r0, #1
 8001010:	4240      	negs	r0, r0
 8001012:	e7f7      	b.n	8001004 <chMBPostAheadI.constprop.18+0x34>
 8001014:	20000654 	.word	0x20000654
	...

08001020 <bmk13_execute>:
 8001020:	b510      	push	{r4, lr}
 8001022:	482e      	ldr	r0, [pc, #184]	; (80010dc <bmk13_execute+0xbc>)
 8001024:	f7ff fb14 	bl	8000650 <test_print>
 8001028:	20ad      	movs	r0, #173	; 0xad
 800102a:	00c0      	lsls	r0, r0, #3
 800102c:	f7ff fa58 	bl	80004e0 <test_printn.part.1>
 8001030:	4c2b      	ldr	r4, [pc, #172]	; (80010e0 <bmk13_execute+0xc0>)
 8001032:	0020      	movs	r0, r4
 8001034:	f7ff faec 	bl	8000610 <test_println>
 8001038:	482a      	ldr	r0, [pc, #168]	; (80010e4 <bmk13_execute+0xc4>)
 800103a:	f7ff fb09 	bl	8000650 <test_print>
 800103e:	2048      	movs	r0, #72	; 0x48
 8001040:	f7ff fa4e 	bl	80004e0 <test_printn.part.1>
 8001044:	0020      	movs	r0, r4
 8001046:	f7ff fae3 	bl	8000610 <test_println>
 800104a:	4827      	ldr	r0, [pc, #156]	; (80010e8 <bmk13_execute+0xc8>)
 800104c:	f7ff fb00 	bl	8000650 <test_print>
 8001050:	2014      	movs	r0, #20
 8001052:	f7ff fa45 	bl	80004e0 <test_printn.part.1>
 8001056:	0020      	movs	r0, r4
 8001058:	f7ff fada 	bl	8000610 <test_println>
 800105c:	4823      	ldr	r0, [pc, #140]	; (80010ec <bmk13_execute+0xcc>)
 800105e:	f7ff faf7 	bl	8000650 <test_print>
 8001062:	200c      	movs	r0, #12
 8001064:	f7ff fa3c 	bl	80004e0 <test_printn.part.1>
 8001068:	0020      	movs	r0, r4
 800106a:	f7ff fad1 	bl	8000610 <test_println>
 800106e:	4820      	ldr	r0, [pc, #128]	; (80010f0 <bmk13_execute+0xd0>)
 8001070:	f7ff faee 	bl	8000650 <test_print>
 8001074:	2004      	movs	r0, #4
 8001076:	f7ff fa33 	bl	80004e0 <test_printn.part.1>
 800107a:	0020      	movs	r0, r4
 800107c:	f7ff fac8 	bl	8000610 <test_println>
 8001080:	481c      	ldr	r0, [pc, #112]	; (80010f4 <bmk13_execute+0xd4>)
 8001082:	f7ff fae5 	bl	8000650 <test_print>
 8001086:	2014      	movs	r0, #20
 8001088:	f7ff fa2a 	bl	80004e0 <test_printn.part.1>
 800108c:	0020      	movs	r0, r4
 800108e:	f7ff fabf 	bl	8000610 <test_println>
 8001092:	4819      	ldr	r0, [pc, #100]	; (80010f8 <bmk13_execute+0xd8>)
 8001094:	f7ff fadc 	bl	8000650 <test_print>
 8001098:	2010      	movs	r0, #16
 800109a:	f7ff fa21 	bl	80004e0 <test_printn.part.1>
 800109e:	0020      	movs	r0, r4
 80010a0:	f7ff fab6 	bl	8000610 <test_println>
 80010a4:	4815      	ldr	r0, [pc, #84]	; (80010fc <bmk13_execute+0xdc>)
 80010a6:	f7ff fad3 	bl	8000650 <test_print>
 80010aa:	2008      	movs	r0, #8
 80010ac:	f7ff fa18 	bl	80004e0 <test_printn.part.1>
 80010b0:	0020      	movs	r0, r4
 80010b2:	f7ff faad 	bl	8000610 <test_println>
 80010b6:	4812      	ldr	r0, [pc, #72]	; (8001100 <bmk13_execute+0xe0>)
 80010b8:	f7ff faca 	bl	8000650 <test_print>
 80010bc:	2024      	movs	r0, #36	; 0x24
 80010be:	f7ff fa0f 	bl	80004e0 <test_printn.part.1>
 80010c2:	0020      	movs	r0, r4
 80010c4:	f7ff faa4 	bl	8000610 <test_println>
 80010c8:	480e      	ldr	r0, [pc, #56]	; (8001104 <bmk13_execute+0xe4>)
 80010ca:	f7ff fac1 	bl	8000650 <test_print>
 80010ce:	2028      	movs	r0, #40	; 0x28
 80010d0:	f7ff fa06 	bl	80004e0 <test_printn.part.1>
 80010d4:	0020      	movs	r0, r4
 80010d6:	f7ff fa9b 	bl	8000610 <test_println>
 80010da:	bd10      	pop	{r4, pc}
 80010dc:	08007dd0 	.word	0x08007dd0
 80010e0:	08007de0 	.word	0x08007de0
 80010e4:	08007de8 	.word	0x08007de8
 80010e8:	08007df8 	.word	0x08007df8
 80010ec:	08007e08 	.word	0x08007e08
 80010f0:	08007e18 	.word	0x08007e18
 80010f4:	08007e28 	.word	0x08007e28
 80010f8:	08007e38 	.word	0x08007e38
 80010fc:	08007e48 	.word	0x08007e48
 8001100:	08007e58 	.word	0x08007e58
 8001104:	08007e68 	.word	0x08007e68
	...

08001110 <bmk12_setup>:
 8001110:	2200      	movs	r2, #0
 8001112:	4b02      	ldr	r3, [pc, #8]	; (800111c <bmk12_setup+0xc>)
 8001114:	601b      	str	r3, [r3, #0]
 8001116:	605b      	str	r3, [r3, #4]
 8001118:	609a      	str	r2, [r3, #8]
 800111a:	4770      	bx	lr
 800111c:	20000d34 	.word	0x20000d34

08001120 <bmk11_setup>:
 8001120:	2201      	movs	r2, #1
 8001122:	4b02      	ldr	r3, [pc, #8]	; (800112c <bmk11_setup+0xc>)
 8001124:	601b      	str	r3, [r3, #0]
 8001126:	605b      	str	r3, [r3, #4]
 8001128:	609a      	str	r2, [r3, #8]
 800112a:	4770      	bx	lr
 800112c:	20000d48 	.word	0x20000d48

08001130 <bmk7_setup>:
 8001130:	2200      	movs	r2, #0
 8001132:	4b02      	ldr	r3, [pc, #8]	; (800113c <bmk7_setup+0xc>)
 8001134:	601b      	str	r3, [r3, #0]
 8001136:	605b      	str	r3, [r3, #4]
 8001138:	609a      	str	r2, [r3, #8]
 800113a:	4770      	bx	lr
 800113c:	20000d48 	.word	0x20000d48

08001140 <dyn2_setup>:
 8001140:	21a8      	movs	r1, #168	; 0xa8
 8001142:	2200      	movs	r2, #0
 8001144:	4b02      	ldr	r3, [pc, #8]	; (8001150 <dyn2_setup+0x10>)
 8001146:	0049      	lsls	r1, r1, #1
 8001148:	601a      	str	r2, [r3, #0]
 800114a:	6059      	str	r1, [r3, #4]
 800114c:	609a      	str	r2, [r3, #8]
 800114e:	4770      	bx	lr
 8001150:	20000d28 	.word	0x20000d28
	...

08001160 <pools1_setup>:
 8001160:	21a8      	movs	r1, #168	; 0xa8
 8001162:	2200      	movs	r2, #0
 8001164:	4b02      	ldr	r3, [pc, #8]	; (8001170 <pools1_setup+0x10>)
 8001166:	0049      	lsls	r1, r1, #1
 8001168:	601a      	str	r2, [r3, #0]
 800116a:	6059      	str	r1, [r3, #4]
 800116c:	609a      	str	r2, [r3, #8]
 800116e:	4770      	bx	lr
 8001170:	2000067c 	.word	0x2000067c
	...

08001180 <mbox1_setup>:
 8001180:	4b09      	ldr	r3, [pc, #36]	; (80011a8 <mbox1_setup+0x28>)
 8001182:	4a0a      	ldr	r2, [pc, #40]	; (80011ac <mbox1_setup+0x2c>)
 8001184:	601a      	str	r2, [r3, #0]
 8001186:	60da      	str	r2, [r3, #12]
 8001188:	609a      	str	r2, [r3, #8]
 800118a:	3214      	adds	r2, #20
 800118c:	605a      	str	r2, [r3, #4]
 800118e:	001a      	movs	r2, r3
 8001190:	321c      	adds	r2, #28
 8001192:	61da      	str	r2, [r3, #28]
 8001194:	621a      	str	r2, [r3, #32]
 8001196:	2205      	movs	r2, #5
 8001198:	625a      	str	r2, [r3, #36]	; 0x24
 800119a:	001a      	movs	r2, r3
 800119c:	3210      	adds	r2, #16
 800119e:	611a      	str	r2, [r3, #16]
 80011a0:	615a      	str	r2, [r3, #20]
 80011a2:	2200      	movs	r2, #0
 80011a4:	619a      	str	r2, [r3, #24]
 80011a6:	4770      	bx	lr
 80011a8:	20000654 	.word	0x20000654
 80011ac:	20000d58 	.word	0x20000d58

080011b0 <mtx8_setup>:
 80011b0:	2200      	movs	r2, #0
 80011b2:	4b06      	ldr	r3, [pc, #24]	; (80011cc <mtx8_setup+0x1c>)
 80011b4:	601b      	str	r3, [r3, #0]
 80011b6:	605b      	str	r3, [r3, #4]
 80011b8:	4b05      	ldr	r3, [pc, #20]	; (80011d0 <mtx8_setup+0x20>)
 80011ba:	601b      	str	r3, [r3, #0]
 80011bc:	605b      	str	r3, [r3, #4]
 80011be:	609a      	str	r2, [r3, #8]
 80011c0:	4b04      	ldr	r3, [pc, #16]	; (80011d4 <mtx8_setup+0x24>)
 80011c2:	601b      	str	r3, [r3, #0]
 80011c4:	605b      	str	r3, [r3, #4]
 80011c6:	609a      	str	r2, [r3, #8]
 80011c8:	4770      	bx	lr
 80011ca:	46c0      	nop			; (mov r8, r8)
 80011cc:	20000600 	.word	0x20000600
 80011d0:	20000634 	.word	0x20000634
 80011d4:	20000644 	.word	0x20000644
	...

080011e0 <mtx6_setup>:
 80011e0:	2200      	movs	r2, #0
 80011e2:	4b04      	ldr	r3, [pc, #16]	; (80011f4 <mtx6_setup+0x14>)
 80011e4:	601b      	str	r3, [r3, #0]
 80011e6:	605b      	str	r3, [r3, #4]
 80011e8:	4b03      	ldr	r3, [pc, #12]	; (80011f8 <mtx6_setup+0x18>)
 80011ea:	601b      	str	r3, [r3, #0]
 80011ec:	605b      	str	r3, [r3, #4]
 80011ee:	609a      	str	r2, [r3, #8]
 80011f0:	4770      	bx	lr
 80011f2:	46c0      	nop			; (mov r8, r8)
 80011f4:	20000600 	.word	0x20000600
 80011f8:	20000634 	.word	0x20000634
 80011fc:	00000000 	.word	0x00000000

08001200 <mtx7_setup>:
 8001200:	b510      	push	{r4, lr}
 8001202:	f7ff ffed 	bl	80011e0 <mtx6_setup>
 8001206:	bd10      	pop	{r4, pc}
	...

08001210 <mtx1_setup>:
 8001210:	2200      	movs	r2, #0
 8001212:	4b02      	ldr	r3, [pc, #8]	; (800121c <mtx1_setup+0xc>)
 8001214:	601b      	str	r3, [r3, #0]
 8001216:	605b      	str	r3, [r3, #4]
 8001218:	609a      	str	r2, [r3, #8]
 800121a:	4770      	bx	lr
 800121c:	20000634 	.word	0x20000634

08001220 <mtx5_setup>:
 8001220:	b510      	push	{r4, lr}
 8001222:	f7ff fff5 	bl	8001210 <mtx1_setup>
 8001226:	bd10      	pop	{r4, pc}
	...

08001230 <sem1_setup>:
 8001230:	2200      	movs	r2, #0
 8001232:	4b02      	ldr	r3, [pc, #8]	; (800123c <sem1_setup+0xc>)
 8001234:	601b      	str	r3, [r3, #0]
 8001236:	605b      	str	r3, [r3, #4]
 8001238:	609a      	str	r2, [r3, #8]
 800123a:	4770      	bx	lr
 800123c:	200006ac 	.word	0x200006ac

08001240 <sem3_setup>:
 8001240:	b510      	push	{r4, lr}
 8001242:	f7ff fff5 	bl	8001230 <sem1_setup>
 8001246:	bd10      	pop	{r4, pc}
	...

08001250 <sem2_setup>:
 8001250:	b510      	push	{r4, lr}
 8001252:	f7ff ffed 	bl	8001230 <sem1_setup>
 8001256:	bd10      	pop	{r4, pc}
	...

08001260 <VectorAC>:
 8001260:	b5f8      	push	{r3, r4, r5, r6, r7, lr}
 8001262:	46ce      	mov	lr, r9
 8001264:	4647      	mov	r7, r8
 8001266:	b580      	push	{r7, lr}
 8001268:	46f1      	mov	r9, lr
 800126a:	f7ff fd51 	bl	8000d10 <_dbg_check_enter_isr>
 800126e:	4d51      	ldr	r5, [pc, #324]	; (80013b4 <VectorAC+0x154>)
 8001270:	6f6e      	ldr	r6, [r5, #116]	; 0x74
 8001272:	6837      	ldr	r7, [r6, #0]
 8001274:	69f4      	ldr	r4, [r6, #28]
 8001276:	6234      	str	r4, [r6, #32]
 8001278:	0723      	lsls	r3, r4, #28
 800127a:	d125      	bne.n	80012c8 <VectorAC+0x68>
 800127c:	05e3      	lsls	r3, r4, #23
 800127e:	d446      	bmi.n	800130e <VectorAC+0xae>
 8001280:	06a3      	lsls	r3, r4, #26
 8001282:	d451      	bmi.n	8001328 <VectorAC+0xc8>
 8001284:	2380      	movs	r3, #128	; 0x80
 8001286:	423b      	tst	r3, r7
 8001288:	d001      	beq.n	800128e <VectorAC+0x2e>
 800128a:	4223      	tst	r3, r4
 800128c:	d164      	bne.n	8001358 <VectorAC+0xf8>
 800128e:	0663      	lsls	r3, r4, #25
 8001290:	d40a      	bmi.n	80012a8 <VectorAC+0x48>
 8001292:	f7ff fd25 	bl	8000ce0 <_dbg_check_leave_isr>
 8001296:	464b      	mov	r3, r9
 8001298:	330f      	adds	r3, #15
 800129a:	d001      	beq.n	80012a0 <VectorAC+0x40>
 800129c:	f7ff fa00 	bl	80006a0 <_port_irq_epilogue.part.0>
 80012a0:	bc0c      	pop	{r2, r3}
 80012a2:	4690      	mov	r8, r2
 80012a4:	4699      	mov	r9, r3
 80012a6:	bdf8      	pop	{r3, r4, r5, r6, r7, pc}
 80012a8:	b672      	cpsid	i
 80012aa:	f7ff fd61 	bl	8000d70 <_dbg_check_lock_from_isr>
 80012ae:	f7ff fa57 	bl	8000760 <chDbgCheckClassI>
 80012b2:	6c6b      	ldr	r3, [r5, #68]	; 0x44
 80012b4:	6caa      	ldr	r2, [r5, #72]	; 0x48
 80012b6:	4293      	cmp	r3, r2
 80012b8:	d05d      	beq.n	8001376 <VectorAC+0x116>
 80012ba:	2340      	movs	r3, #64	; 0x40
 80012bc:	439f      	bics	r7, r3
 80012be:	6037      	str	r7, [r6, #0]
 80012c0:	f7ff fd3e 	bl	8000d40 <_dbg_check_unlock_from_isr>
 80012c4:	b662      	cpsie	i
 80012c6:	e7e4      	b.n	8001292 <VectorAC+0x32>
 80012c8:	0723      	lsls	r3, r4, #28
 80012ca:	0fdb      	lsrs	r3, r3, #31
 80012cc:	01db      	lsls	r3, r3, #7
 80012ce:	4698      	mov	r8, r3
 80012d0:	07e3      	lsls	r3, r4, #31
 80012d2:	d503      	bpl.n	80012dc <VectorAC+0x7c>
 80012d4:	4642      	mov	r2, r8
 80012d6:	2320      	movs	r3, #32
 80012d8:	431a      	orrs	r2, r3
 80012da:	4690      	mov	r8, r2
 80012dc:	07a3      	lsls	r3, r4, #30
 80012de:	d503      	bpl.n	80012e8 <VectorAC+0x88>
 80012e0:	4642      	mov	r2, r8
 80012e2:	2340      	movs	r3, #64	; 0x40
 80012e4:	431a      	orrs	r2, r3
 80012e6:	4690      	mov	r8, r2
 80012e8:	0763      	lsls	r3, r4, #29
 80012ea:	d504      	bpl.n	80012f6 <VectorAC+0x96>
 80012ec:	2380      	movs	r3, #128	; 0x80
 80012ee:	4642      	mov	r2, r8
 80012f0:	005b      	lsls	r3, r3, #1
 80012f2:	431a      	orrs	r2, r3
 80012f4:	4690      	mov	r8, r2
 80012f6:	b672      	cpsid	i
 80012f8:	f7ff fd3a 	bl	8000d70 <_dbg_check_lock_from_isr>
 80012fc:	1d28      	adds	r0, r5, #4
 80012fe:	4641      	mov	r1, r8
 8001300:	f7ff fb46 	bl	8000990 <chEvtBroadcastFlagsI>
 8001304:	f7ff fd1c 	bl	8000d40 <_dbg_check_unlock_from_isr>
 8001308:	b662      	cpsie	i
 800130a:	05e3      	lsls	r3, r4, #23
 800130c:	d5b8      	bpl.n	8001280 <VectorAC+0x20>
 800130e:	b672      	cpsid	i
 8001310:	f7ff fd2e 	bl	8000d70 <_dbg_check_lock_from_isr>
 8001314:	2180      	movs	r1, #128	; 0x80
 8001316:	1d28      	adds	r0, r5, #4
 8001318:	0089      	lsls	r1, r1, #2
 800131a:	f7ff fb39 	bl	8000990 <chEvtBroadcastFlagsI>
 800131e:	f7ff fd0f 	bl	8000d40 <_dbg_check_unlock_from_isr>
 8001322:	b662      	cpsie	i
 8001324:	06a3      	lsls	r3, r4, #26
 8001326:	d5ad      	bpl.n	8001284 <VectorAC+0x24>
 8001328:	b672      	cpsid	i
 800132a:	f7ff fd21 	bl	8000d70 <_dbg_check_lock_from_isr>
 800132e:	8cb3      	ldrh	r3, [r6, #36]	; 0x24
 8001330:	b2db      	uxtb	r3, r3
 8001332:	4698      	mov	r8, r3
 8001334:	f7ff fa14 	bl	8000760 <chDbgCheckClassI>
 8001338:	f7ff fa12 	bl	8000760 <chDbgCheckClassI>
 800133c:	696b      	ldr	r3, [r5, #20]
 800133e:	2b00      	cmp	r3, #0
 8001340:	d021      	beq.n	8001386 <VectorAC+0x126>
 8001342:	0028      	movs	r0, r5
 8001344:	4641      	mov	r1, r8
 8001346:	300c      	adds	r0, #12
 8001348:	f7ff fa8a 	bl	8000860 <chIQPutI>
 800134c:	2800      	cmp	r0, #0
 800134e:	db1f      	blt.n	8001390 <VectorAC+0x130>
 8001350:	f7ff fcf6 	bl	8000d40 <_dbg_check_unlock_from_isr>
 8001354:	b662      	cpsie	i
 8001356:	e795      	b.n	8001284 <VectorAC+0x24>
 8001358:	b672      	cpsid	i
 800135a:	f7ff fd09 	bl	8000d70 <_dbg_check_lock_from_isr>
 800135e:	0028      	movs	r0, r5
 8001360:	3030      	adds	r0, #48	; 0x30
 8001362:	f7ff fab5 	bl	80008d0 <chOQGetI>
 8001366:	2800      	cmp	r0, #0
 8001368:	db17      	blt.n	800139a <VectorAC+0x13a>
 800136a:	b280      	uxth	r0, r0
 800136c:	8530      	strh	r0, [r6, #40]	; 0x28
 800136e:	f7ff fce7 	bl	8000d40 <_dbg_check_unlock_from_isr>
 8001372:	b662      	cpsie	i
 8001374:	e78b      	b.n	800128e <VectorAC+0x2e>
 8001376:	6bab      	ldr	r3, [r5, #56]	; 0x38
 8001378:	2b00      	cmp	r3, #0
 800137a:	d09e      	beq.n	80012ba <VectorAC+0x5a>
 800137c:	1d28      	adds	r0, r5, #4
 800137e:	2110      	movs	r1, #16
 8001380:	f7ff fb06 	bl	8000990 <chEvtBroadcastFlagsI>
 8001384:	e799      	b.n	80012ba <VectorAC+0x5a>
 8001386:	1d28      	adds	r0, r5, #4
 8001388:	2104      	movs	r1, #4
 800138a:	f7ff fb01 	bl	8000990 <chEvtBroadcastFlagsI>
 800138e:	e7d8      	b.n	8001342 <VectorAC+0xe2>
 8001390:	1d28      	adds	r0, r5, #4
 8001392:	2180      	movs	r1, #128	; 0x80
 8001394:	f7ff fafc 	bl	8000990 <chEvtBroadcastFlagsI>
 8001398:	e7da      	b.n	8001350 <VectorAC+0xf0>
 800139a:	1d28      	adds	r0, r5, #4
 800139c:	2108      	movs	r1, #8
 800139e:	f7ff faf7 	bl	8000990 <chEvtBroadcastFlagsI>
 80013a2:	23c0      	movs	r3, #192	; 0xc0
 80013a4:	003a      	movs	r2, r7
 80013a6:	439a      	bics	r2, r3
 80013a8:	0013      	movs	r3, r2
 80013aa:	2240      	movs	r2, #64	; 0x40
 80013ac:	4313      	orrs	r3, r2
 80013ae:	6033      	str	r3, [r6, #0]
 80013b0:	e7dd      	b.n	800136e <VectorAC+0x10e>
 80013b2:	46c0      	nop			; (mov r8, r8)
 80013b4:	200006b8 	.word	0x200006b8
	...

080013c0 <Vector7C>:
 80013c0:	b5f0      	push	{r4, r5, r6, r7, lr}
 80013c2:	46d6      	mov	lr, sl
 80013c4:	464f      	mov	r7, r9
 80013c6:	4646      	mov	r6, r8
 80013c8:	2480      	movs	r4, #128	; 0x80
 80013ca:	b5c0      	push	{r6, r7, lr}
 80013cc:	05e4      	lsls	r4, r4, #23
 80013ce:	4677      	mov	r7, lr
 80013d0:	f7ff fc9e 	bl	8000d10 <_dbg_check_enter_isr>
 80013d4:	6923      	ldr	r3, [r4, #16]
 80013d6:	079b      	lsls	r3, r3, #30
 80013d8:	d40a      	bmi.n	80013f0 <Vector7C+0x30>
 80013da:	f7ff fc81 	bl	8000ce0 <_dbg_check_leave_isr>
 80013de:	370f      	adds	r7, #15
 80013e0:	d001      	beq.n	80013e6 <Vector7C+0x26>
 80013e2:	f7ff f95d 	bl	80006a0 <_port_irq_epilogue.part.0>
 80013e6:	bc1c      	pop	{r2, r3, r4}
 80013e8:	4690      	mov	r8, r2
 80013ea:	4699      	mov	r9, r3
 80013ec:	46a2      	mov	sl, r4
 80013ee:	bdf0      	pop	{r4, r5, r6, r7, pc}
 80013f0:	2300      	movs	r3, #0
 80013f2:	6123      	str	r3, [r4, #16]
 80013f4:	b672      	cpsid	i
 80013f6:	f7ff fcbb 	bl	8000d70 <_dbg_check_lock_from_isr>
 80013fa:	f7ff f9b1 	bl	8000760 <chDbgCheckClassI>
 80013fe:	f7ff f9af 	bl	8000760 <chDbgCheckClassI>
 8001402:	4d23      	ldr	r5, [pc, #140]	; (8001490 <Vector7C+0xd0>)
 8001404:	6a61      	ldr	r1, [r4, #36]	; 0x24
 8001406:	69ee      	ldr	r6, [r5, #28]
 8001408:	6aaa      	ldr	r2, [r5, #40]	; 0x28
 800140a:	68b3      	ldr	r3, [r6, #8]
 800140c:	1a88      	subs	r0, r1, r2
 800140e:	4298      	cmp	r0, r3
 8001410:	d322      	bcc.n	8001458 <Vector7C+0x98>
 8001412:	211c      	movs	r1, #28
 8001414:	4689      	mov	r9, r1
 8001416:	2100      	movs	r1, #0
 8001418:	44a9      	add	r9, r5
 800141a:	4688      	mov	r8, r1
 800141c:	e00e      	b.n	800143c <Vector7C+0x7c>
 800141e:	f7ff fc8f 	bl	8000d40 <_dbg_check_unlock_from_isr>
 8001422:	b662      	cpsie	i
 8001424:	6930      	ldr	r0, [r6, #16]
 8001426:	47d0      	blx	sl
 8001428:	b672      	cpsid	i
 800142a:	f7ff fca1 	bl	8000d70 <_dbg_check_lock_from_isr>
 800142e:	69ee      	ldr	r6, [r5, #28]
 8001430:	6a61      	ldr	r1, [r4, #36]	; 0x24
 8001432:	6aaa      	ldr	r2, [r5, #40]	; 0x28
 8001434:	68b3      	ldr	r3, [r6, #8]
 8001436:	1a88      	subs	r0, r1, r2
 8001438:	4283      	cmp	r3, r0
 800143a:	d80d      	bhi.n	8001458 <Vector7C+0x98>
 800143c:	18d3      	adds	r3, r2, r3
 800143e:	464a      	mov	r2, r9
 8001440:	62ab      	str	r3, [r5, #40]	; 0x28
 8001442:	6833      	ldr	r3, [r6, #0]
 8001444:	605a      	str	r2, [r3, #4]
 8001446:	68f2      	ldr	r2, [r6, #12]
 8001448:	61eb      	str	r3, [r5, #28]
 800144a:	4692      	mov	sl, r2
 800144c:	4642      	mov	r2, r8
 800144e:	60f2      	str	r2, [r6, #12]
 8001450:	454b      	cmp	r3, r9
 8001452:	d1e4      	bne.n	800141e <Vector7C+0x5e>
 8001454:	60e2      	str	r2, [r4, #12]
 8001456:	e7e2      	b.n	800141e <Vector7C+0x5e>
 8001458:	480e      	ldr	r0, [pc, #56]	; (8001494 <Vector7C+0xd4>)
 800145a:	4286      	cmp	r6, r0
 800145c:	d014      	beq.n	8001488 <Vector7C+0xc8>
 800145e:	189b      	adds	r3, r3, r2
 8001460:	1a5b      	subs	r3, r3, r1
 8001462:	2b02      	cmp	r3, #2
 8001464:	d200      	bcs.n	8001468 <Vector7C+0xa8>
 8001466:	2302      	movs	r3, #2
 8001468:	185c      	adds	r4, r3, r1
 800146a:	0020      	movs	r0, r4
 800146c:	f7ff f908 	bl	8000680 <stSetAlarm>
 8001470:	2380      	movs	r3, #128	; 0x80
 8001472:	05db      	lsls	r3, r3, #23
 8001474:	6a5a      	ldr	r2, [r3, #36]	; 0x24
 8001476:	6aab      	ldr	r3, [r5, #40]	; 0x28
 8001478:	1ad2      	subs	r2, r2, r3
 800147a:	1ae3      	subs	r3, r4, r3
 800147c:	429a      	cmp	r2, r3
 800147e:	d903      	bls.n	8001488 <Vector7C+0xc8>
 8001480:	b672      	cpsid	i
 8001482:	4b05      	ldr	r3, [pc, #20]	; (8001498 <Vector7C+0xd8>)
 8001484:	62eb      	str	r3, [r5, #44]	; 0x2c
 8001486:	e7fe      	b.n	8001486 <Vector7C+0xc6>
 8001488:	f7ff fc5a 	bl	8000d40 <_dbg_check_unlock_from_isr>
 800148c:	b662      	cpsie	i
 800148e:	e7a4      	b.n	80013da <Vector7C+0x1a>
 8001490:	20000738 	.word	0x20000738
 8001494:	20000754 	.word	0x20000754
 8001498:	08007a20 	.word	0x08007a20
 800149c:	00000000 	.word	0x00000000

080014a0 <chSchDoRescheduleAhead>:
 80014a0:	2120      	movs	r1, #32
 80014a2:	2001      	movs	r0, #1
 80014a4:	b570      	push	{r4, r5, r6, lr}
 80014a6:	4d13      	ldr	r5, [pc, #76]	; (80014f4 <chSchDoRescheduleAhead+0x54>)
 80014a8:	682a      	ldr	r2, [r5, #0]
 80014aa:	69ac      	ldr	r4, [r5, #24]
 80014ac:	6813      	ldr	r3, [r2, #0]
 80014ae:	68a6      	ldr	r6, [r4, #8]
 80014b0:	605d      	str	r5, [r3, #4]
 80014b2:	5450      	strb	r0, [r2, r1]
 80014b4:	61aa      	str	r2, [r5, #24]
 80014b6:	2200      	movs	r2, #0
 80014b8:	602b      	str	r3, [r5, #0]
 80014ba:	5462      	strb	r2, [r4, r1]
 80014bc:	e000      	b.n	80014c0 <chSchDoRescheduleAhead+0x20>
 80014be:	681b      	ldr	r3, [r3, #0]
 80014c0:	689a      	ldr	r2, [r3, #8]
 80014c2:	4296      	cmp	r6, r2
 80014c4:	d3fb      	bcc.n	80014be <chSchDoRescheduleAhead+0x1e>
 80014c6:	685a      	ldr	r2, [r3, #4]
 80014c8:	6023      	str	r3, [r4, #0]
 80014ca:	6062      	str	r2, [r4, #4]
 80014cc:	0020      	movs	r0, r4
 80014ce:	6014      	str	r4, [r2, #0]
 80014d0:	605c      	str	r4, [r3, #4]
 80014d2:	f7ff f915 	bl	8000700 <_dbg_trace>
 80014d6:	f3ef 8309 	mrs	r3, PSP
 80014da:	69e2      	ldr	r2, [r4, #28]
 80014dc:	3b24      	subs	r3, #36	; 0x24
 80014de:	429a      	cmp	r2, r3
 80014e0:	d804      	bhi.n	80014ec <chSchDoRescheduleAhead+0x4c>
 80014e2:	69a8      	ldr	r0, [r5, #24]
 80014e4:	0021      	movs	r1, r4
 80014e6:	f7fe fe4b 	bl	8000180 <_port_switch>
 80014ea:	bd70      	pop	{r4, r5, r6, pc}
 80014ec:	b672      	cpsid	i
 80014ee:	4b02      	ldr	r3, [pc, #8]	; (80014f8 <chSchDoRescheduleAhead+0x58>)
 80014f0:	62eb      	str	r3, [r5, #44]	; 0x2c
 80014f2:	e7fe      	b.n	80014f2 <chSchDoRescheduleAhead+0x52>
 80014f4:	20000738 	.word	0x20000738
 80014f8:	08007f00 	.word	0x08007f00
 80014fc:	00000000 	.word	0x00000000

08001500 <chSchRescheduleS>:
 8001500:	b510      	push	{r4, lr}
 8001502:	f7ff f91d 	bl	8000740 <chDbgCheckClassS>
 8001506:	f7ff f92b 	bl	8000760 <chDbgCheckClassI>
 800150a:	4b05      	ldr	r3, [pc, #20]	; (8001520 <chSchRescheduleS+0x20>)
 800150c:	681a      	ldr	r2, [r3, #0]
 800150e:	699b      	ldr	r3, [r3, #24]
 8001510:	6892      	ldr	r2, [r2, #8]
 8001512:	689b      	ldr	r3, [r3, #8]
 8001514:	429a      	cmp	r2, r3
 8001516:	d901      	bls.n	800151c <chSchRescheduleS+0x1c>
 8001518:	f7ff ffc2 	bl	80014a0 <chSchDoRescheduleAhead>
 800151c:	bd10      	pop	{r4, pc}
 800151e:	46c0      	nop			; (mov r8, r8)
 8001520:	20000738 	.word	0x20000738
	...

08001530 <chSchWakeupS>:
 8001530:	b570      	push	{r4, r5, r6, lr}
 8001532:	0004      	movs	r4, r0
 8001534:	000d      	movs	r5, r1
 8001536:	f7ff f903 	bl	8000740 <chDbgCheckClassS>
 800153a:	4e11      	ldr	r6, [pc, #68]	; (8001580 <chSchWakeupS+0x50>)
 800153c:	68a3      	ldr	r3, [r4, #8]
 800153e:	69b0      	ldr	r0, [r6, #24]
 8001540:	6265      	str	r5, [r4, #36]	; 0x24
 8001542:	6882      	ldr	r2, [r0, #8]
 8001544:	4293      	cmp	r3, r2
 8001546:	d913      	bls.n	8001570 <chSchWakeupS+0x40>
 8001548:	f7ff f95a 	bl	8000800 <chSchReadyI>
 800154c:	2320      	movs	r3, #32
 800154e:	2201      	movs	r2, #1
 8001550:	54e2      	strb	r2, [r4, r3]
 8001552:	0005      	movs	r5, r0
 8001554:	61b4      	str	r4, [r6, #24]
 8001556:	f7ff f8d3 	bl	8000700 <_dbg_trace>
 800155a:	f3ef 8309 	mrs	r3, PSP
 800155e:	69ea      	ldr	r2, [r5, #28]
 8001560:	3b24      	subs	r3, #36	; 0x24
 8001562:	429a      	cmp	r2, r3
 8001564:	d808      	bhi.n	8001578 <chSchWakeupS+0x48>
 8001566:	0029      	movs	r1, r5
 8001568:	0020      	movs	r0, r4
 800156a:	f7fe fe09 	bl	8000180 <_port_switch>
 800156e:	e002      	b.n	8001576 <chSchWakeupS+0x46>
 8001570:	0020      	movs	r0, r4
 8001572:	f7ff f945 	bl	8000800 <chSchReadyI>
 8001576:	bd70      	pop	{r4, r5, r6, pc}
 8001578:	b672      	cpsid	i
 800157a:	4b02      	ldr	r3, [pc, #8]	; (8001584 <chSchWakeupS+0x54>)
 800157c:	62f3      	str	r3, [r6, #44]	; 0x2c
 800157e:	e7fe      	b.n	800157e <chSchWakeupS+0x4e>
 8001580:	20000738 	.word	0x20000738
 8001584:	08007f00 	.word	0x08007f00
	...

08001590 <chSchGoSleepS>:
 8001590:	b570      	push	{r4, r5, r6, lr}
 8001592:	0006      	movs	r6, r0
 8001594:	f7ff f8d4 	bl	8000740 <chDbgCheckClassS>
 8001598:	2220      	movs	r2, #32
 800159a:	4c0e      	ldr	r4, [pc, #56]	; (80015d4 <chSchGoSleepS+0x44>)
 800159c:	69a5      	ldr	r5, [r4, #24]
 800159e:	6823      	ldr	r3, [r4, #0]
 80015a0:	54ae      	strb	r6, [r5, r2]
 80015a2:	6819      	ldr	r1, [r3, #0]
 80015a4:	0028      	movs	r0, r5
 80015a6:	604c      	str	r4, [r1, #4]
 80015a8:	6021      	str	r1, [r4, #0]
 80015aa:	2101      	movs	r1, #1
 80015ac:	5499      	strb	r1, [r3, r2]
 80015ae:	61a3      	str	r3, [r4, #24]
 80015b0:	f7ff f8a6 	bl	8000700 <_dbg_trace>
 80015b4:	f3ef 8309 	mrs	r3, PSP
 80015b8:	69ea      	ldr	r2, [r5, #28]
 80015ba:	3b24      	subs	r3, #36	; 0x24
 80015bc:	429a      	cmp	r2, r3
 80015be:	d804      	bhi.n	80015ca <chSchGoSleepS+0x3a>
 80015c0:	0029      	movs	r1, r5
 80015c2:	69a0      	ldr	r0, [r4, #24]
 80015c4:	f7fe fddc 	bl	8000180 <_port_switch>
 80015c8:	bd70      	pop	{r4, r5, r6, pc}
 80015ca:	b672      	cpsid	i
 80015cc:	4b02      	ldr	r3, [pc, #8]	; (80015d8 <chSchGoSleepS+0x48>)
 80015ce:	62e3      	str	r3, [r4, #44]	; 0x2c
 80015d0:	e7fe      	b.n	80015d0 <chSchGoSleepS+0x40>
 80015d2:	46c0      	nop			; (mov r8, r8)
 80015d4:	20000738 	.word	0x20000738
 80015d8:	08007f00 	.word	0x08007f00
 80015dc:	00000000 	.word	0x00000000

080015e0 <chMtxLockS>:
 80015e0:	b5f8      	push	{r3, r4, r5, r6, r7, lr}
 80015e2:	4e3d      	ldr	r6, [pc, #244]	; (80016d8 <chMtxLockS+0xf8>)
 80015e4:	0005      	movs	r5, r0
 80015e6:	69b4      	ldr	r4, [r6, #24]
 80015e8:	f7ff f8aa 	bl	8000740 <chDbgCheckClassS>
 80015ec:	2d00      	cmp	r5, #0
 80015ee:	d036      	beq.n	800165e <chMtxLockS+0x7e>
 80015f0:	68a8      	ldr	r0, [r5, #8]
 80015f2:	2800      	cmp	r0, #0
 80015f4:	d02e      	beq.n	8001654 <chMtxLockS+0x74>
 80015f6:	2320      	movs	r3, #32
 80015f8:	68a2      	ldr	r2, [r4, #8]
 80015fa:	469c      	mov	ip, r3
 80015fc:	6883      	ldr	r3, [r0, #8]
 80015fe:	429a      	cmp	r2, r3
 8001600:	d908      	bls.n	8001614 <chMtxLockS+0x34>
 8001602:	4663      	mov	r3, ip
 8001604:	6082      	str	r2, [r0, #8]
 8001606:	5cc3      	ldrb	r3, [r0, r3]
 8001608:	2b06      	cmp	r3, #6
 800160a:	d04b      	beq.n	80016a4 <chMtxLockS+0xc4>
 800160c:	2b07      	cmp	r3, #7
 800160e:	d035      	beq.n	800167c <chMtxLockS+0x9c>
 8001610:	2b00      	cmp	r3, #0
 8001612:	d028      	beq.n	8001666 <chMtxLockS+0x86>
 8001614:	002b      	movs	r3, r5
 8001616:	e003      	b.n	8001620 <chMtxLockS+0x40>
 8001618:	689a      	ldr	r2, [r3, #8]
 800161a:	68a1      	ldr	r1, [r4, #8]
 800161c:	428a      	cmp	r2, r1
 800161e:	d302      	bcc.n	8001626 <chMtxLockS+0x46>
 8001620:	681b      	ldr	r3, [r3, #0]
 8001622:	429d      	cmp	r5, r3
 8001624:	d1f8      	bne.n	8001618 <chMtxLockS+0x38>
 8001626:	685a      	ldr	r2, [r3, #4]
 8001628:	6023      	str	r3, [r4, #0]
 800162a:	6062      	str	r2, [r4, #4]
 800162c:	2006      	movs	r0, #6
 800162e:	6014      	str	r4, [r2, #0]
 8001630:	605c      	str	r4, [r3, #4]
 8001632:	6265      	str	r5, [r4, #36]	; 0x24
 8001634:	f7ff ffac 	bl	8001590 <chSchGoSleepS>
 8001638:	68ab      	ldr	r3, [r5, #8]
 800163a:	42a3      	cmp	r3, r4
 800163c:	d003      	beq.n	8001646 <chMtxLockS+0x66>
 800163e:	b672      	cpsid	i
 8001640:	4b26      	ldr	r3, [pc, #152]	; (80016dc <chMtxLockS+0xfc>)
 8001642:	62f3      	str	r3, [r6, #44]	; 0x2c
 8001644:	e7fe      	b.n	8001644 <chMtxLockS+0x64>
 8001646:	6be3      	ldr	r3, [r4, #60]	; 0x3c
 8001648:	42ab      	cmp	r3, r5
 800164a:	d007      	beq.n	800165c <chMtxLockS+0x7c>
 800164c:	b672      	cpsid	i
 800164e:	4b23      	ldr	r3, [pc, #140]	; (80016dc <chMtxLockS+0xfc>)
 8001650:	62f3      	str	r3, [r6, #44]	; 0x2c
 8001652:	e7fe      	b.n	8001652 <chMtxLockS+0x72>
 8001654:	6be3      	ldr	r3, [r4, #60]	; 0x3c
 8001656:	60ac      	str	r4, [r5, #8]
 8001658:	60eb      	str	r3, [r5, #12]
 800165a:	63e5      	str	r5, [r4, #60]	; 0x3c
 800165c:	bdf8      	pop	{r3, r4, r5, r6, r7, pc}
 800165e:	b672      	cpsid	i
 8001660:	4b1e      	ldr	r3, [pc, #120]	; (80016dc <chMtxLockS+0xfc>)
 8001662:	62f3      	str	r3, [r6, #44]	; 0x2c
 8001664:	e7fe      	b.n	8001664 <chMtxLockS+0x84>
 8001666:	4662      	mov	r2, ip
 8001668:	2301      	movs	r3, #1
 800166a:	5483      	strb	r3, [r0, r2]
 800166c:	6843      	ldr	r3, [r0, #4]
 800166e:	6802      	ldr	r2, [r0, #0]
 8001670:	601a      	str	r2, [r3, #0]
 8001672:	6802      	ldr	r2, [r0, #0]
 8001674:	6053      	str	r3, [r2, #4]
 8001676:	f7ff f8c3 	bl	8000800 <chSchReadyI>
 800167a:	e7cb      	b.n	8001614 <chMtxLockS+0x34>
 800167c:	6843      	ldr	r3, [r0, #4]
 800167e:	6801      	ldr	r1, [r0, #0]
 8001680:	6019      	str	r1, [r3, #0]
 8001682:	6801      	ldr	r1, [r0, #0]
 8001684:	604b      	str	r3, [r1, #4]
 8001686:	6a41      	ldr	r1, [r0, #36]	; 0x24
 8001688:	000b      	movs	r3, r1
 800168a:	e002      	b.n	8001692 <chMtxLockS+0xb2>
 800168c:	689f      	ldr	r7, [r3, #8]
 800168e:	4297      	cmp	r7, r2
 8001690:	d302      	bcc.n	8001698 <chMtxLockS+0xb8>
 8001692:	681b      	ldr	r3, [r3, #0]
 8001694:	4299      	cmp	r1, r3
 8001696:	d1f9      	bne.n	800168c <chMtxLockS+0xac>
 8001698:	685a      	ldr	r2, [r3, #4]
 800169a:	6003      	str	r3, [r0, #0]
 800169c:	6042      	str	r2, [r0, #4]
 800169e:	6010      	str	r0, [r2, #0]
 80016a0:	6058      	str	r0, [r3, #4]
 80016a2:	e7b7      	b.n	8001614 <chMtxLockS+0x34>
 80016a4:	6843      	ldr	r3, [r0, #4]
 80016a6:	6801      	ldr	r1, [r0, #0]
 80016a8:	6019      	str	r1, [r3, #0]
 80016aa:	6801      	ldr	r1, [r0, #0]
 80016ac:	604b      	str	r3, [r1, #4]
 80016ae:	6a41      	ldr	r1, [r0, #36]	; 0x24
 80016b0:	000b      	movs	r3, r1
 80016b2:	e002      	b.n	80016ba <chMtxLockS+0xda>
 80016b4:	689f      	ldr	r7, [r3, #8]
 80016b6:	4297      	cmp	r7, r2
 80016b8:	d302      	bcc.n	80016c0 <chMtxLockS+0xe0>
 80016ba:	681b      	ldr	r3, [r3, #0]
 80016bc:	4299      	cmp	r1, r3
 80016be:	d1f9      	bne.n	80016b4 <chMtxLockS+0xd4>
 80016c0:	685a      	ldr	r2, [r3, #4]
 80016c2:	6003      	str	r3, [r0, #0]
 80016c4:	6042      	str	r2, [r0, #4]
 80016c6:	6010      	str	r0, [r2, #0]
 80016c8:	6058      	str	r0, [r3, #4]
 80016ca:	6888      	ldr	r0, [r1, #8]
 80016cc:	68a2      	ldr	r2, [r4, #8]
 80016ce:	6883      	ldr	r3, [r0, #8]
 80016d0:	4293      	cmp	r3, r2
 80016d2:	d200      	bcs.n	80016d6 <chMtxLockS+0xf6>
 80016d4:	e795      	b.n	8001602 <chMtxLockS+0x22>
 80016d6:	e79d      	b.n	8001614 <chMtxLockS+0x34>
 80016d8:	20000738 	.word	0x20000738
 80016dc:	08007ac0 	.word	0x08007ac0

080016e0 <chSchGoSleepTimeoutS>:
 80016e0:	b570      	push	{r4, r5, r6, lr}
 80016e2:	000d      	movs	r5, r1
 80016e4:	b086      	sub	sp, #24
 80016e6:	0006      	movs	r6, r0
 80016e8:	f7ff f82a 	bl	8000740 <chDbgCheckClassS>
 80016ec:	1c6b      	adds	r3, r5, #1
 80016ee:	d015      	beq.n	800171c <chSchGoSleepTimeoutS+0x3c>
 80016f0:	4c0d      	ldr	r4, [pc, #52]	; (8001728 <chSchGoSleepTimeoutS+0x48>)
 80016f2:	4a0e      	ldr	r2, [pc, #56]	; (800172c <chSchGoSleepTimeoutS+0x4c>)
 80016f4:	69a3      	ldr	r3, [r4, #24]
 80016f6:	0029      	movs	r1, r5
 80016f8:	a801      	add	r0, sp, #4
 80016fa:	f7ff fa99 	bl	8000c30 <chVTDoSetI>
 80016fe:	0030      	movs	r0, r6
 8001700:	f7ff ff46 	bl	8001590 <chSchGoSleepS>
 8001704:	f7ff f82c 	bl	8000760 <chDbgCheckClassI>
 8001708:	9b04      	ldr	r3, [sp, #16]
 800170a:	2b00      	cmp	r3, #0
 800170c:	d002      	beq.n	8001714 <chSchGoSleepTimeoutS+0x34>
 800170e:	a801      	add	r0, sp, #4
 8001710:	f7ff fa46 	bl	8000ba0 <chVTDoResetI>
 8001714:	69a3      	ldr	r3, [r4, #24]
 8001716:	6a58      	ldr	r0, [r3, #36]	; 0x24
 8001718:	b006      	add	sp, #24
 800171a:	bd70      	pop	{r4, r5, r6, pc}
 800171c:	0030      	movs	r0, r6
 800171e:	f7ff ff37 	bl	8001590 <chSchGoSleepS>
 8001722:	4c01      	ldr	r4, [pc, #4]	; (8001728 <chSchGoSleepTimeoutS+0x48>)
 8001724:	e7f6      	b.n	8001714 <chSchGoSleepTimeoutS+0x34>
 8001726:	46c0      	nop			; (mov r8, r8)
 8001728:	20000738 	.word	0x20000738
 800172c:	08000da1 	.word	0x08000da1

08001730 <chSemWaitTimeoutS>:
 8001730:	b570      	push	{r4, r5, r6, lr}
 8001732:	0004      	movs	r4, r0
 8001734:	000d      	movs	r5, r1
 8001736:	f7ff f803 	bl	8000740 <chDbgCheckClassS>
 800173a:	2c00      	cmp	r4, #0
 800173c:	d012      	beq.n	8001764 <chSemWaitTimeoutS+0x34>
 800173e:	68a3      	ldr	r3, [r4, #8]
 8001740:	6822      	ldr	r2, [r4, #0]
 8001742:	2b00      	cmp	r3, #0
 8001744:	db06      	blt.n	8001754 <chSemWaitTimeoutS+0x24>
 8001746:	42a2      	cmp	r2, r4
 8001748:	d006      	beq.n	8001758 <chSemWaitTimeoutS+0x28>
 800174a:	b672      	cpsid	i
 800174c:	4b11      	ldr	r3, [pc, #68]	; (8001794 <chSemWaitTimeoutS+0x64>)
 800174e:	4a12      	ldr	r2, [pc, #72]	; (8001798 <chSemWaitTimeoutS+0x68>)
 8001750:	62da      	str	r2, [r3, #44]	; 0x2c
 8001752:	e7fe      	b.n	8001752 <chSemWaitTimeoutS+0x22>
 8001754:	42a2      	cmp	r2, r4
 8001756:	d0f8      	beq.n	800174a <chSemWaitTimeoutS+0x1a>
 8001758:	1e5a      	subs	r2, r3, #1
 800175a:	60a2      	str	r2, [r4, #8]
 800175c:	2000      	movs	r0, #0
 800175e:	2a00      	cmp	r2, #0
 8001760:	db05      	blt.n	800176e <chSemWaitTimeoutS+0x3e>
 8001762:	bd70      	pop	{r4, r5, r6, pc}
 8001764:	b672      	cpsid	i
 8001766:	4b0b      	ldr	r3, [pc, #44]	; (8001794 <chSemWaitTimeoutS+0x64>)
 8001768:	4a0b      	ldr	r2, [pc, #44]	; (8001798 <chSemWaitTimeoutS+0x68>)
 800176a:	62da      	str	r2, [r3, #44]	; 0x2c
 800176c:	e7fe      	b.n	800176c <chSemWaitTimeoutS+0x3c>
 800176e:	4285      	cmp	r5, r0
 8001770:	d00c      	beq.n	800178c <chSemWaitTimeoutS+0x5c>
 8001772:	4b08      	ldr	r3, [pc, #32]	; (8001794 <chSemWaitTimeoutS+0x64>)
 8001774:	0029      	movs	r1, r5
 8001776:	699b      	ldr	r3, [r3, #24]
 8001778:	2005      	movs	r0, #5
 800177a:	625c      	str	r4, [r3, #36]	; 0x24
 800177c:	601c      	str	r4, [r3, #0]
 800177e:	6862      	ldr	r2, [r4, #4]
 8001780:	605a      	str	r2, [r3, #4]
 8001782:	6013      	str	r3, [r2, #0]
 8001784:	6063      	str	r3, [r4, #4]
 8001786:	f7ff ffab 	bl	80016e0 <chSchGoSleepTimeoutS>
 800178a:	e7ea      	b.n	8001762 <chSemWaitTimeoutS+0x32>
 800178c:	60a3      	str	r3, [r4, #8]
 800178e:	3801      	subs	r0, #1
 8001790:	e7e7      	b.n	8001762 <chSemWaitTimeoutS+0x32>
 8001792:	46c0      	nop			; (mov r8, r8)
 8001794:	20000738 	.word	0x20000738
 8001798:	08007b90 	.word	0x08007b90
 800179c:	00000000 	.word	0x00000000

080017a0 <chThdEnqueueTimeoutS>:
 80017a0:	b510      	push	{r4, lr}
 80017a2:	2900      	cmp	r1, #0
 80017a4:	d00a      	beq.n	80017bc <chThdEnqueueTimeoutS+0x1c>
 80017a6:	4b07      	ldr	r3, [pc, #28]	; (80017c4 <chThdEnqueueTimeoutS+0x24>)
 80017a8:	699b      	ldr	r3, [r3, #24]
 80017aa:	6018      	str	r0, [r3, #0]
 80017ac:	6842      	ldr	r2, [r0, #4]
 80017ae:	605a      	str	r2, [r3, #4]
 80017b0:	6013      	str	r3, [r2, #0]
 80017b2:	6043      	str	r3, [r0, #4]
 80017b4:	2004      	movs	r0, #4
 80017b6:	f7ff ff93 	bl	80016e0 <chSchGoSleepTimeoutS>
 80017ba:	bd10      	pop	{r4, pc}
 80017bc:	2001      	movs	r0, #1
 80017be:	4240      	negs	r0, r0
 80017c0:	e7fb      	b.n	80017ba <chThdEnqueueTimeoutS+0x1a>
 80017c2:	46c0      	nop			; (mov r8, r8)
 80017c4:	20000738 	.word	0x20000738
	...

080017d0 <__early_init>:
 80017d0:	2101      	movs	r1, #1
 80017d2:	4b26      	ldr	r3, [pc, #152]	; (800186c <__early_init+0x9c>)
 80017d4:	681a      	ldr	r2, [r3, #0]
 80017d6:	430a      	orrs	r2, r1
 80017d8:	601a      	str	r2, [r3, #0]
 80017da:	3101      	adds	r1, #1
 80017dc:	681a      	ldr	r2, [r3, #0]
 80017de:	4211      	tst	r1, r2
 80017e0:	d0fc      	beq.n	80017dc <__early_init+0xc>
 80017e2:	2103      	movs	r1, #3
 80017e4:	685a      	ldr	r2, [r3, #4]
 80017e6:	438a      	bics	r2, r1
 80017e8:	605a      	str	r2, [r3, #4]
 80017ea:	685a      	ldr	r2, [r3, #4]
 80017ec:	3109      	adds	r1, #9
 80017ee:	605a      	str	r2, [r3, #4]
 80017f0:	4a1e      	ldr	r2, [pc, #120]	; (800186c <__early_init+0x9c>)
 80017f2:	6853      	ldr	r3, [r2, #4]
 80017f4:	400b      	ands	r3, r1
 80017f6:	d1fc      	bne.n	80017f2 <__early_init+0x22>
 80017f8:	21f9      	movs	r1, #249	; 0xf9
 80017fa:	6810      	ldr	r0, [r2, #0]
 80017fc:	4001      	ands	r1, r0
 80017fe:	6011      	str	r1, [r2, #0]
 8001800:	2101      	movs	r1, #1
 8001802:	6053      	str	r3, [r2, #4]
 8001804:	6b53      	ldr	r3, [r2, #52]	; 0x34
 8001806:	430b      	orrs	r3, r1
 8001808:	6353      	str	r3, [r2, #52]	; 0x34
 800180a:	4a18      	ldr	r2, [pc, #96]	; (800186c <__early_init+0x9c>)
 800180c:	3101      	adds	r1, #1
 800180e:	6b53      	ldr	r3, [r2, #52]	; 0x34
 8001810:	4219      	tst	r1, r3
 8001812:	d0fc      	beq.n	800180e <__early_init+0x3e>
 8001814:	2101      	movs	r1, #1
 8001816:	6a53      	ldr	r3, [r2, #36]	; 0x24
 8001818:	430b      	orrs	r3, r1
 800181a:	6253      	str	r3, [r2, #36]	; 0x24
 800181c:	4a13      	ldr	r2, [pc, #76]	; (800186c <__early_init+0x9c>)
 800181e:	3101      	adds	r1, #1
 8001820:	6a53      	ldr	r3, [r2, #36]	; 0x24
 8001822:	4219      	tst	r1, r3
 8001824:	d0fc      	beq.n	8001820 <__early_init+0x50>
 8001826:	23a1      	movs	r3, #161	; 0xa1
 8001828:	039b      	lsls	r3, r3, #14
 800182a:	6053      	str	r3, [r2, #4]
 800182c:	2300      	movs	r3, #0
 800182e:	62d3      	str	r3, [r2, #44]	; 0x2c
 8001830:	6313      	str	r3, [r2, #48]	; 0x30
 8001832:	2380      	movs	r3, #128	; 0x80
 8001834:	6811      	ldr	r1, [r2, #0]
 8001836:	045b      	lsls	r3, r3, #17
 8001838:	430b      	orrs	r3, r1
 800183a:	2180      	movs	r1, #128	; 0x80
 800183c:	6013      	str	r3, [r2, #0]
 800183e:	4a0b      	ldr	r2, [pc, #44]	; (800186c <__early_init+0x9c>)
 8001840:	0489      	lsls	r1, r1, #18
 8001842:	6813      	ldr	r3, [r2, #0]
 8001844:	420b      	tst	r3, r1
 8001846:	d0fc      	beq.n	8001842 <__early_init+0x72>
 8001848:	2111      	movs	r1, #17
 800184a:	4b09      	ldr	r3, [pc, #36]	; (8001870 <__early_init+0xa0>)
 800184c:	6019      	str	r1, [r3, #0]
 800184e:	6853      	ldr	r3, [r2, #4]
 8001850:	390f      	subs	r1, #15
 8001852:	430b      	orrs	r3, r1
 8001854:	6053      	str	r3, [r2, #4]
 8001856:	4a05      	ldr	r2, [pc, #20]	; (800186c <__early_init+0x9c>)
 8001858:	310a      	adds	r1, #10
 800185a:	6853      	ldr	r3, [r2, #4]
 800185c:	400b      	ands	r3, r1
 800185e:	2b08      	cmp	r3, #8
 8001860:	d1fb      	bne.n	800185a <__early_init+0x8a>
 8001862:	2101      	movs	r1, #1
 8001864:	6993      	ldr	r3, [r2, #24]
 8001866:	430b      	orrs	r3, r1
 8001868:	6193      	str	r3, [r2, #24]
 800186a:	4770      	bx	lr
 800186c:	40021000 	.word	0x40021000
 8001870:	40022000 	.word	0x40022000
	...

08001880 <chSchDoReschedule>:
 8001880:	b510      	push	{r4, lr}
 8001882:	f7ff fe0d 	bl	80014a0 <chSchDoRescheduleAhead>
 8001886:	bd10      	pop	{r4, pc}
	...

08001890 <_dbg_check_unlock>:
 8001890:	4b06      	ldr	r3, [pc, #24]	; (80018ac <_dbg_check_unlock+0x1c>)
 8001892:	6b1a      	ldr	r2, [r3, #48]	; 0x30
 8001894:	2a00      	cmp	r2, #0
 8001896:	d104      	bne.n	80018a2 <_dbg_check_unlock+0x12>
 8001898:	6b59      	ldr	r1, [r3, #52]	; 0x34
 800189a:	2900      	cmp	r1, #0
 800189c:	dd01      	ble.n	80018a2 <_dbg_check_unlock+0x12>
 800189e:	635a      	str	r2, [r3, #52]	; 0x34
 80018a0:	4770      	bx	lr
 80018a2:	b672      	cpsid	i
 80018a4:	4a02      	ldr	r2, [pc, #8]	; (80018b0 <_dbg_check_unlock+0x20>)
 80018a6:	62da      	str	r2, [r3, #44]	; 0x2c
 80018a8:	e7fe      	b.n	80018a8 <_dbg_check_unlock+0x18>
 80018aa:	46c0      	nop			; (mov r8, r8)
 80018ac:	20000738 	.word	0x20000738
 80018b0:	08007d50 	.word	0x08007d50
	...

080018c0 <chSysUnlock.lto_priv.72>:
 80018c0:	b510      	push	{r4, lr}
 80018c2:	f7ff ffe5 	bl	8001890 <_dbg_check_unlock>
 80018c6:	4b07      	ldr	r3, [pc, #28]	; (80018e4 <chSysUnlock.lto_priv.72+0x24>)
 80018c8:	681a      	ldr	r2, [r3, #0]
 80018ca:	429a      	cmp	r2, r3
 80018cc:	d004      	beq.n	80018d8 <chSysUnlock.lto_priv.72+0x18>
 80018ce:	6999      	ldr	r1, [r3, #24]
 80018d0:	6892      	ldr	r2, [r2, #8]
 80018d2:	6889      	ldr	r1, [r1, #8]
 80018d4:	4291      	cmp	r1, r2
 80018d6:	d301      	bcc.n	80018dc <chSysUnlock.lto_priv.72+0x1c>
 80018d8:	b662      	cpsie	i
 80018da:	bd10      	pop	{r4, pc}
 80018dc:	b672      	cpsid	i
 80018de:	4a02      	ldr	r2, [pc, #8]	; (80018e8 <chSysUnlock.lto_priv.72+0x28>)
 80018e0:	62da      	str	r2, [r3, #44]	; 0x2c
 80018e2:	e7fe      	b.n	80018e2 <chSysUnlock.lto_priv.72+0x22>
 80018e4:	20000738 	.word	0x20000738
 80018e8:	080079d0 	.word	0x080079d0
 80018ec:	00000000 	.word	0x00000000

080018f0 <chSysUnlock.lto_priv.74>:
 80018f0:	b510      	push	{r4, lr}
 80018f2:	f7ff ffcd 	bl	8001890 <_dbg_check_unlock>
 80018f6:	4b07      	ldr	r3, [pc, #28]	; (8001914 <chSysUnlock.lto_priv.74+0x24>)
 80018f8:	681a      	ldr	r2, [r3, #0]
 80018fa:	429a      	cmp	r2, r3
 80018fc:	d004      	beq.n	8001908 <chSysUnlock.lto_priv.74+0x18>
 80018fe:	6999      	ldr	r1, [r3, #24]
 8001900:	6892      	ldr	r2, [r2, #8]
 8001902:	6889      	ldr	r1, [r1, #8]
 8001904:	4291      	cmp	r1, r2
 8001906:	d301      	bcc.n	800190c <chSysUnlock.lto_priv.74+0x1c>
 8001908:	b662      	cpsie	i
 800190a:	bd10      	pop	{r4, pc}
 800190c:	b672      	cpsid	i
 800190e:	4a02      	ldr	r2, [pc, #8]	; (8001918 <chSysUnlock.lto_priv.74+0x28>)
 8001910:	62da      	str	r2, [r3, #44]	; 0x2c
 8001912:	e7fe      	b.n	8001912 <chSysUnlock.lto_priv.74+0x22>
 8001914:	20000738 	.word	0x20000738
 8001918:	080079f0 	.word	0x080079f0
 800191c:	00000000 	.word	0x00000000

08001920 <chSysUnlock.lto_priv.85>:
 8001920:	b510      	push	{r4, lr}
 8001922:	f7ff ffb5 	bl	8001890 <_dbg_check_unlock>
 8001926:	4b07      	ldr	r3, [pc, #28]	; (8001944 <chSysUnlock.lto_priv.85+0x24>)
 8001928:	681a      	ldr	r2, [r3, #0]
 800192a:	429a      	cmp	r2, r3
 800192c:	d004      	beq.n	8001938 <chSysUnlock.lto_priv.85+0x18>
 800192e:	6999      	ldr	r1, [r3, #24]
 8001930:	6892      	ldr	r2, [r2, #8]
 8001932:	6889      	ldr	r1, [r1, #8]
 8001934:	4291      	cmp	r1, r2
 8001936:	d301      	bcc.n	800193c <chSysUnlock.lto_priv.85+0x1c>
 8001938:	b662      	cpsie	i
 800193a:	bd10      	pop	{r4, pc}
 800193c:	b672      	cpsid	i
 800193e:	4a02      	ldr	r2, [pc, #8]	; (8001948 <chSysUnlock.lto_priv.85+0x28>)
 8001940:	62da      	str	r2, [r3, #44]	; 0x2c
 8001942:	e7fe      	b.n	8001942 <chSysUnlock.lto_priv.85+0x22>
 8001944:	20000738 	.word	0x20000738
 8001948:	08007930 	.word	0x08007930
 800194c:	00000000 	.word	0x00000000

08001950 <chSysUnlock.lto_priv.84>:
 8001950:	b510      	push	{r4, lr}
 8001952:	f7ff ff9d 	bl	8001890 <_dbg_check_unlock>
 8001956:	4b07      	ldr	r3, [pc, #28]	; (8001974 <chSysUnlock.lto_priv.84+0x24>)
 8001958:	681a      	ldr	r2, [r3, #0]
 800195a:	429a      	cmp	r2, r3
 800195c:	d004      	beq.n	8001968 <chSysUnlock.lto_priv.84+0x18>
 800195e:	6999      	ldr	r1, [r3, #24]
 8001960:	6892      	ldr	r2, [r2, #8]
 8001962:	6889      	ldr	r1, [r1, #8]
 8001964:	4291      	cmp	r1, r2
 8001966:	d301      	bcc.n	800196c <chSysUnlock.lto_priv.84+0x1c>
 8001968:	b662      	cpsie	i
 800196a:	bd10      	pop	{r4, pc}
 800196c:	b672      	cpsid	i
 800196e:	4a02      	ldr	r2, [pc, #8]	; (8001978 <chSysUnlock.lto_priv.84+0x28>)
 8001970:	62da      	str	r2, [r3, #44]	; 0x2c
 8001972:	e7fe      	b.n	8001972 <chSysUnlock.lto_priv.84+0x22>
 8001974:	20000738 	.word	0x20000738
 8001978:	08007920 	.word	0x08007920
 800197c:	00000000 	.word	0x00000000

08001980 <chSysUnlock.lto_priv.83>:
 8001980:	b510      	push	{r4, lr}
 8001982:	f7ff ff85 	bl	8001890 <_dbg_check_unlock>
 8001986:	4b07      	ldr	r3, [pc, #28]	; (80019a4 <chSysUnlock.lto_priv.83+0x24>)
 8001988:	681a      	ldr	r2, [r3, #0]
 800198a:	429a      	cmp	r2, r3
 800198c:	d004      	beq.n	8001998 <chSysUnlock.lto_priv.83+0x18>
 800198e:	6999      	ldr	r1, [r3, #24]
 8001990:	6892      	ldr	r2, [r2, #8]
 8001992:	6889      	ldr	r1, [r1, #8]
 8001994:	4291      	cmp	r1, r2
 8001996:	d301      	bcc.n	800199c <chSysUnlock.lto_priv.83+0x1c>
 8001998:	b662      	cpsie	i
 800199a:	bd10      	pop	{r4, pc}
 800199c:	b672      	cpsid	i
 800199e:	4a02      	ldr	r2, [pc, #8]	; (80019a8 <chSysUnlock.lto_priv.83+0x28>)
 80019a0:	62da      	str	r2, [r3, #44]	; 0x2c
 80019a2:	e7fe      	b.n	80019a2 <chSysUnlock.lto_priv.83+0x22>
 80019a4:	20000738 	.word	0x20000738
 80019a8:	08007910 	.word	0x08007910
 80019ac:	00000000 	.word	0x00000000

080019b0 <chSysRestoreStatusX.part.3>:
 80019b0:	b510      	push	{r4, lr}
 80019b2:	f3ef 8305 	mrs	r3, IPSR
 80019b6:	05db      	lsls	r3, r3, #23
 80019b8:	d112      	bne.n	80019e0 <chSysRestoreStatusX.part.3+0x30>
 80019ba:	f7ff fda1 	bl	8001500 <chSchRescheduleS>
 80019be:	f7ff ff67 	bl	8001890 <_dbg_check_unlock>
 80019c2:	4b09      	ldr	r3, [pc, #36]	; (80019e8 <chSysRestoreStatusX.part.3+0x38>)
 80019c4:	681a      	ldr	r2, [r3, #0]
 80019c6:	429a      	cmp	r2, r3
 80019c8:	d008      	beq.n	80019dc <chSysRestoreStatusX.part.3+0x2c>
 80019ca:	6999      	ldr	r1, [r3, #24]
 80019cc:	6892      	ldr	r2, [r2, #8]
 80019ce:	6889      	ldr	r1, [r1, #8]
 80019d0:	4291      	cmp	r1, r2
 80019d2:	d203      	bcs.n	80019dc <chSysRestoreStatusX.part.3+0x2c>
 80019d4:	b672      	cpsid	i
 80019d6:	4a05      	ldr	r2, [pc, #20]	; (80019ec <chSysRestoreStatusX.part.3+0x3c>)
 80019d8:	62da      	str	r2, [r3, #44]	; 0x2c
 80019da:	e7fe      	b.n	80019da <chSysRestoreStatusX.part.3+0x2a>
 80019dc:	b662      	cpsie	i
 80019de:	bd10      	pop	{r4, pc}
 80019e0:	f7ff f9ae 	bl	8000d40 <_dbg_check_unlock_from_isr>
 80019e4:	b662      	cpsie	i
 80019e6:	e7fa      	b.n	80019de <chSysRestoreStatusX.part.3+0x2e>
 80019e8:	20000738 	.word	0x20000738
 80019ec:	08007960 	.word	0x08007960

080019f0 <_dbg_check_lock>:
 80019f0:	4b06      	ldr	r3, [pc, #24]	; (8001a0c <_dbg_check_lock+0x1c>)
 80019f2:	6b1a      	ldr	r2, [r3, #48]	; 0x30
 80019f4:	2a00      	cmp	r2, #0
 80019f6:	d102      	bne.n	80019fe <_dbg_check_lock+0xe>
 80019f8:	6b5a      	ldr	r2, [r3, #52]	; 0x34
 80019fa:	2a00      	cmp	r2, #0
 80019fc:	d003      	beq.n	8001a06 <_dbg_check_lock+0x16>
 80019fe:	b672      	cpsid	i
 8001a00:	4a03      	ldr	r2, [pc, #12]	; (8001a10 <_dbg_check_lock+0x20>)
 8001a02:	62da      	str	r2, [r3, #44]	; 0x2c
 8001a04:	e7fe      	b.n	8001a04 <_dbg_check_lock+0x14>
 8001a06:	2201      	movs	r2, #1
 8001a08:	635a      	str	r2, [r3, #52]	; 0x34
 8001a0a:	4770      	bx	lr
 8001a0c:	20000738 	.word	0x20000738
 8001a10:	08007d20 	.word	0x08007d20
	...

08001a20 <chSemReset.constprop.56>:
 8001a20:	b510      	push	{r4, lr}
 8001a22:	0004      	movs	r4, r0
 8001a24:	b672      	cpsid	i
 8001a26:	f7ff ffe3 	bl	80019f0 <_dbg_check_lock>
 8001a2a:	2100      	movs	r1, #0
 8001a2c:	0020      	movs	r0, r4
 8001a2e:	f7ff f887 	bl	8000b40 <chSemResetI>
 8001a32:	f7ff fd65 	bl	8001500 <chSchRescheduleS>
 8001a36:	f7ff ff2b 	bl	8001890 <_dbg_check_unlock>
 8001a3a:	4b07      	ldr	r3, [pc, #28]	; (8001a58 <chSemReset.constprop.56+0x38>)
 8001a3c:	681a      	ldr	r2, [r3, #0]
 8001a3e:	429a      	cmp	r2, r3
 8001a40:	d004      	beq.n	8001a4c <chSemReset.constprop.56+0x2c>
 8001a42:	6999      	ldr	r1, [r3, #24]
 8001a44:	6892      	ldr	r2, [r2, #8]
 8001a46:	6889      	ldr	r1, [r1, #8]
 8001a48:	4291      	cmp	r1, r2
 8001a4a:	d301      	bcc.n	8001a50 <chSemReset.constprop.56+0x30>
 8001a4c:	b662      	cpsie	i
 8001a4e:	bd10      	pop	{r4, pc}
 8001a50:	b672      	cpsid	i
 8001a52:	4a02      	ldr	r2, [pc, #8]	; (8001a5c <chSemReset.constprop.56+0x3c>)
 8001a54:	62da      	str	r2, [r3, #44]	; 0x2c
 8001a56:	e7fe      	b.n	8001a56 <chSemReset.constprop.56+0x36>
 8001a58:	20000738 	.word	0x20000738
 8001a5c:	080079a0 	.word	0x080079a0

08001a60 <chSemSignalWait.constprop.53>:
 8001a60:	b570      	push	{r4, r5, r6, lr}
 8001a62:	4c22      	ldr	r4, [pc, #136]	; (8001aec <chSemSignalWait.constprop.53+0x8c>)
 8001a64:	68a2      	ldr	r2, [r4, #8]
 8001a66:	6823      	ldr	r3, [r4, #0]
 8001a68:	2a00      	cmp	r2, #0
 8001a6a:	db06      	blt.n	8001a7a <chSemSignalWait.constprop.53+0x1a>
 8001a6c:	42a3      	cmp	r3, r4
 8001a6e:	d006      	beq.n	8001a7e <chSemSignalWait.constprop.53+0x1e>
 8001a70:	b672      	cpsid	i
 8001a72:	4b1f      	ldr	r3, [pc, #124]	; (8001af0 <chSemSignalWait.constprop.53+0x90>)
 8001a74:	4a1f      	ldr	r2, [pc, #124]	; (8001af4 <chSemSignalWait.constprop.53+0x94>)
 8001a76:	62da      	str	r2, [r3, #44]	; 0x2c
 8001a78:	e7fe      	b.n	8001a78 <chSemSignalWait.constprop.53+0x18>
 8001a7a:	42a3      	cmp	r3, r4
 8001a7c:	d0f8      	beq.n	8001a70 <chSemSignalWait.constprop.53+0x10>
 8001a7e:	b672      	cpsid	i
 8001a80:	f7ff ffb6 	bl	80019f0 <_dbg_check_lock>
 8001a84:	68a3      	ldr	r3, [r4, #8]
 8001a86:	3301      	adds	r3, #1
 8001a88:	60a3      	str	r3, [r4, #8]
 8001a8a:	2b00      	cmp	r3, #0
 8001a8c:	dc07      	bgt.n	8001a9e <chSemSignalWait.constprop.53+0x3e>
 8001a8e:	6820      	ldr	r0, [r4, #0]
 8001a90:	6803      	ldr	r3, [r0, #0]
 8001a92:	6023      	str	r3, [r4, #0]
 8001a94:	605c      	str	r4, [r3, #4]
 8001a96:	f7fe feb3 	bl	8000800 <chSchReadyI>
 8001a9a:	2300      	movs	r3, #0
 8001a9c:	6243      	str	r3, [r0, #36]	; 0x24
 8001a9e:	68a3      	ldr	r3, [r4, #8]
 8001aa0:	3b01      	subs	r3, #1
 8001aa2:	60a3      	str	r3, [r4, #8]
 8001aa4:	2b00      	cmp	r3, #0
 8001aa6:	db10      	blt.n	8001aca <chSemSignalWait.constprop.53+0x6a>
 8001aa8:	2400      	movs	r4, #0
 8001aaa:	f7ff fd29 	bl	8001500 <chSchRescheduleS>
 8001aae:	4d10      	ldr	r5, [pc, #64]	; (8001af0 <chSemSignalWait.constprop.53+0x90>)
 8001ab0:	f7ff feee 	bl	8001890 <_dbg_check_unlock>
 8001ab4:	682b      	ldr	r3, [r5, #0]
 8001ab6:	42ab      	cmp	r3, r5
 8001ab8:	d004      	beq.n	8001ac4 <chSemSignalWait.constprop.53+0x64>
 8001aba:	69aa      	ldr	r2, [r5, #24]
 8001abc:	689b      	ldr	r3, [r3, #8]
 8001abe:	6892      	ldr	r2, [r2, #8]
 8001ac0:	429a      	cmp	r2, r3
 8001ac2:	d30f      	bcc.n	8001ae4 <chSemSignalWait.constprop.53+0x84>
 8001ac4:	b662      	cpsie	i
 8001ac6:	0020      	movs	r0, r4
 8001ac8:	bd70      	pop	{r4, r5, r6, pc}
 8001aca:	4d09      	ldr	r5, [pc, #36]	; (8001af0 <chSemSignalWait.constprop.53+0x90>)
 8001acc:	6863      	ldr	r3, [r4, #4]
 8001ace:	69ae      	ldr	r6, [r5, #24]
 8001ad0:	2005      	movs	r0, #5
 8001ad2:	6034      	str	r4, [r6, #0]
 8001ad4:	6073      	str	r3, [r6, #4]
 8001ad6:	601e      	str	r6, [r3, #0]
 8001ad8:	6066      	str	r6, [r4, #4]
 8001ada:	6274      	str	r4, [r6, #36]	; 0x24
 8001adc:	f7ff fd58 	bl	8001590 <chSchGoSleepS>
 8001ae0:	6a74      	ldr	r4, [r6, #36]	; 0x24
 8001ae2:	e7e5      	b.n	8001ab0 <chSemSignalWait.constprop.53+0x50>
 8001ae4:	b672      	cpsid	i
 8001ae6:	4b04      	ldr	r3, [pc, #16]	; (8001af8 <chSemSignalWait.constprop.53+0x98>)
 8001ae8:	62eb      	str	r3, [r5, #44]	; 0x2c
 8001aea:	e7fe      	b.n	8001aea <chSemSignalWait.constprop.53+0x8a>
 8001aec:	200006ac 	.word	0x200006ac
 8001af0:	20000738 	.word	0x20000738
 8001af4:	08007c60 	.word	0x08007c60
 8001af8:	080079a0 	.word	0x080079a0
 8001afc:	00000000 	.word	0x00000000

08001b00 <chMtxTryLock.constprop.50>:
 8001b00:	b570      	push	{r4, r5, r6, lr}
 8001b02:	b672      	cpsid	i
 8001b04:	f7ff ff74 	bl	80019f0 <_dbg_check_lock>
 8001b08:	f7fe fe1a 	bl	8000740 <chDbgCheckClassS>
 8001b0c:	4b0f      	ldr	r3, [pc, #60]	; (8001b4c <chMtxTryLock.constprop.50+0x4c>)
 8001b0e:	689a      	ldr	r2, [r3, #8]
 8001b10:	2a00      	cmp	r2, #0
 8001b12:	d00e      	beq.n	8001b32 <chMtxTryLock.constprop.50+0x32>
 8001b14:	2500      	movs	r5, #0
 8001b16:	4c0e      	ldr	r4, [pc, #56]	; (8001b50 <chMtxTryLock.constprop.50+0x50>)
 8001b18:	f7ff feba 	bl	8001890 <_dbg_check_unlock>
 8001b1c:	6823      	ldr	r3, [r4, #0]
 8001b1e:	42a3      	cmp	r3, r4
 8001b20:	d004      	beq.n	8001b2c <chMtxTryLock.constprop.50+0x2c>
 8001b22:	69a2      	ldr	r2, [r4, #24]
 8001b24:	689b      	ldr	r3, [r3, #8]
 8001b26:	6892      	ldr	r2, [r2, #8]
 8001b28:	429a      	cmp	r2, r3
 8001b2a:	d30a      	bcc.n	8001b42 <chMtxTryLock.constprop.50+0x42>
 8001b2c:	b662      	cpsie	i
 8001b2e:	0028      	movs	r0, r5
 8001b30:	bd70      	pop	{r4, r5, r6, pc}
 8001b32:	4c07      	ldr	r4, [pc, #28]	; (8001b50 <chMtxTryLock.constprop.50+0x50>)
 8001b34:	2501      	movs	r5, #1
 8001b36:	69a2      	ldr	r2, [r4, #24]
 8001b38:	6bd1      	ldr	r1, [r2, #60]	; 0x3c
 8001b3a:	609a      	str	r2, [r3, #8]
 8001b3c:	60d9      	str	r1, [r3, #12]
 8001b3e:	63d3      	str	r3, [r2, #60]	; 0x3c
 8001b40:	e7ea      	b.n	8001b18 <chMtxTryLock.constprop.50+0x18>
 8001b42:	b672      	cpsid	i
 8001b44:	4b03      	ldr	r3, [pc, #12]	; (8001b54 <chMtxTryLock.constprop.50+0x54>)
 8001b46:	62e3      	str	r3, [r4, #44]	; 0x2c
 8001b48:	e7fe      	b.n	8001b48 <chMtxTryLock.constprop.50+0x48>
 8001b4a:	46c0      	nop			; (mov r8, r8)
 8001b4c:	20000634 	.word	0x20000634
 8001b50:	20000738 	.word	0x20000738
 8001b54:	080079b0 	.word	0x080079b0
	...

08001b60 <chCondSignal.constprop.48>:
 8001b60:	b510      	push	{r4, lr}
 8001b62:	b672      	cpsid	i
 8001b64:	f7ff ff44 	bl	80019f0 <_dbg_check_lock>
 8001b68:	4b0d      	ldr	r3, [pc, #52]	; (8001ba0 <chCondSignal.constprop.48+0x40>)
 8001b6a:	6818      	ldr	r0, [r3, #0]
 8001b6c:	4298      	cmp	r0, r3
 8001b6e:	d005      	beq.n	8001b7c <chCondSignal.constprop.48+0x1c>
 8001b70:	6802      	ldr	r2, [r0, #0]
 8001b72:	2100      	movs	r1, #0
 8001b74:	601a      	str	r2, [r3, #0]
 8001b76:	6053      	str	r3, [r2, #4]
 8001b78:	f7ff fcda 	bl	8001530 <chSchWakeupS>
 8001b7c:	f7ff fe88 	bl	8001890 <_dbg_check_unlock>
 8001b80:	4b08      	ldr	r3, [pc, #32]	; (8001ba4 <chCondSignal.constprop.48+0x44>)
 8001b82:	681a      	ldr	r2, [r3, #0]
 8001b84:	429a      	cmp	r2, r3
 8001b86:	d004      	beq.n	8001b92 <chCondSignal.constprop.48+0x32>
 8001b88:	6999      	ldr	r1, [r3, #24]
 8001b8a:	6892      	ldr	r2, [r2, #8]
 8001b8c:	6889      	ldr	r1, [r1, #8]
 8001b8e:	4291      	cmp	r1, r2
 8001b90:	d301      	bcc.n	8001b96 <chCondSignal.constprop.48+0x36>
 8001b92:	b662      	cpsie	i
 8001b94:	bd10      	pop	{r4, pc}
 8001b96:	b672      	cpsid	i
 8001b98:	4a03      	ldr	r2, [pc, #12]	; (8001ba8 <chCondSignal.constprop.48+0x48>)
 8001b9a:	62da      	str	r2, [r3, #44]	; 0x2c
 8001b9c:	e7fe      	b.n	8001b9c <chCondSignal.constprop.48+0x3c>
 8001b9e:	46c0      	nop			; (mov r8, r8)
 8001ba0:	20000600 	.word	0x20000600
 8001ba4:	20000738 	.word	0x20000738
 8001ba8:	080079c0 	.word	0x080079c0
 8001bac:	00000000 	.word	0x00000000

08001bb0 <chEvtGetAndClearEvents.constprop.39>:
 8001bb0:	b570      	push	{r4, r5, r6, lr}
 8001bb2:	b672      	cpsid	i
 8001bb4:	f7ff ff1c 	bl	80019f0 <_dbg_check_lock>
 8001bb8:	2200      	movs	r2, #0
 8001bba:	4c0a      	ldr	r4, [pc, #40]	; (8001be4 <chEvtGetAndClearEvents.constprop.39+0x34>)
 8001bbc:	69a3      	ldr	r3, [r4, #24]
 8001bbe:	6b9d      	ldr	r5, [r3, #56]	; 0x38
 8001bc0:	639a      	str	r2, [r3, #56]	; 0x38
 8001bc2:	f7ff fe65 	bl	8001890 <_dbg_check_unlock>
 8001bc6:	6823      	ldr	r3, [r4, #0]
 8001bc8:	42a3      	cmp	r3, r4
 8001bca:	d004      	beq.n	8001bd6 <chEvtGetAndClearEvents.constprop.39+0x26>
 8001bcc:	69a2      	ldr	r2, [r4, #24]
 8001bce:	689b      	ldr	r3, [r3, #8]
 8001bd0:	6892      	ldr	r2, [r2, #8]
 8001bd2:	429a      	cmp	r2, r3
 8001bd4:	d302      	bcc.n	8001bdc <chEvtGetAndClearEvents.constprop.39+0x2c>
 8001bd6:	b662      	cpsie	i
 8001bd8:	0028      	movs	r0, r5
 8001bda:	bd70      	pop	{r4, r5, r6, pc}
 8001bdc:	b672      	cpsid	i
 8001bde:	4b02      	ldr	r3, [pc, #8]	; (8001be8 <chEvtGetAndClearEvents.constprop.39+0x38>)
 8001be0:	62e3      	str	r3, [r4, #44]	; 0x2c
 8001be2:	e7fe      	b.n	8001be2 <chEvtGetAndClearEvents.constprop.39+0x32>
 8001be4:	20000738 	.word	0x20000738
 8001be8:	080079d0 	.word	0x080079d0
 8001bec:	00000000 	.word	0x00000000

08001bf0 <evt1_setup>:
 8001bf0:	b510      	push	{r4, lr}
 8001bf2:	f7ff ffdd 	bl	8001bb0 <chEvtGetAndClearEvents.constprop.39>
 8001bf6:	bd10      	pop	{r4, pc}
	...

08001c00 <evt3_setup>:
 8001c00:	b510      	push	{r4, lr}
 8001c02:	f7ff fff5 	bl	8001bf0 <evt1_setup>
 8001c06:	bd10      	pop	{r4, pc}
	...

08001c10 <evt2_setup>:
 8001c10:	b510      	push	{r4, lr}
 8001c12:	f7ff ffed 	bl	8001bf0 <evt1_setup>
 8001c16:	bd10      	pop	{r4, pc}
	...

08001c20 <chEvtWaitOne.constprop.35>:
 8001c20:	b570      	push	{r4, r5, r6, lr}
 8001c22:	4c12      	ldr	r4, [pc, #72]	; (8001c6c <chEvtWaitOne.constprop.35+0x4c>)
 8001c24:	69a6      	ldr	r6, [r4, #24]
 8001c26:	b672      	cpsid	i
 8001c28:	f7ff fee2 	bl	80019f0 <_dbg_check_lock>
 8001c2c:	6bb3      	ldr	r3, [r6, #56]	; 0x38
 8001c2e:	2b00      	cmp	r3, #0
 8001c30:	d010      	beq.n	8001c54 <chEvtWaitOne.constprop.35+0x34>
 8001c32:	425d      	negs	r5, r3
 8001c34:	401d      	ands	r5, r3
 8001c36:	43ab      	bics	r3, r5
 8001c38:	63b3      	str	r3, [r6, #56]	; 0x38
 8001c3a:	f7ff fe29 	bl	8001890 <_dbg_check_unlock>
 8001c3e:	6823      	ldr	r3, [r4, #0]
 8001c40:	42a3      	cmp	r3, r4
 8001c42:	d004      	beq.n	8001c4e <chEvtWaitOne.constprop.35+0x2e>
 8001c44:	69a2      	ldr	r2, [r4, #24]
 8001c46:	689b      	ldr	r3, [r3, #8]
 8001c48:	6892      	ldr	r2, [r2, #8]
 8001c4a:	429a      	cmp	r2, r3
 8001c4c:	d309      	bcc.n	8001c62 <chEvtWaitOne.constprop.35+0x42>
 8001c4e:	b662      	cpsie	i
 8001c50:	0028      	movs	r0, r5
 8001c52:	bd70      	pop	{r4, r5, r6, pc}
 8001c54:	3b01      	subs	r3, #1
 8001c56:	6273      	str	r3, [r6, #36]	; 0x24
 8001c58:	200a      	movs	r0, #10
 8001c5a:	f7ff fc99 	bl	8001590 <chSchGoSleepS>
 8001c5e:	6bb3      	ldr	r3, [r6, #56]	; 0x38
 8001c60:	e7e7      	b.n	8001c32 <chEvtWaitOne.constprop.35+0x12>
 8001c62:	b672      	cpsid	i
 8001c64:	4b02      	ldr	r3, [pc, #8]	; (8001c70 <chEvtWaitOne.constprop.35+0x50>)
 8001c66:	62e3      	str	r3, [r4, #44]	; 0x2c
 8001c68:	e7fe      	b.n	8001c68 <chEvtWaitOne.constprop.35+0x48>
 8001c6a:	46c0      	nop			; (mov r8, r8)
 8001c6c:	20000738 	.word	0x20000738
 8001c70:	080079d0 	.word	0x080079d0
	...

08001c80 <chEvtWaitAny.constprop.34>:
 8001c80:	b570      	push	{r4, r5, r6, lr}
 8001c82:	4c11      	ldr	r4, [pc, #68]	; (8001cc8 <chEvtWaitAny.constprop.34+0x48>)
 8001c84:	69a5      	ldr	r5, [r4, #24]
 8001c86:	b672      	cpsid	i
 8001c88:	f7ff feb2 	bl	80019f0 <_dbg_check_lock>
 8001c8c:	6bae      	ldr	r6, [r5, #56]	; 0x38
 8001c8e:	2e00      	cmp	r6, #0
 8001c90:	d00e      	beq.n	8001cb0 <chEvtWaitAny.constprop.34+0x30>
 8001c92:	2300      	movs	r3, #0
 8001c94:	63ab      	str	r3, [r5, #56]	; 0x38
 8001c96:	f7ff fdfb 	bl	8001890 <_dbg_check_unlock>
 8001c9a:	6823      	ldr	r3, [r4, #0]
 8001c9c:	42a3      	cmp	r3, r4
 8001c9e:	d004      	beq.n	8001caa <chEvtWaitAny.constprop.34+0x2a>
 8001ca0:	69a2      	ldr	r2, [r4, #24]
 8001ca2:	689b      	ldr	r3, [r3, #8]
 8001ca4:	6892      	ldr	r2, [r2, #8]
 8001ca6:	429a      	cmp	r2, r3
 8001ca8:	d30a      	bcc.n	8001cc0 <chEvtWaitAny.constprop.34+0x40>
 8001caa:	b662      	cpsie	i
 8001cac:	0030      	movs	r0, r6
 8001cae:	bd70      	pop	{r4, r5, r6, pc}
 8001cb0:	2301      	movs	r3, #1
 8001cb2:	425b      	negs	r3, r3
 8001cb4:	626b      	str	r3, [r5, #36]	; 0x24
 8001cb6:	200a      	movs	r0, #10
 8001cb8:	f7ff fc6a 	bl	8001590 <chSchGoSleepS>
 8001cbc:	6bae      	ldr	r6, [r5, #56]	; 0x38
 8001cbe:	e7e8      	b.n	8001c92 <chEvtWaitAny.constprop.34+0x12>
 8001cc0:	b672      	cpsid	i
 8001cc2:	4b02      	ldr	r3, [pc, #8]	; (8001ccc <chEvtWaitAny.constprop.34+0x4c>)
 8001cc4:	62e3      	str	r3, [r4, #44]	; 0x2c
 8001cc6:	e7fe      	b.n	8001cc6 <chEvtWaitAny.constprop.34+0x46>
 8001cc8:	20000738 	.word	0x20000738
 8001ccc:	080079d0 	.word	0x080079d0

08001cd0 <chEvtWaitOneTimeout.constprop.32>:
 8001cd0:	b570      	push	{r4, r5, r6, lr}
 8001cd2:	4c24      	ldr	r4, [pc, #144]	; (8001d64 <chEvtWaitOneTimeout.constprop.32+0x94>)
 8001cd4:	0005      	movs	r5, r0
 8001cd6:	69a6      	ldr	r6, [r4, #24]
 8001cd8:	b672      	cpsid	i
 8001cda:	f7ff fe89 	bl	80019f0 <_dbg_check_lock>
 8001cde:	6bb3      	ldr	r3, [r6, #56]	; 0x38
 8001ce0:	2b00      	cmp	r3, #0
 8001ce2:	d10b      	bne.n	8001cfc <chEvtWaitOneTimeout.constprop.32+0x2c>
 8001ce4:	2d00      	cmp	r5, #0
 8001ce6:	d01a      	beq.n	8001d1e <chEvtWaitOneTimeout.constprop.32+0x4e>
 8001ce8:	2301      	movs	r3, #1
 8001cea:	425b      	negs	r3, r3
 8001cec:	6273      	str	r3, [r6, #36]	; 0x24
 8001cee:	0029      	movs	r1, r5
 8001cf0:	200a      	movs	r0, #10
 8001cf2:	f7ff fcf5 	bl	80016e0 <chSchGoSleepTimeoutS>
 8001cf6:	2800      	cmp	r0, #0
 8001cf8:	db22      	blt.n	8001d40 <chEvtWaitOneTimeout.constprop.32+0x70>
 8001cfa:	6bb3      	ldr	r3, [r6, #56]	; 0x38
 8001cfc:	425d      	negs	r5, r3
 8001cfe:	401d      	ands	r5, r3
 8001d00:	43ab      	bics	r3, r5
 8001d02:	63b3      	str	r3, [r6, #56]	; 0x38
 8001d04:	f7ff fdc4 	bl	8001890 <_dbg_check_unlock>
 8001d08:	6823      	ldr	r3, [r4, #0]
 8001d0a:	42a3      	cmp	r3, r4
 8001d0c:	d004      	beq.n	8001d18 <chEvtWaitOneTimeout.constprop.32+0x48>
 8001d0e:	69a2      	ldr	r2, [r4, #24]
 8001d10:	689b      	ldr	r3, [r3, #8]
 8001d12:	6892      	ldr	r2, [r2, #8]
 8001d14:	429a      	cmp	r2, r3
 8001d16:	d30f      	bcc.n	8001d38 <chEvtWaitOneTimeout.constprop.32+0x68>
 8001d18:	b662      	cpsie	i
 8001d1a:	0028      	movs	r0, r5
 8001d1c:	bd70      	pop	{r4, r5, r6, pc}
 8001d1e:	f7ff fdb7 	bl	8001890 <_dbg_check_unlock>
 8001d22:	6823      	ldr	r3, [r4, #0]
 8001d24:	42a3      	cmp	r3, r4
 8001d26:	d004      	beq.n	8001d32 <chEvtWaitOneTimeout.constprop.32+0x62>
 8001d28:	69a2      	ldr	r2, [r4, #24]
 8001d2a:	689b      	ldr	r3, [r3, #8]
 8001d2c:	6892      	ldr	r2, [r2, #8]
 8001d2e:	429a      	cmp	r2, r3
 8001d30:	d314      	bcc.n	8001d5c <chEvtWaitOneTimeout.constprop.32+0x8c>
 8001d32:	b662      	cpsie	i
 8001d34:	2500      	movs	r5, #0
 8001d36:	e7f0      	b.n	8001d1a <chEvtWaitOneTimeout.constprop.32+0x4a>
 8001d38:	b672      	cpsid	i
 8001d3a:	4b0b      	ldr	r3, [pc, #44]	; (8001d68 <chEvtWaitOneTimeout.constprop.32+0x98>)
 8001d3c:	62e3      	str	r3, [r4, #44]	; 0x2c
 8001d3e:	e7fe      	b.n	8001d3e <chEvtWaitOneTimeout.constprop.32+0x6e>
 8001d40:	f7ff fda6 	bl	8001890 <_dbg_check_unlock>
 8001d44:	6823      	ldr	r3, [r4, #0]
 8001d46:	42a3      	cmp	r3, r4
 8001d48:	d0f3      	beq.n	8001d32 <chEvtWaitOneTimeout.constprop.32+0x62>
 8001d4a:	69a2      	ldr	r2, [r4, #24]
 8001d4c:	689b      	ldr	r3, [r3, #8]
 8001d4e:	6892      	ldr	r2, [r2, #8]
 8001d50:	429a      	cmp	r2, r3
 8001d52:	d2ee      	bcs.n	8001d32 <chEvtWaitOneTimeout.constprop.32+0x62>
 8001d54:	b672      	cpsid	i
 8001d56:	4b04      	ldr	r3, [pc, #16]	; (8001d68 <chEvtWaitOneTimeout.constprop.32+0x98>)
 8001d58:	62e3      	str	r3, [r4, #44]	; 0x2c
 8001d5a:	e7fe      	b.n	8001d5a <chEvtWaitOneTimeout.constprop.32+0x8a>
 8001d5c:	b672      	cpsid	i
 8001d5e:	4b02      	ldr	r3, [pc, #8]	; (8001d68 <chEvtWaitOneTimeout.constprop.32+0x98>)
 8001d60:	62e3      	str	r3, [r4, #44]	; 0x2c
 8001d62:	e7fe      	b.n	8001d62 <chEvtWaitOneTimeout.constprop.32+0x92>
 8001d64:	20000738 	.word	0x20000738
 8001d68:	080079d0 	.word	0x080079d0
 8001d6c:	00000000 	.word	0x00000000

08001d70 <chMBPost.constprop.22>:
 8001d70:	b570      	push	{r4, r5, r6, lr}
 8001d72:	0006      	movs	r6, r0
 8001d74:	000d      	movs	r5, r1
 8001d76:	b672      	cpsid	i
 8001d78:	f7ff fe3a 	bl	80019f0 <_dbg_check_lock>
 8001d7c:	f7fe fce0 	bl	8000740 <chDbgCheckClassS>
 8001d80:	4c14      	ldr	r4, [pc, #80]	; (8001dd4 <chMBPost.constprop.22+0x64>)
 8001d82:	0029      	movs	r1, r5
 8001d84:	0020      	movs	r0, r4
 8001d86:	301c      	adds	r0, #28
 8001d88:	f7ff fcd2 	bl	8001730 <chSemWaitTimeoutS>
 8001d8c:	1e05      	subs	r5, r0, #0
 8001d8e:	d10c      	bne.n	8001daa <chMBPost.constprop.22+0x3a>
 8001d90:	68a2      	ldr	r2, [r4, #8]
 8001d92:	1d13      	adds	r3, r2, #4
 8001d94:	60a3      	str	r3, [r4, #8]
 8001d96:	6016      	str	r6, [r2, #0]
 8001d98:	6862      	ldr	r2, [r4, #4]
 8001d9a:	4293      	cmp	r3, r2
 8001d9c:	d213      	bcs.n	8001dc6 <chMBPost.constprop.22+0x56>
 8001d9e:	0020      	movs	r0, r4
 8001da0:	3010      	adds	r0, #16
 8001da2:	f7fe fe75 	bl	8000a90 <chSemSignalI>
 8001da6:	f7ff fbab 	bl	8001500 <chSchRescheduleS>
 8001daa:	f7ff fd71 	bl	8001890 <_dbg_check_unlock>
 8001dae:	4b0a      	ldr	r3, [pc, #40]	; (8001dd8 <chMBPost.constprop.22+0x68>)
 8001db0:	681a      	ldr	r2, [r3, #0]
 8001db2:	429a      	cmp	r2, r3
 8001db4:	d004      	beq.n	8001dc0 <chMBPost.constprop.22+0x50>
 8001db6:	6999      	ldr	r1, [r3, #24]
 8001db8:	6892      	ldr	r2, [r2, #8]
 8001dba:	6889      	ldr	r1, [r1, #8]
 8001dbc:	4291      	cmp	r1, r2
 8001dbe:	d305      	bcc.n	8001dcc <chMBPost.constprop.22+0x5c>
 8001dc0:	b662      	cpsie	i
 8001dc2:	0028      	movs	r0, r5
 8001dc4:	bd70      	pop	{r4, r5, r6, pc}
 8001dc6:	6823      	ldr	r3, [r4, #0]
 8001dc8:	60a3      	str	r3, [r4, #8]
 8001dca:	e7e8      	b.n	8001d9e <chMBPost.constprop.22+0x2e>
 8001dcc:	b672      	cpsid	i
 8001dce:	4a03      	ldr	r2, [pc, #12]	; (8001ddc <chMBPost.constprop.22+0x6c>)
 8001dd0:	62da      	str	r2, [r3, #44]	; 0x2c
 8001dd2:	e7fe      	b.n	8001dd2 <chMBPost.constprop.22+0x62>
 8001dd4:	20000654 	.word	0x20000654
 8001dd8:	20000738 	.word	0x20000738
 8001ddc:	080079f0 	.word	0x080079f0

08001de0 <chMBPostAhead.constprop.19>:
 8001de0:	b570      	push	{r4, r5, r6, lr}
 8001de2:	0006      	movs	r6, r0
 8001de4:	000d      	movs	r5, r1
 8001de6:	b672      	cpsid	i
 8001de8:	f7ff fe02 	bl	80019f0 <_dbg_check_lock>
 8001dec:	f7fe fca8 	bl	8000740 <chDbgCheckClassS>
 8001df0:	4c15      	ldr	r4, [pc, #84]	; (8001e48 <chMBPostAhead.constprop.19+0x68>)
 8001df2:	0029      	movs	r1, r5
 8001df4:	0020      	movs	r0, r4
 8001df6:	301c      	adds	r0, #28
 8001df8:	f7ff fc9a 	bl	8001730 <chSemWaitTimeoutS>
 8001dfc:	1e05      	subs	r5, r0, #0
 8001dfe:	d10c      	bne.n	8001e1a <chMBPostAhead.constprop.19+0x3a>
 8001e00:	68e3      	ldr	r3, [r4, #12]
 8001e02:	6822      	ldr	r2, [r4, #0]
 8001e04:	3b04      	subs	r3, #4
 8001e06:	60e3      	str	r3, [r4, #12]
 8001e08:	4293      	cmp	r3, r2
 8001e0a:	d314      	bcc.n	8001e36 <chMBPostAhead.constprop.19+0x56>
 8001e0c:	0020      	movs	r0, r4
 8001e0e:	601e      	str	r6, [r3, #0]
 8001e10:	3010      	adds	r0, #16
 8001e12:	f7fe fe3d 	bl	8000a90 <chSemSignalI>
 8001e16:	f7ff fb73 	bl	8001500 <chSchRescheduleS>
 8001e1a:	f7ff fd39 	bl	8001890 <_dbg_check_unlock>
 8001e1e:	4b0b      	ldr	r3, [pc, #44]	; (8001e4c <chMBPostAhead.constprop.19+0x6c>)
 8001e20:	681a      	ldr	r2, [r3, #0]
 8001e22:	429a      	cmp	r2, r3
 8001e24:	d004      	beq.n	8001e30 <chMBPostAhead.constprop.19+0x50>
 8001e26:	6999      	ldr	r1, [r3, #24]
 8001e28:	6892      	ldr	r2, [r2, #8]
 8001e2a:	6889      	ldr	r1, [r1, #8]
 8001e2c:	4291      	cmp	r1, r2
 8001e2e:	d306      	bcc.n	8001e3e <chMBPostAhead.constprop.19+0x5e>
 8001e30:	b662      	cpsie	i
 8001e32:	0028      	movs	r0, r5
 8001e34:	bd70      	pop	{r4, r5, r6, pc}
 8001e36:	6863      	ldr	r3, [r4, #4]
 8001e38:	3b04      	subs	r3, #4
 8001e3a:	60e3      	str	r3, [r4, #12]
 8001e3c:	e7e6      	b.n	8001e0c <chMBPostAhead.constprop.19+0x2c>
 8001e3e:	b672      	cpsid	i
 8001e40:	4a03      	ldr	r2, [pc, #12]	; (8001e50 <chMBPostAhead.constprop.19+0x70>)
 8001e42:	62da      	str	r2, [r3, #44]	; 0x2c
 8001e44:	e7fe      	b.n	8001e44 <chMBPostAhead.constprop.19+0x64>
 8001e46:	46c0      	nop			; (mov r8, r8)
 8001e48:	20000654 	.word	0x20000654
 8001e4c:	20000738 	.word	0x20000738
 8001e50:	080079f0 	.word	0x080079f0
	...

08001e60 <chMBFetch.constprop.16>:
 8001e60:	b570      	push	{r4, r5, r6, lr}
 8001e62:	0006      	movs	r6, r0
 8001e64:	000d      	movs	r5, r1
 8001e66:	b672      	cpsid	i
 8001e68:	f7ff fdc2 	bl	80019f0 <_dbg_check_lock>
 8001e6c:	f7fe fc68 	bl	8000740 <chDbgCheckClassS>
 8001e70:	4c0d      	ldr	r4, [pc, #52]	; (8001ea8 <chMBFetch.constprop.16+0x48>)
 8001e72:	0029      	movs	r1, r5
 8001e74:	0020      	movs	r0, r4
 8001e76:	3010      	adds	r0, #16
 8001e78:	f7ff fc5a 	bl	8001730 <chSemWaitTimeoutS>
 8001e7c:	1e05      	subs	r5, r0, #0
 8001e7e:	d10f      	bne.n	8001ea0 <chMBFetch.constprop.16+0x40>
 8001e80:	68e2      	ldr	r2, [r4, #12]
 8001e82:	1d13      	adds	r3, r2, #4
 8001e84:	6812      	ldr	r2, [r2, #0]
 8001e86:	60e3      	str	r3, [r4, #12]
 8001e88:	6032      	str	r2, [r6, #0]
 8001e8a:	6862      	ldr	r2, [r4, #4]
 8001e8c:	4293      	cmp	r3, r2
 8001e8e:	d301      	bcc.n	8001e94 <chMBFetch.constprop.16+0x34>
 8001e90:	6823      	ldr	r3, [r4, #0]
 8001e92:	60e3      	str	r3, [r4, #12]
 8001e94:	0020      	movs	r0, r4
 8001e96:	301c      	adds	r0, #28
 8001e98:	f7fe fdfa 	bl	8000a90 <chSemSignalI>
 8001e9c:	f7ff fb30 	bl	8001500 <chSchRescheduleS>
 8001ea0:	f7ff fd26 	bl	80018f0 <chSysUnlock.lto_priv.74>
 8001ea4:	0028      	movs	r0, r5
 8001ea6:	bd70      	pop	{r4, r5, r6, pc}
 8001ea8:	20000654 	.word	0x20000654
 8001eac:	00000000 	.word	0x00000000

08001eb0 <test_start_timer.constprop.1>:
 8001eb0:	2200      	movs	r2, #0
 8001eb2:	4b13      	ldr	r3, [pc, #76]	; (8001f00 <test_start_timer.constprop.1+0x50>)
 8001eb4:	b510      	push	{r4, lr}
 8001eb6:	701a      	strb	r2, [r3, #0]
 8001eb8:	b672      	cpsid	i
 8001eba:	f7ff fd99 	bl	80019f0 <_dbg_check_lock>
 8001ebe:	f7fe fc4f 	bl	8000760 <chDbgCheckClassI>
 8001ec2:	4c10      	ldr	r4, [pc, #64]	; (8001f04 <test_start_timer.constprop.1+0x54>)
 8001ec4:	68e3      	ldr	r3, [r4, #12]
 8001ec6:	2b00      	cmp	r3, #0
 8001ec8:	d002      	beq.n	8001ed0 <test_start_timer.constprop.1+0x20>
 8001eca:	0020      	movs	r0, r4
 8001ecc:	f7fe fe68 	bl	8000ba0 <chVTDoResetI>
 8001ed0:	2300      	movs	r3, #0
 8001ed2:	4a0d      	ldr	r2, [pc, #52]	; (8001f08 <test_start_timer.constprop.1+0x58>)
 8001ed4:	490d      	ldr	r1, [pc, #52]	; (8001f0c <test_start_timer.constprop.1+0x5c>)
 8001ed6:	0020      	movs	r0, r4
 8001ed8:	f7fe feaa 	bl	8000c30 <chVTDoSetI>
 8001edc:	f7ff fcd8 	bl	8001890 <_dbg_check_unlock>
 8001ee0:	4b0b      	ldr	r3, [pc, #44]	; (8001f10 <test_start_timer.constprop.1+0x60>)
 8001ee2:	681a      	ldr	r2, [r3, #0]
 8001ee4:	429a      	cmp	r2, r3
 8001ee6:	d004      	beq.n	8001ef2 <test_start_timer.constprop.1+0x42>
 8001ee8:	6999      	ldr	r1, [r3, #24]
 8001eea:	6892      	ldr	r2, [r2, #8]
 8001eec:	6889      	ldr	r1, [r1, #8]
 8001eee:	4291      	cmp	r1, r2
 8001ef0:	d301      	bcc.n	8001ef6 <test_start_timer.constprop.1+0x46>
 8001ef2:	b662      	cpsie	i
 8001ef4:	bd10      	pop	{r4, pc}
 8001ef6:	b672      	cpsid	i
 8001ef8:	4a06      	ldr	r2, [pc, #24]	; (8001f14 <test_start_timer.constprop.1+0x64>)
 8001efa:	62da      	str	r2, [r3, #44]	; 0x2c
 8001efc:	e7fe      	b.n	8001efc <test_start_timer.constprop.1+0x4c>
 8001efe:	46c0      	nop			; (mov r8, r8)
 8001f00:	20001410 	.word	0x20001410
 8001f04:	2000143c 	.word	0x2000143c
 8001f08:	08000391 	.word	0x08000391
 8001f0c:	00002710 	.word	0x00002710
 8001f10:	20000738 	.word	0x20000738
 8001f14:	080078d0 	.word	0x080078d0
	...

08001f20 <chCoreAlloc>:
 8001f20:	b510      	push	{r4, lr}
 8001f22:	0004      	movs	r4, r0
 8001f24:	b672      	cpsid	i
 8001f26:	f7ff fd63 	bl	80019f0 <_dbg_check_lock>
 8001f2a:	f7fe fc19 	bl	8000760 <chDbgCheckClassI>
 8001f2e:	2207      	movs	r2, #7
 8001f30:	1de3      	adds	r3, r4, #7
 8001f32:	4393      	bics	r3, r2
 8001f34:	490e      	ldr	r1, [pc, #56]	; (8001f70 <chCoreAlloc+0x50>)
 8001f36:	4a0f      	ldr	r2, [pc, #60]	; (8001f74 <chCoreAlloc+0x54>)
 8001f38:	680c      	ldr	r4, [r1, #0]
 8001f3a:	6812      	ldr	r2, [r2, #0]
 8001f3c:	1b12      	subs	r2, r2, r4
 8001f3e:	4293      	cmp	r3, r2
 8001f40:	d813      	bhi.n	8001f6a <chCoreAlloc+0x4a>
 8001f42:	18e3      	adds	r3, r4, r3
 8001f44:	600b      	str	r3, [r1, #0]
 8001f46:	f7ff fca3 	bl	8001890 <_dbg_check_unlock>
 8001f4a:	4b0b      	ldr	r3, [pc, #44]	; (8001f78 <chCoreAlloc+0x58>)
 8001f4c:	681a      	ldr	r2, [r3, #0]
 8001f4e:	429a      	cmp	r2, r3
 8001f50:	d004      	beq.n	8001f5c <chCoreAlloc+0x3c>
 8001f52:	6999      	ldr	r1, [r3, #24]
 8001f54:	6892      	ldr	r2, [r2, #8]
 8001f56:	6889      	ldr	r1, [r1, #8]
 8001f58:	4291      	cmp	r1, r2
 8001f5a:	d302      	bcc.n	8001f62 <chCoreAlloc+0x42>
 8001f5c:	b662      	cpsie	i
 8001f5e:	0020      	movs	r0, r4
 8001f60:	bd10      	pop	{r4, pc}
 8001f62:	b672      	cpsid	i
 8001f64:	4a05      	ldr	r2, [pc, #20]	; (8001f7c <chCoreAlloc+0x5c>)
 8001f66:	62da      	str	r2, [r3, #44]	; 0x2c
 8001f68:	e7fe      	b.n	8001f68 <chCoreAlloc+0x48>
 8001f6a:	2400      	movs	r4, #0
 8001f6c:	e7eb      	b.n	8001f46 <chCoreAlloc+0x26>
 8001f6e:	46c0      	nop			; (mov r8, r8)
 8001f70:	20000d44 	.word	0x20000d44
 8001f74:	20000cc8 	.word	0x20000cc8
 8001f78:	20000738 	.word	0x20000738
 8001f7c:	08007a10 	.word	0x08007a10

08001f80 <thread4.lto_priv.138>:
 8001f80:	b570      	push	{r4, r5, r6, lr}
 8001f82:	4c0d      	ldr	r4, [pc, #52]	; (8001fb8 <thread4.lto_priv.138+0x38>)
 8001f84:	69a5      	ldr	r5, [r4, #24]
 8001f86:	b672      	cpsid	i
 8001f88:	f7ff fd32 	bl	80019f0 <_dbg_check_lock>
 8001f8c:	2003      	movs	r0, #3
 8001f8e:	f7ff faff 	bl	8001590 <chSchGoSleepS>
 8001f92:	6a6b      	ldr	r3, [r5, #36]	; 0x24
 8001f94:	2b00      	cmp	r3, #0
 8001f96:	d0f9      	beq.n	8001f8c <thread4.lto_priv.138+0xc>
 8001f98:	f7ff fc7a 	bl	8001890 <_dbg_check_unlock>
 8001f9c:	6823      	ldr	r3, [r4, #0]
 8001f9e:	42a3      	cmp	r3, r4
 8001fa0:	d004      	beq.n	8001fac <thread4.lto_priv.138+0x2c>
 8001fa2:	69a2      	ldr	r2, [r4, #24]
 8001fa4:	689b      	ldr	r3, [r3, #8]
 8001fa6:	6892      	ldr	r2, [r2, #8]
 8001fa8:	429a      	cmp	r2, r3
 8001faa:	d301      	bcc.n	8001fb0 <thread4.lto_priv.138+0x30>
 8001fac:	b662      	cpsie	i
 8001fae:	bd70      	pop	{r4, r5, r6, pc}
 8001fb0:	b672      	cpsid	i
 8001fb2:	4b02      	ldr	r3, [pc, #8]	; (8001fbc <thread4.lto_priv.138+0x3c>)
 8001fb4:	62e3      	str	r3, [r4, #44]	; 0x2c
 8001fb6:	e7fe      	b.n	8001fb6 <thread4.lto_priv.138+0x36>
 8001fb8:	20000738 	.word	0x20000738
 8001fbc:	08007950 	.word	0x08007950

08001fc0 <sys3_execute>:
 8001fc0:	b570      	push	{r4, r5, r6, lr}
 8001fc2:	b672      	cpsid	i
 8001fc4:	f7ff fd14 	bl	80019f0 <_dbg_check_lock>
 8001fc8:	2001      	movs	r0, #1
 8001fca:	f7fe ff59 	bl	8000e80 <chSysIntegrityCheckI>
 8001fce:	0005      	movs	r5, r0
 8001fd0:	f7ff fc5e 	bl	8001890 <_dbg_check_unlock>
 8001fd4:	4c37      	ldr	r4, [pc, #220]	; (80020b4 <sys3_execute+0xf4>)
 8001fd6:	6823      	ldr	r3, [r4, #0]
 8001fd8:	42a3      	cmp	r3, r4
 8001fda:	d004      	beq.n	8001fe6 <sys3_execute+0x26>
 8001fdc:	69a2      	ldr	r2, [r4, #24]
 8001fde:	689b      	ldr	r3, [r3, #8]
 8001fe0:	6892      	ldr	r2, [r2, #8]
 8001fe2:	429a      	cmp	r2, r3
 8001fe4:	d309      	bcc.n	8001ffa <sys3_execute+0x3a>
 8001fe6:	b662      	cpsie	i
 8001fe8:	2101      	movs	r1, #1
 8001fea:	4069      	eors	r1, r5
 8001fec:	b2c9      	uxtb	r1, r1
 8001fee:	2001      	movs	r0, #1
 8001ff0:	f7fe faf6 	bl	80005e0 <_test_assert>
 8001ff4:	2800      	cmp	r0, #0
 8001ff6:	d004      	beq.n	8002002 <sys3_execute+0x42>
 8001ff8:	bd70      	pop	{r4, r5, r6, pc}
 8001ffa:	b672      	cpsid	i
 8001ffc:	4b2e      	ldr	r3, [pc, #184]	; (80020b8 <sys3_execute+0xf8>)
 8001ffe:	62e3      	str	r3, [r4, #44]	; 0x2c
 8002000:	e7fe      	b.n	8002000 <sys3_execute+0x40>
 8002002:	b672      	cpsid	i
 8002004:	f7ff fcf4 	bl	80019f0 <_dbg_check_lock>
 8002008:	2002      	movs	r0, #2
 800200a:	f7fe ff39 	bl	8000e80 <chSysIntegrityCheckI>
 800200e:	0005      	movs	r5, r0
 8002010:	f7ff fc3e 	bl	8001890 <_dbg_check_unlock>
 8002014:	6823      	ldr	r3, [r4, #0]
 8002016:	42a3      	cmp	r3, r4
 8002018:	d004      	beq.n	8002024 <sys3_execute+0x64>
 800201a:	69a2      	ldr	r2, [r4, #24]
 800201c:	689b      	ldr	r3, [r3, #8]
 800201e:	6892      	ldr	r2, [r2, #8]
 8002020:	429a      	cmp	r2, r3
 8002022:	d33f      	bcc.n	80020a4 <sys3_execute+0xe4>
 8002024:	b662      	cpsie	i
 8002026:	2101      	movs	r1, #1
 8002028:	4069      	eors	r1, r5
 800202a:	b2c9      	uxtb	r1, r1
 800202c:	2002      	movs	r0, #2
 800202e:	f7fe fad7 	bl	80005e0 <_test_assert>
 8002032:	2800      	cmp	r0, #0
 8002034:	d1e0      	bne.n	8001ff8 <sys3_execute+0x38>
 8002036:	b672      	cpsid	i
 8002038:	f7ff fcda 	bl	80019f0 <_dbg_check_lock>
 800203c:	2004      	movs	r0, #4
 800203e:	f7fe ff1f 	bl	8000e80 <chSysIntegrityCheckI>
 8002042:	0005      	movs	r5, r0
 8002044:	f7ff fc24 	bl	8001890 <_dbg_check_unlock>
 8002048:	6823      	ldr	r3, [r4, #0]
 800204a:	42a3      	cmp	r3, r4
 800204c:	d004      	beq.n	8002058 <sys3_execute+0x98>
 800204e:	69a2      	ldr	r2, [r4, #24]
 8002050:	689b      	ldr	r3, [r3, #8]
 8002052:	6892      	ldr	r2, [r2, #8]
 8002054:	429a      	cmp	r2, r3
 8002056:	d329      	bcc.n	80020ac <sys3_execute+0xec>
 8002058:	b662      	cpsie	i
 800205a:	2101      	movs	r1, #1
 800205c:	4069      	eors	r1, r5
 800205e:	b2c9      	uxtb	r1, r1
 8002060:	2003      	movs	r0, #3
 8002062:	f7fe fabd 	bl	80005e0 <_test_assert>
 8002066:	2800      	cmp	r0, #0
 8002068:	d1c6      	bne.n	8001ff8 <sys3_execute+0x38>
 800206a:	b672      	cpsid	i
 800206c:	f7ff fcc0 	bl	80019f0 <_dbg_check_lock>
 8002070:	2008      	movs	r0, #8
 8002072:	f7fe ff05 	bl	8000e80 <chSysIntegrityCheckI>
 8002076:	0005      	movs	r5, r0
 8002078:	f7ff fc0a 	bl	8001890 <_dbg_check_unlock>
 800207c:	6823      	ldr	r3, [r4, #0]
 800207e:	42a3      	cmp	r3, r4
 8002080:	d004      	beq.n	800208c <sys3_execute+0xcc>
 8002082:	69a2      	ldr	r2, [r4, #24]
 8002084:	689b      	ldr	r3, [r3, #8]
 8002086:	6892      	ldr	r2, [r2, #8]
 8002088:	429a      	cmp	r2, r3
 800208a:	d307      	bcc.n	800209c <sys3_execute+0xdc>
 800208c:	b662      	cpsie	i
 800208e:	2101      	movs	r1, #1
 8002090:	4069      	eors	r1, r5
 8002092:	b2c9      	uxtb	r1, r1
 8002094:	2004      	movs	r0, #4
 8002096:	f7fe faa3 	bl	80005e0 <_test_assert>
 800209a:	e7ad      	b.n	8001ff8 <sys3_execute+0x38>
 800209c:	b672      	cpsid	i
 800209e:	4b06      	ldr	r3, [pc, #24]	; (80020b8 <sys3_execute+0xf8>)
 80020a0:	62e3      	str	r3, [r4, #44]	; 0x2c
 80020a2:	e7fe      	b.n	80020a2 <sys3_execute+0xe2>
 80020a4:	b672      	cpsid	i
 80020a6:	4b04      	ldr	r3, [pc, #16]	; (80020b8 <sys3_execute+0xf8>)
 80020a8:	62e3      	str	r3, [r4, #44]	; 0x2c
 80020aa:	e7fe      	b.n	80020aa <sys3_execute+0xea>
 80020ac:	b672      	cpsid	i
 80020ae:	4b02      	ldr	r3, [pc, #8]	; (80020b8 <sys3_execute+0xf8>)
 80020b0:	62e3      	str	r3, [r4, #44]	; 0x2c
 80020b2:	e7fe      	b.n	80020b2 <sys3_execute+0xf2>
 80020b4:	20000738 	.word	0x20000738
 80020b8:	08007940 	.word	0x08007940
 80020bc:	00000000 	.word	0x00000000

080020c0 <chPoolFree>:
 80020c0:	b570      	push	{r4, r5, r6, lr}
 80020c2:	0004      	movs	r4, r0
 80020c4:	000d      	movs	r5, r1
 80020c6:	b672      	cpsid	i
 80020c8:	f7ff fc92 	bl	80019f0 <_dbg_check_lock>
 80020cc:	f7fe fb48 	bl	8000760 <chDbgCheckClassI>
 80020d0:	2c00      	cmp	r4, #0
 80020d2:	d011      	beq.n	80020f8 <chPoolFree+0x38>
 80020d4:	2d00      	cmp	r5, #0
 80020d6:	d00f      	beq.n	80020f8 <chPoolFree+0x38>
 80020d8:	6823      	ldr	r3, [r4, #0]
 80020da:	602b      	str	r3, [r5, #0]
 80020dc:	6025      	str	r5, [r4, #0]
 80020de:	f7ff fbd7 	bl	8001890 <_dbg_check_unlock>
 80020e2:	4b0a      	ldr	r3, [pc, #40]	; (800210c <chPoolFree+0x4c>)
 80020e4:	681a      	ldr	r2, [r3, #0]
 80020e6:	429a      	cmp	r2, r3
 80020e8:	d004      	beq.n	80020f4 <chPoolFree+0x34>
 80020ea:	6999      	ldr	r1, [r3, #24]
 80020ec:	6892      	ldr	r2, [r2, #8]
 80020ee:	6889      	ldr	r1, [r1, #8]
 80020f0:	4291      	cmp	r1, r2
 80020f2:	d306      	bcc.n	8002102 <chPoolFree+0x42>
 80020f4:	b662      	cpsie	i
 80020f6:	bd70      	pop	{r4, r5, r6, pc}
 80020f8:	b672      	cpsid	i
 80020fa:	4b04      	ldr	r3, [pc, #16]	; (800210c <chPoolFree+0x4c>)
 80020fc:	4a04      	ldr	r2, [pc, #16]	; (8002110 <chPoolFree+0x50>)
 80020fe:	62da      	str	r2, [r3, #44]	; 0x2c
 8002100:	e7fe      	b.n	8002100 <chPoolFree+0x40>
 8002102:	b672      	cpsid	i
 8002104:	4a03      	ldr	r2, [pc, #12]	; (8002114 <chPoolFree+0x54>)
 8002106:	62da      	str	r2, [r3, #44]	; 0x2c
 8002108:	e7fe      	b.n	8002108 <chPoolFree+0x48>
 800210a:	46c0      	nop			; (mov r8, r8)
 800210c:	20000738 	.word	0x20000738
 8002110:	08007b50 	.word	0x08007b50
 8002114:	080078b0 	.word	0x080078b0
	...

08002120 <evt3_execute>:
 8002120:	b5f8      	push	{r3, r4, r5, r6, r7, lr}
 8002122:	2000      	movs	r0, #0
 8002124:	f7ff fdd4 	bl	8001cd0 <chEvtWaitOneTimeout.constprop.32>
 8002128:	4241      	negs	r1, r0
 800212a:	4141      	adcs	r1, r0
 800212c:	2001      	movs	r0, #1
 800212e:	b2c9      	uxtb	r1, r1
 8002130:	f7fe fa56 	bl	80005e0 <_test_assert>
 8002134:	1e06      	subs	r6, r0, #0
 8002136:	d000      	beq.n	800213a <evt3_execute+0x1a>
 8002138:	bdf8      	pop	{r3, r4, r5, r6, r7, pc}
 800213a:	4c63      	ldr	r4, [pc, #396]	; (80022c8 <evt3_execute+0x1a8>)
 800213c:	69a5      	ldr	r5, [r4, #24]
 800213e:	b672      	cpsid	i
 8002140:	f7ff fc56 	bl	80019f0 <_dbg_check_lock>
 8002144:	6bab      	ldr	r3, [r5, #56]	; 0x38
 8002146:	2b00      	cmp	r3, #0
 8002148:	d000      	beq.n	800214c <evt3_execute+0x2c>
 800214a:	e087      	b.n	800225c <evt3_execute+0x13c>
 800214c:	f7ff fba0 	bl	8001890 <_dbg_check_unlock>
 8002150:	6823      	ldr	r3, [r4, #0]
 8002152:	42a3      	cmp	r3, r4
 8002154:	d005      	beq.n	8002162 <evt3_execute+0x42>
 8002156:	69a2      	ldr	r2, [r4, #24]
 8002158:	689b      	ldr	r3, [r3, #8]
 800215a:	6892      	ldr	r2, [r2, #8]
 800215c:	429a      	cmp	r2, r3
 800215e:	d200      	bcs.n	8002162 <evt3_execute+0x42>
 8002160:	e078      	b.n	8002254 <evt3_execute+0x134>
 8002162:	b662      	cpsie	i
 8002164:	2101      	movs	r1, #1
 8002166:	2002      	movs	r0, #2
 8002168:	f7fe fa3a 	bl	80005e0 <_test_assert>
 800216c:	0005      	movs	r5, r0
 800216e:	1e06      	subs	r6, r0, #0
 8002170:	d1e2      	bne.n	8002138 <evt3_execute+0x18>
 8002172:	69a7      	ldr	r7, [r4, #24]
 8002174:	b672      	cpsid	i
 8002176:	f7ff fc3b 	bl	80019f0 <_dbg_check_lock>
 800217a:	6bbb      	ldr	r3, [r7, #56]	; 0x38
 800217c:	3301      	adds	r3, #1
 800217e:	d100      	bne.n	8002182 <evt3_execute+0x62>
 8002180:	e07e      	b.n	8002280 <evt3_execute+0x160>
 8002182:	f7ff fb85 	bl	8001890 <_dbg_check_unlock>
 8002186:	6823      	ldr	r3, [r4, #0]
 8002188:	42a3      	cmp	r3, r4
 800218a:	d005      	beq.n	8002198 <evt3_execute+0x78>
 800218c:	69a2      	ldr	r2, [r4, #24]
 800218e:	689b      	ldr	r3, [r3, #8]
 8002190:	6892      	ldr	r2, [r2, #8]
 8002192:	429a      	cmp	r2, r3
 8002194:	d200      	bcs.n	8002198 <evt3_execute+0x78>
 8002196:	e080      	b.n	800229a <evt3_execute+0x17a>
 8002198:	b662      	cpsie	i
 800219a:	2601      	movs	r6, #1
 800219c:	0031      	movs	r1, r6
 800219e:	2003      	movs	r0, #3
 80021a0:	f7fe fa1e 	bl	80005e0 <_test_assert>
 80021a4:	2800      	cmp	r0, #0
 80021a6:	d1c7      	bne.n	8002138 <evt3_execute+0x18>
 80021a8:	300a      	adds	r0, #10
 80021aa:	f7ff fd91 	bl	8001cd0 <chEvtWaitOneTimeout.constprop.32>
 80021ae:	4241      	negs	r1, r0
 80021b0:	4141      	adcs	r1, r0
 80021b2:	2004      	movs	r0, #4
 80021b4:	b2c9      	uxtb	r1, r1
 80021b6:	f7fe fa13 	bl	80005e0 <_test_assert>
 80021ba:	2800      	cmp	r0, #0
 80021bc:	d1bc      	bne.n	8002138 <evt3_execute+0x18>
 80021be:	69a6      	ldr	r6, [r4, #24]
 80021c0:	b672      	cpsid	i
 80021c2:	f7ff fc15 	bl	80019f0 <_dbg_check_lock>
 80021c6:	6bb5      	ldr	r5, [r6, #56]	; 0x38
 80021c8:	2d00      	cmp	r5, #0
 80021ca:	d109      	bne.n	80021e0 <evt3_execute+0xc0>
 80021cc:	2301      	movs	r3, #1
 80021ce:	210a      	movs	r1, #10
 80021d0:	425b      	negs	r3, r3
 80021d2:	6273      	str	r3, [r6, #36]	; 0x24
 80021d4:	0008      	movs	r0, r1
 80021d6:	f7ff fa83 	bl	80016e0 <chSchGoSleepTimeoutS>
 80021da:	2800      	cmp	r0, #0
 80021dc:	db65      	blt.n	80022aa <evt3_execute+0x18a>
 80021de:	6bb5      	ldr	r5, [r6, #56]	; 0x38
 80021e0:	2300      	movs	r3, #0
 80021e2:	63b3      	str	r3, [r6, #56]	; 0x38
 80021e4:	f7ff fb54 	bl	8001890 <_dbg_check_unlock>
 80021e8:	6823      	ldr	r3, [r4, #0]
 80021ea:	42a3      	cmp	r3, r4
 80021ec:	d004      	beq.n	80021f8 <evt3_execute+0xd8>
 80021ee:	69a2      	ldr	r2, [r4, #24]
 80021f0:	689b      	ldr	r3, [r3, #8]
 80021f2:	6892      	ldr	r2, [r2, #8]
 80021f4:	429a      	cmp	r2, r3
 80021f6:	d35b      	bcc.n	80022b0 <evt3_execute+0x190>
 80021f8:	b662      	cpsie	i
 80021fa:	4269      	negs	r1, r5
 80021fc:	4169      	adcs	r1, r5
 80021fe:	2005      	movs	r0, #5
 8002200:	b2c9      	uxtb	r1, r1
 8002202:	f7fe f9ed 	bl	80005e0 <_test_assert>
 8002206:	1e05      	subs	r5, r0, #0
 8002208:	d000      	beq.n	800220c <evt3_execute+0xec>
 800220a:	e795      	b.n	8002138 <evt3_execute+0x18>
 800220c:	69a6      	ldr	r6, [r4, #24]
 800220e:	b672      	cpsid	i
 8002210:	f7ff fbee 	bl	80019f0 <_dbg_check_lock>
 8002214:	6bb3      	ldr	r3, [r6, #56]	; 0x38
 8002216:	3301      	adds	r3, #1
 8002218:	d008      	beq.n	800222c <evt3_execute+0x10c>
 800221a:	2301      	movs	r3, #1
 800221c:	425b      	negs	r3, r3
 800221e:	6273      	str	r3, [r6, #36]	; 0x24
 8002220:	210a      	movs	r1, #10
 8002222:	200b      	movs	r0, #11
 8002224:	f7ff fa5c 	bl	80016e0 <chSchGoSleepTimeoutS>
 8002228:	2800      	cmp	r0, #0
 800222a:	db45      	blt.n	80022b8 <evt3_execute+0x198>
 800222c:	2300      	movs	r3, #0
 800222e:	63b3      	str	r3, [r6, #56]	; 0x38
 8002230:	f7ff fb2e 	bl	8001890 <_dbg_check_unlock>
 8002234:	6823      	ldr	r3, [r4, #0]
 8002236:	42a3      	cmp	r3, r4
 8002238:	d004      	beq.n	8002244 <evt3_execute+0x124>
 800223a:	69a2      	ldr	r2, [r4, #24]
 800223c:	689b      	ldr	r3, [r3, #8]
 800223e:	6892      	ldr	r2, [r2, #8]
 8002240:	429a      	cmp	r2, r3
 8002242:	d33c      	bcc.n	80022be <evt3_execute+0x19e>
 8002244:	b662      	cpsie	i
 8002246:	2501      	movs	r5, #1
 8002248:	426d      	negs	r5, r5
 800224a:	1c69      	adds	r1, r5, #1
 800224c:	2006      	movs	r0, #6
 800224e:	f7fe f9c7 	bl	80005e0 <_test_assert>
 8002252:	e771      	b.n	8002138 <evt3_execute+0x18>
 8002254:	b672      	cpsid	i
 8002256:	4b1d      	ldr	r3, [pc, #116]	; (80022cc <evt3_execute+0x1ac>)
 8002258:	62e3      	str	r3, [r4, #44]	; 0x2c
 800225a:	e7fe      	b.n	800225a <evt3_execute+0x13a>
 800225c:	63ae      	str	r6, [r5, #56]	; 0x38
 800225e:	f7ff fb17 	bl	8001890 <_dbg_check_unlock>
 8002262:	6823      	ldr	r3, [r4, #0]
 8002264:	42a3      	cmp	r3, r4
 8002266:	d004      	beq.n	8002272 <evt3_execute+0x152>
 8002268:	69a2      	ldr	r2, [r4, #24]
 800226a:	689b      	ldr	r3, [r3, #8]
 800226c:	6892      	ldr	r2, [r2, #8]
 800226e:	429a      	cmp	r2, r3
 8002270:	d302      	bcc.n	8002278 <evt3_execute+0x158>
 8002272:	b662      	cpsie	i
 8002274:	2100      	movs	r1, #0
 8002276:	e776      	b.n	8002166 <evt3_execute+0x46>
 8002278:	b672      	cpsid	i
 800227a:	4b14      	ldr	r3, [pc, #80]	; (80022cc <evt3_execute+0x1ac>)
 800227c:	62e3      	str	r3, [r4, #44]	; 0x2c
 800227e:	e7fe      	b.n	800227e <evt3_execute+0x15e>
 8002280:	63bd      	str	r5, [r7, #56]	; 0x38
 8002282:	f7ff fb05 	bl	8001890 <_dbg_check_unlock>
 8002286:	6823      	ldr	r3, [r4, #0]
 8002288:	42a3      	cmp	r3, r4
 800228a:	d004      	beq.n	8002296 <evt3_execute+0x176>
 800228c:	69a2      	ldr	r2, [r4, #24]
 800228e:	689b      	ldr	r3, [r3, #8]
 8002290:	6892      	ldr	r2, [r2, #8]
 8002292:	429a      	cmp	r2, r3
 8002294:	d305      	bcc.n	80022a2 <evt3_execute+0x182>
 8002296:	b662      	cpsie	i
 8002298:	e780      	b.n	800219c <evt3_execute+0x7c>
 800229a:	b672      	cpsid	i
 800229c:	4b0b      	ldr	r3, [pc, #44]	; (80022cc <evt3_execute+0x1ac>)
 800229e:	62e3      	str	r3, [r4, #44]	; 0x2c
 80022a0:	e7fe      	b.n	80022a0 <evt3_execute+0x180>
 80022a2:	b672      	cpsid	i
 80022a4:	4b09      	ldr	r3, [pc, #36]	; (80022cc <evt3_execute+0x1ac>)
 80022a6:	62e3      	str	r3, [r4, #44]	; 0x2c
 80022a8:	e7fe      	b.n	80022a8 <evt3_execute+0x188>
 80022aa:	f7ff fb09 	bl	80018c0 <chSysUnlock.lto_priv.72>
 80022ae:	e7a4      	b.n	80021fa <evt3_execute+0xda>
 80022b0:	b672      	cpsid	i
 80022b2:	4b06      	ldr	r3, [pc, #24]	; (80022cc <evt3_execute+0x1ac>)
 80022b4:	62e3      	str	r3, [r4, #44]	; 0x2c
 80022b6:	e7fe      	b.n	80022b6 <evt3_execute+0x196>
 80022b8:	f7ff fb02 	bl	80018c0 <chSysUnlock.lto_priv.72>
 80022bc:	e7c5      	b.n	800224a <evt3_execute+0x12a>
 80022be:	b672      	cpsid	i
 80022c0:	4b02      	ldr	r3, [pc, #8]	; (80022cc <evt3_execute+0x1ac>)
 80022c2:	62e3      	str	r3, [r4, #44]	; 0x2c
 80022c4:	e7fe      	b.n	80022c4 <evt3_execute+0x1a4>
 80022c6:	46c0      	nop			; (mov r8, r8)
 80022c8:	20000738 	.word	0x20000738
 80022cc:	080079d0 	.word	0x080079d0

080022d0 <thread4.lto_priv.137>:
 80022d0:	b510      	push	{r4, lr}
 80022d2:	0004      	movs	r4, r0
 80022d4:	b672      	cpsid	i
 80022d6:	f7ff fb8b 	bl	80019f0 <_dbg_check_lock>
 80022da:	f7fe fa41 	bl	8000760 <chDbgCheckClassI>
 80022de:	68a3      	ldr	r3, [r4, #8]
 80022e0:	2b00      	cmp	r3, #0
 80022e2:	dd0e      	ble.n	8002302 <thread4.lto_priv.137+0x32>
 80022e4:	f7ff f90c 	bl	8001500 <chSchRescheduleS>
 80022e8:	f7ff fad2 	bl	8001890 <_dbg_check_unlock>
 80022ec:	4b09      	ldr	r3, [pc, #36]	; (8002314 <thread4.lto_priv.137+0x44>)
 80022ee:	681a      	ldr	r2, [r3, #0]
 80022f0:	429a      	cmp	r2, r3
 80022f2:	d004      	beq.n	80022fe <thread4.lto_priv.137+0x2e>
 80022f4:	6999      	ldr	r1, [r3, #24]
 80022f6:	6892      	ldr	r2, [r2, #8]
 80022f8:	6889      	ldr	r1, [r1, #8]
 80022fa:	4291      	cmp	r1, r2
 80022fc:	d305      	bcc.n	800230a <thread4.lto_priv.137+0x3a>
 80022fe:	b662      	cpsie	i
 8002300:	bd10      	pop	{r4, pc}
 8002302:	0020      	movs	r0, r4
 8002304:	f7fe fbc4 	bl	8000a90 <chSemSignalI>
 8002308:	e7ec      	b.n	80022e4 <thread4.lto_priv.137+0x14>
 800230a:	b672      	cpsid	i
 800230c:	4a02      	ldr	r2, [pc, #8]	; (8002318 <thread4.lto_priv.137+0x48>)
 800230e:	62da      	str	r2, [r3, #44]	; 0x2c
 8002310:	e7fe      	b.n	8002310 <thread4.lto_priv.137+0x40>
 8002312:	46c0      	nop			; (mov r8, r8)
 8002314:	20000738 	.word	0x20000738
 8002318:	080078f0 	.word	0x080078f0
 800231c:	00000000 	.word	0x00000000

08002320 <test_terminate_threads>:
 8002320:	b5f8      	push	{r3, r4, r5, r6, r7, lr}
 8002322:	2314      	movs	r3, #20
 8002324:	4647      	mov	r7, r8
 8002326:	46ce      	mov	lr, r9
 8002328:	4699      	mov	r9, r3
 800232a:	2304      	movs	r3, #4
 800232c:	b580      	push	{r7, lr}
 800232e:	4698      	mov	r8, r3
 8002330:	2721      	movs	r7, #33	; 0x21
 8002332:	4c11      	ldr	r4, [pc, #68]	; (8002378 <test_terminate_threads+0x58>)
 8002334:	4d11      	ldr	r5, [pc, #68]	; (800237c <test_terminate_threads+0x5c>)
 8002336:	44a1      	add	r9, r4
 8002338:	6826      	ldr	r6, [r4, #0]
 800233a:	2e00      	cmp	r6, #0
 800233c:	d011      	beq.n	8002362 <test_terminate_threads+0x42>
 800233e:	b672      	cpsid	i
 8002340:	f7ff fb56 	bl	80019f0 <_dbg_check_lock>
 8002344:	4642      	mov	r2, r8
 8002346:	5df3      	ldrb	r3, [r6, r7]
 8002348:	4313      	orrs	r3, r2
 800234a:	55f3      	strb	r3, [r6, r7]
 800234c:	f7ff faa0 	bl	8001890 <_dbg_check_unlock>
 8002350:	682b      	ldr	r3, [r5, #0]
 8002352:	42ab      	cmp	r3, r5
 8002354:	d004      	beq.n	8002360 <test_terminate_threads+0x40>
 8002356:	69aa      	ldr	r2, [r5, #24]
 8002358:	689b      	ldr	r3, [r3, #8]
 800235a:	6892      	ldr	r2, [r2, #8]
 800235c:	429a      	cmp	r2, r3
 800235e:	d307      	bcc.n	8002370 <test_terminate_threads+0x50>
 8002360:	b662      	cpsie	i
 8002362:	3404      	adds	r4, #4
 8002364:	454c      	cmp	r4, r9
 8002366:	d1e7      	bne.n	8002338 <test_terminate_threads+0x18>
 8002368:	bc0c      	pop	{r2, r3}
 800236a:	4690      	mov	r8, r2
 800236c:	4699      	mov	r9, r3
 800236e:	bdf8      	pop	{r3, r4, r5, r6, r7, pc}
 8002370:	b672      	cpsid	i
 8002372:	4b03      	ldr	r3, [pc, #12]	; (8002380 <test_terminate_threads+0x60>)
 8002374:	62eb      	str	r3, [r5, #44]	; 0x2c
 8002376:	e7fe      	b.n	8002376 <test_terminate_threads+0x56>
 8002378:	20001414 	.word	0x20001414
 800237c:	20000738 	.word	0x20000738
 8002380:	08007970 	.word	0x08007970
	...

08002390 <_test_assert_time_window>:
 8002390:	b5f8      	push	{r3, r4, r5, r6, r7, lr}
 8002392:	0006      	movs	r6, r0
 8002394:	000f      	movs	r7, r1
 8002396:	0014      	movs	r4, r2
 8002398:	b672      	cpsid	i
 800239a:	f7ff fb29 	bl	80019f0 <_dbg_check_lock>
 800239e:	2380      	movs	r3, #128	; 0x80
 80023a0:	05db      	lsls	r3, r3, #23
 80023a2:	6a5d      	ldr	r5, [r3, #36]	; 0x24
 80023a4:	f7ff fa74 	bl	8001890 <_dbg_check_unlock>
 80023a8:	4b0d      	ldr	r3, [pc, #52]	; (80023e0 <_test_assert_time_window+0x50>)
 80023aa:	681a      	ldr	r2, [r3, #0]
 80023ac:	429a      	cmp	r2, r3
 80023ae:	d004      	beq.n	80023ba <_test_assert_time_window+0x2a>
 80023b0:	6999      	ldr	r1, [r3, #24]
 80023b2:	6892      	ldr	r2, [r2, #8]
 80023b4:	6889      	ldr	r1, [r1, #8]
 80023b6:	4291      	cmp	r1, r2
 80023b8:	d30e      	bcc.n	80023d8 <_test_assert_time_window+0x48>
 80023ba:	b662      	cpsie	i
 80023bc:	2000      	movs	r0, #0
 80023be:	1bed      	subs	r5, r5, r7
 80023c0:	1be4      	subs	r4, r4, r7
 80023c2:	42a5      	cmp	r5, r4
 80023c4:	d307      	bcc.n	80023d6 <_test_assert_time_window+0x46>
 80023c6:	2301      	movs	r3, #1
 80023c8:	4a06      	ldr	r2, [pc, #24]	; (80023e4 <_test_assert_time_window+0x54>)
 80023ca:	3001      	adds	r0, #1
 80023cc:	7013      	strb	r3, [r2, #0]
 80023ce:	4a06      	ldr	r2, [pc, #24]	; (80023e8 <_test_assert_time_window+0x58>)
 80023d0:	7013      	strb	r3, [r2, #0]
 80023d2:	4b06      	ldr	r3, [pc, #24]	; (80023ec <_test_assert_time_window+0x5c>)
 80023d4:	601e      	str	r6, [r3, #0]
 80023d6:	bdf8      	pop	{r3, r4, r5, r6, r7, pc}
 80023d8:	b672      	cpsid	i
 80023da:	4a05      	ldr	r2, [pc, #20]	; (80023f0 <_test_assert_time_window+0x60>)
 80023dc:	62da      	str	r2, [r3, #44]	; 0x2c
 80023de:	e7fe      	b.n	80023de <_test_assert_time_window+0x4e>
 80023e0:	20000738 	.word	0x20000738
 80023e4:	200013e8 	.word	0x200013e8
 80023e8:	20000d24 	.word	0x20000d24
 80023ec:	20000ccc 	.word	0x20000ccc
 80023f0:	080078d0 	.word	0x080078d0
	...

08002400 <test_emit_token>:
 8002400:	b510      	push	{r4, lr}
 8002402:	0004      	movs	r4, r0
 8002404:	b672      	cpsid	i
 8002406:	f7ff faf3 	bl	80019f0 <_dbg_check_lock>
 800240a:	4a0b      	ldr	r2, [pc, #44]	; (8002438 <test_emit_token+0x38>)
 800240c:	6813      	ldr	r3, [r2, #0]
 800240e:	1c59      	adds	r1, r3, #1
 8002410:	701c      	strb	r4, [r3, #0]
 8002412:	6011      	str	r1, [r2, #0]
 8002414:	f7ff fa3c 	bl	8001890 <_dbg_check_unlock>
 8002418:	4b08      	ldr	r3, [pc, #32]	; (800243c <test_emit_token+0x3c>)
 800241a:	681a      	ldr	r2, [r3, #0]
 800241c:	429a      	cmp	r2, r3
 800241e:	d004      	beq.n	800242a <test_emit_token+0x2a>
 8002420:	6999      	ldr	r1, [r3, #24]
 8002422:	6892      	ldr	r2, [r2, #8]
 8002424:	6889      	ldr	r1, [r1, #8]
 8002426:	4291      	cmp	r1, r2
 8002428:	d301      	bcc.n	800242e <test_emit_token+0x2e>
 800242a:	b662      	cpsie	i
 800242c:	bd10      	pop	{r4, pc}
 800242e:	b672      	cpsid	i
 8002430:	4a03      	ldr	r2, [pc, #12]	; (8002440 <test_emit_token+0x40>)
 8002432:	62da      	str	r2, [r3, #44]	; 0x2c
 8002434:	e7fe      	b.n	8002434 <test_emit_token+0x34>
 8002436:	46c0      	nop			; (mov r8, r8)
 8002438:	20001438 	.word	0x20001438
 800243c:	20000738 	.word	0x20000738
 8002440:	080078d0 	.word	0x080078d0
	...

08002450 <h3>:
 8002450:	b510      	push	{r4, lr}
 8002452:	2043      	movs	r0, #67	; 0x43
 8002454:	f7ff ffd4 	bl	8002400 <test_emit_token>
 8002458:	bd10      	pop	{r4, pc}
 800245a:	46c0      	nop			; (mov r8, r8)
 800245c:	0000      	movs	r0, r0
	...

08002460 <h2>:
 8002460:	b510      	push	{r4, lr}
 8002462:	2042      	movs	r0, #66	; 0x42
 8002464:	f7ff ffcc 	bl	8002400 <test_emit_token>
 8002468:	bd10      	pop	{r4, pc}
 800246a:	46c0      	nop			; (mov r8, r8)
 800246c:	0000      	movs	r0, r0
	...

08002470 <h1>:
 8002470:	b510      	push	{r4, lr}
 8002472:	2041      	movs	r0, #65	; 0x41
 8002474:	f7ff ffc4 	bl	8002400 <test_emit_token>
 8002478:	bd10      	pop	{r4, pc}
 800247a:	46c0      	nop			; (mov r8, r8)
 800247c:	0000      	movs	r0, r0
	...

08002480 <mbox1_execute>:
 8002480:	b5f0      	push	{r4, r5, r6, r7, lr}
 8002482:	46c6      	mov	lr, r8
 8002484:	b500      	push	{lr}
 8002486:	b082      	sub	sp, #8
 8002488:	b672      	cpsid	i
 800248a:	f7ff fab1 	bl	80019f0 <_dbg_check_lock>
 800248e:	f7fe f967 	bl	8000760 <chDbgCheckClassI>
 8002492:	f7fe f965 	bl	8000760 <chDbgCheckClassI>
 8002496:	4c0e      	ldr	r4, [pc, #56]	; (80024d0 <mbox1_execute+0x50>)
 8002498:	2001      	movs	r0, #1
 800249a:	6a63      	ldr	r3, [r4, #36]	; 0x24
 800249c:	1f59      	subs	r1, r3, #5
 800249e:	424b      	negs	r3, r1
 80024a0:	4159      	adcs	r1, r3
 80024a2:	b2c9      	uxtb	r1, r1
 80024a4:	f7fe f89c 	bl	80005e0 <_test_assert>
 80024a8:	2800      	cmp	r0, #0
 80024aa:	d015      	beq.n	80024d8 <mbox1_execute+0x58>
 80024ac:	f7ff f9f0 	bl	8001890 <_dbg_check_unlock>
 80024b0:	4b08      	ldr	r3, [pc, #32]	; (80024d4 <mbox1_execute+0x54>)
 80024b2:	681a      	ldr	r2, [r3, #0]
 80024b4:	429a      	cmp	r2, r3
 80024b6:	d005      	beq.n	80024c4 <mbox1_execute+0x44>
 80024b8:	6999      	ldr	r1, [r3, #24]
 80024ba:	6892      	ldr	r2, [r2, #8]
 80024bc:	6889      	ldr	r1, [r1, #8]
 80024be:	4291      	cmp	r1, r2
 80024c0:	d200      	bcs.n	80024c4 <mbox1_execute+0x44>
 80024c2:	e318      	b.n	8002af6 <mbox1_execute+0x676>
 80024c4:	b662      	cpsie	i
 80024c6:	b002      	add	sp, #8
 80024c8:	bc04      	pop	{r2}
 80024ca:	4690      	mov	r8, r2
 80024cc:	bdf0      	pop	{r4, r5, r6, r7, pc}
 80024ce:	46c0      	nop			; (mov r8, r8)
 80024d0:	20000654 	.word	0x20000654
 80024d4:	20000738 	.word	0x20000738
 80024d8:	f7ff f9da 	bl	8001890 <_dbg_check_unlock>
 80024dc:	4dd9      	ldr	r5, [pc, #868]	; (8002844 <mbox1_execute+0x3c4>)
 80024de:	682b      	ldr	r3, [r5, #0]
 80024e0:	42ab      	cmp	r3, r5
 80024e2:	d005      	beq.n	80024f0 <mbox1_execute+0x70>
 80024e4:	69aa      	ldr	r2, [r5, #24]
 80024e6:	689b      	ldr	r3, [r3, #8]
 80024e8:	6892      	ldr	r2, [r2, #8]
 80024ea:	429a      	cmp	r2, r3
 80024ec:	d200      	bcs.n	80024f0 <mbox1_execute+0x70>
 80024ee:	e2fe      	b.n	8002aee <mbox1_execute+0x66e>
 80024f0:	b662      	cpsie	i
 80024f2:	2642      	movs	r6, #66	; 0x42
 80024f4:	2101      	movs	r1, #1
 80024f6:	0030      	movs	r0, r6
 80024f8:	4249      	negs	r1, r1
 80024fa:	f7ff fc39 	bl	8001d70 <chMBPost.constprop.22>
 80024fe:	4241      	negs	r1, r0
 8002500:	4141      	adcs	r1, r0
 8002502:	2002      	movs	r0, #2
 8002504:	b2c9      	uxtb	r1, r1
 8002506:	f7fe f86b 	bl	80005e0 <_test_assert>
 800250a:	2800      	cmp	r0, #0
 800250c:	d1db      	bne.n	80024c6 <mbox1_execute+0x46>
 800250e:	3601      	adds	r6, #1
 8002510:	2e46      	cmp	r6, #70	; 0x46
 8002512:	d1ef      	bne.n	80024f4 <mbox1_execute+0x74>
 8002514:	2101      	movs	r1, #1
 8002516:	3041      	adds	r0, #65	; 0x41
 8002518:	4249      	negs	r1, r1
 800251a:	f7ff fc61 	bl	8001de0 <chMBPostAhead.constprop.19>
 800251e:	4241      	negs	r1, r0
 8002520:	4141      	adcs	r1, r0
 8002522:	2003      	movs	r0, #3
 8002524:	b2c9      	uxtb	r1, r1
 8002526:	f7fe f85b 	bl	80005e0 <_test_assert>
 800252a:	2800      	cmp	r0, #0
 800252c:	d1cb      	bne.n	80024c6 <mbox1_execute+0x46>
 800252e:	2101      	movs	r1, #1
 8002530:	3058      	adds	r0, #88	; 0x58
 8002532:	f7ff fc1d 	bl	8001d70 <chMBPost.constprop.22>
 8002536:	1c41      	adds	r1, r0, #1
 8002538:	4248      	negs	r0, r1
 800253a:	4141      	adcs	r1, r0
 800253c:	2004      	movs	r0, #4
 800253e:	b2c9      	uxtb	r1, r1
 8002540:	f7fe f84e 	bl	80005e0 <_test_assert>
 8002544:	2800      	cmp	r0, #0
 8002546:	d1be      	bne.n	80024c6 <mbox1_execute+0x46>
 8002548:	b672      	cpsid	i
 800254a:	f7ff fa51 	bl	80019f0 <_dbg_check_lock>
 800254e:	2058      	movs	r0, #88	; 0x58
 8002550:	f7fe fd16 	bl	8000f80 <chMBPostI.constprop.21>
 8002554:	0006      	movs	r6, r0
 8002556:	f7ff f99b 	bl	8001890 <_dbg_check_unlock>
 800255a:	682b      	ldr	r3, [r5, #0]
 800255c:	42ab      	cmp	r3, r5
 800255e:	d005      	beq.n	800256c <mbox1_execute+0xec>
 8002560:	69aa      	ldr	r2, [r5, #24]
 8002562:	689b      	ldr	r3, [r3, #8]
 8002564:	6892      	ldr	r2, [r2, #8]
 8002566:	429a      	cmp	r2, r3
 8002568:	d200      	bcs.n	800256c <mbox1_execute+0xec>
 800256a:	e2c8      	b.n	8002afe <mbox1_execute+0x67e>
 800256c:	b662      	cpsie	i
 800256e:	3601      	adds	r6, #1
 8002570:	4271      	negs	r1, r6
 8002572:	4171      	adcs	r1, r6
 8002574:	2005      	movs	r0, #5
 8002576:	b2c9      	uxtb	r1, r1
 8002578:	f7fe f832 	bl	80005e0 <_test_assert>
 800257c:	2800      	cmp	r0, #0
 800257e:	d1a2      	bne.n	80024c6 <mbox1_execute+0x46>
 8002580:	2101      	movs	r1, #1
 8002582:	3058      	adds	r0, #88	; 0x58
 8002584:	f7ff fc2c 	bl	8001de0 <chMBPostAhead.constprop.19>
 8002588:	1c41      	adds	r1, r0, #1
 800258a:	4248      	negs	r0, r1
 800258c:	4141      	adcs	r1, r0
 800258e:	2006      	movs	r0, #6
 8002590:	b2c9      	uxtb	r1, r1
 8002592:	f7fe f825 	bl	80005e0 <_test_assert>
 8002596:	2800      	cmp	r0, #0
 8002598:	d000      	beq.n	800259c <mbox1_execute+0x11c>
 800259a:	e794      	b.n	80024c6 <mbox1_execute+0x46>
 800259c:	b672      	cpsid	i
 800259e:	f7ff fa27 	bl	80019f0 <_dbg_check_lock>
 80025a2:	2058      	movs	r0, #88	; 0x58
 80025a4:	f7fe fd14 	bl	8000fd0 <chMBPostAheadI.constprop.18>
 80025a8:	0006      	movs	r6, r0
 80025aa:	f7ff f971 	bl	8001890 <_dbg_check_unlock>
 80025ae:	682b      	ldr	r3, [r5, #0]
 80025b0:	42ab      	cmp	r3, r5
 80025b2:	d005      	beq.n	80025c0 <mbox1_execute+0x140>
 80025b4:	69aa      	ldr	r2, [r5, #24]
 80025b6:	689b      	ldr	r3, [r3, #8]
 80025b8:	6892      	ldr	r2, [r2, #8]
 80025ba:	429a      	cmp	r2, r3
 80025bc:	d200      	bcs.n	80025c0 <mbox1_execute+0x140>
 80025be:	e2a2      	b.n	8002b06 <mbox1_execute+0x686>
 80025c0:	b662      	cpsie	i
 80025c2:	3601      	adds	r6, #1
 80025c4:	4271      	negs	r1, r6
 80025c6:	4171      	adcs	r1, r6
 80025c8:	2007      	movs	r0, #7
 80025ca:	b2c9      	uxtb	r1, r1
 80025cc:	f7fe f808 	bl	80005e0 <_test_assert>
 80025d0:	2800      	cmp	r0, #0
 80025d2:	d000      	beq.n	80025d6 <mbox1_execute+0x156>
 80025d4:	e777      	b.n	80024c6 <mbox1_execute+0x46>
 80025d6:	b672      	cpsid	i
 80025d8:	f7ff fa0a 	bl	80019f0 <_dbg_check_lock>
 80025dc:	f7fe f8c0 	bl	8000760 <chDbgCheckClassI>
 80025e0:	f7fe f8be 	bl	8000760 <chDbgCheckClassI>
 80025e4:	6a61      	ldr	r1, [r4, #36]	; 0x24
 80025e6:	2008      	movs	r0, #8
 80025e8:	424b      	negs	r3, r1
 80025ea:	4159      	adcs	r1, r3
 80025ec:	b2c9      	uxtb	r1, r1
 80025ee:	f7fd fff7 	bl	80005e0 <_test_assert>
 80025f2:	2800      	cmp	r0, #0
 80025f4:	d000      	beq.n	80025f8 <mbox1_execute+0x178>
 80025f6:	e277      	b.n	8002ae8 <mbox1_execute+0x668>
 80025f8:	f7ff f9c2 	bl	8001980 <chSysUnlock.lto_priv.83>
 80025fc:	b672      	cpsid	i
 80025fe:	f7ff f9f7 	bl	80019f0 <_dbg_check_lock>
 8002602:	f7fe f8ad 	bl	8000760 <chDbgCheckClassI>
 8002606:	f7fe f8ab 	bl	8000760 <chDbgCheckClassI>
 800260a:	69a3      	ldr	r3, [r4, #24]
 800260c:	2009      	movs	r0, #9
 800260e:	1f59      	subs	r1, r3, #5
 8002610:	424b      	negs	r3, r1
 8002612:	4159      	adcs	r1, r3
 8002614:	b2c9      	uxtb	r1, r1
 8002616:	f7fd ffe3 	bl	80005e0 <_test_assert>
 800261a:	2800      	cmp	r0, #0
 800261c:	d000      	beq.n	8002620 <mbox1_execute+0x1a0>
 800261e:	e263      	b.n	8002ae8 <mbox1_execute+0x668>
 8002620:	f7ff f9ae 	bl	8001980 <chSysUnlock.lto_priv.83>
 8002624:	b672      	cpsid	i
 8002626:	f7ff f9e3 	bl	80019f0 <_dbg_check_lock>
 800262a:	68e3      	ldr	r3, [r4, #12]
 800262c:	68a2      	ldr	r2, [r4, #8]
 800262e:	200a      	movs	r0, #10
 8002630:	1a99      	subs	r1, r3, r2
 8002632:	424b      	negs	r3, r1
 8002634:	4159      	adcs	r1, r3
 8002636:	b2c9      	uxtb	r1, r1
 8002638:	f7fd ffd2 	bl	80005e0 <_test_assert>
 800263c:	2800      	cmp	r0, #0
 800263e:	d000      	beq.n	8002642 <mbox1_execute+0x1c2>
 8002640:	e252      	b.n	8002ae8 <mbox1_execute+0x668>
 8002642:	2701      	movs	r7, #1
 8002644:	f7ff f99c 	bl	8001980 <chSysUnlock.lto_priv.83>
 8002648:	2505      	movs	r5, #5
 800264a:	260b      	movs	r6, #11
 800264c:	427f      	negs	r7, r7
 800264e:	0039      	movs	r1, r7
 8002650:	a801      	add	r0, sp, #4
 8002652:	f7ff fc05 	bl	8001e60 <chMBFetch.constprop.16>
 8002656:	4241      	negs	r1, r0
 8002658:	4141      	adcs	r1, r0
 800265a:	0030      	movs	r0, r6
 800265c:	b2c9      	uxtb	r1, r1
 800265e:	f7fd ffbf 	bl	80005e0 <_test_assert>
 8002662:	2800      	cmp	r0, #0
 8002664:	d000      	beq.n	8002668 <mbox1_execute+0x1e8>
 8002666:	e72e      	b.n	80024c6 <mbox1_execute+0x46>
 8002668:	9b01      	ldr	r3, [sp, #4]
 800266a:	3d01      	subs	r5, #1
 800266c:	b2d8      	uxtb	r0, r3
 800266e:	f7ff fec7 	bl	8002400 <test_emit_token>
 8002672:	2d00      	cmp	r5, #0
 8002674:	d1eb      	bne.n	800264e <mbox1_execute+0x1ce>
 8002676:	4e74      	ldr	r6, [pc, #464]	; (8002848 <mbox1_execute+0x3c8>)
 8002678:	200c      	movs	r0, #12
 800267a:	0031      	movs	r1, r6
 800267c:	f7fd ff88 	bl	8000590 <_test_assert_sequence>
 8002680:	2800      	cmp	r0, #0
 8002682:	d000      	beq.n	8002686 <mbox1_execute+0x206>
 8002684:	e71f      	b.n	80024c6 <mbox1_execute+0x46>
 8002686:	2101      	movs	r1, #1
 8002688:	3047      	adds	r0, #71	; 0x47
 800268a:	4249      	negs	r1, r1
 800268c:	f7ff fb70 	bl	8001d70 <chMBPost.constprop.22>
 8002690:	4241      	negs	r1, r0
 8002692:	4141      	adcs	r1, r0
 8002694:	200d      	movs	r0, #13
 8002696:	b2c9      	uxtb	r1, r1
 8002698:	f7fd ffa2 	bl	80005e0 <_test_assert>
 800269c:	2800      	cmp	r0, #0
 800269e:	d000      	beq.n	80026a2 <mbox1_execute+0x222>
 80026a0:	e711      	b.n	80024c6 <mbox1_execute+0x46>
 80026a2:	2101      	movs	r1, #1
 80026a4:	a801      	add	r0, sp, #4
 80026a6:	4249      	negs	r1, r1
 80026a8:	f7ff fbda 	bl	8001e60 <chMBFetch.constprop.16>
 80026ac:	4241      	negs	r1, r0
 80026ae:	4141      	adcs	r1, r0
 80026b0:	200e      	movs	r0, #14
 80026b2:	b2c9      	uxtb	r1, r1
 80026b4:	f7fd ff94 	bl	80005e0 <_test_assert>
 80026b8:	2800      	cmp	r0, #0
 80026ba:	d000      	beq.n	80026be <mbox1_execute+0x23e>
 80026bc:	e703      	b.n	80024c6 <mbox1_execute+0x46>
 80026be:	6823      	ldr	r3, [r4, #0]
 80026c0:	68a2      	ldr	r2, [r4, #8]
 80026c2:	300f      	adds	r0, #15
 80026c4:	1a99      	subs	r1, r3, r2
 80026c6:	424b      	negs	r3, r1
 80026c8:	4159      	adcs	r1, r3
 80026ca:	b2c9      	uxtb	r1, r1
 80026cc:	f7fd ff88 	bl	80005e0 <_test_assert>
 80026d0:	2800      	cmp	r0, #0
 80026d2:	d000      	beq.n	80026d6 <mbox1_execute+0x256>
 80026d4:	e6f7      	b.n	80024c6 <mbox1_execute+0x46>
 80026d6:	6823      	ldr	r3, [r4, #0]
 80026d8:	68e2      	ldr	r2, [r4, #12]
 80026da:	3010      	adds	r0, #16
 80026dc:	1a99      	subs	r1, r3, r2
 80026de:	424b      	negs	r3, r1
 80026e0:	4159      	adcs	r1, r3
 80026e2:	b2c9      	uxtb	r1, r1
 80026e4:	f7fd ff7c 	bl	80005e0 <_test_assert>
 80026e8:	2800      	cmp	r0, #0
 80026ea:	d000      	beq.n	80026ee <mbox1_execute+0x26e>
 80026ec:	e6eb      	b.n	80024c6 <mbox1_execute+0x46>
 80026ee:	2101      	movs	r1, #1
 80026f0:	a801      	add	r0, sp, #4
 80026f2:	f7ff fbb5 	bl	8001e60 <chMBFetch.constprop.16>
 80026f6:	1c41      	adds	r1, r0, #1
 80026f8:	4248      	negs	r0, r1
 80026fa:	4141      	adcs	r1, r0
 80026fc:	2011      	movs	r0, #17
 80026fe:	b2c9      	uxtb	r1, r1
 8002700:	f7fd ff6e 	bl	80005e0 <_test_assert>
 8002704:	2800      	cmp	r0, #0
 8002706:	d000      	beq.n	800270a <mbox1_execute+0x28a>
 8002708:	e6dd      	b.n	80024c6 <mbox1_execute+0x46>
 800270a:	b672      	cpsid	i
 800270c:	f7ff f970 	bl	80019f0 <_dbg_check_lock>
 8002710:	a801      	add	r0, sp, #4
 8002712:	f7fe f9ed 	bl	8000af0 <chMBFetchI.constprop.15>
 8002716:	0005      	movs	r5, r0
 8002718:	3501      	adds	r5, #1
 800271a:	f7ff f931 	bl	8001980 <chSysUnlock.lto_priv.83>
 800271e:	4269      	negs	r1, r5
 8002720:	4169      	adcs	r1, r5
 8002722:	2012      	movs	r0, #18
 8002724:	b2c9      	uxtb	r1, r1
 8002726:	f7fd ff5b 	bl	80005e0 <_test_assert>
 800272a:	2800      	cmp	r0, #0
 800272c:	d000      	beq.n	8002730 <mbox1_execute+0x2b0>
 800272e:	e6ca      	b.n	80024c6 <mbox1_execute+0x46>
 8002730:	b672      	cpsid	i
 8002732:	f7ff f95d 	bl	80019f0 <_dbg_check_lock>
 8002736:	f7fe f813 	bl	8000760 <chDbgCheckClassI>
 800273a:	f7fe f811 	bl	8000760 <chDbgCheckClassI>
 800273e:	6a63      	ldr	r3, [r4, #36]	; 0x24
 8002740:	2013      	movs	r0, #19
 8002742:	1f59      	subs	r1, r3, #5
 8002744:	424b      	negs	r3, r1
 8002746:	4159      	adcs	r1, r3
 8002748:	b2c9      	uxtb	r1, r1
 800274a:	f7fd ff49 	bl	80005e0 <_test_assert>
 800274e:	2800      	cmp	r0, #0
 8002750:	d000      	beq.n	8002754 <mbox1_execute+0x2d4>
 8002752:	e1c9      	b.n	8002ae8 <mbox1_execute+0x668>
 8002754:	f7ff f914 	bl	8001980 <chSysUnlock.lto_priv.83>
 8002758:	b672      	cpsid	i
 800275a:	f7ff f949 	bl	80019f0 <_dbg_check_lock>
 800275e:	f7fd ffff 	bl	8000760 <chDbgCheckClassI>
 8002762:	f7fd fffd 	bl	8000760 <chDbgCheckClassI>
 8002766:	69a1      	ldr	r1, [r4, #24]
 8002768:	2014      	movs	r0, #20
 800276a:	424b      	negs	r3, r1
 800276c:	4159      	adcs	r1, r3
 800276e:	b2c9      	uxtb	r1, r1
 8002770:	f7fd ff36 	bl	80005e0 <_test_assert>
 8002774:	2800      	cmp	r0, #0
 8002776:	d000      	beq.n	800277a <mbox1_execute+0x2fa>
 8002778:	e1b6      	b.n	8002ae8 <mbox1_execute+0x668>
 800277a:	f7ff f901 	bl	8001980 <chSysUnlock.lto_priv.83>
 800277e:	b672      	cpsid	i
 8002780:	f7ff f936 	bl	80019f0 <_dbg_check_lock>
 8002784:	68e3      	ldr	r3, [r4, #12]
 8002786:	68a2      	ldr	r2, [r4, #8]
 8002788:	2015      	movs	r0, #21
 800278a:	1a99      	subs	r1, r3, r2
 800278c:	424b      	negs	r3, r1
 800278e:	4159      	adcs	r1, r3
 8002790:	b2c9      	uxtb	r1, r1
 8002792:	f7fd ff25 	bl	80005e0 <_test_assert>
 8002796:	2800      	cmp	r0, #0
 8002798:	d000      	beq.n	800279c <mbox1_execute+0x31c>
 800279a:	e1a5      	b.n	8002ae8 <mbox1_execute+0x668>
 800279c:	f7ff f8f0 	bl	8001980 <chSysUnlock.lto_priv.83>
 80027a0:	b672      	cpsid	i
 80027a2:	f7ff f925 	bl	80019f0 <_dbg_check_lock>
 80027a6:	2041      	movs	r0, #65	; 0x41
 80027a8:	f7fe fbea 	bl	8000f80 <chMBPostI.constprop.21>
 80027ac:	4241      	negs	r1, r0
 80027ae:	4141      	adcs	r1, r0
 80027b0:	2016      	movs	r0, #22
 80027b2:	b2c9      	uxtb	r1, r1
 80027b4:	f7fd ff14 	bl	80005e0 <_test_assert>
 80027b8:	2800      	cmp	r0, #0
 80027ba:	d000      	beq.n	80027be <mbox1_execute+0x33e>
 80027bc:	e683      	b.n	80024c6 <mbox1_execute+0x46>
 80027be:	3042      	adds	r0, #66	; 0x42
 80027c0:	f7fe fbde 	bl	8000f80 <chMBPostI.constprop.21>
 80027c4:	4241      	negs	r1, r0
 80027c6:	4141      	adcs	r1, r0
 80027c8:	2017      	movs	r0, #23
 80027ca:	b2c9      	uxtb	r1, r1
 80027cc:	f7fd ff08 	bl	80005e0 <_test_assert>
 80027d0:	2800      	cmp	r0, #0
 80027d2:	d000      	beq.n	80027d6 <mbox1_execute+0x356>
 80027d4:	e677      	b.n	80024c6 <mbox1_execute+0x46>
 80027d6:	3043      	adds	r0, #67	; 0x43
 80027d8:	f7fe fbd2 	bl	8000f80 <chMBPostI.constprop.21>
 80027dc:	4241      	negs	r1, r0
 80027de:	4141      	adcs	r1, r0
 80027e0:	2018      	movs	r0, #24
 80027e2:	b2c9      	uxtb	r1, r1
 80027e4:	f7fd fefc 	bl	80005e0 <_test_assert>
 80027e8:	2800      	cmp	r0, #0
 80027ea:	d000      	beq.n	80027ee <mbox1_execute+0x36e>
 80027ec:	e66b      	b.n	80024c6 <mbox1_execute+0x46>
 80027ee:	3044      	adds	r0, #68	; 0x44
 80027f0:	f7fe fbc6 	bl	8000f80 <chMBPostI.constprop.21>
 80027f4:	4241      	negs	r1, r0
 80027f6:	4141      	adcs	r1, r0
 80027f8:	2019      	movs	r0, #25
 80027fa:	b2c9      	uxtb	r1, r1
 80027fc:	f7fd fef0 	bl	80005e0 <_test_assert>
 8002800:	2800      	cmp	r0, #0
 8002802:	d000      	beq.n	8002806 <mbox1_execute+0x386>
 8002804:	e65f      	b.n	80024c6 <mbox1_execute+0x46>
 8002806:	3045      	adds	r0, #69	; 0x45
 8002808:	f7fe fbba 	bl	8000f80 <chMBPostI.constprop.21>
 800280c:	0005      	movs	r5, r0
 800280e:	f7ff f8b7 	bl	8001980 <chSysUnlock.lto_priv.83>
 8002812:	4269      	negs	r1, r5
 8002814:	4169      	adcs	r1, r5
 8002816:	201a      	movs	r0, #26
 8002818:	b2c9      	uxtb	r1, r1
 800281a:	f7fd fee1 	bl	80005e0 <_test_assert>
 800281e:	2800      	cmp	r0, #0
 8002820:	d000      	beq.n	8002824 <mbox1_execute+0x3a4>
 8002822:	e650      	b.n	80024c6 <mbox1_execute+0x46>
 8002824:	68e3      	ldr	r3, [r4, #12]
 8002826:	68a2      	ldr	r2, [r4, #8]
 8002828:	301b      	adds	r0, #27
 800282a:	1a99      	subs	r1, r3, r2
 800282c:	424b      	negs	r3, r1
 800282e:	4159      	adcs	r1, r3
 8002830:	b2c9      	uxtb	r1, r1
 8002832:	f7fd fed5 	bl	80005e0 <_test_assert>
 8002836:	2800      	cmp	r0, #0
 8002838:	d000      	beq.n	800283c <mbox1_execute+0x3bc>
 800283a:	e644      	b.n	80024c6 <mbox1_execute+0x46>
 800283c:	231c      	movs	r3, #28
 800283e:	2705      	movs	r7, #5
 8002840:	4698      	mov	r8, r3
 8002842:	e003      	b.n	800284c <mbox1_execute+0x3cc>
 8002844:	20000738 	.word	0x20000738
 8002848:	08008190 	.word	0x08008190
 800284c:	b672      	cpsid	i
 800284e:	f7ff f8cf 	bl	80019f0 <_dbg_check_lock>
 8002852:	a801      	add	r0, sp, #4
 8002854:	f7fe f94c 	bl	8000af0 <chMBFetchI.constprop.15>
 8002858:	0005      	movs	r5, r0
 800285a:	f7ff f891 	bl	8001980 <chSysUnlock.lto_priv.83>
 800285e:	4269      	negs	r1, r5
 8002860:	4169      	adcs	r1, r5
 8002862:	4640      	mov	r0, r8
 8002864:	b2c9      	uxtb	r1, r1
 8002866:	f7fd febb 	bl	80005e0 <_test_assert>
 800286a:	2800      	cmp	r0, #0
 800286c:	d000      	beq.n	8002870 <mbox1_execute+0x3f0>
 800286e:	e62a      	b.n	80024c6 <mbox1_execute+0x46>
 8002870:	9b01      	ldr	r3, [sp, #4]
 8002872:	3f01      	subs	r7, #1
 8002874:	b2d8      	uxtb	r0, r3
 8002876:	f7ff fdc3 	bl	8002400 <test_emit_token>
 800287a:	2f00      	cmp	r7, #0
 800287c:	d1e6      	bne.n	800284c <mbox1_execute+0x3cc>
 800287e:	0031      	movs	r1, r6
 8002880:	201d      	movs	r0, #29
 8002882:	f7fd fe85 	bl	8000590 <_test_assert_sequence>
 8002886:	2800      	cmp	r0, #0
 8002888:	d000      	beq.n	800288c <mbox1_execute+0x40c>
 800288a:	e61c      	b.n	80024c6 <mbox1_execute+0x46>
 800288c:	b672      	cpsid	i
 800288e:	f7ff f8af 	bl	80019f0 <_dbg_check_lock>
 8002892:	f7fd ff65 	bl	8000760 <chDbgCheckClassI>
 8002896:	f7fd ff63 	bl	8000760 <chDbgCheckClassI>
 800289a:	6a63      	ldr	r3, [r4, #36]	; 0x24
 800289c:	201e      	movs	r0, #30
 800289e:	1f59      	subs	r1, r3, #5
 80028a0:	424b      	negs	r3, r1
 80028a2:	4159      	adcs	r1, r3
 80028a4:	b2c9      	uxtb	r1, r1
 80028a6:	f7fd fe9b 	bl	80005e0 <_test_assert>
 80028aa:	2800      	cmp	r0, #0
 80028ac:	d000      	beq.n	80028b0 <mbox1_execute+0x430>
 80028ae:	e11b      	b.n	8002ae8 <mbox1_execute+0x668>
 80028b0:	f7ff f866 	bl	8001980 <chSysUnlock.lto_priv.83>
 80028b4:	b672      	cpsid	i
 80028b6:	f7ff f89b 	bl	80019f0 <_dbg_check_lock>
 80028ba:	f7fd ff51 	bl	8000760 <chDbgCheckClassI>
 80028be:	f7fd ff4f 	bl	8000760 <chDbgCheckClassI>
 80028c2:	69a1      	ldr	r1, [r4, #24]
 80028c4:	201f      	movs	r0, #31
 80028c6:	424b      	negs	r3, r1
 80028c8:	4159      	adcs	r1, r3
 80028ca:	b2c9      	uxtb	r1, r1
 80028cc:	f7fd fe88 	bl	80005e0 <_test_assert>
 80028d0:	2800      	cmp	r0, #0
 80028d2:	d000      	beq.n	80028d6 <mbox1_execute+0x456>
 80028d4:	e108      	b.n	8002ae8 <mbox1_execute+0x668>
 80028d6:	f7ff f853 	bl	8001980 <chSysUnlock.lto_priv.83>
 80028da:	68e3      	ldr	r3, [r4, #12]
 80028dc:	68a2      	ldr	r2, [r4, #8]
 80028de:	2020      	movs	r0, #32
 80028e0:	1a99      	subs	r1, r3, r2
 80028e2:	424b      	negs	r3, r1
 80028e4:	4159      	adcs	r1, r3
 80028e6:	b2c9      	uxtb	r1, r1
 80028e8:	f7fd fe7a 	bl	80005e0 <_test_assert>
 80028ec:	2800      	cmp	r0, #0
 80028ee:	d000      	beq.n	80028f2 <mbox1_execute+0x472>
 80028f0:	e5e9      	b.n	80024c6 <mbox1_execute+0x46>
 80028f2:	b672      	cpsid	i
 80028f4:	f7ff f87c 	bl	80019f0 <_dbg_check_lock>
 80028f8:	2045      	movs	r0, #69	; 0x45
 80028fa:	f7fe fb69 	bl	8000fd0 <chMBPostAheadI.constprop.18>
 80028fe:	4241      	negs	r1, r0
 8002900:	4141      	adcs	r1, r0
 8002902:	2021      	movs	r0, #33	; 0x21
 8002904:	b2c9      	uxtb	r1, r1
 8002906:	f7fd fe6b 	bl	80005e0 <_test_assert>
 800290a:	2800      	cmp	r0, #0
 800290c:	d000      	beq.n	8002910 <mbox1_execute+0x490>
 800290e:	e5da      	b.n	80024c6 <mbox1_execute+0x46>
 8002910:	3044      	adds	r0, #68	; 0x44
 8002912:	f7fe fb5d 	bl	8000fd0 <chMBPostAheadI.constprop.18>
 8002916:	4241      	negs	r1, r0
 8002918:	4141      	adcs	r1, r0
 800291a:	2022      	movs	r0, #34	; 0x22
 800291c:	b2c9      	uxtb	r1, r1
 800291e:	f7fd fe5f 	bl	80005e0 <_test_assert>
 8002922:	2800      	cmp	r0, #0
 8002924:	d000      	beq.n	8002928 <mbox1_execute+0x4a8>
 8002926:	e5ce      	b.n	80024c6 <mbox1_execute+0x46>
 8002928:	3043      	adds	r0, #67	; 0x43
 800292a:	f7fe fb51 	bl	8000fd0 <chMBPostAheadI.constprop.18>
 800292e:	4241      	negs	r1, r0
 8002930:	4141      	adcs	r1, r0
 8002932:	2023      	movs	r0, #35	; 0x23
 8002934:	b2c9      	uxtb	r1, r1
 8002936:	f7fd fe53 	bl	80005e0 <_test_assert>
 800293a:	2800      	cmp	r0, #0
 800293c:	d000      	beq.n	8002940 <mbox1_execute+0x4c0>
 800293e:	e5c2      	b.n	80024c6 <mbox1_execute+0x46>
 8002940:	3042      	adds	r0, #66	; 0x42
 8002942:	f7fe fb45 	bl	8000fd0 <chMBPostAheadI.constprop.18>
 8002946:	4241      	negs	r1, r0
 8002948:	4141      	adcs	r1, r0
 800294a:	2024      	movs	r0, #36	; 0x24
 800294c:	b2c9      	uxtb	r1, r1
 800294e:	f7fd fe47 	bl	80005e0 <_test_assert>
 8002952:	2800      	cmp	r0, #0
 8002954:	d000      	beq.n	8002958 <mbox1_execute+0x4d8>
 8002956:	e5b6      	b.n	80024c6 <mbox1_execute+0x46>
 8002958:	3041      	adds	r0, #65	; 0x41
 800295a:	f7fe fb39 	bl	8000fd0 <chMBPostAheadI.constprop.18>
 800295e:	0005      	movs	r5, r0
 8002960:	f7ff f80e 	bl	8001980 <chSysUnlock.lto_priv.83>
 8002964:	4269      	negs	r1, r5
 8002966:	4169      	adcs	r1, r5
 8002968:	2025      	movs	r0, #37	; 0x25
 800296a:	b2c9      	uxtb	r1, r1
 800296c:	f7fd fe38 	bl	80005e0 <_test_assert>
 8002970:	2800      	cmp	r0, #0
 8002972:	d000      	beq.n	8002976 <mbox1_execute+0x4f6>
 8002974:	e5a7      	b.n	80024c6 <mbox1_execute+0x46>
 8002976:	68e3      	ldr	r3, [r4, #12]
 8002978:	68a2      	ldr	r2, [r4, #8]
 800297a:	3026      	adds	r0, #38	; 0x26
 800297c:	1a99      	subs	r1, r3, r2
 800297e:	424b      	negs	r3, r1
 8002980:	4159      	adcs	r1, r3
 8002982:	b2c9      	uxtb	r1, r1
 8002984:	f7fd fe2c 	bl	80005e0 <_test_assert>
 8002988:	2800      	cmp	r0, #0
 800298a:	d000      	beq.n	800298e <mbox1_execute+0x50e>
 800298c:	e59b      	b.n	80024c6 <mbox1_execute+0x46>
 800298e:	2327      	movs	r3, #39	; 0x27
 8002990:	2505      	movs	r5, #5
 8002992:	4698      	mov	r8, r3
 8002994:	b672      	cpsid	i
 8002996:	f7ff f82b 	bl	80019f0 <_dbg_check_lock>
 800299a:	a801      	add	r0, sp, #4
 800299c:	f7fe f8a8 	bl	8000af0 <chMBFetchI.constprop.15>
 80029a0:	0007      	movs	r7, r0
 80029a2:	f7fe ffed 	bl	8001980 <chSysUnlock.lto_priv.83>
 80029a6:	4279      	negs	r1, r7
 80029a8:	4179      	adcs	r1, r7
 80029aa:	4640      	mov	r0, r8
 80029ac:	b2c9      	uxtb	r1, r1
 80029ae:	f7fd fe17 	bl	80005e0 <_test_assert>
 80029b2:	2800      	cmp	r0, #0
 80029b4:	d000      	beq.n	80029b8 <mbox1_execute+0x538>
 80029b6:	e586      	b.n	80024c6 <mbox1_execute+0x46>
 80029b8:	9b01      	ldr	r3, [sp, #4]
 80029ba:	3d01      	subs	r5, #1
 80029bc:	b2d8      	uxtb	r0, r3
 80029be:	f7ff fd1f 	bl	8002400 <test_emit_token>
 80029c2:	2d00      	cmp	r5, #0
 80029c4:	d1e6      	bne.n	8002994 <mbox1_execute+0x514>
 80029c6:	0031      	movs	r1, r6
 80029c8:	2028      	movs	r0, #40	; 0x28
 80029ca:	f7fd fde1 	bl	8000590 <_test_assert_sequence>
 80029ce:	2800      	cmp	r0, #0
 80029d0:	d000      	beq.n	80029d4 <mbox1_execute+0x554>
 80029d2:	e578      	b.n	80024c6 <mbox1_execute+0x46>
 80029d4:	b672      	cpsid	i
 80029d6:	f7ff f80b 	bl	80019f0 <_dbg_check_lock>
 80029da:	f7fd fec1 	bl	8000760 <chDbgCheckClassI>
 80029de:	f7fd febf 	bl	8000760 <chDbgCheckClassI>
 80029e2:	6a63      	ldr	r3, [r4, #36]	; 0x24
 80029e4:	2029      	movs	r0, #41	; 0x29
 80029e6:	1f59      	subs	r1, r3, #5
 80029e8:	424b      	negs	r3, r1
 80029ea:	4159      	adcs	r1, r3
 80029ec:	b2c9      	uxtb	r1, r1
 80029ee:	f7fd fdf7 	bl	80005e0 <_test_assert>
 80029f2:	2800      	cmp	r0, #0
 80029f4:	d178      	bne.n	8002ae8 <mbox1_execute+0x668>
 80029f6:	f7fe ffc3 	bl	8001980 <chSysUnlock.lto_priv.83>
 80029fa:	b672      	cpsid	i
 80029fc:	f7fe fff8 	bl	80019f0 <_dbg_check_lock>
 8002a00:	f7fd feae 	bl	8000760 <chDbgCheckClassI>
 8002a04:	f7fd feac 	bl	8000760 <chDbgCheckClassI>
 8002a08:	69a1      	ldr	r1, [r4, #24]
 8002a0a:	202a      	movs	r0, #42	; 0x2a
 8002a0c:	424b      	negs	r3, r1
 8002a0e:	4159      	adcs	r1, r3
 8002a10:	b2c9      	uxtb	r1, r1
 8002a12:	f7fd fde5 	bl	80005e0 <_test_assert>
 8002a16:	2800      	cmp	r0, #0
 8002a18:	d166      	bne.n	8002ae8 <mbox1_execute+0x668>
 8002a1a:	f7fe ffb1 	bl	8001980 <chSysUnlock.lto_priv.83>
 8002a1e:	68e3      	ldr	r3, [r4, #12]
 8002a20:	68a2      	ldr	r2, [r4, #8]
 8002a22:	202b      	movs	r0, #43	; 0x2b
 8002a24:	1a99      	subs	r1, r3, r2
 8002a26:	424b      	negs	r3, r1
 8002a28:	4159      	adcs	r1, r3
 8002a2a:	b2c9      	uxtb	r1, r1
 8002a2c:	f7fd fdd8 	bl	80005e0 <_test_assert>
 8002a30:	2800      	cmp	r0, #0
 8002a32:	d000      	beq.n	8002a36 <mbox1_execute+0x5b6>
 8002a34:	e547      	b.n	80024c6 <mbox1_execute+0x46>
 8002a36:	b672      	cpsid	i
 8002a38:	f7fe ffda 	bl	80019f0 <_dbg_check_lock>
 8002a3c:	f7fd fe90 	bl	8000760 <chDbgCheckClassI>
 8002a40:	0020      	movs	r0, r4
 8002a42:	6863      	ldr	r3, [r4, #4]
 8002a44:	6821      	ldr	r1, [r4, #0]
 8002a46:	301c      	adds	r0, #28
 8002a48:	60a1      	str	r1, [r4, #8]
 8002a4a:	60e1      	str	r1, [r4, #12]
 8002a4c:	1a59      	subs	r1, r3, r1
 8002a4e:	1089      	asrs	r1, r1, #2
 8002a50:	f7fe f876 	bl	8000b40 <chSemResetI>
 8002a54:	0020      	movs	r0, r4
 8002a56:	0029      	movs	r1, r5
 8002a58:	3010      	adds	r0, #16
 8002a5a:	f7fe f871 	bl	8000b40 <chSemResetI>
 8002a5e:	f7fe fd4f 	bl	8001500 <chSchRescheduleS>
 8002a62:	f7fe ff45 	bl	80018f0 <chSysUnlock.lto_priv.74>
 8002a66:	b672      	cpsid	i
 8002a68:	f7fe ffc2 	bl	80019f0 <_dbg_check_lock>
 8002a6c:	f7fd fe78 	bl	8000760 <chDbgCheckClassI>
 8002a70:	f7fd fe76 	bl	8000760 <chDbgCheckClassI>
 8002a74:	6a63      	ldr	r3, [r4, #36]	; 0x24
 8002a76:	202c      	movs	r0, #44	; 0x2c
 8002a78:	1f59      	subs	r1, r3, #5
 8002a7a:	424b      	negs	r3, r1
 8002a7c:	4159      	adcs	r1, r3
 8002a7e:	b2c9      	uxtb	r1, r1
 8002a80:	f7fd fdae 	bl	80005e0 <_test_assert>
 8002a84:	2800      	cmp	r0, #0
 8002a86:	d12f      	bne.n	8002ae8 <mbox1_execute+0x668>
 8002a88:	f7fe ff7a 	bl	8001980 <chSysUnlock.lto_priv.83>
 8002a8c:	b672      	cpsid	i
 8002a8e:	f7fe ffaf 	bl	80019f0 <_dbg_check_lock>
 8002a92:	f7fd fe65 	bl	8000760 <chDbgCheckClassI>
 8002a96:	f7fd fe63 	bl	8000760 <chDbgCheckClassI>
 8002a9a:	69a1      	ldr	r1, [r4, #24]
 8002a9c:	202d      	movs	r0, #45	; 0x2d
 8002a9e:	424b      	negs	r3, r1
 8002aa0:	4159      	adcs	r1, r3
 8002aa2:	b2c9      	uxtb	r1, r1
 8002aa4:	f7fd fd9c 	bl	80005e0 <_test_assert>
 8002aa8:	2800      	cmp	r0, #0
 8002aaa:	d11d      	bne.n	8002ae8 <mbox1_execute+0x668>
 8002aac:	f7fe ff68 	bl	8001980 <chSysUnlock.lto_priv.83>
 8002ab0:	b672      	cpsid	i
 8002ab2:	f7fe ff9d 	bl	80019f0 <_dbg_check_lock>
 8002ab6:	6823      	ldr	r3, [r4, #0]
 8002ab8:	68a2      	ldr	r2, [r4, #8]
 8002aba:	202e      	movs	r0, #46	; 0x2e
 8002abc:	1a99      	subs	r1, r3, r2
 8002abe:	424b      	negs	r3, r1
 8002ac0:	4159      	adcs	r1, r3
 8002ac2:	b2c9      	uxtb	r1, r1
 8002ac4:	f7fd fd8c 	bl	80005e0 <_test_assert>
 8002ac8:	2800      	cmp	r0, #0
 8002aca:	d10d      	bne.n	8002ae8 <mbox1_execute+0x668>
 8002acc:	f7fe ff58 	bl	8001980 <chSysUnlock.lto_priv.83>
 8002ad0:	b672      	cpsid	i
 8002ad2:	f7fe ff8d 	bl	80019f0 <_dbg_check_lock>
 8002ad6:	68e3      	ldr	r3, [r4, #12]
 8002ad8:	6821      	ldr	r1, [r4, #0]
 8002ada:	202f      	movs	r0, #47	; 0x2f
 8002adc:	1ac9      	subs	r1, r1, r3
 8002ade:	424b      	negs	r3, r1
 8002ae0:	4159      	adcs	r1, r3
 8002ae2:	b2c9      	uxtb	r1, r1
 8002ae4:	f7fd fd7c 	bl	80005e0 <_test_assert>
 8002ae8:	f7fe ff4a 	bl	8001980 <chSysUnlock.lto_priv.83>
 8002aec:	e4eb      	b.n	80024c6 <mbox1_execute+0x46>
 8002aee:	b672      	cpsid	i
 8002af0:	4b07      	ldr	r3, [pc, #28]	; (8002b10 <mbox1_execute+0x690>)
 8002af2:	62eb      	str	r3, [r5, #44]	; 0x2c
 8002af4:	e7fe      	b.n	8002af4 <mbox1_execute+0x674>
 8002af6:	b672      	cpsid	i
 8002af8:	4a05      	ldr	r2, [pc, #20]	; (8002b10 <mbox1_execute+0x690>)
 8002afa:	62da      	str	r2, [r3, #44]	; 0x2c
 8002afc:	e7fe      	b.n	8002afc <mbox1_execute+0x67c>
 8002afe:	b672      	cpsid	i
 8002b00:	4b03      	ldr	r3, [pc, #12]	; (8002b10 <mbox1_execute+0x690>)
 8002b02:	62eb      	str	r3, [r5, #44]	; 0x2c
 8002b04:	e7fe      	b.n	8002b04 <mbox1_execute+0x684>
 8002b06:	b672      	cpsid	i
 8002b08:	4b01      	ldr	r3, [pc, #4]	; (8002b10 <mbox1_execute+0x690>)
 8002b0a:	62eb      	str	r3, [r5, #44]	; 0x2c
 8002b0c:	e7fe      	b.n	8002b0c <mbox1_execute+0x68c>
 8002b0e:	46c0      	nop			; (mov r8, r8)
 8002b10:	08007910 	.word	0x08007910
	...

08002b20 <thread.lto_priv.62>:
 8002b20:	b510      	push	{r4, lr}
 8002b22:	7800      	ldrb	r0, [r0, #0]
 8002b24:	f7ff fc6c 	bl	8002400 <test_emit_token>
 8002b28:	bd10      	pop	{r4, pc}
 8002b2a:	46c0      	nop			; (mov r8, r8)
 8002b2c:	0000      	movs	r0, r0
	...

08002b30 <thread.lto_priv.64>:
 8002b30:	b510      	push	{r4, lr}
 8002b32:	f7ff fff5 	bl	8002b20 <thread.lto_priv.62>
 8002b36:	bd10      	pop	{r4, pc}
	...

08002b40 <chPoolAlloc>:
 8002b40:	b570      	push	{r4, r5, r6, lr}
 8002b42:	0005      	movs	r5, r0
 8002b44:	b672      	cpsid	i
 8002b46:	f7fe ff53 	bl	80019f0 <_dbg_check_lock>
 8002b4a:	f7fd fe09 	bl	8000760 <chDbgCheckClassI>
 8002b4e:	682c      	ldr	r4, [r5, #0]
 8002b50:	2c00      	cmp	r4, #0
 8002b52:	d00f      	beq.n	8002b74 <chPoolAlloc+0x34>
 8002b54:	6823      	ldr	r3, [r4, #0]
 8002b56:	602b      	str	r3, [r5, #0]
 8002b58:	f7fe fe9a 	bl	8001890 <_dbg_check_unlock>
 8002b5c:	4b0b      	ldr	r3, [pc, #44]	; (8002b8c <chPoolAlloc+0x4c>)
 8002b5e:	681a      	ldr	r2, [r3, #0]
 8002b60:	429a      	cmp	r2, r3
 8002b62:	d004      	beq.n	8002b6e <chPoolAlloc+0x2e>
 8002b64:	6999      	ldr	r1, [r3, #24]
 8002b66:	6892      	ldr	r2, [r2, #8]
 8002b68:	6889      	ldr	r1, [r1, #8]
 8002b6a:	4291      	cmp	r1, r2
 8002b6c:	d309      	bcc.n	8002b82 <chPoolAlloc+0x42>
 8002b6e:	b662      	cpsie	i
 8002b70:	0020      	movs	r0, r4
 8002b72:	bd70      	pop	{r4, r5, r6, pc}
 8002b74:	68ab      	ldr	r3, [r5, #8]
 8002b76:	2b00      	cmp	r3, #0
 8002b78:	d0ee      	beq.n	8002b58 <chPoolAlloc+0x18>
 8002b7a:	6868      	ldr	r0, [r5, #4]
 8002b7c:	4798      	blx	r3
 8002b7e:	0004      	movs	r4, r0
 8002b80:	e7ea      	b.n	8002b58 <chPoolAlloc+0x18>
 8002b82:	b672      	cpsid	i
 8002b84:	4a02      	ldr	r2, [pc, #8]	; (8002b90 <chPoolAlloc+0x50>)
 8002b86:	62da      	str	r2, [r3, #44]	; 0x2c
 8002b88:	e7fe      	b.n	8002b88 <chPoolAlloc+0x48>
 8002b8a:	46c0      	nop			; (mov r8, r8)
 8002b8c:	20000738 	.word	0x20000738
 8002b90:	080078b0 	.word	0x080078b0
	...

08002ba0 <chThdCreateFromMemoryPool.constprop.57>:
 8002ba0:	b5f0      	push	{r4, r5, r6, r7, lr}
 8002ba2:	4d20      	ldr	r5, [pc, #128]	; (8002c24 <chThdCreateFromMemoryPool.constprop.57+0x84>)
 8002ba4:	b083      	sub	sp, #12
 8002ba6:	0006      	movs	r6, r0
 8002ba8:	0028      	movs	r0, r5
 8002baa:	000f      	movs	r7, r1
 8002bac:	f7ff ffc8 	bl	8002b40 <chPoolAlloc>
 8002bb0:	1e04      	subs	r4, r0, #0
 8002bb2:	d035      	beq.n	8002c20 <chThdCreateFromMemoryPool.constprop.57+0x80>
 8002bb4:	0003      	movs	r3, r0
 8002bb6:	0002      	movs	r2, r0
 8002bb8:	21ff      	movs	r1, #255	; 0xff
 8002bba:	3348      	adds	r3, #72	; 0x48
 8002bbc:	7011      	strb	r1, [r2, #0]
 8002bbe:	3201      	adds	r2, #1
 8002bc0:	4293      	cmp	r3, r2
 8002bc2:	d1fb      	bne.n	8002bbc <chThdCreateFromMemoryPool.constprop.57+0x1c>
 8002bc4:	686a      	ldr	r2, [r5, #4]
 8002bc6:	18a2      	adds	r2, r4, r2
 8002bc8:	4293      	cmp	r3, r2
 8002bca:	d204      	bcs.n	8002bd6 <chThdCreateFromMemoryPool.constprop.57+0x36>
 8002bcc:	2155      	movs	r1, #85	; 0x55
 8002bce:	7019      	strb	r1, [r3, #0]
 8002bd0:	3301      	adds	r3, #1
 8002bd2:	429a      	cmp	r2, r3
 8002bd4:	d1fb      	bne.n	8002bce <chThdCreateFromMemoryPool.constprop.57+0x2e>
 8002bd6:	b672      	cpsid	i
 8002bd8:	f7fe ff0a 	bl	80019f0 <_dbg_check_lock>
 8002bdc:	9700      	str	r7, [sp, #0]
 8002bde:	4b12      	ldr	r3, [pc, #72]	; (8002c28 <chThdCreateFromMemoryPool.constprop.57+0x88>)
 8002be0:	0032      	movs	r2, r6
 8002be2:	6869      	ldr	r1, [r5, #4]
 8002be4:	0020      	movs	r0, r4
 8002be6:	f7fd fdcb 	bl	8000780 <chThdCreateI>
 8002bea:	2321      	movs	r3, #33	; 0x21
 8002bec:	2202      	movs	r2, #2
 8002bee:	2100      	movs	r1, #0
 8002bf0:	54c2      	strb	r2, [r0, r3]
 8002bf2:	6445      	str	r5, [r0, #68]	; 0x44
 8002bf4:	0004      	movs	r4, r0
 8002bf6:	f7fe fc9b 	bl	8001530 <chSchWakeupS>
 8002bfa:	f7fe fe49 	bl	8001890 <_dbg_check_unlock>
 8002bfe:	4b0b      	ldr	r3, [pc, #44]	; (8002c2c <chThdCreateFromMemoryPool.constprop.57+0x8c>)
 8002c00:	681a      	ldr	r2, [r3, #0]
 8002c02:	429a      	cmp	r2, r3
 8002c04:	d004      	beq.n	8002c10 <chThdCreateFromMemoryPool.constprop.57+0x70>
 8002c06:	6999      	ldr	r1, [r3, #24]
 8002c08:	6892      	ldr	r2, [r2, #8]
 8002c0a:	6889      	ldr	r1, [r1, #8]
 8002c0c:	4291      	cmp	r1, r2
 8002c0e:	d303      	bcc.n	8002c18 <chThdCreateFromMemoryPool.constprop.57+0x78>
 8002c10:	b662      	cpsie	i
 8002c12:	0020      	movs	r0, r4
 8002c14:	b003      	add	sp, #12
 8002c16:	bdf0      	pop	{r4, r5, r6, r7, pc}
 8002c18:	b672      	cpsid	i
 8002c1a:	4a05      	ldr	r2, [pc, #20]	; (8002c30 <chThdCreateFromMemoryPool.constprop.57+0x90>)
 8002c1c:	62da      	str	r2, [r3, #44]	; 0x2c
 8002c1e:	e7fe      	b.n	8002c1e <chThdCreateFromMemoryPool.constprop.57+0x7e>
 8002c20:	2400      	movs	r4, #0
 8002c22:	e7f6      	b.n	8002c12 <chThdCreateFromMemoryPool.constprop.57+0x72>
 8002c24:	20000d28 	.word	0x20000d28
 8002c28:	08002b31 	.word	0x08002b31
 8002c2c:	20000738 	.word	0x20000738
 8002c30:	08007980 	.word	0x08007980
	...

08002c40 <pools1_execute>:
 8002c40:	b5f0      	push	{r4, r5, r6, r7, lr}
 8002c42:	46c6      	mov	lr, r8
 8002c44:	2705      	movs	r7, #5
 8002c46:	b500      	push	{lr}
 8002c48:	4c49      	ldr	r4, [pc, #292]	; (8002d70 <pools1_execute+0x130>)
 8002c4a:	4e4a      	ldr	r6, [pc, #296]	; (8002d74 <pools1_execute+0x134>)
 8002c4c:	4d4a      	ldr	r5, [pc, #296]	; (8002d78 <pools1_execute+0x138>)
 8002c4e:	b672      	cpsid	i
 8002c50:	f7fe fece 	bl	80019f0 <_dbg_check_lock>
 8002c54:	f7fd fd84 	bl	8000760 <chDbgCheckClassI>
 8002c58:	2c00      	cmp	r4, #0
 8002c5a:	d100      	bne.n	8002c5e <pools1_execute+0x1e>
 8002c5c:	e078      	b.n	8002d50 <pools1_execute+0x110>
 8002c5e:	682b      	ldr	r3, [r5, #0]
 8002c60:	602c      	str	r4, [r5, #0]
 8002c62:	6023      	str	r3, [r4, #0]
 8002c64:	f7fe fe14 	bl	8001890 <_dbg_check_unlock>
 8002c68:	6833      	ldr	r3, [r6, #0]
 8002c6a:	42b3      	cmp	r3, r6
 8002c6c:	d005      	beq.n	8002c7a <pools1_execute+0x3a>
 8002c6e:	69b2      	ldr	r2, [r6, #24]
 8002c70:	689b      	ldr	r3, [r3, #8]
 8002c72:	6892      	ldr	r2, [r2, #8]
 8002c74:	429a      	cmp	r2, r3
 8002c76:	d200      	bcs.n	8002c7a <pools1_execute+0x3a>
 8002c78:	e06e      	b.n	8002d58 <pools1_execute+0x118>
 8002c7a:	b662      	cpsie	i
 8002c7c:	686b      	ldr	r3, [r5, #4]
 8002c7e:	3f01      	subs	r7, #1
 8002c80:	469c      	mov	ip, r3
 8002c82:	4464      	add	r4, ip
 8002c84:	2f00      	cmp	r7, #0
 8002c86:	d1e2      	bne.n	8002c4e <pools1_execute+0xe>
 8002c88:	2405      	movs	r4, #5
 8002c8a:	0028      	movs	r0, r5
 8002c8c:	f7ff ff58 	bl	8002b40 <chPoolAlloc>
 8002c90:	0001      	movs	r1, r0
 8002c92:	1e48      	subs	r0, r1, #1
 8002c94:	4181      	sbcs	r1, r0
 8002c96:	2001      	movs	r0, #1
 8002c98:	b2c9      	uxtb	r1, r1
 8002c9a:	f7fd fca1 	bl	80005e0 <_test_assert>
 8002c9e:	2800      	cmp	r0, #0
 8002ca0:	d153      	bne.n	8002d4a <pools1_execute+0x10a>
 8002ca2:	3c01      	subs	r4, #1
 8002ca4:	2c00      	cmp	r4, #0
 8002ca6:	d1f0      	bne.n	8002c8a <pools1_execute+0x4a>
 8002ca8:	0028      	movs	r0, r5
 8002caa:	f7ff ff49 	bl	8002b40 <chPoolAlloc>
 8002cae:	4241      	negs	r1, r0
 8002cb0:	4141      	adcs	r1, r0
 8002cb2:	2002      	movs	r0, #2
 8002cb4:	b2c9      	uxtb	r1, r1
 8002cb6:	f7fd fc93 	bl	80005e0 <_test_assert>
 8002cba:	2800      	cmp	r0, #0
 8002cbc:	d145      	bne.n	8002d4a <pools1_execute+0x10a>
 8002cbe:	4b2f      	ldr	r3, [pc, #188]	; (8002d7c <pools1_execute+0x13c>)
 8002cc0:	4698      	mov	r8, r3
 8002cc2:	4642      	mov	r2, r8
 8002cc4:	00a3      	lsls	r3, r4, #2
 8002cc6:	58d7      	ldr	r7, [r2, r3]
 8002cc8:	b672      	cpsid	i
 8002cca:	f7fe fe91 	bl	80019f0 <_dbg_check_lock>
 8002cce:	f7fd fd47 	bl	8000760 <chDbgCheckClassI>
 8002cd2:	2f00      	cmp	r7, #0
 8002cd4:	d044      	beq.n	8002d60 <pools1_execute+0x120>
 8002cd6:	682b      	ldr	r3, [r5, #0]
 8002cd8:	603b      	str	r3, [r7, #0]
 8002cda:	602f      	str	r7, [r5, #0]
 8002cdc:	f7fe fdd8 	bl	8001890 <_dbg_check_unlock>
 8002ce0:	6833      	ldr	r3, [r6, #0]
 8002ce2:	42b3      	cmp	r3, r6
 8002ce4:	d004      	beq.n	8002cf0 <pools1_execute+0xb0>
 8002ce6:	69b2      	ldr	r2, [r6, #24]
 8002ce8:	689b      	ldr	r3, [r3, #8]
 8002cea:	6892      	ldr	r2, [r2, #8]
 8002cec:	429a      	cmp	r2, r3
 8002cee:	d33b      	bcc.n	8002d68 <pools1_execute+0x128>
 8002cf0:	b662      	cpsie	i
 8002cf2:	3401      	adds	r4, #1
 8002cf4:	2c05      	cmp	r4, #5
 8002cf6:	d1e4      	bne.n	8002cc2 <pools1_execute+0x82>
 8002cf8:	2603      	movs	r6, #3
 8002cfa:	0028      	movs	r0, r5
 8002cfc:	f7ff ff20 	bl	8002b40 <chPoolAlloc>
 8002d00:	0001      	movs	r1, r0
 8002d02:	1e48      	subs	r0, r1, #1
 8002d04:	4181      	sbcs	r1, r0
 8002d06:	0030      	movs	r0, r6
 8002d08:	b2c9      	uxtb	r1, r1
 8002d0a:	f7fd fc69 	bl	80005e0 <_test_assert>
 8002d0e:	2800      	cmp	r0, #0
 8002d10:	d11b      	bne.n	8002d4a <pools1_execute+0x10a>
 8002d12:	3c01      	subs	r4, #1
 8002d14:	2c00      	cmp	r4, #0
 8002d16:	d1f0      	bne.n	8002cfa <pools1_execute+0xba>
 8002d18:	0028      	movs	r0, r5
 8002d1a:	f7ff ff11 	bl	8002b40 <chPoolAlloc>
 8002d1e:	4241      	negs	r1, r0
 8002d20:	4141      	adcs	r1, r0
 8002d22:	2004      	movs	r0, #4
 8002d24:	b2c9      	uxtb	r1, r1
 8002d26:	f7fd fc5b 	bl	80005e0 <_test_assert>
 8002d2a:	2800      	cmp	r0, #0
 8002d2c:	d10d      	bne.n	8002d4a <pools1_execute+0x10a>
 8002d2e:	2310      	movs	r3, #16
 8002d30:	606b      	str	r3, [r5, #4]
 8002d32:	4b13      	ldr	r3, [pc, #76]	; (8002d80 <pools1_execute+0x140>)
 8002d34:	0028      	movs	r0, r5
 8002d36:	602c      	str	r4, [r5, #0]
 8002d38:	60ab      	str	r3, [r5, #8]
 8002d3a:	f7ff ff01 	bl	8002b40 <chPoolAlloc>
 8002d3e:	4241      	negs	r1, r0
 8002d40:	4141      	adcs	r1, r0
 8002d42:	2005      	movs	r0, #5
 8002d44:	b2c9      	uxtb	r1, r1
 8002d46:	f7fd fc4b 	bl	80005e0 <_test_assert>
 8002d4a:	bc04      	pop	{r2}
 8002d4c:	4690      	mov	r8, r2
 8002d4e:	bdf0      	pop	{r4, r5, r6, r7, pc}
 8002d50:	b672      	cpsid	i
 8002d52:	4b0c      	ldr	r3, [pc, #48]	; (8002d84 <pools1_execute+0x144>)
 8002d54:	62f3      	str	r3, [r6, #44]	; 0x2c
 8002d56:	e7fe      	b.n	8002d56 <pools1_execute+0x116>
 8002d58:	b672      	cpsid	i
 8002d5a:	4b0b      	ldr	r3, [pc, #44]	; (8002d88 <pools1_execute+0x148>)
 8002d5c:	62f3      	str	r3, [r6, #44]	; 0x2c
 8002d5e:	e7fe      	b.n	8002d5e <pools1_execute+0x11e>
 8002d60:	b672      	cpsid	i
 8002d62:	4b08      	ldr	r3, [pc, #32]	; (8002d84 <pools1_execute+0x144>)
 8002d64:	62f3      	str	r3, [r6, #44]	; 0x2c
 8002d66:	e7fe      	b.n	8002d66 <pools1_execute+0x126>
 8002d68:	b672      	cpsid	i
 8002d6a:	4b07      	ldr	r3, [pc, #28]	; (8002d88 <pools1_execute+0x148>)
 8002d6c:	62f3      	str	r3, [r6, #44]	; 0x2c
 8002d6e:	e7fe      	b.n	8002d6e <pools1_execute+0x12e>
 8002d70:	20000d58 	.word	0x20000d58
 8002d74:	20000738 	.word	0x20000738
 8002d78:	2000067c 	.word	0x2000067c
 8002d7c:	08008ab0 	.word	0x08008ab0
 8002d80:	08000481 	.word	0x08000481
 8002d84:	08007b50 	.word	0x08007b50
 8002d88:	080078b0 	.word	0x080078b0
 8002d8c:	00000000 	.word	0x00000000

08002d90 <chOQWriteTimeout>:
 8002d90:	b5f8      	push	{r3, r4, r5, r6, r7, lr}
 8002d92:	4657      	mov	r7, sl
 8002d94:	464e      	mov	r6, r9
 8002d96:	4645      	mov	r5, r8
 8002d98:	46de      	mov	lr, fp
 8002d9a:	0004      	movs	r4, r0
 8002d9c:	b5e0      	push	{r5, r6, r7, lr}
 8002d9e:	4688      	mov	r8, r1
 8002da0:	1e16      	subs	r6, r2, #0
 8002da2:	469a      	mov	sl, r3
 8002da4:	d055      	beq.n	8002e52 <chOQWriteTimeout+0xc2>
 8002da6:	69c3      	ldr	r3, [r0, #28]
 8002da8:	4699      	mov	r9, r3
 8002daa:	b672      	cpsid	i
 8002dac:	2700      	movs	r7, #0
 8002dae:	f7fe fe1f 	bl	80019f0 <_dbg_check_lock>
 8002db2:	4d2c      	ldr	r5, [pc, #176]	; (8002e64 <chOQWriteTimeout+0xd4>)
 8002db4:	f7fd fcd4 	bl	8000760 <chDbgCheckClassI>
 8002db8:	68a3      	ldr	r3, [r4, #8]
 8002dba:	2b00      	cmp	r3, #0
 8002dbc:	d02d      	beq.n	8002e1a <chOQWriteTimeout+0x8a>
 8002dbe:	3b01      	subs	r3, #1
 8002dc0:	60a3      	str	r3, [r4, #8]
 8002dc2:	2301      	movs	r3, #1
 8002dc4:	4443      	add	r3, r8
 8002dc6:	469b      	mov	fp, r3
 8002dc8:	6963      	ldr	r3, [r4, #20]
 8002dca:	1c5a      	adds	r2, r3, #1
 8002dcc:	6162      	str	r2, [r4, #20]
 8002dce:	4642      	mov	r2, r8
 8002dd0:	7812      	ldrb	r2, [r2, #0]
 8002dd2:	701a      	strb	r2, [r3, #0]
 8002dd4:	6963      	ldr	r3, [r4, #20]
 8002dd6:	6922      	ldr	r2, [r4, #16]
 8002dd8:	4293      	cmp	r3, r2
 8002dda:	d301      	bcc.n	8002de0 <chOQWriteTimeout+0x50>
 8002ddc:	68e3      	ldr	r3, [r4, #12]
 8002dde:	6163      	str	r3, [r4, #20]
 8002de0:	464b      	mov	r3, r9
 8002de2:	2b00      	cmp	r3, #0
 8002de4:	d001      	beq.n	8002dea <chOQWriteTimeout+0x5a>
 8002de6:	0020      	movs	r0, r4
 8002de8:	47c8      	blx	r9
 8002dea:	f7fe fd51 	bl	8001890 <_dbg_check_unlock>
 8002dee:	682b      	ldr	r3, [r5, #0]
 8002df0:	42ab      	cmp	r3, r5
 8002df2:	d004      	beq.n	8002dfe <chOQWriteTimeout+0x6e>
 8002df4:	69aa      	ldr	r2, [r5, #24]
 8002df6:	689b      	ldr	r3, [r3, #8]
 8002df8:	6892      	ldr	r2, [r2, #8]
 8002dfa:	429a      	cmp	r2, r3
 8002dfc:	d325      	bcc.n	8002e4a <chOQWriteTimeout+0xba>
 8002dfe:	b662      	cpsie	i
 8002e00:	3e01      	subs	r6, #1
 8002e02:	3701      	adds	r7, #1
 8002e04:	2e00      	cmp	r6, #0
 8002e06:	d019      	beq.n	8002e3c <chOQWriteTimeout+0xac>
 8002e08:	b672      	cpsid	i
 8002e0a:	f7fe fdf1 	bl	80019f0 <_dbg_check_lock>
 8002e0e:	f7fd fca7 	bl	8000760 <chDbgCheckClassI>
 8002e12:	68a3      	ldr	r3, [r4, #8]
 8002e14:	46d8      	mov	r8, fp
 8002e16:	2b00      	cmp	r3, #0
 8002e18:	d1d1      	bne.n	8002dbe <chOQWriteTimeout+0x2e>
 8002e1a:	4651      	mov	r1, sl
 8002e1c:	0020      	movs	r0, r4
 8002e1e:	f7fe fcbf 	bl	80017a0 <chThdEnqueueTimeoutS>
 8002e22:	2800      	cmp	r0, #0
 8002e24:	d0c6      	beq.n	8002db4 <chOQWriteTimeout+0x24>
 8002e26:	f7fe fd33 	bl	8001890 <_dbg_check_unlock>
 8002e2a:	682b      	ldr	r3, [r5, #0]
 8002e2c:	42ab      	cmp	r3, r5
 8002e2e:	d004      	beq.n	8002e3a <chOQWriteTimeout+0xaa>
 8002e30:	69aa      	ldr	r2, [r5, #24]
 8002e32:	689b      	ldr	r3, [r3, #8]
 8002e34:	6892      	ldr	r2, [r2, #8]
 8002e36:	429a      	cmp	r2, r3
 8002e38:	d310      	bcc.n	8002e5c <chOQWriteTimeout+0xcc>
 8002e3a:	b662      	cpsie	i
 8002e3c:	0038      	movs	r0, r7
 8002e3e:	bc3c      	pop	{r2, r3, r4, r5}
 8002e40:	4690      	mov	r8, r2
 8002e42:	4699      	mov	r9, r3
 8002e44:	46a2      	mov	sl, r4
 8002e46:	46ab      	mov	fp, r5
 8002e48:	bdf8      	pop	{r3, r4, r5, r6, r7, pc}
 8002e4a:	b672      	cpsid	i
 8002e4c:	4b06      	ldr	r3, [pc, #24]	; (8002e68 <chOQWriteTimeout+0xd8>)
 8002e4e:	62eb      	str	r3, [r5, #44]	; 0x2c
 8002e50:	e7fe      	b.n	8002e50 <chOQWriteTimeout+0xc0>
 8002e52:	b672      	cpsid	i
 8002e54:	4b03      	ldr	r3, [pc, #12]	; (8002e64 <chOQWriteTimeout+0xd4>)
 8002e56:	4a05      	ldr	r2, [pc, #20]	; (8002e6c <chOQWriteTimeout+0xdc>)
 8002e58:	62da      	str	r2, [r3, #44]	; 0x2c
 8002e5a:	e7fe      	b.n	8002e5a <chOQWriteTimeout+0xca>
 8002e5c:	b672      	cpsid	i
 8002e5e:	4b02      	ldr	r3, [pc, #8]	; (8002e68 <chOQWriteTimeout+0xd8>)
 8002e60:	62eb      	str	r3, [r5, #44]	; 0x2c
 8002e62:	e7fe      	b.n	8002e62 <chOQWriteTimeout+0xd2>
 8002e64:	20000738 	.word	0x20000738
 8002e68:	08007a00 	.word	0x08007a00
 8002e6c:	08007c90 	.word	0x08007c90

08002e70 <writet>:
 8002e70:	b510      	push	{r4, lr}
 8002e72:	3030      	adds	r0, #48	; 0x30
 8002e74:	f7ff ff8c 	bl	8002d90 <chOQWriteTimeout>
 8002e78:	bd10      	pop	{r4, pc}
 8002e7a:	46c0      	nop			; (mov r8, r8)
 8002e7c:	0000      	movs	r0, r0
	...

08002e80 <write>:
 8002e80:	2301      	movs	r3, #1
 8002e82:	b510      	push	{r4, lr}
 8002e84:	3030      	adds	r0, #48	; 0x30
 8002e86:	425b      	negs	r3, r3
 8002e88:	f7ff ff82 	bl	8002d90 <chOQWriteTimeout>
 8002e8c:	bd10      	pop	{r4, pc}
 8002e8e:	46c0      	nop			; (mov r8, r8)

08002e90 <chOQPutTimeout>:
 8002e90:	b5f8      	push	{r3, r4, r5, r6, r7, lr}
 8002e92:	0004      	movs	r4, r0
 8002e94:	000f      	movs	r7, r1
 8002e96:	0016      	movs	r6, r2
 8002e98:	b672      	cpsid	i
 8002e9a:	f7fe fda9 	bl	80019f0 <_dbg_check_lock>
 8002e9e:	e005      	b.n	8002eac <chOQPutTimeout+0x1c>
 8002ea0:	0031      	movs	r1, r6
 8002ea2:	0020      	movs	r0, r4
 8002ea4:	f7fe fc7c 	bl	80017a0 <chThdEnqueueTimeoutS>
 8002ea8:	1e05      	subs	r5, r0, #0
 8002eaa:	db22      	blt.n	8002ef2 <chOQPutTimeout+0x62>
 8002eac:	f7fd fc58 	bl	8000760 <chDbgCheckClassI>
 8002eb0:	68a3      	ldr	r3, [r4, #8]
 8002eb2:	2b00      	cmp	r3, #0
 8002eb4:	d0f4      	beq.n	8002ea0 <chOQPutTimeout+0x10>
 8002eb6:	3b01      	subs	r3, #1
 8002eb8:	60a3      	str	r3, [r4, #8]
 8002eba:	6963      	ldr	r3, [r4, #20]
 8002ebc:	1c5a      	adds	r2, r3, #1
 8002ebe:	6162      	str	r2, [r4, #20]
 8002ec0:	701f      	strb	r7, [r3, #0]
 8002ec2:	6963      	ldr	r3, [r4, #20]
 8002ec4:	6922      	ldr	r2, [r4, #16]
 8002ec6:	4293      	cmp	r3, r2
 8002ec8:	d220      	bcs.n	8002f0c <chOQPutTimeout+0x7c>
 8002eca:	69e3      	ldr	r3, [r4, #28]
 8002ecc:	2b00      	cmp	r3, #0
 8002ece:	d001      	beq.n	8002ed4 <chOQPutTimeout+0x44>
 8002ed0:	0020      	movs	r0, r4
 8002ed2:	4798      	blx	r3
 8002ed4:	f7fe fcdc 	bl	8001890 <_dbg_check_unlock>
 8002ed8:	4b12      	ldr	r3, [pc, #72]	; (8002f24 <chOQPutTimeout+0x94>)
 8002eda:	681a      	ldr	r2, [r3, #0]
 8002edc:	429a      	cmp	r2, r3
 8002ede:	d004      	beq.n	8002eea <chOQPutTimeout+0x5a>
 8002ee0:	6999      	ldr	r1, [r3, #24]
 8002ee2:	6892      	ldr	r2, [r2, #8]
 8002ee4:	6889      	ldr	r1, [r1, #8]
 8002ee6:	4291      	cmp	r1, r2
 8002ee8:	d317      	bcc.n	8002f1a <chOQPutTimeout+0x8a>
 8002eea:	b662      	cpsie	i
 8002eec:	2500      	movs	r5, #0
 8002eee:	0028      	movs	r0, r5
 8002ef0:	bdf8      	pop	{r3, r4, r5, r6, r7, pc}
 8002ef2:	f7fe fccd 	bl	8001890 <_dbg_check_unlock>
 8002ef6:	4b0b      	ldr	r3, [pc, #44]	; (8002f24 <chOQPutTimeout+0x94>)
 8002ef8:	681a      	ldr	r2, [r3, #0]
 8002efa:	429a      	cmp	r2, r3
 8002efc:	d004      	beq.n	8002f08 <chOQPutTimeout+0x78>
 8002efe:	6999      	ldr	r1, [r3, #24]
 8002f00:	6892      	ldr	r2, [r2, #8]
 8002f02:	6889      	ldr	r1, [r1, #8]
 8002f04:	4291      	cmp	r1, r2
 8002f06:	d304      	bcc.n	8002f12 <chOQPutTimeout+0x82>
 8002f08:	b662      	cpsie	i
 8002f0a:	e7f0      	b.n	8002eee <chOQPutTimeout+0x5e>
 8002f0c:	68e3      	ldr	r3, [r4, #12]
 8002f0e:	6163      	str	r3, [r4, #20]
 8002f10:	e7db      	b.n	8002eca <chOQPutTimeout+0x3a>
 8002f12:	b672      	cpsid	i
 8002f14:	4a04      	ldr	r2, [pc, #16]	; (8002f28 <chOQPutTimeout+0x98>)
 8002f16:	62da      	str	r2, [r3, #44]	; 0x2c
 8002f18:	e7fe      	b.n	8002f18 <chOQPutTimeout+0x88>
 8002f1a:	b672      	cpsid	i
 8002f1c:	4a02      	ldr	r2, [pc, #8]	; (8002f28 <chOQPutTimeout+0x98>)
 8002f1e:	62da      	str	r2, [r3, #44]	; 0x2c
 8002f20:	e7fe      	b.n	8002f20 <chOQPutTimeout+0x90>
 8002f22:	46c0      	nop			; (mov r8, r8)
 8002f24:	20000738 	.word	0x20000738
 8002f28:	08007a00 	.word	0x08007a00
 8002f2c:	00000000 	.word	0x00000000

08002f30 <thread2.lto_priv.141>:
 8002f30:	22fa      	movs	r2, #250	; 0xfa
 8002f32:	b510      	push	{r4, lr}
 8002f34:	00d2      	lsls	r2, r2, #3
 8002f36:	2100      	movs	r1, #0
 8002f38:	4801      	ldr	r0, [pc, #4]	; (8002f40 <thread2.lto_priv.141+0x10>)
 8002f3a:	f7ff ffa9 	bl	8002e90 <chOQPutTimeout>
 8002f3e:	bd10      	pop	{r4, pc}
 8002f40:	20000688 	.word	0x20000688
	...

08002f50 <putt>:
 8002f50:	b510      	push	{r4, lr}
 8002f52:	3030      	adds	r0, #48	; 0x30
 8002f54:	f7ff ff9c 	bl	8002e90 <chOQPutTimeout>
 8002f58:	bd10      	pop	{r4, pc}
 8002f5a:	46c0      	nop			; (mov r8, r8)
 8002f5c:	0000      	movs	r0, r0
	...

08002f60 <put>:
 8002f60:	2201      	movs	r2, #1
 8002f62:	b510      	push	{r4, lr}
 8002f64:	3030      	adds	r0, #48	; 0x30
 8002f66:	4252      	negs	r2, r2
 8002f68:	f7ff ff92 	bl	8002e90 <chOQPutTimeout>
 8002f6c:	bd10      	pop	{r4, pc}
 8002f6e:	46c0      	nop			; (mov r8, r8)

08002f70 <chIQReadTimeout>:
 8002f70:	b5f0      	push	{r4, r5, r6, r7, lr}
 8002f72:	46d6      	mov	lr, sl
 8002f74:	464f      	mov	r7, r9
 8002f76:	4646      	mov	r6, r8
 8002f78:	0004      	movs	r4, r0
 8002f7a:	b5c0      	push	{r6, r7, lr}
 8002f7c:	468a      	mov	sl, r1
 8002f7e:	4690      	mov	r8, r2
 8002f80:	4699      	mov	r9, r3
 8002f82:	2a00      	cmp	r2, #0
 8002f84:	d046      	beq.n	8003014 <chIQReadTimeout+0xa4>
 8002f86:	69c7      	ldr	r7, [r0, #28]
 8002f88:	b672      	cpsid	i
 8002f8a:	2600      	movs	r6, #0
 8002f8c:	f7fe fd30 	bl	80019f0 <_dbg_check_lock>
 8002f90:	4d27      	ldr	r5, [pc, #156]	; (8003030 <chIQReadTimeout+0xc0>)
 8002f92:	2f00      	cmp	r7, #0
 8002f94:	d008      	beq.n	8002fa8 <chIQReadTimeout+0x38>
 8002f96:	0020      	movs	r0, r4
 8002f98:	47b8      	blx	r7
 8002f9a:	e005      	b.n	8002fa8 <chIQReadTimeout+0x38>
 8002f9c:	4649      	mov	r1, r9
 8002f9e:	0020      	movs	r0, r4
 8002fa0:	f7fe fbfe 	bl	80017a0 <chThdEnqueueTimeoutS>
 8002fa4:	2800      	cmp	r0, #0
 8002fa6:	d124      	bne.n	8002ff2 <chIQReadTimeout+0x82>
 8002fa8:	f7fd fbda 	bl	8000760 <chDbgCheckClassI>
 8002fac:	68a3      	ldr	r3, [r4, #8]
 8002fae:	2b00      	cmp	r3, #0
 8002fb0:	d0f4      	beq.n	8002f9c <chIQReadTimeout+0x2c>
 8002fb2:	3b01      	subs	r3, #1
 8002fb4:	60a3      	str	r3, [r4, #8]
 8002fb6:	69a3      	ldr	r3, [r4, #24]
 8002fb8:	1c5a      	adds	r2, r3, #1
 8002fba:	61a2      	str	r2, [r4, #24]
 8002fbc:	4652      	mov	r2, sl
 8002fbe:	781b      	ldrb	r3, [r3, #0]
 8002fc0:	5593      	strb	r3, [r2, r6]
 8002fc2:	69a3      	ldr	r3, [r4, #24]
 8002fc4:	6922      	ldr	r2, [r4, #16]
 8002fc6:	4293      	cmp	r3, r2
 8002fc8:	d301      	bcc.n	8002fce <chIQReadTimeout+0x5e>
 8002fca:	68e3      	ldr	r3, [r4, #12]
 8002fcc:	61a3      	str	r3, [r4, #24]
 8002fce:	f7fe fc5f 	bl	8001890 <_dbg_check_unlock>
 8002fd2:	682b      	ldr	r3, [r5, #0]
 8002fd4:	42ab      	cmp	r3, r5
 8002fd6:	d004      	beq.n	8002fe2 <chIQReadTimeout+0x72>
 8002fd8:	69aa      	ldr	r2, [r5, #24]
 8002fda:	689b      	ldr	r3, [r3, #8]
 8002fdc:	6892      	ldr	r2, [r2, #8]
 8002fde:	429a      	cmp	r2, r3
 8002fe0:	d31d      	bcc.n	800301e <chIQReadTimeout+0xae>
 8002fe2:	b662      	cpsie	i
 8002fe4:	3601      	adds	r6, #1
 8002fe6:	45b0      	cmp	r8, r6
 8002fe8:	d00e      	beq.n	8003008 <chIQReadTimeout+0x98>
 8002fea:	b672      	cpsid	i
 8002fec:	f7fe fd00 	bl	80019f0 <_dbg_check_lock>
 8002ff0:	e7cf      	b.n	8002f92 <chIQReadTimeout+0x22>
 8002ff2:	f7fe fc4d 	bl	8001890 <_dbg_check_unlock>
 8002ff6:	682b      	ldr	r3, [r5, #0]
 8002ff8:	42ab      	cmp	r3, r5
 8002ffa:	d004      	beq.n	8003006 <chIQReadTimeout+0x96>
 8002ffc:	69aa      	ldr	r2, [r5, #24]
 8002ffe:	689b      	ldr	r3, [r3, #8]
 8003000:	6892      	ldr	r2, [r2, #8]
 8003002:	429a      	cmp	r2, r3
 8003004:	d30f      	bcc.n	8003026 <chIQReadTimeout+0xb6>
 8003006:	b662      	cpsie	i
 8003008:	0030      	movs	r0, r6
 800300a:	bc1c      	pop	{r2, r3, r4}
 800300c:	4690      	mov	r8, r2
 800300e:	4699      	mov	r9, r3
 8003010:	46a2      	mov	sl, r4
 8003012:	bdf0      	pop	{r4, r5, r6, r7, pc}
 8003014:	b672      	cpsid	i
 8003016:	4b06      	ldr	r3, [pc, #24]	; (8003030 <chIQReadTimeout+0xc0>)
 8003018:	4a06      	ldr	r2, [pc, #24]	; (8003034 <chIQReadTimeout+0xc4>)
 800301a:	62da      	str	r2, [r3, #44]	; 0x2c
 800301c:	e7fe      	b.n	800301c <chIQReadTimeout+0xac>
 800301e:	b672      	cpsid	i
 8003020:	4b05      	ldr	r3, [pc, #20]	; (8003038 <chIQReadTimeout+0xc8>)
 8003022:	62eb      	str	r3, [r5, #44]	; 0x2c
 8003024:	e7fe      	b.n	8003024 <chIQReadTimeout+0xb4>
 8003026:	b672      	cpsid	i
 8003028:	4b03      	ldr	r3, [pc, #12]	; (8003038 <chIQReadTimeout+0xc8>)
 800302a:	62eb      	str	r3, [r5, #44]	; 0x2c
 800302c:	e7fe      	b.n	800302c <chIQReadTimeout+0xbc>
 800302e:	46c0      	nop			; (mov r8, r8)
 8003030:	20000738 	.word	0x20000738
 8003034:	08007b60 	.word	0x08007b60
 8003038:	08007a00 	.word	0x08007a00
 800303c:	00000000 	.word	0x00000000

08003040 <readt>:
 8003040:	b510      	push	{r4, lr}
 8003042:	300c      	adds	r0, #12
 8003044:	f7ff ff94 	bl	8002f70 <chIQReadTimeout>
 8003048:	bd10      	pop	{r4, pc}
 800304a:	46c0      	nop			; (mov r8, r8)
 800304c:	0000      	movs	r0, r0
	...

08003050 <read>:
 8003050:	2301      	movs	r3, #1
 8003052:	b510      	push	{r4, lr}
 8003054:	300c      	adds	r0, #12
 8003056:	425b      	negs	r3, r3
 8003058:	f7ff ff8a 	bl	8002f70 <chIQReadTimeout>
 800305c:	bd10      	pop	{r4, pc}
 800305e:	46c0      	nop			; (mov r8, r8)

08003060 <chIQGetTimeout>:
 8003060:	b570      	push	{r4, r5, r6, lr}
 8003062:	0004      	movs	r4, r0
 8003064:	000e      	movs	r6, r1
 8003066:	b672      	cpsid	i
 8003068:	f7fe fcc2 	bl	80019f0 <_dbg_check_lock>
 800306c:	69e3      	ldr	r3, [r4, #28]
 800306e:	2b00      	cmp	r3, #0
 8003070:	d008      	beq.n	8003084 <chIQGetTimeout+0x24>
 8003072:	0020      	movs	r0, r4
 8003074:	4798      	blx	r3
 8003076:	e005      	b.n	8003084 <chIQGetTimeout+0x24>
 8003078:	0031      	movs	r1, r6
 800307a:	0020      	movs	r0, r4
 800307c:	f7fe fb90 	bl	80017a0 <chThdEnqueueTimeoutS>
 8003080:	1e05      	subs	r5, r0, #0
 8003082:	db1b      	blt.n	80030bc <chIQGetTimeout+0x5c>
 8003084:	f7fd fb6c 	bl	8000760 <chDbgCheckClassI>
 8003088:	68a3      	ldr	r3, [r4, #8]
 800308a:	2b00      	cmp	r3, #0
 800308c:	d0f4      	beq.n	8003078 <chIQGetTimeout+0x18>
 800308e:	69a2      	ldr	r2, [r4, #24]
 8003090:	3b01      	subs	r3, #1
 8003092:	60a3      	str	r3, [r4, #8]
 8003094:	1c53      	adds	r3, r2, #1
 8003096:	61a3      	str	r3, [r4, #24]
 8003098:	7815      	ldrb	r5, [r2, #0]
 800309a:	6922      	ldr	r2, [r4, #16]
 800309c:	4293      	cmp	r3, r2
 800309e:	d21c      	bcs.n	80030da <chIQGetTimeout+0x7a>
 80030a0:	f7fe fbf6 	bl	8001890 <_dbg_check_unlock>
 80030a4:	4b10      	ldr	r3, [pc, #64]	; (80030e8 <chIQGetTimeout+0x88>)
 80030a6:	681a      	ldr	r2, [r3, #0]
 80030a8:	429a      	cmp	r2, r3
 80030aa:	d004      	beq.n	80030b6 <chIQGetTimeout+0x56>
 80030ac:	6999      	ldr	r1, [r3, #24]
 80030ae:	6892      	ldr	r2, [r2, #8]
 80030b0:	6889      	ldr	r1, [r1, #8]
 80030b2:	4291      	cmp	r1, r2
 80030b4:	d314      	bcc.n	80030e0 <chIQGetTimeout+0x80>
 80030b6:	b662      	cpsie	i
 80030b8:	0028      	movs	r0, r5
 80030ba:	bd70      	pop	{r4, r5, r6, pc}
 80030bc:	f7fe fbe8 	bl	8001890 <_dbg_check_unlock>
 80030c0:	4b09      	ldr	r3, [pc, #36]	; (80030e8 <chIQGetTimeout+0x88>)
 80030c2:	681a      	ldr	r2, [r3, #0]
 80030c4:	429a      	cmp	r2, r3
 80030c6:	d0f6      	beq.n	80030b6 <chIQGetTimeout+0x56>
 80030c8:	6999      	ldr	r1, [r3, #24]
 80030ca:	6892      	ldr	r2, [r2, #8]
 80030cc:	6889      	ldr	r1, [r1, #8]
 80030ce:	4291      	cmp	r1, r2
 80030d0:	d2f1      	bcs.n	80030b6 <chIQGetTimeout+0x56>
 80030d2:	b672      	cpsid	i
 80030d4:	4a05      	ldr	r2, [pc, #20]	; (80030ec <chIQGetTimeout+0x8c>)
 80030d6:	62da      	str	r2, [r3, #44]	; 0x2c
 80030d8:	e7fe      	b.n	80030d8 <chIQGetTimeout+0x78>
 80030da:	68e3      	ldr	r3, [r4, #12]
 80030dc:	61a3      	str	r3, [r4, #24]
 80030de:	e7df      	b.n	80030a0 <chIQGetTimeout+0x40>
 80030e0:	b672      	cpsid	i
 80030e2:	4a02      	ldr	r2, [pc, #8]	; (80030ec <chIQGetTimeout+0x8c>)
 80030e4:	62da      	str	r2, [r3, #44]	; 0x2c
 80030e6:	e7fe      	b.n	80030e6 <chIQGetTimeout+0x86>
 80030e8:	20000738 	.word	0x20000738
 80030ec:	08007a00 	.word	0x08007a00

080030f0 <thread1.lto_priv.135>:
 80030f0:	21fa      	movs	r1, #250	; 0xfa
 80030f2:	b510      	push	{r4, lr}
 80030f4:	00c9      	lsls	r1, r1, #3
 80030f6:	4802      	ldr	r0, [pc, #8]	; (8003100 <thread1.lto_priv.135+0x10>)
 80030f8:	f7ff ffb2 	bl	8003060 <chIQGetTimeout>
 80030fc:	bd10      	pop	{r4, pc}
 80030fe:	46c0      	nop			; (mov r8, r8)
 8003100:	20000610 	.word	0x20000610
	...

08003110 <gett>:
 8003110:	b510      	push	{r4, lr}
 8003112:	300c      	adds	r0, #12
 8003114:	f7ff ffa4 	bl	8003060 <chIQGetTimeout>
 8003118:	bd10      	pop	{r4, pc}
 800311a:	46c0      	nop			; (mov r8, r8)
 800311c:	0000      	movs	r0, r0
	...

08003120 <get>:
 8003120:	2101      	movs	r1, #1
 8003122:	b510      	push	{r4, lr}
 8003124:	300c      	adds	r0, #12
 8003126:	4249      	negs	r1, r1
 8003128:	f7ff ff9a 	bl	8003060 <chIQGetTimeout>
 800312c:	bd10      	pop	{r4, pc}
 800312e:	46c0      	nop			; (mov r8, r8)

08003130 <chMsgRelease>:
 8003130:	b570      	push	{r4, r5, r6, lr}
 8003132:	0004      	movs	r4, r0
 8003134:	000d      	movs	r5, r1
 8003136:	b672      	cpsid	i
 8003138:	f7fe fc5a 	bl	80019f0 <_dbg_check_lock>
 800313c:	2320      	movs	r3, #32
 800313e:	5ce3      	ldrb	r3, [r4, r3]
 8003140:	2b0d      	cmp	r3, #13
 8003142:	d004      	beq.n	800314e <chMsgRelease+0x1e>
 8003144:	b672      	cpsid	i
 8003146:	4b0d      	ldr	r3, [pc, #52]	; (800317c <chMsgRelease+0x4c>)
 8003148:	4a0d      	ldr	r2, [pc, #52]	; (8003180 <chMsgRelease+0x50>)
 800314a:	62da      	str	r2, [r3, #44]	; 0x2c
 800314c:	e7fe      	b.n	800314c <chMsgRelease+0x1c>
 800314e:	f7fd faf7 	bl	8000740 <chDbgCheckClassS>
 8003152:	0029      	movs	r1, r5
 8003154:	0020      	movs	r0, r4
 8003156:	f7fe f9eb 	bl	8001530 <chSchWakeupS>
 800315a:	f7fe fb99 	bl	8001890 <_dbg_check_unlock>
 800315e:	4b07      	ldr	r3, [pc, #28]	; (800317c <chMsgRelease+0x4c>)
 8003160:	681a      	ldr	r2, [r3, #0]
 8003162:	429a      	cmp	r2, r3
 8003164:	d004      	beq.n	8003170 <chMsgRelease+0x40>
 8003166:	6999      	ldr	r1, [r3, #24]
 8003168:	6892      	ldr	r2, [r2, #8]
 800316a:	6889      	ldr	r1, [r1, #8]
 800316c:	4291      	cmp	r1, r2
 800316e:	d301      	bcc.n	8003174 <chMsgRelease+0x44>
 8003170:	b662      	cpsie	i
 8003172:	bd70      	pop	{r4, r5, r6, pc}
 8003174:	b672      	cpsid	i
 8003176:	4a03      	ldr	r2, [pc, #12]	; (8003184 <chMsgRelease+0x54>)
 8003178:	62da      	str	r2, [r3, #44]	; 0x2c
 800317a:	e7fe      	b.n	800317a <chMsgRelease+0x4a>
 800317c:	20000738 	.word	0x20000738
 8003180:	08007ae0 	.word	0x08007ae0
 8003184:	080079e0 	.word	0x080079e0
	...

08003190 <chMsgWait>:
 8003190:	b570      	push	{r4, r5, r6, lr}
 8003192:	b672      	cpsid	i
 8003194:	f7fe fc2c 	bl	80019f0 <_dbg_check_lock>
 8003198:	4c13      	ldr	r4, [pc, #76]	; (80031e8 <chMsgWait+0x58>)
 800319a:	f7fd fae1 	bl	8000760 <chDbgCheckClassI>
 800319e:	69a5      	ldr	r5, [r4, #24]
 80031a0:	002b      	movs	r3, r5
 80031a2:	6aee      	ldr	r6, [r5, #44]	; 0x2c
 80031a4:	332c      	adds	r3, #44	; 0x2c
 80031a6:	429e      	cmp	r6, r3
 80031a8:	d012      	beq.n	80031d0 <chMsgWait+0x40>
 80031aa:	6832      	ldr	r2, [r6, #0]
 80031ac:	62ea      	str	r2, [r5, #44]	; 0x2c
 80031ae:	6053      	str	r3, [r2, #4]
 80031b0:	2320      	movs	r3, #32
 80031b2:	220d      	movs	r2, #13
 80031b4:	54f2      	strb	r2, [r6, r3]
 80031b6:	f7fe fb6b 	bl	8001890 <_dbg_check_unlock>
 80031ba:	6823      	ldr	r3, [r4, #0]
 80031bc:	42a3      	cmp	r3, r4
 80031be:	d004      	beq.n	80031ca <chMsgWait+0x3a>
 80031c0:	69a2      	ldr	r2, [r4, #24]
 80031c2:	689b      	ldr	r3, [r3, #8]
 80031c4:	6892      	ldr	r2, [r2, #8]
 80031c6:	429a      	cmp	r2, r3
 80031c8:	d30a      	bcc.n	80031e0 <chMsgWait+0x50>
 80031ca:	b662      	cpsie	i
 80031cc:	0030      	movs	r0, r6
 80031ce:	bd70      	pop	{r4, r5, r6, pc}
 80031d0:	200e      	movs	r0, #14
 80031d2:	f7fe f9dd 	bl	8001590 <chSchGoSleepS>
 80031d6:	69a5      	ldr	r5, [r4, #24]
 80031d8:	002b      	movs	r3, r5
 80031da:	6aee      	ldr	r6, [r5, #44]	; 0x2c
 80031dc:	332c      	adds	r3, #44	; 0x2c
 80031de:	e7e4      	b.n	80031aa <chMsgWait+0x1a>
 80031e0:	b672      	cpsid	i
 80031e2:	4b02      	ldr	r3, [pc, #8]	; (80031ec <chMsgWait+0x5c>)
 80031e4:	62e3      	str	r3, [r4, #44]	; 0x2c
 80031e6:	e7fe      	b.n	80031e6 <chMsgWait+0x56>
 80031e8:	20000738 	.word	0x20000738
 80031ec:	080079e0 	.word	0x080079e0

080031f0 <thread2.lto_priv.142>:
 80031f0:	b510      	push	{r4, lr}
 80031f2:	f7ff ffcd 	bl	8003190 <chMsgWait>
 80031f6:	6b44      	ldr	r4, [r0, #52]	; 0x34
 80031f8:	0021      	movs	r1, r4
 80031fa:	f7ff ff99 	bl	8003130 <chMsgRelease>
 80031fe:	2c00      	cmp	r4, #0
 8003200:	d1f7      	bne.n	80031f2 <thread2.lto_priv.142+0x2>
 8003202:	bd10      	pop	{r4, pc}
	...

08003210 <chMsgSend>:
 8003210:	b5f8      	push	{r3, r4, r5, r6, r7, lr}
 8003212:	0005      	movs	r5, r0
 8003214:	000f      	movs	r7, r1
 8003216:	2800      	cmp	r0, #0
 8003218:	d022      	beq.n	8003260 <chMsgSend+0x50>
 800321a:	4e18      	ldr	r6, [pc, #96]	; (800327c <chMsgSend+0x6c>)
 800321c:	69b4      	ldr	r4, [r6, #24]
 800321e:	b672      	cpsid	i
 8003220:	f7fe fbe6 	bl	80019f0 <_dbg_check_lock>
 8003224:	002b      	movs	r3, r5
 8003226:	332c      	adds	r3, #44	; 0x2c
 8003228:	6263      	str	r3, [r4, #36]	; 0x24
 800322a:	6023      	str	r3, [r4, #0]
 800322c:	6b2b      	ldr	r3, [r5, #48]	; 0x30
 800322e:	6367      	str	r7, [r4, #52]	; 0x34
 8003230:	6063      	str	r3, [r4, #4]
 8003232:	601c      	str	r4, [r3, #0]
 8003234:	2320      	movs	r3, #32
 8003236:	632c      	str	r4, [r5, #48]	; 0x30
 8003238:	5ceb      	ldrb	r3, [r5, r3]
 800323a:	2b0e      	cmp	r3, #14
 800323c:	d019      	beq.n	8003272 <chMsgSend+0x62>
 800323e:	200c      	movs	r0, #12
 8003240:	f7fe f9a6 	bl	8001590 <chSchGoSleepS>
 8003244:	6a64      	ldr	r4, [r4, #36]	; 0x24
 8003246:	f7fe fb23 	bl	8001890 <_dbg_check_unlock>
 800324a:	6833      	ldr	r3, [r6, #0]
 800324c:	42b3      	cmp	r3, r6
 800324e:	d004      	beq.n	800325a <chMsgSend+0x4a>
 8003250:	69b2      	ldr	r2, [r6, #24]
 8003252:	689b      	ldr	r3, [r3, #8]
 8003254:	6892      	ldr	r2, [r2, #8]
 8003256:	429a      	cmp	r2, r3
 8003258:	d307      	bcc.n	800326a <chMsgSend+0x5a>
 800325a:	b662      	cpsie	i
 800325c:	0020      	movs	r0, r4
 800325e:	bdf8      	pop	{r3, r4, r5, r6, r7, pc}
 8003260:	b672      	cpsid	i
 8003262:	4b06      	ldr	r3, [pc, #24]	; (800327c <chMsgSend+0x6c>)
 8003264:	4a06      	ldr	r2, [pc, #24]	; (8003280 <chMsgSend+0x70>)
 8003266:	62da      	str	r2, [r3, #44]	; 0x2c
 8003268:	e7fe      	b.n	8003268 <chMsgSend+0x58>
 800326a:	b672      	cpsid	i
 800326c:	4b05      	ldr	r3, [pc, #20]	; (8003284 <chMsgSend+0x74>)
 800326e:	62f3      	str	r3, [r6, #44]	; 0x2c
 8003270:	e7fe      	b.n	8003270 <chMsgSend+0x60>
 8003272:	0028      	movs	r0, r5
 8003274:	f7fd fac4 	bl	8000800 <chSchReadyI>
 8003278:	e7e1      	b.n	800323e <chMsgSend+0x2e>
 800327a:	46c0      	nop			; (mov r8, r8)
 800327c:	20000738 	.word	0x20000738
 8003280:	08007a70 	.word	0x08007a70
 8003284:	080079e0 	.word	0x080079e0
	...

08003290 <thread.lto_priv.63>:
 8003290:	b510      	push	{r4, lr}
 8003292:	0004      	movs	r4, r0
 8003294:	2141      	movs	r1, #65	; 0x41
 8003296:	f7ff ffbb 	bl	8003210 <chMsgSend>
 800329a:	2142      	movs	r1, #66	; 0x42
 800329c:	0020      	movs	r0, r4
 800329e:	f7ff ffb7 	bl	8003210 <chMsgSend>
 80032a2:	2143      	movs	r1, #67	; 0x43
 80032a4:	0020      	movs	r0, r4
 80032a6:	f7ff ffb3 	bl	8003210 <chMsgSend>
 80032aa:	bd10      	pop	{r4, pc}
 80032ac:	0000      	movs	r0, r0
	...

080032b0 <chEvtUnregister>:
 80032b0:	b570      	push	{r4, r5, r6, lr}
 80032b2:	0005      	movs	r5, r0
 80032b4:	000c      	movs	r4, r1
 80032b6:	b672      	cpsid	i
 80032b8:	f7fe fb9a 	bl	80019f0 <_dbg_check_lock>
 80032bc:	002b      	movs	r3, r5
 80032be:	e002      	b.n	80032c6 <chEvtUnregister+0x16>
 80032c0:	42a2      	cmp	r2, r4
 80032c2:	d010      	beq.n	80032e6 <chEvtUnregister+0x36>
 80032c4:	0013      	movs	r3, r2
 80032c6:	681a      	ldr	r2, [r3, #0]
 80032c8:	42aa      	cmp	r2, r5
 80032ca:	d1f9      	bne.n	80032c0 <chEvtUnregister+0x10>
 80032cc:	f7fe fae0 	bl	8001890 <_dbg_check_unlock>
 80032d0:	4b08      	ldr	r3, [pc, #32]	; (80032f4 <chEvtUnregister+0x44>)
 80032d2:	681a      	ldr	r2, [r3, #0]
 80032d4:	429a      	cmp	r2, r3
 80032d6:	d004      	beq.n	80032e2 <chEvtUnregister+0x32>
 80032d8:	6999      	ldr	r1, [r3, #24]
 80032da:	6892      	ldr	r2, [r2, #8]
 80032dc:	6889      	ldr	r1, [r1, #8]
 80032de:	4291      	cmp	r1, r2
 80032e0:	d304      	bcc.n	80032ec <chEvtUnregister+0x3c>
 80032e2:	b662      	cpsie	i
 80032e4:	bd70      	pop	{r4, r5, r6, pc}
 80032e6:	6822      	ldr	r2, [r4, #0]
 80032e8:	601a      	str	r2, [r3, #0]
 80032ea:	e7ef      	b.n	80032cc <chEvtUnregister+0x1c>
 80032ec:	b672      	cpsid	i
 80032ee:	4a02      	ldr	r2, [pc, #8]	; (80032f8 <chEvtUnregister+0x48>)
 80032f0:	62da      	str	r2, [r3, #44]	; 0x2c
 80032f2:	e7fe      	b.n	80032f2 <chEvtUnregister+0x42>
 80032f4:	20000738 	.word	0x20000738
 80032f8:	080079d0 	.word	0x080079d0
 80032fc:	00000000 	.word	0x00000000

08003300 <evt1_execute>:
 8003300:	b5f0      	push	{r4, r5, r6, r7, lr}
 8003302:	46c6      	mov	lr, r8
 8003304:	b500      	push	{lr}
 8003306:	4c45      	ldr	r4, [pc, #276]	; (800341c <evt1_execute+0x11c>)
 8003308:	b08a      	sub	sp, #40	; 0x28
 800330a:	6024      	str	r4, [r4, #0]
 800330c:	b672      	cpsid	i
 800330e:	f7fe fb6f 	bl	80019f0 <_dbg_check_lock>
 8003312:	6823      	ldr	r3, [r4, #0]
 8003314:	4d42      	ldr	r5, [pc, #264]	; (8003420 <evt1_execute+0x120>)
 8003316:	9305      	str	r3, [sp, #20]
 8003318:	69ab      	ldr	r3, [r5, #24]
 800331a:	ae05      	add	r6, sp, #20
 800331c:	6073      	str	r3, [r6, #4]
 800331e:	2301      	movs	r3, #1
 8003320:	60b3      	str	r3, [r6, #8]
 8003322:	2300      	movs	r3, #0
 8003324:	60f3      	str	r3, [r6, #12]
 8003326:	3b01      	subs	r3, #1
 8003328:	6133      	str	r3, [r6, #16]
 800332a:	6026      	str	r6, [r4, #0]
 800332c:	f7fe fab0 	bl	8001890 <_dbg_check_unlock>
 8003330:	682b      	ldr	r3, [r5, #0]
 8003332:	42ab      	cmp	r3, r5
 8003334:	d004      	beq.n	8003340 <evt1_execute+0x40>
 8003336:	69aa      	ldr	r2, [r5, #24]
 8003338:	689b      	ldr	r3, [r3, #8]
 800333a:	6892      	ldr	r2, [r2, #8]
 800333c:	429a      	cmp	r2, r3
 800333e:	d363      	bcc.n	8003408 <evt1_execute+0x108>
 8003340:	b662      	cpsie	i
 8003342:	b672      	cpsid	i
 8003344:	f7fe fb54 	bl	80019f0 <_dbg_check_lock>
 8003348:	6823      	ldr	r3, [r4, #0]
 800334a:	9300      	str	r3, [sp, #0]
 800334c:	466b      	mov	r3, sp
 800334e:	6023      	str	r3, [r4, #0]
 8003350:	69ab      	ldr	r3, [r5, #24]
 8003352:	9301      	str	r3, [sp, #4]
 8003354:	2302      	movs	r3, #2
 8003356:	9302      	str	r3, [sp, #8]
 8003358:	2300      	movs	r3, #0
 800335a:	9303      	str	r3, [sp, #12]
 800335c:	3b01      	subs	r3, #1
 800335e:	9304      	str	r3, [sp, #16]
 8003360:	f7fe fa96 	bl	8001890 <_dbg_check_unlock>
 8003364:	682b      	ldr	r3, [r5, #0]
 8003366:	42ab      	cmp	r3, r5
 8003368:	d004      	beq.n	8003374 <evt1_execute+0x74>
 800336a:	69aa      	ldr	r2, [r5, #24]
 800336c:	689b      	ldr	r3, [r3, #8]
 800336e:	6892      	ldr	r2, [r2, #8]
 8003370:	429a      	cmp	r2, r3
 8003372:	d345      	bcc.n	8003400 <evt1_execute+0x100>
 8003374:	b662      	cpsie	i
 8003376:	6823      	ldr	r3, [r4, #0]
 8003378:	2001      	movs	r0, #1
 800337a:	1b19      	subs	r1, r3, r4
 800337c:	1e4b      	subs	r3, r1, #1
 800337e:	4199      	sbcs	r1, r3
 8003380:	b2c9      	uxtb	r1, r1
 8003382:	f7fd f92d 	bl	80005e0 <_test_assert>
 8003386:	2800      	cmp	r0, #0
 8003388:	d003      	beq.n	8003392 <evt1_execute+0x92>
 800338a:	b00a      	add	sp, #40	; 0x28
 800338c:	bc04      	pop	{r2}
 800338e:	4690      	mov	r8, r2
 8003390:	bdf0      	pop	{r4, r5, r6, r7, pc}
 8003392:	0031      	movs	r1, r6
 8003394:	0020      	movs	r0, r4
 8003396:	f7ff ff8b 	bl	80032b0 <chEvtUnregister>
 800339a:	6823      	ldr	r3, [r4, #0]
 800339c:	2002      	movs	r0, #2
 800339e:	1b19      	subs	r1, r3, r4
 80033a0:	1e4b      	subs	r3, r1, #1
 80033a2:	4199      	sbcs	r1, r3
 80033a4:	b2c9      	uxtb	r1, r1
 80033a6:	f7fd f91b 	bl	80005e0 <_test_assert>
 80033aa:	2800      	cmp	r0, #0
 80033ac:	d1ed      	bne.n	800338a <evt1_execute+0x8a>
 80033ae:	0020      	movs	r0, r4
 80033b0:	4669      	mov	r1, sp
 80033b2:	f7ff ff7d 	bl	80032b0 <chEvtUnregister>
 80033b6:	6823      	ldr	r3, [r4, #0]
 80033b8:	2003      	movs	r0, #3
 80033ba:	1b1c      	subs	r4, r3, r4
 80033bc:	4261      	negs	r1, r4
 80033be:	4161      	adcs	r1, r4
 80033c0:	b2c9      	uxtb	r1, r1
 80033c2:	f7fd f90d 	bl	80005e0 <_test_assert>
 80033c6:	2800      	cmp	r0, #0
 80033c8:	d1df      	bne.n	800338a <evt1_execute+0x8a>
 80033ca:	4b16      	ldr	r3, [pc, #88]	; (8003424 <evt1_execute+0x124>)
 80033cc:	2707      	movs	r7, #7
 80033ce:	0004      	movs	r4, r0
 80033d0:	4698      	mov	r8, r3
 80033d2:	2601      	movs	r6, #1
 80033d4:	003b      	movs	r3, r7
 80033d6:	40e3      	lsrs	r3, r4
 80033d8:	4233      	tst	r3, r6
 80033da:	d01d      	beq.n	8003418 <evt1_execute+0x118>
 80033dc:	4642      	mov	r2, r8
 80033de:	00a3      	lsls	r3, r4, #2
 80033e0:	58d3      	ldr	r3, [r2, r3]
 80033e2:	2b00      	cmp	r3, #0
 80033e4:	d014      	beq.n	8003410 <evt1_execute+0x110>
 80033e6:	0032      	movs	r2, r6
 80033e8:	40a2      	lsls	r2, r4
 80033ea:	0020      	movs	r0, r4
 80033ec:	4397      	bics	r7, r2
 80033ee:	3401      	adds	r4, #1
 80033f0:	4798      	blx	r3
 80033f2:	2f00      	cmp	r7, #0
 80033f4:	d1ee      	bne.n	80033d4 <evt1_execute+0xd4>
 80033f6:	490c      	ldr	r1, [pc, #48]	; (8003428 <evt1_execute+0x128>)
 80033f8:	2004      	movs	r0, #4
 80033fa:	f7fd f8c9 	bl	8000590 <_test_assert_sequence>
 80033fe:	e7c4      	b.n	800338a <evt1_execute+0x8a>
 8003400:	b672      	cpsid	i
 8003402:	4b0a      	ldr	r3, [pc, #40]	; (800342c <evt1_execute+0x12c>)
 8003404:	62eb      	str	r3, [r5, #44]	; 0x2c
 8003406:	e7fe      	b.n	8003406 <evt1_execute+0x106>
 8003408:	b672      	cpsid	i
 800340a:	4b08      	ldr	r3, [pc, #32]	; (800342c <evt1_execute+0x12c>)
 800340c:	62eb      	str	r3, [r5, #44]	; 0x2c
 800340e:	e7fe      	b.n	800340e <evt1_execute+0x10e>
 8003410:	b672      	cpsid	i
 8003412:	4b07      	ldr	r3, [pc, #28]	; (8003430 <evt1_execute+0x130>)
 8003414:	62eb      	str	r3, [r5, #44]	; 0x2c
 8003416:	e7fe      	b.n	8003416 <evt1_execute+0x116>
 8003418:	3401      	adds	r4, #1
 800341a:	e7db      	b.n	80033d4 <evt1_execute+0xd4>
 800341c:	20000608 	.word	0x20000608
 8003420:	20000738 	.word	0x20000738
 8003424:	08007f60 	.word	0x08007f60
 8003428:	08007f70 	.word	0x08007f70
 800342c:	080079d0 	.word	0x080079d0
 8003430:	08007c70 	.word	0x08007c70
	...

08003440 <chMtxUnlockAll>:
 8003440:	b5f0      	push	{r4, r5, r6, r7, lr}
 8003442:	46c6      	mov	lr, r8
 8003444:	4d1c      	ldr	r5, [pc, #112]	; (80034b8 <chMtxUnlockAll+0x78>)
 8003446:	b500      	push	{lr}
 8003448:	69ae      	ldr	r6, [r5, #24]
 800344a:	b672      	cpsid	i
 800344c:	f7fe fad0 	bl	80019f0 <_dbg_check_lock>
 8003450:	6bf4      	ldr	r4, [r6, #60]	; 0x3c
 8003452:	2c00      	cmp	r4, #0
 8003454:	d01d      	beq.n	8003492 <chMtxUnlockAll+0x52>
 8003456:	2300      	movs	r3, #0
 8003458:	4698      	mov	r8, r3
 800345a:	e00b      	b.n	8003474 <chMtxUnlockAll+0x34>
 800345c:	6803      	ldr	r3, [r0, #0]
 800345e:	6023      	str	r3, [r4, #0]
 8003460:	605c      	str	r4, [r3, #4]
 8003462:	6bc3      	ldr	r3, [r0, #60]	; 0x3c
 8003464:	60a0      	str	r0, [r4, #8]
 8003466:	60e3      	str	r3, [r4, #12]
 8003468:	63c4      	str	r4, [r0, #60]	; 0x3c
 800346a:	f7fd f9c9 	bl	8000800 <chSchReadyI>
 800346e:	6bf4      	ldr	r4, [r6, #60]	; 0x3c
 8003470:	2c00      	cmp	r4, #0
 8003472:	d00a      	beq.n	800348a <chMtxUnlockAll+0x4a>
 8003474:	68e7      	ldr	r7, [r4, #12]
 8003476:	63f7      	str	r7, [r6, #60]	; 0x3c
 8003478:	f7fd f962 	bl	8000740 <chDbgCheckClassS>
 800347c:	6820      	ldr	r0, [r4, #0]
 800347e:	4284      	cmp	r4, r0
 8003480:	d1ec      	bne.n	800345c <chMtxUnlockAll+0x1c>
 8003482:	4643      	mov	r3, r8
 8003484:	60a3      	str	r3, [r4, #8]
 8003486:	1e3c      	subs	r4, r7, #0
 8003488:	d1f4      	bne.n	8003474 <chMtxUnlockAll+0x34>
 800348a:	6c33      	ldr	r3, [r6, #64]	; 0x40
 800348c:	60b3      	str	r3, [r6, #8]
 800348e:	f7fe f837 	bl	8001500 <chSchRescheduleS>
 8003492:	f7fe f9fd 	bl	8001890 <_dbg_check_unlock>
 8003496:	682b      	ldr	r3, [r5, #0]
 8003498:	42ab      	cmp	r3, r5
 800349a:	d004      	beq.n	80034a6 <chMtxUnlockAll+0x66>
 800349c:	69aa      	ldr	r2, [r5, #24]
 800349e:	689b      	ldr	r3, [r3, #8]
 80034a0:	6892      	ldr	r2, [r2, #8]
 80034a2:	429a      	cmp	r2, r3
 80034a4:	d303      	bcc.n	80034ae <chMtxUnlockAll+0x6e>
 80034a6:	b662      	cpsie	i
 80034a8:	bc04      	pop	{r2}
 80034aa:	4690      	mov	r8, r2
 80034ac:	bdf0      	pop	{r4, r5, r6, r7, pc}
 80034ae:	b672      	cpsid	i
 80034b0:	4b02      	ldr	r3, [pc, #8]	; (80034bc <chMtxUnlockAll+0x7c>)
 80034b2:	62eb      	str	r3, [r5, #44]	; 0x2c
 80034b4:	e7fe      	b.n	80034b4 <chMtxUnlockAll+0x74>
 80034b6:	46c0      	nop			; (mov r8, r8)
 80034b8:	20000738 	.word	0x20000738
 80034bc:	080079b0 	.word	0x080079b0

080034c0 <chMtxUnlock>:
 80034c0:	b5f8      	push	{r3, r4, r5, r6, r7, lr}
 80034c2:	46ce      	mov	lr, r9
 80034c4:	4647      	mov	r7, r8
 80034c6:	0004      	movs	r4, r0
 80034c8:	b580      	push	{r7, lr}
 80034ca:	2800      	cmp	r0, #0
 80034cc:	d017      	beq.n	80034fe <chMtxUnlock+0x3e>
 80034ce:	4d2f      	ldr	r5, [pc, #188]	; (800358c <chMtxUnlock+0xcc>)
 80034d0:	69ab      	ldr	r3, [r5, #24]
 80034d2:	4698      	mov	r8, r3
 80034d4:	b672      	cpsid	i
 80034d6:	f7fe fa8b 	bl	80019f0 <_dbg_check_lock>
 80034da:	4643      	mov	r3, r8
 80034dc:	6bdb      	ldr	r3, [r3, #60]	; 0x3c
 80034de:	4699      	mov	r9, r3
 80034e0:	2b00      	cmp	r3, #0
 80034e2:	d04f      	beq.n	8003584 <chMtxUnlock+0xc4>
 80034e4:	689b      	ldr	r3, [r3, #8]
 80034e6:	4543      	cmp	r3, r8
 80034e8:	d003      	beq.n	80034f2 <chMtxUnlock+0x32>
 80034ea:	b672      	cpsid	i
 80034ec:	4b28      	ldr	r3, [pc, #160]	; (8003590 <chMtxUnlock+0xd0>)
 80034ee:	62eb      	str	r3, [r5, #44]	; 0x2c
 80034f0:	e7fe      	b.n	80034f0 <chMtxUnlock+0x30>
 80034f2:	45a1      	cmp	r9, r4
 80034f4:	d008      	beq.n	8003508 <chMtxUnlock+0x48>
 80034f6:	b672      	cpsid	i
 80034f8:	4b25      	ldr	r3, [pc, #148]	; (8003590 <chMtxUnlock+0xd0>)
 80034fa:	62eb      	str	r3, [r5, #44]	; 0x2c
 80034fc:	e7fe      	b.n	80034fc <chMtxUnlock+0x3c>
 80034fe:	b672      	cpsid	i
 8003500:	4b22      	ldr	r3, [pc, #136]	; (800358c <chMtxUnlock+0xcc>)
 8003502:	4a23      	ldr	r2, [pc, #140]	; (8003590 <chMtxUnlock+0xd0>)
 8003504:	62da      	str	r2, [r3, #44]	; 0x2c
 8003506:	e7fe      	b.n	8003506 <chMtxUnlock+0x46>
 8003508:	4643      	mov	r3, r8
 800350a:	68e6      	ldr	r6, [r4, #12]
 800350c:	63de      	str	r6, [r3, #60]	; 0x3c
 800350e:	f7fd f917 	bl	8000740 <chDbgCheckClassS>
 8003512:	6827      	ldr	r7, [r4, #0]
 8003514:	42bc      	cmp	r4, r7
 8003516:	d031      	beq.n	800357c <chMtxUnlock+0xbc>
 8003518:	4643      	mov	r3, r8
 800351a:	6c1b      	ldr	r3, [r3, #64]	; 0x40
 800351c:	4699      	mov	r9, r3
 800351e:	2e00      	cmp	r6, #0
 8003520:	d00b      	beq.n	800353a <chMtxUnlock+0x7a>
 8003522:	f7fd f90d 	bl	8000740 <chDbgCheckClassS>
 8003526:	6833      	ldr	r3, [r6, #0]
 8003528:	429e      	cmp	r6, r3
 800352a:	d003      	beq.n	8003534 <chMtxUnlock+0x74>
 800352c:	689b      	ldr	r3, [r3, #8]
 800352e:	4599      	cmp	r9, r3
 8003530:	d200      	bcs.n	8003534 <chMtxUnlock+0x74>
 8003532:	4699      	mov	r9, r3
 8003534:	68f6      	ldr	r6, [r6, #12]
 8003536:	2e00      	cmp	r6, #0
 8003538:	d1f3      	bne.n	8003522 <chMtxUnlock+0x62>
 800353a:	4643      	mov	r3, r8
 800353c:	464a      	mov	r2, r9
 800353e:	609a      	str	r2, [r3, #8]
 8003540:	683b      	ldr	r3, [r7, #0]
 8003542:	2100      	movs	r1, #0
 8003544:	6023      	str	r3, [r4, #0]
 8003546:	605c      	str	r4, [r3, #4]
 8003548:	6bfb      	ldr	r3, [r7, #60]	; 0x3c
 800354a:	60a7      	str	r7, [r4, #8]
 800354c:	60e3      	str	r3, [r4, #12]
 800354e:	0038      	movs	r0, r7
 8003550:	63fc      	str	r4, [r7, #60]	; 0x3c
 8003552:	f7fd ffed 	bl	8001530 <chSchWakeupS>
 8003556:	f7fe f99b 	bl	8001890 <_dbg_check_unlock>
 800355a:	682b      	ldr	r3, [r5, #0]
 800355c:	42ab      	cmp	r3, r5
 800355e:	d004      	beq.n	800356a <chMtxUnlock+0xaa>
 8003560:	69aa      	ldr	r2, [r5, #24]
 8003562:	689b      	ldr	r3, [r3, #8]
 8003564:	6892      	ldr	r2, [r2, #8]
 8003566:	429a      	cmp	r2, r3
 8003568:	d304      	bcc.n	8003574 <chMtxUnlock+0xb4>
 800356a:	b662      	cpsie	i
 800356c:	bc0c      	pop	{r2, r3}
 800356e:	4690      	mov	r8, r2
 8003570:	4699      	mov	r9, r3
 8003572:	bdf8      	pop	{r3, r4, r5, r6, r7, pc}
 8003574:	b672      	cpsid	i
 8003576:	4b07      	ldr	r3, [pc, #28]	; (8003594 <chMtxUnlock+0xd4>)
 8003578:	62eb      	str	r3, [r5, #44]	; 0x2c
 800357a:	e7fe      	b.n	800357a <chMtxUnlock+0xba>
 800357c:	2300      	movs	r3, #0
 800357e:	464a      	mov	r2, r9
 8003580:	6093      	str	r3, [r2, #8]
 8003582:	e7e8      	b.n	8003556 <chMtxUnlock+0x96>
 8003584:	b672      	cpsid	i
 8003586:	4b02      	ldr	r3, [pc, #8]	; (8003590 <chMtxUnlock+0xd0>)
 8003588:	62eb      	str	r3, [r5, #44]	; 0x2c
 800358a:	e7fe      	b.n	800358a <chMtxUnlock+0xca>
 800358c:	20000738 	.word	0x20000738
 8003590:	08007b80 	.word	0x08007b80
 8003594:	080079b0 	.word	0x080079b0
	...

080035a0 <chMtxLock>:
 80035a0:	b510      	push	{r4, lr}
 80035a2:	0004      	movs	r4, r0
 80035a4:	b672      	cpsid	i
 80035a6:	f7fe fa23 	bl	80019f0 <_dbg_check_lock>
 80035aa:	0020      	movs	r0, r4
 80035ac:	f7fe f818 	bl	80015e0 <chMtxLockS>
 80035b0:	f7fe f96e 	bl	8001890 <_dbg_check_unlock>
 80035b4:	4b07      	ldr	r3, [pc, #28]	; (80035d4 <chMtxLock+0x34>)
 80035b6:	681a      	ldr	r2, [r3, #0]
 80035b8:	429a      	cmp	r2, r3
 80035ba:	d004      	beq.n	80035c6 <chMtxLock+0x26>
 80035bc:	6999      	ldr	r1, [r3, #24]
 80035be:	6892      	ldr	r2, [r2, #8]
 80035c0:	6889      	ldr	r1, [r1, #8]
 80035c2:	4291      	cmp	r1, r2
 80035c4:	d301      	bcc.n	80035ca <chMtxLock+0x2a>
 80035c6:	b662      	cpsie	i
 80035c8:	bd10      	pop	{r4, pc}
 80035ca:	b672      	cpsid	i
 80035cc:	4a02      	ldr	r2, [pc, #8]	; (80035d8 <chMtxLock+0x38>)
 80035ce:	62da      	str	r2, [r3, #44]	; 0x2c
 80035d0:	e7fe      	b.n	80035d0 <chMtxLock+0x30>
 80035d2:	46c0      	nop			; (mov r8, r8)
 80035d4:	20000738 	.word	0x20000738
 80035d8:	080079b0 	.word	0x080079b0
 80035dc:	00000000 	.word	0x00000000

080035e0 <thread11>:
 80035e0:	b5f0      	push	{r4, r5, r6, r7, lr}
 80035e2:	46c6      	mov	lr, r8
 80035e4:	4e29      	ldr	r6, [pc, #164]	; (800368c <thread11+0xac>)
 80035e6:	b500      	push	{lr}
 80035e8:	4680      	mov	r8, r0
 80035ea:	0030      	movs	r0, r6
 80035ec:	f7ff ffd8 	bl	80035a0 <chMtxLock>
 80035f0:	4f27      	ldr	r7, [pc, #156]	; (8003690 <thread11+0xb0>)
 80035f2:	0038      	movs	r0, r7
 80035f4:	f7ff ffd4 	bl	80035a0 <chMtxLock>
 80035f8:	b672      	cpsid	i
 80035fa:	f7fe f9f9 	bl	80019f0 <_dbg_check_lock>
 80035fe:	f7fd f89f 	bl	8000740 <chDbgCheckClassS>
 8003602:	4c24      	ldr	r4, [pc, #144]	; (8003694 <thread11+0xb4>)
 8003604:	69a3      	ldr	r3, [r4, #24]
 8003606:	6bdd      	ldr	r5, [r3, #60]	; 0x3c
 8003608:	2d00      	cmp	r5, #0
 800360a:	d036      	beq.n	800367a <thread11+0x9a>
 800360c:	0028      	movs	r0, r5
 800360e:	f7fd f9e7 	bl	80009e0 <chMtxUnlockS>
 8003612:	4921      	ldr	r1, [pc, #132]	; (8003698 <thread11+0xb8>)
 8003614:	69a2      	ldr	r2, [r4, #24]
 8003616:	000b      	movs	r3, r1
 8003618:	6251      	str	r1, [r2, #36]	; 0x24
 800361a:	e004      	b.n	8003626 <thread11+0x46>
 800361c:	6898      	ldr	r0, [r3, #8]
 800361e:	4684      	mov	ip, r0
 8003620:	6890      	ldr	r0, [r2, #8]
 8003622:	4584      	cmp	ip, r0
 8003624:	d302      	bcc.n	800362c <thread11+0x4c>
 8003626:	681b      	ldr	r3, [r3, #0]
 8003628:	428b      	cmp	r3, r1
 800362a:	d1f7      	bne.n	800361c <thread11+0x3c>
 800362c:	6859      	ldr	r1, [r3, #4]
 800362e:	6013      	str	r3, [r2, #0]
 8003630:	6051      	str	r1, [r2, #4]
 8003632:	600a      	str	r2, [r1, #0]
 8003634:	2101      	movs	r1, #1
 8003636:	605a      	str	r2, [r3, #4]
 8003638:	4249      	negs	r1, r1
 800363a:	2007      	movs	r0, #7
 800363c:	f7fe f850 	bl	80016e0 <chSchGoSleepTimeoutS>
 8003640:	1c43      	adds	r3, r0, #1
 8003642:	d002      	beq.n	800364a <thread11+0x6a>
 8003644:	0028      	movs	r0, r5
 8003646:	f7fd ffcb 	bl	80015e0 <chMtxLockS>
 800364a:	f7fe f921 	bl	8001890 <_dbg_check_unlock>
 800364e:	6823      	ldr	r3, [r4, #0]
 8003650:	42a3      	cmp	r3, r4
 8003652:	d004      	beq.n	800365e <thread11+0x7e>
 8003654:	69a2      	ldr	r2, [r4, #24]
 8003656:	689b      	ldr	r3, [r3, #8]
 8003658:	6892      	ldr	r2, [r2, #8]
 800365a:	429a      	cmp	r2, r3
 800365c:	d311      	bcc.n	8003682 <thread11+0xa2>
 800365e:	b662      	cpsie	i
 8003660:	4643      	mov	r3, r8
 8003662:	7818      	ldrb	r0, [r3, #0]
 8003664:	f7fe fecc 	bl	8002400 <test_emit_token>
 8003668:	0038      	movs	r0, r7
 800366a:	f7ff ff29 	bl	80034c0 <chMtxUnlock>
 800366e:	0030      	movs	r0, r6
 8003670:	f7ff ff26 	bl	80034c0 <chMtxUnlock>
 8003674:	bc04      	pop	{r2}
 8003676:	4690      	mov	r8, r2
 8003678:	bdf0      	pop	{r4, r5, r6, r7, pc}
 800367a:	b672      	cpsid	i
 800367c:	4b07      	ldr	r3, [pc, #28]	; (800369c <thread11+0xbc>)
 800367e:	62e3      	str	r3, [r4, #44]	; 0x2c
 8003680:	e7fe      	b.n	8003680 <thread11+0xa0>
 8003682:	b672      	cpsid	i
 8003684:	4b06      	ldr	r3, [pc, #24]	; (80036a0 <thread11+0xc0>)
 8003686:	62e3      	str	r3, [r4, #44]	; 0x2c
 8003688:	e7fe      	b.n	8003688 <thread11+0xa8>
 800368a:	46c0      	nop			; (mov r8, r8)
 800368c:	20000644 	.word	0x20000644
 8003690:	20000634 	.word	0x20000634
 8003694:	20000738 	.word	0x20000738
 8003698:	20000600 	.word	0x20000600
 800369c:	08007c10 	.word	0x08007c10
 80036a0:	080079c0 	.word	0x080079c0
	...

080036b0 <thread10>:
 80036b0:	b5f0      	push	{r4, r5, r6, r7, lr}
 80036b2:	46c6      	mov	lr, r8
 80036b4:	4f22      	ldr	r7, [pc, #136]	; (8003740 <thread10+0x90>)
 80036b6:	b500      	push	{lr}
 80036b8:	4680      	mov	r8, r0
 80036ba:	0038      	movs	r0, r7
 80036bc:	f7ff ff70 	bl	80035a0 <chMtxLock>
 80036c0:	b672      	cpsid	i
 80036c2:	f7fe f995 	bl	80019f0 <_dbg_check_lock>
 80036c6:	4d1f      	ldr	r5, [pc, #124]	; (8003744 <thread10+0x94>)
 80036c8:	f7fd f83a 	bl	8000740 <chDbgCheckClassS>
 80036cc:	69ac      	ldr	r4, [r5, #24]
 80036ce:	6be6      	ldr	r6, [r4, #60]	; 0x3c
 80036d0:	2e00      	cmp	r6, #0
 80036d2:	d02d      	beq.n	8003730 <thread10+0x80>
 80036d4:	0030      	movs	r0, r6
 80036d6:	f7fd f983 	bl	80009e0 <chMtxUnlockS>
 80036da:	4a1b      	ldr	r2, [pc, #108]	; (8003748 <thread10+0x98>)
 80036dc:	6262      	str	r2, [r4, #36]	; 0x24
 80036de:	0013      	movs	r3, r2
 80036e0:	e003      	b.n	80036ea <thread10+0x3a>
 80036e2:	6899      	ldr	r1, [r3, #8]
 80036e4:	68a0      	ldr	r0, [r4, #8]
 80036e6:	4281      	cmp	r1, r0
 80036e8:	d302      	bcc.n	80036f0 <thread10+0x40>
 80036ea:	681b      	ldr	r3, [r3, #0]
 80036ec:	4293      	cmp	r3, r2
 80036ee:	d1f8      	bne.n	80036e2 <thread10+0x32>
 80036f0:	685a      	ldr	r2, [r3, #4]
 80036f2:	6023      	str	r3, [r4, #0]
 80036f4:	6062      	str	r2, [r4, #4]
 80036f6:	2007      	movs	r0, #7
 80036f8:	6014      	str	r4, [r2, #0]
 80036fa:	605c      	str	r4, [r3, #4]
 80036fc:	f7fd ff48 	bl	8001590 <chSchGoSleepS>
 8003700:	0030      	movs	r0, r6
 8003702:	f7fd ff6d 	bl	80015e0 <chMtxLockS>
 8003706:	f7fe f8c3 	bl	8001890 <_dbg_check_unlock>
 800370a:	682b      	ldr	r3, [r5, #0]
 800370c:	42ab      	cmp	r3, r5
 800370e:	d004      	beq.n	800371a <thread10+0x6a>
 8003710:	69aa      	ldr	r2, [r5, #24]
 8003712:	689b      	ldr	r3, [r3, #8]
 8003714:	6892      	ldr	r2, [r2, #8]
 8003716:	429a      	cmp	r2, r3
 8003718:	d30e      	bcc.n	8003738 <thread10+0x88>
 800371a:	b662      	cpsie	i
 800371c:	4643      	mov	r3, r8
 800371e:	7818      	ldrb	r0, [r3, #0]
 8003720:	f7fe fe6e 	bl	8002400 <test_emit_token>
 8003724:	0038      	movs	r0, r7
 8003726:	f7ff fecb 	bl	80034c0 <chMtxUnlock>
 800372a:	bc04      	pop	{r2}
 800372c:	4690      	mov	r8, r2
 800372e:	bdf0      	pop	{r4, r5, r6, r7, pc}
 8003730:	b672      	cpsid	i
 8003732:	4b06      	ldr	r3, [pc, #24]	; (800374c <thread10+0x9c>)
 8003734:	62eb      	str	r3, [r5, #44]	; 0x2c
 8003736:	e7fe      	b.n	8003736 <thread10+0x86>
 8003738:	b672      	cpsid	i
 800373a:	4b05      	ldr	r3, [pc, #20]	; (8003750 <thread10+0xa0>)
 800373c:	62eb      	str	r3, [r5, #44]	; 0x2c
 800373e:	e7fe      	b.n	800373e <thread10+0x8e>
 8003740:	20000634 	.word	0x20000634
 8003744:	20000738 	.word	0x20000738
 8003748:	20000600 	.word	0x20000600
 800374c:	08007b70 	.word	0x08007b70
 8003750:	080079c0 	.word	0x080079c0
	...

08003760 <thread12>:
 8003760:	b570      	push	{r4, r5, r6, lr}
 8003762:	0005      	movs	r5, r0
 8003764:	4c05      	ldr	r4, [pc, #20]	; (800377c <thread12+0x1c>)
 8003766:	0020      	movs	r0, r4
 8003768:	f7ff ff1a 	bl	80035a0 <chMtxLock>
 800376c:	7828      	ldrb	r0, [r5, #0]
 800376e:	f7fe fe47 	bl	8002400 <test_emit_token>
 8003772:	0020      	movs	r0, r4
 8003774:	f7ff fea4 	bl	80034c0 <chMtxUnlock>
 8003778:	bd70      	pop	{r4, r5, r6, pc}
 800377a:	46c0      	nop			; (mov r8, r8)
 800377c:	20000644 	.word	0x20000644

08003780 <mtx5_execute>:
 8003780:	b570      	push	{r4, r5, r6, lr}
 8003782:	4d30      	ldr	r5, [pc, #192]	; (8003844 <mtx5_execute+0xc4>)
 8003784:	69ab      	ldr	r3, [r5, #24]
 8003786:	689e      	ldr	r6, [r3, #8]
 8003788:	f7fe f9ba 	bl	8001b00 <chMtxTryLock.constprop.50>
 800378c:	0001      	movs	r1, r0
 800378e:	2001      	movs	r0, #1
 8003790:	f7fc ff26 	bl	80005e0 <_test_assert>
 8003794:	2800      	cmp	r0, #0
 8003796:	d000      	beq.n	800379a <mtx5_execute+0x1a>
 8003798:	bd70      	pop	{r4, r5, r6, pc}
 800379a:	f7fe f9b1 	bl	8001b00 <chMtxTryLock.constprop.50>
 800379e:	2101      	movs	r1, #1
 80037a0:	4041      	eors	r1, r0
 80037a2:	b2c9      	uxtb	r1, r1
 80037a4:	2002      	movs	r0, #2
 80037a6:	f7fc ff1b 	bl	80005e0 <_test_assert>
 80037aa:	2800      	cmp	r0, #0
 80037ac:	d1f4      	bne.n	8003798 <mtx5_execute+0x18>
 80037ae:	b672      	cpsid	i
 80037b0:	f7fe f91e 	bl	80019f0 <_dbg_check_lock>
 80037b4:	4c24      	ldr	r4, [pc, #144]	; (8003848 <mtx5_execute+0xc8>)
 80037b6:	0020      	movs	r0, r4
 80037b8:	f7fd f912 	bl	80009e0 <chMtxUnlockS>
 80037bc:	f7fe f868 	bl	8001890 <_dbg_check_unlock>
 80037c0:	682b      	ldr	r3, [r5, #0]
 80037c2:	42ab      	cmp	r3, r5
 80037c4:	d004      	beq.n	80037d0 <mtx5_execute+0x50>
 80037c6:	69aa      	ldr	r2, [r5, #24]
 80037c8:	689b      	ldr	r3, [r3, #8]
 80037ca:	6892      	ldr	r2, [r2, #8]
 80037cc:	429a      	cmp	r2, r3
 80037ce:	d335      	bcc.n	800383c <mtx5_execute+0xbc>
 80037d0:	b662      	cpsie	i
 80037d2:	6823      	ldr	r3, [r4, #0]
 80037d4:	2003      	movs	r0, #3
 80037d6:	1b19      	subs	r1, r3, r4
 80037d8:	424b      	negs	r3, r1
 80037da:	4159      	adcs	r1, r3
 80037dc:	b2c9      	uxtb	r1, r1
 80037de:	f7fc feff 	bl	80005e0 <_test_assert>
 80037e2:	2800      	cmp	r0, #0
 80037e4:	d1d8      	bne.n	8003798 <mtx5_execute+0x18>
 80037e6:	68a1      	ldr	r1, [r4, #8]
 80037e8:	3004      	adds	r0, #4
 80037ea:	424b      	negs	r3, r1
 80037ec:	4159      	adcs	r1, r3
 80037ee:	b2c9      	uxtb	r1, r1
 80037f0:	f7fc fef6 	bl	80005e0 <_test_assert>
 80037f4:	2800      	cmp	r0, #0
 80037f6:	d1cf      	bne.n	8003798 <mtx5_execute+0x18>
 80037f8:	69ab      	ldr	r3, [r5, #24]
 80037fa:	3005      	adds	r0, #5
 80037fc:	6899      	ldr	r1, [r3, #8]
 80037fe:	1b89      	subs	r1, r1, r6
 8003800:	424b      	negs	r3, r1
 8003802:	4159      	adcs	r1, r3
 8003804:	b2c9      	uxtb	r1, r1
 8003806:	f7fc feeb 	bl	80005e0 <_test_assert>
 800380a:	2800      	cmp	r0, #0
 800380c:	d1c4      	bne.n	8003798 <mtx5_execute+0x18>
 800380e:	0020      	movs	r0, r4
 8003810:	f7ff fec6 	bl	80035a0 <chMtxLock>
 8003814:	f7ff fe14 	bl	8003440 <chMtxUnlockAll>
 8003818:	6823      	ldr	r3, [r4, #0]
 800381a:	2006      	movs	r0, #6
 800381c:	1b19      	subs	r1, r3, r4
 800381e:	424b      	negs	r3, r1
 8003820:	4159      	adcs	r1, r3
 8003822:	b2c9      	uxtb	r1, r1
 8003824:	f7fc fedc 	bl	80005e0 <_test_assert>
 8003828:	2800      	cmp	r0, #0
 800382a:	d1b5      	bne.n	8003798 <mtx5_execute+0x18>
 800382c:	68a1      	ldr	r1, [r4, #8]
 800382e:	3007      	adds	r0, #7
 8003830:	424b      	negs	r3, r1
 8003832:	4159      	adcs	r1, r3
 8003834:	b2c9      	uxtb	r1, r1
 8003836:	f7fc fed3 	bl	80005e0 <_test_assert>
 800383a:	e7ad      	b.n	8003798 <mtx5_execute+0x18>
 800383c:	b672      	cpsid	i
 800383e:	4b03      	ldr	r3, [pc, #12]	; (800384c <mtx5_execute+0xcc>)
 8003840:	62eb      	str	r3, [r5, #44]	; 0x2c
 8003842:	e7fe      	b.n	8003842 <mtx5_execute+0xc2>
 8003844:	20000738 	.word	0x20000738
 8003848:	20000634 	.word	0x20000634
 800384c:	08007900 	.word	0x08007900

08003850 <thread1.lto_priv.133>:
 8003850:	b570      	push	{r4, r5, r6, lr}
 8003852:	0005      	movs	r5, r0
 8003854:	4c05      	ldr	r4, [pc, #20]	; (800386c <thread1.lto_priv.133+0x1c>)
 8003856:	0020      	movs	r0, r4
 8003858:	f7ff fea2 	bl	80035a0 <chMtxLock>
 800385c:	7828      	ldrb	r0, [r5, #0]
 800385e:	f7fe fdcf 	bl	8002400 <test_emit_token>
 8003862:	0020      	movs	r0, r4
 8003864:	f7ff fe2c 	bl	80034c0 <chMtxUnlock>
 8003868:	bd70      	pop	{r4, r5, r6, pc}
 800386a:	46c0      	nop			; (mov r8, r8)
 800386c:	20000634 	.word	0x20000634

08003870 <chHeapStatus>:
 8003870:	b570      	push	{r4, r5, r6, lr}
 8003872:	0004      	movs	r4, r0
 8003874:	000e      	movs	r6, r1
 8003876:	2800      	cmp	r0, #0
 8003878:	d016      	beq.n	80038a8 <chHeapStatus+0x38>
 800387a:	0025      	movs	r5, r4
 800387c:	3510      	adds	r5, #16
 800387e:	0028      	movs	r0, r5
 8003880:	f7ff fe8e 	bl	80035a0 <chMtxLock>
 8003884:	68a3      	ldr	r3, [r4, #8]
 8003886:	2200      	movs	r2, #0
 8003888:	2400      	movs	r4, #0
 800388a:	2b00      	cmp	r3, #0
 800388c:	d006      	beq.n	800389c <chHeapStatus+0x2c>
 800388e:	6859      	ldr	r1, [r3, #4]
 8003890:	681b      	ldr	r3, [r3, #0]
 8003892:	468c      	mov	ip, r1
 8003894:	3401      	adds	r4, #1
 8003896:	4462      	add	r2, ip
 8003898:	2b00      	cmp	r3, #0
 800389a:	d1f8      	bne.n	800388e <chHeapStatus+0x1e>
 800389c:	0028      	movs	r0, r5
 800389e:	6032      	str	r2, [r6, #0]
 80038a0:	f7ff fe0e 	bl	80034c0 <chMtxUnlock>
 80038a4:	0020      	movs	r0, r4
 80038a6:	bd70      	pop	{r4, r5, r6, pc}
 80038a8:	4c00      	ldr	r4, [pc, #0]	; (80038ac <chHeapStatus+0x3c>)
 80038aa:	e7e6      	b.n	800387a <chHeapStatus+0xa>
 80038ac:	20000ca8 	.word	0x20000ca8

080038b0 <chHeapFree>:
 80038b0:	b5f8      	push	{r3, r4, r5, r6, r7, lr}
 80038b2:	1e05      	subs	r5, r0, #0
 80038b4:	d020      	beq.n	80038f8 <chHeapFree+0x48>
 80038b6:	0004      	movs	r4, r0
 80038b8:	3c08      	subs	r4, #8
 80038ba:	6826      	ldr	r6, [r4, #0]
 80038bc:	0037      	movs	r7, r6
 80038be:	3610      	adds	r6, #16
 80038c0:	3708      	adds	r7, #8
 80038c2:	0030      	movs	r0, r6
 80038c4:	f7ff fe6c 	bl	80035a0 <chMtxLock>
 80038c8:	003b      	movs	r3, r7
 80038ca:	42a3      	cmp	r3, r4
 80038cc:	d804      	bhi.n	80038d8 <chHeapFree+0x28>
 80038ce:	685a      	ldr	r2, [r3, #4]
 80038d0:	3208      	adds	r2, #8
 80038d2:	189a      	adds	r2, r3, r2
 80038d4:	4294      	cmp	r4, r2
 80038d6:	d30a      	bcc.n	80038ee <chHeapFree+0x3e>
 80038d8:	681a      	ldr	r2, [r3, #0]
 80038da:	42bb      	cmp	r3, r7
 80038dc:	d001      	beq.n	80038e2 <chHeapFree+0x32>
 80038de:	42a3      	cmp	r3, r4
 80038e0:	d203      	bcs.n	80038ea <chHeapFree+0x3a>
 80038e2:	2a00      	cmp	r2, #0
 80038e4:	d00d      	beq.n	8003902 <chHeapFree+0x52>
 80038e6:	4294      	cmp	r4, r2
 80038e8:	d30b      	bcc.n	8003902 <chHeapFree+0x52>
 80038ea:	0013      	movs	r3, r2
 80038ec:	e7ed      	b.n	80038ca <chHeapFree+0x1a>
 80038ee:	b672      	cpsid	i
 80038f0:	4b13      	ldr	r3, [pc, #76]	; (8003940 <chHeapFree+0x90>)
 80038f2:	4a14      	ldr	r2, [pc, #80]	; (8003944 <chHeapFree+0x94>)
 80038f4:	62da      	str	r2, [r3, #44]	; 0x2c
 80038f6:	e7fe      	b.n	80038f6 <chHeapFree+0x46>
 80038f8:	b672      	cpsid	i
 80038fa:	4b11      	ldr	r3, [pc, #68]	; (8003940 <chHeapFree+0x90>)
 80038fc:	4a11      	ldr	r2, [pc, #68]	; (8003944 <chHeapFree+0x94>)
 80038fe:	62da      	str	r2, [r3, #44]	; 0x2c
 8003900:	e7fe      	b.n	8003900 <chHeapFree+0x50>
 8003902:	6022      	str	r2, [r4, #0]
 8003904:	601c      	str	r4, [r3, #0]
 8003906:	6862      	ldr	r2, [r4, #4]
 8003908:	6821      	ldr	r1, [r4, #0]
 800390a:	18ad      	adds	r5, r5, r2
 800390c:	428d      	cmp	r5, r1
 800390e:	d106      	bne.n	800391e <chHeapFree+0x6e>
 8003910:	6869      	ldr	r1, [r5, #4]
 8003912:	3208      	adds	r2, #8
 8003914:	468c      	mov	ip, r1
 8003916:	4462      	add	r2, ip
 8003918:	6062      	str	r2, [r4, #4]
 800391a:	682a      	ldr	r2, [r5, #0]
 800391c:	6022      	str	r2, [r4, #0]
 800391e:	6858      	ldr	r0, [r3, #4]
 8003920:	0001      	movs	r1, r0
 8003922:	3108      	adds	r1, #8
 8003924:	1859      	adds	r1, r3, r1
 8003926:	428c      	cmp	r4, r1
 8003928:	d105      	bne.n	8003936 <chHeapFree+0x86>
 800392a:	6862      	ldr	r2, [r4, #4]
 800392c:	3208      	adds	r2, #8
 800392e:	1812      	adds	r2, r2, r0
 8003930:	605a      	str	r2, [r3, #4]
 8003932:	6822      	ldr	r2, [r4, #0]
 8003934:	601a      	str	r2, [r3, #0]
 8003936:	0030      	movs	r0, r6
 8003938:	f7ff fdc2 	bl	80034c0 <chMtxUnlock>
 800393c:	bdf8      	pop	{r3, r4, r5, r6, r7, pc}
 800393e:	46c0      	nop			; (mov r8, r8)
 8003940:	20000738 	.word	0x20000738
 8003944:	08007b20 	.word	0x08007b20
	...

08003950 <chHeapAlloc>:
 8003950:	b5f0      	push	{r4, r5, r6, r7, lr}
 8003952:	46c6      	mov	lr, r8
 8003954:	0007      	movs	r7, r0
 8003956:	b500      	push	{lr}
 8003958:	2800      	cmp	r0, #0
 800395a:	d030      	beq.n	80039be <chHeapAlloc+0x6e>
 800395c:	2307      	movs	r3, #7
 800395e:	1dce      	adds	r6, r1, #7
 8003960:	439e      	bics	r6, r3
 8003962:	3309      	adds	r3, #9
 8003964:	4698      	mov	r8, r3
 8003966:	003d      	movs	r5, r7
 8003968:	44b8      	add	r8, r7
 800396a:	4640      	mov	r0, r8
 800396c:	3508      	adds	r5, #8
 800396e:	f7ff fe17 	bl	80035a0 <chMtxLock>
 8003972:	e003      	b.n	800397c <chHeapAlloc+0x2c>
 8003974:	6863      	ldr	r3, [r4, #4]
 8003976:	42b3      	cmp	r3, r6
 8003978:	d214      	bcs.n	80039a4 <chHeapAlloc+0x54>
 800397a:	0025      	movs	r5, r4
 800397c:	682c      	ldr	r4, [r5, #0]
 800397e:	2c00      	cmp	r4, #0
 8003980:	d1f8      	bne.n	8003974 <chHeapAlloc+0x24>
 8003982:	4640      	mov	r0, r8
 8003984:	f7ff fd9c 	bl	80034c0 <chMtxUnlock>
 8003988:	683b      	ldr	r3, [r7, #0]
 800398a:	2b00      	cmp	r3, #0
 800398c:	d021      	beq.n	80039d2 <chHeapAlloc+0x82>
 800398e:	0030      	movs	r0, r6
 8003990:	3008      	adds	r0, #8
 8003992:	4798      	blx	r3
 8003994:	2800      	cmp	r0, #0
 8003996:	d01c      	beq.n	80039d2 <chHeapAlloc+0x82>
 8003998:	6007      	str	r7, [r0, #0]
 800399a:	6046      	str	r6, [r0, #4]
 800399c:	3008      	adds	r0, #8
 800399e:	bc04      	pop	{r2}
 80039a0:	4690      	mov	r8, r2
 80039a2:	bdf0      	pop	{r4, r5, r6, r7, pc}
 80039a4:	0032      	movs	r2, r6
 80039a6:	3208      	adds	r2, #8
 80039a8:	6821      	ldr	r1, [r4, #0]
 80039aa:	4293      	cmp	r3, r2
 80039ac:	d209      	bcs.n	80039c2 <chHeapAlloc+0x72>
 80039ae:	6029      	str	r1, [r5, #0]
 80039b0:	4640      	mov	r0, r8
 80039b2:	6027      	str	r7, [r4, #0]
 80039b4:	f7ff fd84 	bl	80034c0 <chMtxUnlock>
 80039b8:	0020      	movs	r0, r4
 80039ba:	3008      	adds	r0, #8
 80039bc:	e7ef      	b.n	800399e <chHeapAlloc+0x4e>
 80039be:	4f06      	ldr	r7, [pc, #24]	; (80039d8 <chHeapAlloc+0x88>)
 80039c0:	e7cc      	b.n	800395c <chHeapAlloc+0xc>
 80039c2:	1b9b      	subs	r3, r3, r6
 80039c4:	18a2      	adds	r2, r4, r2
 80039c6:	3b08      	subs	r3, #8
 80039c8:	6011      	str	r1, [r2, #0]
 80039ca:	6053      	str	r3, [r2, #4]
 80039cc:	602a      	str	r2, [r5, #0]
 80039ce:	6066      	str	r6, [r4, #4]
 80039d0:	e7ee      	b.n	80039b0 <chHeapAlloc+0x60>
 80039d2:	2000      	movs	r0, #0
 80039d4:	e7e3      	b.n	800399e <chHeapAlloc+0x4e>
 80039d6:	46c0      	nop			; (mov r8, r8)
 80039d8:	20000ca8 	.word	0x20000ca8
 80039dc:	00000000 	.word	0x00000000

080039e0 <chThdCreateFromHeap.constprop.58>:
 80039e0:	b570      	push	{r4, r5, r6, lr}
 80039e2:	000e      	movs	r6, r1
 80039e4:	21a8      	movs	r1, #168	; 0xa8
 80039e6:	b082      	sub	sp, #8
 80039e8:	0005      	movs	r5, r0
 80039ea:	0049      	lsls	r1, r1, #1
 80039ec:	481d      	ldr	r0, [pc, #116]	; (8003a64 <chThdCreateFromHeap.constprop.58+0x84>)
 80039ee:	f7ff ffaf 	bl	8003950 <chHeapAlloc>
 80039f2:	1e04      	subs	r4, r0, #0
 80039f4:	d034      	beq.n	8003a60 <chThdCreateFromHeap.constprop.58+0x80>
 80039f6:	0003      	movs	r3, r0
 80039f8:	0002      	movs	r2, r0
 80039fa:	21ff      	movs	r1, #255	; 0xff
 80039fc:	3348      	adds	r3, #72	; 0x48
 80039fe:	7011      	strb	r1, [r2, #0]
 8003a00:	3201      	adds	r2, #1
 8003a02:	4293      	cmp	r3, r2
 8003a04:	d1fb      	bne.n	80039fe <chThdCreateFromHeap.constprop.58+0x1e>
 8003a06:	0021      	movs	r1, r4
 8003a08:	2255      	movs	r2, #85	; 0x55
 8003a0a:	3151      	adds	r1, #81	; 0x51
 8003a0c:	31ff      	adds	r1, #255	; 0xff
 8003a0e:	701a      	strb	r2, [r3, #0]
 8003a10:	3301      	adds	r3, #1
 8003a12:	428b      	cmp	r3, r1
 8003a14:	d1fb      	bne.n	8003a0e <chThdCreateFromHeap.constprop.58+0x2e>
 8003a16:	b672      	cpsid	i
 8003a18:	f7fd ffea 	bl	80019f0 <_dbg_check_lock>
 8003a1c:	21a8      	movs	r1, #168	; 0xa8
 8003a1e:	4b12      	ldr	r3, [pc, #72]	; (8003a68 <chThdCreateFromHeap.constprop.58+0x88>)
 8003a20:	002a      	movs	r2, r5
 8003a22:	0049      	lsls	r1, r1, #1
 8003a24:	0020      	movs	r0, r4
 8003a26:	9600      	str	r6, [sp, #0]
 8003a28:	f7fc feaa 	bl	8000780 <chThdCreateI>
 8003a2c:	2321      	movs	r3, #33	; 0x21
 8003a2e:	2201      	movs	r2, #1
 8003a30:	2100      	movs	r1, #0
 8003a32:	54c2      	strb	r2, [r0, r3]
 8003a34:	0004      	movs	r4, r0
 8003a36:	f7fd fd7b 	bl	8001530 <chSchWakeupS>
 8003a3a:	f7fd ff29 	bl	8001890 <_dbg_check_unlock>
 8003a3e:	4b0b      	ldr	r3, [pc, #44]	; (8003a6c <chThdCreateFromHeap.constprop.58+0x8c>)
 8003a40:	681a      	ldr	r2, [r3, #0]
 8003a42:	429a      	cmp	r2, r3
 8003a44:	d004      	beq.n	8003a50 <chThdCreateFromHeap.constprop.58+0x70>
 8003a46:	6999      	ldr	r1, [r3, #24]
 8003a48:	6892      	ldr	r2, [r2, #8]
 8003a4a:	6889      	ldr	r1, [r1, #8]
 8003a4c:	4291      	cmp	r1, r2
 8003a4e:	d303      	bcc.n	8003a58 <chThdCreateFromHeap.constprop.58+0x78>
 8003a50:	b662      	cpsie	i
 8003a52:	0020      	movs	r0, r4
 8003a54:	b002      	add	sp, #8
 8003a56:	bd70      	pop	{r4, r5, r6, pc}
 8003a58:	b672      	cpsid	i
 8003a5a:	4a05      	ldr	r2, [pc, #20]	; (8003a70 <chThdCreateFromHeap.constprop.58+0x90>)
 8003a5c:	62da      	str	r2, [r3, #44]	; 0x2c
 8003a5e:	e7fe      	b.n	8003a5e <chThdCreateFromHeap.constprop.58+0x7e>
 8003a60:	2400      	movs	r4, #0
 8003a62:	e7f6      	b.n	8003a52 <chThdCreateFromHeap.constprop.58+0x72>
 8003a64:	20000cd0 	.word	0x20000cd0
 8003a68:	08002b31 	.word	0x08002b31
 8003a6c:	20000738 	.word	0x20000738
 8003a70:	08007980 	.word	0x08007980
	...

08003a80 <heap1_execute>:
 8003a80:	b5f0      	push	{r4, r5, r6, r7, lr}
 8003a82:	b083      	sub	sp, #12
 8003a84:	4669      	mov	r1, sp
 8003a86:	2000      	movs	r0, #0
 8003a88:	f7ff fef2 	bl	8003870 <chHeapStatus>
 8003a8c:	2110      	movs	r1, #16
 8003a8e:	2000      	movs	r0, #0
 8003a90:	f7ff ff5e 	bl	8003950 <chHeapAlloc>
 8003a94:	0001      	movs	r1, r0
 8003a96:	1e4b      	subs	r3, r1, #1
 8003a98:	4199      	sbcs	r1, r3
 8003a9a:	0004      	movs	r4, r0
 8003a9c:	b2c9      	uxtb	r1, r1
 8003a9e:	2001      	movs	r0, #1
 8003aa0:	f7fc fd9e 	bl	80005e0 <_test_assert>
 8003aa4:	2800      	cmp	r0, #0
 8003aa6:	d001      	beq.n	8003aac <heap1_execute+0x2c>
 8003aa8:	b003      	add	sp, #12
 8003aaa:	bdf0      	pop	{r4, r5, r6, r7, pc}
 8003aac:	0020      	movs	r0, r4
 8003aae:	f7ff feff 	bl	80038b0 <chHeapFree>
 8003ab2:	4982      	ldr	r1, [pc, #520]	; (8003cbc <heap1_execute+0x23c>)
 8003ab4:	2000      	movs	r0, #0
 8003ab6:	f7ff ff4b 	bl	8003950 <chHeapAlloc>
 8003aba:	4241      	negs	r1, r0
 8003abc:	4141      	adcs	r1, r0
 8003abe:	2002      	movs	r0, #2
 8003ac0:	b2c9      	uxtb	r1, r1
 8003ac2:	f7fc fd8d 	bl	80005e0 <_test_assert>
 8003ac6:	2800      	cmp	r0, #0
 8003ac8:	d1ee      	bne.n	8003aa8 <heap1_execute+0x28>
 8003aca:	4c7d      	ldr	r4, [pc, #500]	; (8003cc0 <heap1_execute+0x240>)
 8003acc:	4669      	mov	r1, sp
 8003ace:	0020      	movs	r0, r4
 8003ad0:	f7ff fece 	bl	8003870 <chHeapStatus>
 8003ad4:	2110      	movs	r1, #16
 8003ad6:	0020      	movs	r0, r4
 8003ad8:	f7ff ff3a 	bl	8003950 <chHeapAlloc>
 8003adc:	2110      	movs	r1, #16
 8003ade:	0007      	movs	r7, r0
 8003ae0:	0020      	movs	r0, r4
 8003ae2:	f7ff ff35 	bl	8003950 <chHeapAlloc>
 8003ae6:	2110      	movs	r1, #16
 8003ae8:	0006      	movs	r6, r0
 8003aea:	0020      	movs	r0, r4
 8003aec:	f7ff ff30 	bl	8003950 <chHeapAlloc>
 8003af0:	0005      	movs	r5, r0
 8003af2:	0038      	movs	r0, r7
 8003af4:	f7ff fedc 	bl	80038b0 <chHeapFree>
 8003af8:	0030      	movs	r0, r6
 8003afa:	f7ff fed9 	bl	80038b0 <chHeapFree>
 8003afe:	0028      	movs	r0, r5
 8003b00:	f7ff fed6 	bl	80038b0 <chHeapFree>
 8003b04:	a901      	add	r1, sp, #4
 8003b06:	0020      	movs	r0, r4
 8003b08:	f7ff feb2 	bl	8003870 <chHeapStatus>
 8003b0c:	3801      	subs	r0, #1
 8003b0e:	4241      	negs	r1, r0
 8003b10:	4141      	adcs	r1, r0
 8003b12:	2003      	movs	r0, #3
 8003b14:	b2c9      	uxtb	r1, r1
 8003b16:	f7fc fd63 	bl	80005e0 <_test_assert>
 8003b1a:	2800      	cmp	r0, #0
 8003b1c:	d1c4      	bne.n	8003aa8 <heap1_execute+0x28>
 8003b1e:	2110      	movs	r1, #16
 8003b20:	0020      	movs	r0, r4
 8003b22:	f7ff ff15 	bl	8003950 <chHeapAlloc>
 8003b26:	2110      	movs	r1, #16
 8003b28:	0005      	movs	r5, r0
 8003b2a:	0020      	movs	r0, r4
 8003b2c:	f7ff ff10 	bl	8003950 <chHeapAlloc>
 8003b30:	0006      	movs	r6, r0
 8003b32:	2110      	movs	r1, #16
 8003b34:	0020      	movs	r0, r4
 8003b36:	f7ff ff0b 	bl	8003950 <chHeapAlloc>
 8003b3a:	f7ff feb9 	bl	80038b0 <chHeapFree>
 8003b3e:	0030      	movs	r0, r6
 8003b40:	f7ff feb6 	bl	80038b0 <chHeapFree>
 8003b44:	0028      	movs	r0, r5
 8003b46:	f7ff feb3 	bl	80038b0 <chHeapFree>
 8003b4a:	a901      	add	r1, sp, #4
 8003b4c:	0020      	movs	r0, r4
 8003b4e:	f7ff fe8f 	bl	8003870 <chHeapStatus>
 8003b52:	3801      	subs	r0, #1
 8003b54:	4241      	negs	r1, r0
 8003b56:	4141      	adcs	r1, r0
 8003b58:	2004      	movs	r0, #4
 8003b5a:	b2c9      	uxtb	r1, r1
 8003b5c:	f7fc fd40 	bl	80005e0 <_test_assert>
 8003b60:	2800      	cmp	r0, #0
 8003b62:	d1a1      	bne.n	8003aa8 <heap1_execute+0x28>
 8003b64:	2111      	movs	r1, #17
 8003b66:	0020      	movs	r0, r4
 8003b68:	f7ff fef2 	bl	8003950 <chHeapAlloc>
 8003b6c:	2110      	movs	r1, #16
 8003b6e:	0005      	movs	r5, r0
 8003b70:	0020      	movs	r0, r4
 8003b72:	f7ff feed 	bl	8003950 <chHeapAlloc>
 8003b76:	0006      	movs	r6, r0
 8003b78:	0028      	movs	r0, r5
 8003b7a:	f7ff fe99 	bl	80038b0 <chHeapFree>
 8003b7e:	a901      	add	r1, sp, #4
 8003b80:	0020      	movs	r0, r4
 8003b82:	f7ff fe75 	bl	8003870 <chHeapStatus>
 8003b86:	3802      	subs	r0, #2
 8003b88:	4241      	negs	r1, r0
 8003b8a:	4141      	adcs	r1, r0
 8003b8c:	2005      	movs	r0, #5
 8003b8e:	b2c9      	uxtb	r1, r1
 8003b90:	f7fc fd26 	bl	80005e0 <_test_assert>
 8003b94:	2800      	cmp	r0, #0
 8003b96:	d000      	beq.n	8003b9a <heap1_execute+0x11a>
 8003b98:	e786      	b.n	8003aa8 <heap1_execute+0x28>
 8003b9a:	2110      	movs	r1, #16
 8003b9c:	0020      	movs	r0, r4
 8003b9e:	f7ff fed7 	bl	8003950 <chHeapAlloc>
 8003ba2:	a901      	add	r1, sp, #4
 8003ba4:	0005      	movs	r5, r0
 8003ba6:	0020      	movs	r0, r4
 8003ba8:	f7ff fe62 	bl	8003870 <chHeapStatus>
 8003bac:	2101      	movs	r1, #1
 8003bae:	2801      	cmp	r0, #1
 8003bb0:	d007      	beq.n	8003bc2 <heap1_execute+0x142>
 8003bb2:	a901      	add	r1, sp, #4
 8003bb4:	0020      	movs	r0, r4
 8003bb6:	f7ff fe5b 	bl	8003870 <chHeapStatus>
 8003bba:	1e81      	subs	r1, r0, #2
 8003bbc:	4248      	negs	r0, r1
 8003bbe:	4141      	adcs	r1, r0
 8003bc0:	b2c9      	uxtb	r1, r1
 8003bc2:	2006      	movs	r0, #6
 8003bc4:	f7fc fd0c 	bl	80005e0 <_test_assert>
 8003bc8:	2800      	cmp	r0, #0
 8003bca:	d000      	beq.n	8003bce <heap1_execute+0x14e>
 8003bcc:	e76c      	b.n	8003aa8 <heap1_execute+0x28>
 8003bce:	0030      	movs	r0, r6
 8003bd0:	f7ff fe6e 	bl	80038b0 <chHeapFree>
 8003bd4:	0028      	movs	r0, r5
 8003bd6:	f7ff fe6b 	bl	80038b0 <chHeapFree>
 8003bda:	a901      	add	r1, sp, #4
 8003bdc:	0020      	movs	r0, r4
 8003bde:	f7ff fe47 	bl	8003870 <chHeapStatus>
 8003be2:	1e41      	subs	r1, r0, #1
 8003be4:	4248      	negs	r0, r1
 8003be6:	4141      	adcs	r1, r0
 8003be8:	2007      	movs	r0, #7
 8003bea:	b2c9      	uxtb	r1, r1
 8003bec:	f7fc fcf8 	bl	80005e0 <_test_assert>
 8003bf0:	2800      	cmp	r0, #0
 8003bf2:	d000      	beq.n	8003bf6 <heap1_execute+0x176>
 8003bf4:	e758      	b.n	8003aa8 <heap1_execute+0x28>
 8003bf6:	2110      	movs	r1, #16
 8003bf8:	0020      	movs	r0, r4
 8003bfa:	f7ff fea9 	bl	8003950 <chHeapAlloc>
 8003bfe:	2110      	movs	r1, #16
 8003c00:	0006      	movs	r6, r0
 8003c02:	0020      	movs	r0, r4
 8003c04:	f7ff fea4 	bl	8003950 <chHeapAlloc>
 8003c08:	0005      	movs	r5, r0
 8003c0a:	0030      	movs	r0, r6
 8003c0c:	f7ff fe50 	bl	80038b0 <chHeapFree>
 8003c10:	a901      	add	r1, sp, #4
 8003c12:	0020      	movs	r0, r4
 8003c14:	f7ff fe2c 	bl	8003870 <chHeapStatus>
 8003c18:	1e81      	subs	r1, r0, #2
 8003c1a:	4248      	negs	r0, r1
 8003c1c:	4141      	adcs	r1, r0
 8003c1e:	2008      	movs	r0, #8
 8003c20:	b2c9      	uxtb	r1, r1
 8003c22:	f7fc fcdd 	bl	80005e0 <_test_assert>
 8003c26:	2800      	cmp	r0, #0
 8003c28:	d000      	beq.n	8003c2c <heap1_execute+0x1ac>
 8003c2a:	e73d      	b.n	8003aa8 <heap1_execute+0x28>
 8003c2c:	2120      	movs	r1, #32
 8003c2e:	0020      	movs	r0, r4
 8003c30:	f7ff fe8e 	bl	8003950 <chHeapAlloc>
 8003c34:	f7ff fe3c 	bl	80038b0 <chHeapFree>
 8003c38:	0028      	movs	r0, r5
 8003c3a:	f7ff fe39 	bl	80038b0 <chHeapFree>
 8003c3e:	a901      	add	r1, sp, #4
 8003c40:	0020      	movs	r0, r4
 8003c42:	f7ff fe15 	bl	8003870 <chHeapStatus>
 8003c46:	1e41      	subs	r1, r0, #1
 8003c48:	4248      	negs	r0, r1
 8003c4a:	4141      	adcs	r1, r0
 8003c4c:	2009      	movs	r0, #9
 8003c4e:	b2c9      	uxtb	r1, r1
 8003c50:	f7fc fcc6 	bl	80005e0 <_test_assert>
 8003c54:	2800      	cmp	r0, #0
 8003c56:	d000      	beq.n	8003c5a <heap1_execute+0x1da>
 8003c58:	e726      	b.n	8003aa8 <heap1_execute+0x28>
 8003c5a:	a901      	add	r1, sp, #4
 8003c5c:	0020      	movs	r0, r4
 8003c5e:	f7ff fe07 	bl	8003870 <chHeapStatus>
 8003c62:	9901      	ldr	r1, [sp, #4]
 8003c64:	0020      	movs	r0, r4
 8003c66:	f7ff fe73 	bl	8003950 <chHeapAlloc>
 8003c6a:	a901      	add	r1, sp, #4
 8003c6c:	0005      	movs	r5, r0
 8003c6e:	0020      	movs	r0, r4
 8003c70:	f7ff fdfe 	bl	8003870 <chHeapStatus>
 8003c74:	4241      	negs	r1, r0
 8003c76:	4141      	adcs	r1, r0
 8003c78:	200a      	movs	r0, #10
 8003c7a:	b2c9      	uxtb	r1, r1
 8003c7c:	f7fc fcb0 	bl	80005e0 <_test_assert>
 8003c80:	2800      	cmp	r0, #0
 8003c82:	d000      	beq.n	8003c86 <heap1_execute+0x206>
 8003c84:	e710      	b.n	8003aa8 <heap1_execute+0x28>
 8003c86:	0028      	movs	r0, r5
 8003c88:	f7ff fe12 	bl	80038b0 <chHeapFree>
 8003c8c:	a901      	add	r1, sp, #4
 8003c8e:	0020      	movs	r0, r4
 8003c90:	f7ff fdee 	bl	8003870 <chHeapStatus>
 8003c94:	1e41      	subs	r1, r0, #1
 8003c96:	4248      	negs	r0, r1
 8003c98:	4141      	adcs	r1, r0
 8003c9a:	200b      	movs	r0, #11
 8003c9c:	b2c9      	uxtb	r1, r1
 8003c9e:	f7fc fc9f 	bl	80005e0 <_test_assert>
 8003ca2:	2800      	cmp	r0, #0
 8003ca4:	d000      	beq.n	8003ca8 <heap1_execute+0x228>
 8003ca6:	e6ff      	b.n	8003aa8 <heap1_execute+0x28>
 8003ca8:	9b01      	ldr	r3, [sp, #4]
 8003caa:	9a00      	ldr	r2, [sp, #0]
 8003cac:	300c      	adds	r0, #12
 8003cae:	1a99      	subs	r1, r3, r2
 8003cb0:	424b      	negs	r3, r1
 8003cb2:	4159      	adcs	r1, r3
 8003cb4:	b2c9      	uxtb	r1, r1
 8003cb6:	f7fc fc93 	bl	80005e0 <_test_assert>
 8003cba:	e6f5      	b.n	8003aa8 <heap1_execute+0x28>
 8003cbc:	ffffff00 	.word	0xffffff00
 8003cc0:	200013f0 	.word	0x200013f0
	...

08003cd0 <chSemSignal>:
 8003cd0:	6882      	ldr	r2, [r0, #8]
 8003cd2:	b510      	push	{r4, lr}
 8003cd4:	6803      	ldr	r3, [r0, #0]
 8003cd6:	0004      	movs	r4, r0
 8003cd8:	2a00      	cmp	r2, #0
 8003cda:	db06      	blt.n	8003cea <chSemSignal+0x1a>
 8003cdc:	4283      	cmp	r3, r0
 8003cde:	d006      	beq.n	8003cee <chSemSignal+0x1e>
 8003ce0:	b672      	cpsid	i
 8003ce2:	4b13      	ldr	r3, [pc, #76]	; (8003d30 <chSemSignal+0x60>)
 8003ce4:	4a13      	ldr	r2, [pc, #76]	; (8003d34 <chSemSignal+0x64>)
 8003ce6:	62da      	str	r2, [r3, #44]	; 0x2c
 8003ce8:	e7fe      	b.n	8003ce8 <chSemSignal+0x18>
 8003cea:	4283      	cmp	r3, r0
 8003cec:	d0f8      	beq.n	8003ce0 <chSemSignal+0x10>
 8003cee:	b672      	cpsid	i
 8003cf0:	f7fd fe7e 	bl	80019f0 <_dbg_check_lock>
 8003cf4:	68a3      	ldr	r3, [r4, #8]
 8003cf6:	3301      	adds	r3, #1
 8003cf8:	60a3      	str	r3, [r4, #8]
 8003cfa:	2b00      	cmp	r3, #0
 8003cfc:	dd0c      	ble.n	8003d18 <chSemSignal+0x48>
 8003cfe:	f7fd fdc7 	bl	8001890 <_dbg_check_unlock>
 8003d02:	4b0b      	ldr	r3, [pc, #44]	; (8003d30 <chSemSignal+0x60>)
 8003d04:	681a      	ldr	r2, [r3, #0]
 8003d06:	429a      	cmp	r2, r3
 8003d08:	d004      	beq.n	8003d14 <chSemSignal+0x44>
 8003d0a:	6999      	ldr	r1, [r3, #24]
 8003d0c:	6892      	ldr	r2, [r2, #8]
 8003d0e:	6889      	ldr	r1, [r1, #8]
 8003d10:	4291      	cmp	r1, r2
 8003d12:	d309      	bcc.n	8003d28 <chSemSignal+0x58>
 8003d14:	b662      	cpsie	i
 8003d16:	bd10      	pop	{r4, pc}
 8003d18:	6820      	ldr	r0, [r4, #0]
 8003d1a:	2100      	movs	r1, #0
 8003d1c:	6803      	ldr	r3, [r0, #0]
 8003d1e:	6023      	str	r3, [r4, #0]
 8003d20:	605c      	str	r4, [r3, #4]
 8003d22:	f7fd fc05 	bl	8001530 <chSchWakeupS>
 8003d26:	e7ea      	b.n	8003cfe <chSemSignal+0x2e>
 8003d28:	b672      	cpsid	i
 8003d2a:	4a03      	ldr	r2, [pc, #12]	; (8003d38 <chSemSignal+0x68>)
 8003d2c:	62da      	str	r2, [r3, #44]	; 0x2c
 8003d2e:	e7fe      	b.n	8003d2e <chSemSignal+0x5e>
 8003d30:	20000738 	.word	0x20000738
 8003d34:	08007bd0 	.word	0x08007bd0
 8003d38:	080079a0 	.word	0x080079a0
 8003d3c:	00000000 	.word	0x00000000

08003d40 <chSemWait>:
 8003d40:	b570      	push	{r4, r5, r6, lr}
 8003d42:	0004      	movs	r4, r0
 8003d44:	b672      	cpsid	i
 8003d46:	f7fd fe53 	bl	80019f0 <_dbg_check_lock>
 8003d4a:	f7fc fcf9 	bl	8000740 <chDbgCheckClassS>
 8003d4e:	68a3      	ldr	r3, [r4, #8]
 8003d50:	6822      	ldr	r2, [r4, #0]
 8003d52:	2b00      	cmp	r3, #0
 8003d54:	db06      	blt.n	8003d64 <chSemWait+0x24>
 8003d56:	42a2      	cmp	r2, r4
 8003d58:	d006      	beq.n	8003d68 <chSemWait+0x28>
 8003d5a:	b672      	cpsid	i
 8003d5c:	4b15      	ldr	r3, [pc, #84]	; (8003db4 <chSemWait+0x74>)
 8003d5e:	4a16      	ldr	r2, [pc, #88]	; (8003db8 <chSemWait+0x78>)
 8003d60:	62da      	str	r2, [r3, #44]	; 0x2c
 8003d62:	e7fe      	b.n	8003d62 <chSemWait+0x22>
 8003d64:	42a2      	cmp	r2, r4
 8003d66:	d0f8      	beq.n	8003d5a <chSemWait+0x1a>
 8003d68:	3b01      	subs	r3, #1
 8003d6a:	60a3      	str	r3, [r4, #8]
 8003d6c:	2b00      	cmp	r3, #0
 8003d6e:	db0e      	blt.n	8003d8e <chSemWait+0x4e>
 8003d70:	2400      	movs	r4, #0
 8003d72:	4d10      	ldr	r5, [pc, #64]	; (8003db4 <chSemWait+0x74>)
 8003d74:	f7fd fd8c 	bl	8001890 <_dbg_check_unlock>
 8003d78:	682b      	ldr	r3, [r5, #0]
 8003d7a:	42ab      	cmp	r3, r5
 8003d7c:	d004      	beq.n	8003d88 <chSemWait+0x48>
 8003d7e:	69aa      	ldr	r2, [r5, #24]
 8003d80:	689b      	ldr	r3, [r3, #8]
 8003d82:	6892      	ldr	r2, [r2, #8]
 8003d84:	429a      	cmp	r2, r3
 8003d86:	d310      	bcc.n	8003daa <chSemWait+0x6a>
 8003d88:	b662      	cpsie	i
 8003d8a:	0020      	movs	r0, r4
 8003d8c:	bd70      	pop	{r4, r5, r6, pc}
 8003d8e:	4d09      	ldr	r5, [pc, #36]	; (8003db4 <chSemWait+0x74>)
 8003d90:	2005      	movs	r0, #5
 8003d92:	69ab      	ldr	r3, [r5, #24]
 8003d94:	625c      	str	r4, [r3, #36]	; 0x24
 8003d96:	601c      	str	r4, [r3, #0]
 8003d98:	6862      	ldr	r2, [r4, #4]
 8003d9a:	605a      	str	r2, [r3, #4]
 8003d9c:	6013      	str	r3, [r2, #0]
 8003d9e:	6063      	str	r3, [r4, #4]
 8003da0:	f7fd fbf6 	bl	8001590 <chSchGoSleepS>
 8003da4:	69ab      	ldr	r3, [r5, #24]
 8003da6:	6a5c      	ldr	r4, [r3, #36]	; 0x24
 8003da8:	e7e4      	b.n	8003d74 <chSemWait+0x34>
 8003daa:	b672      	cpsid	i
 8003dac:	4b03      	ldr	r3, [pc, #12]	; (8003dbc <chSemWait+0x7c>)
 8003dae:	62eb      	str	r3, [r5, #44]	; 0x2c
 8003db0:	e7fe      	b.n	8003db0 <chSemWait+0x70>
 8003db2:	46c0      	nop			; (mov r8, r8)
 8003db4:	20000738 	.word	0x20000738
 8003db8:	08007b10 	.word	0x08007b10
 8003dbc:	080079a0 	.word	0x080079a0

08003dc0 <thread3.lto_priv.131>:
 8003dc0:	b5f8      	push	{r3, r4, r5, r6, r7, lr}
 8003dc2:	2321      	movs	r3, #33	; 0x21
 8003dc4:	4c07      	ldr	r4, [pc, #28]	; (8003de4 <thread3.lto_priv.131+0x24>)
 8003dc6:	69a2      	ldr	r2, [r4, #24]
 8003dc8:	5cd3      	ldrb	r3, [r2, r3]
 8003dca:	075b      	lsls	r3, r3, #29
 8003dcc:	d409      	bmi.n	8003de2 <thread3.lto_priv.131+0x22>
 8003dce:	2621      	movs	r6, #33	; 0x21
 8003dd0:	2504      	movs	r5, #4
 8003dd2:	4f05      	ldr	r7, [pc, #20]	; (8003de8 <thread3.lto_priv.131+0x28>)
 8003dd4:	0038      	movs	r0, r7
 8003dd6:	f7ff ffb3 	bl	8003d40 <chSemWait>
 8003dda:	69a3      	ldr	r3, [r4, #24]
 8003ddc:	5d9b      	ldrb	r3, [r3, r6]
 8003dde:	421d      	tst	r5, r3
 8003de0:	d0f8      	beq.n	8003dd4 <thread3.lto_priv.131+0x14>
 8003de2:	bdf8      	pop	{r3, r4, r5, r6, r7, pc}
 8003de4:	20000738 	.word	0x20000738
 8003de8:	20000d48 	.word	0x20000d48
 8003dec:	00000000 	.word	0x00000000

08003df0 <thread3.lto_priv.130>:
 8003df0:	b510      	push	{r4, lr}
 8003df2:	4c04      	ldr	r4, [pc, #16]	; (8003e04 <thread3.lto_priv.130+0x14>)
 8003df4:	0020      	movs	r0, r4
 8003df6:	f7ff ffa3 	bl	8003d40 <chSemWait>
 8003dfa:	0020      	movs	r0, r4
 8003dfc:	f7ff ff68 	bl	8003cd0 <chSemSignal>
 8003e00:	bd10      	pop	{r4, pc}
 8003e02:	46c0      	nop			; (mov r8, r8)
 8003e04:	200006ac 	.word	0x200006ac
	...

08003e10 <thread1.lto_priv.132>:
 8003e10:	b510      	push	{r4, lr}
 8003e12:	0004      	movs	r4, r0
 8003e14:	4803      	ldr	r0, [pc, #12]	; (8003e24 <thread1.lto_priv.132+0x14>)
 8003e16:	f7ff ff93 	bl	8003d40 <chSemWait>
 8003e1a:	7820      	ldrb	r0, [r4, #0]
 8003e1c:	f7fe faf0 	bl	8002400 <test_emit_token>
 8003e20:	bd10      	pop	{r4, pc}
 8003e22:	46c0      	nop			; (mov r8, r8)
 8003e24:	200006ac 	.word	0x200006ac
	...

08003e30 <chThdRelease>:
 8003e30:	b570      	push	{r4, r5, r6, lr}
 8003e32:	0004      	movs	r4, r0
 8003e34:	b672      	cpsid	i
 8003e36:	f7fd fddb 	bl	80019f0 <_dbg_check_lock>
 8003e3a:	2322      	movs	r3, #34	; 0x22
 8003e3c:	5ce5      	ldrb	r5, [r4, r3]
 8003e3e:	2d00      	cmp	r5, #0
 8003e40:	d015      	beq.n	8003e6e <chThdRelease+0x3e>
 8003e42:	3d01      	subs	r5, #1
 8003e44:	b2ed      	uxtb	r5, r5
 8003e46:	54e5      	strb	r5, [r4, r3]
 8003e48:	f7fd fd22 	bl	8001890 <_dbg_check_unlock>
 8003e4c:	4b1a      	ldr	r3, [pc, #104]	; (8003eb8 <chThdRelease+0x88>)
 8003e4e:	681a      	ldr	r2, [r3, #0]
 8003e50:	429a      	cmp	r2, r3
 8003e52:	d004      	beq.n	8003e5e <chThdRelease+0x2e>
 8003e54:	6999      	ldr	r1, [r3, #24]
 8003e56:	6892      	ldr	r2, [r2, #8]
 8003e58:	6889      	ldr	r1, [r1, #8]
 8003e5a:	4291      	cmp	r1, r2
 8003e5c:	d30c      	bcc.n	8003e78 <chThdRelease+0x48>
 8003e5e:	b662      	cpsie	i
 8003e60:	2d00      	cmp	r5, #0
 8003e62:	d103      	bne.n	8003e6c <chThdRelease+0x3c>
 8003e64:	2320      	movs	r3, #32
 8003e66:	5ce3      	ldrb	r3, [r4, r3]
 8003e68:	2b0f      	cmp	r3, #15
 8003e6a:	d009      	beq.n	8003e80 <chThdRelease+0x50>
 8003e6c:	bd70      	pop	{r4, r5, r6, pc}
 8003e6e:	b672      	cpsid	i
 8003e70:	4b11      	ldr	r3, [pc, #68]	; (8003eb8 <chThdRelease+0x88>)
 8003e72:	4a12      	ldr	r2, [pc, #72]	; (8003ebc <chThdRelease+0x8c>)
 8003e74:	62da      	str	r2, [r3, #44]	; 0x2c
 8003e76:	e7fe      	b.n	8003e76 <chThdRelease+0x46>
 8003e78:	b672      	cpsid	i
 8003e7a:	4a11      	ldr	r2, [pc, #68]	; (8003ec0 <chThdRelease+0x90>)
 8003e7c:	62da      	str	r2, [r3, #44]	; 0x2c
 8003e7e:	e7fe      	b.n	8003e7e <chThdRelease+0x4e>
 8003e80:	2203      	movs	r2, #3
 8003e82:	3312      	adds	r3, #18
 8003e84:	5ce3      	ldrb	r3, [r4, r3]
 8003e86:	4013      	ands	r3, r2
 8003e88:	2b01      	cmp	r3, #1
 8003e8a:	d00b      	beq.n	8003ea4 <chThdRelease+0x74>
 8003e8c:	2b02      	cmp	r3, #2
 8003e8e:	d1ed      	bne.n	8003e6c <chThdRelease+0x3c>
 8003e90:	6922      	ldr	r2, [r4, #16]
 8003e92:	6963      	ldr	r3, [r4, #20]
 8003e94:	0021      	movs	r1, r4
 8003e96:	611a      	str	r2, [r3, #16]
 8003e98:	6922      	ldr	r2, [r4, #16]
 8003e9a:	6c60      	ldr	r0, [r4, #68]	; 0x44
 8003e9c:	6153      	str	r3, [r2, #20]
 8003e9e:	f7fe f90f 	bl	80020c0 <chPoolFree>
 8003ea2:	e7e3      	b.n	8003e6c <chThdRelease+0x3c>
 8003ea4:	6922      	ldr	r2, [r4, #16]
 8003ea6:	6963      	ldr	r3, [r4, #20]
 8003ea8:	0020      	movs	r0, r4
 8003eaa:	611a      	str	r2, [r3, #16]
 8003eac:	6922      	ldr	r2, [r4, #16]
 8003eae:	6153      	str	r3, [r2, #20]
 8003eb0:	f7ff fcfe 	bl	80038b0 <chHeapFree>
 8003eb4:	e7da      	b.n	8003e6c <chThdRelease+0x3c>
 8003eb6:	46c0      	nop			; (mov r8, r8)
 8003eb8:	20000738 	.word	0x20000738
 8003ebc:	08007a90 	.word	0x08007a90
 8003ec0:	08007980 	.word	0x08007980
	...

08003ed0 <regfind>:
 8003ed0:	b5f8      	push	{r3, r4, r5, r6, r7, lr}
 8003ed2:	4647      	mov	r7, r8
 8003ed4:	46ce      	mov	lr, r9
 8003ed6:	4680      	mov	r8, r0
 8003ed8:	b580      	push	{r7, lr}
 8003eda:	b672      	cpsid	i
 8003edc:	f7fd fd88 	bl	80019f0 <_dbg_check_lock>
 8003ee0:	2222      	movs	r2, #34	; 0x22
 8003ee2:	4c24      	ldr	r4, [pc, #144]	; (8003f74 <regfind+0xa4>)
 8003ee4:	6925      	ldr	r5, [r4, #16]
 8003ee6:	5cab      	ldrb	r3, [r5, r2]
 8003ee8:	3301      	adds	r3, #1
 8003eea:	54ab      	strb	r3, [r5, r2]
 8003eec:	f7fd fcd0 	bl	8001890 <_dbg_check_unlock>
 8003ef0:	6823      	ldr	r3, [r4, #0]
 8003ef2:	42a3      	cmp	r3, r4
 8003ef4:	d004      	beq.n	8003f00 <regfind+0x30>
 8003ef6:	69a2      	ldr	r2, [r4, #24]
 8003ef8:	689b      	ldr	r3, [r3, #8]
 8003efa:	6892      	ldr	r2, [r2, #8]
 8003efc:	429a      	cmp	r2, r3
 8003efe:	d32e      	bcc.n	8003f5e <regfind+0x8e>
 8003f00:	b662      	cpsie	i
 8003f02:	2322      	movs	r3, #34	; 0x22
 8003f04:	2700      	movs	r7, #0
 8003f06:	4699      	mov	r9, r3
 8003f08:	b672      	cpsid	i
 8003f0a:	f7fd fd71 	bl	80019f0 <_dbg_check_lock>
 8003f0e:	692e      	ldr	r6, [r5, #16]
 8003f10:	42a6      	cmp	r6, r4
 8003f12:	d02c      	beq.n	8003f6e <regfind+0x9e>
 8003f14:	464b      	mov	r3, r9
 8003f16:	5cf3      	ldrb	r3, [r6, r3]
 8003f18:	2bff      	cmp	r3, #255	; 0xff
 8003f1a:	d01c      	beq.n	8003f56 <regfind+0x86>
 8003f1c:	464a      	mov	r2, r9
 8003f1e:	3301      	adds	r3, #1
 8003f20:	54b3      	strb	r3, [r6, r2]
 8003f22:	f7fd fcb5 	bl	8001890 <_dbg_check_unlock>
 8003f26:	6823      	ldr	r3, [r4, #0]
 8003f28:	42a3      	cmp	r3, r4
 8003f2a:	d004      	beq.n	8003f36 <regfind+0x66>
 8003f2c:	69a2      	ldr	r2, [r4, #24]
 8003f2e:	689b      	ldr	r3, [r3, #8]
 8003f30:	6892      	ldr	r2, [r2, #8]
 8003f32:	429a      	cmp	r2, r3
 8003f34:	d317      	bcc.n	8003f66 <regfind+0x96>
 8003f36:	4643      	mov	r3, r8
 8003f38:	1aeb      	subs	r3, r5, r3
 8003f3a:	425a      	negs	r2, r3
 8003f3c:	4153      	adcs	r3, r2
 8003f3e:	431f      	orrs	r7, r3
 8003f40:	b662      	cpsie	i
 8003f42:	0028      	movs	r0, r5
 8003f44:	f7ff ff74 	bl	8003e30 <chThdRelease>
 8003f48:	1e35      	subs	r5, r6, #0
 8003f4a:	d1dd      	bne.n	8003f08 <regfind+0x38>
 8003f4c:	0038      	movs	r0, r7
 8003f4e:	bc0c      	pop	{r2, r3}
 8003f50:	4690      	mov	r8, r2
 8003f52:	4699      	mov	r9, r3
 8003f54:	bdf8      	pop	{r3, r4, r5, r6, r7, pc}
 8003f56:	b672      	cpsid	i
 8003f58:	4b07      	ldr	r3, [pc, #28]	; (8003f78 <regfind+0xa8>)
 8003f5a:	62e3      	str	r3, [r4, #44]	; 0x2c
 8003f5c:	e7fe      	b.n	8003f5c <regfind+0x8c>
 8003f5e:	b672      	cpsid	i
 8003f60:	4b06      	ldr	r3, [pc, #24]	; (8003f7c <regfind+0xac>)
 8003f62:	62e3      	str	r3, [r4, #44]	; 0x2c
 8003f64:	e7fe      	b.n	8003f64 <regfind+0x94>
 8003f66:	b672      	cpsid	i
 8003f68:	4b04      	ldr	r3, [pc, #16]	; (8003f7c <regfind+0xac>)
 8003f6a:	62e3      	str	r3, [r4, #44]	; 0x2c
 8003f6c:	e7fe      	b.n	8003f6c <regfind+0x9c>
 8003f6e:	2600      	movs	r6, #0
 8003f70:	e7d7      	b.n	8003f22 <regfind+0x52>
 8003f72:	46c0      	nop			; (mov r8, r8)
 8003f74:	20000738 	.word	0x20000738
 8003f78:	08007aa0 	.word	0x08007aa0
 8003f7c:	08007990 	.word	0x08007990

08003f80 <chThdWait>:
 8003f80:	b570      	push	{r4, r5, r6, lr}
 8003f82:	1e04      	subs	r4, r0, #0
 8003f84:	d031      	beq.n	8003fea <chThdWait+0x6a>
 8003f86:	b672      	cpsid	i
 8003f88:	f7fd fd32 	bl	80019f0 <_dbg_check_lock>
 8003f8c:	4d19      	ldr	r5, [pc, #100]	; (8003ff4 <chThdWait+0x74>)
 8003f8e:	69ab      	ldr	r3, [r5, #24]
 8003f90:	42a3      	cmp	r3, r4
 8003f92:	d026      	beq.n	8003fe2 <chThdWait+0x62>
 8003f94:	2222      	movs	r2, #34	; 0x22
 8003f96:	5ca2      	ldrb	r2, [r4, r2]
 8003f98:	2a00      	cmp	r2, #0
 8003f9a:	d01e      	beq.n	8003fda <chThdWait+0x5a>
 8003f9c:	2220      	movs	r2, #32
 8003f9e:	5ca2      	ldrb	r2, [r4, r2]
 8003fa0:	2a0f      	cmp	r2, #15
 8003fa2:	d005      	beq.n	8003fb0 <chThdWait+0x30>
 8003fa4:	6aa2      	ldr	r2, [r4, #40]	; 0x28
 8003fa6:	2009      	movs	r0, #9
 8003fa8:	601a      	str	r2, [r3, #0]
 8003faa:	62a3      	str	r3, [r4, #40]	; 0x28
 8003fac:	f7fd faf0 	bl	8001590 <chSchGoSleepS>
 8003fb0:	6a66      	ldr	r6, [r4, #36]	; 0x24
 8003fb2:	f7fd fc6d 	bl	8001890 <_dbg_check_unlock>
 8003fb6:	682b      	ldr	r3, [r5, #0]
 8003fb8:	42ab      	cmp	r3, r5
 8003fba:	d008      	beq.n	8003fce <chThdWait+0x4e>
 8003fbc:	69aa      	ldr	r2, [r5, #24]
 8003fbe:	689b      	ldr	r3, [r3, #8]
 8003fc0:	6892      	ldr	r2, [r2, #8]
 8003fc2:	429a      	cmp	r2, r3
 8003fc4:	d203      	bcs.n	8003fce <chThdWait+0x4e>
 8003fc6:	b672      	cpsid	i
 8003fc8:	4b0b      	ldr	r3, [pc, #44]	; (8003ff8 <chThdWait+0x78>)
 8003fca:	62eb      	str	r3, [r5, #44]	; 0x2c
 8003fcc:	e7fe      	b.n	8003fcc <chThdWait+0x4c>
 8003fce:	b662      	cpsie	i
 8003fd0:	0020      	movs	r0, r4
 8003fd2:	f7ff ff2d 	bl	8003e30 <chThdRelease>
 8003fd6:	0030      	movs	r0, r6
 8003fd8:	bd70      	pop	{r4, r5, r6, pc}
 8003fda:	b672      	cpsid	i
 8003fdc:	4b07      	ldr	r3, [pc, #28]	; (8003ffc <chThdWait+0x7c>)
 8003fde:	62eb      	str	r3, [r5, #44]	; 0x2c
 8003fe0:	e7fe      	b.n	8003fe0 <chThdWait+0x60>
 8003fe2:	b672      	cpsid	i
 8003fe4:	4b05      	ldr	r3, [pc, #20]	; (8003ffc <chThdWait+0x7c>)
 8003fe6:	62eb      	str	r3, [r5, #44]	; 0x2c
 8003fe8:	e7fe      	b.n	8003fe8 <chThdWait+0x68>
 8003fea:	b672      	cpsid	i
 8003fec:	4b01      	ldr	r3, [pc, #4]	; (8003ff4 <chThdWait+0x74>)
 8003fee:	4a03      	ldr	r2, [pc, #12]	; (8003ffc <chThdWait+0x7c>)
 8003ff0:	62da      	str	r2, [r3, #44]	; 0x2c
 8003ff2:	e7fe      	b.n	8003ff2 <chThdWait+0x72>
 8003ff4:	20000738 	.word	0x20000738
 8003ff8:	08007970 	.word	0x08007970
 8003ffc:	08007cb0 	.word	0x08007cb0

08004000 <test_wait_threads>:
 8004000:	b570      	push	{r4, r5, r6, lr}
 8004002:	4c07      	ldr	r4, [pc, #28]	; (8004020 <test_wait_threads+0x20>)
 8004004:	2600      	movs	r6, #0
 8004006:	0025      	movs	r5, r4
 8004008:	3514      	adds	r5, #20
 800400a:	6820      	ldr	r0, [r4, #0]
 800400c:	2800      	cmp	r0, #0
 800400e:	d002      	beq.n	8004016 <test_wait_threads+0x16>
 8004010:	f7ff ffb6 	bl	8003f80 <chThdWait>
 8004014:	6026      	str	r6, [r4, #0]
 8004016:	3404      	adds	r4, #4
 8004018:	42ac      	cmp	r4, r5
 800401a:	d1f6      	bne.n	800400a <test_wait_threads+0xa>
 800401c:	bd70      	pop	{r4, r5, r6, pc}
 800401e:	46c0      	nop			; (mov r8, r8)
 8004020:	20001414 	.word	0x20001414
	...

08004030 <dyn2_execute>:
 8004030:	b5f8      	push	{r3, r4, r5, r6, r7, lr}
 8004032:	2400      	movs	r4, #0
 8004034:	4b34      	ldr	r3, [pc, #208]	; (8004108 <dyn2_execute+0xd8>)
 8004036:	4e35      	ldr	r6, [pc, #212]	; (800410c <dyn2_execute+0xdc>)
 8004038:	699b      	ldr	r3, [r3, #24]
 800403a:	4935      	ldr	r1, [pc, #212]	; (8004110 <dyn2_execute+0xe0>)
 800403c:	0030      	movs	r0, r6
 800403e:	3404      	adds	r4, #4
 8004040:	689d      	ldr	r5, [r3, #8]
 8004042:	4f34      	ldr	r7, [pc, #208]	; (8004114 <dyn2_execute+0xe4>)
 8004044:	f7fe f83c 	bl	80020c0 <chPoolFree>
 8004048:	2c10      	cmp	r4, #16
 800404a:	d006      	beq.n	800405a <dyn2_execute+0x2a>
 800404c:	59e1      	ldr	r1, [r4, r7]
 800404e:	0030      	movs	r0, r6
 8004050:	3404      	adds	r4, #4
 8004052:	f7fe f835 	bl	80020c0 <chPoolFree>
 8004056:	2c10      	cmp	r4, #16
 8004058:	d1f8      	bne.n	800404c <dyn2_execute+0x1c>
 800405a:	492f      	ldr	r1, [pc, #188]	; (8004118 <dyn2_execute+0xe8>)
 800405c:	1e68      	subs	r0, r5, #1
 800405e:	f7fe fd9f 	bl	8002ba0 <chThdCreateFromMemoryPool.constprop.57>
 8004062:	4c2e      	ldr	r4, [pc, #184]	; (800411c <dyn2_execute+0xec>)
 8004064:	492e      	ldr	r1, [pc, #184]	; (8004120 <dyn2_execute+0xf0>)
 8004066:	6020      	str	r0, [r4, #0]
 8004068:	1ea8      	subs	r0, r5, #2
 800406a:	f7fe fd99 	bl	8002ba0 <chThdCreateFromMemoryPool.constprop.57>
 800406e:	492d      	ldr	r1, [pc, #180]	; (8004124 <dyn2_execute+0xf4>)
 8004070:	6060      	str	r0, [r4, #4]
 8004072:	1ee8      	subs	r0, r5, #3
 8004074:	f7fe fd94 	bl	8002ba0 <chThdCreateFromMemoryPool.constprop.57>
 8004078:	492b      	ldr	r1, [pc, #172]	; (8004128 <dyn2_execute+0xf8>)
 800407a:	60a0      	str	r0, [r4, #8]
 800407c:	1f28      	subs	r0, r5, #4
 800407e:	f7fe fd8f 	bl	8002ba0 <chThdCreateFromMemoryPool.constprop.57>
 8004082:	492a      	ldr	r1, [pc, #168]	; (800412c <dyn2_execute+0xfc>)
 8004084:	60e0      	str	r0, [r4, #12]
 8004086:	1f68      	subs	r0, r5, #5
 8004088:	f7fe fd8a 	bl	8002ba0 <chThdCreateFromMemoryPool.constprop.57>
 800408c:	6823      	ldr	r3, [r4, #0]
 800408e:	6120      	str	r0, [r4, #16]
 8004090:	2b00      	cmp	r3, #0
 8004092:	d031      	beq.n	80040f8 <dyn2_execute+0xc8>
 8004094:	6863      	ldr	r3, [r4, #4]
 8004096:	2b00      	cmp	r3, #0
 8004098:	d02e      	beq.n	80040f8 <dyn2_execute+0xc8>
 800409a:	68a3      	ldr	r3, [r4, #8]
 800409c:	2b00      	cmp	r3, #0
 800409e:	d02b      	beq.n	80040f8 <dyn2_execute+0xc8>
 80040a0:	68e3      	ldr	r3, [r4, #12]
 80040a2:	2b00      	cmp	r3, #0
 80040a4:	d028      	beq.n	80040f8 <dyn2_execute+0xc8>
 80040a6:	4241      	negs	r1, r0
 80040a8:	4141      	adcs	r1, r0
 80040aa:	2001      	movs	r0, #1
 80040ac:	b2c9      	uxtb	r1, r1
 80040ae:	f7fc fa97 	bl	80005e0 <_test_assert>
 80040b2:	2800      	cmp	r0, #0
 80040b4:	d126      	bne.n	8004104 <dyn2_execute+0xd4>
 80040b6:	f7ff ffa3 	bl	8004000 <test_wait_threads>
 80040ba:	491d      	ldr	r1, [pc, #116]	; (8004130 <dyn2_execute+0x100>)
 80040bc:	2002      	movs	r0, #2
 80040be:	f7fc fa67 	bl	8000590 <_test_assert_sequence>
 80040c2:	2800      	cmp	r0, #0
 80040c4:	d11e      	bne.n	8004104 <dyn2_execute+0xd4>
 80040c6:	2404      	movs	r4, #4
 80040c8:	0030      	movs	r0, r6
 80040ca:	f7fe fd39 	bl	8002b40 <chPoolAlloc>
 80040ce:	1e41      	subs	r1, r0, #1
 80040d0:	4188      	sbcs	r0, r1
 80040d2:	b2c1      	uxtb	r1, r0
 80040d4:	2003      	movs	r0, #3
 80040d6:	f7fc fa83 	bl	80005e0 <_test_assert>
 80040da:	2800      	cmp	r0, #0
 80040dc:	d112      	bne.n	8004104 <dyn2_execute+0xd4>
 80040de:	3c01      	subs	r4, #1
 80040e0:	2c00      	cmp	r4, #0
 80040e2:	d1f1      	bne.n	80040c8 <dyn2_execute+0x98>
 80040e4:	0030      	movs	r0, r6
 80040e6:	f7fe fd2b 	bl	8002b40 <chPoolAlloc>
 80040ea:	4241      	negs	r1, r0
 80040ec:	4141      	adcs	r1, r0
 80040ee:	2004      	movs	r0, #4
 80040f0:	b2c9      	uxtb	r1, r1
 80040f2:	f7fc fa75 	bl	80005e0 <_test_assert>
 80040f6:	e005      	b.n	8004104 <dyn2_execute+0xd4>
 80040f8:	2100      	movs	r1, #0
 80040fa:	2001      	movs	r0, #1
 80040fc:	f7fc fa70 	bl	80005e0 <_test_assert>
 8004100:	2800      	cmp	r0, #0
 8004102:	d0d8      	beq.n	80040b6 <dyn2_execute+0x86>
 8004104:	bdf8      	pop	{r3, r4, r5, r6, r7, pc}
 8004106:	46c0      	nop			; (mov r8, r8)
 8004108:	20000738 	.word	0x20000738
 800410c:	20000d28 	.word	0x20000d28
 8004110:	20000d58 	.word	0x20000d58
 8004114:	08008ab0 	.word	0x08008ab0
 8004118:	08007f40 	.word	0x08007f40
 800411c:	20001414 	.word	0x20001414
 8004120:	08007f44 	.word	0x08007f44
 8004124:	08007f48 	.word	0x08007f48
 8004128:	08007f4c 	.word	0x08007f4c
 800412c:	08008194 	.word	0x08008194
 8004130:	08007f50 	.word	0x08007f50
	...

08004140 <dyn1_execute>:
 8004140:	b5f0      	push	{r4, r5, r6, r7, lr}
 8004142:	4b2f      	ldr	r3, [pc, #188]	; (8004200 <dyn1_execute+0xc0>)
 8004144:	4e2f      	ldr	r6, [pc, #188]	; (8004204 <dyn1_execute+0xc4>)
 8004146:	699b      	ldr	r3, [r3, #24]
 8004148:	b083      	sub	sp, #12
 800414a:	689d      	ldr	r5, [r3, #8]
 800414c:	4669      	mov	r1, sp
 800414e:	0030      	movs	r0, r6
 8004150:	f7ff fb8e 	bl	8003870 <chHeapStatus>
 8004154:	492c      	ldr	r1, [pc, #176]	; (8004208 <dyn1_execute+0xc8>)
 8004156:	1e68      	subs	r0, r5, #1
 8004158:	f7ff fc42 	bl	80039e0 <chThdCreateFromHeap.constprop.58>
 800415c:	4c2b      	ldr	r4, [pc, #172]	; (800420c <dyn1_execute+0xcc>)
 800415e:	492c      	ldr	r1, [pc, #176]	; (8004210 <dyn1_execute+0xd0>)
 8004160:	6020      	str	r0, [r4, #0]
 8004162:	1ea8      	subs	r0, r5, #2
 8004164:	f7ff fc3c 	bl	80039e0 <chThdCreateFromHeap.constprop.58>
 8004168:	a901      	add	r1, sp, #4
 800416a:	6060      	str	r0, [r4, #4]
 800416c:	0030      	movs	r0, r6
 800416e:	f7ff fb7f 	bl	8003870 <chHeapStatus>
 8004172:	9901      	ldr	r1, [sp, #4]
 8004174:	0030      	movs	r0, r6
 8004176:	f7ff fbeb 	bl	8003950 <chHeapAlloc>
 800417a:	4926      	ldr	r1, [pc, #152]	; (8004214 <dyn1_execute+0xd4>)
 800417c:	0007      	movs	r7, r0
 800417e:	1ee8      	subs	r0, r5, #3
 8004180:	f7ff fc2e 	bl	80039e0 <chThdCreateFromHeap.constprop.58>
 8004184:	60a0      	str	r0, [r4, #8]
 8004186:	0038      	movs	r0, r7
 8004188:	f7ff fb92 	bl	80038b0 <chHeapFree>
 800418c:	6823      	ldr	r3, [r4, #0]
 800418e:	2b00      	cmp	r3, #0
 8004190:	d02c      	beq.n	80041ec <dyn1_execute+0xac>
 8004192:	6863      	ldr	r3, [r4, #4]
 8004194:	2100      	movs	r1, #0
 8004196:	2b00      	cmp	r3, #0
 8004198:	d002      	beq.n	80041a0 <dyn1_execute+0x60>
 800419a:	68a3      	ldr	r3, [r4, #8]
 800419c:	2b00      	cmp	r3, #0
 800419e:	d027      	beq.n	80041f0 <dyn1_execute+0xb0>
 80041a0:	2001      	movs	r0, #1
 80041a2:	f7fc fa1d 	bl	80005e0 <_test_assert>
 80041a6:	2800      	cmp	r0, #0
 80041a8:	d001      	beq.n	80041ae <dyn1_execute+0x6e>
 80041aa:	b003      	add	sp, #12
 80041ac:	bdf0      	pop	{r4, r5, r6, r7, pc}
 80041ae:	f7ff ff27 	bl	8004000 <test_wait_threads>
 80041b2:	4919      	ldr	r1, [pc, #100]	; (8004218 <dyn1_execute+0xd8>)
 80041b4:	2002      	movs	r0, #2
 80041b6:	f7fc f9eb 	bl	8000590 <_test_assert_sequence>
 80041ba:	2800      	cmp	r0, #0
 80041bc:	d1f5      	bne.n	80041aa <dyn1_execute+0x6a>
 80041be:	a901      	add	r1, sp, #4
 80041c0:	0030      	movs	r0, r6
 80041c2:	f7ff fb55 	bl	8003870 <chHeapStatus>
 80041c6:	3801      	subs	r0, #1
 80041c8:	4241      	negs	r1, r0
 80041ca:	4141      	adcs	r1, r0
 80041cc:	2003      	movs	r0, #3
 80041ce:	b2c9      	uxtb	r1, r1
 80041d0:	f7fc fa06 	bl	80005e0 <_test_assert>
 80041d4:	2800      	cmp	r0, #0
 80041d6:	d1e8      	bne.n	80041aa <dyn1_execute+0x6a>
 80041d8:	9b01      	ldr	r3, [sp, #4]
 80041da:	9a00      	ldr	r2, [sp, #0]
 80041dc:	3004      	adds	r0, #4
 80041de:	1a99      	subs	r1, r3, r2
 80041e0:	424b      	negs	r3, r1
 80041e2:	4159      	adcs	r1, r3
 80041e4:	b2c9      	uxtb	r1, r1
 80041e6:	f7fc f9fb 	bl	80005e0 <_test_assert>
 80041ea:	e7de      	b.n	80041aa <dyn1_execute+0x6a>
 80041ec:	2100      	movs	r1, #0
 80041ee:	e7d7      	b.n	80041a0 <dyn1_execute+0x60>
 80041f0:	68e3      	ldr	r3, [r4, #12]
 80041f2:	2b00      	cmp	r3, #0
 80041f4:	d1d4      	bne.n	80041a0 <dyn1_execute+0x60>
 80041f6:	6921      	ldr	r1, [r4, #16]
 80041f8:	424b      	negs	r3, r1
 80041fa:	4159      	adcs	r1, r3
 80041fc:	b2c9      	uxtb	r1, r1
 80041fe:	e7cf      	b.n	80041a0 <dyn1_execute+0x60>
 8004200:	20000738 	.word	0x20000738
 8004204:	20000cd0 	.word	0x20000cd0
 8004208:	08007f40 	.word	0x08007f40
 800420c:	20001414 	.word	0x20001414
 8004210:	08007f44 	.word	0x08007f44
 8004214:	08007f48 	.word	0x08007f48
 8004218:	08007f30 	.word	0x08007f30
 800421c:	00000000 	.word	0x00000000

08004220 <chThdExit>:
 8004220:	b570      	push	{r4, r5, r6, lr}
 8004222:	0006      	movs	r6, r0
 8004224:	b672      	cpsid	i
 8004226:	f7fd fbe3 	bl	80019f0 <_dbg_check_lock>
 800422a:	4d0f      	ldr	r5, [pc, #60]	; (8004268 <chThdExit+0x48>)
 800422c:	69ac      	ldr	r4, [r5, #24]
 800422e:	6266      	str	r6, [r4, #36]	; 0x24
 8004230:	0026      	movs	r6, r4
 8004232:	6aa0      	ldr	r0, [r4, #40]	; 0x28
 8004234:	3628      	adds	r6, #40	; 0x28
 8004236:	42b0      	cmp	r0, r6
 8004238:	d006      	beq.n	8004248 <chThdExit+0x28>
 800423a:	6803      	ldr	r3, [r0, #0]
 800423c:	62a3      	str	r3, [r4, #40]	; 0x28
 800423e:	f7fc fadf 	bl	8000800 <chSchReadyI>
 8004242:	6aa0      	ldr	r0, [r4, #40]	; 0x28
 8004244:	42b0      	cmp	r0, r6
 8004246:	d1f8      	bne.n	800423a <chThdExit+0x1a>
 8004248:	2321      	movs	r3, #33	; 0x21
 800424a:	5ce3      	ldrb	r3, [r4, r3]
 800424c:	079b      	lsls	r3, r3, #30
 800424e:	d104      	bne.n	800425a <chThdExit+0x3a>
 8004250:	6922      	ldr	r2, [r4, #16]
 8004252:	6963      	ldr	r3, [r4, #20]
 8004254:	611a      	str	r2, [r3, #16]
 8004256:	6922      	ldr	r2, [r4, #16]
 8004258:	6153      	str	r3, [r2, #20]
 800425a:	200f      	movs	r0, #15
 800425c:	f7fd f998 	bl	8001590 <chSchGoSleepS>
 8004260:	b672      	cpsid	i
 8004262:	4b02      	ldr	r3, [pc, #8]	; (800426c <chThdExit+0x4c>)
 8004264:	62eb      	str	r3, [r5, #44]	; 0x2c
 8004266:	e7fe      	b.n	8004266 <chThdExit+0x46>
 8004268:	20000738 	.word	0x20000738
 800426c:	08007c80 	.word	0x08007c80

08004270 <thread1.lto_priv.136>:
 8004270:	b510      	push	{r4, lr}
 8004272:	f7ff ffd5 	bl	8004220 <chThdExit>
 8004276:	46c0      	nop			; (mov r8, r8)
	...

08004280 <chThdYield>:
 8004280:	b570      	push	{r4, r5, r6, lr}
 8004282:	b672      	cpsid	i
 8004284:	f7fd fbb4 	bl	80019f0 <_dbg_check_lock>
 8004288:	f7fc fa5a 	bl	8000740 <chDbgCheckClassS>
 800428c:	f7fc fa58 	bl	8000740 <chDbgCheckClassS>
 8004290:	4c19      	ldr	r4, [pc, #100]	; (80042f8 <chThdYield+0x78>)
 8004292:	6823      	ldr	r3, [r4, #0]
 8004294:	69a5      	ldr	r5, [r4, #24]
 8004296:	689a      	ldr	r2, [r3, #8]
 8004298:	68a9      	ldr	r1, [r5, #8]
 800429a:	428a      	cmp	r2, r1
 800429c:	d20b      	bcs.n	80042b6 <chThdYield+0x36>
 800429e:	f7fd faf7 	bl	8001890 <_dbg_check_unlock>
 80042a2:	6823      	ldr	r3, [r4, #0]
 80042a4:	42a3      	cmp	r3, r4
 80042a6:	d004      	beq.n	80042b2 <chThdYield+0x32>
 80042a8:	69a2      	ldr	r2, [r4, #24]
 80042aa:	689b      	ldr	r3, [r3, #8]
 80042ac:	6892      	ldr	r2, [r2, #8]
 80042ae:	429a      	cmp	r2, r3
 80042b0:	d31d      	bcc.n	80042ee <chThdYield+0x6e>
 80042b2:	b662      	cpsie	i
 80042b4:	bd70      	pop	{r4, r5, r6, pc}
 80042b6:	681a      	ldr	r2, [r3, #0]
 80042b8:	2101      	movs	r1, #1
 80042ba:	6054      	str	r4, [r2, #4]
 80042bc:	6022      	str	r2, [r4, #0]
 80042be:	2220      	movs	r2, #32
 80042c0:	0028      	movs	r0, r5
 80042c2:	5499      	strb	r1, [r3, r2]
 80042c4:	61a3      	str	r3, [r4, #24]
 80042c6:	f7fc fa9b 	bl	8000800 <chSchReadyI>
 80042ca:	0028      	movs	r0, r5
 80042cc:	f7fc fa18 	bl	8000700 <_dbg_trace>
 80042d0:	f3ef 8309 	mrs	r3, PSP
 80042d4:	69ea      	ldr	r2, [r5, #28]
 80042d6:	3b24      	subs	r3, #36	; 0x24
 80042d8:	429a      	cmp	r2, r3
 80042da:	d804      	bhi.n	80042e6 <chThdYield+0x66>
 80042dc:	0029      	movs	r1, r5
 80042de:	69a0      	ldr	r0, [r4, #24]
 80042e0:	f7fb ff4e 	bl	8000180 <_port_switch>
 80042e4:	e7db      	b.n	800429e <chThdYield+0x1e>
 80042e6:	b672      	cpsid	i
 80042e8:	4b04      	ldr	r3, [pc, #16]	; (80042fc <chThdYield+0x7c>)
 80042ea:	62e3      	str	r3, [r4, #44]	; 0x2c
 80042ec:	e7fe      	b.n	80042ec <chThdYield+0x6c>
 80042ee:	b672      	cpsid	i
 80042f0:	4b03      	ldr	r3, [pc, #12]	; (8004300 <chThdYield+0x80>)
 80042f2:	62e3      	str	r3, [r4, #44]	; 0x2c
 80042f4:	e7fe      	b.n	80042f4 <chThdYield+0x74>
 80042f6:	46c0      	nop			; (mov r8, r8)
 80042f8:	20000738 	.word	0x20000738
 80042fc:	08007f00 	.word	0x08007f00
 8004300:	08007970 	.word	0x08007970
	...

08004310 <thread8>:
 8004310:	b5f8      	push	{r3, r4, r5, r6, r7, lr}
 8004312:	0004      	movs	r4, r0
 8004314:	2621      	movs	r6, #33	; 0x21
 8004316:	2504      	movs	r5, #4
 8004318:	4f08      	ldr	r7, [pc, #32]	; (800433c <thread8+0x2c>)
 800431a:	f7ff ffb1 	bl	8004280 <chThdYield>
 800431e:	f7ff ffaf 	bl	8004280 <chThdYield>
 8004322:	f7ff ffad 	bl	8004280 <chThdYield>
 8004326:	f7ff ffab 	bl	8004280 <chThdYield>
 800432a:	6823      	ldr	r3, [r4, #0]
 800432c:	3304      	adds	r3, #4
 800432e:	6023      	str	r3, [r4, #0]
 8004330:	69bb      	ldr	r3, [r7, #24]
 8004332:	5d9b      	ldrb	r3, [r3, r6]
 8004334:	421d      	tst	r5, r3
 8004336:	d0f0      	beq.n	800431a <thread8+0xa>
 8004338:	bdf8      	pop	{r3, r4, r5, r6, r7, pc}
 800433a:	46c0      	nop			; (mov r8, r8)
 800433c:	20000738 	.word	0x20000738

08004340 <chThdSleep>:
 8004340:	b510      	push	{r4, lr}
 8004342:	0004      	movs	r4, r0
 8004344:	b672      	cpsid	i
 8004346:	f7fd fb53 	bl	80019f0 <_dbg_check_lock>
 800434a:	0021      	movs	r1, r4
 800434c:	2008      	movs	r0, #8
 800434e:	f7fd f9c7 	bl	80016e0 <chSchGoSleepTimeoutS>
 8004352:	f7fd fa9d 	bl	8001890 <_dbg_check_unlock>
 8004356:	4b07      	ldr	r3, [pc, #28]	; (8004374 <chThdSleep+0x34>)
 8004358:	681a      	ldr	r2, [r3, #0]
 800435a:	429a      	cmp	r2, r3
 800435c:	d004      	beq.n	8004368 <chThdSleep+0x28>
 800435e:	6999      	ldr	r1, [r3, #24]
 8004360:	6892      	ldr	r2, [r2, #8]
 8004362:	6889      	ldr	r1, [r1, #8]
 8004364:	4291      	cmp	r1, r2
 8004366:	d301      	bcc.n	800436c <chThdSleep+0x2c>
 8004368:	b662      	cpsie	i
 800436a:	bd10      	pop	{r4, pc}
 800436c:	b672      	cpsid	i
 800436e:	4a02      	ldr	r2, [pc, #8]	; (8004378 <chThdSleep+0x38>)
 8004370:	62da      	str	r2, [r3, #44]	; 0x2c
 8004372:	e7fe      	b.n	8004372 <chThdSleep+0x32>
 8004374:	20000738 	.word	0x20000738
 8004378:	08007970 	.word	0x08007970
 800437c:	00000000 	.word	0x00000000

08004380 <Thread1>:
 8004380:	b570      	push	{r4, r5, r6, lr}
 8004382:	2480      	movs	r4, #128	; 0x80
 8004384:	4b06      	ldr	r3, [pc, #24]	; (80043a0 <Thread1+0x20>)
 8004386:	4a07      	ldr	r2, [pc, #28]	; (80043a4 <Thread1+0x24>)
 8004388:	699b      	ldr	r3, [r3, #24]
 800438a:	4d07      	ldr	r5, [pc, #28]	; (80043a8 <Thread1+0x28>)
 800438c:	619a      	str	r2, [r3, #24]
 800438e:	836c      	strh	r4, [r5, #26]
 8004390:	4806      	ldr	r0, [pc, #24]	; (80043ac <Thread1+0x2c>)
 8004392:	f7ff ffd5 	bl	8004340 <chThdSleep>
 8004396:	832c      	strh	r4, [r5, #24]
 8004398:	4804      	ldr	r0, [pc, #16]	; (80043ac <Thread1+0x2c>)
 800439a:	f7ff ffd1 	bl	8004340 <chThdSleep>
 800439e:	e7f6      	b.n	800438e <Thread1+0xe>
 80043a0:	20000738 	.word	0x20000738
 80043a4:	08007890 	.word	0x08007890
 80043a8:	48000800 	.word	0x48000800
 80043ac:	00001388 	.word	0x00001388

080043b0 <Thread2>:
 80043b0:	b570      	push	{r4, r5, r6, lr}
 80043b2:	2480      	movs	r4, #128	; 0x80
 80043b4:	4b07      	ldr	r3, [pc, #28]	; (80043d4 <Thread2+0x24>)
 80043b6:	4a08      	ldr	r2, [pc, #32]	; (80043d8 <Thread2+0x28>)
 80043b8:	699b      	ldr	r3, [r3, #24]
 80043ba:	4d08      	ldr	r5, [pc, #32]	; (80043dc <Thread2+0x2c>)
 80043bc:	619a      	str	r2, [r3, #24]
 80043be:	00a4      	lsls	r4, r4, #2
 80043c0:	836c      	strh	r4, [r5, #26]
 80043c2:	4807      	ldr	r0, [pc, #28]	; (80043e0 <Thread2+0x30>)
 80043c4:	f7ff ffbc 	bl	8004340 <chThdSleep>
 80043c8:	832c      	strh	r4, [r5, #24]
 80043ca:	4805      	ldr	r0, [pc, #20]	; (80043e0 <Thread2+0x30>)
 80043cc:	f7ff ffb8 	bl	8004340 <chThdSleep>
 80043d0:	e7f6      	b.n	80043c0 <Thread2+0x10>
 80043d2:	46c0      	nop			; (mov r8, r8)
 80043d4:	20000738 	.word	0x20000738
 80043d8:	080078a0 	.word	0x080078a0
 80043dc:	48000800 	.word	0x48000800
 80043e0:	000009c4 	.word	0x000009c4
	...

080043f0 <dyn3_execute>:
 80043f0:	b570      	push	{r4, r5, r6, lr}
 80043f2:	4d52      	ldr	r5, [pc, #328]	; (800453c <dyn3_execute+0x14c>)
 80043f4:	4952      	ldr	r1, [pc, #328]	; (8004540 <dyn3_execute+0x150>)
 80043f6:	69ab      	ldr	r3, [r5, #24]
 80043f8:	2622      	movs	r6, #34	; 0x22
 80043fa:	6898      	ldr	r0, [r3, #8]
 80043fc:	3801      	subs	r0, #1
 80043fe:	f7ff faef 	bl	80039e0 <chThdCreateFromHeap.constprop.58>
 8004402:	5d81      	ldrb	r1, [r0, r6]
 8004404:	0004      	movs	r4, r0
 8004406:	3901      	subs	r1, #1
 8004408:	424b      	negs	r3, r1
 800440a:	4159      	adcs	r1, r3
 800440c:	2001      	movs	r0, #1
 800440e:	b2c9      	uxtb	r1, r1
 8004410:	f7fc f8e6 	bl	80005e0 <_test_assert>
 8004414:	2800      	cmp	r0, #0
 8004416:	d000      	beq.n	800441a <dyn3_execute+0x2a>
 8004418:	bd70      	pop	{r4, r5, r6, pc}
 800441a:	b672      	cpsid	i
 800441c:	f7fd fae8 	bl	80019f0 <_dbg_check_lock>
 8004420:	5da3      	ldrb	r3, [r4, r6]
 8004422:	2bff      	cmp	r3, #255	; 0xff
 8004424:	d100      	bne.n	8004428 <dyn3_execute+0x38>
 8004426:	e085      	b.n	8004534 <dyn3_execute+0x144>
 8004428:	3301      	adds	r3, #1
 800442a:	55a3      	strb	r3, [r4, r6]
 800442c:	f7fd fa30 	bl	8001890 <_dbg_check_unlock>
 8004430:	682b      	ldr	r3, [r5, #0]
 8004432:	42ab      	cmp	r3, r5
 8004434:	d004      	beq.n	8004440 <dyn3_execute+0x50>
 8004436:	69aa      	ldr	r2, [r5, #24]
 8004438:	689b      	ldr	r3, [r3, #8]
 800443a:	6892      	ldr	r2, [r2, #8]
 800443c:	429a      	cmp	r2, r3
 800443e:	d375      	bcc.n	800452c <dyn3_execute+0x13c>
 8004440:	b662      	cpsie	i
 8004442:	2522      	movs	r5, #34	; 0x22
 8004444:	5d61      	ldrb	r1, [r4, r5]
 8004446:	2002      	movs	r0, #2
 8004448:	3902      	subs	r1, #2
 800444a:	424b      	negs	r3, r1
 800444c:	4159      	adcs	r1, r3
 800444e:	b2c9      	uxtb	r1, r1
 8004450:	f7fc f8c6 	bl	80005e0 <_test_assert>
 8004454:	2800      	cmp	r0, #0
 8004456:	d1df      	bne.n	8004418 <dyn3_execute+0x28>
 8004458:	0020      	movs	r0, r4
 800445a:	f7ff fce9 	bl	8003e30 <chThdRelease>
 800445e:	5d61      	ldrb	r1, [r4, r5]
 8004460:	2003      	movs	r0, #3
 8004462:	3901      	subs	r1, #1
 8004464:	424b      	negs	r3, r1
 8004466:	4159      	adcs	r1, r3
 8004468:	b2c9      	uxtb	r1, r1
 800446a:	f7fc f8b9 	bl	80005e0 <_test_assert>
 800446e:	2800      	cmp	r0, #0
 8004470:	d1d2      	bne.n	8004418 <dyn3_execute+0x28>
 8004472:	0020      	movs	r0, r4
 8004474:	f7ff fd2c 	bl	8003ed0 <regfind>
 8004478:	0001      	movs	r1, r0
 800447a:	2004      	movs	r0, #4
 800447c:	f7fc f8b0 	bl	80005e0 <_test_assert>
 8004480:	2800      	cmp	r0, #0
 8004482:	d1c9      	bne.n	8004418 <dyn3_execute+0x28>
 8004484:	0020      	movs	r0, r4
 8004486:	f7ff fd23 	bl	8003ed0 <regfind>
 800448a:	0001      	movs	r1, r0
 800448c:	2005      	movs	r0, #5
 800448e:	f7fc f8a7 	bl	80005e0 <_test_assert>
 8004492:	2800      	cmp	r0, #0
 8004494:	d1c0      	bne.n	8004418 <dyn3_execute+0x28>
 8004496:	0020      	movs	r0, r4
 8004498:	f7ff fcca 	bl	8003e30 <chThdRelease>
 800449c:	5d61      	ldrb	r1, [r4, r5]
 800449e:	2006      	movs	r0, #6
 80044a0:	424b      	negs	r3, r1
 80044a2:	4159      	adcs	r1, r3
 80044a4:	b2c9      	uxtb	r1, r1
 80044a6:	f7fc f89b 	bl	80005e0 <_test_assert>
 80044aa:	2800      	cmp	r0, #0
 80044ac:	d1b4      	bne.n	8004418 <dyn3_execute+0x28>
 80044ae:	3d02      	subs	r5, #2
 80044b0:	5d61      	ldrb	r1, [r4, r5]
 80044b2:	3007      	adds	r0, #7
 80044b4:	424b      	negs	r3, r1
 80044b6:	4159      	adcs	r1, r3
 80044b8:	b2c9      	uxtb	r1, r1
 80044ba:	f7fc f891 	bl	80005e0 <_test_assert>
 80044be:	2800      	cmp	r0, #0
 80044c0:	d1aa      	bne.n	8004418 <dyn3_execute+0x28>
 80044c2:	0020      	movs	r0, r4
 80044c4:	f7ff fd04 	bl	8003ed0 <regfind>
 80044c8:	0001      	movs	r1, r0
 80044ca:	2008      	movs	r0, #8
 80044cc:	f7fc f888 	bl	80005e0 <_test_assert>
 80044d0:	2800      	cmp	r0, #0
 80044d2:	d1a1      	bne.n	8004418 <dyn3_execute+0x28>
 80044d4:	0020      	movs	r0, r4
 80044d6:	f7ff fcfb 	bl	8003ed0 <regfind>
 80044da:	0001      	movs	r1, r0
 80044dc:	2009      	movs	r0, #9
 80044de:	f7fc f87f 	bl	80005e0 <_test_assert>
 80044e2:	2800      	cmp	r0, #0
 80044e4:	d198      	bne.n	8004418 <dyn3_execute+0x28>
 80044e6:	30f5      	adds	r0, #245	; 0xf5
 80044e8:	30ff      	adds	r0, #255	; 0xff
 80044ea:	f7ff ff29 	bl	8004340 <chThdSleep>
 80044ee:	5d61      	ldrb	r1, [r4, r5]
 80044f0:	200a      	movs	r0, #10
 80044f2:	390f      	subs	r1, #15
 80044f4:	424b      	negs	r3, r1
 80044f6:	4159      	adcs	r1, r3
 80044f8:	b2c9      	uxtb	r1, r1
 80044fa:	f7fc f871 	bl	80005e0 <_test_assert>
 80044fe:	2800      	cmp	r0, #0
 8004500:	d000      	beq.n	8004504 <dyn3_execute+0x114>
 8004502:	e789      	b.n	8004418 <dyn3_execute+0x28>
 8004504:	0020      	movs	r0, r4
 8004506:	f7ff fce3 	bl	8003ed0 <regfind>
 800450a:	0001      	movs	r1, r0
 800450c:	200b      	movs	r0, #11
 800450e:	f7fc f867 	bl	80005e0 <_test_assert>
 8004512:	2800      	cmp	r0, #0
 8004514:	d000      	beq.n	8004518 <dyn3_execute+0x128>
 8004516:	e77f      	b.n	8004418 <dyn3_execute+0x28>
 8004518:	0020      	movs	r0, r4
 800451a:	f7ff fcd9 	bl	8003ed0 <regfind>
 800451e:	2101      	movs	r1, #1
 8004520:	4041      	eors	r1, r0
 8004522:	b2c9      	uxtb	r1, r1
 8004524:	200c      	movs	r0, #12
 8004526:	f7fc f85b 	bl	80005e0 <_test_assert>
 800452a:	e775      	b.n	8004418 <dyn3_execute+0x28>
 800452c:	b672      	cpsid	i
 800452e:	4b05      	ldr	r3, [pc, #20]	; (8004544 <dyn3_execute+0x154>)
 8004530:	62eb      	str	r3, [r5, #44]	; 0x2c
 8004532:	e7fe      	b.n	8004532 <dyn3_execute+0x142>
 8004534:	b672      	cpsid	i
 8004536:	4b04      	ldr	r3, [pc, #16]	; (8004548 <dyn3_execute+0x158>)
 8004538:	62eb      	str	r3, [r5, #44]	; 0x2c
 800453a:	e7fe      	b.n	800453a <dyn3_execute+0x14a>
 800453c:	20000738 	.word	0x20000738
 8004540:	08007f40 	.word	0x08007f40
 8004544:	08007980 	.word	0x08007980
 8004548:	08007a60 	.word	0x08007a60
 800454c:	00000000 	.word	0x00000000

08004550 <thread1.lto_priv.134>:
 8004550:	b510      	push	{r4, lr}
 8004552:	0004      	movs	r4, r0
 8004554:	20fa      	movs	r0, #250	; 0xfa
 8004556:	0040      	lsls	r0, r0, #1
 8004558:	f7ff fef2 	bl	8004340 <chThdSleep>
 800455c:	2c00      	cmp	r4, #0
 800455e:	d015      	beq.n	800458c <thread1.lto_priv.134+0x3c>
 8004560:	b672      	cpsid	i
 8004562:	f7fd fa45 	bl	80019f0 <_dbg_check_lock>
 8004566:	2101      	movs	r1, #1
 8004568:	0020      	movs	r0, r4
 800456a:	f7fc f9e9 	bl	8000940 <chEvtSignalI>
 800456e:	f7fc ffc7 	bl	8001500 <chSchRescheduleS>
 8004572:	f7fd f98d 	bl	8001890 <_dbg_check_unlock>
 8004576:	4b0a      	ldr	r3, [pc, #40]	; (80045a0 <thread1.lto_priv.134+0x50>)
 8004578:	681a      	ldr	r2, [r3, #0]
 800457a:	429a      	cmp	r2, r3
 800457c:	d004      	beq.n	8004588 <thread1.lto_priv.134+0x38>
 800457e:	6999      	ldr	r1, [r3, #24]
 8004580:	6892      	ldr	r2, [r2, #8]
 8004582:	6889      	ldr	r1, [r1, #8]
 8004584:	4291      	cmp	r1, r2
 8004586:	d306      	bcc.n	8004596 <thread1.lto_priv.134+0x46>
 8004588:	b662      	cpsie	i
 800458a:	bd10      	pop	{r4, pc}
 800458c:	b672      	cpsid	i
 800458e:	4b04      	ldr	r3, [pc, #16]	; (80045a0 <thread1.lto_priv.134+0x50>)
 8004590:	4a04      	ldr	r2, [pc, #16]	; (80045a4 <thread1.lto_priv.134+0x54>)
 8004592:	62da      	str	r2, [r3, #44]	; 0x2c
 8004594:	e7fe      	b.n	8004594 <thread1.lto_priv.134+0x44>
 8004596:	b672      	cpsid	i
 8004598:	4a03      	ldr	r2, [pc, #12]	; (80045a8 <thread1.lto_priv.134+0x58>)
 800459a:	62da      	str	r2, [r3, #44]	; 0x2c
 800459c:	e7fe      	b.n	800459c <thread1.lto_priv.134+0x4c>
 800459e:	46c0      	nop			; (mov r8, r8)
 80045a0:	20000738 	.word	0x20000738
 80045a4:	08007be0 	.word	0x08007be0
 80045a8:	080079d0 	.word	0x080079d0
 80045ac:	00000000 	.word	0x00000000

080045b0 <thread2.lto_priv.140>:
 80045b0:	b510      	push	{r4, lr}
 80045b2:	b672      	cpsid	i
 80045b4:	f7fd fa1c 	bl	80019f0 <_dbg_check_lock>
 80045b8:	2100      	movs	r1, #0
 80045ba:	4819      	ldr	r0, [pc, #100]	; (8004620 <thread2.lto_priv.140+0x70>)
 80045bc:	f7fc f9e8 	bl	8000990 <chEvtBroadcastFlagsI>
 80045c0:	f7fc ff9e 	bl	8001500 <chSchRescheduleS>
 80045c4:	f7fd f964 	bl	8001890 <_dbg_check_unlock>
 80045c8:	4c16      	ldr	r4, [pc, #88]	; (8004624 <thread2.lto_priv.140+0x74>)
 80045ca:	6823      	ldr	r3, [r4, #0]
 80045cc:	42a3      	cmp	r3, r4
 80045ce:	d004      	beq.n	80045da <thread2.lto_priv.140+0x2a>
 80045d0:	69a2      	ldr	r2, [r4, #24]
 80045d2:	689b      	ldr	r3, [r3, #8]
 80045d4:	6892      	ldr	r2, [r2, #8]
 80045d6:	429a      	cmp	r2, r3
 80045d8:	d31d      	bcc.n	8004616 <thread2.lto_priv.140+0x66>
 80045da:	b662      	cpsie	i
 80045dc:	20fa      	movs	r0, #250	; 0xfa
 80045de:	0040      	lsls	r0, r0, #1
 80045e0:	f7ff feae 	bl	8004340 <chThdSleep>
 80045e4:	b672      	cpsid	i
 80045e6:	f7fd fa03 	bl	80019f0 <_dbg_check_lock>
 80045ea:	2100      	movs	r1, #0
 80045ec:	480e      	ldr	r0, [pc, #56]	; (8004628 <thread2.lto_priv.140+0x78>)
 80045ee:	f7fc f9cf 	bl	8000990 <chEvtBroadcastFlagsI>
 80045f2:	f7fc ff85 	bl	8001500 <chSchRescheduleS>
 80045f6:	f7fd f94b 	bl	8001890 <_dbg_check_unlock>
 80045fa:	6823      	ldr	r3, [r4, #0]
 80045fc:	42a3      	cmp	r3, r4
 80045fe:	d004      	beq.n	800460a <thread2.lto_priv.140+0x5a>
 8004600:	69a2      	ldr	r2, [r4, #24]
 8004602:	689b      	ldr	r3, [r3, #8]
 8004604:	6892      	ldr	r2, [r2, #8]
 8004606:	429a      	cmp	r2, r3
 8004608:	d301      	bcc.n	800460e <thread2.lto_priv.140+0x5e>
 800460a:	b662      	cpsie	i
 800460c:	bd10      	pop	{r4, pc}
 800460e:	b672      	cpsid	i
 8004610:	4b06      	ldr	r3, [pc, #24]	; (800462c <thread2.lto_priv.140+0x7c>)
 8004612:	62e3      	str	r3, [r4, #44]	; 0x2c
 8004614:	e7fe      	b.n	8004614 <thread2.lto_priv.140+0x64>
 8004616:	b672      	cpsid	i
 8004618:	4b04      	ldr	r3, [pc, #16]	; (800462c <thread2.lto_priv.140+0x7c>)
 800461a:	62e3      	str	r3, [r4, #44]	; 0x2c
 800461c:	e7fe      	b.n	800461c <thread2.lto_priv.140+0x6c>
 800461e:	46c0      	nop			; (mov r8, r8)
 8004620:	20000608 	.word	0x20000608
 8004624:	20000738 	.word	0x20000738
 8004628:	2000060c 	.word	0x2000060c
 800462c:	080079d0 	.word	0x080079d0

08004630 <thread4a>:
 8004630:	20fa      	movs	r0, #250	; 0xfa
 8004632:	b510      	push	{r4, lr}
 8004634:	0040      	lsls	r0, r0, #1
 8004636:	f7ff fe83 	bl	8004340 <chThdSleep>
 800463a:	4c04      	ldr	r4, [pc, #16]	; (800464c <thread4a+0x1c>)
 800463c:	0020      	movs	r0, r4
 800463e:	f7fe ffaf 	bl	80035a0 <chMtxLock>
 8004642:	0020      	movs	r0, r4
 8004644:	f7fe ff3c 	bl	80034c0 <chMtxUnlock>
 8004648:	bd10      	pop	{r4, pc}
 800464a:	46c0      	nop			; (mov r8, r8)
 800464c:	20000644 	.word	0x20000644

08004650 <thread4b>:
 8004650:	b510      	push	{r4, lr}
 8004652:	4805      	ldr	r0, [pc, #20]	; (8004668 <thread4b+0x18>)
 8004654:	f7ff fe74 	bl	8004340 <chThdSleep>
 8004658:	4c04      	ldr	r4, [pc, #16]	; (800466c <thread4b+0x1c>)
 800465a:	0020      	movs	r0, r4
 800465c:	f7fe ffa0 	bl	80035a0 <chMtxLock>
 8004660:	0020      	movs	r0, r4
 8004662:	f7fe ff2d 	bl	80034c0 <chMtxUnlock>
 8004666:	bd10      	pop	{r4, pc}
 8004668:	000005dc 	.word	0x000005dc
 800466c:	20000634 	.word	0x20000634

08004670 <thread2.lto_priv.139>:
 8004670:	20fa      	movs	r0, #250	; 0xfa
 8004672:	b510      	push	{r4, lr}
 8004674:	0040      	lsls	r0, r0, #1
 8004676:	f7ff fe63 	bl	8004340 <chThdSleep>
 800467a:	b672      	cpsid	i
 800467c:	f7fd f9b8 	bl	80019f0 <_dbg_check_lock>
 8004680:	480a      	ldr	r0, [pc, #40]	; (80046ac <thread2.lto_priv.139+0x3c>)
 8004682:	f7fc fa05 	bl	8000a90 <chSemSignalI>
 8004686:	f7fc ff3b 	bl	8001500 <chSchRescheduleS>
 800468a:	f7fd f901 	bl	8001890 <_dbg_check_unlock>
 800468e:	4b08      	ldr	r3, [pc, #32]	; (80046b0 <thread2.lto_priv.139+0x40>)
 8004690:	681a      	ldr	r2, [r3, #0]
 8004692:	429a      	cmp	r2, r3
 8004694:	d004      	beq.n	80046a0 <thread2.lto_priv.139+0x30>
 8004696:	6999      	ldr	r1, [r3, #24]
 8004698:	6892      	ldr	r2, [r2, #8]
 800469a:	6889      	ldr	r1, [r1, #8]
 800469c:	4291      	cmp	r1, r2
 800469e:	d301      	bcc.n	80046a4 <thread2.lto_priv.139+0x34>
 80046a0:	b662      	cpsie	i
 80046a2:	bd10      	pop	{r4, pc}
 80046a4:	b672      	cpsid	i
 80046a6:	4a03      	ldr	r2, [pc, #12]	; (80046b4 <thread2.lto_priv.139+0x44>)
 80046a8:	62da      	str	r2, [r3, #44]	; 0x2c
 80046aa:	e7fe      	b.n	80046aa <thread2.lto_priv.139+0x3a>
 80046ac:	200006ac 	.word	0x200006ac
 80046b0:	20000738 	.word	0x20000738
 80046b4:	080078f0 	.word	0x080078f0
	...

080046c0 <test_wait_tick>:
 80046c0:	b510      	push	{r4, lr}
 80046c2:	2001      	movs	r0, #1
 80046c4:	f7ff fe3c 	bl	8004340 <chThdSleep>
 80046c8:	b672      	cpsid	i
 80046ca:	f7fd f991 	bl	80019f0 <_dbg_check_lock>
 80046ce:	2380      	movs	r3, #128	; 0x80
 80046d0:	05db      	lsls	r3, r3, #23
 80046d2:	6a5c      	ldr	r4, [r3, #36]	; 0x24
 80046d4:	f7fd f8dc 	bl	8001890 <_dbg_check_unlock>
 80046d8:	4b07      	ldr	r3, [pc, #28]	; (80046f8 <test_wait_tick+0x38>)
 80046da:	681a      	ldr	r2, [r3, #0]
 80046dc:	429a      	cmp	r2, r3
 80046de:	d004      	beq.n	80046ea <test_wait_tick+0x2a>
 80046e0:	6999      	ldr	r1, [r3, #24]
 80046e2:	6892      	ldr	r2, [r2, #8]
 80046e4:	6889      	ldr	r1, [r1, #8]
 80046e6:	4291      	cmp	r1, r2
 80046e8:	d302      	bcc.n	80046f0 <test_wait_tick+0x30>
 80046ea:	b662      	cpsie	i
 80046ec:	0020      	movs	r0, r4
 80046ee:	bd10      	pop	{r4, pc}
 80046f0:	b672      	cpsid	i
 80046f2:	4a02      	ldr	r2, [pc, #8]	; (80046fc <test_wait_tick+0x3c>)
 80046f4:	62da      	str	r2, [r3, #44]	; 0x2c
 80046f6:	e7fe      	b.n	80046f6 <test_wait_tick+0x36>
 80046f8:	20000738 	.word	0x20000738
 80046fc:	080078d0 	.word	0x080078d0

08004700 <bmk12_execute>:
 8004700:	b570      	push	{r4, r5, r6, lr}
 8004702:	2500      	movs	r5, #0
 8004704:	f7ff ffdc 	bl	80046c0 <test_wait_tick>
 8004708:	f7fd fbd2 	bl	8001eb0 <test_start_timer.constprop.1>
 800470c:	4c13      	ldr	r4, [pc, #76]	; (800475c <bmk12_execute+0x5c>)
 800470e:	4e14      	ldr	r6, [pc, #80]	; (8004760 <bmk12_execute+0x60>)
 8004710:	0020      	movs	r0, r4
 8004712:	f7fe ff45 	bl	80035a0 <chMtxLock>
 8004716:	0020      	movs	r0, r4
 8004718:	f7fe fed2 	bl	80034c0 <chMtxUnlock>
 800471c:	0020      	movs	r0, r4
 800471e:	f7fe ff3f 	bl	80035a0 <chMtxLock>
 8004722:	0020      	movs	r0, r4
 8004724:	f7fe fecc 	bl	80034c0 <chMtxUnlock>
 8004728:	0020      	movs	r0, r4
 800472a:	f7fe ff39 	bl	80035a0 <chMtxLock>
 800472e:	0020      	movs	r0, r4
 8004730:	f7fe fec6 	bl	80034c0 <chMtxUnlock>
 8004734:	0020      	movs	r0, r4
 8004736:	f7fe ff33 	bl	80035a0 <chMtxLock>
 800473a:	0020      	movs	r0, r4
 800473c:	f7fe fec0 	bl	80034c0 <chMtxUnlock>
 8004740:	7833      	ldrb	r3, [r6, #0]
 8004742:	3501      	adds	r5, #1
 8004744:	2b00      	cmp	r3, #0
 8004746:	d0e3      	beq.n	8004710 <bmk12_execute+0x10>
 8004748:	4806      	ldr	r0, [pc, #24]	; (8004764 <bmk12_execute+0x64>)
 800474a:	f7fb ff81 	bl	8000650 <test_print>
 800474e:	00a8      	lsls	r0, r5, #2
 8004750:	f7fb fef6 	bl	8000540 <test_printn>
 8004754:	4804      	ldr	r0, [pc, #16]	; (8004768 <bmk12_execute+0x68>)
 8004756:	f7fb ff5b 	bl	8000610 <test_println>
 800475a:	bd70      	pop	{r4, r5, r6, pc}
 800475c:	20000d34 	.word	0x20000d34
 8004760:	20001410 	.word	0x20001410
 8004764:	08007db0 	.word	0x08007db0
 8004768:	08007dc0 	.word	0x08007dc0
 800476c:	00000000 	.word	0x00000000

08004770 <bmk11_execute>:
 8004770:	b570      	push	{r4, r5, r6, lr}
 8004772:	2500      	movs	r5, #0
 8004774:	f7ff ffa4 	bl	80046c0 <test_wait_tick>
 8004778:	f7fd fb9a 	bl	8001eb0 <test_start_timer.constprop.1>
 800477c:	4c13      	ldr	r4, [pc, #76]	; (80047cc <bmk11_execute+0x5c>)
 800477e:	4e14      	ldr	r6, [pc, #80]	; (80047d0 <bmk11_execute+0x60>)
 8004780:	0020      	movs	r0, r4
 8004782:	f7ff fadd 	bl	8003d40 <chSemWait>
 8004786:	0020      	movs	r0, r4
 8004788:	f7ff faa2 	bl	8003cd0 <chSemSignal>
 800478c:	0020      	movs	r0, r4
 800478e:	f7ff fad7 	bl	8003d40 <chSemWait>
 8004792:	0020      	movs	r0, r4
 8004794:	f7ff fa9c 	bl	8003cd0 <chSemSignal>
 8004798:	0020      	movs	r0, r4
 800479a:	f7ff fad1 	bl	8003d40 <chSemWait>
 800479e:	0020      	movs	r0, r4
 80047a0:	f7ff fa96 	bl	8003cd0 <chSemSignal>
 80047a4:	0020      	movs	r0, r4
 80047a6:	f7ff facb 	bl	8003d40 <chSemWait>
 80047aa:	0020      	movs	r0, r4
 80047ac:	f7ff fa90 	bl	8003cd0 <chSemSignal>
 80047b0:	7833      	ldrb	r3, [r6, #0]
 80047b2:	3501      	adds	r5, #1
 80047b4:	2b00      	cmp	r3, #0
 80047b6:	d0e3      	beq.n	8004780 <bmk11_execute+0x10>
 80047b8:	4806      	ldr	r0, [pc, #24]	; (80047d4 <bmk11_execute+0x64>)
 80047ba:	f7fb ff49 	bl	8000650 <test_print>
 80047be:	00a8      	lsls	r0, r5, #2
 80047c0:	f7fb febe 	bl	8000540 <test_printn>
 80047c4:	4804      	ldr	r0, [pc, #16]	; (80047d8 <bmk11_execute+0x68>)
 80047c6:	f7fb ff23 	bl	8000610 <test_println>
 80047ca:	bd70      	pop	{r4, r5, r6, pc}
 80047cc:	20000d48 	.word	0x20000d48
 80047d0:	20001410 	.word	0x20001410
 80047d4:	08007db0 	.word	0x08007db0
 80047d8:	08007da0 	.word	0x08007da0
 80047dc:	00000000 	.word	0x00000000

080047e0 <bmk10_execute>:
 80047e0:	b5f8      	push	{r3, r4, r5, r6, r7, lr}
 80047e2:	46ce      	mov	lr, r9
 80047e4:	4647      	mov	r7, r8
 80047e6:	b580      	push	{r7, lr}
 80047e8:	f7ff ff6a 	bl	80046c0 <test_wait_tick>
 80047ec:	f7fd fb60 	bl	8001eb0 <test_start_timer.constprop.1>
 80047f0:	4b1e      	ldr	r3, [pc, #120]	; (800486c <bmk10_execute+0x8c>)
 80047f2:	2400      	movs	r4, #0
 80047f4:	4698      	mov	r8, r3
 80047f6:	4b1e      	ldr	r3, [pc, #120]	; (8004870 <bmk10_execute+0x90>)
 80047f8:	4f1e      	ldr	r7, [pc, #120]	; (8004874 <bmk10_execute+0x94>)
 80047fa:	4699      	mov	r9, r3
 80047fc:	4e1e      	ldr	r6, [pc, #120]	; (8004878 <bmk10_execute+0x98>)
 80047fe:	4d1f      	ldr	r5, [pc, #124]	; (800487c <bmk10_execute+0x9c>)
 8004800:	b672      	cpsid	i
 8004802:	f7fd f8f5 	bl	80019f0 <_dbg_check_lock>
 8004806:	2300      	movs	r3, #0
 8004808:	4642      	mov	r2, r8
 800480a:	2101      	movs	r1, #1
 800480c:	0038      	movs	r0, r7
 800480e:	f7fc fa0f 	bl	8000c30 <chVTDoSetI>
 8004812:	2300      	movs	r3, #0
 8004814:	4642      	mov	r2, r8
 8004816:	491a      	ldr	r1, [pc, #104]	; (8004880 <bmk10_execute+0xa0>)
 8004818:	0030      	movs	r0, r6
 800481a:	f7fc fa09 	bl	8000c30 <chVTDoSetI>
 800481e:	0038      	movs	r0, r7
 8004820:	f7fc f9be 	bl	8000ba0 <chVTDoResetI>
 8004824:	0030      	movs	r0, r6
 8004826:	f7fc f9bb 	bl	8000ba0 <chVTDoResetI>
 800482a:	f7fd f831 	bl	8001890 <_dbg_check_unlock>
 800482e:	682b      	ldr	r3, [r5, #0]
 8004830:	42ab      	cmp	r3, r5
 8004832:	d004      	beq.n	800483e <bmk10_execute+0x5e>
 8004834:	69aa      	ldr	r2, [r5, #24]
 8004836:	689b      	ldr	r3, [r3, #8]
 8004838:	6892      	ldr	r2, [r2, #8]
 800483a:	429a      	cmp	r2, r3
 800483c:	d312      	bcc.n	8004864 <bmk10_execute+0x84>
 800483e:	b662      	cpsie	i
 8004840:	464b      	mov	r3, r9
 8004842:	781b      	ldrb	r3, [r3, #0]
 8004844:	3401      	adds	r4, #1
 8004846:	2b00      	cmp	r3, #0
 8004848:	d0da      	beq.n	8004800 <bmk10_execute+0x20>
 800484a:	480e      	ldr	r0, [pc, #56]	; (8004884 <bmk10_execute+0xa4>)
 800484c:	f7fb ff00 	bl	8000650 <test_print>
 8004850:	0060      	lsls	r0, r4, #1
 8004852:	f7fb fe75 	bl	8000540 <test_printn>
 8004856:	480c      	ldr	r0, [pc, #48]	; (8004888 <bmk10_execute+0xa8>)
 8004858:	f7fb feda 	bl	8000610 <test_println>
 800485c:	bc0c      	pop	{r2, r3}
 800485e:	4690      	mov	r8, r2
 8004860:	4699      	mov	r9, r3
 8004862:	bdf8      	pop	{r3, r4, r5, r6, r7, pc}
 8004864:	b672      	cpsid	i
 8004866:	4b09      	ldr	r3, [pc, #36]	; (800488c <bmk10_execute+0xac>)
 8004868:	62eb      	str	r3, [r5, #44]	; 0x2c
 800486a:	e7fe      	b.n	800486a <bmk10_execute+0x8a>
 800486c:	080003d1 	.word	0x080003d1
 8004870:	20001410 	.word	0x20001410
 8004874:	20001450 	.word	0x20001450
 8004878:	20001464 	.word	0x20001464
 800487c:	20000738 	.word	0x20000738
 8004880:	00002710 	.word	0x00002710
 8004884:	08007db0 	.word	0x08007db0
 8004888:	08007d90 	.word	0x08007d90
 800488c:	08007950 	.word	0x08007950

08004890 <bmk9_execute>:
 8004890:	2200      	movs	r2, #0
 8004892:	b5f8      	push	{r3, r4, r5, r6, r7, lr}
 8004894:	2500      	movs	r5, #0
 8004896:	4c2b      	ldr	r4, [pc, #172]	; (8004944 <bmk9_execute+0xb4>)
 8004898:	4b2b      	ldr	r3, [pc, #172]	; (8004948 <bmk9_execute+0xb8>)
 800489a:	6024      	str	r4, [r4, #0]
 800489c:	60e3      	str	r3, [r4, #12]
 800489e:	61a3      	str	r3, [r4, #24]
 80048a0:	6163      	str	r3, [r4, #20]
 80048a2:	6064      	str	r4, [r4, #4]
 80048a4:	3310      	adds	r3, #16
 80048a6:	60a2      	str	r2, [r4, #8]
 80048a8:	6123      	str	r3, [r4, #16]
 80048aa:	61e2      	str	r2, [r4, #28]
 80048ac:	6222      	str	r2, [r4, #32]
 80048ae:	f7ff ff07 	bl	80046c0 <test_wait_tick>
 80048b2:	f7fd fafd 	bl	8001eb0 <test_start_timer.constprop.1>
 80048b6:	4e25      	ldr	r6, [pc, #148]	; (800494c <bmk9_execute+0xbc>)
 80048b8:	4f25      	ldr	r7, [pc, #148]	; (8004950 <bmk9_execute+0xc0>)
 80048ba:	b672      	cpsid	i
 80048bc:	f7fd f898 	bl	80019f0 <_dbg_check_lock>
 80048c0:	2100      	movs	r1, #0
 80048c2:	0020      	movs	r0, r4
 80048c4:	f7fb ffcc 	bl	8000860 <chIQPutI>
 80048c8:	2101      	movs	r1, #1
 80048ca:	0020      	movs	r0, r4
 80048cc:	f7fb ffc8 	bl	8000860 <chIQPutI>
 80048d0:	2102      	movs	r1, #2
 80048d2:	0020      	movs	r0, r4
 80048d4:	f7fb ffc4 	bl	8000860 <chIQPutI>
 80048d8:	2103      	movs	r1, #3
 80048da:	0020      	movs	r0, r4
 80048dc:	f7fb ffc0 	bl	8000860 <chIQPutI>
 80048e0:	f7fc ffd6 	bl	8001890 <_dbg_check_unlock>
 80048e4:	6833      	ldr	r3, [r6, #0]
 80048e6:	42b3      	cmp	r3, r6
 80048e8:	d004      	beq.n	80048f4 <bmk9_execute+0x64>
 80048ea:	69b2      	ldr	r2, [r6, #24]
 80048ec:	689b      	ldr	r3, [r3, #8]
 80048ee:	6892      	ldr	r2, [r2, #8]
 80048f0:	429a      	cmp	r2, r3
 80048f2:	d322      	bcc.n	800493a <bmk9_execute+0xaa>
 80048f4:	b662      	cpsie	i
 80048f6:	2101      	movs	r1, #1
 80048f8:	0020      	movs	r0, r4
 80048fa:	4249      	negs	r1, r1
 80048fc:	f7fe fbb0 	bl	8003060 <chIQGetTimeout>
 8004900:	2101      	movs	r1, #1
 8004902:	0020      	movs	r0, r4
 8004904:	4249      	negs	r1, r1
 8004906:	f7fe fbab 	bl	8003060 <chIQGetTimeout>
 800490a:	2101      	movs	r1, #1
 800490c:	0020      	movs	r0, r4
 800490e:	4249      	negs	r1, r1
 8004910:	f7fe fba6 	bl	8003060 <chIQGetTimeout>
 8004914:	2101      	movs	r1, #1
 8004916:	0020      	movs	r0, r4
 8004918:	4249      	negs	r1, r1
 800491a:	f7fe fba1 	bl	8003060 <chIQGetTimeout>
 800491e:	783b      	ldrb	r3, [r7, #0]
 8004920:	3501      	adds	r5, #1
 8004922:	2b00      	cmp	r3, #0
 8004924:	d0c9      	beq.n	80048ba <bmk9_execute+0x2a>
 8004926:	480b      	ldr	r0, [pc, #44]	; (8004954 <bmk9_execute+0xc4>)
 8004928:	f7fb fe92 	bl	8000650 <test_print>
 800492c:	00a8      	lsls	r0, r5, #2
 800492e:	f7fb fe07 	bl	8000540 <test_printn>
 8004932:	4809      	ldr	r0, [pc, #36]	; (8004958 <bmk9_execute+0xc8>)
 8004934:	f7fb fe6c 	bl	8000610 <test_println>
 8004938:	bdf8      	pop	{r3, r4, r5, r6, r7, pc}
 800493a:	b672      	cpsid	i
 800493c:	4b07      	ldr	r3, [pc, #28]	; (800495c <bmk9_execute+0xcc>)
 800493e:	62f3      	str	r3, [r6, #44]	; 0x2c
 8004940:	e7fe      	b.n	8004940 <bmk9_execute+0xb0>
 8004942:	46c0      	nop			; (mov r8, r8)
 8004944:	20000d00 	.word	0x20000d00
 8004948:	20000cf0 	.word	0x20000cf0
 800494c:	20000738 	.word	0x20000738
 8004950:	20001410 	.word	0x20001410
 8004954:	08007db0 	.word	0x08007db0
 8004958:	08007ed0 	.word	0x08007ed0
 800495c:	08007950 	.word	0x08007950

08004960 <msg_loop_test>:
 8004960:	b570      	push	{r4, r5, r6, lr}
 8004962:	2400      	movs	r4, #0
 8004964:	0005      	movs	r5, r0
 8004966:	f7ff feab 	bl	80046c0 <test_wait_tick>
 800496a:	f7fd faa1 	bl	8001eb0 <test_start_timer.constprop.1>
 800496e:	4e07      	ldr	r6, [pc, #28]	; (800498c <msg_loop_test+0x2c>)
 8004970:	2101      	movs	r1, #1
 8004972:	0028      	movs	r0, r5
 8004974:	f7fe fc4c 	bl	8003210 <chMsgSend>
 8004978:	7833      	ldrb	r3, [r6, #0]
 800497a:	3401      	adds	r4, #1
 800497c:	2b00      	cmp	r3, #0
 800497e:	d0f7      	beq.n	8004970 <msg_loop_test+0x10>
 8004980:	0028      	movs	r0, r5
 8004982:	2100      	movs	r1, #0
 8004984:	f7fe fc44 	bl	8003210 <chMsgSend>
 8004988:	0020      	movs	r0, r4
 800498a:	bd70      	pop	{r4, r5, r6, pc}
 800498c:	20001410 	.word	0x20001410

08004990 <thd4_execute>:
 8004990:	b570      	push	{r4, r5, r6, lr}
 8004992:	f7ff fe95 	bl	80046c0 <test_wait_tick>
 8004996:	b672      	cpsid	i
 8004998:	f7fd f82a 	bl	80019f0 <_dbg_check_lock>
 800499c:	2380      	movs	r3, #128	; 0x80
 800499e:	05db      	lsls	r3, r3, #23
 80049a0:	6a5d      	ldr	r5, [r3, #36]	; 0x24
 80049a2:	f7fc ff75 	bl	8001890 <_dbg_check_unlock>
 80049a6:	4c4c      	ldr	r4, [pc, #304]	; (8004ad8 <thd4_execute+0x148>)
 80049a8:	6823      	ldr	r3, [r4, #0]
 80049aa:	42a3      	cmp	r3, r4
 80049ac:	d004      	beq.n	80049b8 <thd4_execute+0x28>
 80049ae:	69a2      	ldr	r2, [r4, #24]
 80049b0:	689b      	ldr	r3, [r3, #8]
 80049b2:	6892      	ldr	r2, [r2, #8]
 80049b4:	429a      	cmp	r2, r3
 80049b6:	d30e      	bcc.n	80049d6 <thd4_execute+0x46>
 80049b8:	b662      	cpsie	i
 80049ba:	20fa      	movs	r0, #250	; 0xfa
 80049bc:	0080      	lsls	r0, r0, #2
 80049be:	f7ff fcbf 	bl	8004340 <chThdSleep>
 80049c2:	4b46      	ldr	r3, [pc, #280]	; (8004adc <thd4_execute+0x14c>)
 80049c4:	2001      	movs	r0, #1
 80049c6:	18ea      	adds	r2, r5, r3
 80049c8:	3b03      	subs	r3, #3
 80049ca:	18e9      	adds	r1, r5, r3
 80049cc:	f7fd fce0 	bl	8002390 <_test_assert_time_window>
 80049d0:	2800      	cmp	r0, #0
 80049d2:	d004      	beq.n	80049de <thd4_execute+0x4e>
 80049d4:	bd70      	pop	{r4, r5, r6, pc}
 80049d6:	b672      	cpsid	i
 80049d8:	4b41      	ldr	r3, [pc, #260]	; (8004ae0 <thd4_execute+0x150>)
 80049da:	62e3      	str	r3, [r4, #44]	; 0x2c
 80049dc:	e7fe      	b.n	80049dc <thd4_execute+0x4c>
 80049de:	b672      	cpsid	i
 80049e0:	f7fd f806 	bl	80019f0 <_dbg_check_lock>
 80049e4:	2380      	movs	r3, #128	; 0x80
 80049e6:	05db      	lsls	r3, r3, #23
 80049e8:	6a5d      	ldr	r5, [r3, #36]	; 0x24
 80049ea:	f7fc ff51 	bl	8001890 <_dbg_check_unlock>
 80049ee:	6823      	ldr	r3, [r4, #0]
 80049f0:	42a3      	cmp	r3, r4
 80049f2:	d004      	beq.n	80049fe <thd4_execute+0x6e>
 80049f4:	69a2      	ldr	r2, [r4, #24]
 80049f6:	689b      	ldr	r3, [r3, #8]
 80049f8:	6892      	ldr	r2, [r2, #8]
 80049fa:	429a      	cmp	r2, r3
 80049fc:	d35b      	bcc.n	8004ab6 <thd4_execute+0x126>
 80049fe:	b662      	cpsie	i
 8004a00:	20fa      	movs	r0, #250	; 0xfa
 8004a02:	0080      	lsls	r0, r0, #2
 8004a04:	f7ff fc9c 	bl	8004340 <chThdSleep>
 8004a08:	4b34      	ldr	r3, [pc, #208]	; (8004adc <thd4_execute+0x14c>)
 8004a0a:	2002      	movs	r0, #2
 8004a0c:	18ea      	adds	r2, r5, r3
 8004a0e:	3b03      	subs	r3, #3
 8004a10:	18e9      	adds	r1, r5, r3
 8004a12:	f7fd fcbd 	bl	8002390 <_test_assert_time_window>
 8004a16:	2800      	cmp	r0, #0
 8004a18:	d1dc      	bne.n	80049d4 <thd4_execute+0x44>
 8004a1a:	b672      	cpsid	i
 8004a1c:	f7fc ffe8 	bl	80019f0 <_dbg_check_lock>
 8004a20:	2380      	movs	r3, #128	; 0x80
 8004a22:	05db      	lsls	r3, r3, #23
 8004a24:	6a5d      	ldr	r5, [r3, #36]	; 0x24
 8004a26:	f7fc ff33 	bl	8001890 <_dbg_check_unlock>
 8004a2a:	6823      	ldr	r3, [r4, #0]
 8004a2c:	42a3      	cmp	r3, r4
 8004a2e:	d004      	beq.n	8004a3a <thd4_execute+0xaa>
 8004a30:	69a2      	ldr	r2, [r4, #24]
 8004a32:	689b      	ldr	r3, [r3, #8]
 8004a34:	6892      	ldr	r2, [r2, #8]
 8004a36:	429a      	cmp	r2, r3
 8004a38:	d341      	bcc.n	8004abe <thd4_execute+0x12e>
 8004a3a:	b662      	cpsie	i
 8004a3c:	4829      	ldr	r0, [pc, #164]	; (8004ae4 <thd4_execute+0x154>)
 8004a3e:	f7ff fc7f 	bl	8004340 <chThdSleep>
 8004a42:	4b29      	ldr	r3, [pc, #164]	; (8004ae8 <thd4_execute+0x158>)
 8004a44:	2003      	movs	r0, #3
 8004a46:	18ea      	adds	r2, r5, r3
 8004a48:	4b26      	ldr	r3, [pc, #152]	; (8004ae4 <thd4_execute+0x154>)
 8004a4a:	18e9      	adds	r1, r5, r3
 8004a4c:	f7fd fca0 	bl	8002390 <_test_assert_time_window>
 8004a50:	2800      	cmp	r0, #0
 8004a52:	d1bf      	bne.n	80049d4 <thd4_execute+0x44>
 8004a54:	b672      	cpsid	i
 8004a56:	f7fc ffcb 	bl	80019f0 <_dbg_check_lock>
 8004a5a:	2380      	movs	r3, #128	; 0x80
 8004a5c:	05db      	lsls	r3, r3, #23
 8004a5e:	6a5d      	ldr	r5, [r3, #36]	; 0x24
 8004a60:	f7fc ff16 	bl	8001890 <_dbg_check_unlock>
 8004a64:	6823      	ldr	r3, [r4, #0]
 8004a66:	42a3      	cmp	r3, r4
 8004a68:	d004      	beq.n	8004a74 <thd4_execute+0xe4>
 8004a6a:	69a2      	ldr	r2, [r4, #24]
 8004a6c:	689b      	ldr	r3, [r3, #8]
 8004a6e:	6892      	ldr	r2, [r2, #8]
 8004a70:	429a      	cmp	r2, r3
 8004a72:	d328      	bcc.n	8004ac6 <thd4_execute+0x136>
 8004a74:	b662      	cpsie	i
 8004a76:	23fa      	movs	r3, #250	; 0xfa
 8004a78:	009b      	lsls	r3, r3, #2
 8004a7a:	18ee      	adds	r6, r5, r3
 8004a7c:	b672      	cpsid	i
 8004a7e:	f7fc ffb7 	bl	80019f0 <_dbg_check_lock>
 8004a82:	2380      	movs	r3, #128	; 0x80
 8004a84:	05db      	lsls	r3, r3, #23
 8004a86:	6a59      	ldr	r1, [r3, #36]	; 0x24
 8004a88:	1a71      	subs	r1, r6, r1
 8004a8a:	d002      	beq.n	8004a92 <thd4_execute+0x102>
 8004a8c:	2008      	movs	r0, #8
 8004a8e:	f7fc fe27 	bl	80016e0 <chSchGoSleepTimeoutS>
 8004a92:	f7fc fefd 	bl	8001890 <_dbg_check_unlock>
 8004a96:	6823      	ldr	r3, [r4, #0]
 8004a98:	42a3      	cmp	r3, r4
 8004a9a:	d004      	beq.n	8004aa6 <thd4_execute+0x116>
 8004a9c:	69a2      	ldr	r2, [r4, #24]
 8004a9e:	689b      	ldr	r3, [r3, #8]
 8004aa0:	6892      	ldr	r2, [r2, #8]
 8004aa2:	429a      	cmp	r2, r3
 8004aa4:	d313      	bcc.n	8004ace <thd4_execute+0x13e>
 8004aa6:	b662      	cpsie	i
 8004aa8:	4b0c      	ldr	r3, [pc, #48]	; (8004adc <thd4_execute+0x14c>)
 8004aaa:	0031      	movs	r1, r6
 8004aac:	18ea      	adds	r2, r5, r3
 8004aae:	2004      	movs	r0, #4
 8004ab0:	f7fd fc6e 	bl	8002390 <_test_assert_time_window>
 8004ab4:	e78e      	b.n	80049d4 <thd4_execute+0x44>
 8004ab6:	b672      	cpsid	i
 8004ab8:	4b09      	ldr	r3, [pc, #36]	; (8004ae0 <thd4_execute+0x150>)
 8004aba:	62e3      	str	r3, [r4, #44]	; 0x2c
 8004abc:	e7fe      	b.n	8004abc <thd4_execute+0x12c>
 8004abe:	b672      	cpsid	i
 8004ac0:	4b07      	ldr	r3, [pc, #28]	; (8004ae0 <thd4_execute+0x150>)
 8004ac2:	62e3      	str	r3, [r4, #44]	; 0x2c
 8004ac4:	e7fe      	b.n	8004ac4 <thd4_execute+0x134>
 8004ac6:	b672      	cpsid	i
 8004ac8:	4b05      	ldr	r3, [pc, #20]	; (8004ae0 <thd4_execute+0x150>)
 8004aca:	62e3      	str	r3, [r4, #44]	; 0x2c
 8004acc:	e7fe      	b.n	8004acc <thd4_execute+0x13c>
 8004ace:	b672      	cpsid	i
 8004ad0:	4b06      	ldr	r3, [pc, #24]	; (8004aec <thd4_execute+0x15c>)
 8004ad2:	62e3      	str	r3, [r4, #44]	; 0x2c
 8004ad4:	e7fe      	b.n	8004ad4 <thd4_execute+0x144>
 8004ad6:	46c0      	nop			; (mov r8, r8)
 8004ad8:	20000738 	.word	0x20000738
 8004adc:	000003eb 	.word	0x000003eb
 8004ae0:	080078e0 	.word	0x080078e0
 8004ae4:	00002710 	.word	0x00002710
 8004ae8:	00002713 	.word	0x00002713
 8004aec:	08007970 	.word	0x08007970

08004af0 <chThdSetPriority>:
 8004af0:	b570      	push	{r4, r5, r6, lr}
 8004af2:	0005      	movs	r5, r0
 8004af4:	287f      	cmp	r0, #127	; 0x7f
 8004af6:	d81b      	bhi.n	8004b30 <chThdSetPriority+0x40>
 8004af8:	b672      	cpsid	i
 8004afa:	f7fc ff79 	bl	80019f0 <_dbg_check_lock>
 8004afe:	4c11      	ldr	r4, [pc, #68]	; (8004b44 <chThdSetPriority+0x54>)
 8004b00:	69a3      	ldr	r3, [r4, #24]
 8004b02:	6c1e      	ldr	r6, [r3, #64]	; 0x40
 8004b04:	689a      	ldr	r2, [r3, #8]
 8004b06:	42b2      	cmp	r2, r6
 8004b08:	d001      	beq.n	8004b0e <chThdSetPriority+0x1e>
 8004b0a:	42aa      	cmp	r2, r5
 8004b0c:	d200      	bcs.n	8004b10 <chThdSetPriority+0x20>
 8004b0e:	609d      	str	r5, [r3, #8]
 8004b10:	641d      	str	r5, [r3, #64]	; 0x40
 8004b12:	f7fc fcf5 	bl	8001500 <chSchRescheduleS>
 8004b16:	f7fc febb 	bl	8001890 <_dbg_check_unlock>
 8004b1a:	6823      	ldr	r3, [r4, #0]
 8004b1c:	42a3      	cmp	r3, r4
 8004b1e:	d004      	beq.n	8004b2a <chThdSetPriority+0x3a>
 8004b20:	69a2      	ldr	r2, [r4, #24]
 8004b22:	689b      	ldr	r3, [r3, #8]
 8004b24:	6892      	ldr	r2, [r2, #8]
 8004b26:	429a      	cmp	r2, r3
 8004b28:	d307      	bcc.n	8004b3a <chThdSetPriority+0x4a>
 8004b2a:	b662      	cpsie	i
 8004b2c:	0030      	movs	r0, r6
 8004b2e:	bd70      	pop	{r4, r5, r6, pc}
 8004b30:	b672      	cpsid	i
 8004b32:	4b04      	ldr	r3, [pc, #16]	; (8004b44 <chThdSetPriority+0x54>)
 8004b34:	4a04      	ldr	r2, [pc, #16]	; (8004b48 <chThdSetPriority+0x58>)
 8004b36:	62da      	str	r2, [r3, #44]	; 0x2c
 8004b38:	e7fe      	b.n	8004b38 <chThdSetPriority+0x48>
 8004b3a:	b672      	cpsid	i
 8004b3c:	4b03      	ldr	r3, [pc, #12]	; (8004b4c <chThdSetPriority+0x5c>)
 8004b3e:	62e3      	str	r3, [r4, #44]	; 0x2c
 8004b40:	e7fe      	b.n	8004b40 <chThdSetPriority+0x50>
 8004b42:	46c0      	nop			; (mov r8, r8)
 8004b44:	20000738 	.word	0x20000738
 8004b48:	08007bb0 	.word	0x08007bb0
 8004b4c:	08007970 	.word	0x08007970

08004b50 <thd3_execute>:
 8004b50:	b5f8      	push	{r3, r4, r5, r6, r7, lr}
 8004b52:	4d5a      	ldr	r5, [pc, #360]	; (8004cbc <thd3_execute+0x16c>)
 8004b54:	69ab      	ldr	r3, [r5, #24]
 8004b56:	689c      	ldr	r4, [r3, #8]
 8004b58:	1c66      	adds	r6, r4, #1
 8004b5a:	0030      	movs	r0, r6
 8004b5c:	f7ff ffc8 	bl	8004af0 <chThdSetPriority>
 8004b60:	1b01      	subs	r1, r0, r4
 8004b62:	424b      	negs	r3, r1
 8004b64:	4159      	adcs	r1, r3
 8004b66:	0007      	movs	r7, r0
 8004b68:	b2c9      	uxtb	r1, r1
 8004b6a:	2001      	movs	r0, #1
 8004b6c:	f7fb fd38 	bl	80005e0 <_test_assert>
 8004b70:	2800      	cmp	r0, #0
 8004b72:	d000      	beq.n	8004b76 <thd3_execute+0x26>
 8004b74:	bdf8      	pop	{r3, r4, r5, r6, r7, pc}
 8004b76:	69ab      	ldr	r3, [r5, #24]
 8004b78:	3002      	adds	r0, #2
 8004b7a:	6899      	ldr	r1, [r3, #8]
 8004b7c:	1b89      	subs	r1, r1, r6
 8004b7e:	424b      	negs	r3, r1
 8004b80:	4159      	adcs	r1, r3
 8004b82:	b2c9      	uxtb	r1, r1
 8004b84:	f7fb fd2c 	bl	80005e0 <_test_assert>
 8004b88:	2800      	cmp	r0, #0
 8004b8a:	d1f3      	bne.n	8004b74 <thd3_execute+0x24>
 8004b8c:	0038      	movs	r0, r7
 8004b8e:	f7ff ffaf 	bl	8004af0 <chThdSetPriority>
 8004b92:	1a30      	subs	r0, r6, r0
 8004b94:	4241      	negs	r1, r0
 8004b96:	4141      	adcs	r1, r0
 8004b98:	2003      	movs	r0, #3
 8004b9a:	b2c9      	uxtb	r1, r1
 8004b9c:	f7fb fd20 	bl	80005e0 <_test_assert>
 8004ba0:	2800      	cmp	r0, #0
 8004ba2:	d1e7      	bne.n	8004b74 <thd3_execute+0x24>
 8004ba4:	69ab      	ldr	r3, [r5, #24]
 8004ba6:	3004      	adds	r0, #4
 8004ba8:	6899      	ldr	r1, [r3, #8]
 8004baa:	1b09      	subs	r1, r1, r4
 8004bac:	424b      	negs	r3, r1
 8004bae:	4159      	adcs	r1, r3
 8004bb0:	b2c9      	uxtb	r1, r1
 8004bb2:	f7fb fd15 	bl	80005e0 <_test_assert>
 8004bb6:	2800      	cmp	r0, #0
 8004bb8:	d1dc      	bne.n	8004b74 <thd3_execute+0x24>
 8004bba:	b672      	cpsid	i
 8004bbc:	f7fc ff18 	bl	80019f0 <_dbg_check_lock>
 8004bc0:	69aa      	ldr	r2, [r5, #24]
 8004bc2:	6893      	ldr	r3, [r2, #8]
 8004bc4:	3302      	adds	r3, #2
 8004bc6:	6093      	str	r3, [r2, #8]
 8004bc8:	f7fc fe62 	bl	8001890 <_dbg_check_unlock>
 8004bcc:	682b      	ldr	r3, [r5, #0]
 8004bce:	42ab      	cmp	r3, r5
 8004bd0:	d004      	beq.n	8004bdc <thd3_execute+0x8c>
 8004bd2:	69aa      	ldr	r2, [r5, #24]
 8004bd4:	689b      	ldr	r3, [r3, #8]
 8004bd6:	6892      	ldr	r2, [r2, #8]
 8004bd8:	429a      	cmp	r2, r3
 8004bda:	d366      	bcc.n	8004caa <thd3_execute+0x15a>
 8004bdc:	b662      	cpsie	i
 8004bde:	69ab      	ldr	r3, [r5, #24]
 8004be0:	1ca7      	adds	r7, r4, #2
 8004be2:	6899      	ldr	r1, [r3, #8]
 8004be4:	2005      	movs	r0, #5
 8004be6:	1bc9      	subs	r1, r1, r7
 8004be8:	424b      	negs	r3, r1
 8004bea:	4159      	adcs	r1, r3
 8004bec:	b2c9      	uxtb	r1, r1
 8004bee:	f7fb fcf7 	bl	80005e0 <_test_assert>
 8004bf2:	2800      	cmp	r0, #0
 8004bf4:	d1be      	bne.n	8004b74 <thd3_execute+0x24>
 8004bf6:	0030      	movs	r0, r6
 8004bf8:	f7ff ff7a 	bl	8004af0 <chThdSetPriority>
 8004bfc:	1b01      	subs	r1, r0, r4
 8004bfe:	4248      	negs	r0, r1
 8004c00:	4141      	adcs	r1, r0
 8004c02:	2006      	movs	r0, #6
 8004c04:	b2c9      	uxtb	r1, r1
 8004c06:	f7fb fceb 	bl	80005e0 <_test_assert>
 8004c0a:	2800      	cmp	r0, #0
 8004c0c:	d1b2      	bne.n	8004b74 <thd3_execute+0x24>
 8004c0e:	69ab      	ldr	r3, [r5, #24]
 8004c10:	3007      	adds	r0, #7
 8004c12:	6899      	ldr	r1, [r3, #8]
 8004c14:	1bc9      	subs	r1, r1, r7
 8004c16:	424b      	negs	r3, r1
 8004c18:	4159      	adcs	r1, r3
 8004c1a:	b2c9      	uxtb	r1, r1
 8004c1c:	f7fb fce0 	bl	80005e0 <_test_assert>
 8004c20:	2800      	cmp	r0, #0
 8004c22:	d1a7      	bne.n	8004b74 <thd3_execute+0x24>
 8004c24:	69ab      	ldr	r3, [r5, #24]
 8004c26:	3008      	adds	r0, #8
 8004c28:	6c19      	ldr	r1, [r3, #64]	; 0x40
 8004c2a:	1b89      	subs	r1, r1, r6
 8004c2c:	424b      	negs	r3, r1
 8004c2e:	4159      	adcs	r1, r3
 8004c30:	b2c9      	uxtb	r1, r1
 8004c32:	f7fb fcd5 	bl	80005e0 <_test_assert>
 8004c36:	2800      	cmp	r0, #0
 8004c38:	d19c      	bne.n	8004b74 <thd3_execute+0x24>
 8004c3a:	1ce7      	adds	r7, r4, #3
 8004c3c:	0038      	movs	r0, r7
 8004c3e:	f7ff ff57 	bl	8004af0 <chThdSetPriority>
 8004c42:	1a31      	subs	r1, r6, r0
 8004c44:	424e      	negs	r6, r1
 8004c46:	4171      	adcs	r1, r6
 8004c48:	2009      	movs	r0, #9
 8004c4a:	b2c9      	uxtb	r1, r1
 8004c4c:	f7fb fcc8 	bl	80005e0 <_test_assert>
 8004c50:	2800      	cmp	r0, #0
 8004c52:	d000      	beq.n	8004c56 <thd3_execute+0x106>
 8004c54:	e78e      	b.n	8004b74 <thd3_execute+0x24>
 8004c56:	69ab      	ldr	r3, [r5, #24]
 8004c58:	300a      	adds	r0, #10
 8004c5a:	6899      	ldr	r1, [r3, #8]
 8004c5c:	1bc9      	subs	r1, r1, r7
 8004c5e:	424b      	negs	r3, r1
 8004c60:	4159      	adcs	r1, r3
 8004c62:	b2c9      	uxtb	r1, r1
 8004c64:	f7fb fcbc 	bl	80005e0 <_test_assert>
 8004c68:	2800      	cmp	r0, #0
 8004c6a:	d000      	beq.n	8004c6e <thd3_execute+0x11e>
 8004c6c:	e782      	b.n	8004b74 <thd3_execute+0x24>
 8004c6e:	69ab      	ldr	r3, [r5, #24]
 8004c70:	300b      	adds	r0, #11
 8004c72:	6c19      	ldr	r1, [r3, #64]	; 0x40
 8004c74:	1bc9      	subs	r1, r1, r7
 8004c76:	424b      	negs	r3, r1
 8004c78:	4159      	adcs	r1, r3
 8004c7a:	b2c9      	uxtb	r1, r1
 8004c7c:	f7fb fcb0 	bl	80005e0 <_test_assert>
 8004c80:	2800      	cmp	r0, #0
 8004c82:	d000      	beq.n	8004c86 <thd3_execute+0x136>
 8004c84:	e776      	b.n	8004b74 <thd3_execute+0x24>
 8004c86:	b672      	cpsid	i
 8004c88:	f7fc feb2 	bl	80019f0 <_dbg_check_lock>
 8004c8c:	69ab      	ldr	r3, [r5, #24]
 8004c8e:	609c      	str	r4, [r3, #8]
 8004c90:	641c      	str	r4, [r3, #64]	; 0x40
 8004c92:	f7fc fdfd 	bl	8001890 <_dbg_check_unlock>
 8004c96:	682b      	ldr	r3, [r5, #0]
 8004c98:	42ab      	cmp	r3, r5
 8004c9a:	d004      	beq.n	8004ca6 <thd3_execute+0x156>
 8004c9c:	69aa      	ldr	r2, [r5, #24]
 8004c9e:	689b      	ldr	r3, [r3, #8]
 8004ca0:	6892      	ldr	r2, [r2, #8]
 8004ca2:	429a      	cmp	r2, r3
 8004ca4:	d305      	bcc.n	8004cb2 <thd3_execute+0x162>
 8004ca6:	b662      	cpsie	i
 8004ca8:	e764      	b.n	8004b74 <thd3_execute+0x24>
 8004caa:	b672      	cpsid	i
 8004cac:	4b04      	ldr	r3, [pc, #16]	; (8004cc0 <thd3_execute+0x170>)
 8004cae:	62eb      	str	r3, [r5, #44]	; 0x2c
 8004cb0:	e7fe      	b.n	8004cb0 <thd3_execute+0x160>
 8004cb2:	b672      	cpsid	i
 8004cb4:	4b02      	ldr	r3, [pc, #8]	; (8004cc0 <thd3_execute+0x170>)
 8004cb6:	62eb      	str	r3, [r5, #44]	; 0x2c
 8004cb8:	e7fe      	b.n	8004cb8 <thd3_execute+0x168>
 8004cba:	46c0      	nop			; (mov r8, r8)
 8004cbc:	20000738 	.word	0x20000738
 8004cc0:	080078e0 	.word	0x080078e0
	...

08004cd0 <chThdCreateStatic>:
 8004cd0:	b5f0      	push	{r4, r5, r6, r7, lr}
 8004cd2:	0016      	movs	r6, r2
 8004cd4:	0002      	movs	r2, r0
 8004cd6:	000d      	movs	r5, r1
 8004cd8:	001f      	movs	r7, r3
 8004cda:	0004      	movs	r4, r0
 8004cdc:	0003      	movs	r3, r0
 8004cde:	21ff      	movs	r1, #255	; 0xff
 8004ce0:	b083      	sub	sp, #12
 8004ce2:	3248      	adds	r2, #72	; 0x48
 8004ce4:	7019      	strb	r1, [r3, #0]
 8004ce6:	3301      	adds	r3, #1
 8004ce8:	429a      	cmp	r2, r3
 8004cea:	d1fb      	bne.n	8004ce4 <chThdCreateStatic+0x14>
 8004cec:	1963      	adds	r3, r4, r5
 8004cee:	429a      	cmp	r2, r3
 8004cf0:	d204      	bcs.n	8004cfc <chThdCreateStatic+0x2c>
 8004cf2:	2155      	movs	r1, #85	; 0x55
 8004cf4:	7011      	strb	r1, [r2, #0]
 8004cf6:	3201      	adds	r2, #1
 8004cf8:	4293      	cmp	r3, r2
 8004cfa:	d1fb      	bne.n	8004cf4 <chThdCreateStatic+0x24>
 8004cfc:	b672      	cpsid	i
 8004cfe:	f7fc fe77 	bl	80019f0 <_dbg_check_lock>
 8004d02:	9b08      	ldr	r3, [sp, #32]
 8004d04:	0032      	movs	r2, r6
 8004d06:	9300      	str	r3, [sp, #0]
 8004d08:	0029      	movs	r1, r5
 8004d0a:	003b      	movs	r3, r7
 8004d0c:	0020      	movs	r0, r4
 8004d0e:	f7fb fd37 	bl	8000780 <chThdCreateI>
 8004d12:	2100      	movs	r1, #0
 8004d14:	0004      	movs	r4, r0
 8004d16:	f7fc fc0b 	bl	8001530 <chSchWakeupS>
 8004d1a:	f7fc fdb9 	bl	8001890 <_dbg_check_unlock>
 8004d1e:	4b08      	ldr	r3, [pc, #32]	; (8004d40 <chThdCreateStatic+0x70>)
 8004d20:	681a      	ldr	r2, [r3, #0]
 8004d22:	429a      	cmp	r2, r3
 8004d24:	d004      	beq.n	8004d30 <chThdCreateStatic+0x60>
 8004d26:	6999      	ldr	r1, [r3, #24]
 8004d28:	6892      	ldr	r2, [r2, #8]
 8004d2a:	6889      	ldr	r1, [r1, #8]
 8004d2c:	4291      	cmp	r1, r2
 8004d2e:	d303      	bcc.n	8004d38 <chThdCreateStatic+0x68>
 8004d30:	b662      	cpsie	i
 8004d32:	0020      	movs	r0, r4
 8004d34:	b003      	add	sp, #12
 8004d36:	bdf0      	pop	{r4, r5, r6, r7, pc}
 8004d38:	b672      	cpsid	i
 8004d3a:	4a02      	ldr	r2, [pc, #8]	; (8004d44 <chThdCreateStatic+0x74>)
 8004d3c:	62da      	str	r2, [r3, #44]	; 0x2c
 8004d3e:	e7fe      	b.n	8004d3e <chThdCreateStatic+0x6e>
 8004d40:	20000738 	.word	0x20000738
 8004d44:	08007970 	.word	0x08007970
	...

08004d50 <main>:
 8004d50:	4bc6      	ldr	r3, [pc, #792]	; (800506c <main+0x31c>)
 8004d52:	2101      	movs	r1, #1
 8004d54:	b5f0      	push	{r4, r5, r6, r7, lr}
 8004d56:	6a9a      	ldr	r2, [r3, #40]	; 0x28
 8004d58:	46de      	mov	lr, fp
 8004d5a:	2200      	movs	r2, #0
 8004d5c:	4657      	mov	r7, sl
 8004d5e:	464e      	mov	r6, r9
 8004d60:	4645      	mov	r5, r8
 8004d62:	4249      	negs	r1, r1
 8004d64:	b5e0      	push	{r5, r6, r7, lr}
 8004d66:	6299      	str	r1, [r3, #40]	; 0x28
 8004d68:	629a      	str	r2, [r3, #40]	; 0x28
 8004d6a:	6918      	ldr	r0, [r3, #16]
 8004d6c:	6119      	str	r1, [r3, #16]
 8004d6e:	611a      	str	r2, [r3, #16]
 8004d70:	68d8      	ldr	r0, [r3, #12]
 8004d72:	49bf      	ldr	r1, [pc, #764]	; (8005070 <main+0x320>)
 8004d74:	b085      	sub	sp, #20
 8004d76:	4301      	orrs	r1, r0
 8004d78:	60d9      	str	r1, [r3, #12]
 8004d7a:	2180      	movs	r1, #128	; 0x80
 8004d7c:	60da      	str	r2, [r3, #12]
 8004d7e:	69d8      	ldr	r0, [r3, #28]
 8004d80:	0549      	lsls	r1, r1, #21
 8004d82:	4301      	orrs	r1, r0
 8004d84:	61d9      	str	r1, [r3, #28]
 8004d86:	2180      	movs	r1, #128	; 0x80
 8004d88:	48ba      	ldr	r0, [pc, #744]	; (8005074 <main+0x324>)
 8004d8a:	0049      	lsls	r1, r1, #1
 8004d8c:	6804      	ldr	r4, [r0, #0]
 8004d8e:	4321      	orrs	r1, r4
 8004d90:	6001      	str	r1, [r0, #0]
 8004d92:	20c0      	movs	r0, #192	; 0xc0
 8004d94:	6a19      	ldr	r1, [r3, #32]
 8004d96:	0080      	lsls	r0, r0, #2
 8004d98:	4001      	ands	r1, r0
 8004d9a:	3801      	subs	r0, #1
 8004d9c:	38ff      	subs	r0, #255	; 0xff
 8004d9e:	4281      	cmp	r1, r0
 8004da0:	d003      	beq.n	8004daa <main+0x5a>
 8004da2:	2180      	movs	r1, #128	; 0x80
 8004da4:	0249      	lsls	r1, r1, #9
 8004da6:	6219      	str	r1, [r3, #32]
 8004da8:	621a      	str	r2, [r3, #32]
 8004daa:	2280      	movs	r2, #128	; 0x80
 8004dac:	4baf      	ldr	r3, [pc, #700]	; (800506c <main+0x31c>)
 8004dae:	0212      	lsls	r2, r2, #8
 8004db0:	6a19      	ldr	r1, [r3, #32]
 8004db2:	4211      	tst	r1, r2
 8004db4:	d107      	bne.n	8004dc6 <main+0x76>
 8004db6:	2180      	movs	r1, #128	; 0x80
 8004db8:	6a18      	ldr	r0, [r3, #32]
 8004dba:	0089      	lsls	r1, r1, #2
 8004dbc:	4301      	orrs	r1, r0
 8004dbe:	6219      	str	r1, [r3, #32]
 8004dc0:	6a19      	ldr	r1, [r3, #32]
 8004dc2:	430a      	orrs	r2, r1
 8004dc4:	621a      	str	r2, [r3, #32]
 8004dc6:	23fc      	movs	r3, #252	; 0xfc
 8004dc8:	4ea8      	ldr	r6, [pc, #672]	; (800506c <main+0x31c>)
 8004dca:	03db      	lsls	r3, r3, #15
 8004dcc:	6972      	ldr	r2, [r6, #20]
 8004dce:	2500      	movs	r5, #0
 8004dd0:	4313      	orrs	r3, r2
 8004dd2:	6173      	str	r3, [r6, #20]
 8004dd4:	22fc      	movs	r2, #252	; 0xfc
 8004dd6:	2390      	movs	r3, #144	; 0x90
 8004dd8:	21a0      	movs	r1, #160	; 0xa0
 8004dda:	05db      	lsls	r3, r3, #23
 8004ddc:	0612      	lsls	r2, r2, #24
 8004dde:	605d      	str	r5, [r3, #4]
 8004de0:	609a      	str	r2, [r3, #8]
 8004de2:	4aa5      	ldr	r2, [pc, #660]	; (8005078 <main+0x328>)
 8004de4:	0589      	lsls	r1, r1, #22
 8004de6:	60da      	str	r2, [r3, #12]
 8004de8:	4aa4      	ldr	r2, [pc, #656]	; (800507c <main+0x32c>)
 8004dea:	4fa5      	ldr	r7, [pc, #660]	; (8005080 <main+0x330>)
 8004dec:	615a      	str	r2, [r3, #20]
 8004dee:	621d      	str	r5, [r3, #32]
 8004df0:	625d      	str	r5, [r3, #36]	; 0x24
 8004df2:	6019      	str	r1, [r3, #0]
 8004df4:	21fc      	movs	r1, #252	; 0xfc
 8004df6:	4ba3      	ldr	r3, [pc, #652]	; (8005084 <main+0x334>)
 8004df8:	0089      	lsls	r1, r1, #2
 8004dfa:	605d      	str	r5, [r3, #4]
 8004dfc:	6099      	str	r1, [r3, #8]
 8004dfe:	49a2      	ldr	r1, [pc, #648]	; (8005088 <main+0x338>)
 8004e00:	4ca2      	ldr	r4, [pc, #648]	; (800508c <main+0x33c>)
 8004e02:	60d9      	str	r1, [r3, #12]
 8004e04:	21a8      	movs	r1, #168	; 0xa8
 8004e06:	0609      	lsls	r1, r1, #24
 8004e08:	615a      	str	r2, [r3, #20]
 8004e0a:	621d      	str	r5, [r3, #32]
 8004e0c:	625d      	str	r5, [r3, #36]	; 0x24
 8004e0e:	6019      	str	r1, [r3, #0]
 8004e10:	4b9f      	ldr	r3, [pc, #636]	; (8005090 <main+0x340>)
 8004e12:	49a0      	ldr	r1, [pc, #640]	; (8005094 <main+0x344>)
 8004e14:	605d      	str	r5, [r3, #4]
 8004e16:	6099      	str	r1, [r3, #8]
 8004e18:	499f      	ldr	r1, [pc, #636]	; (8005098 <main+0x348>)
 8004e1a:	60d9      	str	r1, [r3, #12]
 8004e1c:	499f      	ldr	r1, [pc, #636]	; (800509c <main+0x34c>)
 8004e1e:	6159      	str	r1, [r3, #20]
 8004e20:	499f      	ldr	r1, [pc, #636]	; (80050a0 <main+0x350>)
 8004e22:	621d      	str	r5, [r3, #32]
 8004e24:	625d      	str	r5, [r3, #36]	; 0x24
 8004e26:	6019      	str	r1, [r3, #0]
 8004e28:	4b9e      	ldr	r3, [pc, #632]	; (80050a4 <main+0x354>)
 8004e2a:	499f      	ldr	r1, [pc, #636]	; (80050a8 <main+0x358>)
 8004e2c:	605d      	str	r5, [r3, #4]
 8004e2e:	609d      	str	r5, [r3, #8]
 8004e30:	60d9      	str	r1, [r3, #12]
 8004e32:	615a      	str	r2, [r3, #20]
 8004e34:	621d      	str	r5, [r3, #32]
 8004e36:	625d      	str	r5, [r3, #36]	; 0x24
 8004e38:	601d      	str	r5, [r3, #0]
 8004e3a:	4b9c      	ldr	r3, [pc, #624]	; (80050ac <main+0x35c>)
 8004e3c:	605d      	str	r5, [r3, #4]
 8004e3e:	609d      	str	r5, [r3, #8]
 8004e40:	60d9      	str	r1, [r3, #12]
 8004e42:	615a      	str	r2, [r3, #20]
 8004e44:	499a      	ldr	r1, [pc, #616]	; (80050b0 <main+0x360>)
 8004e46:	621d      	str	r5, [r3, #32]
 8004e48:	625d      	str	r5, [r3, #36]	; 0x24
 8004e4a:	601d      	str	r5, [r3, #0]
 8004e4c:	4b99      	ldr	r3, [pc, #612]	; (80050b4 <main+0x364>)
 8004e4e:	605d      	str	r5, [r3, #4]
 8004e50:	609d      	str	r5, [r3, #8]
 8004e52:	60d9      	str	r1, [r3, #12]
 8004e54:	615a      	str	r2, [r3, #20]
 8004e56:	621d      	str	r5, [r3, #32]
 8004e58:	4a97      	ldr	r2, [pc, #604]	; (80050b8 <main+0x368>)
 8004e5a:	625d      	str	r5, [r3, #36]	; 0x24
 8004e5c:	601d      	str	r5, [r3, #0]
 8004e5e:	4b97      	ldr	r3, [pc, #604]	; (80050bc <main+0x36c>)
 8004e60:	4996      	ldr	r1, [pc, #600]	; (80050bc <main+0x36c>)
 8004e62:	c304      	stmia	r3!, {r2}
 8004e64:	4a95      	ldr	r2, [pc, #596]	; (80050bc <main+0x36c>)
 8004e66:	0008      	movs	r0, r1
 8004e68:	6053      	str	r3, [r2, #4]
 8004e6a:	2201      	movs	r2, #1
 8004e6c:	4b93      	ldr	r3, [pc, #588]	; (80050bc <main+0x36c>)
 8004e6e:	614d      	str	r5, [r1, #20]
 8004e70:	721a      	strb	r2, [r3, #8]
 8004e72:	330c      	adds	r3, #12
 8004e74:	60cb      	str	r3, [r1, #12]
 8004e76:	610b      	str	r3, [r1, #16]
 8004e78:	000b      	movs	r3, r1
 8004e7a:	3354      	adds	r3, #84	; 0x54
 8004e7c:	618b      	str	r3, [r1, #24]
 8004e7e:	624b      	str	r3, [r1, #36]	; 0x24
 8004e80:	620b      	str	r3, [r1, #32]
 8004e82:	3310      	adds	r3, #16
 8004e84:	61cb      	str	r3, [r1, #28]
 8004e86:	628d      	str	r5, [r1, #40]	; 0x28
 8004e88:	62c9      	str	r1, [r1, #44]	; 0x2c
 8004e8a:	3130      	adds	r1, #48	; 0x30
 8004e8c:	6301      	str	r1, [r0, #48]	; 0x30
 8004e8e:	6341      	str	r1, [r0, #52]	; 0x34
 8004e90:	2110      	movs	r1, #16
 8004e92:	63c3      	str	r3, [r0, #60]	; 0x3c
 8004e94:	6381      	str	r1, [r0, #56]	; 0x38
 8004e96:	6483      	str	r3, [r0, #72]	; 0x48
 8004e98:	6443      	str	r3, [r0, #68]	; 0x44
 8004e9a:	3310      	adds	r3, #16
 8004e9c:	6403      	str	r3, [r0, #64]	; 0x40
 8004e9e:	4b88      	ldr	r3, [pc, #544]	; (80050c0 <main+0x370>)
 8004ea0:	4988      	ldr	r1, [pc, #544]	; (80050c4 <main+0x374>)
 8004ea2:	64c3      	str	r3, [r0, #76]	; 0x4c
 8004ea4:	0003      	movs	r3, r0
 8004ea6:	6518      	str	r0, [r3, #80]	; 0x50
 8004ea8:	4b87      	ldr	r3, [pc, #540]	; (80050c8 <main+0x378>)
 8004eaa:	6743      	str	r3, [r0, #116]	; 0x74
 8004eac:	4b87      	ldr	r3, [pc, #540]	; (80050cc <main+0x37c>)
 8004eae:	6783      	str	r3, [r0, #120]	; 0x78
 8004eb0:	69f3      	ldr	r3, [r6, #28]
 8004eb2:	2080      	movs	r0, #128	; 0x80
 8004eb4:	4313      	orrs	r3, r2
 8004eb6:	61f3      	str	r3, [r6, #28]
 8004eb8:	688b      	ldr	r3, [r1, #8]
 8004eba:	4313      	orrs	r3, r2
 8004ebc:	608b      	str	r3, [r1, #8]
 8004ebe:	2380      	movs	r3, #128	; 0x80
 8004ec0:	4983      	ldr	r1, [pc, #524]	; (80050d0 <main+0x380>)
 8004ec2:	05db      	lsls	r3, r3, #23
 8004ec4:	6299      	str	r1, [r3, #40]	; 0x28
 8004ec6:	2101      	movs	r1, #1
 8004ec8:	4249      	negs	r1, r1
 8004eca:	62d9      	str	r1, [r3, #44]	; 0x2c
 8004ecc:	619d      	str	r5, [r3, #24]
 8004ece:	635d      	str	r5, [r3, #52]	; 0x34
 8004ed0:	60dd      	str	r5, [r3, #12]
 8004ed2:	605d      	str	r5, [r3, #4]
 8004ed4:	615a      	str	r2, [r3, #20]
 8004ed6:	601a      	str	r2, [r3, #0]
 8004ed8:	23cf      	movs	r3, #207	; 0xcf
 8004eda:	009b      	lsls	r3, r3, #2
 8004edc:	50f8      	str	r0, [r7, r3]
 8004ede:	3bbd      	subs	r3, #189	; 0xbd
 8004ee0:	3bff      	subs	r3, #255	; 0xff
 8004ee2:	4698      	mov	r8, r3
 8004ee4:	2380      	movs	r3, #128	; 0x80
 8004ee6:	4640      	mov	r0, r8
 8004ee8:	021b      	lsls	r3, r3, #8
 8004eea:	503b      	str	r3, [r7, r0]
 8004eec:	4879      	ldr	r0, [pc, #484]	; (80050d4 <main+0x384>)
 8004eee:	603b      	str	r3, [r7, #0]
 8004ef0:	6a03      	ldr	r3, [r0, #32]
 8004ef2:	4023      	ands	r3, r4
 8004ef4:	4c78      	ldr	r4, [pc, #480]	; (80050d8 <main+0x388>)
 8004ef6:	6203      	str	r3, [r0, #32]
 8004ef8:	0023      	movs	r3, r4
 8004efa:	331c      	adds	r3, #28
 8004efc:	6261      	str	r1, [r4, #36]	; 0x24
 8004efe:	6024      	str	r4, [r4, #0]
 8004f00:	6064      	str	r4, [r4, #4]
 8004f02:	60a5      	str	r5, [r4, #8]
 8004f04:	61e3      	str	r3, [r4, #28]
 8004f06:	6223      	str	r3, [r4, #32]
 8004f08:	62a5      	str	r5, [r4, #40]	; 0x28
 8004f0a:	4b74      	ldr	r3, [pc, #464]	; (80050dc <main+0x38c>)
 8004f0c:	3108      	adds	r1, #8
 8004f0e:	4874      	ldr	r0, [pc, #464]	; (80050e0 <main+0x390>)
 8004f10:	3307      	adds	r3, #7
 8004f12:	438b      	bics	r3, r1
 8004f14:	6003      	str	r3, [r0, #0]
 8004f16:	4b73      	ldr	r3, [pc, #460]	; (80050e4 <main+0x394>)
 8004f18:	438b      	bics	r3, r1
 8004f1a:	4973      	ldr	r1, [pc, #460]	; (80050e8 <main+0x398>)
 8004f1c:	600b      	str	r3, [r1, #0]
 8004f1e:	4b73      	ldr	r3, [pc, #460]	; (80050ec <main+0x39c>)
 8004f20:	4973      	ldr	r1, [pc, #460]	; (80050f0 <main+0x3a0>)
 8004f22:	609d      	str	r5, [r3, #8]
 8004f24:	6019      	str	r1, [r3, #0]
 8004f26:	0019      	movs	r1, r3
 8004f28:	3110      	adds	r1, #16
 8004f2a:	6119      	str	r1, [r3, #16]
 8004f2c:	6159      	str	r1, [r3, #20]
 8004f2e:	0021      	movs	r1, r4
 8004f30:	3140      	adds	r1, #64	; 0x40
 8004f32:	63e1      	str	r1, [r4, #60]	; 0x3c
 8004f34:	2189      	movs	r1, #137	; 0x89
 8004f36:	60dd      	str	r5, [r3, #12]
 8004f38:	619d      	str	r5, [r3, #24]
 8004f3a:	2340      	movs	r3, #64	; 0x40
 8004f3c:	00c9      	lsls	r1, r1, #3
 8004f3e:	5063      	str	r3, [r4, r1]
 8004f40:	3138      	adds	r1, #56	; 0x38
 8004f42:	5063      	str	r3, [r4, r1]
 8004f44:	63a3      	str	r3, [r4, #56]	; 0x38
 8004f46:	4b6b      	ldr	r3, [pc, #428]	; (80050f4 <main+0x3a4>)
 8004f48:	3918      	subs	r1, #24
 8004f4a:	50e5      	str	r5, [r4, r3]
 8004f4c:	3b04      	subs	r3, #4
 8004f4e:	50e5      	str	r5, [r4, r3]
 8004f50:	3b20      	subs	r3, #32
 8004f52:	50e5      	str	r5, [r4, r3]
 8004f54:	3b08      	subs	r3, #8
 8004f56:	50e4      	str	r4, [r4, r3]
 8004f58:	4b67      	ldr	r3, [pc, #412]	; (80050f8 <main+0x3a8>)
 8004f5a:	1860      	adds	r0, r4, r1
 8004f5c:	50e4      	str	r4, [r4, r3]
 8004f5e:	3b14      	subs	r3, #20
 8004f60:	18e3      	adds	r3, r4, r3
 8004f62:	6123      	str	r3, [r4, #16]
 8004f64:	6163      	str	r3, [r4, #20]
 8004f66:	61a3      	str	r3, [r4, #24]
 8004f68:	238c      	movs	r3, #140	; 0x8c
 8004f6a:	00db      	lsls	r3, r3, #3
 8004f6c:	52e2      	strh	r2, [r4, r3]
 8004f6e:	5060      	str	r0, [r4, r1]
 8004f70:	4b62      	ldr	r3, [pc, #392]	; (80050fc <main+0x3ac>)
 8004f72:	4963      	ldr	r1, [pc, #396]	; (8005100 <main+0x3b0>)
 8004f74:	4862      	ldr	r0, [pc, #392]	; (8005100 <main+0x3b0>)
 8004f76:	1861      	adds	r1, r4, r1
 8004f78:	54e2      	strb	r2, [r4, r3]
 8004f7a:	4b62      	ldr	r3, [pc, #392]	; (8005104 <main+0x3b4>)
 8004f7c:	4a62      	ldr	r2, [pc, #392]	; (8005108 <main+0x3b8>)
 8004f7e:	5021      	str	r1, [r4, r0]
 8004f80:	3004      	adds	r0, #4
 8004f82:	5021      	str	r1, [r4, r0]
 8004f84:	50e2      	str	r2, [r4, r3]
 8004f86:	f7fb ff3b 	bl	8000e00 <_dbg_check_enable>
 8004f8a:	b662      	cpsie	i
 8004f8c:	4a5f      	ldr	r2, [pc, #380]	; (800510c <main+0x3bc>)
 8004f8e:	69a3      	ldr	r3, [r4, #24]
 8004f90:	21e0      	movs	r1, #224	; 0xe0
 8004f92:	619a      	str	r2, [r3, #24]
 8004f94:	2391      	movs	r3, #145	; 0x91
 8004f96:	00db      	lsls	r3, r3, #3
 8004f98:	18e0      	adds	r0, r4, r3
 8004f9a:	9500      	str	r5, [sp, #0]
 8004f9c:	4b5c      	ldr	r3, [pc, #368]	; (8005110 <main+0x3c0>)
 8004f9e:	2201      	movs	r2, #1
 8004fa0:	f7ff fe96 	bl	8004cd0 <chThdCreateStatic>
 8004fa4:	4b5b      	ldr	r3, [pc, #364]	; (8005114 <main+0x3c4>)
 8004fa6:	6183      	str	r3, [r0, #24]
 8004fa8:	b672      	cpsid	i
 8004faa:	f7fc fd21 	bl	80019f0 <_dbg_check_lock>
 8004fae:	4b43      	ldr	r3, [pc, #268]	; (80050bc <main+0x36c>)
 8004fb0:	7a1b      	ldrb	r3, [r3, #8]
 8004fb2:	1e5a      	subs	r2, r3, #1
 8004fb4:	2a01      	cmp	r2, #1
 8004fb6:	d903      	bls.n	8004fc0 <main+0x270>
 8004fb8:	b672      	cpsid	i
 8004fba:	4b57      	ldr	r3, [pc, #348]	; (8005118 <main+0x3c8>)
 8004fbc:	62e3      	str	r3, [r4, #44]	; 0x2c
 8004fbe:	e7fe      	b.n	8004fbe <main+0x26e>
 8004fc0:	2b01      	cmp	r3, #1
 8004fc2:	d10d      	bne.n	8004fe0 <main+0x290>
 8004fc4:	2380      	movs	r3, #128	; 0x80
 8004fc6:	69b2      	ldr	r2, [r6, #24]
 8004fc8:	01db      	lsls	r3, r3, #7
 8004fca:	4313      	orrs	r3, r2
 8004fcc:	61b3      	str	r3, [r6, #24]
 8004fce:	23db      	movs	r3, #219	; 0xdb
 8004fd0:	22c0      	movs	r2, #192	; 0xc0
 8004fd2:	009b      	lsls	r3, r3, #2
 8004fd4:	50fa      	str	r2, [r7, r3]
 8004fd6:	2380      	movs	r3, #128	; 0x80
 8004fd8:	4642      	mov	r2, r8
 8004fda:	051b      	lsls	r3, r3, #20
 8004fdc:	50bb      	str	r3, [r7, r2]
 8004fde:	603b      	str	r3, [r7, #0]
 8004fe0:	2196      	movs	r1, #150	; 0x96
 8004fe2:	4b36      	ldr	r3, [pc, #216]	; (80050bc <main+0x36c>)
 8004fe4:	0209      	lsls	r1, r1, #8
 8004fe6:	6f5d      	ldr	r5, [r3, #116]	; 0x74
 8004fe8:	6f9b      	ldr	r3, [r3, #120]	; 0x78
 8004fea:	0018      	movs	r0, r3
 8004fec:	9302      	str	r3, [sp, #8]
 8004fee:	f7fb f8ef 	bl	80001d0 <__udivsi3>
 8004ff2:	4b4a      	ldr	r3, [pc, #296]	; (800511c <main+0x3cc>)
 8004ff4:	b280      	uxth	r0, r0
 8004ff6:	81a8      	strh	r0, [r5, #12]
 8004ff8:	606b      	str	r3, [r5, #4]
 8004ffa:	2301      	movs	r3, #1
 8004ffc:	60ab      	str	r3, [r5, #8]
 8004ffe:	232e      	movs	r3, #46	; 0x2e
 8005000:	33ff      	adds	r3, #255	; 0xff
 8005002:	602b      	str	r3, [r5, #0]
 8005004:	3b2f      	subs	r3, #47	; 0x2f
 8005006:	3bff      	subs	r3, #255	; 0xff
 8005008:	4a2c      	ldr	r2, [pc, #176]	; (80050bc <main+0x36c>)
 800500a:	622b      	str	r3, [r5, #32]
 800500c:	3303      	adds	r3, #3
 800500e:	7213      	strb	r3, [r2, #8]
 8005010:	f7fc fc3e 	bl	8001890 <_dbg_check_unlock>
 8005014:	6823      	ldr	r3, [r4, #0]
 8005016:	42a3      	cmp	r3, r4
 8005018:	d005      	beq.n	8005026 <main+0x2d6>
 800501a:	69a2      	ldr	r2, [r4, #24]
 800501c:	689b      	ldr	r3, [r3, #8]
 800501e:	6892      	ldr	r2, [r2, #8]
 8005020:	429a      	cmp	r2, r3
 8005022:	d200      	bcs.n	8005026 <main+0x2d6>
 8005024:	e1cb      	b.n	80053be <main+0x66e>
 8005026:	b662      	cpsie	i
 8005028:	2080      	movs	r0, #128	; 0x80
 800502a:	0080      	lsls	r0, r0, #2
 800502c:	f7fb f968 	bl	8000300 <_pal_lld_setgroupmode.constprop.5>
 8005030:	2080      	movs	r0, #128	; 0x80
 8005032:	00c0      	lsls	r0, r0, #3
 8005034:	f7fb f964 	bl	8000300 <_pal_lld_setgroupmode.constprop.5>
 8005038:	2400      	movs	r4, #0
 800503a:	21a8      	movs	r1, #168	; 0xa8
 800503c:	9400      	str	r4, [sp, #0]
 800503e:	4b38      	ldr	r3, [pc, #224]	; (8005120 <main+0x3d0>)
 8005040:	2240      	movs	r2, #64	; 0x40
 8005042:	0049      	lsls	r1, r1, #1
 8005044:	4837      	ldr	r0, [pc, #220]	; (8005124 <main+0x3d4>)
 8005046:	f7ff fe43 	bl	8004cd0 <chThdCreateStatic>
 800504a:	21a8      	movs	r1, #168	; 0xa8
 800504c:	9400      	str	r4, [sp, #0]
 800504e:	4b36      	ldr	r3, [pc, #216]	; (8005128 <main+0x3d8>)
 8005050:	2240      	movs	r2, #64	; 0x40
 8005052:	0049      	lsls	r1, r1, #1
 8005054:	4835      	ldr	r0, [pc, #212]	; (800512c <main+0x3dc>)
 8005056:	f7ff fe3b 	bl	8004cd0 <chThdCreateStatic>
 800505a:	4b35      	ldr	r3, [pc, #212]	; (8005130 <main+0x3e0>)
 800505c:	4c35      	ldr	r4, [pc, #212]	; (8005134 <main+0x3e4>)
 800505e:	4698      	mov	r8, r3
 8005060:	4b35      	ldr	r3, [pc, #212]	; (8005138 <main+0x3e8>)
 8005062:	4f36      	ldr	r7, [pc, #216]	; (800513c <main+0x3ec>)
 8005064:	469a      	mov	sl, r3
 8005066:	4b36      	ldr	r3, [pc, #216]	; (8005140 <main+0x3f0>)
 8005068:	469b      	mov	fp, r3
 800506a:	e06e      	b.n	800514a <main+0x3fa>
 800506c:	40021000 	.word	0x40021000
 8005070:	ffbfffff 	.word	0xffbfffff
 8005074:	40007000 	.word	0x40007000
 8005078:	64155554 	.word	0x64155554
 800507c:	0000ffff 	.word	0x0000ffff
 8005080:	e000e100 	.word	0xe000e100
 8005084:	48000400 	.word	0x48000400
 8005088:	01555555 	.word	0x01555555
 800508c:	ff00ffff 	.word	0xff00ffff
 8005090:	48000800 	.word	0x48000800
 8005094:	f00ff003 	.word	0xf00ff003
 8005098:	05500554 	.word	0x05500554
 800509c:	0000fc3f 	.word	0x0000fc3f
 80050a0:	00055001 	.word	0x00055001
 80050a4:	48000c00 	.word	0x48000c00
 80050a8:	55555555 	.word	0x55555555
 80050ac:	48001000 	.word	0x48001000
 80050b0:	55555550 	.word	0x55555550
 80050b4:	48001400 	.word	0x48001400
 80050b8:	08008a90 	.word	0x08008a90
 80050bc:	200006b8 	.word	0x200006b8
 80050c0:	080003b1 	.word	0x080003b1
 80050c4:	40015800 	.word	0x40015800
 80050c8:	40013800 	.word	0x40013800
 80050cc:	02dc6c00 	.word	0x02dc6c00
 80050d0:	000012bf 	.word	0x000012bf
 80050d4:	e000ed00 	.word	0xe000ed00
 80050d8:	20000738 	.word	0x20000738
 80050dc:	20001718 	.word	0x20001718
 80050e0:	20000d44 	.word	0x20000d44
 80050e4:	20004000 	.word	0x20004000
 80050e8:	20000cc8 	.word	0x20000cc8
 80050ec:	20000ca8 	.word	0x20000ca8
 80050f0:	08001f21 	.word	0x08001f21
 80050f4:	0000047c 	.word	0x0000047c
 80050f8:	00000454 	.word	0x00000454
 80050fc:	00000462 	.word	0x00000462
 8005100:	0000046c 	.word	0x0000046c
 8005104:	0000045c 	.word	0x0000045c
 8005108:	20000400 	.word	0x20000400
 800510c:	08007f10 	.word	0x08007f10
 8005110:	080003a1 	.word	0x080003a1
 8005114:	08008060 	.word	0x08008060
 8005118:	08007ce0 	.word	0x08007ce0
 800511c:	00004040 	.word	0x00004040
 8005120:	08004381 	.word	0x08004381
 8005124:	20001478 	.word	0x20001478
 8005128:	080043b1 	.word	0x080043b1
 800512c:	200015c8 	.word	0x200015c8
 8005130:	20001438 	.word	0x20001438
 8005134:	20000ca0 	.word	0x20000ca0
 8005138:	20000d24 	.word	0x20000d24
 800513c:	20001414 	.word	0x20001414
 8005140:	20000ccc 	.word	0x20000ccc
 8005144:	48a0      	ldr	r0, [pc, #640]	; (80053c8 <main+0x678>)
 8005146:	f7ff f8fb 	bl	8004340 <chThdSleep>
 800514a:	2390      	movs	r3, #144	; 0x90
 800514c:	05db      	lsls	r3, r3, #23
 800514e:	691b      	ldr	r3, [r3, #16]
 8005150:	07db      	lsls	r3, r3, #31
 8005152:	d5f7      	bpl.n	8005144 <main+0x3f4>
 8005154:	4b9d      	ldr	r3, [pc, #628]	; (80053cc <main+0x67c>)
 8005156:	489e      	ldr	r0, [pc, #632]	; (80053d0 <main+0x680>)
 8005158:	6023      	str	r3, [r4, #0]
 800515a:	f7fb fa59 	bl	8000610 <test_println>
 800515e:	489d      	ldr	r0, [pc, #628]	; (80053d4 <main+0x684>)
 8005160:	f7fb fa56 	bl	8000610 <test_println>
 8005164:	489c      	ldr	r0, [pc, #624]	; (80053d8 <main+0x688>)
 8005166:	f7fb fa53 	bl	8000610 <test_println>
 800516a:	212a      	movs	r1, #42	; 0x2a
 800516c:	4d9b      	ldr	r5, [pc, #620]	; (80053dc <main+0x68c>)
 800516e:	6820      	ldr	r0, [r4, #0]
 8005170:	3501      	adds	r5, #1
 8005172:	6803      	ldr	r3, [r0, #0]
 8005174:	689b      	ldr	r3, [r3, #8]
 8005176:	4798      	blx	r3
 8005178:	7829      	ldrb	r1, [r5, #0]
 800517a:	2900      	cmp	r1, #0
 800517c:	d1f7      	bne.n	800516e <main+0x41e>
 800517e:	4898      	ldr	r0, [pc, #608]	; (80053e0 <main+0x690>)
 8005180:	f7fb fa46 	bl	8000610 <test_println>
 8005184:	212a      	movs	r1, #42	; 0x2a
 8005186:	4d97      	ldr	r5, [pc, #604]	; (80053e4 <main+0x694>)
 8005188:	6820      	ldr	r0, [r4, #0]
 800518a:	3501      	adds	r5, #1
 800518c:	6803      	ldr	r3, [r0, #0]
 800518e:	689b      	ldr	r3, [r3, #8]
 8005190:	4798      	blx	r3
 8005192:	7829      	ldrb	r1, [r5, #0]
 8005194:	2900      	cmp	r1, #0
 8005196:	d1f7      	bne.n	8005188 <main+0x438>
 8005198:	4893      	ldr	r0, [pc, #588]	; (80053e8 <main+0x698>)
 800519a:	f7fb fa39 	bl	8000610 <test_println>
 800519e:	212a      	movs	r1, #42	; 0x2a
 80051a0:	4d92      	ldr	r5, [pc, #584]	; (80053ec <main+0x69c>)
 80051a2:	6820      	ldr	r0, [r4, #0]
 80051a4:	3501      	adds	r5, #1
 80051a6:	6803      	ldr	r3, [r0, #0]
 80051a8:	689b      	ldr	r3, [r3, #8]
 80051aa:	4798      	blx	r3
 80051ac:	7829      	ldrb	r1, [r5, #0]
 80051ae:	2900      	cmp	r1, #0
 80051b0:	d1f7      	bne.n	80051a2 <main+0x452>
 80051b2:	488f      	ldr	r0, [pc, #572]	; (80053f0 <main+0x6a0>)
 80051b4:	f7fb fa2c 	bl	8000610 <test_println>
 80051b8:	212a      	movs	r1, #42	; 0x2a
 80051ba:	4d8e      	ldr	r5, [pc, #568]	; (80053f4 <main+0x6a4>)
 80051bc:	6820      	ldr	r0, [r4, #0]
 80051be:	3501      	adds	r5, #1
 80051c0:	6803      	ldr	r3, [r0, #0]
 80051c2:	689b      	ldr	r3, [r3, #8]
 80051c4:	4798      	blx	r3
 80051c6:	7829      	ldrb	r1, [r5, #0]
 80051c8:	2900      	cmp	r1, #0
 80051ca:	d1f7      	bne.n	80051bc <main+0x46c>
 80051cc:	488a      	ldr	r0, [pc, #552]	; (80053f8 <main+0x6a8>)
 80051ce:	f7fb fa1f 	bl	8000610 <test_println>
 80051d2:	212a      	movs	r1, #42	; 0x2a
 80051d4:	4d89      	ldr	r5, [pc, #548]	; (80053fc <main+0x6ac>)
 80051d6:	6820      	ldr	r0, [r4, #0]
 80051d8:	3501      	adds	r5, #1
 80051da:	6803      	ldr	r3, [r0, #0]
 80051dc:	689b      	ldr	r3, [r3, #8]
 80051de:	4798      	blx	r3
 80051e0:	7829      	ldrb	r1, [r5, #0]
 80051e2:	2900      	cmp	r1, #0
 80051e4:	d1f7      	bne.n	80051d6 <main+0x486>
 80051e6:	4886      	ldr	r0, [pc, #536]	; (8005400 <main+0x6b0>)
 80051e8:	f7fb fa12 	bl	8000610 <test_println>
 80051ec:	212a      	movs	r1, #42	; 0x2a
 80051ee:	4d85      	ldr	r5, [pc, #532]	; (8005404 <main+0x6b4>)
 80051f0:	6820      	ldr	r0, [r4, #0]
 80051f2:	3501      	adds	r5, #1
 80051f4:	6803      	ldr	r3, [r0, #0]
 80051f6:	689b      	ldr	r3, [r3, #8]
 80051f8:	4798      	blx	r3
 80051fa:	7829      	ldrb	r1, [r5, #0]
 80051fc:	2900      	cmp	r1, #0
 80051fe:	d1f7      	bne.n	80051f0 <main+0x4a0>
 8005200:	4881      	ldr	r0, [pc, #516]	; (8005408 <main+0x6b8>)
 8005202:	f7fb fa05 	bl	8000610 <test_println>
 8005206:	212a      	movs	r1, #42	; 0x2a
 8005208:	4d80      	ldr	r5, [pc, #512]	; (800540c <main+0x6bc>)
 800520a:	6820      	ldr	r0, [r4, #0]
 800520c:	3501      	adds	r5, #1
 800520e:	6803      	ldr	r3, [r0, #0]
 8005210:	689b      	ldr	r3, [r3, #8]
 8005212:	4798      	blx	r3
 8005214:	7829      	ldrb	r1, [r5, #0]
 8005216:	2900      	cmp	r1, #0
 8005218:	d1f7      	bne.n	800520a <main+0x4ba>
 800521a:	252a      	movs	r5, #42	; 0x2a
 800521c:	487c      	ldr	r0, [pc, #496]	; (8005410 <main+0x6c0>)
 800521e:	f7fb f9f7 	bl	8000610 <test_println>
 8005222:	0029      	movs	r1, r5
 8005224:	4e7b      	ldr	r6, [pc, #492]	; (8005414 <main+0x6c4>)
 8005226:	6820      	ldr	r0, [r4, #0]
 8005228:	3601      	adds	r6, #1
 800522a:	6803      	ldr	r3, [r0, #0]
 800522c:	689b      	ldr	r3, [r3, #8]
 800522e:	4798      	blx	r3
 8005230:	7831      	ldrb	r1, [r6, #0]
 8005232:	2900      	cmp	r1, #0
 8005234:	d1f7      	bne.n	8005226 <main+0x4d6>
 8005236:	000d      	movs	r5, r1
 8005238:	4877      	ldr	r0, [pc, #476]	; (8005418 <main+0x6c8>)
 800523a:	f7fb f9e9 	bl	8000610 <test_println>
 800523e:	4864      	ldr	r0, [pc, #400]	; (80053d0 <main+0x680>)
 8005240:	f7fb f9e6 	bl	8000610 <test_println>
 8005244:	4b75      	ldr	r3, [pc, #468]	; (800541c <main+0x6cc>)
 8005246:	4e76      	ldr	r6, [pc, #472]	; (8005420 <main+0x6d0>)
 8005248:	701d      	strb	r5, [r3, #0]
 800524a:	2301      	movs	r3, #1
 800524c:	9302      	str	r3, [sp, #8]
 800524e:	4b75      	ldr	r3, [pc, #468]	; (8005424 <main+0x6d4>)
 8005250:	9303      	str	r3, [sp, #12]
 8005252:	4b75      	ldr	r3, [pc, #468]	; (8005428 <main+0x6d8>)
 8005254:	2200      	movs	r2, #0
 8005256:	4691      	mov	r9, r2
 8005258:	2b00      	cmp	r3, #0
 800525a:	d100      	bne.n	800525e <main+0x50e>
 800525c:	e084      	b.n	8005368 <main+0x618>
 800525e:	f7fb f97f 	bl	8000560 <print_line>
 8005262:	212d      	movs	r1, #45	; 0x2d
 8005264:	4d71      	ldr	r5, [pc, #452]	; (800542c <main+0x6dc>)
 8005266:	6820      	ldr	r0, [r4, #0]
 8005268:	3501      	adds	r5, #1
 800526a:	6803      	ldr	r3, [r0, #0]
 800526c:	689b      	ldr	r3, [r3, #8]
 800526e:	4798      	blx	r3
 8005270:	7829      	ldrb	r1, [r5, #0]
 8005272:	2900      	cmp	r1, #0
 8005274:	d1f7      	bne.n	8005266 <main+0x516>
 8005276:	9802      	ldr	r0, [sp, #8]
 8005278:	f7fb f962 	bl	8000540 <test_printn>
 800527c:	6820      	ldr	r0, [r4, #0]
 800527e:	212e      	movs	r1, #46	; 0x2e
 8005280:	6803      	ldr	r3, [r0, #0]
 8005282:	689b      	ldr	r3, [r3, #8]
 8005284:	4798      	blx	r3
 8005286:	2301      	movs	r3, #1
 8005288:	469c      	mov	ip, r3
 800528a:	44e1      	add	r9, ip
 800528c:	4648      	mov	r0, r9
 800528e:	f7fb f957 	bl	8000540 <test_printn>
 8005292:	2120      	movs	r1, #32
 8005294:	4d66      	ldr	r5, [pc, #408]	; (8005430 <main+0x6e0>)
 8005296:	6820      	ldr	r0, [r4, #0]
 8005298:	3501      	adds	r5, #1
 800529a:	6803      	ldr	r3, [r0, #0]
 800529c:	689b      	ldr	r3, [r3, #8]
 800529e:	4798      	blx	r3
 80052a0:	7829      	ldrb	r1, [r5, #0]
 80052a2:	2900      	cmp	r1, #0
 80052a4:	d1f7      	bne.n	8005296 <main+0x546>
 80052a6:	6833      	ldr	r3, [r6, #0]
 80052a8:	681d      	ldr	r5, [r3, #0]
 80052aa:	7829      	ldrb	r1, [r5, #0]
 80052ac:	2900      	cmp	r1, #0
 80052ae:	d007      	beq.n	80052c0 <main+0x570>
 80052b0:	6820      	ldr	r0, [r4, #0]
 80052b2:	3501      	adds	r5, #1
 80052b4:	6803      	ldr	r3, [r0, #0]
 80052b6:	689b      	ldr	r3, [r3, #8]
 80052b8:	4798      	blx	r3
 80052ba:	7829      	ldrb	r1, [r5, #0]
 80052bc:	2900      	cmp	r1, #0
 80052be:	d1f7      	bne.n	80052b0 <main+0x560>
 80052c0:	485c      	ldr	r0, [pc, #368]	; (8005434 <main+0x6e4>)
 80052c2:	f7fb f9a5 	bl	8000610 <test_println>
 80052c6:	20fa      	movs	r0, #250	; 0xfa
 80052c8:	00c0      	lsls	r0, r0, #3
 80052ca:	f7ff f839 	bl	8004340 <chThdSleep>
 80052ce:	4643      	mov	r3, r8
 80052d0:	4a59      	ldr	r2, [pc, #356]	; (8005438 <main+0x6e8>)
 80052d2:	6835      	ldr	r5, [r6, #0]
 80052d4:	601a      	str	r2, [r3, #0]
 80052d6:	2300      	movs	r3, #0
 80052d8:	4652      	mov	r2, sl
 80052da:	603b      	str	r3, [r7, #0]
 80052dc:	607b      	str	r3, [r7, #4]
 80052de:	60bb      	str	r3, [r7, #8]
 80052e0:	60fb      	str	r3, [r7, #12]
 80052e2:	613b      	str	r3, [r7, #16]
 80052e4:	7013      	strb	r3, [r2, #0]
 80052e6:	686b      	ldr	r3, [r5, #4]
 80052e8:	2b00      	cmp	r3, #0
 80052ea:	d000      	beq.n	80052ee <main+0x59e>
 80052ec:	4798      	blx	r3
 80052ee:	68eb      	ldr	r3, [r5, #12]
 80052f0:	4798      	blx	r3
 80052f2:	68ab      	ldr	r3, [r5, #8]
 80052f4:	2b00      	cmp	r3, #0
 80052f6:	d000      	beq.n	80052fa <main+0x5aa>
 80052f8:	4798      	blx	r3
 80052fa:	f7fe fe81 	bl	8004000 <test_wait_threads>
 80052fe:	4653      	mov	r3, sl
 8005300:	781b      	ldrb	r3, [r3, #0]
 8005302:	2b00      	cmp	r3, #0
 8005304:	d03c      	beq.n	8005380 <main+0x630>
 8005306:	212d      	movs	r1, #45	; 0x2d
 8005308:	4d4c      	ldr	r5, [pc, #304]	; (800543c <main+0x6ec>)
 800530a:	6820      	ldr	r0, [r4, #0]
 800530c:	3501      	adds	r5, #1
 800530e:	6803      	ldr	r3, [r0, #0]
 8005310:	689b      	ldr	r3, [r3, #8]
 8005312:	4798      	blx	r3
 8005314:	7829      	ldrb	r1, [r5, #0]
 8005316:	2900      	cmp	r1, #0
 8005318:	d1f7      	bne.n	800530a <main+0x5ba>
 800531a:	465b      	mov	r3, fp
 800531c:	6818      	ldr	r0, [r3, #0]
 800531e:	f7fb f90f 	bl	8000540 <test_printn>
 8005322:	2120      	movs	r1, #32
 8005324:	4d46      	ldr	r5, [pc, #280]	; (8005440 <main+0x6f0>)
 8005326:	6820      	ldr	r0, [r4, #0]
 8005328:	3501      	adds	r5, #1
 800532a:	6803      	ldr	r3, [r0, #0]
 800532c:	689b      	ldr	r3, [r3, #8]
 800532e:	4798      	blx	r3
 8005330:	7829      	ldrb	r1, [r5, #0]
 8005332:	2900      	cmp	r1, #0
 8005334:	d1f7      	bne.n	8005326 <main+0x5d6>
 8005336:	4643      	mov	r3, r8
 8005338:	4a3f      	ldr	r2, [pc, #252]	; (8005438 <main+0x6e8>)
 800533a:	681b      	ldr	r3, [r3, #0]
 800533c:	4293      	cmp	r3, r2
 800533e:	d90b      	bls.n	8005358 <main+0x608>
 8005340:	0013      	movs	r3, r2
 8005342:	6820      	ldr	r0, [r4, #0]
 8005344:	1c5d      	adds	r5, r3, #1
 8005346:	7819      	ldrb	r1, [r3, #0]
 8005348:	6803      	ldr	r3, [r0, #0]
 800534a:	689b      	ldr	r3, [r3, #8]
 800534c:	4798      	blx	r3
 800534e:	4642      	mov	r2, r8
 8005350:	6812      	ldr	r2, [r2, #0]
 8005352:	002b      	movs	r3, r5
 8005354:	4295      	cmp	r5, r2
 8005356:	d3f4      	bcc.n	8005342 <main+0x5f2>
 8005358:	483a      	ldr	r0, [pc, #232]	; (8005444 <main+0x6f4>)
 800535a:	f7fb f959 	bl	8000610 <test_println>
 800535e:	6873      	ldr	r3, [r6, #4]
 8005360:	3604      	adds	r6, #4
 8005362:	2b00      	cmp	r3, #0
 8005364:	d000      	beq.n	8005368 <main+0x618>
 8005366:	e77a      	b.n	800525e <main+0x50e>
 8005368:	9a02      	ldr	r2, [sp, #8]
 800536a:	9e03      	ldr	r6, [sp, #12]
 800536c:	3201      	adds	r2, #1
 800536e:	9202      	str	r2, [sp, #8]
 8005370:	2e00      	cmp	r6, #0
 8005372:	d009      	beq.n	8005388 <main+0x638>
 8005374:	4934      	ldr	r1, [pc, #208]	; (8005448 <main+0x6f8>)
 8005376:	0092      	lsls	r2, r2, #2
 8005378:	588a      	ldr	r2, [r1, r2]
 800537a:	6833      	ldr	r3, [r6, #0]
 800537c:	9203      	str	r2, [sp, #12]
 800537e:	e769      	b.n	8005254 <main+0x504>
 8005380:	4832      	ldr	r0, [pc, #200]	; (800544c <main+0x6fc>)
 8005382:	f7fb f945 	bl	8000610 <test_println>
 8005386:	e7ea      	b.n	800535e <main+0x60e>
 8005388:	f7fb f8ea 	bl	8000560 <print_line>
 800538c:	4810      	ldr	r0, [pc, #64]	; (80053d0 <main+0x680>)
 800538e:	f7fb f93f 	bl	8000610 <test_println>
 8005392:	2146      	movs	r1, #70	; 0x46
 8005394:	4d2e      	ldr	r5, [pc, #184]	; (8005450 <main+0x700>)
 8005396:	6820      	ldr	r0, [r4, #0]
 8005398:	3501      	adds	r5, #1
 800539a:	6803      	ldr	r3, [r0, #0]
 800539c:	689b      	ldr	r3, [r3, #8]
 800539e:	4798      	blx	r3
 80053a0:	7829      	ldrb	r1, [r5, #0]
 80053a2:	2900      	cmp	r1, #0
 80053a4:	d1f7      	bne.n	8005396 <main+0x646>
 80053a6:	4b1d      	ldr	r3, [pc, #116]	; (800541c <main+0x6cc>)
 80053a8:	781b      	ldrb	r3, [r3, #0]
 80053aa:	2b00      	cmp	r3, #0
 80053ac:	d103      	bne.n	80053b6 <main+0x666>
 80053ae:	4829      	ldr	r0, [pc, #164]	; (8005454 <main+0x704>)
 80053b0:	f7fb f92e 	bl	8000610 <test_println>
 80053b4:	e6c6      	b.n	8005144 <main+0x3f4>
 80053b6:	4828      	ldr	r0, [pc, #160]	; (8005458 <main+0x708>)
 80053b8:	f7fb f92a 	bl	8000610 <test_println>
 80053bc:	e6c2      	b.n	8005144 <main+0x3f4>
 80053be:	b672      	cpsid	i
 80053c0:	4b26      	ldr	r3, [pc, #152]	; (800545c <main+0x70c>)
 80053c2:	62e3      	str	r3, [r4, #44]	; 0x2c
 80053c4:	e7fe      	b.n	80053c4 <main+0x674>
 80053c6:	46c0      	nop			; (mov r8, r8)
 80053c8:	00001388 	.word	0x00001388
 80053cc:	200006b8 	.word	0x200006b8
 80053d0:	08007eb0 	.word	0x08007eb0
 80053d4:	08008068 	.word	0x08008068
 80053d8:	08008084 	.word	0x08008084
 80053dc:	08007f80 	.word	0x08007f80
 80053e0:	08008088 	.word	0x08008088
 80053e4:	08007f94 	.word	0x08007f94
 80053e8:	08008090 	.word	0x08008090
 80053ec:	08007fa8 	.word	0x08007fa8
 80053f0:	080080a8 	.word	0x080080a8
 80053f4:	08007fbc 	.word	0x08007fbc
 80053f8:	080080f0 	.word	0x080080f0
 80053fc:	08007fd0 	.word	0x08007fd0
 8005400:	080080f8 	.word	0x080080f8
 8005404:	08007fe4 	.word	0x08007fe4
 8005408:	08008104 	.word	0x08008104
 800540c:	08007ff8 	.word	0x08007ff8
 8005410:	0800811c 	.word	0x0800811c
 8005414:	0800800c 	.word	0x0800800c
 8005418:	0800814c 	.word	0x0800814c
 800541c:	200013e8 	.word	0x200013e8
 8005420:	080082d0 	.word	0x080082d0
 8005424:	080082e0 	.word	0x080082e0
 8005428:	08008a20 	.word	0x08008a20
 800542c:	08008020 	.word	0x08008020
 8005430:	08008030 	.word	0x08008030
 8005434:	08008164 	.word	0x08008164
 8005438:	20001428 	.word	0x20001428
 800543c:	08008034 	.word	0x08008034
 8005440:	0800804c 	.word	0x0800804c
 8005444:	08008168 	.word	0x08008168
 8005448:	08008270 	.word	0x08008270
 800544c:	0800816c 	.word	0x0800816c
 8005450:	08008050 	.word	0x08008050
 8005454:	08008178 	.word	0x08008178
 8005458:	08008180 	.word	0x08008180
 800545c:	080078c0 	.word	0x080078c0

08005460 <bmk8_execute>:
 8005460:	b5f0      	push	{r4, r5, r6, r7, lr}
 8005462:	46ce      	mov	lr, r9
 8005464:	4647      	mov	r7, r8
 8005466:	2300      	movs	r3, #0
 8005468:	b580      	push	{r7, lr}
 800546a:	b085      	sub	sp, #20
 800546c:	9303      	str	r3, [sp, #12]
 800546e:	f7ff f927 	bl	80046c0 <test_wait_tick>
 8005472:	4b2d      	ldr	r3, [pc, #180]	; (8005528 <bmk8_execute+0xc8>)
 8005474:	27a8      	movs	r7, #168	; 0xa8
 8005476:	4698      	mov	r8, r3
 8005478:	4b2c      	ldr	r3, [pc, #176]	; (800552c <bmk8_execute+0xcc>)
 800547a:	4c2d      	ldr	r4, [pc, #180]	; (8005530 <bmk8_execute+0xd0>)
 800547c:	4699      	mov	r9, r3
 800547e:	699b      	ldr	r3, [r3, #24]
 8005480:	007f      	lsls	r7, r7, #1
 8005482:	689a      	ldr	r2, [r3, #8]
 8005484:	ae03      	add	r6, sp, #12
 8005486:	4643      	mov	r3, r8
 8005488:	0039      	movs	r1, r7
 800548a:	3a01      	subs	r2, #1
 800548c:	9600      	str	r6, [sp, #0]
 800548e:	0020      	movs	r0, r4
 8005490:	f7ff fc1e 	bl	8004cd0 <chThdCreateStatic>
 8005494:	464b      	mov	r3, r9
 8005496:	699b      	ldr	r3, [r3, #24]
 8005498:	4d26      	ldr	r5, [pc, #152]	; (8005534 <bmk8_execute+0xd4>)
 800549a:	689a      	ldr	r2, [r3, #8]
 800549c:	6028      	str	r0, [r5, #0]
 800549e:	4643      	mov	r3, r8
 80054a0:	0039      	movs	r1, r7
 80054a2:	3a01      	subs	r2, #1
 80054a4:	19e0      	adds	r0, r4, r7
 80054a6:	9600      	str	r6, [sp, #0]
 80054a8:	f7ff fc12 	bl	8004cd0 <chThdCreateStatic>
 80054ac:	464b      	mov	r3, r9
 80054ae:	699b      	ldr	r3, [r3, #24]
 80054b0:	6068      	str	r0, [r5, #4]
 80054b2:	689a      	ldr	r2, [r3, #8]
 80054b4:	23a8      	movs	r3, #168	; 0xa8
 80054b6:	009b      	lsls	r3, r3, #2
 80054b8:	18e0      	adds	r0, r4, r3
 80054ba:	0039      	movs	r1, r7
 80054bc:	4643      	mov	r3, r8
 80054be:	3a01      	subs	r2, #1
 80054c0:	9600      	str	r6, [sp, #0]
 80054c2:	f7ff fc05 	bl	8004cd0 <chThdCreateStatic>
 80054c6:	464b      	mov	r3, r9
 80054c8:	699b      	ldr	r3, [r3, #24]
 80054ca:	60a8      	str	r0, [r5, #8]
 80054cc:	689a      	ldr	r2, [r3, #8]
 80054ce:	23fc      	movs	r3, #252	; 0xfc
 80054d0:	009b      	lsls	r3, r3, #2
 80054d2:	18e0      	adds	r0, r4, r3
 80054d4:	0039      	movs	r1, r7
 80054d6:	4643      	mov	r3, r8
 80054d8:	3a01      	subs	r2, #1
 80054da:	9600      	str	r6, [sp, #0]
 80054dc:	f7ff fbf8 	bl	8004cd0 <chThdCreateStatic>
 80054e0:	464b      	mov	r3, r9
 80054e2:	699b      	ldr	r3, [r3, #24]
 80054e4:	0039      	movs	r1, r7
 80054e6:	689a      	ldr	r2, [r3, #8]
 80054e8:	23a8      	movs	r3, #168	; 0xa8
 80054ea:	00db      	lsls	r3, r3, #3
 80054ec:	3a01      	subs	r2, #1
 80054ee:	60e8      	str	r0, [r5, #12]
 80054f0:	18e0      	adds	r0, r4, r3
 80054f2:	9600      	str	r6, [sp, #0]
 80054f4:	4643      	mov	r3, r8
 80054f6:	f7ff fbeb 	bl	8004cd0 <chThdCreateStatic>
 80054fa:	6128      	str	r0, [r5, #16]
 80054fc:	480e      	ldr	r0, [pc, #56]	; (8005538 <bmk8_execute+0xd8>)
 80054fe:	f7fe ff1f 	bl	8004340 <chThdSleep>
 8005502:	f7fc ff0d 	bl	8002320 <test_terminate_threads>
 8005506:	f7fe fd7b 	bl	8004000 <test_wait_threads>
 800550a:	480c      	ldr	r0, [pc, #48]	; (800553c <bmk8_execute+0xdc>)
 800550c:	f7fb f8a0 	bl	8000650 <test_print>
 8005510:	9803      	ldr	r0, [sp, #12]
 8005512:	f7fb f815 	bl	8000540 <test_printn>
 8005516:	480a      	ldr	r0, [pc, #40]	; (8005540 <bmk8_execute+0xe0>)
 8005518:	f7fb f87a 	bl	8000610 <test_println>
 800551c:	b005      	add	sp, #20
 800551e:	bc0c      	pop	{r2, r3}
 8005520:	4690      	mov	r8, r2
 8005522:	4699      	mov	r9, r3
 8005524:	bdf0      	pop	{r4, r5, r6, r7, pc}
 8005526:	46c0      	nop			; (mov r8, r8)
 8005528:	08004311 	.word	0x08004311
 800552c:	20000738 	.word	0x20000738
 8005530:	20000d58 	.word	0x20000d58
 8005534:	20001414 	.word	0x20001414
 8005538:	00002710 	.word	0x00002710
 800553c:	08007db0 	.word	0x08007db0
 8005540:	08007ec0 	.word	0x08007ec0
	...

08005550 <bmk7_execute>:
 8005550:	b5f0      	push	{r4, r5, r6, r7, lr}
 8005552:	46c6      	mov	lr, r8
 8005554:	2700      	movs	r7, #0
 8005556:	21a8      	movs	r1, #168	; 0xa8
 8005558:	b500      	push	{lr}
 800555a:	4b39      	ldr	r3, [pc, #228]	; (8005640 <bmk7_execute+0xf0>)
 800555c:	4e39      	ldr	r6, [pc, #228]	; (8005644 <bmk7_execute+0xf4>)
 800555e:	4698      	mov	r8, r3
 8005560:	699b      	ldr	r3, [r3, #24]
 8005562:	4c39      	ldr	r4, [pc, #228]	; (8005648 <bmk7_execute+0xf8>)
 8005564:	689a      	ldr	r2, [r3, #8]
 8005566:	b082      	sub	sp, #8
 8005568:	0033      	movs	r3, r6
 800556a:	3205      	adds	r2, #5
 800556c:	0049      	lsls	r1, r1, #1
 800556e:	0020      	movs	r0, r4
 8005570:	9700      	str	r7, [sp, #0]
 8005572:	f7ff fbad 	bl	8004cd0 <chThdCreateStatic>
 8005576:	4643      	mov	r3, r8
 8005578:	4d34      	ldr	r5, [pc, #208]	; (800564c <bmk7_execute+0xfc>)
 800557a:	21a8      	movs	r1, #168	; 0xa8
 800557c:	6028      	str	r0, [r5, #0]
 800557e:	0020      	movs	r0, r4
 8005580:	699b      	ldr	r3, [r3, #24]
 8005582:	3051      	adds	r0, #81	; 0x51
 8005584:	689a      	ldr	r2, [r3, #8]
 8005586:	0049      	lsls	r1, r1, #1
 8005588:	0033      	movs	r3, r6
 800558a:	3204      	adds	r2, #4
 800558c:	30ff      	adds	r0, #255	; 0xff
 800558e:	9700      	str	r7, [sp, #0]
 8005590:	f7ff fb9e 	bl	8004cd0 <chThdCreateStatic>
 8005594:	4643      	mov	r3, r8
 8005596:	699b      	ldr	r3, [r3, #24]
 8005598:	21a8      	movs	r1, #168	; 0xa8
 800559a:	689a      	ldr	r2, [r3, #8]
 800559c:	23a8      	movs	r3, #168	; 0xa8
 800559e:	009b      	lsls	r3, r3, #2
 80055a0:	6068      	str	r0, [r5, #4]
 80055a2:	3203      	adds	r2, #3
 80055a4:	18e0      	adds	r0, r4, r3
 80055a6:	0049      	lsls	r1, r1, #1
 80055a8:	0033      	movs	r3, r6
 80055aa:	9700      	str	r7, [sp, #0]
 80055ac:	f7ff fb90 	bl	8004cd0 <chThdCreateStatic>
 80055b0:	4643      	mov	r3, r8
 80055b2:	699b      	ldr	r3, [r3, #24]
 80055b4:	21a8      	movs	r1, #168	; 0xa8
 80055b6:	689a      	ldr	r2, [r3, #8]
 80055b8:	23fc      	movs	r3, #252	; 0xfc
 80055ba:	009b      	lsls	r3, r3, #2
 80055bc:	60a8      	str	r0, [r5, #8]
 80055be:	3202      	adds	r2, #2
 80055c0:	18e0      	adds	r0, r4, r3
 80055c2:	0049      	lsls	r1, r1, #1
 80055c4:	0033      	movs	r3, r6
 80055c6:	9700      	str	r7, [sp, #0]
 80055c8:	f7ff fb82 	bl	8004cd0 <chThdCreateStatic>
 80055cc:	4643      	mov	r3, r8
 80055ce:	699b      	ldr	r3, [r3, #24]
 80055d0:	21a8      	movs	r1, #168	; 0xa8
 80055d2:	689a      	ldr	r2, [r3, #8]
 80055d4:	23a8      	movs	r3, #168	; 0xa8
 80055d6:	00db      	lsls	r3, r3, #3
 80055d8:	60e8      	str	r0, [r5, #12]
 80055da:	3201      	adds	r2, #1
 80055dc:	18e0      	adds	r0, r4, r3
 80055de:	0049      	lsls	r1, r1, #1
 80055e0:	0033      	movs	r3, r6
 80055e2:	9700      	str	r7, [sp, #0]
 80055e4:	f7ff fb74 	bl	8004cd0 <chThdCreateStatic>
 80055e8:	2400      	movs	r4, #0
 80055ea:	6128      	str	r0, [r5, #16]
 80055ec:	f7ff f868 	bl	80046c0 <test_wait_tick>
 80055f0:	f7fc fc5e 	bl	8001eb0 <test_start_timer.constprop.1>
 80055f4:	4d16      	ldr	r5, [pc, #88]	; (8005650 <bmk7_execute+0x100>)
 80055f6:	4e17      	ldr	r6, [pc, #92]	; (8005654 <bmk7_execute+0x104>)
 80055f8:	0028      	movs	r0, r5
 80055fa:	f7fc fa11 	bl	8001a20 <chSemReset.constprop.56>
 80055fe:	7833      	ldrb	r3, [r6, #0]
 8005600:	3401      	adds	r4, #1
 8005602:	2b00      	cmp	r3, #0
 8005604:	d0f8      	beq.n	80055f8 <bmk7_execute+0xa8>
 8005606:	f7fc fe8b 	bl	8002320 <test_terminate_threads>
 800560a:	0028      	movs	r0, r5
 800560c:	f7fc fa08 	bl	8001a20 <chSemReset.constprop.56>
 8005610:	f7fe fcf6 	bl	8004000 <test_wait_threads>
 8005614:	4810      	ldr	r0, [pc, #64]	; (8005658 <bmk7_execute+0x108>)
 8005616:	f7fb f81b 	bl	8000650 <test_print>
 800561a:	0020      	movs	r0, r4
 800561c:	f7fa ff90 	bl	8000540 <test_printn>
 8005620:	480e      	ldr	r0, [pc, #56]	; (800565c <bmk7_execute+0x10c>)
 8005622:	f7fb f815 	bl	8000650 <test_print>
 8005626:	0060      	lsls	r0, r4, #1
 8005628:	1900      	adds	r0, r0, r4
 800562a:	0040      	lsls	r0, r0, #1
 800562c:	f7fa ff88 	bl	8000540 <test_printn>
 8005630:	480b      	ldr	r0, [pc, #44]	; (8005660 <bmk7_execute+0x110>)
 8005632:	f7fa ffed 	bl	8000610 <test_println>
 8005636:	b002      	add	sp, #8
 8005638:	bc04      	pop	{r2}
 800563a:	4690      	mov	r8, r2
 800563c:	bdf0      	pop	{r4, r5, r6, r7, pc}
 800563e:	46c0      	nop			; (mov r8, r8)
 8005640:	20000738 	.word	0x20000738
 8005644:	08003dc1 	.word	0x08003dc1
 8005648:	20000d58 	.word	0x20000d58
 800564c:	20001414 	.word	0x20001414
 8005650:	20000d48 	.word	0x20000d48
 8005654:	20001410 	.word	0x20001410
 8005658:	08007db0 	.word	0x08007db0
 800565c:	08007ea0 	.word	0x08007ea0
 8005660:	08007ec0 	.word	0x08007ec0
	...

08005670 <bmk6_execute>:
 8005670:	b5f0      	push	{r4, r5, r6, r7, lr}
 8005672:	46ce      	mov	lr, r9
 8005674:	4647      	mov	r7, r8
 8005676:	b580      	push	{r7, lr}
 8005678:	4b14      	ldr	r3, [pc, #80]	; (80056cc <bmk6_execute+0x5c>)
 800567a:	b083      	sub	sp, #12
 800567c:	699b      	ldr	r3, [r3, #24]
 800567e:	2400      	movs	r4, #0
 8005680:	689d      	ldr	r5, [r3, #8]
 8005682:	f7ff f81d 	bl	80046c0 <test_wait_tick>
 8005686:	f7fc fc13 	bl	8001eb0 <test_start_timer.constprop.1>
 800568a:	4b11      	ldr	r3, [pc, #68]	; (80056d0 <bmk6_execute+0x60>)
 800568c:	2600      	movs	r6, #0
 800568e:	4699      	mov	r9, r3
 8005690:	4b10      	ldr	r3, [pc, #64]	; (80056d4 <bmk6_execute+0x64>)
 8005692:	4f11      	ldr	r7, [pc, #68]	; (80056d8 <bmk6_execute+0x68>)
 8005694:	4698      	mov	r8, r3
 8005696:	3501      	adds	r5, #1
 8005698:	21a8      	movs	r1, #168	; 0xa8
 800569a:	464b      	mov	r3, r9
 800569c:	9600      	str	r6, [sp, #0]
 800569e:	002a      	movs	r2, r5
 80056a0:	0049      	lsls	r1, r1, #1
 80056a2:	4640      	mov	r0, r8
 80056a4:	f7ff fb14 	bl	8004cd0 <chThdCreateStatic>
 80056a8:	783b      	ldrb	r3, [r7, #0]
 80056aa:	3401      	adds	r4, #1
 80056ac:	2b00      	cmp	r3, #0
 80056ae:	d0f3      	beq.n	8005698 <bmk6_execute+0x28>
 80056b0:	480a      	ldr	r0, [pc, #40]	; (80056dc <bmk6_execute+0x6c>)
 80056b2:	f7fa ffcd 	bl	8000650 <test_print>
 80056b6:	0020      	movs	r0, r4
 80056b8:	f7fa ff42 	bl	8000540 <test_printn>
 80056bc:	4808      	ldr	r0, [pc, #32]	; (80056e0 <bmk6_execute+0x70>)
 80056be:	f7fa ffa7 	bl	8000610 <test_println>
 80056c2:	b003      	add	sp, #12
 80056c4:	bc0c      	pop	{r2, r3}
 80056c6:	4690      	mov	r8, r2
 80056c8:	4699      	mov	r9, r3
 80056ca:	bdf0      	pop	{r4, r5, r6, r7, pc}
 80056cc:	20000738 	.word	0x20000738
 80056d0:	08004271 	.word	0x08004271
 80056d4:	20000d58 	.word	0x20000d58
 80056d8:	20001410 	.word	0x20001410
 80056dc:	08007db0 	.word	0x08007db0
 80056e0:	08007e90 	.word	0x08007e90
	...

080056f0 <bmk5_execute>:
 80056f0:	b5f0      	push	{r4, r5, r6, r7, lr}
 80056f2:	46ce      	mov	lr, r9
 80056f4:	4647      	mov	r7, r8
 80056f6:	b580      	push	{r7, lr}
 80056f8:	4b15      	ldr	r3, [pc, #84]	; (8005750 <bmk5_execute+0x60>)
 80056fa:	b083      	sub	sp, #12
 80056fc:	699b      	ldr	r3, [r3, #24]
 80056fe:	2400      	movs	r4, #0
 8005700:	689d      	ldr	r5, [r3, #8]
 8005702:	f7fe ffdd 	bl	80046c0 <test_wait_tick>
 8005706:	f7fc fbd3 	bl	8001eb0 <test_start_timer.constprop.1>
 800570a:	4b12      	ldr	r3, [pc, #72]	; (8005754 <bmk5_execute+0x64>)
 800570c:	2600      	movs	r6, #0
 800570e:	4699      	mov	r9, r3
 8005710:	4b11      	ldr	r3, [pc, #68]	; (8005758 <bmk5_execute+0x68>)
 8005712:	4f12      	ldr	r7, [pc, #72]	; (800575c <bmk5_execute+0x6c>)
 8005714:	4698      	mov	r8, r3
 8005716:	3d01      	subs	r5, #1
 8005718:	21a8      	movs	r1, #168	; 0xa8
 800571a:	464b      	mov	r3, r9
 800571c:	002a      	movs	r2, r5
 800571e:	0049      	lsls	r1, r1, #1
 8005720:	9600      	str	r6, [sp, #0]
 8005722:	4640      	mov	r0, r8
 8005724:	f7ff fad4 	bl	8004cd0 <chThdCreateStatic>
 8005728:	f7fe fc2a 	bl	8003f80 <chThdWait>
 800572c:	783b      	ldrb	r3, [r7, #0]
 800572e:	3401      	adds	r4, #1
 8005730:	2b00      	cmp	r3, #0
 8005732:	d0f1      	beq.n	8005718 <bmk5_execute+0x28>
 8005734:	480a      	ldr	r0, [pc, #40]	; (8005760 <bmk5_execute+0x70>)
 8005736:	f7fa ff8b 	bl	8000650 <test_print>
 800573a:	0020      	movs	r0, r4
 800573c:	f7fa ff00 	bl	8000540 <test_printn>
 8005740:	4808      	ldr	r0, [pc, #32]	; (8005764 <bmk5_execute+0x74>)
 8005742:	f7fa ff65 	bl	8000610 <test_println>
 8005746:	b003      	add	sp, #12
 8005748:	bc0c      	pop	{r2, r3}
 800574a:	4690      	mov	r8, r2
 800574c:	4699      	mov	r9, r3
 800574e:	bdf0      	pop	{r4, r5, r6, r7, pc}
 8005750:	20000738 	.word	0x20000738
 8005754:	08004271 	.word	0x08004271
 8005758:	20000d58 	.word	0x20000d58
 800575c:	20001410 	.word	0x20001410
 8005760:	08007db0 	.word	0x08007db0
 8005764:	08007e90 	.word	0x08007e90
	...

08005770 <bmk4_execute>:
 8005770:	b5f0      	push	{r4, r5, r6, r7, lr}
 8005772:	4c30      	ldr	r4, [pc, #192]	; (8005834 <bmk4_execute+0xc4>)
 8005774:	21a8      	movs	r1, #168	; 0xa8
 8005776:	69a3      	ldr	r3, [r4, #24]
 8005778:	b083      	sub	sp, #12
 800577a:	689a      	ldr	r2, [r3, #8]
 800577c:	2300      	movs	r3, #0
 800577e:	3201      	adds	r2, #1
 8005780:	0049      	lsls	r1, r1, #1
 8005782:	9300      	str	r3, [sp, #0]
 8005784:	482c      	ldr	r0, [pc, #176]	; (8005838 <bmk4_execute+0xc8>)
 8005786:	4b2d      	ldr	r3, [pc, #180]	; (800583c <bmk4_execute+0xcc>)
 8005788:	f7ff faa2 	bl	8004cd0 <chThdCreateStatic>
 800578c:	2600      	movs	r6, #0
 800578e:	4b2c      	ldr	r3, [pc, #176]	; (8005840 <bmk4_execute+0xd0>)
 8005790:	0005      	movs	r5, r0
 8005792:	6018      	str	r0, [r3, #0]
 8005794:	f7fe ff94 	bl	80046c0 <test_wait_tick>
 8005798:	f7fc fb8a 	bl	8001eb0 <test_start_timer.constprop.1>
 800579c:	4f29      	ldr	r7, [pc, #164]	; (8005844 <bmk4_execute+0xd4>)
 800579e:	b672      	cpsid	i
 80057a0:	f7fc f926 	bl	80019f0 <_dbg_check_lock>
 80057a4:	2100      	movs	r1, #0
 80057a6:	0028      	movs	r0, r5
 80057a8:	f7fb fec2 	bl	8001530 <chSchWakeupS>
 80057ac:	2100      	movs	r1, #0
 80057ae:	0028      	movs	r0, r5
 80057b0:	f7fb febe 	bl	8001530 <chSchWakeupS>
 80057b4:	2100      	movs	r1, #0
 80057b6:	0028      	movs	r0, r5
 80057b8:	f7fb feba 	bl	8001530 <chSchWakeupS>
 80057bc:	2100      	movs	r1, #0
 80057be:	0028      	movs	r0, r5
 80057c0:	f7fb feb6 	bl	8001530 <chSchWakeupS>
 80057c4:	f7fc f864 	bl	8001890 <_dbg_check_unlock>
 80057c8:	6823      	ldr	r3, [r4, #0]
 80057ca:	42a3      	cmp	r3, r4
 80057cc:	d004      	beq.n	80057d8 <bmk4_execute+0x68>
 80057ce:	69a2      	ldr	r2, [r4, #24]
 80057d0:	689b      	ldr	r3, [r3, #8]
 80057d2:	6892      	ldr	r2, [r2, #8]
 80057d4:	429a      	cmp	r2, r3
 80057d6:	d324      	bcc.n	8005822 <bmk4_execute+0xb2>
 80057d8:	b662      	cpsie	i
 80057da:	783b      	ldrb	r3, [r7, #0]
 80057dc:	3604      	adds	r6, #4
 80057de:	2b00      	cmp	r3, #0
 80057e0:	d0dd      	beq.n	800579e <bmk4_execute+0x2e>
 80057e2:	b672      	cpsid	i
 80057e4:	f7fc f904 	bl	80019f0 <_dbg_check_lock>
 80057e8:	2101      	movs	r1, #1
 80057ea:	0028      	movs	r0, r5
 80057ec:	4249      	negs	r1, r1
 80057ee:	f7fb fe9f 	bl	8001530 <chSchWakeupS>
 80057f2:	f7fc f84d 	bl	8001890 <_dbg_check_unlock>
 80057f6:	6823      	ldr	r3, [r4, #0]
 80057f8:	42a3      	cmp	r3, r4
 80057fa:	d004      	beq.n	8005806 <bmk4_execute+0x96>
 80057fc:	69a2      	ldr	r2, [r4, #24]
 80057fe:	689b      	ldr	r3, [r3, #8]
 8005800:	6892      	ldr	r2, [r2, #8]
 8005802:	429a      	cmp	r2, r3
 8005804:	d311      	bcc.n	800582a <bmk4_execute+0xba>
 8005806:	b662      	cpsie	i
 8005808:	f7fe fbfa 	bl	8004000 <test_wait_threads>
 800580c:	480e      	ldr	r0, [pc, #56]	; (8005848 <bmk4_execute+0xd8>)
 800580e:	f7fa ff1f 	bl	8000650 <test_print>
 8005812:	0070      	lsls	r0, r6, #1
 8005814:	f7fa fe94 	bl	8000540 <test_printn>
 8005818:	480c      	ldr	r0, [pc, #48]	; (800584c <bmk4_execute+0xdc>)
 800581a:	f7fa fef9 	bl	8000610 <test_println>
 800581e:	b003      	add	sp, #12
 8005820:	bdf0      	pop	{r4, r5, r6, r7, pc}
 8005822:	b672      	cpsid	i
 8005824:	4b0a      	ldr	r3, [pc, #40]	; (8005850 <bmk4_execute+0xe0>)
 8005826:	62e3      	str	r3, [r4, #44]	; 0x2c
 8005828:	e7fe      	b.n	8005828 <bmk4_execute+0xb8>
 800582a:	b672      	cpsid	i
 800582c:	4b08      	ldr	r3, [pc, #32]	; (8005850 <bmk4_execute+0xe0>)
 800582e:	62e3      	str	r3, [r4, #44]	; 0x2c
 8005830:	e7fe      	b.n	8005830 <bmk4_execute+0xc0>
 8005832:	46c0      	nop			; (mov r8, r8)
 8005834:	20000738 	.word	0x20000738
 8005838:	20000d58 	.word	0x20000d58
 800583c:	08001f81 	.word	0x08001f81
 8005840:	20001414 	.word	0x20001414
 8005844:	20001410 	.word	0x20001410
 8005848:	08007db0 	.word	0x08007db0
 800584c:	08007ec0 	.word	0x08007ec0
 8005850:	08007950 	.word	0x08007950
	...

08005860 <bmk3_execute>:
 8005860:	b5f0      	push	{r4, r5, r6, r7, lr}
 8005862:	46ce      	mov	lr, r9
 8005864:	4647      	mov	r7, r8
 8005866:	26a8      	movs	r6, #168	; 0xa8
 8005868:	b580      	push	{r7, lr}
 800586a:	2700      	movs	r7, #0
 800586c:	4b2e      	ldr	r3, [pc, #184]	; (8005928 <bmk3_execute+0xc8>)
 800586e:	4c2f      	ldr	r4, [pc, #188]	; (800592c <bmk3_execute+0xcc>)
 8005870:	4698      	mov	r8, r3
 8005872:	699b      	ldr	r3, [r3, #24]
 8005874:	b083      	sub	sp, #12
 8005876:	689a      	ldr	r2, [r3, #8]
 8005878:	0076      	lsls	r6, r6, #1
 800587a:	0031      	movs	r1, r6
 800587c:	3201      	adds	r2, #1
 800587e:	9700      	str	r7, [sp, #0]
 8005880:	4b2b      	ldr	r3, [pc, #172]	; (8005930 <bmk3_execute+0xd0>)
 8005882:	0020      	movs	r0, r4
 8005884:	f7ff fa24 	bl	8004cd0 <chThdCreateStatic>
 8005888:	4b2a      	ldr	r3, [pc, #168]	; (8005934 <bmk3_execute+0xd4>)
 800588a:	4d2b      	ldr	r5, [pc, #172]	; (8005938 <bmk3_execute+0xd8>)
 800588c:	4699      	mov	r9, r3
 800588e:	4643      	mov	r3, r8
 8005890:	699b      	ldr	r3, [r3, #24]
 8005892:	6028      	str	r0, [r5, #0]
 8005894:	689a      	ldr	r2, [r3, #8]
 8005896:	19a0      	adds	r0, r4, r6
 8005898:	464b      	mov	r3, r9
 800589a:	0031      	movs	r1, r6
 800589c:	3a02      	subs	r2, #2
 800589e:	9700      	str	r7, [sp, #0]
 80058a0:	f7ff fa16 	bl	8004cd0 <chThdCreateStatic>
 80058a4:	4643      	mov	r3, r8
 80058a6:	699b      	ldr	r3, [r3, #24]
 80058a8:	6068      	str	r0, [r5, #4]
 80058aa:	689a      	ldr	r2, [r3, #8]
 80058ac:	23a8      	movs	r3, #168	; 0xa8
 80058ae:	009b      	lsls	r3, r3, #2
 80058b0:	18e0      	adds	r0, r4, r3
 80058b2:	0031      	movs	r1, r6
 80058b4:	464b      	mov	r3, r9
 80058b6:	3a03      	subs	r2, #3
 80058b8:	9700      	str	r7, [sp, #0]
 80058ba:	f7ff fa09 	bl	8004cd0 <chThdCreateStatic>
 80058be:	4643      	mov	r3, r8
 80058c0:	699b      	ldr	r3, [r3, #24]
 80058c2:	60a8      	str	r0, [r5, #8]
 80058c4:	689a      	ldr	r2, [r3, #8]
 80058c6:	23fc      	movs	r3, #252	; 0xfc
 80058c8:	009b      	lsls	r3, r3, #2
 80058ca:	18e0      	adds	r0, r4, r3
 80058cc:	0031      	movs	r1, r6
 80058ce:	464b      	mov	r3, r9
 80058d0:	3a04      	subs	r2, #4
 80058d2:	9700      	str	r7, [sp, #0]
 80058d4:	f7ff f9fc 	bl	8004cd0 <chThdCreateStatic>
 80058d8:	4643      	mov	r3, r8
 80058da:	699b      	ldr	r3, [r3, #24]
 80058dc:	0031      	movs	r1, r6
 80058de:	689a      	ldr	r2, [r3, #8]
 80058e0:	23a8      	movs	r3, #168	; 0xa8
 80058e2:	00db      	lsls	r3, r3, #3
 80058e4:	3a05      	subs	r2, #5
 80058e6:	60e8      	str	r0, [r5, #12]
 80058e8:	18e0      	adds	r0, r4, r3
 80058ea:	9700      	str	r7, [sp, #0]
 80058ec:	464b      	mov	r3, r9
 80058ee:	f7ff f9ef 	bl	8004cd0 <chThdCreateStatic>
 80058f2:	6128      	str	r0, [r5, #16]
 80058f4:	6828      	ldr	r0, [r5, #0]
 80058f6:	f7ff f833 	bl	8004960 <msg_loop_test>
 80058fa:	0004      	movs	r4, r0
 80058fc:	f7fe fb80 	bl	8004000 <test_wait_threads>
 8005900:	480e      	ldr	r0, [pc, #56]	; (800593c <bmk3_execute+0xdc>)
 8005902:	f7fa fea5 	bl	8000650 <test_print>
 8005906:	0020      	movs	r0, r4
 8005908:	f7fa fe1a 	bl	8000540 <test_printn>
 800590c:	480c      	ldr	r0, [pc, #48]	; (8005940 <bmk3_execute+0xe0>)
 800590e:	f7fa fe9f 	bl	8000650 <test_print>
 8005912:	0060      	lsls	r0, r4, #1
 8005914:	f7fa fe14 	bl	8000540 <test_printn>
 8005918:	480a      	ldr	r0, [pc, #40]	; (8005944 <bmk3_execute+0xe4>)
 800591a:	f7fa fe79 	bl	8000610 <test_println>
 800591e:	b003      	add	sp, #12
 8005920:	bc0c      	pop	{r2, r3}
 8005922:	4690      	mov	r8, r2
 8005924:	4699      	mov	r9, r3
 8005926:	bdf0      	pop	{r4, r5, r6, r7, pc}
 8005928:	20000738 	.word	0x20000738
 800592c:	20000d58 	.word	0x20000d58
 8005930:	080031f1 	.word	0x080031f1
 8005934:	08004271 	.word	0x08004271
 8005938:	20001414 	.word	0x20001414
 800593c:	08007db0 	.word	0x08007db0
 8005940:	08007e80 	.word	0x08007e80
 8005944:	08007ec0 	.word	0x08007ec0
	...

08005950 <bmk2_execute>:
 8005950:	4b12      	ldr	r3, [pc, #72]	; (800599c <bmk2_execute+0x4c>)
 8005952:	21a8      	movs	r1, #168	; 0xa8
 8005954:	699b      	ldr	r3, [r3, #24]
 8005956:	b510      	push	{r4, lr}
 8005958:	689a      	ldr	r2, [r3, #8]
 800595a:	2300      	movs	r3, #0
 800595c:	b082      	sub	sp, #8
 800595e:	3201      	adds	r2, #1
 8005960:	0049      	lsls	r1, r1, #1
 8005962:	9300      	str	r3, [sp, #0]
 8005964:	480e      	ldr	r0, [pc, #56]	; (80059a0 <bmk2_execute+0x50>)
 8005966:	4b0f      	ldr	r3, [pc, #60]	; (80059a4 <bmk2_execute+0x54>)
 8005968:	f7ff f9b2 	bl	8004cd0 <chThdCreateStatic>
 800596c:	4b0e      	ldr	r3, [pc, #56]	; (80059a8 <bmk2_execute+0x58>)
 800596e:	6018      	str	r0, [r3, #0]
 8005970:	f7fe fff6 	bl	8004960 <msg_loop_test>
 8005974:	0004      	movs	r4, r0
 8005976:	f7fe fb43 	bl	8004000 <test_wait_threads>
 800597a:	480c      	ldr	r0, [pc, #48]	; (80059ac <bmk2_execute+0x5c>)
 800597c:	f7fa fe68 	bl	8000650 <test_print>
 8005980:	0020      	movs	r0, r4
 8005982:	f7fa fddd 	bl	8000540 <test_printn>
 8005986:	480a      	ldr	r0, [pc, #40]	; (80059b0 <bmk2_execute+0x60>)
 8005988:	f7fa fe62 	bl	8000650 <test_print>
 800598c:	0060      	lsls	r0, r4, #1
 800598e:	f7fa fdd7 	bl	8000540 <test_printn>
 8005992:	4808      	ldr	r0, [pc, #32]	; (80059b4 <bmk2_execute+0x64>)
 8005994:	f7fa fe3c 	bl	8000610 <test_println>
 8005998:	b002      	add	sp, #8
 800599a:	bd10      	pop	{r4, pc}
 800599c:	20000738 	.word	0x20000738
 80059a0:	20000d58 	.word	0x20000d58
 80059a4:	080031f1 	.word	0x080031f1
 80059a8:	20001414 	.word	0x20001414
 80059ac:	08007db0 	.word	0x08007db0
 80059b0:	08007e80 	.word	0x08007e80
 80059b4:	08007ec0 	.word	0x08007ec0
	...

080059c0 <bmk1_execute>:
 80059c0:	4b12      	ldr	r3, [pc, #72]	; (8005a0c <bmk1_execute+0x4c>)
 80059c2:	21a8      	movs	r1, #168	; 0xa8
 80059c4:	699b      	ldr	r3, [r3, #24]
 80059c6:	b510      	push	{r4, lr}
 80059c8:	689a      	ldr	r2, [r3, #8]
 80059ca:	2300      	movs	r3, #0
 80059cc:	b082      	sub	sp, #8
 80059ce:	3a01      	subs	r2, #1
 80059d0:	0049      	lsls	r1, r1, #1
 80059d2:	9300      	str	r3, [sp, #0]
 80059d4:	480e      	ldr	r0, [pc, #56]	; (8005a10 <bmk1_execute+0x50>)
 80059d6:	4b0f      	ldr	r3, [pc, #60]	; (8005a14 <bmk1_execute+0x54>)
 80059d8:	f7ff f97a 	bl	8004cd0 <chThdCreateStatic>
 80059dc:	4b0e      	ldr	r3, [pc, #56]	; (8005a18 <bmk1_execute+0x58>)
 80059de:	6018      	str	r0, [r3, #0]
 80059e0:	f7fe ffbe 	bl	8004960 <msg_loop_test>
 80059e4:	0004      	movs	r4, r0
 80059e6:	f7fe fb0b 	bl	8004000 <test_wait_threads>
 80059ea:	480c      	ldr	r0, [pc, #48]	; (8005a1c <bmk1_execute+0x5c>)
 80059ec:	f7fa fe30 	bl	8000650 <test_print>
 80059f0:	0020      	movs	r0, r4
 80059f2:	f7fa fda5 	bl	8000540 <test_printn>
 80059f6:	480a      	ldr	r0, [pc, #40]	; (8005a20 <bmk1_execute+0x60>)
 80059f8:	f7fa fe2a 	bl	8000650 <test_print>
 80059fc:	0060      	lsls	r0, r4, #1
 80059fe:	f7fa fd9f 	bl	8000540 <test_printn>
 8005a02:	4808      	ldr	r0, [pc, #32]	; (8005a24 <bmk1_execute+0x64>)
 8005a04:	f7fa fe04 	bl	8000610 <test_println>
 8005a08:	b002      	add	sp, #8
 8005a0a:	bd10      	pop	{r4, pc}
 8005a0c:	20000738 	.word	0x20000738
 8005a10:	20000d58 	.word	0x20000d58
 8005a14:	080031f1 	.word	0x080031f1
 8005a18:	20001414 	.word	0x20001414
 8005a1c:	08007db0 	.word	0x08007db0
 8005a20:	08007e80 	.word	0x08007e80
 8005a24:	08007ec0 	.word	0x08007ec0
	...

08005a30 <queues2_execute>:
 8005a30:	b5f0      	push	{r4, r5, r6, r7, lr}
 8005a32:	46c6      	mov	lr, r8
 8005a34:	b500      	push	{lr}
 8005a36:	b082      	sub	sp, #8
 8005a38:	b672      	cpsid	i
 8005a3a:	f7fb ffd9 	bl	80019f0 <_dbg_check_lock>
 8005a3e:	f7fa fe8f 	bl	8000760 <chDbgCheckClassI>
 8005a42:	4da3      	ldr	r5, [pc, #652]	; (8005cd0 <queues2_execute+0x2a0>)
 8005a44:	2100      	movs	r1, #0
 8005a46:	696b      	ldr	r3, [r5, #20]
 8005a48:	69aa      	ldr	r2, [r5, #24]
 8005a4a:	4293      	cmp	r3, r2
 8005a4c:	d100      	bne.n	8005a50 <queues2_execute+0x20>
 8005a4e:	e08f      	b.n	8005b70 <queues2_execute+0x140>
 8005a50:	2001      	movs	r0, #1
 8005a52:	f7fa fdc5 	bl	80005e0 <_test_assert>
 8005a56:	2800      	cmp	r0, #0
 8005a58:	d168      	bne.n	8005b2c <queues2_execute+0xfc>
 8005a5a:	f7fb ff19 	bl	8001890 <_dbg_check_unlock>
 8005a5e:	4c9d      	ldr	r4, [pc, #628]	; (8005cd4 <queues2_execute+0x2a4>)
 8005a60:	6823      	ldr	r3, [r4, #0]
 8005a62:	42a3      	cmp	r3, r4
 8005a64:	d005      	beq.n	8005a72 <queues2_execute+0x42>
 8005a66:	69a2      	ldr	r2, [r4, #24]
 8005a68:	689b      	ldr	r3, [r3, #8]
 8005a6a:	6892      	ldr	r2, [r2, #8]
 8005a6c:	429a      	cmp	r2, r3
 8005a6e:	d200      	bcs.n	8005a72 <queues2_execute+0x42>
 8005a70:	e07a      	b.n	8005b68 <queues2_execute+0x138>
 8005a72:	b662      	cpsie	i
 8005a74:	2641      	movs	r6, #65	; 0x41
 8005a76:	2201      	movs	r2, #1
 8005a78:	0031      	movs	r1, r6
 8005a7a:	3601      	adds	r6, #1
 8005a7c:	4252      	negs	r2, r2
 8005a7e:	0028      	movs	r0, r5
 8005a80:	b2f6      	uxtb	r6, r6
 8005a82:	f7fd fa05 	bl	8002e90 <chOQPutTimeout>
 8005a86:	2e45      	cmp	r6, #69	; 0x45
 8005a88:	d1f5      	bne.n	8005a76 <queues2_execute+0x46>
 8005a8a:	b672      	cpsid	i
 8005a8c:	f7fb ffb0 	bl	80019f0 <_dbg_check_lock>
 8005a90:	f7fa fe66 	bl	8000760 <chDbgCheckClassI>
 8005a94:	68a9      	ldr	r1, [r5, #8]
 8005a96:	2002      	movs	r0, #2
 8005a98:	424b      	negs	r3, r1
 8005a9a:	4159      	adcs	r1, r3
 8005a9c:	b2c9      	uxtb	r1, r1
 8005a9e:	f7fa fd9f 	bl	80005e0 <_test_assert>
 8005aa2:	2800      	cmp	r0, #0
 8005aa4:	d151      	bne.n	8005b4a <queues2_execute+0x11a>
 8005aa6:	f7fb fef3 	bl	8001890 <_dbg_check_unlock>
 8005aaa:	6823      	ldr	r3, [r4, #0]
 8005aac:	42a3      	cmp	r3, r4
 8005aae:	d004      	beq.n	8005aba <queues2_execute+0x8a>
 8005ab0:	69a2      	ldr	r2, [r4, #24]
 8005ab2:	689b      	ldr	r3, [r3, #8]
 8005ab4:	6892      	ldr	r2, [r2, #8]
 8005ab6:	429a      	cmp	r2, r3
 8005ab8:	d363      	bcc.n	8005b82 <queues2_execute+0x152>
 8005aba:	b662      	cpsie	i
 8005abc:	2604      	movs	r6, #4
 8005abe:	b672      	cpsid	i
 8005ac0:	f7fb ff96 	bl	80019f0 <_dbg_check_lock>
 8005ac4:	0028      	movs	r0, r5
 8005ac6:	f7fa ff03 	bl	80008d0 <chOQGetI>
 8005aca:	b2c7      	uxtb	r7, r0
 8005acc:	f7fb fee0 	bl	8001890 <_dbg_check_unlock>
 8005ad0:	6823      	ldr	r3, [r4, #0]
 8005ad2:	42a3      	cmp	r3, r4
 8005ad4:	d004      	beq.n	8005ae0 <queues2_execute+0xb0>
 8005ad6:	69a2      	ldr	r2, [r4, #24]
 8005ad8:	689b      	ldr	r3, [r3, #8]
 8005ada:	6892      	ldr	r2, [r2, #8]
 8005adc:	429a      	cmp	r2, r3
 8005ade:	d34c      	bcc.n	8005b7a <queues2_execute+0x14a>
 8005ae0:	b662      	cpsie	i
 8005ae2:	0038      	movs	r0, r7
 8005ae4:	3e01      	subs	r6, #1
 8005ae6:	f7fc fc8b 	bl	8002400 <test_emit_token>
 8005aea:	2e00      	cmp	r6, #0
 8005aec:	d1e7      	bne.n	8005abe <queues2_execute+0x8e>
 8005aee:	b672      	cpsid	i
 8005af0:	f7fb ff7e 	bl	80019f0 <_dbg_check_lock>
 8005af4:	f7fa fe34 	bl	8000760 <chDbgCheckClassI>
 8005af8:	696b      	ldr	r3, [r5, #20]
 8005afa:	69aa      	ldr	r2, [r5, #24]
 8005afc:	2100      	movs	r1, #0
 8005afe:	4293      	cmp	r3, r2
 8005b00:	d100      	bne.n	8005b04 <queues2_execute+0xd4>
 8005b02:	e179      	b.n	8005df8 <queues2_execute+0x3c8>
 8005b04:	2003      	movs	r0, #3
 8005b06:	f7fa fd6b 	bl	80005e0 <_test_assert>
 8005b0a:	2800      	cmp	r0, #0
 8005b0c:	d000      	beq.n	8005b10 <queues2_execute+0xe0>
 8005b0e:	e163      	b.n	8005dd8 <queues2_execute+0x3a8>
 8005b10:	f7fb febe 	bl	8001890 <_dbg_check_unlock>
 8005b14:	6823      	ldr	r3, [r4, #0]
 8005b16:	42a3      	cmp	r3, r4
 8005b18:	d03b      	beq.n	8005b92 <queues2_execute+0x162>
 8005b1a:	69a2      	ldr	r2, [r4, #24]
 8005b1c:	689b      	ldr	r3, [r3, #8]
 8005b1e:	6892      	ldr	r2, [r2, #8]
 8005b20:	429a      	cmp	r2, r3
 8005b22:	d236      	bcs.n	8005b92 <queues2_execute+0x162>
 8005b24:	b672      	cpsid	i
 8005b26:	4b6c      	ldr	r3, [pc, #432]	; (8005cd8 <queues2_execute+0x2a8>)
 8005b28:	62e3      	str	r3, [r4, #44]	; 0x2c
 8005b2a:	e7fe      	b.n	8005b2a <queues2_execute+0xfa>
 8005b2c:	f7fb feb0 	bl	8001890 <_dbg_check_unlock>
 8005b30:	4b68      	ldr	r3, [pc, #416]	; (8005cd4 <queues2_execute+0x2a4>)
 8005b32:	681a      	ldr	r2, [r3, #0]
 8005b34:	429a      	cmp	r2, r3
 8005b36:	d012      	beq.n	8005b5e <queues2_execute+0x12e>
 8005b38:	6999      	ldr	r1, [r3, #24]
 8005b3a:	6892      	ldr	r2, [r2, #8]
 8005b3c:	6889      	ldr	r1, [r1, #8]
 8005b3e:	4291      	cmp	r1, r2
 8005b40:	d20d      	bcs.n	8005b5e <queues2_execute+0x12e>
 8005b42:	b672      	cpsid	i
 8005b44:	4a64      	ldr	r2, [pc, #400]	; (8005cd8 <queues2_execute+0x2a8>)
 8005b46:	62da      	str	r2, [r3, #44]	; 0x2c
 8005b48:	e7fe      	b.n	8005b48 <queues2_execute+0x118>
 8005b4a:	f7fb fea1 	bl	8001890 <_dbg_check_unlock>
 8005b4e:	6823      	ldr	r3, [r4, #0]
 8005b50:	42a3      	cmp	r3, r4
 8005b52:	d004      	beq.n	8005b5e <queues2_execute+0x12e>
 8005b54:	69a2      	ldr	r2, [r4, #24]
 8005b56:	689b      	ldr	r3, [r3, #8]
 8005b58:	6892      	ldr	r2, [r2, #8]
 8005b5a:	429a      	cmp	r2, r3
 8005b5c:	d315      	bcc.n	8005b8a <queues2_execute+0x15a>
 8005b5e:	b662      	cpsie	i
 8005b60:	b002      	add	sp, #8
 8005b62:	bc04      	pop	{r2}
 8005b64:	4690      	mov	r8, r2
 8005b66:	bdf0      	pop	{r4, r5, r6, r7, pc}
 8005b68:	b672      	cpsid	i
 8005b6a:	4b5b      	ldr	r3, [pc, #364]	; (8005cd8 <queues2_execute+0x2a8>)
 8005b6c:	62e3      	str	r3, [r4, #44]	; 0x2c
 8005b6e:	e7fe      	b.n	8005b6e <queues2_execute+0x13e>
 8005b70:	68a9      	ldr	r1, [r5, #8]
 8005b72:	1e4b      	subs	r3, r1, #1
 8005b74:	4199      	sbcs	r1, r3
 8005b76:	b2c9      	uxtb	r1, r1
 8005b78:	e76a      	b.n	8005a50 <queues2_execute+0x20>
 8005b7a:	b672      	cpsid	i
 8005b7c:	4b56      	ldr	r3, [pc, #344]	; (8005cd8 <queues2_execute+0x2a8>)
 8005b7e:	62e3      	str	r3, [r4, #44]	; 0x2c
 8005b80:	e7fe      	b.n	8005b80 <queues2_execute+0x150>
 8005b82:	b672      	cpsid	i
 8005b84:	4b54      	ldr	r3, [pc, #336]	; (8005cd8 <queues2_execute+0x2a8>)
 8005b86:	62e3      	str	r3, [r4, #44]	; 0x2c
 8005b88:	e7fe      	b.n	8005b88 <queues2_execute+0x158>
 8005b8a:	b672      	cpsid	i
 8005b8c:	4b52      	ldr	r3, [pc, #328]	; (8005cd8 <queues2_execute+0x2a8>)
 8005b8e:	62e3      	str	r3, [r4, #44]	; 0x2c
 8005b90:	e7fe      	b.n	8005b90 <queues2_execute+0x160>
 8005b92:	b662      	cpsie	i
 8005b94:	4951      	ldr	r1, [pc, #324]	; (8005cdc <queues2_execute+0x2ac>)
 8005b96:	2004      	movs	r0, #4
 8005b98:	f7fa fcfa 	bl	8000590 <_test_assert_sequence>
 8005b9c:	2800      	cmp	r0, #0
 8005b9e:	d1df      	bne.n	8005b60 <queues2_execute+0x130>
 8005ba0:	b672      	cpsid	i
 8005ba2:	f7fb ff25 	bl	80019f0 <_dbg_check_lock>
 8005ba6:	0028      	movs	r0, r5
 8005ba8:	f7fa fe92 	bl	80008d0 <chOQGetI>
 8005bac:	1cc1      	adds	r1, r0, #3
 8005bae:	4248      	negs	r0, r1
 8005bb0:	4141      	adcs	r1, r0
 8005bb2:	2005      	movs	r0, #5
 8005bb4:	b2c9      	uxtb	r1, r1
 8005bb6:	f7fa fd13 	bl	80005e0 <_test_assert>
 8005bba:	2800      	cmp	r0, #0
 8005bbc:	d000      	beq.n	8005bc0 <queues2_execute+0x190>
 8005bbe:	e123      	b.n	8005e08 <queues2_execute+0x3d8>
 8005bc0:	f7fb fe66 	bl	8001890 <_dbg_check_unlock>
 8005bc4:	6823      	ldr	r3, [r4, #0]
 8005bc6:	42a3      	cmp	r3, r4
 8005bc8:	d005      	beq.n	8005bd6 <queues2_execute+0x1a6>
 8005bca:	69a2      	ldr	r2, [r4, #24]
 8005bcc:	689b      	ldr	r3, [r3, #8]
 8005bce:	6892      	ldr	r2, [r2, #8]
 8005bd0:	429a      	cmp	r2, r3
 8005bd2:	d200      	bcs.n	8005bd6 <queues2_execute+0x1a6>
 8005bd4:	e114      	b.n	8005e00 <queues2_execute+0x3d0>
 8005bd6:	b662      	cpsie	i
 8005bd8:	4e41      	ldr	r6, [pc, #260]	; (8005ce0 <queues2_execute+0x2b0>)
 8005bda:	2300      	movs	r3, #0
 8005bdc:	0031      	movs	r1, r6
 8005bde:	2208      	movs	r2, #8
 8005be0:	0028      	movs	r0, r5
 8005be2:	f7fd f8d5 	bl	8002d90 <chOQWriteTimeout>
 8005be6:	1f01      	subs	r1, r0, #4
 8005be8:	4248      	negs	r0, r1
 8005bea:	4141      	adcs	r1, r0
 8005bec:	2006      	movs	r0, #6
 8005bee:	b2c9      	uxtb	r1, r1
 8005bf0:	f7fa fcf6 	bl	80005e0 <_test_assert>
 8005bf4:	2800      	cmp	r0, #0
 8005bf6:	d1b3      	bne.n	8005b60 <queues2_execute+0x130>
 8005bf8:	b672      	cpsid	i
 8005bfa:	f7fb fef9 	bl	80019f0 <_dbg_check_lock>
 8005bfe:	f7fa fdaf 	bl	8000760 <chDbgCheckClassI>
 8005c02:	68a9      	ldr	r1, [r5, #8]
 8005c04:	2007      	movs	r0, #7
 8005c06:	424b      	negs	r3, r1
 8005c08:	4159      	adcs	r1, r3
 8005c0a:	b2c9      	uxtb	r1, r1
 8005c0c:	f7fa fce8 	bl	80005e0 <_test_assert>
 8005c10:	2800      	cmp	r0, #0
 8005c12:	d000      	beq.n	8005c16 <queues2_execute+0x1e6>
 8005c14:	e10c      	b.n	8005e30 <queues2_execute+0x400>
 8005c16:	f7fb fe3b 	bl	8001890 <_dbg_check_unlock>
 8005c1a:	6823      	ldr	r3, [r4, #0]
 8005c1c:	42a3      	cmp	r3, r4
 8005c1e:	d005      	beq.n	8005c2c <queues2_execute+0x1fc>
 8005c20:	69a2      	ldr	r2, [r4, #24]
 8005c22:	689b      	ldr	r3, [r3, #8]
 8005c24:	6892      	ldr	r2, [r2, #8]
 8005c26:	429a      	cmp	r2, r3
 8005c28:	d200      	bcs.n	8005c2c <queues2_execute+0x1fc>
 8005c2a:	e0fd      	b.n	8005e28 <queues2_execute+0x3f8>
 8005c2c:	b662      	cpsie	i
 8005c2e:	69a3      	ldr	r3, [r4, #24]
 8005c30:	21a8      	movs	r1, #168	; 0xa8
 8005c32:	689a      	ldr	r2, [r3, #8]
 8005c34:	2300      	movs	r3, #0
 8005c36:	3201      	adds	r2, #1
 8005c38:	9300      	str	r3, [sp, #0]
 8005c3a:	0049      	lsls	r1, r1, #1
 8005c3c:	4b29      	ldr	r3, [pc, #164]	; (8005ce4 <queues2_execute+0x2b4>)
 8005c3e:	482a      	ldr	r0, [pc, #168]	; (8005ce8 <queues2_execute+0x2b8>)
 8005c40:	f7ff f846 	bl	8004cd0 <chThdCreateStatic>
 8005c44:	4b29      	ldr	r3, [pc, #164]	; (8005cec <queues2_execute+0x2bc>)
 8005c46:	6018      	str	r0, [r3, #0]
 8005c48:	b672      	cpsid	i
 8005c4a:	f7fb fed1 	bl	80019f0 <_dbg_check_lock>
 8005c4e:	f7fa fd87 	bl	8000760 <chDbgCheckClassI>
 8005c52:	692b      	ldr	r3, [r5, #16]
 8005c54:	68ea      	ldr	r2, [r5, #12]
 8005c56:	2008      	movs	r0, #8
 8005c58:	1a99      	subs	r1, r3, r2
 8005c5a:	68ab      	ldr	r3, [r5, #8]
 8005c5c:	1ac9      	subs	r1, r1, r3
 8005c5e:	3904      	subs	r1, #4
 8005c60:	424b      	negs	r3, r1
 8005c62:	4159      	adcs	r1, r3
 8005c64:	b2c9      	uxtb	r1, r1
 8005c66:	f7fa fcbb 	bl	80005e0 <_test_assert>
 8005c6a:	2800      	cmp	r0, #0
 8005c6c:	d000      	beq.n	8005c70 <queues2_execute+0x240>
 8005c6e:	e09c      	b.n	8005daa <queues2_execute+0x37a>
 8005c70:	f7fb fe0e 	bl	8001890 <_dbg_check_unlock>
 8005c74:	6823      	ldr	r3, [r4, #0]
 8005c76:	42a3      	cmp	r3, r4
 8005c78:	d005      	beq.n	8005c86 <queues2_execute+0x256>
 8005c7a:	69a2      	ldr	r2, [r4, #24]
 8005c7c:	689b      	ldr	r3, [r3, #8]
 8005c7e:	6892      	ldr	r2, [r2, #8]
 8005c80:	429a      	cmp	r2, r3
 8005c82:	d200      	bcs.n	8005c86 <queues2_execute+0x256>
 8005c84:	e0e4      	b.n	8005e50 <queues2_execute+0x420>
 8005c86:	b662      	cpsie	i
 8005c88:	f7fe f9ba 	bl	8004000 <test_wait_threads>
 8005c8c:	b672      	cpsid	i
 8005c8e:	f7fb feaf 	bl	80019f0 <_dbg_check_lock>
 8005c92:	f7fa fd65 	bl	8000760 <chDbgCheckClassI>
 8005c96:	68eb      	ldr	r3, [r5, #12]
 8005c98:	692a      	ldr	r2, [r5, #16]
 8005c9a:	61ab      	str	r3, [r5, #24]
 8005c9c:	616b      	str	r3, [r5, #20]
 8005c9e:	1ad3      	subs	r3, r2, r3
 8005ca0:	60ab      	str	r3, [r5, #8]
 8005ca2:	2320      	movs	r3, #32
 8005ca4:	2702      	movs	r7, #2
 8005ca6:	4698      	mov	r8, r3
 8005ca8:	427f      	negs	r7, r7
 8005caa:	6828      	ldr	r0, [r5, #0]
 8005cac:	42a8      	cmp	r0, r5
 8005cae:	d021      	beq.n	8005cf4 <queues2_execute+0x2c4>
 8005cb0:	6803      	ldr	r3, [r0, #0]
 8005cb2:	602b      	str	r3, [r5, #0]
 8005cb4:	605d      	str	r5, [r3, #4]
 8005cb6:	4643      	mov	r3, r8
 8005cb8:	5cc3      	ldrb	r3, [r0, r3]
 8005cba:	2b04      	cmp	r3, #4
 8005cbc:	d003      	beq.n	8005cc6 <queues2_execute+0x296>
 8005cbe:	b672      	cpsid	i
 8005cc0:	4b0b      	ldr	r3, [pc, #44]	; (8005cf0 <queues2_execute+0x2c0>)
 8005cc2:	62e3      	str	r3, [r4, #44]	; 0x2c
 8005cc4:	e7fe      	b.n	8005cc4 <queues2_execute+0x294>
 8005cc6:	6247      	str	r7, [r0, #36]	; 0x24
 8005cc8:	f7fa fd9a 	bl	8000800 <chSchReadyI>
 8005ccc:	e7ed      	b.n	8005caa <queues2_execute+0x27a>
 8005cce:	46c0      	nop			; (mov r8, r8)
 8005cd0:	20000688 	.word	0x20000688
 8005cd4:	20000738 	.word	0x20000738
 8005cd8:	08007930 	.word	0x08007930
 8005cdc:	08007f50 	.word	0x08007f50
 8005ce0:	20000ea8 	.word	0x20000ea8
 8005ce4:	08002f31 	.word	0x08002f31
 8005ce8:	20000d58 	.word	0x20000d58
 8005cec:	20001414 	.word	0x20001414
 8005cf0:	08007a40 	.word	0x08007a40
 8005cf4:	f7fb fdcc 	bl	8001890 <_dbg_check_unlock>
 8005cf8:	6823      	ldr	r3, [r4, #0]
 8005cfa:	42a3      	cmp	r3, r4
 8005cfc:	d004      	beq.n	8005d08 <queues2_execute+0x2d8>
 8005cfe:	69a2      	ldr	r2, [r4, #24]
 8005d00:	689b      	ldr	r3, [r3, #8]
 8005d02:	6892      	ldr	r2, [r2, #8]
 8005d04:	429a      	cmp	r2, r3
 8005d06:	d360      	bcc.n	8005dca <queues2_execute+0x39a>
 8005d08:	b662      	cpsie	i
 8005d0a:	b672      	cpsid	i
 8005d0c:	f7fb fe70 	bl	80019f0 <_dbg_check_lock>
 8005d10:	f7fa fd26 	bl	8000760 <chDbgCheckClassI>
 8005d14:	692b      	ldr	r3, [r5, #16]
 8005d16:	68ea      	ldr	r2, [r5, #12]
 8005d18:	2009      	movs	r0, #9
 8005d1a:	1a99      	subs	r1, r3, r2
 8005d1c:	68ab      	ldr	r3, [r5, #8]
 8005d1e:	1ac9      	subs	r1, r1, r3
 8005d20:	424b      	negs	r3, r1
 8005d22:	4159      	adcs	r1, r3
 8005d24:	b2c9      	uxtb	r1, r1
 8005d26:	f7fa fc5b 	bl	80005e0 <_test_assert>
 8005d2a:	1e04      	subs	r4, r0, #0
 8005d2c:	d151      	bne.n	8005dd2 <queues2_execute+0x3a2>
 8005d2e:	f7fb fdf7 	bl	8001920 <chSysUnlock.lto_priv.85>
 8005d32:	0023      	movs	r3, r4
 8005d34:	2202      	movs	r2, #2
 8005d36:	0031      	movs	r1, r6
 8005d38:	0028      	movs	r0, r5
 8005d3a:	f7fd f829 	bl	8002d90 <chOQWriteTimeout>
 8005d3e:	1e81      	subs	r1, r0, #2
 8005d40:	4248      	negs	r0, r1
 8005d42:	4141      	adcs	r1, r0
 8005d44:	200a      	movs	r0, #10
 8005d46:	b2c9      	uxtb	r1, r1
 8005d48:	f7fa fc4a 	bl	80005e0 <_test_assert>
 8005d4c:	1e03      	subs	r3, r0, #0
 8005d4e:	d000      	beq.n	8005d52 <queues2_execute+0x322>
 8005d50:	e706      	b.n	8005b60 <queues2_execute+0x130>
 8005d52:	0031      	movs	r1, r6
 8005d54:	2202      	movs	r2, #2
 8005d56:	0028      	movs	r0, r5
 8005d58:	f7fd f81a 	bl	8002d90 <chOQWriteTimeout>
 8005d5c:	1e81      	subs	r1, r0, #2
 8005d5e:	4248      	negs	r0, r1
 8005d60:	4141      	adcs	r1, r0
 8005d62:	200b      	movs	r0, #11
 8005d64:	b2c9      	uxtb	r1, r1
 8005d66:	f7fa fc3b 	bl	80005e0 <_test_assert>
 8005d6a:	2800      	cmp	r0, #0
 8005d6c:	d000      	beq.n	8005d70 <queues2_execute+0x340>
 8005d6e:	e6f7      	b.n	8005b60 <queues2_execute+0x130>
 8005d70:	b672      	cpsid	i
 8005d72:	f7fb fe3d 	bl	80019f0 <_dbg_check_lock>
 8005d76:	f7fa fcf3 	bl	8000760 <chDbgCheckClassI>
 8005d7a:	68a9      	ldr	r1, [r5, #8]
 8005d7c:	200c      	movs	r0, #12
 8005d7e:	424b      	negs	r3, r1
 8005d80:	4159      	adcs	r1, r3
 8005d82:	b2c9      	uxtb	r1, r1
 8005d84:	f7fa fc2c 	bl	80005e0 <_test_assert>
 8005d88:	1e04      	subs	r4, r0, #0
 8005d8a:	d122      	bne.n	8005dd2 <queues2_execute+0x3a2>
 8005d8c:	f7fb fdc8 	bl	8001920 <chSysUnlock.lto_priv.85>
 8005d90:	0021      	movs	r1, r4
 8005d92:	220a      	movs	r2, #10
 8005d94:	0028      	movs	r0, r5
 8005d96:	f7fd f87b 	bl	8002e90 <chOQPutTimeout>
 8005d9a:	1c41      	adds	r1, r0, #1
 8005d9c:	4248      	negs	r0, r1
 8005d9e:	4141      	adcs	r1, r0
 8005da0:	200d      	movs	r0, #13
 8005da2:	b2c9      	uxtb	r1, r1
 8005da4:	f7fa fc1c 	bl	80005e0 <_test_assert>
 8005da8:	e6da      	b.n	8005b60 <queues2_execute+0x130>
 8005daa:	f7fb fd71 	bl	8001890 <_dbg_check_unlock>
 8005dae:	6823      	ldr	r3, [r4, #0]
 8005db0:	42a3      	cmp	r3, r4
 8005db2:	d100      	bne.n	8005db6 <queues2_execute+0x386>
 8005db4:	e6d3      	b.n	8005b5e <queues2_execute+0x12e>
 8005db6:	69a2      	ldr	r2, [r4, #24]
 8005db8:	689b      	ldr	r3, [r3, #8]
 8005dba:	6892      	ldr	r2, [r2, #8]
 8005dbc:	429a      	cmp	r2, r3
 8005dbe:	d300      	bcc.n	8005dc2 <queues2_execute+0x392>
 8005dc0:	e6cd      	b.n	8005b5e <queues2_execute+0x12e>
 8005dc2:	b672      	cpsid	i
 8005dc4:	4b24      	ldr	r3, [pc, #144]	; (8005e58 <queues2_execute+0x428>)
 8005dc6:	62e3      	str	r3, [r4, #44]	; 0x2c
 8005dc8:	e7fe      	b.n	8005dc8 <queues2_execute+0x398>
 8005dca:	b672      	cpsid	i
 8005dcc:	4b22      	ldr	r3, [pc, #136]	; (8005e58 <queues2_execute+0x428>)
 8005dce:	62e3      	str	r3, [r4, #44]	; 0x2c
 8005dd0:	e7fe      	b.n	8005dd0 <queues2_execute+0x3a0>
 8005dd2:	f7fb fda5 	bl	8001920 <chSysUnlock.lto_priv.85>
 8005dd6:	e6c3      	b.n	8005b60 <queues2_execute+0x130>
 8005dd8:	f7fb fd5a 	bl	8001890 <_dbg_check_unlock>
 8005ddc:	6823      	ldr	r3, [r4, #0]
 8005dde:	42a3      	cmp	r3, r4
 8005de0:	d100      	bne.n	8005de4 <queues2_execute+0x3b4>
 8005de2:	e6bc      	b.n	8005b5e <queues2_execute+0x12e>
 8005de4:	69a2      	ldr	r2, [r4, #24]
 8005de6:	689b      	ldr	r3, [r3, #8]
 8005de8:	6892      	ldr	r2, [r2, #8]
 8005dea:	429a      	cmp	r2, r3
 8005dec:	d300      	bcc.n	8005df0 <queues2_execute+0x3c0>
 8005dee:	e6b6      	b.n	8005b5e <queues2_execute+0x12e>
 8005df0:	b672      	cpsid	i
 8005df2:	4b19      	ldr	r3, [pc, #100]	; (8005e58 <queues2_execute+0x428>)
 8005df4:	62e3      	str	r3, [r4, #44]	; 0x2c
 8005df6:	e7fe      	b.n	8005df6 <queues2_execute+0x3c6>
 8005df8:	68a9      	ldr	r1, [r5, #8]
 8005dfa:	1e4b      	subs	r3, r1, #1
 8005dfc:	4199      	sbcs	r1, r3
 8005dfe:	e681      	b.n	8005b04 <queues2_execute+0xd4>
 8005e00:	b672      	cpsid	i
 8005e02:	4b15      	ldr	r3, [pc, #84]	; (8005e58 <queues2_execute+0x428>)
 8005e04:	62e3      	str	r3, [r4, #44]	; 0x2c
 8005e06:	e7fe      	b.n	8005e06 <queues2_execute+0x3d6>
 8005e08:	f7fb fd42 	bl	8001890 <_dbg_check_unlock>
 8005e0c:	6823      	ldr	r3, [r4, #0]
 8005e0e:	42a3      	cmp	r3, r4
 8005e10:	d100      	bne.n	8005e14 <queues2_execute+0x3e4>
 8005e12:	e6a4      	b.n	8005b5e <queues2_execute+0x12e>
 8005e14:	69a2      	ldr	r2, [r4, #24]
 8005e16:	689b      	ldr	r3, [r3, #8]
 8005e18:	6892      	ldr	r2, [r2, #8]
 8005e1a:	429a      	cmp	r2, r3
 8005e1c:	d300      	bcc.n	8005e20 <queues2_execute+0x3f0>
 8005e1e:	e69e      	b.n	8005b5e <queues2_execute+0x12e>
 8005e20:	b672      	cpsid	i
 8005e22:	4b0d      	ldr	r3, [pc, #52]	; (8005e58 <queues2_execute+0x428>)
 8005e24:	62e3      	str	r3, [r4, #44]	; 0x2c
 8005e26:	e7fe      	b.n	8005e26 <queues2_execute+0x3f6>
 8005e28:	b672      	cpsid	i
 8005e2a:	4b0b      	ldr	r3, [pc, #44]	; (8005e58 <queues2_execute+0x428>)
 8005e2c:	62e3      	str	r3, [r4, #44]	; 0x2c
 8005e2e:	e7fe      	b.n	8005e2e <queues2_execute+0x3fe>
 8005e30:	f7fb fd2e 	bl	8001890 <_dbg_check_unlock>
 8005e34:	6823      	ldr	r3, [r4, #0]
 8005e36:	42a3      	cmp	r3, r4
 8005e38:	d100      	bne.n	8005e3c <queues2_execute+0x40c>
 8005e3a:	e690      	b.n	8005b5e <queues2_execute+0x12e>
 8005e3c:	69a2      	ldr	r2, [r4, #24]
 8005e3e:	689b      	ldr	r3, [r3, #8]
 8005e40:	6892      	ldr	r2, [r2, #8]
 8005e42:	429a      	cmp	r2, r3
 8005e44:	d300      	bcc.n	8005e48 <queues2_execute+0x418>
 8005e46:	e68a      	b.n	8005b5e <queues2_execute+0x12e>
 8005e48:	b672      	cpsid	i
 8005e4a:	4b03      	ldr	r3, [pc, #12]	; (8005e58 <queues2_execute+0x428>)
 8005e4c:	62e3      	str	r3, [r4, #44]	; 0x2c
 8005e4e:	e7fe      	b.n	8005e4e <queues2_execute+0x41e>
 8005e50:	b672      	cpsid	i
 8005e52:	4b01      	ldr	r3, [pc, #4]	; (8005e58 <queues2_execute+0x428>)
 8005e54:	62e3      	str	r3, [r4, #44]	; 0x2c
 8005e56:	e7fe      	b.n	8005e56 <queues2_execute+0x426>
 8005e58:	08007930 	.word	0x08007930
 8005e5c:	00000000 	.word	0x00000000

08005e60 <queues1_execute>:
 8005e60:	b5f0      	push	{r4, r5, r6, r7, lr}
 8005e62:	b083      	sub	sp, #12
 8005e64:	b672      	cpsid	i
 8005e66:	f7fb fdc3 	bl	80019f0 <_dbg_check_lock>
 8005e6a:	f7fa fc79 	bl	8000760 <chDbgCheckClassI>
 8005e6e:	4dc1      	ldr	r5, [pc, #772]	; (8006174 <queues1_execute+0x314>)
 8005e70:	2001      	movs	r0, #1
 8005e72:	68a9      	ldr	r1, [r5, #8]
 8005e74:	424b      	negs	r3, r1
 8005e76:	4159      	adcs	r1, r3
 8005e78:	b2c9      	uxtb	r1, r1
 8005e7a:	f7fa fbb1 	bl	80005e0 <_test_assert>
 8005e7e:	1e06      	subs	r6, r0, #0
 8005e80:	d167      	bne.n	8005f52 <queues1_execute+0xf2>
 8005e82:	f7fb fd05 	bl	8001890 <_dbg_check_unlock>
 8005e86:	4cbc      	ldr	r4, [pc, #752]	; (8006178 <queues1_execute+0x318>)
 8005e88:	6823      	ldr	r3, [r4, #0]
 8005e8a:	42a3      	cmp	r3, r4
 8005e8c:	d005      	beq.n	8005e9a <queues1_execute+0x3a>
 8005e8e:	69a2      	ldr	r2, [r4, #24]
 8005e90:	689b      	ldr	r3, [r3, #8]
 8005e92:	6892      	ldr	r2, [r2, #8]
 8005e94:	429a      	cmp	r2, r3
 8005e96:	d200      	bcs.n	8005e9a <queues1_execute+0x3a>
 8005e98:	e077      	b.n	8005f8a <queues1_execute+0x12a>
 8005e9a:	b662      	cpsie	i
 8005e9c:	b672      	cpsid	i
 8005e9e:	f7fb fda7 	bl	80019f0 <_dbg_check_lock>
 8005ea2:	2141      	movs	r1, #65	; 0x41
 8005ea4:	0028      	movs	r0, r5
 8005ea6:	f7fa fcdb 	bl	8000860 <chIQPutI>
 8005eaa:	2142      	movs	r1, #66	; 0x42
 8005eac:	0028      	movs	r0, r5
 8005eae:	f7fa fcd7 	bl	8000860 <chIQPutI>
 8005eb2:	2143      	movs	r1, #67	; 0x43
 8005eb4:	0028      	movs	r0, r5
 8005eb6:	f7fa fcd3 	bl	8000860 <chIQPutI>
 8005eba:	2144      	movs	r1, #68	; 0x44
 8005ebc:	0028      	movs	r0, r5
 8005ebe:	f7fa fccf 	bl	8000860 <chIQPutI>
 8005ec2:	f7fb fce5 	bl	8001890 <_dbg_check_unlock>
 8005ec6:	6823      	ldr	r3, [r4, #0]
 8005ec8:	42a3      	cmp	r3, r4
 8005eca:	d004      	beq.n	8005ed6 <queues1_execute+0x76>
 8005ecc:	69a2      	ldr	r2, [r4, #24]
 8005ece:	689b      	ldr	r3, [r3, #8]
 8005ed0:	6892      	ldr	r2, [r2, #8]
 8005ed2:	429a      	cmp	r2, r3
 8005ed4:	d35d      	bcc.n	8005f92 <queues1_execute+0x132>
 8005ed6:	b662      	cpsie	i
 8005ed8:	b672      	cpsid	i
 8005eda:	f7fb fd89 	bl	80019f0 <_dbg_check_lock>
 8005ede:	f7fa fc3f 	bl	8000760 <chDbgCheckClassI>
 8005ee2:	696b      	ldr	r3, [r5, #20]
 8005ee4:	69aa      	ldr	r2, [r5, #24]
 8005ee6:	4293      	cmp	r3, r2
 8005ee8:	d103      	bne.n	8005ef2 <queues1_execute+0x92>
 8005eea:	68ae      	ldr	r6, [r5, #8]
 8005eec:	1e73      	subs	r3, r6, #1
 8005eee:	419e      	sbcs	r6, r3
 8005ef0:	b2f6      	uxtb	r6, r6
 8005ef2:	0031      	movs	r1, r6
 8005ef4:	2002      	movs	r0, #2
 8005ef6:	f7fa fb73 	bl	80005e0 <_test_assert>
 8005efa:	2800      	cmp	r0, #0
 8005efc:	d138      	bne.n	8005f70 <queues1_execute+0x110>
 8005efe:	f7fb fcc7 	bl	8001890 <_dbg_check_unlock>
 8005f02:	6823      	ldr	r3, [r4, #0]
 8005f04:	42a3      	cmp	r3, r4
 8005f06:	d004      	beq.n	8005f12 <queues1_execute+0xb2>
 8005f08:	69a2      	ldr	r2, [r4, #24]
 8005f0a:	689b      	ldr	r3, [r3, #8]
 8005f0c:	6892      	ldr	r2, [r2, #8]
 8005f0e:	429a      	cmp	r2, r3
 8005f10:	d343      	bcc.n	8005f9a <queues1_execute+0x13a>
 8005f12:	b662      	cpsie	i
 8005f14:	b672      	cpsid	i
 8005f16:	f7fb fd6b 	bl	80019f0 <_dbg_check_lock>
 8005f1a:	2100      	movs	r1, #0
 8005f1c:	0028      	movs	r0, r5
 8005f1e:	f7fa fc9f 	bl	8000860 <chIQPutI>
 8005f22:	1d01      	adds	r1, r0, #4
 8005f24:	4248      	negs	r0, r1
 8005f26:	4141      	adcs	r1, r0
 8005f28:	2003      	movs	r0, #3
 8005f2a:	b2c9      	uxtb	r1, r1
 8005f2c:	f7fa fb58 	bl	80005e0 <_test_assert>
 8005f30:	2800      	cmp	r0, #0
 8005f32:	d000      	beq.n	8005f36 <queues1_execute+0xd6>
 8005f34:	e12a      	b.n	800618c <queues1_execute+0x32c>
 8005f36:	f7fb fcab 	bl	8001890 <_dbg_check_unlock>
 8005f3a:	6823      	ldr	r3, [r4, #0]
 8005f3c:	42a3      	cmp	r3, r4
 8005f3e:	d034      	beq.n	8005faa <queues1_execute+0x14a>
 8005f40:	69a2      	ldr	r2, [r4, #24]
 8005f42:	689b      	ldr	r3, [r3, #8]
 8005f44:	6892      	ldr	r2, [r2, #8]
 8005f46:	429a      	cmp	r2, r3
 8005f48:	d22f      	bcs.n	8005faa <queues1_execute+0x14a>
 8005f4a:	b672      	cpsid	i
 8005f4c:	4b8b      	ldr	r3, [pc, #556]	; (800617c <queues1_execute+0x31c>)
 8005f4e:	62e3      	str	r3, [r4, #44]	; 0x2c
 8005f50:	e7fe      	b.n	8005f50 <queues1_execute+0xf0>
 8005f52:	f7fb fc9d 	bl	8001890 <_dbg_check_unlock>
 8005f56:	4b88      	ldr	r3, [pc, #544]	; (8006178 <queues1_execute+0x318>)
 8005f58:	681a      	ldr	r2, [r3, #0]
 8005f5a:	429a      	cmp	r2, r3
 8005f5c:	d012      	beq.n	8005f84 <queues1_execute+0x124>
 8005f5e:	6999      	ldr	r1, [r3, #24]
 8005f60:	6892      	ldr	r2, [r2, #8]
 8005f62:	6889      	ldr	r1, [r1, #8]
 8005f64:	4291      	cmp	r1, r2
 8005f66:	d20d      	bcs.n	8005f84 <queues1_execute+0x124>
 8005f68:	b672      	cpsid	i
 8005f6a:	4a84      	ldr	r2, [pc, #528]	; (800617c <queues1_execute+0x31c>)
 8005f6c:	62da      	str	r2, [r3, #44]	; 0x2c
 8005f6e:	e7fe      	b.n	8005f6e <queues1_execute+0x10e>
 8005f70:	f7fb fc8e 	bl	8001890 <_dbg_check_unlock>
 8005f74:	6823      	ldr	r3, [r4, #0]
 8005f76:	42a3      	cmp	r3, r4
 8005f78:	d004      	beq.n	8005f84 <queues1_execute+0x124>
 8005f7a:	69a2      	ldr	r2, [r4, #24]
 8005f7c:	689b      	ldr	r3, [r3, #8]
 8005f7e:	6892      	ldr	r2, [r2, #8]
 8005f80:	429a      	cmp	r2, r3
 8005f82:	d30e      	bcc.n	8005fa2 <queues1_execute+0x142>
 8005f84:	b662      	cpsie	i
 8005f86:	b003      	add	sp, #12
 8005f88:	bdf0      	pop	{r4, r5, r6, r7, pc}
 8005f8a:	b672      	cpsid	i
 8005f8c:	4b7b      	ldr	r3, [pc, #492]	; (800617c <queues1_execute+0x31c>)
 8005f8e:	62e3      	str	r3, [r4, #44]	; 0x2c
 8005f90:	e7fe      	b.n	8005f90 <queues1_execute+0x130>
 8005f92:	b672      	cpsid	i
 8005f94:	4b79      	ldr	r3, [pc, #484]	; (800617c <queues1_execute+0x31c>)
 8005f96:	62e3      	str	r3, [r4, #44]	; 0x2c
 8005f98:	e7fe      	b.n	8005f98 <queues1_execute+0x138>
 8005f9a:	b672      	cpsid	i
 8005f9c:	4b77      	ldr	r3, [pc, #476]	; (800617c <queues1_execute+0x31c>)
 8005f9e:	62e3      	str	r3, [r4, #44]	; 0x2c
 8005fa0:	e7fe      	b.n	8005fa0 <queues1_execute+0x140>
 8005fa2:	b672      	cpsid	i
 8005fa4:	4b75      	ldr	r3, [pc, #468]	; (800617c <queues1_execute+0x31c>)
 8005fa6:	62e3      	str	r3, [r4, #44]	; 0x2c
 8005fa8:	e7fe      	b.n	8005fa8 <queues1_execute+0x148>
 8005faa:	b662      	cpsie	i
 8005fac:	2604      	movs	r6, #4
 8005fae:	2101      	movs	r1, #1
 8005fb0:	0028      	movs	r0, r5
 8005fb2:	4249      	negs	r1, r1
 8005fb4:	f7fd f854 	bl	8003060 <chIQGetTimeout>
 8005fb8:	3e01      	subs	r6, #1
 8005fba:	b2c0      	uxtb	r0, r0
 8005fbc:	f7fc fa20 	bl	8002400 <test_emit_token>
 8005fc0:	2e00      	cmp	r6, #0
 8005fc2:	d1f4      	bne.n	8005fae <queues1_execute+0x14e>
 8005fc4:	b672      	cpsid	i
 8005fc6:	f7fb fd13 	bl	80019f0 <_dbg_check_lock>
 8005fca:	f7fa fbc9 	bl	8000760 <chDbgCheckClassI>
 8005fce:	68a9      	ldr	r1, [r5, #8]
 8005fd0:	2004      	movs	r0, #4
 8005fd2:	424b      	negs	r3, r1
 8005fd4:	4159      	adcs	r1, r3
 8005fd6:	b2c9      	uxtb	r1, r1
 8005fd8:	f7fa fb02 	bl	80005e0 <_test_assert>
 8005fdc:	2800      	cmp	r0, #0
 8005fde:	d000      	beq.n	8005fe2 <queues1_execute+0x182>
 8005fe0:	e13b      	b.n	800625a <queues1_execute+0x3fa>
 8005fe2:	f7fb fc55 	bl	8001890 <_dbg_check_unlock>
 8005fe6:	6823      	ldr	r3, [r4, #0]
 8005fe8:	42a3      	cmp	r3, r4
 8005fea:	d005      	beq.n	8005ff8 <queues1_execute+0x198>
 8005fec:	69a2      	ldr	r2, [r4, #24]
 8005fee:	689b      	ldr	r3, [r3, #8]
 8005ff0:	6892      	ldr	r2, [r2, #8]
 8005ff2:	429a      	cmp	r2, r3
 8005ff4:	d200      	bcs.n	8005ff8 <queues1_execute+0x198>
 8005ff6:	e140      	b.n	800627a <queues1_execute+0x41a>
 8005ff8:	b662      	cpsie	i
 8005ffa:	4961      	ldr	r1, [pc, #388]	; (8006180 <queues1_execute+0x320>)
 8005ffc:	2005      	movs	r0, #5
 8005ffe:	f7fa fac7 	bl	8000590 <_test_assert_sequence>
 8006002:	2800      	cmp	r0, #0
 8006004:	d1bf      	bne.n	8005f86 <queues1_execute+0x126>
 8006006:	b672      	cpsid	i
 8006008:	f7fb fcf2 	bl	80019f0 <_dbg_check_lock>
 800600c:	2141      	movs	r1, #65	; 0x41
 800600e:	0028      	movs	r0, r5
 8006010:	f7fa fc26 	bl	8000860 <chIQPutI>
 8006014:	2142      	movs	r1, #66	; 0x42
 8006016:	0028      	movs	r0, r5
 8006018:	f7fa fc22 	bl	8000860 <chIQPutI>
 800601c:	2143      	movs	r1, #67	; 0x43
 800601e:	0028      	movs	r0, r5
 8006020:	f7fa fc1e 	bl	8000860 <chIQPutI>
 8006024:	2144      	movs	r1, #68	; 0x44
 8006026:	0028      	movs	r0, r5
 8006028:	f7fa fc1a 	bl	8000860 <chIQPutI>
 800602c:	f7fb fc30 	bl	8001890 <_dbg_check_unlock>
 8006030:	6823      	ldr	r3, [r4, #0]
 8006032:	42a3      	cmp	r3, r4
 8006034:	d005      	beq.n	8006042 <queues1_execute+0x1e2>
 8006036:	69a2      	ldr	r2, [r4, #24]
 8006038:	689b      	ldr	r3, [r3, #8]
 800603a:	6892      	ldr	r2, [r2, #8]
 800603c:	429a      	cmp	r2, r3
 800603e:	d200      	bcs.n	8006042 <queues1_execute+0x1e2>
 8006040:	e11f      	b.n	8006282 <queues1_execute+0x422>
 8006042:	b662      	cpsie	i
 8006044:	4e4f      	ldr	r6, [pc, #316]	; (8006184 <queues1_execute+0x324>)
 8006046:	2300      	movs	r3, #0
 8006048:	0031      	movs	r1, r6
 800604a:	2208      	movs	r2, #8
 800604c:	0028      	movs	r0, r5
 800604e:	f7fc ff8f 	bl	8002f70 <chIQReadTimeout>
 8006052:	1f01      	subs	r1, r0, #4
 8006054:	4248      	negs	r0, r1
 8006056:	4141      	adcs	r1, r0
 8006058:	2006      	movs	r0, #6
 800605a:	b2c9      	uxtb	r1, r1
 800605c:	f7fa fac0 	bl	80005e0 <_test_assert>
 8006060:	2800      	cmp	r0, #0
 8006062:	d000      	beq.n	8006066 <queues1_execute+0x206>
 8006064:	e78f      	b.n	8005f86 <queues1_execute+0x126>
 8006066:	b672      	cpsid	i
 8006068:	f7fb fcc2 	bl	80019f0 <_dbg_check_lock>
 800606c:	f7fa fb78 	bl	8000760 <chDbgCheckClassI>
 8006070:	68a9      	ldr	r1, [r5, #8]
 8006072:	2007      	movs	r0, #7
 8006074:	424b      	negs	r3, r1
 8006076:	4159      	adcs	r1, r3
 8006078:	b2c9      	uxtb	r1, r1
 800607a:	f7fa fab1 	bl	80005e0 <_test_assert>
 800607e:	2800      	cmp	r0, #0
 8006080:	d000      	beq.n	8006084 <queues1_execute+0x224>
 8006082:	e0d6      	b.n	8006232 <queues1_execute+0x3d2>
 8006084:	f7fb fc04 	bl	8001890 <_dbg_check_unlock>
 8006088:	6823      	ldr	r3, [r4, #0]
 800608a:	42a3      	cmp	r3, r4
 800608c:	d005      	beq.n	800609a <queues1_execute+0x23a>
 800608e:	69a2      	ldr	r2, [r4, #24]
 8006090:	689b      	ldr	r3, [r3, #8]
 8006092:	6892      	ldr	r2, [r2, #8]
 8006094:	429a      	cmp	r2, r3
 8006096:	d200      	bcs.n	800609a <queues1_execute+0x23a>
 8006098:	e0f7      	b.n	800628a <queues1_execute+0x42a>
 800609a:	b662      	cpsie	i
 800609c:	b672      	cpsid	i
 800609e:	f7fb fca7 	bl	80019f0 <_dbg_check_lock>
 80060a2:	2141      	movs	r1, #65	; 0x41
 80060a4:	0028      	movs	r0, r5
 80060a6:	f7fa fbdb 	bl	8000860 <chIQPutI>
 80060aa:	2142      	movs	r1, #66	; 0x42
 80060ac:	0028      	movs	r0, r5
 80060ae:	f7fa fbd7 	bl	8000860 <chIQPutI>
 80060b2:	2143      	movs	r1, #67	; 0x43
 80060b4:	0028      	movs	r0, r5
 80060b6:	f7fa fbd3 	bl	8000860 <chIQPutI>
 80060ba:	2144      	movs	r1, #68	; 0x44
 80060bc:	0028      	movs	r0, r5
 80060be:	f7fa fbcf 	bl	8000860 <chIQPutI>
 80060c2:	f7fb fbe5 	bl	8001890 <_dbg_check_unlock>
 80060c6:	6823      	ldr	r3, [r4, #0]
 80060c8:	42a3      	cmp	r3, r4
 80060ca:	d005      	beq.n	80060d8 <queues1_execute+0x278>
 80060cc:	69a2      	ldr	r2, [r4, #24]
 80060ce:	689b      	ldr	r3, [r3, #8]
 80060d0:	6892      	ldr	r2, [r2, #8]
 80060d2:	429a      	cmp	r2, r3
 80060d4:	d200      	bcs.n	80060d8 <queues1_execute+0x278>
 80060d6:	e0bc      	b.n	8006252 <queues1_execute+0x3f2>
 80060d8:	b662      	cpsie	i
 80060da:	2300      	movs	r3, #0
 80060dc:	2202      	movs	r2, #2
 80060de:	0031      	movs	r1, r6
 80060e0:	0028      	movs	r0, r5
 80060e2:	f7fc ff45 	bl	8002f70 <chIQReadTimeout>
 80060e6:	1e81      	subs	r1, r0, #2
 80060e8:	4248      	negs	r0, r1
 80060ea:	4141      	adcs	r1, r0
 80060ec:	2008      	movs	r0, #8
 80060ee:	b2c9      	uxtb	r1, r1
 80060f0:	f7fa fa76 	bl	80005e0 <_test_assert>
 80060f4:	1e03      	subs	r3, r0, #0
 80060f6:	d000      	beq.n	80060fa <queues1_execute+0x29a>
 80060f8:	e745      	b.n	8005f86 <queues1_execute+0x126>
 80060fa:	0031      	movs	r1, r6
 80060fc:	2202      	movs	r2, #2
 80060fe:	0028      	movs	r0, r5
 8006100:	f7fc ff36 	bl	8002f70 <chIQReadTimeout>
 8006104:	1e81      	subs	r1, r0, #2
 8006106:	4248      	negs	r0, r1
 8006108:	4141      	adcs	r1, r0
 800610a:	2009      	movs	r0, #9
 800610c:	b2c9      	uxtb	r1, r1
 800610e:	f7fa fa67 	bl	80005e0 <_test_assert>
 8006112:	2800      	cmp	r0, #0
 8006114:	d000      	beq.n	8006118 <queues1_execute+0x2b8>
 8006116:	e736      	b.n	8005f86 <queues1_execute+0x126>
 8006118:	b672      	cpsid	i
 800611a:	f7fb fc69 	bl	80019f0 <_dbg_check_lock>
 800611e:	f7fa fb1f 	bl	8000760 <chDbgCheckClassI>
 8006122:	68a9      	ldr	r1, [r5, #8]
 8006124:	200a      	movs	r0, #10
 8006126:	424b      	negs	r3, r1
 8006128:	4159      	adcs	r1, r3
 800612a:	b2c9      	uxtb	r1, r1
 800612c:	f7fa fa58 	bl	80005e0 <_test_assert>
 8006130:	1e06      	subs	r6, r0, #0
 8006132:	d000      	beq.n	8006136 <queues1_execute+0x2d6>
 8006134:	e07a      	b.n	800622c <queues1_execute+0x3cc>
 8006136:	f7fb fbf3 	bl	8001920 <chSysUnlock.lto_priv.85>
 800613a:	b672      	cpsid	i
 800613c:	f7fb fc58 	bl	80019f0 <_dbg_check_lock>
 8006140:	0031      	movs	r1, r6
 8006142:	0028      	movs	r0, r5
 8006144:	f7fa fb8c 	bl	8000860 <chIQPutI>
 8006148:	f7fa fb0a 	bl	8000760 <chDbgCheckClassI>
 800614c:	60ae      	str	r6, [r5, #8]
 800614e:	2602      	movs	r6, #2
 8006150:	2720      	movs	r7, #32
 8006152:	68eb      	ldr	r3, [r5, #12]
 8006154:	4276      	negs	r6, r6
 8006156:	61ab      	str	r3, [r5, #24]
 8006158:	616b      	str	r3, [r5, #20]
 800615a:	6828      	ldr	r0, [r5, #0]
 800615c:	42a8      	cmp	r0, r5
 800615e:	d029      	beq.n	80061b4 <queues1_execute+0x354>
 8006160:	6803      	ldr	r3, [r0, #0]
 8006162:	602b      	str	r3, [r5, #0]
 8006164:	605d      	str	r5, [r3, #4]
 8006166:	5dc3      	ldrb	r3, [r0, r7]
 8006168:	2b04      	cmp	r3, #4
 800616a:	d01f      	beq.n	80061ac <queues1_execute+0x34c>
 800616c:	b672      	cpsid	i
 800616e:	4b06      	ldr	r3, [pc, #24]	; (8006188 <queues1_execute+0x328>)
 8006170:	62e3      	str	r3, [r4, #44]	; 0x2c
 8006172:	e7fe      	b.n	8006172 <queues1_execute+0x312>
 8006174:	20000610 	.word	0x20000610
 8006178:	20000738 	.word	0x20000738
 800617c:	08007930 	.word	0x08007930
 8006180:	08007f50 	.word	0x08007f50
 8006184:	20000ea8 	.word	0x20000ea8
 8006188:	08007a40 	.word	0x08007a40
 800618c:	f7fb fb80 	bl	8001890 <_dbg_check_unlock>
 8006190:	6823      	ldr	r3, [r4, #0]
 8006192:	42a3      	cmp	r3, r4
 8006194:	d100      	bne.n	8006198 <queues1_execute+0x338>
 8006196:	e6f5      	b.n	8005f84 <queues1_execute+0x124>
 8006198:	69a2      	ldr	r2, [r4, #24]
 800619a:	689b      	ldr	r3, [r3, #8]
 800619c:	6892      	ldr	r2, [r2, #8]
 800619e:	429a      	cmp	r2, r3
 80061a0:	d300      	bcc.n	80061a4 <queues1_execute+0x344>
 80061a2:	e6ef      	b.n	8005f84 <queues1_execute+0x124>
 80061a4:	b672      	cpsid	i
 80061a6:	4b3b      	ldr	r3, [pc, #236]	; (8006294 <queues1_execute+0x434>)
 80061a8:	62e3      	str	r3, [r4, #44]	; 0x2c
 80061aa:	e7fe      	b.n	80061aa <queues1_execute+0x34a>
 80061ac:	6246      	str	r6, [r0, #36]	; 0x24
 80061ae:	f7fa fb27 	bl	8000800 <chSchReadyI>
 80061b2:	e7d2      	b.n	800615a <queues1_execute+0x2fa>
 80061b4:	f7fb fbb4 	bl	8001920 <chSysUnlock.lto_priv.85>
 80061b8:	b672      	cpsid	i
 80061ba:	f7fb fc19 	bl	80019f0 <_dbg_check_lock>
 80061be:	f7fa facf 	bl	8000760 <chDbgCheckClassI>
 80061c2:	68a9      	ldr	r1, [r5, #8]
 80061c4:	200b      	movs	r0, #11
 80061c6:	424b      	negs	r3, r1
 80061c8:	4159      	adcs	r1, r3
 80061ca:	b2c9      	uxtb	r1, r1
 80061cc:	f7fa fa08 	bl	80005e0 <_test_assert>
 80061d0:	1e06      	subs	r6, r0, #0
 80061d2:	d12b      	bne.n	800622c <queues1_execute+0x3cc>
 80061d4:	f7fb fba4 	bl	8001920 <chSysUnlock.lto_priv.85>
 80061d8:	21a8      	movs	r1, #168	; 0xa8
 80061da:	69a3      	ldr	r3, [r4, #24]
 80061dc:	0049      	lsls	r1, r1, #1
 80061de:	689a      	ldr	r2, [r3, #8]
 80061e0:	482d      	ldr	r0, [pc, #180]	; (8006298 <queues1_execute+0x438>)
 80061e2:	3201      	adds	r2, #1
 80061e4:	9600      	str	r6, [sp, #0]
 80061e6:	4b2d      	ldr	r3, [pc, #180]	; (800629c <queues1_execute+0x43c>)
 80061e8:	f7fe fd72 	bl	8004cd0 <chThdCreateStatic>
 80061ec:	4b2c      	ldr	r3, [pc, #176]	; (80062a0 <queues1_execute+0x440>)
 80061ee:	6018      	str	r0, [r3, #0]
 80061f0:	b672      	cpsid	i
 80061f2:	f7fb fbfd 	bl	80019f0 <_dbg_check_lock>
 80061f6:	f7fa fab3 	bl	8000760 <chDbgCheckClassI>
 80061fa:	68a9      	ldr	r1, [r5, #8]
 80061fc:	200c      	movs	r0, #12
 80061fe:	424b      	negs	r3, r1
 8006200:	4159      	adcs	r1, r3
 8006202:	b2c9      	uxtb	r1, r1
 8006204:	f7fa f9ec 	bl	80005e0 <_test_assert>
 8006208:	2800      	cmp	r0, #0
 800620a:	d10f      	bne.n	800622c <queues1_execute+0x3cc>
 800620c:	f7fb fb88 	bl	8001920 <chSysUnlock.lto_priv.85>
 8006210:	f7fd fef6 	bl	8004000 <test_wait_threads>
 8006214:	210a      	movs	r1, #10
 8006216:	0028      	movs	r0, r5
 8006218:	f7fc ff22 	bl	8003060 <chIQGetTimeout>
 800621c:	1c41      	adds	r1, r0, #1
 800621e:	4248      	negs	r0, r1
 8006220:	4141      	adcs	r1, r0
 8006222:	200d      	movs	r0, #13
 8006224:	b2c9      	uxtb	r1, r1
 8006226:	f7fa f9db 	bl	80005e0 <_test_assert>
 800622a:	e6ac      	b.n	8005f86 <queues1_execute+0x126>
 800622c:	f7fb fb78 	bl	8001920 <chSysUnlock.lto_priv.85>
 8006230:	e6a9      	b.n	8005f86 <queues1_execute+0x126>
 8006232:	f7fb fb2d 	bl	8001890 <_dbg_check_unlock>
 8006236:	6823      	ldr	r3, [r4, #0]
 8006238:	42a3      	cmp	r3, r4
 800623a:	d100      	bne.n	800623e <queues1_execute+0x3de>
 800623c:	e6a2      	b.n	8005f84 <queues1_execute+0x124>
 800623e:	69a2      	ldr	r2, [r4, #24]
 8006240:	689b      	ldr	r3, [r3, #8]
 8006242:	6892      	ldr	r2, [r2, #8]
 8006244:	429a      	cmp	r2, r3
 8006246:	d300      	bcc.n	800624a <queues1_execute+0x3ea>
 8006248:	e69c      	b.n	8005f84 <queues1_execute+0x124>
 800624a:	b672      	cpsid	i
 800624c:	4b11      	ldr	r3, [pc, #68]	; (8006294 <queues1_execute+0x434>)
 800624e:	62e3      	str	r3, [r4, #44]	; 0x2c
 8006250:	e7fe      	b.n	8006250 <queues1_execute+0x3f0>
 8006252:	b672      	cpsid	i
 8006254:	4b0f      	ldr	r3, [pc, #60]	; (8006294 <queues1_execute+0x434>)
 8006256:	62e3      	str	r3, [r4, #44]	; 0x2c
 8006258:	e7fe      	b.n	8006258 <queues1_execute+0x3f8>
 800625a:	f7fb fb19 	bl	8001890 <_dbg_check_unlock>
 800625e:	6823      	ldr	r3, [r4, #0]
 8006260:	42a3      	cmp	r3, r4
 8006262:	d100      	bne.n	8006266 <queues1_execute+0x406>
 8006264:	e68e      	b.n	8005f84 <queues1_execute+0x124>
 8006266:	69a2      	ldr	r2, [r4, #24]
 8006268:	689b      	ldr	r3, [r3, #8]
 800626a:	6892      	ldr	r2, [r2, #8]
 800626c:	429a      	cmp	r2, r3
 800626e:	d300      	bcc.n	8006272 <queues1_execute+0x412>
 8006270:	e688      	b.n	8005f84 <queues1_execute+0x124>
 8006272:	b672      	cpsid	i
 8006274:	4b07      	ldr	r3, [pc, #28]	; (8006294 <queues1_execute+0x434>)
 8006276:	62e3      	str	r3, [r4, #44]	; 0x2c
 8006278:	e7fe      	b.n	8006278 <queues1_execute+0x418>
 800627a:	b672      	cpsid	i
 800627c:	4b05      	ldr	r3, [pc, #20]	; (8006294 <queues1_execute+0x434>)
 800627e:	62e3      	str	r3, [r4, #44]	; 0x2c
 8006280:	e7fe      	b.n	8006280 <queues1_execute+0x420>
 8006282:	b672      	cpsid	i
 8006284:	4b03      	ldr	r3, [pc, #12]	; (8006294 <queues1_execute+0x434>)
 8006286:	62e3      	str	r3, [r4, #44]	; 0x2c
 8006288:	e7fe      	b.n	8006288 <queues1_execute+0x428>
 800628a:	b672      	cpsid	i
 800628c:	4b01      	ldr	r3, [pc, #4]	; (8006294 <queues1_execute+0x434>)
 800628e:	62e3      	str	r3, [r4, #44]	; 0x2c
 8006290:	e7fe      	b.n	8006290 <queues1_execute+0x430>
 8006292:	46c0      	nop			; (mov r8, r8)
 8006294:	08007930 	.word	0x08007930
 8006298:	20000d58 	.word	0x20000d58
 800629c:	080030f1 	.word	0x080030f1
 80062a0:	20001414 	.word	0x20001414
	...

080062b0 <evt2_execute>:
 80062b0:	b5f0      	push	{r4, r5, r6, r7, lr}
 80062b2:	46de      	mov	lr, fp
 80062b4:	4657      	mov	r7, sl
 80062b6:	464e      	mov	r6, r9
 80062b8:	4645      	mov	r5, r8
 80062ba:	b5e0      	push	{r5, r6, r7, lr}
 80062bc:	b08d      	sub	sp, #52	; 0x34
 80062be:	b672      	cpsid	i
 80062c0:	f7fb fb96 	bl	80019f0 <_dbg_check_lock>
 80062c4:	2307      	movs	r3, #7
 80062c6:	4cbd      	ldr	r4, [pc, #756]	; (80065bc <evt2_execute+0x30c>)
 80062c8:	69a2      	ldr	r2, [r4, #24]
 80062ca:	6b91      	ldr	r1, [r2, #56]	; 0x38
 80062cc:	430b      	orrs	r3, r1
 80062ce:	6393      	str	r3, [r2, #56]	; 0x38
 80062d0:	f7fb fade 	bl	8001890 <_dbg_check_unlock>
 80062d4:	6823      	ldr	r3, [r4, #0]
 80062d6:	42a3      	cmp	r3, r4
 80062d8:	d004      	beq.n	80062e4 <evt2_execute+0x34>
 80062da:	69a2      	ldr	r2, [r4, #24]
 80062dc:	689b      	ldr	r3, [r3, #8]
 80062de:	6892      	ldr	r2, [r2, #8]
 80062e0:	429a      	cmp	r2, r3
 80062e2:	d312      	bcc.n	800630a <evt2_execute+0x5a>
 80062e4:	b662      	cpsie	i
 80062e6:	f7fb fc9b 	bl	8001c20 <chEvtWaitOne.constprop.35>
 80062ea:	1e41      	subs	r1, r0, #1
 80062ec:	4248      	negs	r0, r1
 80062ee:	4141      	adcs	r1, r0
 80062f0:	2001      	movs	r0, #1
 80062f2:	b2c9      	uxtb	r1, r1
 80062f4:	f7fa f974 	bl	80005e0 <_test_assert>
 80062f8:	2800      	cmp	r0, #0
 80062fa:	d00a      	beq.n	8006312 <evt2_execute+0x62>
 80062fc:	b00d      	add	sp, #52	; 0x34
 80062fe:	bc3c      	pop	{r2, r3, r4, r5}
 8006300:	4690      	mov	r8, r2
 8006302:	4699      	mov	r9, r3
 8006304:	46a2      	mov	sl, r4
 8006306:	46ab      	mov	fp, r5
 8006308:	bdf0      	pop	{r4, r5, r6, r7, pc}
 800630a:	b672      	cpsid	i
 800630c:	4bac      	ldr	r3, [pc, #688]	; (80065c0 <evt2_execute+0x310>)
 800630e:	62e3      	str	r3, [r4, #44]	; 0x2c
 8006310:	e7fe      	b.n	8006310 <evt2_execute+0x60>
 8006312:	f7fb fc85 	bl	8001c20 <chEvtWaitOne.constprop.35>
 8006316:	1e81      	subs	r1, r0, #2
 8006318:	4248      	negs	r0, r1
 800631a:	4141      	adcs	r1, r0
 800631c:	2002      	movs	r0, #2
 800631e:	b2c9      	uxtb	r1, r1
 8006320:	f7fa f95e 	bl	80005e0 <_test_assert>
 8006324:	2800      	cmp	r0, #0
 8006326:	d1e9      	bne.n	80062fc <evt2_execute+0x4c>
 8006328:	f7fb fc7a 	bl	8001c20 <chEvtWaitOne.constprop.35>
 800632c:	1f01      	subs	r1, r0, #4
 800632e:	4248      	negs	r0, r1
 8006330:	4141      	adcs	r1, r0
 8006332:	2003      	movs	r0, #3
 8006334:	b2c9      	uxtb	r1, r1
 8006336:	f7fa f953 	bl	80005e0 <_test_assert>
 800633a:	2800      	cmp	r0, #0
 800633c:	d1de      	bne.n	80062fc <evt2_execute+0x4c>
 800633e:	f7fb fc37 	bl	8001bb0 <chEvtGetAndClearEvents.constprop.39>
 8006342:	4241      	negs	r1, r0
 8006344:	4141      	adcs	r1, r0
 8006346:	2004      	movs	r0, #4
 8006348:	b2c9      	uxtb	r1, r1
 800634a:	f7fa f949 	bl	80005e0 <_test_assert>
 800634e:	2800      	cmp	r0, #0
 8006350:	d1d4      	bne.n	80062fc <evt2_execute+0x4c>
 8006352:	f7fe f9b5 	bl	80046c0 <test_wait_tick>
 8006356:	b672      	cpsid	i
 8006358:	f7fb fb4a 	bl	80019f0 <_dbg_check_lock>
 800635c:	2380      	movs	r3, #128	; 0x80
 800635e:	05db      	lsls	r3, r3, #23
 8006360:	6a5f      	ldr	r7, [r3, #36]	; 0x24
 8006362:	f7fb fa95 	bl	8001890 <_dbg_check_unlock>
 8006366:	6823      	ldr	r3, [r4, #0]
 8006368:	42a3      	cmp	r3, r4
 800636a:	d005      	beq.n	8006378 <evt2_execute+0xc8>
 800636c:	69a2      	ldr	r2, [r4, #24]
 800636e:	689b      	ldr	r3, [r3, #8]
 8006370:	6892      	ldr	r2, [r2, #8]
 8006372:	429a      	cmp	r2, r3
 8006374:	d200      	bcs.n	8006378 <evt2_execute+0xc8>
 8006376:	e11c      	b.n	80065b2 <evt2_execute+0x302>
 8006378:	b662      	cpsie	i
 800637a:	21a8      	movs	r1, #168	; 0xa8
 800637c:	69a3      	ldr	r3, [r4, #24]
 800637e:	4d91      	ldr	r5, [pc, #580]	; (80065c4 <evt2_execute+0x314>)
 8006380:	689a      	ldr	r2, [r3, #8]
 8006382:	0049      	lsls	r1, r1, #1
 8006384:	3a01      	subs	r2, #1
 8006386:	9300      	str	r3, [sp, #0]
 8006388:	488f      	ldr	r0, [pc, #572]	; (80065c8 <evt2_execute+0x318>)
 800638a:	002b      	movs	r3, r5
 800638c:	f7fe fca0 	bl	8004cd0 <chThdCreateStatic>
 8006390:	4b8e      	ldr	r3, [pc, #568]	; (80065cc <evt2_execute+0x31c>)
 8006392:	4699      	mov	r9, r3
 8006394:	6018      	str	r0, [r3, #0]
 8006396:	f7fb fc43 	bl	8001c20 <chEvtWaitOne.constprop.35>
 800639a:	0039      	movs	r1, r7
 800639c:	4b8c      	ldr	r3, [pc, #560]	; (80065d0 <evt2_execute+0x320>)
 800639e:	31f5      	adds	r1, #245	; 0xf5
 80063a0:	0006      	movs	r6, r0
 80063a2:	18fa      	adds	r2, r7, r3
 80063a4:	31ff      	adds	r1, #255	; 0xff
 80063a6:	2005      	movs	r0, #5
 80063a8:	f7fb fff2 	bl	8002390 <_test_assert_time_window>
 80063ac:	2800      	cmp	r0, #0
 80063ae:	d1a5      	bne.n	80062fc <evt2_execute+0x4c>
 80063b0:	3e01      	subs	r6, #1
 80063b2:	4271      	negs	r1, r6
 80063b4:	4171      	adcs	r1, r6
 80063b6:	3006      	adds	r0, #6
 80063b8:	b2c9      	uxtb	r1, r1
 80063ba:	f7fa f911 	bl	80005e0 <_test_assert>
 80063be:	2800      	cmp	r0, #0
 80063c0:	d19c      	bne.n	80062fc <evt2_execute+0x4c>
 80063c2:	f7fb fbf5 	bl	8001bb0 <chEvtGetAndClearEvents.constprop.39>
 80063c6:	4241      	negs	r1, r0
 80063c8:	4141      	adcs	r1, r0
 80063ca:	2007      	movs	r0, #7
 80063cc:	b2c9      	uxtb	r1, r1
 80063ce:	f7fa f907 	bl	80005e0 <_test_assert>
 80063d2:	2800      	cmp	r0, #0
 80063d4:	d000      	beq.n	80063d8 <evt2_execute+0x128>
 80063d6:	e791      	b.n	80062fc <evt2_execute+0x4c>
 80063d8:	f7fd fe12 	bl	8004000 <test_wait_threads>
 80063dc:	b672      	cpsid	i
 80063de:	f7fb fb07 	bl	80019f0 <_dbg_check_lock>
 80063e2:	2305      	movs	r3, #5
 80063e4:	69a2      	ldr	r2, [r4, #24]
 80063e6:	6b91      	ldr	r1, [r2, #56]	; 0x38
 80063e8:	430b      	orrs	r3, r1
 80063ea:	6393      	str	r3, [r2, #56]	; 0x38
 80063ec:	f7fb fa68 	bl	80018c0 <chSysUnlock.lto_priv.72>
 80063f0:	f7fb fc46 	bl	8001c80 <chEvtWaitAny.constprop.34>
 80063f4:	1f41      	subs	r1, r0, #5
 80063f6:	4248      	negs	r0, r1
 80063f8:	4141      	adcs	r1, r0
 80063fa:	2008      	movs	r0, #8
 80063fc:	b2c9      	uxtb	r1, r1
 80063fe:	f7fa f8ef 	bl	80005e0 <_test_assert>
 8006402:	2800      	cmp	r0, #0
 8006404:	d000      	beq.n	8006408 <evt2_execute+0x158>
 8006406:	e779      	b.n	80062fc <evt2_execute+0x4c>
 8006408:	f7fb fbd2 	bl	8001bb0 <chEvtGetAndClearEvents.constprop.39>
 800640c:	4241      	negs	r1, r0
 800640e:	4141      	adcs	r1, r0
 8006410:	2009      	movs	r0, #9
 8006412:	b2c9      	uxtb	r1, r1
 8006414:	f7fa f8e4 	bl	80005e0 <_test_assert>
 8006418:	2800      	cmp	r0, #0
 800641a:	d000      	beq.n	800641e <evt2_execute+0x16e>
 800641c:	e76e      	b.n	80062fc <evt2_execute+0x4c>
 800641e:	f7fe f94f 	bl	80046c0 <test_wait_tick>
 8006422:	b672      	cpsid	i
 8006424:	f7fb fae4 	bl	80019f0 <_dbg_check_lock>
 8006428:	2380      	movs	r3, #128	; 0x80
 800642a:	05db      	lsls	r3, r3, #23
 800642c:	6a5e      	ldr	r6, [r3, #36]	; 0x24
 800642e:	469b      	mov	fp, r3
 8006430:	f7fb fa8e 	bl	8001950 <chSysUnlock.lto_priv.84>
 8006434:	21a8      	movs	r1, #168	; 0xa8
 8006436:	69a3      	ldr	r3, [r4, #24]
 8006438:	0049      	lsls	r1, r1, #1
 800643a:	689a      	ldr	r2, [r3, #8]
 800643c:	4862      	ldr	r0, [pc, #392]	; (80065c8 <evt2_execute+0x318>)
 800643e:	3a01      	subs	r2, #1
 8006440:	9300      	str	r3, [sp, #0]
 8006442:	002b      	movs	r3, r5
 8006444:	f7fe fc44 	bl	8004cd0 <chThdCreateStatic>
 8006448:	464b      	mov	r3, r9
 800644a:	6018      	str	r0, [r3, #0]
 800644c:	f7fb fc18 	bl	8001c80 <chEvtWaitAny.constprop.34>
 8006450:	0031      	movs	r1, r6
 8006452:	4b5f      	ldr	r3, [pc, #380]	; (80065d0 <evt2_execute+0x320>)
 8006454:	31f5      	adds	r1, #245	; 0xf5
 8006456:	0005      	movs	r5, r0
 8006458:	18f2      	adds	r2, r6, r3
 800645a:	31ff      	adds	r1, #255	; 0xff
 800645c:	200a      	movs	r0, #10
 800645e:	f7fb ff97 	bl	8002390 <_test_assert_time_window>
 8006462:	2800      	cmp	r0, #0
 8006464:	d000      	beq.n	8006468 <evt2_execute+0x1b8>
 8006466:	e749      	b.n	80062fc <evt2_execute+0x4c>
 8006468:	3d01      	subs	r5, #1
 800646a:	4269      	negs	r1, r5
 800646c:	4169      	adcs	r1, r5
 800646e:	300b      	adds	r0, #11
 8006470:	b2c9      	uxtb	r1, r1
 8006472:	f7fa f8b5 	bl	80005e0 <_test_assert>
 8006476:	2800      	cmp	r0, #0
 8006478:	d000      	beq.n	800647c <evt2_execute+0x1cc>
 800647a:	e73f      	b.n	80062fc <evt2_execute+0x4c>
 800647c:	f7fb fb98 	bl	8001bb0 <chEvtGetAndClearEvents.constprop.39>
 8006480:	4241      	negs	r1, r0
 8006482:	4141      	adcs	r1, r0
 8006484:	200c      	movs	r0, #12
 8006486:	b2c9      	uxtb	r1, r1
 8006488:	f7fa f8aa 	bl	80005e0 <_test_assert>
 800648c:	4682      	mov	sl, r0
 800648e:	2800      	cmp	r0, #0
 8006490:	d000      	beq.n	8006494 <evt2_execute+0x1e4>
 8006492:	e733      	b.n	80062fc <evt2_execute+0x4c>
 8006494:	f7fd fdb4 	bl	8004000 <test_wait_threads>
 8006498:	4e4e      	ldr	r6, [pc, #312]	; (80065d4 <evt2_execute+0x324>)
 800649a:	4d4f      	ldr	r5, [pc, #316]	; (80065d8 <evt2_execute+0x328>)
 800649c:	6036      	str	r6, [r6, #0]
 800649e:	602d      	str	r5, [r5, #0]
 80064a0:	b672      	cpsid	i
 80064a2:	f7fb faa5 	bl	80019f0 <_dbg_check_lock>
 80064a6:	ab02      	add	r3, sp, #8
 80064a8:	4698      	mov	r8, r3
 80064aa:	6833      	ldr	r3, [r6, #0]
 80064ac:	69a2      	ldr	r2, [r4, #24]
 80064ae:	9302      	str	r3, [sp, #8]
 80064b0:	4643      	mov	r3, r8
 80064b2:	6033      	str	r3, [r6, #0]
 80064b4:	605a      	str	r2, [r3, #4]
 80064b6:	4642      	mov	r2, r8
 80064b8:	2301      	movs	r3, #1
 80064ba:	6093      	str	r3, [r2, #8]
 80064bc:	4643      	mov	r3, r8
 80064be:	4652      	mov	r2, sl
 80064c0:	60da      	str	r2, [r3, #12]
 80064c2:	2301      	movs	r3, #1
 80064c4:	4642      	mov	r2, r8
 80064c6:	425b      	negs	r3, r3
 80064c8:	6113      	str	r3, [r2, #16]
 80064ca:	f7fb f9f9 	bl	80018c0 <chSysUnlock.lto_priv.72>
 80064ce:	b672      	cpsid	i
 80064d0:	f7fb fa8e 	bl	80019f0 <_dbg_check_lock>
 80064d4:	682a      	ldr	r2, [r5, #0]
 80064d6:	af07      	add	r7, sp, #28
 80064d8:	9207      	str	r2, [sp, #28]
 80064da:	69a2      	ldr	r2, [r4, #24]
 80064dc:	2304      	movs	r3, #4
 80064de:	607a      	str	r2, [r7, #4]
 80064e0:	4652      	mov	r2, sl
 80064e2:	60bb      	str	r3, [r7, #8]
 80064e4:	3b05      	subs	r3, #5
 80064e6:	60fa      	str	r2, [r7, #12]
 80064e8:	613b      	str	r3, [r7, #16]
 80064ea:	602f      	str	r7, [r5, #0]
 80064ec:	f7fb f9e8 	bl	80018c0 <chSysUnlock.lto_priv.72>
 80064f0:	f7fe f8e6 	bl	80046c0 <test_wait_tick>
 80064f4:	b672      	cpsid	i
 80064f6:	f7fb fa7b 	bl	80019f0 <_dbg_check_lock>
 80064fa:	465b      	mov	r3, fp
 80064fc:	6a5b      	ldr	r3, [r3, #36]	; 0x24
 80064fe:	469a      	mov	sl, r3
 8006500:	f7fb fa26 	bl	8001950 <chSysUnlock.lto_priv.84>
 8006504:	23fa      	movs	r3, #250	; 0xfa
 8006506:	21a8      	movs	r1, #168	; 0xa8
 8006508:	005b      	lsls	r3, r3, #1
 800650a:	4453      	add	r3, sl
 800650c:	469b      	mov	fp, r3
 800650e:	69a3      	ldr	r3, [r4, #24]
 8006510:	0049      	lsls	r1, r1, #1
 8006512:	689a      	ldr	r2, [r3, #8]
 8006514:	4b31      	ldr	r3, [pc, #196]	; (80065dc <evt2_execute+0x32c>)
 8006516:	3a01      	subs	r2, #1
 8006518:	9300      	str	r3, [sp, #0]
 800651a:	482b      	ldr	r0, [pc, #172]	; (80065c8 <evt2_execute+0x318>)
 800651c:	4b30      	ldr	r3, [pc, #192]	; (80065e0 <evt2_execute+0x330>)
 800651e:	f7fe fbd7 	bl	8004cd0 <chThdCreateStatic>
 8006522:	464b      	mov	r3, r9
 8006524:	69a4      	ldr	r4, [r4, #24]
 8006526:	6018      	str	r0, [r3, #0]
 8006528:	b672      	cpsid	i
 800652a:	f7fb fa61 	bl	80019f0 <_dbg_check_lock>
 800652e:	2205      	movs	r2, #5
 8006530:	6ba3      	ldr	r3, [r4, #56]	; 0x38
 8006532:	401a      	ands	r2, r3
 8006534:	2a05      	cmp	r2, #5
 8006536:	d005      	beq.n	8006544 <evt2_execute+0x294>
 8006538:	2305      	movs	r3, #5
 800653a:	200b      	movs	r0, #11
 800653c:	6263      	str	r3, [r4, #36]	; 0x24
 800653e:	f7fb f827 	bl	8001590 <chSchGoSleepS>
 8006542:	6ba3      	ldr	r3, [r4, #56]	; 0x38
 8006544:	2205      	movs	r2, #5
 8006546:	4393      	bics	r3, r2
 8006548:	63a3      	str	r3, [r4, #56]	; 0x38
 800654a:	f7fb f9b9 	bl	80018c0 <chSysUnlock.lto_priv.72>
 800654e:	4a20      	ldr	r2, [pc, #128]	; (80065d0 <evt2_execute+0x320>)
 8006550:	4659      	mov	r1, fp
 8006552:	4452      	add	r2, sl
 8006554:	200d      	movs	r0, #13
 8006556:	f7fb ff1b 	bl	8002390 <_test_assert_time_window>
 800655a:	2800      	cmp	r0, #0
 800655c:	d000      	beq.n	8006560 <evt2_execute+0x2b0>
 800655e:	e6cd      	b.n	80062fc <evt2_execute+0x4c>
 8006560:	f7fb fb26 	bl	8001bb0 <chEvtGetAndClearEvents.constprop.39>
 8006564:	4241      	negs	r1, r0
 8006566:	4141      	adcs	r1, r0
 8006568:	200e      	movs	r0, #14
 800656a:	b2c9      	uxtb	r1, r1
 800656c:	f7fa f838 	bl	80005e0 <_test_assert>
 8006570:	2800      	cmp	r0, #0
 8006572:	d000      	beq.n	8006576 <evt2_execute+0x2c6>
 8006574:	e6c2      	b.n	80062fc <evt2_execute+0x4c>
 8006576:	f7fd fd43 	bl	8004000 <test_wait_threads>
 800657a:	0030      	movs	r0, r6
 800657c:	4641      	mov	r1, r8
 800657e:	f7fc fe97 	bl	80032b0 <chEvtUnregister>
 8006582:	0039      	movs	r1, r7
 8006584:	0028      	movs	r0, r5
 8006586:	f7fc fe93 	bl	80032b0 <chEvtUnregister>
 800658a:	6833      	ldr	r3, [r6, #0]
 800658c:	200f      	movs	r0, #15
 800658e:	1b9e      	subs	r6, r3, r6
 8006590:	4271      	negs	r1, r6
 8006592:	4171      	adcs	r1, r6
 8006594:	b2c9      	uxtb	r1, r1
 8006596:	f7fa f823 	bl	80005e0 <_test_assert>
 800659a:	2800      	cmp	r0, #0
 800659c:	d000      	beq.n	80065a0 <evt2_execute+0x2f0>
 800659e:	e6ad      	b.n	80062fc <evt2_execute+0x4c>
 80065a0:	682b      	ldr	r3, [r5, #0]
 80065a2:	3010      	adds	r0, #16
 80065a4:	1b5d      	subs	r5, r3, r5
 80065a6:	4269      	negs	r1, r5
 80065a8:	4169      	adcs	r1, r5
 80065aa:	b2c9      	uxtb	r1, r1
 80065ac:	f7fa f818 	bl	80005e0 <_test_assert>
 80065b0:	e6a4      	b.n	80062fc <evt2_execute+0x4c>
 80065b2:	b672      	cpsid	i
 80065b4:	4b0b      	ldr	r3, [pc, #44]	; (80065e4 <evt2_execute+0x334>)
 80065b6:	62e3      	str	r3, [r4, #44]	; 0x2c
 80065b8:	e7fe      	b.n	80065b8 <evt2_execute+0x308>
 80065ba:	46c0      	nop			; (mov r8, r8)
 80065bc:	20000738 	.word	0x20000738
 80065c0:	080079d0 	.word	0x080079d0
 80065c4:	08004551 	.word	0x08004551
 80065c8:	20000d58 	.word	0x20000d58
 80065cc:	20001414 	.word	0x20001414
 80065d0:	00000226 	.word	0x00000226
 80065d4:	20000608 	.word	0x20000608
 80065d8:	2000060c 	.word	0x2000060c
 80065dc:	08007f40 	.word	0x08007f40
 80065e0:	080045b1 	.word	0x080045b1
 80065e4:	08007920 	.word	0x08007920
	...

080065f0 <msg1_execute>:
 80065f0:	21a8      	movs	r1, #168	; 0xa8
 80065f2:	b510      	push	{r4, lr}
 80065f4:	4b16      	ldr	r3, [pc, #88]	; (8006650 <msg1_execute+0x60>)
 80065f6:	b082      	sub	sp, #8
 80065f8:	699b      	ldr	r3, [r3, #24]
 80065fa:	0049      	lsls	r1, r1, #1
 80065fc:	689a      	ldr	r2, [r3, #8]
 80065fe:	4815      	ldr	r0, [pc, #84]	; (8006654 <msg1_execute+0x64>)
 8006600:	3201      	adds	r2, #1
 8006602:	9300      	str	r3, [sp, #0]
 8006604:	4b14      	ldr	r3, [pc, #80]	; (8006658 <msg1_execute+0x68>)
 8006606:	f7fe fb63 	bl	8004cd0 <chThdCreateStatic>
 800660a:	4b14      	ldr	r3, [pc, #80]	; (800665c <msg1_execute+0x6c>)
 800660c:	6018      	str	r0, [r3, #0]
 800660e:	f7fc fdbf 	bl	8003190 <chMsgWait>
 8006612:	6b44      	ldr	r4, [r0, #52]	; 0x34
 8006614:	0021      	movs	r1, r4
 8006616:	f7fc fd8b 	bl	8003130 <chMsgRelease>
 800661a:	b2e0      	uxtb	r0, r4
 800661c:	f7fb fef0 	bl	8002400 <test_emit_token>
 8006620:	f7fc fdb6 	bl	8003190 <chMsgWait>
 8006624:	6b44      	ldr	r4, [r0, #52]	; 0x34
 8006626:	0021      	movs	r1, r4
 8006628:	f7fc fd82 	bl	8003130 <chMsgRelease>
 800662c:	b2e0      	uxtb	r0, r4
 800662e:	f7fb fee7 	bl	8002400 <test_emit_token>
 8006632:	f7fc fdad 	bl	8003190 <chMsgWait>
 8006636:	6b44      	ldr	r4, [r0, #52]	; 0x34
 8006638:	0021      	movs	r1, r4
 800663a:	f7fc fd79 	bl	8003130 <chMsgRelease>
 800663e:	b2e0      	uxtb	r0, r4
 8006640:	f7fb fede 	bl	8002400 <test_emit_token>
 8006644:	4906      	ldr	r1, [pc, #24]	; (8006660 <msg1_execute+0x70>)
 8006646:	2001      	movs	r0, #1
 8006648:	f7f9 ffa2 	bl	8000590 <_test_assert_sequence>
 800664c:	b002      	add	sp, #8
 800664e:	bd10      	pop	{r4, pc}
 8006650:	20000738 	.word	0x20000738
 8006654:	20000d58 	.word	0x20000d58
 8006658:	08003291 	.word	0x08003291
 800665c:	20001414 	.word	0x20001414
 8006660:	08007f70 	.word	0x08007f70
	...

08006670 <mtx8_execute>:
 8006670:	b5f0      	push	{r4, r5, r6, r7, lr}
 8006672:	27a8      	movs	r7, #168	; 0xa8
 8006674:	4b17      	ldr	r3, [pc, #92]	; (80066d4 <mtx8_execute+0x64>)
 8006676:	4c18      	ldr	r4, [pc, #96]	; (80066d8 <mtx8_execute+0x68>)
 8006678:	699b      	ldr	r3, [r3, #24]
 800667a:	b083      	sub	sp, #12
 800667c:	689d      	ldr	r5, [r3, #8]
 800667e:	4b17      	ldr	r3, [pc, #92]	; (80066dc <mtx8_execute+0x6c>)
 8006680:	007f      	lsls	r7, r7, #1
 8006682:	1c6a      	adds	r2, r5, #1
 8006684:	9300      	str	r3, [sp, #0]
 8006686:	0039      	movs	r1, r7
 8006688:	4b15      	ldr	r3, [pc, #84]	; (80066e0 <mtx8_execute+0x70>)
 800668a:	0020      	movs	r0, r4
 800668c:	f7fe fb20 	bl	8004cd0 <chThdCreateStatic>
 8006690:	4e14      	ldr	r6, [pc, #80]	; (80066e4 <mtx8_execute+0x74>)
 8006692:	4b15      	ldr	r3, [pc, #84]	; (80066e8 <mtx8_execute+0x78>)
 8006694:	6030      	str	r0, [r6, #0]
 8006696:	1caa      	adds	r2, r5, #2
 8006698:	9300      	str	r3, [sp, #0]
 800669a:	0039      	movs	r1, r7
 800669c:	19e0      	adds	r0, r4, r7
 800669e:	4b13      	ldr	r3, [pc, #76]	; (80066ec <mtx8_execute+0x7c>)
 80066a0:	f7fe fb16 	bl	8004cd0 <chThdCreateStatic>
 80066a4:	23a8      	movs	r3, #168	; 0xa8
 80066a6:	009b      	lsls	r3, r3, #2
 80066a8:	6070      	str	r0, [r6, #4]
 80066aa:	18e0      	adds	r0, r4, r3
 80066ac:	4b10      	ldr	r3, [pc, #64]	; (80066f0 <mtx8_execute+0x80>)
 80066ae:	1cea      	adds	r2, r5, #3
 80066b0:	0039      	movs	r1, r7
 80066b2:	9300      	str	r3, [sp, #0]
 80066b4:	4b0f      	ldr	r3, [pc, #60]	; (80066f4 <mtx8_execute+0x84>)
 80066b6:	f7fe fb0b 	bl	8004cd0 <chThdCreateStatic>
 80066ba:	60b0      	str	r0, [r6, #8]
 80066bc:	f7fb fa50 	bl	8001b60 <chCondSignal.constprop.48>
 80066c0:	f7fb fa4e 	bl	8001b60 <chCondSignal.constprop.48>
 80066c4:	f7fd fc9c 	bl	8004000 <test_wait_threads>
 80066c8:	490b      	ldr	r1, [pc, #44]	; (80066f8 <mtx8_execute+0x88>)
 80066ca:	2001      	movs	r0, #1
 80066cc:	f7f9 ff60 	bl	8000590 <_test_assert_sequence>
 80066d0:	b003      	add	sp, #12
 80066d2:	bdf0      	pop	{r4, r5, r6, r7, pc}
 80066d4:	20000738 	.word	0x20000738
 80066d8:	20000d58 	.word	0x20000d58
 80066dc:	08007f40 	.word	0x08007f40
 80066e0:	080035e1 	.word	0x080035e1
 80066e4:	20001414 	.word	0x20001414
 80066e8:	08007f48 	.word	0x08007f48
 80066ec:	080036b1 	.word	0x080036b1
 80066f0:	08007f44 	.word	0x08007f44
 80066f4:	08003761 	.word	0x08003761
 80066f8:	08007f70 	.word	0x08007f70
 80066fc:	00000000 	.word	0x00000000

08006700 <mtx7_execute>:
 8006700:	b5f0      	push	{r4, r5, r6, r7, lr}
 8006702:	46c6      	mov	lr, r8
 8006704:	4e38      	ldr	r6, [pc, #224]	; (80067e8 <mtx7_execute+0xe8>)
 8006706:	21a8      	movs	r1, #168	; 0xa8
 8006708:	69b3      	ldr	r3, [r6, #24]
 800670a:	b500      	push	{lr}
 800670c:	689d      	ldr	r5, [r3, #8]
 800670e:	4b37      	ldr	r3, [pc, #220]	; (80067ec <mtx7_execute+0xec>)
 8006710:	4c37      	ldr	r4, [pc, #220]	; (80067f0 <mtx7_execute+0xf0>)
 8006712:	4698      	mov	r8, r3
 8006714:	4b37      	ldr	r3, [pc, #220]	; (80067f4 <mtx7_execute+0xf4>)
 8006716:	b082      	sub	sp, #8
 8006718:	1c6a      	adds	r2, r5, #1
 800671a:	9300      	str	r3, [sp, #0]
 800671c:	0049      	lsls	r1, r1, #1
 800671e:	4643      	mov	r3, r8
 8006720:	0020      	movs	r0, r4
 8006722:	f7fe fad5 	bl	8004cd0 <chThdCreateStatic>
 8006726:	4f34      	ldr	r7, [pc, #208]	; (80067f8 <mtx7_execute+0xf8>)
 8006728:	21a8      	movs	r1, #168	; 0xa8
 800672a:	6038      	str	r0, [r7, #0]
 800672c:	0020      	movs	r0, r4
 800672e:	4b33      	ldr	r3, [pc, #204]	; (80067fc <mtx7_execute+0xfc>)
 8006730:	3051      	adds	r0, #81	; 0x51
 8006732:	1caa      	adds	r2, r5, #2
 8006734:	9300      	str	r3, [sp, #0]
 8006736:	0049      	lsls	r1, r1, #1
 8006738:	4643      	mov	r3, r8
 800673a:	30ff      	adds	r0, #255	; 0xff
 800673c:	f7fe fac8 	bl	8004cd0 <chThdCreateStatic>
 8006740:	23a8      	movs	r3, #168	; 0xa8
 8006742:	21a8      	movs	r1, #168	; 0xa8
 8006744:	009b      	lsls	r3, r3, #2
 8006746:	6078      	str	r0, [r7, #4]
 8006748:	18e0      	adds	r0, r4, r3
 800674a:	4b2d      	ldr	r3, [pc, #180]	; (8006800 <mtx7_execute+0x100>)
 800674c:	1cea      	adds	r2, r5, #3
 800674e:	9300      	str	r3, [sp, #0]
 8006750:	0049      	lsls	r1, r1, #1
 8006752:	4643      	mov	r3, r8
 8006754:	f7fe fabc 	bl	8004cd0 <chThdCreateStatic>
 8006758:	23fc      	movs	r3, #252	; 0xfc
 800675a:	21a8      	movs	r1, #168	; 0xa8
 800675c:	009b      	lsls	r3, r3, #2
 800675e:	60b8      	str	r0, [r7, #8]
 8006760:	18e0      	adds	r0, r4, r3
 8006762:	4b28      	ldr	r3, [pc, #160]	; (8006804 <mtx7_execute+0x104>)
 8006764:	1d2a      	adds	r2, r5, #4
 8006766:	9300      	str	r3, [sp, #0]
 8006768:	0049      	lsls	r1, r1, #1
 800676a:	4643      	mov	r3, r8
 800676c:	f7fe fab0 	bl	8004cd0 <chThdCreateStatic>
 8006770:	23a8      	movs	r3, #168	; 0xa8
 8006772:	21a8      	movs	r1, #168	; 0xa8
 8006774:	00db      	lsls	r3, r3, #3
 8006776:	60f8      	str	r0, [r7, #12]
 8006778:	18e0      	adds	r0, r4, r3
 800677a:	4b23      	ldr	r3, [pc, #140]	; (8006808 <mtx7_execute+0x108>)
 800677c:	1d6a      	adds	r2, r5, #5
 800677e:	9300      	str	r3, [sp, #0]
 8006780:	0049      	lsls	r1, r1, #1
 8006782:	4643      	mov	r3, r8
 8006784:	f7fe faa4 	bl	8004cd0 <chThdCreateStatic>
 8006788:	6138      	str	r0, [r7, #16]
 800678a:	b672      	cpsid	i
 800678c:	f7fb f930 	bl	80019f0 <_dbg_check_lock>
 8006790:	f7f9 ffe6 	bl	8000760 <chDbgCheckClassI>
 8006794:	4c1d      	ldr	r4, [pc, #116]	; (800680c <mtx7_execute+0x10c>)
 8006796:	6820      	ldr	r0, [r4, #0]
 8006798:	42a0      	cmp	r0, r4
 800679a:	d00a      	beq.n	80067b2 <mtx7_execute+0xb2>
 800679c:	2502      	movs	r5, #2
 800679e:	426d      	negs	r5, r5
 80067a0:	6803      	ldr	r3, [r0, #0]
 80067a2:	6023      	str	r3, [r4, #0]
 80067a4:	605c      	str	r4, [r3, #4]
 80067a6:	f7fa f82b 	bl	8000800 <chSchReadyI>
 80067aa:	6245      	str	r5, [r0, #36]	; 0x24
 80067ac:	6820      	ldr	r0, [r4, #0]
 80067ae:	42a0      	cmp	r0, r4
 80067b0:	d1f6      	bne.n	80067a0 <mtx7_execute+0xa0>
 80067b2:	f7fa fea5 	bl	8001500 <chSchRescheduleS>
 80067b6:	f7fb f86b 	bl	8001890 <_dbg_check_unlock>
 80067ba:	6833      	ldr	r3, [r6, #0]
 80067bc:	42b3      	cmp	r3, r6
 80067be:	d004      	beq.n	80067ca <mtx7_execute+0xca>
 80067c0:	69b2      	ldr	r2, [r6, #24]
 80067c2:	689b      	ldr	r3, [r3, #8]
 80067c4:	6892      	ldr	r2, [r2, #8]
 80067c6:	429a      	cmp	r2, r3
 80067c8:	d30a      	bcc.n	80067e0 <mtx7_execute+0xe0>
 80067ca:	b662      	cpsie	i
 80067cc:	f7fd fc18 	bl	8004000 <test_wait_threads>
 80067d0:	490f      	ldr	r1, [pc, #60]	; (8006810 <mtx7_execute+0x110>)
 80067d2:	2001      	movs	r0, #1
 80067d4:	f7f9 fedc 	bl	8000590 <_test_assert_sequence>
 80067d8:	b002      	add	sp, #8
 80067da:	bc04      	pop	{r2}
 80067dc:	4690      	mov	r8, r2
 80067de:	bdf0      	pop	{r4, r5, r6, r7, pc}
 80067e0:	b672      	cpsid	i
 80067e2:	4b0c      	ldr	r3, [pc, #48]	; (8006814 <mtx7_execute+0x114>)
 80067e4:	62f3      	str	r3, [r6, #44]	; 0x2c
 80067e6:	e7fe      	b.n	80067e6 <mtx7_execute+0xe6>
 80067e8:	20000738 	.word	0x20000738
 80067ec:	080036b1 	.word	0x080036b1
 80067f0:	20000d58 	.word	0x20000d58
 80067f4:	08008194 	.word	0x08008194
 80067f8:	20001414 	.word	0x20001414
 80067fc:	08007f4c 	.word	0x08007f4c
 8006800:	08007f48 	.word	0x08007f48
 8006804:	08007f44 	.word	0x08007f44
 8006808:	08007f40 	.word	0x08007f40
 800680c:	20000600 	.word	0x20000600
 8006810:	08008190 	.word	0x08008190
 8006814:	080079c0 	.word	0x080079c0
	...

08006820 <mtx6_execute>:
 8006820:	b5f0      	push	{r4, r5, r6, r7, lr}
 8006822:	46c6      	mov	lr, r8
 8006824:	4e35      	ldr	r6, [pc, #212]	; (80068fc <mtx6_execute+0xdc>)
 8006826:	21a8      	movs	r1, #168	; 0xa8
 8006828:	69b3      	ldr	r3, [r6, #24]
 800682a:	b500      	push	{lr}
 800682c:	689d      	ldr	r5, [r3, #8]
 800682e:	4b34      	ldr	r3, [pc, #208]	; (8006900 <mtx6_execute+0xe0>)
 8006830:	4c34      	ldr	r4, [pc, #208]	; (8006904 <mtx6_execute+0xe4>)
 8006832:	4698      	mov	r8, r3
 8006834:	4b34      	ldr	r3, [pc, #208]	; (8006908 <mtx6_execute+0xe8>)
 8006836:	b082      	sub	sp, #8
 8006838:	1c6a      	adds	r2, r5, #1
 800683a:	9300      	str	r3, [sp, #0]
 800683c:	0049      	lsls	r1, r1, #1
 800683e:	4643      	mov	r3, r8
 8006840:	0020      	movs	r0, r4
 8006842:	f7fe fa45 	bl	8004cd0 <chThdCreateStatic>
 8006846:	4f31      	ldr	r7, [pc, #196]	; (800690c <mtx6_execute+0xec>)
 8006848:	21a8      	movs	r1, #168	; 0xa8
 800684a:	6038      	str	r0, [r7, #0]
 800684c:	0020      	movs	r0, r4
 800684e:	4b30      	ldr	r3, [pc, #192]	; (8006910 <mtx6_execute+0xf0>)
 8006850:	3051      	adds	r0, #81	; 0x51
 8006852:	1caa      	adds	r2, r5, #2
 8006854:	9300      	str	r3, [sp, #0]
 8006856:	0049      	lsls	r1, r1, #1
 8006858:	4643      	mov	r3, r8
 800685a:	30ff      	adds	r0, #255	; 0xff
 800685c:	f7fe fa38 	bl	8004cd0 <chThdCreateStatic>
 8006860:	23a8      	movs	r3, #168	; 0xa8
 8006862:	21a8      	movs	r1, #168	; 0xa8
 8006864:	009b      	lsls	r3, r3, #2
 8006866:	6078      	str	r0, [r7, #4]
 8006868:	18e0      	adds	r0, r4, r3
 800686a:	4b2a      	ldr	r3, [pc, #168]	; (8006914 <mtx6_execute+0xf4>)
 800686c:	1cea      	adds	r2, r5, #3
 800686e:	9300      	str	r3, [sp, #0]
 8006870:	0049      	lsls	r1, r1, #1
 8006872:	4643      	mov	r3, r8
 8006874:	f7fe fa2c 	bl	8004cd0 <chThdCreateStatic>
 8006878:	23fc      	movs	r3, #252	; 0xfc
 800687a:	21a8      	movs	r1, #168	; 0xa8
 800687c:	009b      	lsls	r3, r3, #2
 800687e:	60b8      	str	r0, [r7, #8]
 8006880:	18e0      	adds	r0, r4, r3
 8006882:	4b25      	ldr	r3, [pc, #148]	; (8006918 <mtx6_execute+0xf8>)
 8006884:	1d2a      	adds	r2, r5, #4
 8006886:	9300      	str	r3, [sp, #0]
 8006888:	0049      	lsls	r1, r1, #1
 800688a:	4643      	mov	r3, r8
 800688c:	f7fe fa20 	bl	8004cd0 <chThdCreateStatic>
 8006890:	23a8      	movs	r3, #168	; 0xa8
 8006892:	21a8      	movs	r1, #168	; 0xa8
 8006894:	00db      	lsls	r3, r3, #3
 8006896:	60f8      	str	r0, [r7, #12]
 8006898:	18e0      	adds	r0, r4, r3
 800689a:	4b20      	ldr	r3, [pc, #128]	; (800691c <mtx6_execute+0xfc>)
 800689c:	1d6a      	adds	r2, r5, #5
 800689e:	9300      	str	r3, [sp, #0]
 80068a0:	0049      	lsls	r1, r1, #1
 80068a2:	4643      	mov	r3, r8
 80068a4:	f7fe fa14 	bl	8004cd0 <chThdCreateStatic>
 80068a8:	6138      	str	r0, [r7, #16]
 80068aa:	b672      	cpsid	i
 80068ac:	f7fb f8a0 	bl	80019f0 <_dbg_check_lock>
 80068b0:	f7fa fb4e 	bl	8000f50 <chCondSignalI.constprop.47>
 80068b4:	f7fa fb4c 	bl	8000f50 <chCondSignalI.constprop.47>
 80068b8:	f7fa fb4a 	bl	8000f50 <chCondSignalI.constprop.47>
 80068bc:	f7fa fb48 	bl	8000f50 <chCondSignalI.constprop.47>
 80068c0:	f7fa fb46 	bl	8000f50 <chCondSignalI.constprop.47>
 80068c4:	f7fa fe1c 	bl	8001500 <chSchRescheduleS>
 80068c8:	f7fa ffe2 	bl	8001890 <_dbg_check_unlock>
 80068cc:	6833      	ldr	r3, [r6, #0]
 80068ce:	42b3      	cmp	r3, r6
 80068d0:	d004      	beq.n	80068dc <mtx6_execute+0xbc>
 80068d2:	69b2      	ldr	r2, [r6, #24]
 80068d4:	689b      	ldr	r3, [r3, #8]
 80068d6:	6892      	ldr	r2, [r2, #8]
 80068d8:	429a      	cmp	r2, r3
 80068da:	d30a      	bcc.n	80068f2 <mtx6_execute+0xd2>
 80068dc:	b662      	cpsie	i
 80068de:	f7fd fb8f 	bl	8004000 <test_wait_threads>
 80068e2:	490f      	ldr	r1, [pc, #60]	; (8006920 <mtx6_execute+0x100>)
 80068e4:	2001      	movs	r0, #1
 80068e6:	f7f9 fe53 	bl	8000590 <_test_assert_sequence>
 80068ea:	b002      	add	sp, #8
 80068ec:	bc04      	pop	{r2}
 80068ee:	4690      	mov	r8, r2
 80068f0:	bdf0      	pop	{r4, r5, r6, r7, pc}
 80068f2:	b672      	cpsid	i
 80068f4:	4b0b      	ldr	r3, [pc, #44]	; (8006924 <mtx6_execute+0x104>)
 80068f6:	62f3      	str	r3, [r6, #44]	; 0x2c
 80068f8:	e7fe      	b.n	80068f8 <mtx6_execute+0xd8>
 80068fa:	46c0      	nop			; (mov r8, r8)
 80068fc:	20000738 	.word	0x20000738
 8006900:	080036b1 	.word	0x080036b1
 8006904:	20000d58 	.word	0x20000d58
 8006908:	08008194 	.word	0x08008194
 800690c:	20001414 	.word	0x20001414
 8006910:	08007f4c 	.word	0x08007f4c
 8006914:	08007f48 	.word	0x08007f48
 8006918:	08007f44 	.word	0x08007f44
 800691c:	08007f40 	.word	0x08007f40
 8006920:	08008190 	.word	0x08008190
 8006924:	08007900 	.word	0x08007900
	...

08006930 <mtx4_execute>:
 8006930:	b5f0      	push	{r4, r5, r6, r7, lr}
 8006932:	46de      	mov	lr, fp
 8006934:	4657      	mov	r7, sl
 8006936:	464e      	mov	r6, r9
 8006938:	4645      	mov	r5, r8
 800693a:	b5e0      	push	{r5, r6, r7, lr}
 800693c:	4d97      	ldr	r5, [pc, #604]	; (8006b9c <mtx4_execute+0x26c>)
 800693e:	21a8      	movs	r1, #168	; 0xa8
 8006940:	69ab      	ldr	r3, [r5, #24]
 8006942:	4f97      	ldr	r7, [pc, #604]	; (8006ba0 <mtx4_execute+0x270>)
 8006944:	689c      	ldr	r4, [r3, #8]
 8006946:	b083      	sub	sp, #12
 8006948:	1c63      	adds	r3, r4, #1
 800694a:	4698      	mov	r8, r3
 800694c:	1ca3      	adds	r3, r4, #2
 800694e:	4699      	mov	r9, r3
 8006950:	4b94      	ldr	r3, [pc, #592]	; (8006ba4 <mtx4_execute+0x274>)
 8006952:	4642      	mov	r2, r8
 8006954:	469b      	mov	fp, r3
 8006956:	4b94      	ldr	r3, [pc, #592]	; (8006ba8 <mtx4_execute+0x278>)
 8006958:	0049      	lsls	r1, r1, #1
 800695a:	9300      	str	r3, [sp, #0]
 800695c:	0038      	movs	r0, r7
 800695e:	465b      	mov	r3, fp
 8006960:	f7fe f9b6 	bl	8004cd0 <chThdCreateStatic>
 8006964:	4b91      	ldr	r3, [pc, #580]	; (8006bac <mtx4_execute+0x27c>)
 8006966:	21a8      	movs	r1, #168	; 0xa8
 8006968:	469a      	mov	sl, r3
 800696a:	4e91      	ldr	r6, [pc, #580]	; (8006bb0 <mtx4_execute+0x280>)
 800696c:	4b91      	ldr	r3, [pc, #580]	; (8006bb4 <mtx4_execute+0x284>)
 800696e:	6030      	str	r0, [r6, #0]
 8006970:	0049      	lsls	r1, r1, #1
 8006972:	9300      	str	r3, [sp, #0]
 8006974:	464a      	mov	r2, r9
 8006976:	4653      	mov	r3, sl
 8006978:	488f      	ldr	r0, [pc, #572]	; (8006bb8 <mtx4_execute+0x288>)
 800697a:	f7fe f9a9 	bl	8004cd0 <chThdCreateStatic>
 800697e:	6070      	str	r0, [r6, #4]
 8006980:	488e      	ldr	r0, [pc, #568]	; (8006bbc <mtx4_execute+0x28c>)
 8006982:	f7fc fe0d 	bl	80035a0 <chMtxLock>
 8006986:	69ab      	ldr	r3, [r5, #24]
 8006988:	2001      	movs	r0, #1
 800698a:	6899      	ldr	r1, [r3, #8]
 800698c:	1b09      	subs	r1, r1, r4
 800698e:	424b      	negs	r3, r1
 8006990:	4159      	adcs	r1, r3
 8006992:	b2c9      	uxtb	r1, r1
 8006994:	f7f9 fe24 	bl	80005e0 <_test_assert>
 8006998:	2800      	cmp	r0, #0
 800699a:	d006      	beq.n	80069aa <mtx4_execute+0x7a>
 800699c:	b003      	add	sp, #12
 800699e:	bc3c      	pop	{r2, r3, r4, r5}
 80069a0:	4690      	mov	r8, r2
 80069a2:	4699      	mov	r9, r3
 80069a4:	46a2      	mov	sl, r4
 80069a6:	46ab      	mov	fp, r5
 80069a8:	bdf0      	pop	{r4, r5, r6, r7, pc}
 80069aa:	20fa      	movs	r0, #250	; 0xfa
 80069ac:	0080      	lsls	r0, r0, #2
 80069ae:	f7fd fcc7 	bl	8004340 <chThdSleep>
 80069b2:	69ab      	ldr	r3, [r5, #24]
 80069b4:	2002      	movs	r0, #2
 80069b6:	6899      	ldr	r1, [r3, #8]
 80069b8:	4643      	mov	r3, r8
 80069ba:	1ac9      	subs	r1, r1, r3
 80069bc:	424b      	negs	r3, r1
 80069be:	4159      	adcs	r1, r3
 80069c0:	b2c9      	uxtb	r1, r1
 80069c2:	f7f9 fe0d 	bl	80005e0 <_test_assert>
 80069c6:	2800      	cmp	r0, #0
 80069c8:	d1e8      	bne.n	800699c <mtx4_execute+0x6c>
 80069ca:	487d      	ldr	r0, [pc, #500]	; (8006bc0 <mtx4_execute+0x290>)
 80069cc:	f7fc fde8 	bl	80035a0 <chMtxLock>
 80069d0:	69ab      	ldr	r3, [r5, #24]
 80069d2:	2003      	movs	r0, #3
 80069d4:	6899      	ldr	r1, [r3, #8]
 80069d6:	4643      	mov	r3, r8
 80069d8:	1ac9      	subs	r1, r1, r3
 80069da:	424b      	negs	r3, r1
 80069dc:	4159      	adcs	r1, r3
 80069de:	b2c9      	uxtb	r1, r1
 80069e0:	f7f9 fdfe 	bl	80005e0 <_test_assert>
 80069e4:	2800      	cmp	r0, #0
 80069e6:	d1d9      	bne.n	800699c <mtx4_execute+0x6c>
 80069e8:	20fa      	movs	r0, #250	; 0xfa
 80069ea:	0080      	lsls	r0, r0, #2
 80069ec:	f7fd fca8 	bl	8004340 <chThdSleep>
 80069f0:	69ab      	ldr	r3, [r5, #24]
 80069f2:	2004      	movs	r0, #4
 80069f4:	6899      	ldr	r1, [r3, #8]
 80069f6:	464b      	mov	r3, r9
 80069f8:	1ac9      	subs	r1, r1, r3
 80069fa:	424b      	negs	r3, r1
 80069fc:	4159      	adcs	r1, r3
 80069fe:	b2c9      	uxtb	r1, r1
 8006a00:	f7f9 fdee 	bl	80005e0 <_test_assert>
 8006a04:	2800      	cmp	r0, #0
 8006a06:	d1c9      	bne.n	800699c <mtx4_execute+0x6c>
 8006a08:	486d      	ldr	r0, [pc, #436]	; (8006bc0 <mtx4_execute+0x290>)
 8006a0a:	f7fc fd59 	bl	80034c0 <chMtxUnlock>
 8006a0e:	69ab      	ldr	r3, [r5, #24]
 8006a10:	2005      	movs	r0, #5
 8006a12:	6899      	ldr	r1, [r3, #8]
 8006a14:	4643      	mov	r3, r8
 8006a16:	1ac9      	subs	r1, r1, r3
 8006a18:	424b      	negs	r3, r1
 8006a1a:	4159      	adcs	r1, r3
 8006a1c:	b2c9      	uxtb	r1, r1
 8006a1e:	f7f9 fddf 	bl	80005e0 <_test_assert>
 8006a22:	2800      	cmp	r0, #0
 8006a24:	d1ba      	bne.n	800699c <mtx4_execute+0x6c>
 8006a26:	20fa      	movs	r0, #250	; 0xfa
 8006a28:	0080      	lsls	r0, r0, #2
 8006a2a:	f7fd fc89 	bl	8004340 <chThdSleep>
 8006a2e:	69ab      	ldr	r3, [r5, #24]
 8006a30:	2006      	movs	r0, #6
 8006a32:	6899      	ldr	r1, [r3, #8]
 8006a34:	4643      	mov	r3, r8
 8006a36:	1ac9      	subs	r1, r1, r3
 8006a38:	424b      	negs	r3, r1
 8006a3a:	4159      	adcs	r1, r3
 8006a3c:	b2c9      	uxtb	r1, r1
 8006a3e:	f7f9 fdcf 	bl	80005e0 <_test_assert>
 8006a42:	2800      	cmp	r0, #0
 8006a44:	d1aa      	bne.n	800699c <mtx4_execute+0x6c>
 8006a46:	f7fc fcfb 	bl	8003440 <chMtxUnlockAll>
 8006a4a:	69ab      	ldr	r3, [r5, #24]
 8006a4c:	2007      	movs	r0, #7
 8006a4e:	6899      	ldr	r1, [r3, #8]
 8006a50:	1b09      	subs	r1, r1, r4
 8006a52:	424b      	negs	r3, r1
 8006a54:	4159      	adcs	r1, r3
 8006a56:	b2c9      	uxtb	r1, r1
 8006a58:	f7f9 fdc2 	bl	80005e0 <_test_assert>
 8006a5c:	2800      	cmp	r0, #0
 8006a5e:	d19d      	bne.n	800699c <mtx4_execute+0x6c>
 8006a60:	f7fd face 	bl	8004000 <test_wait_threads>
 8006a64:	21a8      	movs	r1, #168	; 0xa8
 8006a66:	4b57      	ldr	r3, [pc, #348]	; (8006bc4 <mtx4_execute+0x294>)
 8006a68:	4642      	mov	r2, r8
 8006a6a:	9300      	str	r3, [sp, #0]
 8006a6c:	0049      	lsls	r1, r1, #1
 8006a6e:	465b      	mov	r3, fp
 8006a70:	0038      	movs	r0, r7
 8006a72:	f7fe f92d 	bl	8004cd0 <chThdCreateStatic>
 8006a76:	21a8      	movs	r1, #168	; 0xa8
 8006a78:	4b53      	ldr	r3, [pc, #332]	; (8006bc8 <mtx4_execute+0x298>)
 8006a7a:	6030      	str	r0, [r6, #0]
 8006a7c:	0049      	lsls	r1, r1, #1
 8006a7e:	9300      	str	r3, [sp, #0]
 8006a80:	464a      	mov	r2, r9
 8006a82:	4653      	mov	r3, sl
 8006a84:	484c      	ldr	r0, [pc, #304]	; (8006bb8 <mtx4_execute+0x288>)
 8006a86:	f7fe f923 	bl	8004cd0 <chThdCreateStatic>
 8006a8a:	6070      	str	r0, [r6, #4]
 8006a8c:	484b      	ldr	r0, [pc, #300]	; (8006bbc <mtx4_execute+0x28c>)
 8006a8e:	f7fc fd87 	bl	80035a0 <chMtxLock>
 8006a92:	69ab      	ldr	r3, [r5, #24]
 8006a94:	2008      	movs	r0, #8
 8006a96:	6899      	ldr	r1, [r3, #8]
 8006a98:	1b09      	subs	r1, r1, r4
 8006a9a:	424b      	negs	r3, r1
 8006a9c:	4159      	adcs	r1, r3
 8006a9e:	b2c9      	uxtb	r1, r1
 8006aa0:	f7f9 fd9e 	bl	80005e0 <_test_assert>
 8006aa4:	2800      	cmp	r0, #0
 8006aa6:	d000      	beq.n	8006aaa <mtx4_execute+0x17a>
 8006aa8:	e778      	b.n	800699c <mtx4_execute+0x6c>
 8006aaa:	20fa      	movs	r0, #250	; 0xfa
 8006aac:	0080      	lsls	r0, r0, #2
 8006aae:	f7fd fc47 	bl	8004340 <chThdSleep>
 8006ab2:	69ab      	ldr	r3, [r5, #24]
 8006ab4:	2009      	movs	r0, #9
 8006ab6:	6899      	ldr	r1, [r3, #8]
 8006ab8:	4643      	mov	r3, r8
 8006aba:	1ac9      	subs	r1, r1, r3
 8006abc:	424b      	negs	r3, r1
 8006abe:	4159      	adcs	r1, r3
 8006ac0:	b2c9      	uxtb	r1, r1
 8006ac2:	f7f9 fd8d 	bl	80005e0 <_test_assert>
 8006ac6:	2800      	cmp	r0, #0
 8006ac8:	d000      	beq.n	8006acc <mtx4_execute+0x19c>
 8006aca:	e767      	b.n	800699c <mtx4_execute+0x6c>
 8006acc:	483c      	ldr	r0, [pc, #240]	; (8006bc0 <mtx4_execute+0x290>)
 8006ace:	f7fc fd67 	bl	80035a0 <chMtxLock>
 8006ad2:	69ab      	ldr	r3, [r5, #24]
 8006ad4:	200a      	movs	r0, #10
 8006ad6:	6899      	ldr	r1, [r3, #8]
 8006ad8:	4643      	mov	r3, r8
 8006ada:	1ac9      	subs	r1, r1, r3
 8006adc:	424b      	negs	r3, r1
 8006ade:	4159      	adcs	r1, r3
 8006ae0:	b2c9      	uxtb	r1, r1
 8006ae2:	f7f9 fd7d 	bl	80005e0 <_test_assert>
 8006ae6:	2800      	cmp	r0, #0
 8006ae8:	d000      	beq.n	8006aec <mtx4_execute+0x1bc>
 8006aea:	e757      	b.n	800699c <mtx4_execute+0x6c>
 8006aec:	20fa      	movs	r0, #250	; 0xfa
 8006aee:	0080      	lsls	r0, r0, #2
 8006af0:	f7fd fc26 	bl	8004340 <chThdSleep>
 8006af4:	69ab      	ldr	r3, [r5, #24]
 8006af6:	200b      	movs	r0, #11
 8006af8:	6899      	ldr	r1, [r3, #8]
 8006afa:	464b      	mov	r3, r9
 8006afc:	1ac9      	subs	r1, r1, r3
 8006afe:	424b      	negs	r3, r1
 8006b00:	4159      	adcs	r1, r3
 8006b02:	b2c9      	uxtb	r1, r1
 8006b04:	f7f9 fd6c 	bl	80005e0 <_test_assert>
 8006b08:	2800      	cmp	r0, #0
 8006b0a:	d000      	beq.n	8006b0e <mtx4_execute+0x1de>
 8006b0c:	e746      	b.n	800699c <mtx4_execute+0x6c>
 8006b0e:	b672      	cpsid	i
 8006b10:	f7fa ff6e 	bl	80019f0 <_dbg_check_lock>
 8006b14:	482a      	ldr	r0, [pc, #168]	; (8006bc0 <mtx4_execute+0x290>)
 8006b16:	f7f9 ff63 	bl	80009e0 <chMtxUnlockS>
 8006b1a:	f7fa fcf1 	bl	8001500 <chSchRescheduleS>
 8006b1e:	f7fa feb7 	bl	8001890 <_dbg_check_unlock>
 8006b22:	682b      	ldr	r3, [r5, #0]
 8006b24:	42ab      	cmp	r3, r5
 8006b26:	d004      	beq.n	8006b32 <mtx4_execute+0x202>
 8006b28:	69aa      	ldr	r2, [r5, #24]
 8006b2a:	689b      	ldr	r3, [r3, #8]
 8006b2c:	6892      	ldr	r2, [r2, #8]
 8006b2e:	429a      	cmp	r2, r3
 8006b30:	d32f      	bcc.n	8006b92 <mtx4_execute+0x262>
 8006b32:	b662      	cpsie	i
 8006b34:	69ab      	ldr	r3, [r5, #24]
 8006b36:	200c      	movs	r0, #12
 8006b38:	6899      	ldr	r1, [r3, #8]
 8006b3a:	4643      	mov	r3, r8
 8006b3c:	1ac9      	subs	r1, r1, r3
 8006b3e:	424b      	negs	r3, r1
 8006b40:	4159      	adcs	r1, r3
 8006b42:	b2c9      	uxtb	r1, r1
 8006b44:	f7f9 fd4c 	bl	80005e0 <_test_assert>
 8006b48:	2800      	cmp	r0, #0
 8006b4a:	d000      	beq.n	8006b4e <mtx4_execute+0x21e>
 8006b4c:	e726      	b.n	800699c <mtx4_execute+0x6c>
 8006b4e:	20fa      	movs	r0, #250	; 0xfa
 8006b50:	0080      	lsls	r0, r0, #2
 8006b52:	f7fd fbf5 	bl	8004340 <chThdSleep>
 8006b56:	69ab      	ldr	r3, [r5, #24]
 8006b58:	200d      	movs	r0, #13
 8006b5a:	6899      	ldr	r1, [r3, #8]
 8006b5c:	4643      	mov	r3, r8
 8006b5e:	1ac9      	subs	r1, r1, r3
 8006b60:	424b      	negs	r3, r1
 8006b62:	4159      	adcs	r1, r3
 8006b64:	b2c9      	uxtb	r1, r1
 8006b66:	f7f9 fd3b 	bl	80005e0 <_test_assert>
 8006b6a:	2800      	cmp	r0, #0
 8006b6c:	d000      	beq.n	8006b70 <mtx4_execute+0x240>
 8006b6e:	e715      	b.n	800699c <mtx4_execute+0x6c>
 8006b70:	f7fc fc66 	bl	8003440 <chMtxUnlockAll>
 8006b74:	69ab      	ldr	r3, [r5, #24]
 8006b76:	200e      	movs	r0, #14
 8006b78:	6899      	ldr	r1, [r3, #8]
 8006b7a:	1b09      	subs	r1, r1, r4
 8006b7c:	424c      	negs	r4, r1
 8006b7e:	4161      	adcs	r1, r4
 8006b80:	b2c9      	uxtb	r1, r1
 8006b82:	f7f9 fd2d 	bl	80005e0 <_test_assert>
 8006b86:	2800      	cmp	r0, #0
 8006b88:	d000      	beq.n	8006b8c <mtx4_execute+0x25c>
 8006b8a:	e707      	b.n	800699c <mtx4_execute+0x6c>
 8006b8c:	f7fd fa38 	bl	8004000 <test_wait_threads>
 8006b90:	e704      	b.n	800699c <mtx4_execute+0x6c>
 8006b92:	b672      	cpsid	i
 8006b94:	4b0d      	ldr	r3, [pc, #52]	; (8006bcc <mtx4_execute+0x29c>)
 8006b96:	62eb      	str	r3, [r5, #44]	; 0x2c
 8006b98:	e7fe      	b.n	8006b98 <mtx4_execute+0x268>
 8006b9a:	46c0      	nop			; (mov r8, r8)
 8006b9c:	20000738 	.word	0x20000738
 8006ba0:	20000d58 	.word	0x20000d58
 8006ba4:	08004631 	.word	0x08004631
 8006ba8:	08007f44 	.word	0x08007f44
 8006bac:	08004651 	.word	0x08004651
 8006bb0:	20001414 	.word	0x20001414
 8006bb4:	08007f40 	.word	0x08007f40
 8006bb8:	20000ea8 	.word	0x20000ea8
 8006bbc:	20000644 	.word	0x20000644
 8006bc0:	20000634 	.word	0x20000634
 8006bc4:	08007f4c 	.word	0x08007f4c
 8006bc8:	08007f48 	.word	0x08007f48
 8006bcc:	08007900 	.word	0x08007900

08006bd0 <mtx1_execute>:
 8006bd0:	b5f0      	push	{r4, r5, r6, r7, lr}
 8006bd2:	46ce      	mov	lr, r9
 8006bd4:	4647      	mov	r7, r8
 8006bd6:	4b31      	ldr	r3, [pc, #196]	; (8006c9c <mtx1_execute+0xcc>)
 8006bd8:	b580      	push	{r7, lr}
 8006bda:	4698      	mov	r8, r3
 8006bdc:	699b      	ldr	r3, [r3, #24]
 8006bde:	b083      	sub	sp, #12
 8006be0:	689d      	ldr	r5, [r3, #8]
 8006be2:	4b2f      	ldr	r3, [pc, #188]	; (8006ca0 <mtx1_execute+0xd0>)
 8006be4:	0018      	movs	r0, r3
 8006be6:	4699      	mov	r9, r3
 8006be8:	f7fc fcda 	bl	80035a0 <chMtxLock>
 8006bec:	21a8      	movs	r1, #168	; 0xa8
 8006bee:	4f2d      	ldr	r7, [pc, #180]	; (8006ca4 <mtx1_execute+0xd4>)
 8006bf0:	4c2d      	ldr	r4, [pc, #180]	; (8006ca8 <mtx1_execute+0xd8>)
 8006bf2:	4b2e      	ldr	r3, [pc, #184]	; (8006cac <mtx1_execute+0xdc>)
 8006bf4:	1c6a      	adds	r2, r5, #1
 8006bf6:	9300      	str	r3, [sp, #0]
 8006bf8:	0049      	lsls	r1, r1, #1
 8006bfa:	003b      	movs	r3, r7
 8006bfc:	0020      	movs	r0, r4
 8006bfe:	f7fe f867 	bl	8004cd0 <chThdCreateStatic>
 8006c02:	4e2b      	ldr	r6, [pc, #172]	; (8006cb0 <mtx1_execute+0xe0>)
 8006c04:	21a8      	movs	r1, #168	; 0xa8
 8006c06:	6030      	str	r0, [r6, #0]
 8006c08:	0020      	movs	r0, r4
 8006c0a:	4b2a      	ldr	r3, [pc, #168]	; (8006cb4 <mtx1_execute+0xe4>)
 8006c0c:	3051      	adds	r0, #81	; 0x51
 8006c0e:	1caa      	adds	r2, r5, #2
 8006c10:	9300      	str	r3, [sp, #0]
 8006c12:	0049      	lsls	r1, r1, #1
 8006c14:	003b      	movs	r3, r7
 8006c16:	30ff      	adds	r0, #255	; 0xff
 8006c18:	f7fe f85a 	bl	8004cd0 <chThdCreateStatic>
 8006c1c:	23a8      	movs	r3, #168	; 0xa8
 8006c1e:	21a8      	movs	r1, #168	; 0xa8
 8006c20:	009b      	lsls	r3, r3, #2
 8006c22:	6070      	str	r0, [r6, #4]
 8006c24:	18e0      	adds	r0, r4, r3
 8006c26:	4b24      	ldr	r3, [pc, #144]	; (8006cb8 <mtx1_execute+0xe8>)
 8006c28:	1cea      	adds	r2, r5, #3
 8006c2a:	9300      	str	r3, [sp, #0]
 8006c2c:	0049      	lsls	r1, r1, #1
 8006c2e:	003b      	movs	r3, r7
 8006c30:	f7fe f84e 	bl	8004cd0 <chThdCreateStatic>
 8006c34:	23fc      	movs	r3, #252	; 0xfc
 8006c36:	21a8      	movs	r1, #168	; 0xa8
 8006c38:	009b      	lsls	r3, r3, #2
 8006c3a:	60b0      	str	r0, [r6, #8]
 8006c3c:	18e0      	adds	r0, r4, r3
 8006c3e:	4b1f      	ldr	r3, [pc, #124]	; (8006cbc <mtx1_execute+0xec>)
 8006c40:	1d2a      	adds	r2, r5, #4
 8006c42:	9300      	str	r3, [sp, #0]
 8006c44:	0049      	lsls	r1, r1, #1
 8006c46:	003b      	movs	r3, r7
 8006c48:	f7fe f842 	bl	8004cd0 <chThdCreateStatic>
 8006c4c:	23a8      	movs	r3, #168	; 0xa8
 8006c4e:	21a8      	movs	r1, #168	; 0xa8
 8006c50:	00db      	lsls	r3, r3, #3
 8006c52:	60f0      	str	r0, [r6, #12]
 8006c54:	18e0      	adds	r0, r4, r3
 8006c56:	4b1a      	ldr	r3, [pc, #104]	; (8006cc0 <mtx1_execute+0xf0>)
 8006c58:	0049      	lsls	r1, r1, #1
 8006c5a:	1d6a      	adds	r2, r5, #5
 8006c5c:	9300      	str	r3, [sp, #0]
 8006c5e:	003b      	movs	r3, r7
 8006c60:	f7fe f836 	bl	8004cd0 <chThdCreateStatic>
 8006c64:	6130      	str	r0, [r6, #16]
 8006c66:	4648      	mov	r0, r9
 8006c68:	f7fc fc2a 	bl	80034c0 <chMtxUnlock>
 8006c6c:	f7fd f9c8 	bl	8004000 <test_wait_threads>
 8006c70:	4643      	mov	r3, r8
 8006c72:	699b      	ldr	r3, [r3, #24]
 8006c74:	2001      	movs	r0, #1
 8006c76:	6899      	ldr	r1, [r3, #8]
 8006c78:	1b49      	subs	r1, r1, r5
 8006c7a:	424b      	negs	r3, r1
 8006c7c:	4159      	adcs	r1, r3
 8006c7e:	b2c9      	uxtb	r1, r1
 8006c80:	f7f9 fcae 	bl	80005e0 <_test_assert>
 8006c84:	2800      	cmp	r0, #0
 8006c86:	d103      	bne.n	8006c90 <mtx1_execute+0xc0>
 8006c88:	490e      	ldr	r1, [pc, #56]	; (8006cc4 <mtx1_execute+0xf4>)
 8006c8a:	3002      	adds	r0, #2
 8006c8c:	f7f9 fc80 	bl	8000590 <_test_assert_sequence>
 8006c90:	b003      	add	sp, #12
 8006c92:	bc0c      	pop	{r2, r3}
 8006c94:	4690      	mov	r8, r2
 8006c96:	4699      	mov	r9, r3
 8006c98:	bdf0      	pop	{r4, r5, r6, r7, pc}
 8006c9a:	46c0      	nop			; (mov r8, r8)
 8006c9c:	20000738 	.word	0x20000738
 8006ca0:	20000634 	.word	0x20000634
 8006ca4:	08003851 	.word	0x08003851
 8006ca8:	20000d58 	.word	0x20000d58
 8006cac:	08008194 	.word	0x08008194
 8006cb0:	20001414 	.word	0x20001414
 8006cb4:	08007f4c 	.word	0x08007f4c
 8006cb8:	08007f48 	.word	0x08007f48
 8006cbc:	08007f44 	.word	0x08007f44
 8006cc0:	08007f40 	.word	0x08007f40
 8006cc4:	08008190 	.word	0x08008190
	...

08006cd0 <sem4_execute>:
 8006cd0:	2300      	movs	r3, #0
 8006cd2:	b530      	push	{r4, r5, lr}
 8006cd4:	b087      	sub	sp, #28
 8006cd6:	ad03      	add	r5, sp, #12
 8006cd8:	0028      	movs	r0, r5
 8006cda:	9503      	str	r5, [sp, #12]
 8006cdc:	606d      	str	r5, [r5, #4]
 8006cde:	60ab      	str	r3, [r5, #8]
 8006ce0:	f7fa fe9e 	bl	8001a20 <chSemReset.constprop.56>
 8006ce4:	b672      	cpsid	i
 8006ce6:	f7fa fe83 	bl	80019f0 <_dbg_check_lock>
 8006cea:	f7f9 fd39 	bl	8000760 <chDbgCheckClassI>
 8006cee:	9b05      	ldr	r3, [sp, #20]
 8006cf0:	2001      	movs	r0, #1
 8006cf2:	1e59      	subs	r1, r3, #1
 8006cf4:	4319      	orrs	r1, r3
 8006cf6:	0fc9      	lsrs	r1, r1, #31
 8006cf8:	f7f9 fc72 	bl	80005e0 <_test_assert>
 8006cfc:	2800      	cmp	r0, #0
 8006cfe:	d00e      	beq.n	8006d1e <sem4_execute+0x4e>
 8006d00:	f7fa fdc6 	bl	8001890 <_dbg_check_unlock>
 8006d04:	4ba7      	ldr	r3, [pc, #668]	; (8006fa4 <sem4_execute+0x2d4>)
 8006d06:	681a      	ldr	r2, [r3, #0]
 8006d08:	429a      	cmp	r2, r3
 8006d0a:	d005      	beq.n	8006d18 <sem4_execute+0x48>
 8006d0c:	6999      	ldr	r1, [r3, #24]
 8006d0e:	6892      	ldr	r2, [r2, #8]
 8006d10:	6889      	ldr	r1, [r1, #8]
 8006d12:	4291      	cmp	r1, r2
 8006d14:	d200      	bcs.n	8006d18 <sem4_execute+0x48>
 8006d16:	e07e      	b.n	8006e16 <sem4_execute+0x146>
 8006d18:	b662      	cpsie	i
 8006d1a:	b007      	add	sp, #28
 8006d1c:	bd30      	pop	{r4, r5, pc}
 8006d1e:	f7fa fdb7 	bl	8001890 <_dbg_check_unlock>
 8006d22:	4ca0      	ldr	r4, [pc, #640]	; (8006fa4 <sem4_execute+0x2d4>)
 8006d24:	6823      	ldr	r3, [r4, #0]
 8006d26:	42a3      	cmp	r3, r4
 8006d28:	d004      	beq.n	8006d34 <sem4_execute+0x64>
 8006d2a:	69a2      	ldr	r2, [r4, #24]
 8006d2c:	689b      	ldr	r3, [r3, #8]
 8006d2e:	6892      	ldr	r2, [r2, #8]
 8006d30:	429a      	cmp	r2, r3
 8006d32:	d36c      	bcc.n	8006e0e <sem4_execute+0x13e>
 8006d34:	b662      	cpsie	i
 8006d36:	21a8      	movs	r1, #168	; 0xa8
 8006d38:	69a3      	ldr	r3, [r4, #24]
 8006d3a:	0049      	lsls	r1, r1, #1
 8006d3c:	689a      	ldr	r2, [r3, #8]
 8006d3e:	489a      	ldr	r0, [pc, #616]	; (8006fa8 <sem4_execute+0x2d8>)
 8006d40:	3a01      	subs	r2, #1
 8006d42:	9500      	str	r5, [sp, #0]
 8006d44:	4b99      	ldr	r3, [pc, #612]	; (8006fac <sem4_execute+0x2dc>)
 8006d46:	f7fd ffc3 	bl	8004cd0 <chThdCreateStatic>
 8006d4a:	4b99      	ldr	r3, [pc, #612]	; (8006fb0 <sem4_execute+0x2e0>)
 8006d4c:	6018      	str	r0, [r3, #0]
 8006d4e:	0028      	movs	r0, r5
 8006d50:	f7fc fff6 	bl	8003d40 <chSemWait>
 8006d54:	b672      	cpsid	i
 8006d56:	f7fa fe4b 	bl	80019f0 <_dbg_check_lock>
 8006d5a:	f7f9 fd01 	bl	8000760 <chDbgCheckClassI>
 8006d5e:	9b05      	ldr	r3, [sp, #20]
 8006d60:	2002      	movs	r0, #2
 8006d62:	1e59      	subs	r1, r3, #1
 8006d64:	4319      	orrs	r1, r3
 8006d66:	0fc9      	lsrs	r1, r1, #31
 8006d68:	f7f9 fc3a 	bl	80005e0 <_test_assert>
 8006d6c:	2800      	cmp	r0, #0
 8006d6e:	d13e      	bne.n	8006dee <sem4_execute+0x11e>
 8006d70:	f7fa fd8e 	bl	8001890 <_dbg_check_unlock>
 8006d74:	6823      	ldr	r3, [r4, #0]
 8006d76:	42a3      	cmp	r3, r4
 8006d78:	d004      	beq.n	8006d84 <sem4_execute+0xb4>
 8006d7a:	69a2      	ldr	r2, [r4, #24]
 8006d7c:	689b      	ldr	r3, [r3, #8]
 8006d7e:	6892      	ldr	r2, [r2, #8]
 8006d80:	429a      	cmp	r2, r3
 8006d82:	d34c      	bcc.n	8006e1e <sem4_execute+0x14e>
 8006d84:	b662      	cpsie	i
 8006d86:	b672      	cpsid	i
 8006d88:	f7fa fe32 	bl	80019f0 <_dbg_check_lock>
 8006d8c:	f7f9 fce8 	bl	8000760 <chDbgCheckClassI>
 8006d90:	68ab      	ldr	r3, [r5, #8]
 8006d92:	2b00      	cmp	r3, #0
 8006d94:	dc00      	bgt.n	8006d98 <sem4_execute+0xc8>
 8006d96:	e0f1      	b.n	8006f7c <sem4_execute+0x2ac>
 8006d98:	f7fa fbb2 	bl	8001500 <chSchRescheduleS>
 8006d9c:	f7fa fd78 	bl	8001890 <_dbg_check_unlock>
 8006da0:	6823      	ldr	r3, [r4, #0]
 8006da2:	42a3      	cmp	r3, r4
 8006da4:	d005      	beq.n	8006db2 <sem4_execute+0xe2>
 8006da6:	69a2      	ldr	r2, [r4, #24]
 8006da8:	689b      	ldr	r3, [r3, #8]
 8006daa:	6892      	ldr	r2, [r2, #8]
 8006dac:	429a      	cmp	r2, r3
 8006dae:	d200      	bcs.n	8006db2 <sem4_execute+0xe2>
 8006db0:	e0e0      	b.n	8006f74 <sem4_execute+0x2a4>
 8006db2:	b662      	cpsie	i
 8006db4:	b672      	cpsid	i
 8006db6:	f7fa fe1b 	bl	80019f0 <_dbg_check_lock>
 8006dba:	f7f9 fcd1 	bl	8000760 <chDbgCheckClassI>
 8006dbe:	9b05      	ldr	r3, [sp, #20]
 8006dc0:	2003      	movs	r0, #3
 8006dc2:	17d9      	asrs	r1, r3, #31
 8006dc4:	1ac9      	subs	r1, r1, r3
 8006dc6:	0fc9      	lsrs	r1, r1, #31
 8006dc8:	f7f9 fc0a 	bl	80005e0 <_test_assert>
 8006dcc:	2800      	cmp	r0, #0
 8006dce:	d02a      	beq.n	8006e26 <sem4_execute+0x156>
 8006dd0:	f7fa fd5e 	bl	8001890 <_dbg_check_unlock>
 8006dd4:	6823      	ldr	r3, [r4, #0]
 8006dd6:	42a3      	cmp	r3, r4
 8006dd8:	d09e      	beq.n	8006d18 <sem4_execute+0x48>
 8006dda:	69a2      	ldr	r2, [r4, #24]
 8006ddc:	689b      	ldr	r3, [r3, #8]
 8006dde:	6892      	ldr	r2, [r2, #8]
 8006de0:	429a      	cmp	r2, r3
 8006de2:	d300      	bcc.n	8006de6 <sem4_execute+0x116>
 8006de4:	e798      	b.n	8006d18 <sem4_execute+0x48>
 8006de6:	b672      	cpsid	i
 8006de8:	4b72      	ldr	r3, [pc, #456]	; (8006fb4 <sem4_execute+0x2e4>)
 8006dea:	62e3      	str	r3, [r4, #44]	; 0x2c
 8006dec:	e7fe      	b.n	8006dec <sem4_execute+0x11c>
 8006dee:	f7fa fd4f 	bl	8001890 <_dbg_check_unlock>
 8006df2:	6823      	ldr	r3, [r4, #0]
 8006df4:	42a3      	cmp	r3, r4
 8006df6:	d100      	bne.n	8006dfa <sem4_execute+0x12a>
 8006df8:	e78e      	b.n	8006d18 <sem4_execute+0x48>
 8006dfa:	69a2      	ldr	r2, [r4, #24]
 8006dfc:	689b      	ldr	r3, [r3, #8]
 8006dfe:	6892      	ldr	r2, [r2, #8]
 8006e00:	429a      	cmp	r2, r3
 8006e02:	d300      	bcc.n	8006e06 <sem4_execute+0x136>
 8006e04:	e788      	b.n	8006d18 <sem4_execute+0x48>
 8006e06:	b672      	cpsid	i
 8006e08:	4b6a      	ldr	r3, [pc, #424]	; (8006fb4 <sem4_execute+0x2e4>)
 8006e0a:	62e3      	str	r3, [r4, #44]	; 0x2c
 8006e0c:	e7fe      	b.n	8006e0c <sem4_execute+0x13c>
 8006e0e:	b672      	cpsid	i
 8006e10:	4b68      	ldr	r3, [pc, #416]	; (8006fb4 <sem4_execute+0x2e4>)
 8006e12:	62e3      	str	r3, [r4, #44]	; 0x2c
 8006e14:	e7fe      	b.n	8006e14 <sem4_execute+0x144>
 8006e16:	b672      	cpsid	i
 8006e18:	4a66      	ldr	r2, [pc, #408]	; (8006fb4 <sem4_execute+0x2e4>)
 8006e1a:	62da      	str	r2, [r3, #44]	; 0x2c
 8006e1c:	e7fe      	b.n	8006e1c <sem4_execute+0x14c>
 8006e1e:	b672      	cpsid	i
 8006e20:	4b64      	ldr	r3, [pc, #400]	; (8006fb4 <sem4_execute+0x2e4>)
 8006e22:	62e3      	str	r3, [r4, #44]	; 0x2c
 8006e24:	e7fe      	b.n	8006e24 <sem4_execute+0x154>
 8006e26:	f7fa fd33 	bl	8001890 <_dbg_check_unlock>
 8006e2a:	6823      	ldr	r3, [r4, #0]
 8006e2c:	42a3      	cmp	r3, r4
 8006e2e:	d005      	beq.n	8006e3c <sem4_execute+0x16c>
 8006e30:	69a2      	ldr	r2, [r4, #24]
 8006e32:	689b      	ldr	r3, [r3, #8]
 8006e34:	6892      	ldr	r2, [r2, #8]
 8006e36:	429a      	cmp	r2, r3
 8006e38:	d200      	bcs.n	8006e3c <sem4_execute+0x16c>
 8006e3a:	e0a3      	b.n	8006f84 <sem4_execute+0x2b4>
 8006e3c:	b662      	cpsie	i
 8006e3e:	b672      	cpsid	i
 8006e40:	f7fa fdd6 	bl	80019f0 <_dbg_check_lock>
 8006e44:	f7f9 fc8c 	bl	8000760 <chDbgCheckClassI>
 8006e48:	9b05      	ldr	r3, [sp, #20]
 8006e4a:	2004      	movs	r0, #4
 8006e4c:	1e59      	subs	r1, r3, #1
 8006e4e:	424b      	negs	r3, r1
 8006e50:	4159      	adcs	r1, r3
 8006e52:	b2c9      	uxtb	r1, r1
 8006e54:	f7f9 fbc4 	bl	80005e0 <_test_assert>
 8006e58:	2800      	cmp	r0, #0
 8006e5a:	d00f      	beq.n	8006e7c <sem4_execute+0x1ac>
 8006e5c:	f7fa fd18 	bl	8001890 <_dbg_check_unlock>
 8006e60:	6823      	ldr	r3, [r4, #0]
 8006e62:	42a3      	cmp	r3, r4
 8006e64:	d100      	bne.n	8006e68 <sem4_execute+0x198>
 8006e66:	e757      	b.n	8006d18 <sem4_execute+0x48>
 8006e68:	69a2      	ldr	r2, [r4, #24]
 8006e6a:	689b      	ldr	r3, [r3, #8]
 8006e6c:	6892      	ldr	r2, [r2, #8]
 8006e6e:	429a      	cmp	r2, r3
 8006e70:	d300      	bcc.n	8006e74 <sem4_execute+0x1a4>
 8006e72:	e751      	b.n	8006d18 <sem4_execute+0x48>
 8006e74:	b672      	cpsid	i
 8006e76:	4b4f      	ldr	r3, [pc, #316]	; (8006fb4 <sem4_execute+0x2e4>)
 8006e78:	62e3      	str	r3, [r4, #44]	; 0x2c
 8006e7a:	e7fe      	b.n	8006e7a <sem4_execute+0x1aa>
 8006e7c:	f7fa fd08 	bl	8001890 <_dbg_check_unlock>
 8006e80:	6823      	ldr	r3, [r4, #0]
 8006e82:	42a3      	cmp	r3, r4
 8006e84:	d005      	beq.n	8006e92 <sem4_execute+0x1c2>
 8006e86:	69a2      	ldr	r2, [r4, #24]
 8006e88:	689b      	ldr	r3, [r3, #8]
 8006e8a:	6892      	ldr	r2, [r2, #8]
 8006e8c:	429a      	cmp	r2, r3
 8006e8e:	d200      	bcs.n	8006e92 <sem4_execute+0x1c2>
 8006e90:	e07c      	b.n	8006f8c <sem4_execute+0x2bc>
 8006e92:	b662      	cpsie	i
 8006e94:	b672      	cpsid	i
 8006e96:	f7fa fdab 	bl	80019f0 <_dbg_check_lock>
 8006e9a:	f7f9 fc61 	bl	8000760 <chDbgCheckClassI>
 8006e9e:	68ab      	ldr	r3, [r5, #8]
 8006ea0:	2b00      	cmp	r3, #0
 8006ea2:	dc02      	bgt.n	8006eaa <sem4_execute+0x1da>
 8006ea4:	0028      	movs	r0, r5
 8006ea6:	f7f9 fdf3 	bl	8000a90 <chSemSignalI>
 8006eaa:	f7fa fb29 	bl	8001500 <chSchRescheduleS>
 8006eae:	f7fa fcef 	bl	8001890 <_dbg_check_unlock>
 8006eb2:	6823      	ldr	r3, [r4, #0]
 8006eb4:	42a3      	cmp	r3, r4
 8006eb6:	d004      	beq.n	8006ec2 <sem4_execute+0x1f2>
 8006eb8:	69a2      	ldr	r2, [r4, #24]
 8006eba:	689b      	ldr	r3, [r3, #8]
 8006ebc:	6892      	ldr	r2, [r2, #8]
 8006ebe:	429a      	cmp	r2, r3
 8006ec0:	d368      	bcc.n	8006f94 <sem4_execute+0x2c4>
 8006ec2:	b662      	cpsie	i
 8006ec4:	b672      	cpsid	i
 8006ec6:	f7fa fd93 	bl	80019f0 <_dbg_check_lock>
 8006eca:	f7f9 fc49 	bl	8000760 <chDbgCheckClassI>
 8006ece:	9b05      	ldr	r3, [sp, #20]
 8006ed0:	2003      	movs	r0, #3
 8006ed2:	17d9      	asrs	r1, r3, #31
 8006ed4:	1ac9      	subs	r1, r1, r3
 8006ed6:	0fc9      	lsrs	r1, r1, #31
 8006ed8:	f7f9 fb82 	bl	80005e0 <_test_assert>
 8006edc:	2800      	cmp	r0, #0
 8006ede:	d00f      	beq.n	8006f00 <sem4_execute+0x230>
 8006ee0:	f7fa fcd6 	bl	8001890 <_dbg_check_unlock>
 8006ee4:	6823      	ldr	r3, [r4, #0]
 8006ee6:	42a3      	cmp	r3, r4
 8006ee8:	d100      	bne.n	8006eec <sem4_execute+0x21c>
 8006eea:	e715      	b.n	8006d18 <sem4_execute+0x48>
 8006eec:	69a2      	ldr	r2, [r4, #24]
 8006eee:	689b      	ldr	r3, [r3, #8]
 8006ef0:	6892      	ldr	r2, [r2, #8]
 8006ef2:	429a      	cmp	r2, r3
 8006ef4:	d300      	bcc.n	8006ef8 <sem4_execute+0x228>
 8006ef6:	e70f      	b.n	8006d18 <sem4_execute+0x48>
 8006ef8:	b672      	cpsid	i
 8006efa:	4b2e      	ldr	r3, [pc, #184]	; (8006fb4 <sem4_execute+0x2e4>)
 8006efc:	62e3      	str	r3, [r4, #44]	; 0x2c
 8006efe:	e7fe      	b.n	8006efe <sem4_execute+0x22e>
 8006f00:	f7fa fcc6 	bl	8001890 <_dbg_check_unlock>
 8006f04:	6823      	ldr	r3, [r4, #0]
 8006f06:	42a3      	cmp	r3, r4
 8006f08:	d004      	beq.n	8006f14 <sem4_execute+0x244>
 8006f0a:	69a2      	ldr	r2, [r4, #24]
 8006f0c:	689b      	ldr	r3, [r3, #8]
 8006f0e:	6892      	ldr	r2, [r2, #8]
 8006f10:	429a      	cmp	r2, r3
 8006f12:	d343      	bcc.n	8006f9c <sem4_execute+0x2cc>
 8006f14:	b662      	cpsie	i
 8006f16:	b672      	cpsid	i
 8006f18:	f7fa fd6a 	bl	80019f0 <_dbg_check_lock>
 8006f1c:	f7f9 fc20 	bl	8000760 <chDbgCheckClassI>
 8006f20:	9b05      	ldr	r3, [sp, #20]
 8006f22:	2005      	movs	r0, #5
 8006f24:	1e59      	subs	r1, r3, #1
 8006f26:	424b      	negs	r3, r1
 8006f28:	4159      	adcs	r1, r3
 8006f2a:	b2c9      	uxtb	r1, r1
 8006f2c:	f7f9 fb58 	bl	80005e0 <_test_assert>
 8006f30:	2800      	cmp	r0, #0
 8006f32:	d00f      	beq.n	8006f54 <sem4_execute+0x284>
 8006f34:	f7fa fcac 	bl	8001890 <_dbg_check_unlock>
 8006f38:	6823      	ldr	r3, [r4, #0]
 8006f3a:	42a3      	cmp	r3, r4
 8006f3c:	d100      	bne.n	8006f40 <sem4_execute+0x270>
 8006f3e:	e6eb      	b.n	8006d18 <sem4_execute+0x48>
 8006f40:	69a2      	ldr	r2, [r4, #24]
 8006f42:	689b      	ldr	r3, [r3, #8]
 8006f44:	6892      	ldr	r2, [r2, #8]
 8006f46:	429a      	cmp	r2, r3
 8006f48:	d300      	bcc.n	8006f4c <sem4_execute+0x27c>
 8006f4a:	e6e5      	b.n	8006d18 <sem4_execute+0x48>
 8006f4c:	b672      	cpsid	i
 8006f4e:	4b19      	ldr	r3, [pc, #100]	; (8006fb4 <sem4_execute+0x2e4>)
 8006f50:	62e3      	str	r3, [r4, #44]	; 0x2c
 8006f52:	e7fe      	b.n	8006f52 <sem4_execute+0x282>
 8006f54:	f7fa fc9c 	bl	8001890 <_dbg_check_unlock>
 8006f58:	6823      	ldr	r3, [r4, #0]
 8006f5a:	42a3      	cmp	r3, r4
 8006f5c:	d100      	bne.n	8006f60 <sem4_execute+0x290>
 8006f5e:	e6db      	b.n	8006d18 <sem4_execute+0x48>
 8006f60:	69a2      	ldr	r2, [r4, #24]
 8006f62:	689b      	ldr	r3, [r3, #8]
 8006f64:	6892      	ldr	r2, [r2, #8]
 8006f66:	429a      	cmp	r2, r3
 8006f68:	d300      	bcc.n	8006f6c <sem4_execute+0x29c>
 8006f6a:	e6d5      	b.n	8006d18 <sem4_execute+0x48>
 8006f6c:	b672      	cpsid	i
 8006f6e:	4b11      	ldr	r3, [pc, #68]	; (8006fb4 <sem4_execute+0x2e4>)
 8006f70:	62e3      	str	r3, [r4, #44]	; 0x2c
 8006f72:	e7fe      	b.n	8006f72 <sem4_execute+0x2a2>
 8006f74:	b672      	cpsid	i
 8006f76:	4b0f      	ldr	r3, [pc, #60]	; (8006fb4 <sem4_execute+0x2e4>)
 8006f78:	62e3      	str	r3, [r4, #44]	; 0x2c
 8006f7a:	e7fe      	b.n	8006f7a <sem4_execute+0x2aa>
 8006f7c:	0028      	movs	r0, r5
 8006f7e:	f7f9 fd87 	bl	8000a90 <chSemSignalI>
 8006f82:	e709      	b.n	8006d98 <sem4_execute+0xc8>
 8006f84:	b672      	cpsid	i
 8006f86:	4b0b      	ldr	r3, [pc, #44]	; (8006fb4 <sem4_execute+0x2e4>)
 8006f88:	62e3      	str	r3, [r4, #44]	; 0x2c
 8006f8a:	e7fe      	b.n	8006f8a <sem4_execute+0x2ba>
 8006f8c:	b672      	cpsid	i
 8006f8e:	4b09      	ldr	r3, [pc, #36]	; (8006fb4 <sem4_execute+0x2e4>)
 8006f90:	62e3      	str	r3, [r4, #44]	; 0x2c
 8006f92:	e7fe      	b.n	8006f92 <sem4_execute+0x2c2>
 8006f94:	b672      	cpsid	i
 8006f96:	4b07      	ldr	r3, [pc, #28]	; (8006fb4 <sem4_execute+0x2e4>)
 8006f98:	62e3      	str	r3, [r4, #44]	; 0x2c
 8006f9a:	e7fe      	b.n	8006f9a <sem4_execute+0x2ca>
 8006f9c:	b672      	cpsid	i
 8006f9e:	4b05      	ldr	r3, [pc, #20]	; (8006fb4 <sem4_execute+0x2e4>)
 8006fa0:	62e3      	str	r3, [r4, #44]	; 0x2c
 8006fa2:	e7fe      	b.n	8006fa2 <sem4_execute+0x2d2>
 8006fa4:	20000738 	.word	0x20000738
 8006fa8:	20000d58 	.word	0x20000d58
 8006fac:	080022d1 	.word	0x080022d1
 8006fb0:	20001414 	.word	0x20001414
 8006fb4:	080078f0 	.word	0x080078f0
	...

08006fc0 <sem3_execute>:
 8006fc0:	4b1d      	ldr	r3, [pc, #116]	; (8007038 <sem3_execute+0x78>)
 8006fc2:	21a8      	movs	r1, #168	; 0xa8
 8006fc4:	699b      	ldr	r3, [r3, #24]
 8006fc6:	b510      	push	{r4, lr}
 8006fc8:	689a      	ldr	r2, [r3, #8]
 8006fca:	2300      	movs	r3, #0
 8006fcc:	b082      	sub	sp, #8
 8006fce:	0049      	lsls	r1, r1, #1
 8006fd0:	3201      	adds	r2, #1
 8006fd2:	9300      	str	r3, [sp, #0]
 8006fd4:	4819      	ldr	r0, [pc, #100]	; (800703c <sem3_execute+0x7c>)
 8006fd6:	4b1a      	ldr	r3, [pc, #104]	; (8007040 <sem3_execute+0x80>)
 8006fd8:	f7fd fe7a 	bl	8004cd0 <chThdCreateStatic>
 8006fdc:	4b19      	ldr	r3, [pc, #100]	; (8007044 <sem3_execute+0x84>)
 8006fde:	6018      	str	r0, [r3, #0]
 8006fe0:	f7fa fd3e 	bl	8001a60 <chSemSignalWait.constprop.53>
 8006fe4:	4c18      	ldr	r4, [pc, #96]	; (8007048 <sem3_execute+0x88>)
 8006fe6:	2001      	movs	r0, #1
 8006fe8:	6823      	ldr	r3, [r4, #0]
 8006fea:	1b19      	subs	r1, r3, r4
 8006fec:	424b      	negs	r3, r1
 8006fee:	4159      	adcs	r1, r3
 8006ff0:	b2c9      	uxtb	r1, r1
 8006ff2:	f7f9 faf5 	bl	80005e0 <_test_assert>
 8006ff6:	2800      	cmp	r0, #0
 8006ff8:	d001      	beq.n	8006ffe <sem3_execute+0x3e>
 8006ffa:	b002      	add	sp, #8
 8006ffc:	bd10      	pop	{r4, pc}
 8006ffe:	68a1      	ldr	r1, [r4, #8]
 8007000:	3002      	adds	r0, #2
 8007002:	424b      	negs	r3, r1
 8007004:	4159      	adcs	r1, r3
 8007006:	b2c9      	uxtb	r1, r1
 8007008:	f7f9 faea 	bl	80005e0 <_test_assert>
 800700c:	2800      	cmp	r0, #0
 800700e:	d1f4      	bne.n	8006ffa <sem3_execute+0x3a>
 8007010:	f7fa fd26 	bl	8001a60 <chSemSignalWait.constprop.53>
 8007014:	6823      	ldr	r3, [r4, #0]
 8007016:	2003      	movs	r0, #3
 8007018:	1b19      	subs	r1, r3, r4
 800701a:	424b      	negs	r3, r1
 800701c:	4159      	adcs	r1, r3
 800701e:	b2c9      	uxtb	r1, r1
 8007020:	f7f9 fade 	bl	80005e0 <_test_assert>
 8007024:	2800      	cmp	r0, #0
 8007026:	d1e8      	bne.n	8006ffa <sem3_execute+0x3a>
 8007028:	68a1      	ldr	r1, [r4, #8]
 800702a:	3004      	adds	r0, #4
 800702c:	424b      	negs	r3, r1
 800702e:	4159      	adcs	r1, r3
 8007030:	b2c9      	uxtb	r1, r1
 8007032:	f7f9 fad5 	bl	80005e0 <_test_assert>
 8007036:	e7e0      	b.n	8006ffa <sem3_execute+0x3a>
 8007038:	20000738 	.word	0x20000738
 800703c:	20000d58 	.word	0x20000d58
 8007040:	08003df1 	.word	0x08003df1
 8007044:	20001414 	.word	0x20001414
 8007048:	200006ac 	.word	0x200006ac
 800704c:	00000000 	.word	0x00000000

08007050 <sem2_execute>:
 8007050:	b5f0      	push	{r4, r5, r6, r7, lr}
 8007052:	46de      	mov	lr, fp
 8007054:	4657      	mov	r7, sl
 8007056:	464e      	mov	r6, r9
 8007058:	4645      	mov	r5, r8
 800705a:	b5e0      	push	{r5, r6, r7, lr}
 800705c:	b083      	sub	sp, #12
 800705e:	b672      	cpsid	i
 8007060:	f7fa fcc6 	bl	80019f0 <_dbg_check_lock>
 8007064:	4d73      	ldr	r5, [pc, #460]	; (8007234 <sem2_execute+0x1e4>)
 8007066:	2100      	movs	r1, #0
 8007068:	0028      	movs	r0, r5
 800706a:	f7fa fb61 	bl	8001730 <chSemWaitTimeoutS>
 800706e:	0006      	movs	r6, r0
 8007070:	f7fa fc0e 	bl	8001890 <_dbg_check_unlock>
 8007074:	4c70      	ldr	r4, [pc, #448]	; (8007238 <sem2_execute+0x1e8>)
 8007076:	6823      	ldr	r3, [r4, #0]
 8007078:	42a3      	cmp	r3, r4
 800707a:	d004      	beq.n	8007086 <sem2_execute+0x36>
 800707c:	69a2      	ldr	r2, [r4, #24]
 800707e:	689b      	ldr	r3, [r3, #8]
 8007080:	6892      	ldr	r2, [r2, #8]
 8007082:	429a      	cmp	r2, r3
 8007084:	d310      	bcc.n	80070a8 <sem2_execute+0x58>
 8007086:	b662      	cpsie	i
 8007088:	3601      	adds	r6, #1
 800708a:	4271      	negs	r1, r6
 800708c:	4171      	adcs	r1, r6
 800708e:	2001      	movs	r0, #1
 8007090:	b2c9      	uxtb	r1, r1
 8007092:	f7f9 faa5 	bl	80005e0 <_test_assert>
 8007096:	2800      	cmp	r0, #0
 8007098:	d00a      	beq.n	80070b0 <sem2_execute+0x60>
 800709a:	b003      	add	sp, #12
 800709c:	bc3c      	pop	{r2, r3, r4, r5}
 800709e:	4690      	mov	r8, r2
 80070a0:	4699      	mov	r9, r3
 80070a2:	46a2      	mov	sl, r4
 80070a4:	46ab      	mov	fp, r5
 80070a6:	bdf0      	pop	{r4, r5, r6, r7, pc}
 80070a8:	b672      	cpsid	i
 80070aa:	4b64      	ldr	r3, [pc, #400]	; (800723c <sem2_execute+0x1ec>)
 80070ac:	62e3      	str	r3, [r4, #44]	; 0x2c
 80070ae:	e7fe      	b.n	80070ae <sem2_execute+0x5e>
 80070b0:	682b      	ldr	r3, [r5, #0]
 80070b2:	3002      	adds	r0, #2
 80070b4:	1b59      	subs	r1, r3, r5
 80070b6:	424b      	negs	r3, r1
 80070b8:	4159      	adcs	r1, r3
 80070ba:	b2c9      	uxtb	r1, r1
 80070bc:	f7f9 fa90 	bl	80005e0 <_test_assert>
 80070c0:	2800      	cmp	r0, #0
 80070c2:	d1ea      	bne.n	800709a <sem2_execute+0x4a>
 80070c4:	68a9      	ldr	r1, [r5, #8]
 80070c6:	3003      	adds	r0, #3
 80070c8:	424b      	negs	r3, r1
 80070ca:	4159      	adcs	r1, r3
 80070cc:	b2c9      	uxtb	r1, r1
 80070ce:	f7f9 fa87 	bl	80005e0 <_test_assert>
 80070d2:	2800      	cmp	r0, #0
 80070d4:	d1e1      	bne.n	800709a <sem2_execute+0x4a>
 80070d6:	21a8      	movs	r1, #168	; 0xa8
 80070d8:	69a3      	ldr	r3, [r4, #24]
 80070da:	0049      	lsls	r1, r1, #1
 80070dc:	689a      	ldr	r2, [r3, #8]
 80070de:	9000      	str	r0, [sp, #0]
 80070e0:	3a01      	subs	r2, #1
 80070e2:	4b57      	ldr	r3, [pc, #348]	; (8007240 <sem2_execute+0x1f0>)
 80070e4:	4857      	ldr	r0, [pc, #348]	; (8007244 <sem2_execute+0x1f4>)
 80070e6:	f7fd fdf3 	bl	8004cd0 <chThdCreateStatic>
 80070ea:	4b57      	ldr	r3, [pc, #348]	; (8007248 <sem2_execute+0x1f8>)
 80070ec:	6018      	str	r0, [r3, #0]
 80070ee:	b672      	cpsid	i
 80070f0:	f7fa fc7e 	bl	80019f0 <_dbg_check_lock>
 80070f4:	4955      	ldr	r1, [pc, #340]	; (800724c <sem2_execute+0x1fc>)
 80070f6:	0028      	movs	r0, r5
 80070f8:	f7fa fb1a 	bl	8001730 <chSemWaitTimeoutS>
 80070fc:	0006      	movs	r6, r0
 80070fe:	f7fa fbc7 	bl	8001890 <_dbg_check_unlock>
 8007102:	6823      	ldr	r3, [r4, #0]
 8007104:	42a3      	cmp	r3, r4
 8007106:	d005      	beq.n	8007114 <sem2_execute+0xc4>
 8007108:	69a2      	ldr	r2, [r4, #24]
 800710a:	689b      	ldr	r3, [r3, #8]
 800710c:	6892      	ldr	r2, [r2, #8]
 800710e:	429a      	cmp	r2, r3
 8007110:	d200      	bcs.n	8007114 <sem2_execute+0xc4>
 8007112:	e086      	b.n	8007222 <sem2_execute+0x1d2>
 8007114:	b662      	cpsie	i
 8007116:	f7fc ff73 	bl	8004000 <test_wait_threads>
 800711a:	4271      	negs	r1, r6
 800711c:	4171      	adcs	r1, r6
 800711e:	2004      	movs	r0, #4
 8007120:	b2c9      	uxtb	r1, r1
 8007122:	f7f9 fa5d 	bl	80005e0 <_test_assert>
 8007126:	2800      	cmp	r0, #0
 8007128:	d1b7      	bne.n	800709a <sem2_execute+0x4a>
 800712a:	682b      	ldr	r3, [r5, #0]
 800712c:	3005      	adds	r0, #5
 800712e:	1b59      	subs	r1, r3, r5
 8007130:	424b      	negs	r3, r1
 8007132:	4159      	adcs	r1, r3
 8007134:	b2c9      	uxtb	r1, r1
 8007136:	f7f9 fa53 	bl	80005e0 <_test_assert>
 800713a:	2800      	cmp	r0, #0
 800713c:	d1ad      	bne.n	800709a <sem2_execute+0x4a>
 800713e:	68a9      	ldr	r1, [r5, #8]
 8007140:	3006      	adds	r0, #6
 8007142:	424b      	negs	r3, r1
 8007144:	4159      	adcs	r1, r3
 8007146:	b2c9      	uxtb	r1, r1
 8007148:	f7f9 fa4a 	bl	80005e0 <_test_assert>
 800714c:	2800      	cmp	r0, #0
 800714e:	d1a4      	bne.n	800709a <sem2_execute+0x4a>
 8007150:	f7fd fab6 	bl	80046c0 <test_wait_tick>
 8007154:	b672      	cpsid	i
 8007156:	f7fa fc4b 	bl	80019f0 <_dbg_check_lock>
 800715a:	2380      	movs	r3, #128	; 0x80
 800715c:	05db      	lsls	r3, r3, #23
 800715e:	6a5b      	ldr	r3, [r3, #36]	; 0x24
 8007160:	4698      	mov	r8, r3
 8007162:	f7fa fb95 	bl	8001890 <_dbg_check_unlock>
 8007166:	6823      	ldr	r3, [r4, #0]
 8007168:	42a3      	cmp	r3, r4
 800716a:	d004      	beq.n	8007176 <sem2_execute+0x126>
 800716c:	69a2      	ldr	r2, [r4, #24]
 800716e:	689b      	ldr	r3, [r3, #8]
 8007170:	6892      	ldr	r2, [r2, #8]
 8007172:	429a      	cmp	r2, r3
 8007174:	d359      	bcc.n	800722a <sem2_execute+0x1da>
 8007176:	b662      	cpsie	i
 8007178:	4b35      	ldr	r3, [pc, #212]	; (8007250 <sem2_execute+0x200>)
 800717a:	2741      	movs	r7, #65	; 0x41
 800717c:	4443      	add	r3, r8
 800717e:	4699      	mov	r9, r3
 8007180:	23fa      	movs	r3, #250	; 0xfa
 8007182:	005b      	lsls	r3, r3, #1
 8007184:	469b      	mov	fp, r3
 8007186:	3bee      	subs	r3, #238	; 0xee
 8007188:	3bff      	subs	r3, #255	; 0xff
 800718a:	469a      	mov	sl, r3
 800718c:	0038      	movs	r0, r7
 800718e:	f7fb f937 	bl	8002400 <test_emit_token>
 8007192:	b672      	cpsid	i
 8007194:	f7fa fc2c 	bl	80019f0 <_dbg_check_lock>
 8007198:	4659      	mov	r1, fp
 800719a:	0028      	movs	r0, r5
 800719c:	f7fa fac8 	bl	8001730 <chSemWaitTimeoutS>
 80071a0:	0006      	movs	r6, r0
 80071a2:	f7fa fb75 	bl	8001890 <_dbg_check_unlock>
 80071a6:	6823      	ldr	r3, [r4, #0]
 80071a8:	42a3      	cmp	r3, r4
 80071aa:	d004      	beq.n	80071b6 <sem2_execute+0x166>
 80071ac:	69a2      	ldr	r2, [r4, #24]
 80071ae:	689b      	ldr	r3, [r3, #8]
 80071b0:	6892      	ldr	r2, [r2, #8]
 80071b2:	429a      	cmp	r2, r3
 80071b4:	d331      	bcc.n	800721a <sem2_execute+0x1ca>
 80071b6:	b662      	cpsie	i
 80071b8:	3601      	adds	r6, #1
 80071ba:	4271      	negs	r1, r6
 80071bc:	4171      	adcs	r1, r6
 80071be:	4650      	mov	r0, sl
 80071c0:	b2c9      	uxtb	r1, r1
 80071c2:	f7f9 fa0d 	bl	80005e0 <_test_assert>
 80071c6:	2800      	cmp	r0, #0
 80071c8:	d000      	beq.n	80071cc <sem2_execute+0x17c>
 80071ca:	e766      	b.n	800709a <sem2_execute+0x4a>
 80071cc:	682b      	ldr	r3, [r5, #0]
 80071ce:	3008      	adds	r0, #8
 80071d0:	1b59      	subs	r1, r3, r5
 80071d2:	424b      	negs	r3, r1
 80071d4:	4159      	adcs	r1, r3
 80071d6:	b2c9      	uxtb	r1, r1
 80071d8:	f7f9 fa02 	bl	80005e0 <_test_assert>
 80071dc:	2800      	cmp	r0, #0
 80071de:	d000      	beq.n	80071e2 <sem2_execute+0x192>
 80071e0:	e75b      	b.n	800709a <sem2_execute+0x4a>
 80071e2:	68a9      	ldr	r1, [r5, #8]
 80071e4:	3009      	adds	r0, #9
 80071e6:	424b      	negs	r3, r1
 80071e8:	4159      	adcs	r1, r3
 80071ea:	b2c9      	uxtb	r1, r1
 80071ec:	f7f9 f9f8 	bl	80005e0 <_test_assert>
 80071f0:	2800      	cmp	r0, #0
 80071f2:	d000      	beq.n	80071f6 <sem2_execute+0x1a6>
 80071f4:	e751      	b.n	800709a <sem2_execute+0x4a>
 80071f6:	3701      	adds	r7, #1
 80071f8:	b2ff      	uxtb	r7, r7
 80071fa:	2f46      	cmp	r7, #70	; 0x46
 80071fc:	d1c6      	bne.n	800718c <sem2_execute+0x13c>
 80071fe:	4915      	ldr	r1, [pc, #84]	; (8007254 <sem2_execute+0x204>)
 8007200:	300a      	adds	r0, #10
 8007202:	f7f9 f9c5 	bl	8000590 <_test_assert_sequence>
 8007206:	2800      	cmp	r0, #0
 8007208:	d000      	beq.n	800720c <sem2_execute+0x1bc>
 800720a:	e746      	b.n	800709a <sem2_execute+0x4a>
 800720c:	4a12      	ldr	r2, [pc, #72]	; (8007258 <sem2_execute+0x208>)
 800720e:	4649      	mov	r1, r9
 8007210:	4442      	add	r2, r8
 8007212:	300b      	adds	r0, #11
 8007214:	f7fb f8bc 	bl	8002390 <_test_assert_time_window>
 8007218:	e73f      	b.n	800709a <sem2_execute+0x4a>
 800721a:	b672      	cpsid	i
 800721c:	4b07      	ldr	r3, [pc, #28]	; (800723c <sem2_execute+0x1ec>)
 800721e:	62e3      	str	r3, [r4, #44]	; 0x2c
 8007220:	e7fe      	b.n	8007220 <sem2_execute+0x1d0>
 8007222:	b672      	cpsid	i
 8007224:	4b05      	ldr	r3, [pc, #20]	; (800723c <sem2_execute+0x1ec>)
 8007226:	62e3      	str	r3, [r4, #44]	; 0x2c
 8007228:	e7fe      	b.n	8007228 <sem2_execute+0x1d8>
 800722a:	b672      	cpsid	i
 800722c:	4b0b      	ldr	r3, [pc, #44]	; (800725c <sem2_execute+0x20c>)
 800722e:	62e3      	str	r3, [r4, #44]	; 0x2c
 8007230:	e7fe      	b.n	8007230 <sem2_execute+0x1e0>
 8007232:	46c0      	nop			; (mov r8, r8)
 8007234:	200006ac 	.word	0x200006ac
 8007238:	20000738 	.word	0x20000738
 800723c:	080079a0 	.word	0x080079a0
 8007240:	08004671 	.word	0x08004671
 8007244:	20000d58 	.word	0x20000d58
 8007248:	20001414 	.word	0x20001414
 800724c:	00001388 	.word	0x00001388
 8007250:	000009c4 	.word	0x000009c4
 8007254:	08008190 	.word	0x08008190
 8007258:	000009d8 	.word	0x000009d8
 800725c:	080078f0 	.word	0x080078f0

08007260 <sem1_execute>:
 8007260:	b5f0      	push	{r4, r5, r6, r7, lr}
 8007262:	46ce      	mov	lr, r9
 8007264:	4647      	mov	r7, r8
 8007266:	4b70      	ldr	r3, [pc, #448]	; (8007428 <sem1_execute+0x1c8>)
 8007268:	21a8      	movs	r1, #168	; 0xa8
 800726a:	4698      	mov	r8, r3
 800726c:	b580      	push	{r7, lr}
 800726e:	4d6f      	ldr	r5, [pc, #444]	; (800742c <sem1_execute+0x1cc>)
 8007270:	4f6f      	ldr	r7, [pc, #444]	; (8007430 <sem1_execute+0x1d0>)
 8007272:	69ab      	ldr	r3, [r5, #24]
 8007274:	b083      	sub	sp, #12
 8007276:	689a      	ldr	r2, [r3, #8]
 8007278:	4b6e      	ldr	r3, [pc, #440]	; (8007434 <sem1_execute+0x1d4>)
 800727a:	3205      	adds	r2, #5
 800727c:	9300      	str	r3, [sp, #0]
 800727e:	0049      	lsls	r1, r1, #1
 8007280:	4699      	mov	r9, r3
 8007282:	0038      	movs	r0, r7
 8007284:	4643      	mov	r3, r8
 8007286:	f7fd fd23 	bl	8004cd0 <chThdCreateStatic>
 800728a:	4e6b      	ldr	r6, [pc, #428]	; (8007438 <sem1_execute+0x1d8>)
 800728c:	21a8      	movs	r1, #168	; 0xa8
 800728e:	6030      	str	r0, [r6, #0]
 8007290:	0038      	movs	r0, r7
 8007292:	69ab      	ldr	r3, [r5, #24]
 8007294:	3051      	adds	r0, #81	; 0x51
 8007296:	689a      	ldr	r2, [r3, #8]
 8007298:	4b68      	ldr	r3, [pc, #416]	; (800743c <sem1_execute+0x1dc>)
 800729a:	3201      	adds	r2, #1
 800729c:	9300      	str	r3, [sp, #0]
 800729e:	0049      	lsls	r1, r1, #1
 80072a0:	4643      	mov	r3, r8
 80072a2:	30ff      	adds	r0, #255	; 0xff
 80072a4:	f7fd fd14 	bl	8004cd0 <chThdCreateStatic>
 80072a8:	69ab      	ldr	r3, [r5, #24]
 80072aa:	21a8      	movs	r1, #168	; 0xa8
 80072ac:	689a      	ldr	r2, [r3, #8]
 80072ae:	23a8      	movs	r3, #168	; 0xa8
 80072b0:	009b      	lsls	r3, r3, #2
 80072b2:	6070      	str	r0, [r6, #4]
 80072b4:	18f8      	adds	r0, r7, r3
 80072b6:	4b62      	ldr	r3, [pc, #392]	; (8007440 <sem1_execute+0x1e0>)
 80072b8:	3203      	adds	r2, #3
 80072ba:	9300      	str	r3, [sp, #0]
 80072bc:	0049      	lsls	r1, r1, #1
 80072be:	4643      	mov	r3, r8
 80072c0:	f7fd fd06 	bl	8004cd0 <chThdCreateStatic>
 80072c4:	69ab      	ldr	r3, [r5, #24]
 80072c6:	21a8      	movs	r1, #168	; 0xa8
 80072c8:	689a      	ldr	r2, [r3, #8]
 80072ca:	23fc      	movs	r3, #252	; 0xfc
 80072cc:	009b      	lsls	r3, r3, #2
 80072ce:	60b0      	str	r0, [r6, #8]
 80072d0:	18f8      	adds	r0, r7, r3
 80072d2:	4b5c      	ldr	r3, [pc, #368]	; (8007444 <sem1_execute+0x1e4>)
 80072d4:	3204      	adds	r2, #4
 80072d6:	9300      	str	r3, [sp, #0]
 80072d8:	0049      	lsls	r1, r1, #1
 80072da:	4643      	mov	r3, r8
 80072dc:	f7fd fcf8 	bl	8004cd0 <chThdCreateStatic>
 80072e0:	69ab      	ldr	r3, [r5, #24]
 80072e2:	21a8      	movs	r1, #168	; 0xa8
 80072e4:	689a      	ldr	r2, [r3, #8]
 80072e6:	23a8      	movs	r3, #168	; 0xa8
 80072e8:	00db      	lsls	r3, r3, #3
 80072ea:	60f0      	str	r0, [r6, #12]
 80072ec:	18f8      	adds	r0, r7, r3
 80072ee:	4b56      	ldr	r3, [pc, #344]	; (8007448 <sem1_execute+0x1e8>)
 80072f0:	0049      	lsls	r1, r1, #1
 80072f2:	3202      	adds	r2, #2
 80072f4:	9300      	str	r3, [sp, #0]
 80072f6:	4643      	mov	r3, r8
 80072f8:	f7fd fcea 	bl	8004cd0 <chThdCreateStatic>
 80072fc:	4c53      	ldr	r4, [pc, #332]	; (800744c <sem1_execute+0x1ec>)
 80072fe:	6130      	str	r0, [r6, #16]
 8007300:	0020      	movs	r0, r4
 8007302:	f7fc fce5 	bl	8003cd0 <chSemSignal>
 8007306:	0020      	movs	r0, r4
 8007308:	f7fc fce2 	bl	8003cd0 <chSemSignal>
 800730c:	0020      	movs	r0, r4
 800730e:	f7fc fcdf 	bl	8003cd0 <chSemSignal>
 8007312:	0020      	movs	r0, r4
 8007314:	f7fc fcdc 	bl	8003cd0 <chSemSignal>
 8007318:	0020      	movs	r0, r4
 800731a:	f7fc fcd9 	bl	8003cd0 <chSemSignal>
 800731e:	f7fc fe6f 	bl	8004000 <test_wait_threads>
 8007322:	494b      	ldr	r1, [pc, #300]	; (8007450 <sem1_execute+0x1f0>)
 8007324:	2001      	movs	r0, #1
 8007326:	f7f9 f933 	bl	8000590 <_test_assert_sequence>
 800732a:	2800      	cmp	r0, #0
 800732c:	d004      	beq.n	8007338 <sem1_execute+0xd8>
 800732e:	b003      	add	sp, #12
 8007330:	bc0c      	pop	{r2, r3}
 8007332:	4690      	mov	r8, r2
 8007334:	4699      	mov	r9, r3
 8007336:	bdf0      	pop	{r4, r5, r6, r7, pc}
 8007338:	69ab      	ldr	r3, [r5, #24]
 800733a:	21a8      	movs	r1, #168	; 0xa8
 800733c:	689a      	ldr	r2, [r3, #8]
 800733e:	464b      	mov	r3, r9
 8007340:	3205      	adds	r2, #5
 8007342:	9300      	str	r3, [sp, #0]
 8007344:	0049      	lsls	r1, r1, #1
 8007346:	4643      	mov	r3, r8
 8007348:	0038      	movs	r0, r7
 800734a:	f7fd fcc1 	bl	8004cd0 <chThdCreateStatic>
 800734e:	6030      	str	r0, [r6, #0]
 8007350:	b672      	cpsid	i
 8007352:	f7fa fb4d 	bl	80019f0 <_dbg_check_lock>
 8007356:	f7f9 fa03 	bl	8000760 <chDbgCheckClassI>
 800735a:	68a3      	ldr	r3, [r4, #8]
 800735c:	6822      	ldr	r2, [r4, #0]
 800735e:	2b00      	cmp	r3, #0
 8007360:	db05      	blt.n	800736e <sem1_execute+0x10e>
 8007362:	42a2      	cmp	r2, r4
 8007364:	d005      	beq.n	8007372 <sem1_execute+0x112>
 8007366:	b672      	cpsid	i
 8007368:	4b3a      	ldr	r3, [pc, #232]	; (8007454 <sem1_execute+0x1f4>)
 800736a:	62eb      	str	r3, [r5, #44]	; 0x2c
 800736c:	e7fe      	b.n	800736c <sem1_execute+0x10c>
 800736e:	42a2      	cmp	r2, r4
 8007370:	d0f9      	beq.n	8007366 <sem1_execute+0x106>
 8007372:	3301      	adds	r3, #1
 8007374:	60a3      	str	r3, [r4, #8]
 8007376:	2b00      	cmp	r3, #0
 8007378:	dd30      	ble.n	80073dc <sem1_execute+0x17c>
 800737a:	68a3      	ldr	r3, [r4, #8]
 800737c:	3301      	adds	r3, #1
 800737e:	60a3      	str	r3, [r4, #8]
 8007380:	2b00      	cmp	r3, #0
 8007382:	dd48      	ble.n	8007416 <sem1_execute+0x1b6>
 8007384:	f7fa f8bc 	bl	8001500 <chSchRescheduleS>
 8007388:	f7fa fa82 	bl	8001890 <_dbg_check_unlock>
 800738c:	682b      	ldr	r3, [r5, #0]
 800738e:	42ab      	cmp	r3, r5
 8007390:	d004      	beq.n	800739c <sem1_execute+0x13c>
 8007392:	69aa      	ldr	r2, [r5, #24]
 8007394:	689b      	ldr	r3, [r3, #8]
 8007396:	6892      	ldr	r2, [r2, #8]
 8007398:	429a      	cmp	r2, r3
 800739a:	d338      	bcc.n	800740e <sem1_execute+0x1ae>
 800739c:	b662      	cpsie	i
 800739e:	f7fc fe2f 	bl	8004000 <test_wait_threads>
 80073a2:	b672      	cpsid	i
 80073a4:	f7fa fb24 	bl	80019f0 <_dbg_check_lock>
 80073a8:	f7f9 f9da 	bl	8000760 <chDbgCheckClassI>
 80073ac:	68a1      	ldr	r1, [r4, #8]
 80073ae:	2002      	movs	r0, #2
 80073b0:	3901      	subs	r1, #1
 80073b2:	424b      	negs	r3, r1
 80073b4:	4159      	adcs	r1, r3
 80073b6:	b2c9      	uxtb	r1, r1
 80073b8:	f7f9 f912 	bl	80005e0 <_test_assert>
 80073bc:	2800      	cmp	r0, #0
 80073be:	d118      	bne.n	80073f2 <sem1_execute+0x192>
 80073c0:	f7fa fa66 	bl	8001890 <_dbg_check_unlock>
 80073c4:	682b      	ldr	r3, [r5, #0]
 80073c6:	42ab      	cmp	r3, r5
 80073c8:	d011      	beq.n	80073ee <sem1_execute+0x18e>
 80073ca:	69aa      	ldr	r2, [r5, #24]
 80073cc:	689b      	ldr	r3, [r3, #8]
 80073ce:	6892      	ldr	r2, [r2, #8]
 80073d0:	429a      	cmp	r2, r3
 80073d2:	d20c      	bcs.n	80073ee <sem1_execute+0x18e>
 80073d4:	b672      	cpsid	i
 80073d6:	4b20      	ldr	r3, [pc, #128]	; (8007458 <sem1_execute+0x1f8>)
 80073d8:	62eb      	str	r3, [r5, #44]	; 0x2c
 80073da:	e7fe      	b.n	80073da <sem1_execute+0x17a>
 80073dc:	6820      	ldr	r0, [r4, #0]
 80073de:	6803      	ldr	r3, [r0, #0]
 80073e0:	6023      	str	r3, [r4, #0]
 80073e2:	605c      	str	r4, [r3, #4]
 80073e4:	f7f9 fa0c 	bl	8000800 <chSchReadyI>
 80073e8:	2300      	movs	r3, #0
 80073ea:	6243      	str	r3, [r0, #36]	; 0x24
 80073ec:	e7c5      	b.n	800737a <sem1_execute+0x11a>
 80073ee:	b662      	cpsie	i
 80073f0:	e79d      	b.n	800732e <sem1_execute+0xce>
 80073f2:	f7fa fa4d 	bl	8001890 <_dbg_check_unlock>
 80073f6:	682b      	ldr	r3, [r5, #0]
 80073f8:	42ab      	cmp	r3, r5
 80073fa:	d0f8      	beq.n	80073ee <sem1_execute+0x18e>
 80073fc:	69aa      	ldr	r2, [r5, #24]
 80073fe:	689b      	ldr	r3, [r3, #8]
 8007400:	6892      	ldr	r2, [r2, #8]
 8007402:	429a      	cmp	r2, r3
 8007404:	d2f3      	bcs.n	80073ee <sem1_execute+0x18e>
 8007406:	b672      	cpsid	i
 8007408:	4b13      	ldr	r3, [pc, #76]	; (8007458 <sem1_execute+0x1f8>)
 800740a:	62eb      	str	r3, [r5, #44]	; 0x2c
 800740c:	e7fe      	b.n	800740c <sem1_execute+0x1ac>
 800740e:	b672      	cpsid	i
 8007410:	4b11      	ldr	r3, [pc, #68]	; (8007458 <sem1_execute+0x1f8>)
 8007412:	62eb      	str	r3, [r5, #44]	; 0x2c
 8007414:	e7fe      	b.n	8007414 <sem1_execute+0x1b4>
 8007416:	6820      	ldr	r0, [r4, #0]
 8007418:	6803      	ldr	r3, [r0, #0]
 800741a:	6023      	str	r3, [r4, #0]
 800741c:	605c      	str	r4, [r3, #4]
 800741e:	f7f9 f9ef 	bl	8000800 <chSchReadyI>
 8007422:	2300      	movs	r3, #0
 8007424:	6243      	str	r3, [r0, #36]	; 0x24
 8007426:	e7ad      	b.n	8007384 <sem1_execute+0x124>
 8007428:	08003e11 	.word	0x08003e11
 800742c:	20000738 	.word	0x20000738
 8007430:	20000d58 	.word	0x20000d58
 8007434:	08007f40 	.word	0x08007f40
 8007438:	20001414 	.word	0x20001414
 800743c:	08007f44 	.word	0x08007f44
 8007440:	08007f48 	.word	0x08007f48
 8007444:	08007f4c 	.word	0x08007f4c
 8007448:	08008194 	.word	0x08008194
 800744c:	200006ac 	.word	0x200006ac
 8007450:	08008190 	.word	0x08008190
 8007454:	08007c40 	.word	0x08007c40
 8007458:	080078f0 	.word	0x080078f0
 800745c:	00000000 	.word	0x00000000

08007460 <thd2_execute>:
 8007460:	21a8      	movs	r1, #168	; 0xa8
 8007462:	b5f0      	push	{r4, r5, r6, r7, lr}
 8007464:	4c3f      	ldr	r4, [pc, #252]	; (8007564 <thd2_execute+0x104>)
 8007466:	4f40      	ldr	r7, [pc, #256]	; (8007568 <thd2_execute+0x108>)
 8007468:	69a3      	ldr	r3, [r4, #24]
 800746a:	4d40      	ldr	r5, [pc, #256]	; (800756c <thd2_execute+0x10c>)
 800746c:	689a      	ldr	r2, [r3, #8]
 800746e:	4b40      	ldr	r3, [pc, #256]	; (8007570 <thd2_execute+0x110>)
 8007470:	b083      	sub	sp, #12
 8007472:	9300      	str	r3, [sp, #0]
 8007474:	3a04      	subs	r2, #4
 8007476:	003b      	movs	r3, r7
 8007478:	0049      	lsls	r1, r1, #1
 800747a:	0028      	movs	r0, r5
 800747c:	f7fd fc28 	bl	8004cd0 <chThdCreateStatic>
 8007480:	4e3c      	ldr	r6, [pc, #240]	; (8007574 <thd2_execute+0x114>)
 8007482:	21a8      	movs	r1, #168	; 0xa8
 8007484:	6070      	str	r0, [r6, #4]
 8007486:	0028      	movs	r0, r5
 8007488:	69a3      	ldr	r3, [r4, #24]
 800748a:	3851      	subs	r0, #81	; 0x51
 800748c:	689a      	ldr	r2, [r3, #8]
 800748e:	4b3a      	ldr	r3, [pc, #232]	; (8007578 <thd2_execute+0x118>)
 8007490:	3a05      	subs	r2, #5
 8007492:	9300      	str	r3, [sp, #0]
 8007494:	0049      	lsls	r1, r1, #1
 8007496:	003b      	movs	r3, r7
 8007498:	38ff      	subs	r0, #255	; 0xff
 800749a:	f7fd fc19 	bl	8004cd0 <chThdCreateStatic>
 800749e:	69a3      	ldr	r3, [r4, #24]
 80074a0:	21a8      	movs	r1, #168	; 0xa8
 80074a2:	689a      	ldr	r2, [r3, #8]
 80074a4:	23fc      	movs	r3, #252	; 0xfc
 80074a6:	009b      	lsls	r3, r3, #2
 80074a8:	6030      	str	r0, [r6, #0]
 80074aa:	18e8      	adds	r0, r5, r3
 80074ac:	4b33      	ldr	r3, [pc, #204]	; (800757c <thd2_execute+0x11c>)
 80074ae:	3a01      	subs	r2, #1
 80074b0:	9300      	str	r3, [sp, #0]
 80074b2:	0049      	lsls	r1, r1, #1
 80074b4:	003b      	movs	r3, r7
 80074b6:	f7fd fc0b 	bl	8004cd0 <chThdCreateStatic>
 80074ba:	69a3      	ldr	r3, [r4, #24]
 80074bc:	21a8      	movs	r1, #168	; 0xa8
 80074be:	689a      	ldr	r2, [r3, #8]
 80074c0:	23a8      	movs	r3, #168	; 0xa8
 80074c2:	009b      	lsls	r3, r3, #2
 80074c4:	6130      	str	r0, [r6, #16]
 80074c6:	18e8      	adds	r0, r5, r3
 80074c8:	4b2d      	ldr	r3, [pc, #180]	; (8007580 <thd2_execute+0x120>)
 80074ca:	3a02      	subs	r2, #2
 80074cc:	9300      	str	r3, [sp, #0]
 80074ce:	0049      	lsls	r1, r1, #1
 80074d0:	003b      	movs	r3, r7
 80074d2:	f7fd fbfd 	bl	8004cd0 <chThdCreateStatic>
 80074d6:	60f0      	str	r0, [r6, #12]
 80074d8:	b672      	cpsid	i
 80074da:	f7fa fa89 	bl	80019f0 <_dbg_check_lock>
 80074de:	0028      	movs	r0, r5
 80074e0:	21a8      	movs	r1, #168	; 0xa8
 80074e2:	69a3      	ldr	r3, [r4, #24]
 80074e4:	3051      	adds	r0, #81	; 0x51
 80074e6:	689a      	ldr	r2, [r3, #8]
 80074e8:	4b26      	ldr	r3, [pc, #152]	; (8007584 <thd2_execute+0x124>)
 80074ea:	3a03      	subs	r2, #3
 80074ec:	9300      	str	r3, [sp, #0]
 80074ee:	0049      	lsls	r1, r1, #1
 80074f0:	003b      	movs	r3, r7
 80074f2:	30ff      	adds	r0, #255	; 0xff
 80074f4:	f7f9 f944 	bl	8000780 <chThdCreateI>
 80074f8:	60b0      	str	r0, [r6, #8]
 80074fa:	f7fa f9c9 	bl	8001890 <_dbg_check_unlock>
 80074fe:	6823      	ldr	r3, [r4, #0]
 8007500:	42a3      	cmp	r3, r4
 8007502:	d004      	beq.n	800750e <thd2_execute+0xae>
 8007504:	69a2      	ldr	r2, [r4, #24]
 8007506:	689b      	ldr	r3, [r3, #8]
 8007508:	6892      	ldr	r2, [r2, #8]
 800750a:	429a      	cmp	r2, r3
 800750c:	d322      	bcc.n	8007554 <thd2_execute+0xf4>
 800750e:	b662      	cpsie	i
 8007510:	68b5      	ldr	r5, [r6, #8]
 8007512:	b672      	cpsid	i
 8007514:	f7fa fa6c 	bl	80019f0 <_dbg_check_lock>
 8007518:	2320      	movs	r3, #32
 800751a:	5ceb      	ldrb	r3, [r5, r3]
 800751c:	2b02      	cmp	r3, #2
 800751e:	d003      	beq.n	8007528 <thd2_execute+0xc8>
 8007520:	b672      	cpsid	i
 8007522:	4b19      	ldr	r3, [pc, #100]	; (8007588 <thd2_execute+0x128>)
 8007524:	62e3      	str	r3, [r4, #44]	; 0x2c
 8007526:	e7fe      	b.n	8007526 <thd2_execute+0xc6>
 8007528:	0028      	movs	r0, r5
 800752a:	f7f9 f969 	bl	8000800 <chSchReadyI>
 800752e:	f7fa f9af 	bl	8001890 <_dbg_check_unlock>
 8007532:	6823      	ldr	r3, [r4, #0]
 8007534:	42a3      	cmp	r3, r4
 8007536:	d004      	beq.n	8007542 <thd2_execute+0xe2>
 8007538:	69a2      	ldr	r2, [r4, #24]
 800753a:	689b      	ldr	r3, [r3, #8]
 800753c:	6892      	ldr	r2, [r2, #8]
 800753e:	429a      	cmp	r2, r3
 8007540:	d30c      	bcc.n	800755c <thd2_execute+0xfc>
 8007542:	b662      	cpsie	i
 8007544:	f7fc fd5c 	bl	8004000 <test_wait_threads>
 8007548:	4910      	ldr	r1, [pc, #64]	; (800758c <thd2_execute+0x12c>)
 800754a:	2001      	movs	r0, #1
 800754c:	f7f9 f820 	bl	8000590 <_test_assert_sequence>
 8007550:	b003      	add	sp, #12
 8007552:	bdf0      	pop	{r4, r5, r6, r7, pc}
 8007554:	b672      	cpsid	i
 8007556:	4b0e      	ldr	r3, [pc, #56]	; (8007590 <thd2_execute+0x130>)
 8007558:	62e3      	str	r3, [r4, #44]	; 0x2c
 800755a:	e7fe      	b.n	800755a <thd2_execute+0xfa>
 800755c:	b672      	cpsid	i
 800755e:	4b0d      	ldr	r3, [pc, #52]	; (8007594 <thd2_execute+0x134>)
 8007560:	62e3      	str	r3, [r4, #44]	; 0x2c
 8007562:	e7fe      	b.n	8007562 <thd2_execute+0x102>
 8007564:	20000738 	.word	0x20000738
 8007568:	08002b21 	.word	0x08002b21
 800756c:	20000ea8 	.word	0x20000ea8
 8007570:	08007f4c 	.word	0x08007f4c
 8007574:	20001414 	.word	0x20001414
 8007578:	08008194 	.word	0x08008194
 800757c:	08007f40 	.word	0x08007f40
 8007580:	08007f44 	.word	0x08007f44
 8007584:	08007f48 	.word	0x08007f48
 8007588:	08007a30 	.word	0x08007a30
 800758c:	08008190 	.word	0x08008190
 8007590:	080078e0 	.word	0x080078e0
 8007594:	08007970 	.word	0x08007970
	...

080075a0 <thd1_execute>:
 80075a0:	b5f0      	push	{r4, r5, r6, r7, lr}
 80075a2:	46c6      	mov	lr, r8
 80075a4:	4b29      	ldr	r3, [pc, #164]	; (800764c <thd1_execute+0xac>)
 80075a6:	26a8      	movs	r6, #168	; 0xa8
 80075a8:	4698      	mov	r8, r3
 80075aa:	b500      	push	{lr}
 80075ac:	699b      	ldr	r3, [r3, #24]
 80075ae:	4f28      	ldr	r7, [pc, #160]	; (8007650 <thd1_execute+0xb0>)
 80075b0:	4c28      	ldr	r4, [pc, #160]	; (8007654 <thd1_execute+0xb4>)
 80075b2:	689a      	ldr	r2, [r3, #8]
 80075b4:	4b28      	ldr	r3, [pc, #160]	; (8007658 <thd1_execute+0xb8>)
 80075b6:	b082      	sub	sp, #8
 80075b8:	0076      	lsls	r6, r6, #1
 80075ba:	9300      	str	r3, [sp, #0]
 80075bc:	0031      	movs	r1, r6
 80075be:	003b      	movs	r3, r7
 80075c0:	3a05      	subs	r2, #5
 80075c2:	0020      	movs	r0, r4
 80075c4:	f7fd fb84 	bl	8004cd0 <chThdCreateStatic>
 80075c8:	4643      	mov	r3, r8
 80075ca:	699b      	ldr	r3, [r3, #24]
 80075cc:	4d23      	ldr	r5, [pc, #140]	; (800765c <thd1_execute+0xbc>)
 80075ce:	689a      	ldr	r2, [r3, #8]
 80075d0:	4b23      	ldr	r3, [pc, #140]	; (8007660 <thd1_execute+0xc0>)
 80075d2:	6028      	str	r0, [r5, #0]
 80075d4:	0031      	movs	r1, r6
 80075d6:	9300      	str	r3, [sp, #0]
 80075d8:	3a04      	subs	r2, #4
 80075da:	003b      	movs	r3, r7
 80075dc:	19a0      	adds	r0, r4, r6
 80075de:	f7fd fb77 	bl	8004cd0 <chThdCreateStatic>
 80075e2:	4643      	mov	r3, r8
 80075e4:	699b      	ldr	r3, [r3, #24]
 80075e6:	6068      	str	r0, [r5, #4]
 80075e8:	689a      	ldr	r2, [r3, #8]
 80075ea:	23a8      	movs	r3, #168	; 0xa8
 80075ec:	009b      	lsls	r3, r3, #2
 80075ee:	18e0      	adds	r0, r4, r3
 80075f0:	4b1c      	ldr	r3, [pc, #112]	; (8007664 <thd1_execute+0xc4>)
 80075f2:	0031      	movs	r1, r6
 80075f4:	9300      	str	r3, [sp, #0]
 80075f6:	3a03      	subs	r2, #3
 80075f8:	003b      	movs	r3, r7
 80075fa:	f7fd fb69 	bl	8004cd0 <chThdCreateStatic>
 80075fe:	4643      	mov	r3, r8
 8007600:	699b      	ldr	r3, [r3, #24]
 8007602:	60a8      	str	r0, [r5, #8]
 8007604:	689a      	ldr	r2, [r3, #8]
 8007606:	23fc      	movs	r3, #252	; 0xfc
 8007608:	009b      	lsls	r3, r3, #2
 800760a:	18e0      	adds	r0, r4, r3
 800760c:	4b16      	ldr	r3, [pc, #88]	; (8007668 <thd1_execute+0xc8>)
 800760e:	0031      	movs	r1, r6
 8007610:	9300      	str	r3, [sp, #0]
 8007612:	3a02      	subs	r2, #2
 8007614:	003b      	movs	r3, r7
 8007616:	f7fd fb5b 	bl	8004cd0 <chThdCreateStatic>
 800761a:	4643      	mov	r3, r8
 800761c:	699b      	ldr	r3, [r3, #24]
 800761e:	60e8      	str	r0, [r5, #12]
 8007620:	689a      	ldr	r2, [r3, #8]
 8007622:	23a8      	movs	r3, #168	; 0xa8
 8007624:	00db      	lsls	r3, r3, #3
 8007626:	18e0      	adds	r0, r4, r3
 8007628:	4b10      	ldr	r3, [pc, #64]	; (800766c <thd1_execute+0xcc>)
 800762a:	3a01      	subs	r2, #1
 800762c:	0031      	movs	r1, r6
 800762e:	9300      	str	r3, [sp, #0]
 8007630:	003b      	movs	r3, r7
 8007632:	f7fd fb4d 	bl	8004cd0 <chThdCreateStatic>
 8007636:	6128      	str	r0, [r5, #16]
 8007638:	f7fc fce2 	bl	8004000 <test_wait_threads>
 800763c:	490c      	ldr	r1, [pc, #48]	; (8007670 <thd1_execute+0xd0>)
 800763e:	2001      	movs	r0, #1
 8007640:	f7f8 ffa6 	bl	8000590 <_test_assert_sequence>
 8007644:	b002      	add	sp, #8
 8007646:	bc04      	pop	{r2}
 8007648:	4690      	mov	r8, r2
 800764a:	bdf0      	pop	{r4, r5, r6, r7, pc}
 800764c:	20000738 	.word	0x20000738
 8007650:	08002b21 	.word	0x08002b21
 8007654:	20000d58 	.word	0x20000d58
 8007658:	08008194 	.word	0x08008194
 800765c:	20001414 	.word	0x20001414
 8007660:	08007f4c 	.word	0x08007f4c
 8007664:	08007f48 	.word	0x08007f48
 8007668:	08007f44 	.word	0x08007f44
 800766c:	08007f40 	.word	0x08007f40
 8007670:	08008190 	.word	0x08008190
	...

08007680 <chSysGetStatusAndLockX>:
 8007680:	b510      	push	{r4, lr}
 8007682:	f3ef 8410 	mrs	r4, PRIMASK
 8007686:	07e3      	lsls	r3, r4, #31
 8007688:	d406      	bmi.n	8007698 <chSysGetStatusAndLockX+0x18>
 800768a:	f3ef 8305 	mrs	r3, IPSR
 800768e:	05db      	lsls	r3, r3, #23
 8007690:	d104      	bne.n	800769c <chSysGetStatusAndLockX+0x1c>
 8007692:	b672      	cpsid	i
 8007694:	f7fa f9ac 	bl	80019f0 <_dbg_check_lock>
 8007698:	0020      	movs	r0, r4
 800769a:	bd10      	pop	{r4, pc}
 800769c:	b672      	cpsid	i
 800769e:	f7f9 fb67 	bl	8000d70 <_dbg_check_lock_from_isr>
 80076a2:	e7f9      	b.n	8007698 <chSysGetStatusAndLockX+0x18>
	...

080076b0 <sys1_execute>:
 80076b0:	b530      	push	{r4, r5, lr}
 80076b2:	b087      	sub	sp, #28
 80076b4:	f7ff ffe4 	bl	8007680 <chSysGetStatusAndLockX>
 80076b8:	07c3      	lsls	r3, r0, #31
 80076ba:	d401      	bmi.n	80076c0 <sys1_execute+0x10>
 80076bc:	f7fa f978 	bl	80019b0 <chSysRestoreStatusX.part.3>
 80076c0:	b672      	cpsid	i
 80076c2:	f7fa f995 	bl	80019f0 <_dbg_check_lock>
 80076c6:	f7ff ffdb 	bl	8007680 <chSysGetStatusAndLockX>
 80076ca:	07c3      	lsls	r3, r0, #31
 80076cc:	d401      	bmi.n	80076d2 <sys1_execute+0x22>
 80076ce:	f7fa f96f 	bl	80019b0 <chSysRestoreStatusX.part.3>
 80076d2:	f7fa f8dd 	bl	8001890 <_dbg_check_unlock>
 80076d6:	4c4c      	ldr	r4, [pc, #304]	; (8007808 <sys1_execute+0x158>)
 80076d8:	6823      	ldr	r3, [r4, #0]
 80076da:	42a3      	cmp	r3, r4
 80076dc:	d005      	beq.n	80076ea <sys1_execute+0x3a>
 80076de:	69a2      	ldr	r2, [r4, #24]
 80076e0:	689b      	ldr	r3, [r3, #8]
 80076e2:	6892      	ldr	r2, [r2, #8]
 80076e4:	429a      	cmp	r2, r3
 80076e6:	d200      	bcs.n	80076ea <sys1_execute+0x3a>
 80076e8:	e07e      	b.n	80077e8 <sys1_execute+0x138>
 80076ea:	b662      	cpsie	i
 80076ec:	f3ef 8310 	mrs	r3, PRIMASK
 80076f0:	07db      	lsls	r3, r3, #31
 80076f2:	d402      	bmi.n	80076fa <sys1_execute+0x4a>
 80076f4:	b672      	cpsid	i
 80076f6:	f7fa f97b 	bl	80019f0 <_dbg_check_lock>
 80076fa:	f3ef 8310 	mrs	r3, PRIMASK
 80076fe:	07db      	lsls	r3, r3, #31
 8007700:	d402      	bmi.n	8007708 <sys1_execute+0x58>
 8007702:	b672      	cpsid	i
 8007704:	f7fa f974 	bl	80019f0 <_dbg_check_lock>
 8007708:	f7fa f8c2 	bl	8001890 <_dbg_check_unlock>
 800770c:	6823      	ldr	r3, [r4, #0]
 800770e:	42a3      	cmp	r3, r4
 8007710:	d004      	beq.n	800771c <sys1_execute+0x6c>
 8007712:	69a2      	ldr	r2, [r4, #24]
 8007714:	689b      	ldr	r3, [r3, #8]
 8007716:	6892      	ldr	r2, [r2, #8]
 8007718:	429a      	cmp	r2, r3
 800771a:	d361      	bcc.n	80077e0 <sys1_execute+0x130>
 800771c:	b662      	cpsie	i
 800771e:	b672      	cpsid	i
 8007720:	f7fa f966 	bl	80019f0 <_dbg_check_lock>
 8007724:	f3ef 8310 	mrs	r3, PRIMASK
 8007728:	07db      	lsls	r3, r3, #31
 800772a:	d44d      	bmi.n	80077c8 <sys1_execute+0x118>
 800772c:	f3ef 8310 	mrs	r3, PRIMASK
 8007730:	07db      	lsls	r3, r3, #31
 8007732:	d43d      	bmi.n	80077b0 <sys1_execute+0x100>
 8007734:	2300      	movs	r3, #0
 8007736:	9304      	str	r3, [sp, #16]
 8007738:	b672      	cpsid	i
 800773a:	f7fa f959 	bl	80019f0 <_dbg_check_lock>
 800773e:	f7f9 f80f 	bl	8000760 <chDbgCheckClassI>
 8007742:	9b04      	ldr	r3, [sp, #16]
 8007744:	2b00      	cmp	r3, #0
 8007746:	d002      	beq.n	800774e <sys1_execute+0x9e>
 8007748:	a801      	add	r0, sp, #4
 800774a:	f7f9 fa29 	bl	8000ba0 <chVTDoResetI>
 800774e:	2300      	movs	r3, #0
 8007750:	4a2e      	ldr	r2, [pc, #184]	; (800780c <sys1_execute+0x15c>)
 8007752:	2101      	movs	r1, #1
 8007754:	a801      	add	r0, sp, #4
 8007756:	f7f9 fa6b 	bl	8000c30 <chVTDoSetI>
 800775a:	f7fa f899 	bl	8001890 <_dbg_check_unlock>
 800775e:	6823      	ldr	r3, [r4, #0]
 8007760:	42a3      	cmp	r3, r4
 8007762:	d008      	beq.n	8007776 <sys1_execute+0xc6>
 8007764:	69a2      	ldr	r2, [r4, #24]
 8007766:	689b      	ldr	r3, [r3, #8]
 8007768:	6892      	ldr	r2, [r2, #8]
 800776a:	429a      	cmp	r2, r3
 800776c:	d203      	bcs.n	8007776 <sys1_execute+0xc6>
 800776e:	b672      	cpsid	i
 8007770:	4b27      	ldr	r3, [pc, #156]	; (8007810 <sys1_execute+0x160>)
 8007772:	62e3      	str	r3, [r4, #44]	; 0x2c
 8007774:	e7fe      	b.n	8007774 <sys1_execute+0xc4>
 8007776:	b662      	cpsie	i
 8007778:	200a      	movs	r0, #10
 800777a:	f7fc fde1 	bl	8004340 <chThdSleep>
 800777e:	b672      	cpsid	i
 8007780:	f7fa f936 	bl	80019f0 <_dbg_check_lock>
 8007784:	f7f8 ffec 	bl	8000760 <chDbgCheckClassI>
 8007788:	9d04      	ldr	r5, [sp, #16]
 800778a:	f7fa f881 	bl	8001890 <_dbg_check_unlock>
 800778e:	6823      	ldr	r3, [r4, #0]
 8007790:	42a3      	cmp	r3, r4
 8007792:	d004      	beq.n	800779e <sys1_execute+0xee>
 8007794:	69a2      	ldr	r2, [r4, #24]
 8007796:	689b      	ldr	r3, [r3, #8]
 8007798:	6892      	ldr	r2, [r2, #8]
 800779a:	429a      	cmp	r2, r3
 800779c:	d330      	bcc.n	8007800 <sys1_execute+0x150>
 800779e:	b662      	cpsie	i
 80077a0:	4269      	negs	r1, r5
 80077a2:	4169      	adcs	r1, r5
 80077a4:	2001      	movs	r0, #1
 80077a6:	b2c9      	uxtb	r1, r1
 80077a8:	f7f8 ff1a 	bl	80005e0 <_test_assert>
 80077ac:	b007      	add	sp, #28
 80077ae:	bd30      	pop	{r4, r5, pc}
 80077b0:	f7fa f86e 	bl	8001890 <_dbg_check_unlock>
 80077b4:	6823      	ldr	r3, [r4, #0]
 80077b6:	42a3      	cmp	r3, r4
 80077b8:	d004      	beq.n	80077c4 <sys1_execute+0x114>
 80077ba:	69a2      	ldr	r2, [r4, #24]
 80077bc:	689b      	ldr	r3, [r3, #8]
 80077be:	6892      	ldr	r2, [r2, #8]
 80077c0:	429a      	cmp	r2, r3
 80077c2:	d319      	bcc.n	80077f8 <sys1_execute+0x148>
 80077c4:	b662      	cpsie	i
 80077c6:	e7b5      	b.n	8007734 <sys1_execute+0x84>
 80077c8:	f7fa f862 	bl	8001890 <_dbg_check_unlock>
 80077cc:	6823      	ldr	r3, [r4, #0]
 80077ce:	42a3      	cmp	r3, r4
 80077d0:	d004      	beq.n	80077dc <sys1_execute+0x12c>
 80077d2:	69a2      	ldr	r2, [r4, #24]
 80077d4:	689b      	ldr	r3, [r3, #8]
 80077d6:	6892      	ldr	r2, [r2, #8]
 80077d8:	429a      	cmp	r2, r3
 80077da:	d309      	bcc.n	80077f0 <sys1_execute+0x140>
 80077dc:	b662      	cpsie	i
 80077de:	e7a5      	b.n	800772c <sys1_execute+0x7c>
 80077e0:	b672      	cpsid	i
 80077e2:	4b0b      	ldr	r3, [pc, #44]	; (8007810 <sys1_execute+0x160>)
 80077e4:	62e3      	str	r3, [r4, #44]	; 0x2c
 80077e6:	e7fe      	b.n	80077e6 <sys1_execute+0x136>
 80077e8:	b672      	cpsid	i
 80077ea:	4b09      	ldr	r3, [pc, #36]	; (8007810 <sys1_execute+0x160>)
 80077ec:	62e3      	str	r3, [r4, #44]	; 0x2c
 80077ee:	e7fe      	b.n	80077ee <sys1_execute+0x13e>
 80077f0:	b672      	cpsid	i
 80077f2:	4b07      	ldr	r3, [pc, #28]	; (8007810 <sys1_execute+0x160>)
 80077f4:	62e3      	str	r3, [r4, #44]	; 0x2c
 80077f6:	e7fe      	b.n	80077f6 <sys1_execute+0x146>
 80077f8:	b672      	cpsid	i
 80077fa:	4b05      	ldr	r3, [pc, #20]	; (8007810 <sys1_execute+0x160>)
 80077fc:	62e3      	str	r3, [r4, #44]	; 0x2c
 80077fe:	e7fe      	b.n	80077fe <sys1_execute+0x14e>
 8007800:	b672      	cpsid	i
 8007802:	4b03      	ldr	r3, [pc, #12]	; (8007810 <sys1_execute+0x160>)
 8007804:	62e3      	str	r3, [r4, #44]	; 0x2c
 8007806:	e7fe      	b.n	8007806 <sys1_execute+0x156>
 8007808:	20000738 	.word	0x20000738
 800780c:	08007821 	.word	0x08007821
 8007810:	08007940 	.word	0x08007940
	...

08007820 <vtcb>:
 8007820:	b510      	push	{r4, lr}
 8007822:	b672      	cpsid	i
 8007824:	f7f9 faa4 	bl	8000d70 <_dbg_check_lock_from_isr>
 8007828:	f7f9 fa8a 	bl	8000d40 <_dbg_check_unlock_from_isr>
 800782c:	b662      	cpsie	i
 800782e:	b672      	cpsid	i
 8007830:	f7f9 fa9e 	bl	8000d70 <_dbg_check_lock_from_isr>
 8007834:	f7ff ff24 	bl	8007680 <chSysGetStatusAndLockX>
 8007838:	07c3      	lsls	r3, r0, #31
 800783a:	d401      	bmi.n	8007840 <vtcb+0x20>
 800783c:	f7fa f8b8 	bl	80019b0 <chSysRestoreStatusX.part.3>
 8007840:	f7f9 fa7e 	bl	8000d40 <_dbg_check_unlock_from_isr>
 8007844:	b662      	cpsie	i
 8007846:	bd10      	pop	{r4, pc}
	...

08007850 <__default_exit>:
 8007850:	e7fe      	b.n	8007850 <__default_exit>
 8007852:	46c0      	nop			; (mov r8, r8)
	...

08007860 <__late_init>:
 8007860:	4770      	bx	lr
 8007862:	46c0      	nop			; (mov r8, r8)
	...
 8007870:	08000ddc 	.word	0x08000ddc
 8007874:	08000dd0 	.word	0x08000dd0
 8007878:	08000dd0 	.word	0x08000dd0
 800787c:	08000de4 	.word	0x08000de4
 8007880:	08000dc6 	.word	0x08000dc6
 8007884:	08000dba 	.word	0x08000dba
 8007888:	08000dd0 	.word	0x08000dd0
 800788c:	08000dc6 	.word	0x08000dc6
 8007890:	6e696c62 	.word	0x6e696c62
 8007894:	3172656b 	.word	0x3172656b
	...
 80078a0:	6e696c62 	.word	0x6e696c62
 80078a4:	3272656b 	.word	0x3272656b
	...

080078b0 <__func__.5146.lto_priv.100>:
 80078b0:	79536863 6c6e5573 006b636f 00000000     chSysUnlock.....

080078c0 <__func__.5146.lto_priv.101>:
 80078c0:	79536863 6c6e5573 006b636f 00000000     chSysUnlock.....

080078d0 <__func__.5146.lto_priv.102>:
 80078d0:	79536863 6c6e5573 006b636f 00000000     chSysUnlock.....

080078e0 <__func__.5146.lto_priv.103>:
 80078e0:	79536863 6c6e5573 006b636f 00000000     chSysUnlock.....

080078f0 <__func__.5146.lto_priv.104>:
 80078f0:	79536863 6c6e5573 006b636f 00000000     chSysUnlock.....

08007900 <__func__.5146.lto_priv.105>:
 8007900:	79536863 6c6e5573 006b636f 00000000     chSysUnlock.....

08007910 <__func__.5146.lto_priv.106>:
 8007910:	79536863 6c6e5573 006b636f 00000000     chSysUnlock.....

08007920 <__func__.5146.lto_priv.107>:
 8007920:	79536863 6c6e5573 006b636f 00000000     chSysUnlock.....

08007930 <__func__.5146.lto_priv.108>:
 8007930:	79536863 6c6e5573 006b636f 00000000     chSysUnlock.....

08007940 <__func__.5146.lto_priv.109>:
 8007940:	79536863 6c6e5573 006b636f 00000000     chSysUnlock.....

08007950 <__func__.5146.lto_priv.110>:
 8007950:	79536863 6c6e5573 006b636f 00000000     chSysUnlock.....

08007960 <__func__.5146.lto_priv.88>:
 8007960:	79536863 6c6e5573 006b636f 00000000     chSysUnlock.....

08007970 <__func__.5146.lto_priv.89>:
 8007970:	79536863 6c6e5573 006b636f 00000000     chSysUnlock.....

08007980 <__func__.5146.lto_priv.90>:
 8007980:	79536863 6c6e5573 006b636f 00000000     chSysUnlock.....

08007990 <__func__.5146.lto_priv.91>:
 8007990:	79536863 6c6e5573 006b636f 00000000     chSysUnlock.....

080079a0 <__func__.5146.lto_priv.92>:
 80079a0:	79536863 6c6e5573 006b636f 00000000     chSysUnlock.....

080079b0 <__func__.5146.lto_priv.93>:
 80079b0:	79536863 6c6e5573 006b636f 00000000     chSysUnlock.....

080079c0 <__func__.5146.lto_priv.94>:
 80079c0:	79536863 6c6e5573 006b636f 00000000     chSysUnlock.....

080079d0 <__func__.5146.lto_priv.95>:
 80079d0:	79536863 6c6e5573 006b636f 00000000     chSysUnlock.....

080079e0 <__func__.5146.lto_priv.96>:
 80079e0:	79536863 6c6e5573 006b636f 00000000     chSysUnlock.....

080079f0 <__func__.5146.lto_priv.97>:
 80079f0:	79536863 6c6e5573 006b636f 00000000     chSysUnlock.....

08007a00 <__func__.5146.lto_priv.98>:
 8007a00:	79536863 6c6e5573 006b636f 00000000     chSysUnlock.....

08007a10 <__func__.5146.lto_priv.99>:
 8007a10:	79536863 6c6e5573 006b636f 00000000     chSysUnlock.....

08007a20 <__func__.5232>:
 8007a20:	54566863 69546f44 00496b63 00000000     chVTDoTickI.....

08007a30 <__func__.5313>:
 8007a30:	68546863 61745364 00497472 00000000     chThdStartI.....

08007a40 <__func__.5329>:
 8007a40:	68546863 446f4464 65757165 654e6575     chThdDoDequeueNe
 8007a50:	00497478 00000000 00000000 00000000     xtI.............

08007a60 <__func__.5841.lto_priv.127>:
 8007a60:	68546863 64644164 00666552 00000000     chThdAddRef.....

08007a70 <__func__.5843.lto_priv.143>:
 8007a70:	734d6863 6e655367 00000064 00000000     chMsgSend.......

08007a80 <__func__.5846.lto_priv.156>:
 8007a80:	63536863 61655268 00497964 00000000     chSchReadyI.....

08007a90 <__func__.5846.lto_priv.157>:
 8007a90:	68546863 6c655264 65736165 00000000     chThdRelease....

08007aa0 <__func__.5847>:
 8007aa0:	65526863 78654e67 72685474 00646165     chRegNextThread.

08007ab0 <__func__.5849.lto_priv.119>:
 8007ab0:	54566863 65536f44 00004974 00000000     chVTDoSetI......

08007ac0 <__func__.5849.lto_priv.120>:
 8007ac0:	744d6863 636f4c78 0000536b 00000000     chMtxLockS......

08007ad0 <__func__.5852.lto_priv.154>:
 8007ad0:	65536863 7365526d 00497465 00000000     chSemResetI.....

08007ae0 <__func__.5852.lto_priv.155>:
 8007ae0:	734d6863 6c655267 65736165 00000000     chMsgRelease....

08007af0 <__func__.5857.lto_priv.151>:
 8007af0:	54566863 65526f44 49746573 00000000     chVTDoResetI....

08007b00 <__func__.5858>:
 8007b00:	68546863 65724364 49657461 00000000     chThdCreateI....

08007b10 <__func__.5863.lto_priv.123>:
 8007b10:	65536863 6961576d 00005374 00000000     chSemWaitS......

08007b20 <__func__.5865>:
 8007b20:	65486863 72467061 00006565 00000000     chHeapFree......

08007b30 <__func__.5866.lto_priv.118>:
 8007b30:	76456863 6f724274 61636461 6c467473     chEvtBroadcastFl
 8007b40:	49736761 00000000 00000000 00000000     agsI............

08007b50 <__func__.5867>:
 8007b50:	6f506863 72466c6f 00496565 00000000     chPoolFreeI.....

08007b60 <__func__.5869>:
 8007b60:	51496863 64616552 656d6954 0074756f     chIQReadTimeout.

08007b70 <__func__.5871>:
 8007b70:	6f436863 6157646e 00537469 00000000     chCondWaitS.....

08007b80 <__func__.5872>:
 8007b80:	744d6863 6c6e5578 006b636f 00000000     chMtxUnlock.....

08007b90 <__func__.5873>:
 8007b90:	65536863 6961576d 6d695474 74756f65     chSemWaitTimeout
 8007ba0:	00000053 00000000 00000000 00000000     S...............

08007bb0 <__func__.5874>:
 8007bb0:	68546863 74655364 6f697250 79746972     chThdSetPriority
	...

08007bd0 <__func__.5877>:
 8007bd0:	65536863 6769536d 006c616e 00000000     chSemSignal.....

08007be0 <__func__.5878>:
 8007be0:	76456863 67695374 006c616e 00000000     chEvtSignal.....

08007bf0 <__func__.5881.lto_priv.125>:
 8007bf0:	65536863 6769536d 496c616e 00000000     chSemSignalI....

08007c00 <__func__.5883.lto_priv.148>:
 8007c00:	744d6863 6c6e5578 536b636f 00000000     chMtxUnlockS....

08007c10 <__func__.5883.lto_priv.149>:
 8007c10:	6f436863 6157646e 69547469 756f656d     chCondWaitTimeou
 8007c20:	00005374 00000000 00000000 00000000     tS..............

08007c30 <__func__.5883.lto_priv.150>:
 8007c30:	76456863 67695374 496c616e 00000000     chEvtSignalI....

08007c40 <__func__.5887>:
 8007c40:	65536863 6464416d 6e756f43 49726574     chSemAddCounterI
	...

08007c60 <__func__.5896>:
 8007c60:	65536863 6769536d 576c616e 00746961     chSemSignalWait.

08007c70 <__func__.5897>:
 8007c70:	76456863 73694474 63746170 00000068     chEvtDispatch...

08007c80 <__func__.5902>:
 8007c80:	68546863 69784564 00005374 00000000     chThdExitS......

08007c90 <__func__.5905>:
 8007c90:	514f6863 74697257 6d695465 74756f65     chOQWriteTimeout
	...

08007cb0 <__func__.5907>:
 8007cb0:	68546863 69615764 00000074 00000000     chThdWait.......

08007cc0 <__func__.6258>:
 8007cc0:	74537473 41747261 6d72616c 00000000     stStartAlarm....

08007cd0 <__func__.6265>:
 8007cd0:	65537473 616c4174 00006d72 00000000     stSetAlarm......

08007ce0 <__func__.6303>:
 8007ce0:	74536473 00747261 00000000 00000000     sdStart.........
 8007cf0:	33235653 00000000 00000000 00000000     SV#3............
 8007d00:	38235653 00000000 00000000 00000000     SV#8............
 8007d10:	39235653 00000000 00000000 00000000     SV#9............
 8007d20:	34235653 00000000 00000000 00000000     SV#4............
 8007d30:	36235653 00000000 00000000 00000000     SV#6............
 8007d40:	32235653 00000000 00000000 00000000     SV#2............
 8007d50:	35235653 00000000 00000000 00000000     SV#5............
 8007d60:	37235653 00000000 00000000 00000000     SV#7............
 8007d70:	61686e75 656c646e 78652064 74706563     unhandled except
 8007d80:	006e6f69 00000000 00000000 00000000     ion.............
 8007d90:	6d697420 2f737265 00000053 00000000      timers/S.......
 8007da0:	69617720 69732b74 6c616e67 0000532f      wait+signal/S..
 8007db0:	202d2d2d 726f6353 203a2065 00000000     --- Score : ....
 8007dc0:	636f6c20 6e752b6b 6b636f6c 0000532f      lock+unlock/S..
 8007dd0:	202d2d2d 74737953 203a6d65 00000000     --- System: ....
 8007de0:	74796220 00007365 202d2d2d 65726854      bytes..--- Thre
 8007df0:	203a6461 00000000 202d2d2d 656d6954     ad: ....--- Time
 8007e00:	203a2072 00000000 202d2d2d 616d6553     r : ....--- Sema
 8007e10:	203a6870 00000000 202d2d2d 6e657645     ph: ....--- Even
 8007e20:	203a5374 00000000 202d2d2d 6e657645     tS: ....--- Even
 8007e30:	203a4c74 00000000 202d2d2d 6574754d     tL: ....--- Mute
 8007e40:	203a2078 00000000 202d2d2d 646e6f43     x : ....--- Cond
 8007e50:	203a2e56 00000000 202d2d2d 75657551     V.: ....--- Queu
 8007e60:	203a2065 00000000 202d2d2d 6c69614d     e : ....--- Mail
 8007e70:	203a2e42 00000000 00000000 00000000     B.: ............
 8007e80:	67736d20 2c532f73 00000020 00000000      msgs/S, .......
 8007e90:	72687420 73646165 0000532f 00000000      threads/S......
 8007ea0:	73657220 64656863 73656c75 202c532f      reschedules/S, 
	...
 8007ec0:	78746320 2f637773 00000053 00000000      ctxswc/S.......
 8007ed0:	74796220 532f7365 00000000 00000000      bytes/S........
 8007ee0:	31235653 00000030 00000000 00000000     SV#10...........
 8007ef0:	31235653 00000031 00000000 00000000     SV#11...........
 8007f00:	63617473 766f206b 6c667265 0000776f     stack overflow..

08007f10 <ch_debug>:
 8007f10:	6e69616d 18011600 08480404 1814100c     main......H.....
 8007f20:	2221201c 00000000 00000000 00000000     . !"............
 8007f30:	00004241 00000000 00000000 00000000     AB..............
 8007f40:	00000041 00000042 00000043 00000044     A...B...C...D...
 8007f50:	44434241 00000000 00000000 00000000     ABCD............

08007f60 <evhndl>:
 8007f60:	08002471 08002461 08002451 00000000     q$..a$..Q$......
 8007f70:	00434241 00000000 00000000 00000000     ABC.............
 8007f80:	202a2a2a 6e72654b 203a6c65 20202020     *** Kernel:     
 8007f90:	00002020 202a2a2a 706d6f43 64656c69       ..*** Compiled
 8007fa0:	2020203a 00002020 202a2a2a 706d6f43     :     ..*** Comp
 8007fb0:	72656c69 2020203a 00002020 202a2a2a     iler:     ..*** 
 8007fc0:	68637241 63657469 65727574 0000203a     Architecture: ..
 8007fd0:	202a2a2a 65726f43 72615620 746e6169     *** Core Variant
 8007fe0:	0000203a 202a2a2a 74726f50 666e4920     : ..*** Port Inf
 8007ff0:	20203a6f 00002020 202a2a2a 74616c50     o:    ..*** Plat
 8008000:	6d726f66 2020203a 00002020 202a2a2a     form:     ..*** 
 8008010:	74736554 616f4220 203a6472 00002020     Test Board:   ..
 8008020:	202d2d2d 74736554 73614320 00002065     --- Test Case ..
 8008030:	00002820 202d2d2d 75736552 203a746c      (..--- Result: 
 8008040:	4c494146 20455255 00002328 00005b20     FAILURE (#.. [..
 8008050:	616e6946 6572206c 746c7573 0000203a     Final result: ..
 8008060:	656c6469 00000000 202a2a2a 62696843     idle....*** Chib
 8008070:	2f534f69 74205452 20747365 74697573     iOS/RT test suit
 8008080:	00000065 002a2a2a 2e302e33 00000030     e...***.3.0.0...
 8008090:	20727041 32203620 20383130 3631202d     Apr  6 2018 - 16
 80080a0:	3a30303a 00003533 20434347 2e322e37     :00:35..GCC 7.2.
 80080b0:	30322031 39303731 28203430 656c6572     1 20170904 (rele
 80080c0:	29657361 52415b20 6d652f4d 64646562     ase) [ARM/embedd
 80080d0:	372d6465 6172622d 2068636e 69766572     ed-7-branch revi
 80080e0:	6e6f6973 35353220 5d343032 00000000     sion 255204]....
 80080f0:	764d5241 004d2d36 74726f43 4d2d7865     ARMv6-M.Cortex-M
 8008100:	00000030 65657250 6974706d 74206e6f     0...Preemption t
 8008110:	756f7268 4e206867 0000494d 334d5453     hrough NMI..STM3
 8008120:	37304632 20427832 72746e45 654c2079     2F072xB Entry Le
 8008130:	206c6576 6964654d 44206d75 69736e65     vel Medium Densi
 8008140:	64207974 63697665 00007365 53205453     ty devices..ST S
 8008150:	32334d54 32373046 69442d42 766f6373     TM32F072B-Discov
 8008160:	00797265 00000029 0000295d 202d2d2d     ery.)...])..--- 
 8008170:	75736552 203a746c 43435553 00535345     Result: SUCCESS.
 8008180:	4c494146 00455255 00000000 00000000     FAILURE.........
 8008190:	44434241 00000045 00000000 00000000     ABCDE...........

080081a0 <patternbmk>:
 80081a0:	080087f0 08008840 08008850 08008860     ....@...P...`...
 80081b0:	08008870 08008880 08008890 080088a0     p...............
 80081c0:	080088b0 08008800 08008810 08008820     ............ ...
 80081d0:	08008830 00000000 00000000 00000000     0...............

080081e0 <patterndyn>:
 80081e0:	080088c0 080088d0 080088e0 00000000     ................

080081f0 <patternevt>:
 80081f0:	080088f0 08008900 08008910 00000000     ................

08008200 <patternheap>:
 8008200:	08008920 00000000 00000000 00000000      ...............

08008210 <patternmbox>:
 8008210:	08008930 00000000 00000000 00000000     0...............

08008220 <patternmsg>:
 8008220:	08008940 00000000 00000000 00000000     @...............

08008230 <patternmtx>:
 8008230:	08008950 08008960 08008970 08008980     P...`...p.......
 8008240:	08008990 080089a0 00000000 00000000     ................

08008250 <patternpools>:
 8008250:	080089b0 00000000 00000000 00000000     ................

08008260 <patternqueues>:
 8008260:	080089c0 080089d0 00000000 00000000     ................

08008270 <patterns>:
 8008270:	080082d0 080082e0 080082b0 08008230     ............0...
 8008280:	08008220 08008210 080081f0 08008200      ...............
 8008290:	08008250 080081e0 08008260 080081a0     P.......`.......
	...

080082b0 <patternsem>:
 80082b0:	080089e0 080089f0 08008a00 08008a10     ................
	...

080082d0 <patternsys>:
 80082d0:	08008a20 08008a30 08008a40 00000000      ...0...@.......

080082e0 <patternthd>:
 80082e0:	08008a50 08008a60 08008a70 08008a80     P...`...p.......
	...
 8008300:	00000a0d 00000000 00000000 00000000     ................
 8008310:	636e6542 72616d68 52202c6b 66204d41     Benchmark, RAM f
 8008320:	70746f6f 746e6972 00000000 636e6542     ootprint....Benc
 8008330:	72616d68 6d202c6b 78657475 6c207365     hmark, mutexes l
 8008340:	2f6b636f 6f6c6e75 00006b63 636e6542     ock/unlock..Benc
 8008350:	72616d68 73202c6b 70616d65 65726f68     hmark, semaphore
 8008360:	61772073 732f7469 616e6769 0000006c     s wait/signal...
 8008370:	636e6542 72616d68 76202c6b 75747269     Benchmark, virtu
 8008380:	74206c61 72656d69 65732073 65722f74     al timers set/re
 8008390:	00746573 636e6542 72616d68 49202c6b     set.Benchmark, I
 80083a0:	51204f2f 65756575 68742073 67756f72     /O Queues throug
 80083b0:	74757068 00000000 636e6542 72616d68     hput....Benchmar
 80083c0:	72202c6b 646e756f 626f7220 63206e69     k, round robin c
 80083d0:	65746e6f 73207478 63746977 676e6968     ontext switching
 80083e0:	00000000 636e6542 72616d68 6d202c6b     ....Benchmark, m
 80083f0:	20737361 63736572 75646568 202c656c     ass reschedule, 
 8008400:	68742035 64616572 00000073 636e6542     5 threads...Benc
 8008410:	72616d68 74202c6b 61657268 202c7364     hmark, threads, 
 8008420:	61657263 6f206574 00796c6e 636e6542     create only.Benc
 8008430:	72616d68 74202c6b 61657268 202c7364     hmark, threads, 
 8008440:	6c6c7566 63796320 0000656c 636e6542     full cycle..Benc
 8008450:	72616d68 63202c6b 65746e6f 73207478     hmark, context s
 8008460:	63746977 00000068 636e6542 72616d68     witch...Benchmar
 8008470:	6d202c6b 61737365 20736567 00003323     k, messages #3..
 8008480:	636e6542 72616d68 6d202c6b 61737365     Benchmark, messa
 8008490:	20736567 00003223 636e6542 72616d68     ges #2..Benchmar
 80084a0:	6d202c6b 61737365 20736567 00003123     k, messages #1..
 80084b0:	75657551 202c7365 7074756f 71207475     Queues, output q
 80084c0:	65756575 00000073 75657551 202c7365     ueues...Queues, 
 80084d0:	75706e69 75712074 73657565 00000000     input queues....
 80084e0:	616e7944 2063696d 73495041 6572202c     Dynamic APIs, re
 80084f0:	74736967 61207972 7220646e 72656665     gistry and refer
 8008500:	65636e65 00000073 616e7944 2063696d     ences...Dynamic 
 8008510:	73495041 6874202c 64616572 72632073     APIs, threads cr
 8008520:	69746165 66206e6f 206d6f72 6f6d656d     eation from memo
 8008530:	70207972 006c6f6f 616e7944 2063696d     ry pool.Dynamic 
 8008540:	73495041 6874202c 64616572 72632073     APIs, threads cr
 8008550:	69746165 66206e6f 206d6f72 70616568     eation from heap
 8008560:	00000000 6f6d654d 50207972 736c6f6f     ....Memory Pools
 8008570:	7571202c 2f657565 75716564 00657565     , queue/dequeue.
 8008580:	70616548 6c61202c 61636f6c 6e6f6974     Heap, allocation
 8008590:	646e6120 61726620 6e656d67 69746174      and fragmentati
 80085a0:	74206e6f 00747365 6e657645 202c7374     on test.Events, 
 80085b0:	656d6974 7374756f 00000000 6e657645     timeouts....Even
 80085c0:	202c7374 74696177 646e6120 6f726220     ts, wait and bro
 80085d0:	61636461 00007473 6e657645 202c7374     adcast..Events, 
 80085e0:	69676572 61727473 6e6f6974 646e6120     registration and
 80085f0:	73696420 63746170 00000068 6c69614d      dispatch...Mail
 8008600:	65786f62 71202c73 69756575 6120676e     boxes, queuing a
 8008610:	7420646e 6f656d69 00737475 7373654d     nd timeouts.Mess
 8008620:	73656761 6f6c202c 0000706f 646e6f43     ages, loop..Cond
 8008630:	2c726156 6f6f6220 74207473 00747365     Var, boost test.
 8008640:	646e6f43 2c726156 6f726220 61636461     CondVar, broadca
 8008650:	74207473 00747365 646e6f43 2c726156     st test.CondVar,
 8008660:	67697320 206c616e 74736574 00000000      signal test....
 8008670:	6574754d 2c736578 61747320 00737574     Mutexes, status.
 8008680:	6574754d 2c736578 69727020 7469726f     Mutexes, priorit
 8008690:	65722079 6e727574 00000000 6574754d     y return....Mute
 80086a0:	2c736578 69727020 7469726f 6e652079     xes, priority en
 80086b0:	75657571 20676e69 74736574 00000000     queuing test....
 80086c0:	616e6942 53207972 70616d65 65726f68     Binary Semaphore
 80086d0:	66202c73 74636e75 616e6f69 7974696c     s, functionality
 80086e0:	00000000 616d6553 726f6870 202c7365     ....Semaphores, 
 80086f0:	6d6f7461 73206369 616e6769 61772d6c     atomic signal-wa
 8008700:	00007469 616d6553 726f6870 202c7365     it..Semaphores, 
 8008710:	656d6974 0074756f 616d6553 726f6870     timeout.Semaphor
 8008720:	202c7365 75716e65 6e697565 00000067     es, enqueuing...
 8008730:	65726854 2c736461 6c656420 00737961     Threads, delays.
 8008740:	65726854 2c736461 69727020 7469726f     Threads, priorit
 8008750:	68632079 65676e61 00000000 65726854     y change....Thre
 8008760:	2c736461 716e6520 69756575 7420676e     ads, enqueuing t
 8008770:	20747365 00003223 65726854 2c736461     est #2..Threads,
 8008780:	716e6520 69756575 7420676e 20747365      enqueuing test 
 8008790:	00003123 74737953 202c6d65 65746e69     #1..System, inte
 80087a0:	74697267 00000079 74737953 202c6d65     grity...System, 
 80087b0:	65746e69 70757272 68207374 6c646e61     interrupts handl
 80087c0:	00676e69 74737953 202c6d65 74697263     ing.System, crit
 80087d0:	6c616369 6e6f7a20 00007365 00000000     ical zones......
 80087e0:	31235653 00000000 00000000 00000000     SV#1............

080087f0 <testbmk1>:
 80087f0:	08008498 00000000 00000000 080059c1     .............Y..

08008800 <testbmk10>:
 8008800:	08008370 00000000 00000000 080047e1     p............G..

08008810 <testbmk11>:
 8008810:	0800834c 08001121 00000000 08004771     L...!.......qG..

08008820 <testbmk12>:
 8008820:	0800832c 08001111 00000000 08004701     ,............G..

08008830 <testbmk13>:
 8008830:	08008310 00000000 00000000 08001021     ............!...

08008840 <testbmk2>:
 8008840:	08008480 00000000 00000000 08005951     ............QY..

08008850 <testbmk3>:
 8008850:	08008468 00000000 00000000 08005861     h...........aX..

08008860 <testbmk4>:
 8008860:	0800844c 00000000 00000000 08005771     L...........qW..

08008870 <testbmk5>:
 8008870:	0800842c 00000000 00000000 080056f1     ,............V..

08008880 <testbmk6>:
 8008880:	0800840c 00000000 00000000 08005671     ............qV..

08008890 <testbmk7>:
 8008890:	080083e4 08001131 00000000 08005551     ....1.......QU..

080088a0 <testbmk8>:
 80088a0:	080083b8 00000000 00000000 08005461     ............aT..

080088b0 <testbmk9>:
 80088b0:	08008394 00000000 00000000 08004891     .............H..

080088c0 <testdyn1>:
 80088c0:	08008538 08000441 00000000 08004141     8...A.......AA..

080088d0 <testdyn2>:
 80088d0:	08008508 08001141 00000000 08004031     ....A.......1@..

080088e0 <testdyn3>:
 80088e0:	080084e0 08000471 00000000 080043f1     ....q........C..

080088f0 <testevt1>:
 80088f0:	080085d8 08001bf1 00000000 08003301     .............3..

08008900 <testevt2>:
 8008900:	080085bc 08001c11 00000000 080062b1     .............b..

08008910 <testevt3>:
 8008910:	080085a8 08001c01 00000000 08002121     ............!!..

08008920 <testheap1>:
 8008920:	08008580 08000491 00000000 08003a81     .............:..

08008930 <testmbox1>:
 8008930:	080085fc 08001181 00000000 08002481     .............$..

08008940 <testmsg1>:
 8008940:	0800861c 00000000 00000000 080065f1     .............e..

08008950 <testmtx1>:
 8008950:	0800869c 08001211 00000000 08006bd1     .............k..

08008960 <testmtx4>:
 8008960:	08008680 080004c1 00000000 08006931     ............1i..

08008970 <testmtx5>:
 8008970:	08008670 08001221 00000000 08003781     p...!........7..

08008980 <testmtx6>:
 8008980:	08008658 080011e1 00000000 08006821     X...........!h..

08008990 <testmtx7>:
 8008990:	08008640 08001201 00000000 08006701     @............g..

080089a0 <testmtx8>:
 80089a0:	0800862c 080011b1 00000000 08006671     ,...........qf..

080089b0 <testpools1>:
 80089b0:	08008564 08001161 00000000 08002c41     d...a.......A,..

080089c0 <testqueues1>:
 80089c0:	080084c8 08000411 00000000 08005e61     ............a^..

080089d0 <testqueues2>:
 80089d0:	080084b0 080003e1 00000000 08005a31     ............1Z..

080089e0 <testsem1>:
 80089e0:	08008718 08001231 00000000 08007261     ....1.......ar..

080089f0 <testsem2>:
 80089f0:	08008704 08001251 00000000 08007051     ....Q.......Qp..

08008a00 <testsem3>:
 8008a00:	080086e4 08001241 00000000 08006fc1     ....A........o..

08008a10 <testsem4>:
 8008a10:	080086c0 00000000 00000000 08006cd1     .............l..

08008a20 <testsys1>:
 8008a20:	080087c4 00000000 00000000 080076b1     .............v..

08008a30 <testsys2>:
 8008a30:	080087a8 00000000 00000000 08000e41     ............A...

08008a40 <testsys3>:
 8008a40:	08008794 00000000 00000000 08001fc1     ................

08008a50 <testthd1>:
 8008a50:	08008778 00000000 00000000 080075a1     x............u..

08008a60 <testthd2>:
 8008a60:	0800875c 00000000 00000000 08007461     \...........at..

08008a70 <testthd3>:
 8008a70:	08008740 00000000 00000000 08004b51     @...........QK..

08008a80 <testthd4>:
 8008a80:	08008730 00000000 00000000 08004991     0............I..

08008a90 <vmt>:
 8008a90:	08002e81 08003051 08002f61 08003121     ....Q0..a/..!1..
 8008aa0:	08002f51 08003111 08002e71 08003041     Q/...1..q...A0..

08008ab0 <wa>:
 8008ab0:	20000d58 20000ea8 20000ff8 20001148     X.. ... ... H.. 
 8008ac0:	20001298                                ... 
